((lp1
I0
aI223
aI455
aI544
aI591
aI837
aI944
aI1016
aI1096
aI1156
aI1587
aI1852
aI1974
aI2223
aI2324
aI2804
aI2944
aI3163
aI3205
aI3331
aI3529
aI3713
aI3825
aI3942
aI4132
aI4454
aI4776
aI4900
aI5001
aI5159
aI5270
aI5408
aI5605
aI5778
aI5876
aI6135
aI6346
aI6498
aI6607
aI6681
aI6793
aI6848
aI6968
aI7191
aI7392
aI7731
aI7807
aI7931
aI8079
aI8453
aI8655
aI8834
aI9013
aI9188
aI9637
aI9757
aI9916
aI10018
aI10277
aI10370
aI10449
aI10517
aI10782
aI10924
aI11055
aI11541
aI11710
aI11789
aI12037
aI12240
aI12415
aI12555
aI12606
aI13205
aI13444
aI13566
aI13641
aI14321
aI14355
aI14604
aI14732
aI14903
aI14952
aI15223
aI15559
aI15741
aI15968
aI16305
aI16458
aI16538
aI16768
aI16943
aI17166
aI17437
aI17571
aI17623
aI17876
aI18030
aI18173
aI18354
aI18755
aI18855
aI19032
aI19281
aI19358
aI19904
aI20062
aI20293
aI20441
aI20544
aI20605
aI20675
aI20793
aI20982
aI21056
aI21208
aI21596
aI21655
aI21865
aI22002
aI22189
aI22355
aI22554
aI22645
aI22797
aI23101
aI23222
aI23421
aI23747
aI24113
aI24407
aI24654
aI24823
aI25000
aI25354
aI25464
aI25787
aI25884
aI26156
aI26288
aI26532
aI26616
aI26671
aI26762
aI26799
aI26887
aI27117
aI27273
aI27575
aI27736
aI28259
aI28460
aI28597
aI28936
aI29090
aI29324
aI29440
aI29681
aI29776
aI29876
aI29953
a(lp2
ccopy_reg
_reconstructor
p3
(csefaria.model.text
Ref
p4
c__builtin__
object
p5
NtRp6
(dp7
S'index_node'
p8
g3
(csefaria.model.schema
JaggedArrayNode
p9
g5
NtRp10
(dp11
S'_address'
p12
(lp13
VDevarim Rabbah
p14
asS'_full_titles'
p15
(dp16
sVnodeType
p17
VJaggedArrayNode
p18
sS'parent'
p19
NsVaddressTypes
p20
(lp21
VInteger
p22
aVInteger
p23
asS'default'
p24
I00
sS'index'
p25
g3
(csefaria.model.text
Index
p26
g5
NtRp27
(dp28
S'pkeys_orig_values'
p29
(dp30
S'title'
p31
VDevarim Rabbah
p32
ssS'pubDate'
p33
V1512
p34
sS'compDate'
p35
V900
p36
sS'pubPlace'
p37
VIstanbul
p38
sS'compPlace'
p39
VTalmudic Israel/Babylon
p40
sS'enDesc'
p41
VDevarim Rabbah (The Great Deuteronomy) is an aggadic midrash or homiletic commentary on Deuteronomy. Unlike Bereshit Rabbah, the Midrash to Deuteronomy does not contain running commentaries on the text of the Bible, but twenty-five complete, independent homilies, together with two fragmentary ones. These are arranged as sedarim, the Sabbatical lessons for public worship according to the Palestinian triennial cycle. The stylistic manner of the opening discourse with a halakhic question is so closely connected with the original Midrash Tan\u1e25uma. However, the introductory formula Yelamdenu ("May our teacher instruct us?") was used so often it was oftned named Yelamdenu. It was written around 900.
p42
sS'order'
p43
(lp44
F5
asS'era'
p45
VRI
p46
sS'struct_objs'
p47
(dp48
sS'nodes'
p49
g10
sS'_id'
p50
g3
(cbson.objectid
ObjectId
p51
g5
NtRp52
S'Q\x0e\x04,\xed\xba\xb4v\x8f\x0c\x86Z'
p53
bsS'_title'
p54
g32
sS'categories'
p55
(lp56
VMidrash
p57
aVAggadic Midrash
p58
aVMidrash Rabbah
p59
asS'schema'
p60
(dp61
g17
g18
sg20
g21
sVdepth
p62
I2
sVtitles
p63
(lp64
(dp65
Vlang
p66
Ven
p67
sVtext
p68
VDvarim Rabba
p69
sa(dp70
Vlang
p71
Ven
p72
sVtext
p73
VDvarim Rabbah
p74
sa(dp75
Vlang
p76
Ven
p77
sVtext
p78
VDeuteronomy Rabbah
p79
sa(dp80
Vlang
p81
Ven
p82
sVtext
p83
VD'varim Rabbah
p84
sa(dp85
Vlang
p86
Ven
p87
sVtext
p88
VD'varim Rabba
p89
sa(dp90
Vlang
p91
Ven
p92
sVtext
p93
VDevarim Rabba
p94
sa(dp95
Vlang
p96
Vhe
p97
sVtext
p98
V\u05d3\u05d1\u05e8\u05d9\u05dd \u05e8\u05d1\u05d4
p99
sVprimary
p100
I01
sa(dp101
Vlang
p102
Ven
p103
sVtext
p104
VDeuteronomy Rabba
p105
sa(dp106
Vlang
p107
Ven
p108
sVtext
p109
VDevarim Rabbah
p110
sVprimary
p111
I01
sasVkey
p112
g14
sVsectionNames
p113
(lp114
VChapter
p115
aVParagraph
p116
assbsS'_primary_title'
p117
(dp118
sS'title_group'
p119
g3
(csefaria.model.schema
TitleGroup
p120
g5
NtRp121
(dp122
g117
(dp123
S'en'
p124
g110
ssS'titles'
p125
g64
sbsS'_addressTypes'
p126
(lp127
g3
(csefaria.model.schema
AddressInteger
p128
g5
NtRp129
(dp130
S'length'
p131
Nsg43
I0
sbag3
(g128
g5
NtRp132
(dp133
g131
Nsg43
I1
sbasS'sharedTitle'
p134
Nsg62
I2
sS'_full_title'
p135
(dp136
g124
g110
ssS'key'
p137
g14
sS'checkFirst'
p138
NsS'_regexes'
p139
(dp140
sS'_leaf_nodes'
p141
(lp142
sg113
g114
sS'children'
p143
(lp144
sbsS'_range_index'
p145
NsS'_context'
p146
(dp147
sS'_padded'
p148
Nsg25
g27
sS'sections'
p149
(lp150
I1
aI1
asS'_first_spanned_ref'
p151
NsS'tref'
p152
VDevarim Rabbah 1:1
p153
sS'_spanned_refs'
p154
(lp155
sS'book'
p156
g110
sS'_range_depth'
p157
NsS'toSections'
p158
(lp159
I1
aI1
asS'_url'
p160
NsS'_normal'
p161
g153
sS'_ranged_refs'
p162
(lp163
sS'type'
p164
g57
sS'_prev'
p165
NsS'_he_normal'
p166
NsS'_next'
p167
Nsbag3
(g4
g5
NtRp168
(dp169
g8
g10
sg145
Nsg146
(dp170
sg148
Nsg25
g27
sg149
(lp171
I1
aI2
asg151
Nsg152
VDevarim Rabbah 1:2
p172
sg154
(lp173
sg156
g110
sg157
Nsg158
(lp174
I1
aI2
asg160
Nsg161
g172
sg162
(lp175
sg164
g57
sg165
Nsg166
Nsg167
Nsbag3
(g4
g5
NtRp176
(dp177
g8
g10
sg145
Nsg146
(dp178
sg148
Nsg25
g27
sg149
(lp179
I1
aI3
asg151
Nsg152
VDevarim Rabbah 1:3
p180
sg154
(lp181
sg156
g110
sg157
Nsg158
(lp182
I1
aI3
asg160
Nsg161
g180
sg162
(lp183
sg164
g57
sg165
Nsg166
Nsg167
Nsbag3
(g4
g5
NtRp184
(dp185
g8
g10
sg145
Nsg146
(dp186
sg148
Nsg25
g27
sg149
(lp187
I1
aI4
asg151
Nsg152
VDevarim Rabbah 1:4
p188
sg154
(lp189
sg156
g110
sg157
Nsg158
(lp190
I1
aI4
asg160
Nsg161
g188
sg162
(lp191
sg164
g57
sg165
Nsg166
Nsg167
Nsbag3
(g4
g5
NtRp192
(dp193
g8
g10
sg145
Nsg146
(dp194
sg148
Nsg25
g27
sg149
(lp195
I1
aI5
asg151
Nsg152
VDevarim Rabbah 1:5
p196
sg154
(lp197
sg156
g110
sg157
Nsg158
(lp198
I1
aI5
asg160
Nsg161
g196
sg162
(lp199
sg164
g57
sg165
Nsg166
Nsg167
Nsbag3
(g4
g5
NtRp200
(dp201
g8
g10
sg145
Nsg146
(dp202
sg148
Nsg25
g27
sg149
(lp203
I1
aI6
asg151
Nsg152
VDevarim Rabbah 1:6
p204
sg154
(lp205
sg156
g110
sg157
Nsg158
(lp206
I1
aI6
asg160
Nsg161
g204
sg162
(lp207
sg164
g57
sg165
Nsg166
Nsg167
Nsbag3
(g4
g5
NtRp208
(dp209
g8
g10
sg145
Nsg146
(dp210
sg148
Nsg25
g27
sg149
(lp211
I1
aI7
asg151
Nsg152
VDevarim Rabbah 1:7
p212
sg154
(lp213
sg156
g110
sg157
Nsg158
(lp214
I1
aI7
asg160
Nsg161
g212
sg162
(lp215
sg164
g57
sg165
Nsg166
Nsg167
Nsbag3
(g4
g5
NtRp216
(dp217
g8
g10
sg145
Nsg146
(dp218
sg148
Nsg25
g27
sg149
(lp219
I1
aI8
asg151
Nsg152
VDevarim Rabbah 1:8
p220
sg154
(lp221
sg156
g110
sg157
Nsg158
(lp222
I1
aI8
asg160
Nsg161
g220
sg162
(lp223
sg164
g57
sg165
Nsg166
Nsg167
Nsbag3
(g4
g5
NtRp224
(dp225
g8
g10
sg145
Nsg146
(dp226
sg148
Nsg25
g27
sg149
(lp227
I1
aI9
asg151
Nsg152
VDevarim Rabbah 1:9
p228
sg154
(lp229
sg156
g110
sg157
Nsg158
(lp230
I1
aI9
asg160
Nsg161
g228
sg162
(lp231
sg164
g57
sg165
Nsg166
Nsg167
Nsbag3
(g4
g5
NtRp232
(dp233
g8
g10
sg145
Nsg146
(dp234
sg148
Nsg25
g27
sg149
(lp235
I1
aI10
asg151
Nsg152
VDevarim Rabbah 1:10
p236
sg154
(lp237
sg156
g110
sg157
Nsg158
(lp238
I1
aI10
asg160
Nsg161
g236
sg162
(lp239
sg164
g57
sg165
Nsg166
Nsg167
Nsbag3
(g4
g5
NtRp240
(dp241
g8
g10
sg145
Nsg146
(dp242
sg148
Nsg25
g27
sg149
(lp243
I1
aI11
asg151
Nsg152
VDevarim Rabbah 1:11
p244
sg154
(lp245
sg156
g110
sg157
Nsg158
(lp246
I1
aI11
asg160
Nsg161
g244
sg162
(lp247
sg164
g57
sg165
Nsg166
Nsg167
Nsbag3
(g4
g5
NtRp248
(dp249
g8
g10
sg145
Nsg146
(dp250
sg148
Nsg25
g27
sg149
(lp251
I1
aI12
asg151
Nsg152
VDevarim Rabbah 1:12
p252
sg154
(lp253
sg156
g110
sg157
Nsg158
(lp254
I1
aI12
asg160
Nsg161
g252
sg162
(lp255
sg164
g57
sg165
Nsg166
Nsg167
Nsbag3
(g4
g5
NtRp256
(dp257
g8
g10
sg145
Nsg146
(dp258
sg148
Nsg25
g27
sg149
(lp259
I1
aI13
asg151
Nsg152
VDevarim Rabbah 1:13
p260
sg154
(lp261
sg156
g110
sg157
Nsg158
(lp262
I1
aI13
asg160
Nsg161
g260
sg162
(lp263
sg164
g57
sg165
Nsg166
Nsg167
Nsbag3
(g4
g5
NtRp264
(dp265
g8
g10
sg145
Nsg146
(dp266
sg148
Nsg25
g27
sg149
(lp267
I1
aI14
asg151
Nsg152
VDevarim Rabbah 1:14
p268
sg154
(lp269
sg156
g110
sg157
Nsg158
(lp270
I1
aI14
asg160
Nsg161
g268
sg162
(lp271
sg164
g57
sg165
Nsg166
Nsg167
Nsbag3
(g4
g5
NtRp272
(dp273
g8
g10
sg145
Nsg146
(dp274
sg148
Nsg25
g27
sg149
(lp275
I1
aI15
asg151
Nsg152
VDevarim Rabbah 1:15
p276
sg154
(lp277
sg156
g110
sg157
Nsg158
(lp278
I1
aI15
asg160
Nsg161
g276
sg162
(lp279
sg164
g57
sg165
Nsg166
Nsg167
Nsbag3
(g4
g5
NtRp280
(dp281
g8
g10
sg145
Nsg146
(dp282
sg148
Nsg25
g27
sg149
(lp283
I1
aI16
asg151
Nsg152
VDevarim Rabbah 1:16
p284
sg154
(lp285
sg156
g110
sg157
Nsg158
(lp286
I1
aI16
asg160
Nsg161
g284
sg162
(lp287
sg164
g57
sg165
Nsg166
Nsg167
Nsbag3
(g4
g5
NtRp288
(dp289
g8
g10
sg145
Nsg146
(dp290
sg148
Nsg25
g27
sg149
(lp291
I1
aI17
asg151
Nsg152
VDevarim Rabbah 1:17
p292
sg154
(lp293
sg156
g110
sg157
Nsg158
(lp294
I1
aI17
asg160
Nsg161
g292
sg162
(lp295
sg164
g57
sg165
Nsg166
Nsg167
Nsbag3
(g4
g5
NtRp296
(dp297
g8
g10
sg145
Nsg146
(dp298
sg148
Nsg25
g27
sg149
(lp299
I1
aI18
asg151
Nsg152
VDevarim Rabbah 1:18
p300
sg154
(lp301
sg156
g110
sg157
Nsg158
(lp302
I1
aI18
asg160
Nsg161
g300
sg162
(lp303
sg164
g57
sg165
Nsg166
Nsg167
Nsbag3
(g4
g5
NtRp304
(dp305
g8
g10
sg145
Nsg146
(dp306
sg148
Nsg25
g27
sg149
(lp307
I1
aI19
asg151
Nsg152
VDevarim Rabbah 1:19
p308
sg154
(lp309
sg156
g110
sg157
Nsg158
(lp310
I1
aI19
asg160
Nsg161
g308
sg162
(lp311
sg164
g57
sg165
Nsg166
Nsg167
Nsbag3
(g4
g5
NtRp312
(dp313
g8
g10
sg145
Nsg146
(dp314
sg148
Nsg25
g27
sg149
(lp315
I1
aI20
asg151
Nsg152
VDevarim Rabbah 1:20
p316
sg154
(lp317
sg156
g110
sg157
Nsg158
(lp318
I1
aI20
asg160
Nsg161
g316
sg162
(lp319
sg164
g57
sg165
Nsg166
Nsg167
Nsbag3
(g4
g5
NtRp320
(dp321
g8
g10
sg145
Nsg146
(dp322
sg148
Nsg25
g27
sg149
(lp323
I1
aI21
asg151
Nsg152
VDevarim Rabbah 1:21
p324
sg154
(lp325
sg156
g110
sg157
Nsg158
(lp326
I1
aI21
asg160
Nsg161
g324
sg162
(lp327
sg164
g57
sg165
Nsg166
Nsg167
Nsbag3
(g4
g5
NtRp328
(dp329
g8
g10
sg145
Nsg146
(dp330
sg148
Nsg25
g27
sg149
(lp331
I1
aI22
asg151
Nsg152
VDevarim Rabbah 1:22
p332
sg154
(lp333
sg156
g110
sg157
Nsg158
(lp334
I1
aI22
asg160
Nsg161
g332
sg162
(lp335
sg164
g57
sg165
Nsg166
Nsg167
Nsbag3
(g4
g5
NtRp336
(dp337
g8
g10
sg145
Nsg146
(dp338
sg148
Nsg25
g27
sg149
(lp339
I1
aI23
asg151
Nsg152
VDevarim Rabbah 1:23
p340
sg154
(lp341
sg156
g110
sg157
Nsg158
(lp342
I1
aI23
asg160
Nsg161
g340
sg162
(lp343
sg164
g57
sg165
Nsg166
Nsg167
Nsbag3
(g4
g5
NtRp344
(dp345
g8
g10
sg145
Nsg146
(dp346
sg148
Nsg25
g27
sg149
(lp347
I1
aI24
asg151
Nsg152
VDevarim Rabbah 1:24
p348
sg154
(lp349
sg156
g110
sg157
Nsg158
(lp350
I1
aI24
asg160
Nsg161
g348
sg162
(lp351
sg164
g57
sg165
Nsg166
Nsg167
Nsbag3
(g4
g5
NtRp352
(dp353
g8
g10
sg145
Nsg146
(dp354
sg148
Nsg25
g27
sg149
(lp355
I1
aI25
asg151
Nsg152
VDevarim Rabbah 1:25
p356
sg154
(lp357
sg156
g110
sg157
Nsg158
(lp358
I1
aI25
asg160
Nsg161
g356
sg162
(lp359
sg164
g57
sg165
Nsg166
Nsg167
Nsbag3
(g4
g5
NtRp360
(dp361
g8
g10
sg145
Nsg146
(dp362
sg148
Nsg25
g27
sg149
(lp363
I2
aI1
asg151
Nsg152
VDevarim Rabbah 2:1
p364
sg154
(lp365
sg156
g110
sg157
Nsg158
(lp366
I2
aI1
asg160
Nsg161
g364
sg162
(lp367
sg164
g57
sg165
Nsg166
Nsg167
Nsbag3
(g4
g5
NtRp368
(dp369
g8
g10
sg145
Nsg146
(dp370
sg148
Nsg25
g27
sg149
(lp371
I2
aI2
asg151
Nsg152
VDevarim Rabbah 2:2
p372
sg154
(lp373
sg156
g110
sg157
Nsg158
(lp374
I2
aI2
asg160
Nsg161
g372
sg162
(lp375
sg164
g57
sg165
Nsg166
Nsg167
Nsbag3
(g4
g5
NtRp376
(dp377
g8
g10
sg145
Nsg146
(dp378
sg148
Nsg25
g27
sg149
(lp379
I2
aI3
asg151
Nsg152
VDevarim Rabbah 2:3
p380
sg154
(lp381
sg156
g110
sg157
Nsg158
(lp382
I2
aI3
asg160
Nsg161
g380
sg162
(lp383
sg164
g57
sg165
Nsg166
Nsg167
Nsbag3
(g4
g5
NtRp384
(dp385
g8
g10
sg145
Nsg146
(dp386
sg148
Nsg25
g27
sg149
(lp387
I2
aI4
asg151
Nsg152
VDevarim Rabbah 2:4
p388
sg154
(lp389
sg156
g110
sg157
Nsg158
(lp390
I2
aI4
asg160
Nsg161
g388
sg162
(lp391
sg164
g57
sg165
Nsg166
Nsg167
Nsbag3
(g4
g5
NtRp392
(dp393
g8
g10
sg145
Nsg146
(dp394
sg148
Nsg25
g27
sg149
(lp395
I2
aI5
asg151
Nsg152
VDevarim Rabbah 2:5
p396
sg154
(lp397
sg156
g110
sg157
Nsg158
(lp398
I2
aI5
asg160
Nsg161
g396
sg162
(lp399
sg164
g57
sg165
Nsg166
Nsg167
Nsbag3
(g4
g5
NtRp400
(dp401
g8
g10
sg145
Nsg146
(dp402
sg148
Nsg25
g27
sg149
(lp403
I2
aI6
asg151
Nsg152
VDevarim Rabbah 2:6
p404
sg154
(lp405
sg156
g110
sg157
Nsg158
(lp406
I2
aI6
asg160
Nsg161
g404
sg162
(lp407
sg164
g57
sg165
Nsg166
Nsg167
Nsbag3
(g4
g5
NtRp408
(dp409
g8
g10
sg145
Nsg146
(dp410
sg148
Nsg25
g27
sg149
(lp411
I2
aI7
asg151
Nsg152
VDevarim Rabbah 2:7
p412
sg154
(lp413
sg156
g110
sg157
Nsg158
(lp414
I2
aI7
asg160
Nsg161
g412
sg162
(lp415
sg164
g57
sg165
Nsg166
Nsg167
Nsbag3
(g4
g5
NtRp416
(dp417
g8
g10
sg145
Nsg146
(dp418
sg148
Nsg25
g27
sg149
(lp419
I2
aI8
asg151
Nsg152
VDevarim Rabbah 2:8
p420
sg154
(lp421
sg156
g110
sg157
Nsg158
(lp422
I2
aI8
asg160
Nsg161
g420
sg162
(lp423
sg164
g57
sg165
Nsg166
Nsg167
Nsbag3
(g4
g5
NtRp424
(dp425
g8
g10
sg145
Nsg146
(dp426
sg148
Nsg25
g27
sg149
(lp427
I2
aI9
asg151
Nsg152
VDevarim Rabbah 2:9
p428
sg154
(lp429
sg156
g110
sg157
Nsg158
(lp430
I2
aI9
asg160
Nsg161
g428
sg162
(lp431
sg164
g57
sg165
Nsg166
Nsg167
Nsbag3
(g4
g5
NtRp432
(dp433
g8
g10
sg145
Nsg146
(dp434
sg148
Nsg25
g27
sg149
(lp435
I2
aI10
asg151
Nsg152
VDevarim Rabbah 2:10
p436
sg154
(lp437
sg156
g110
sg157
Nsg158
(lp438
I2
aI10
asg160
Nsg161
g436
sg162
(lp439
sg164
g57
sg165
Nsg166
Nsg167
Nsbag3
(g4
g5
NtRp440
(dp441
g8
g10
sg145
Nsg146
(dp442
sg148
Nsg25
g27
sg149
(lp443
I2
aI11
asg151
Nsg152
VDevarim Rabbah 2:11
p444
sg154
(lp445
sg156
g110
sg157
Nsg158
(lp446
I2
aI11
asg160
Nsg161
g444
sg162
(lp447
sg164
g57
sg165
Nsg166
Nsg167
Nsbag3
(g4
g5
NtRp448
(dp449
g8
g10
sg145
Nsg146
(dp450
sg148
Nsg25
g27
sg149
(lp451
I2
aI12
asg151
Nsg152
VDevarim Rabbah 2:12
p452
sg154
(lp453
sg156
g110
sg157
Nsg158
(lp454
I2
aI12
asg160
Nsg161
g452
sg162
(lp455
sg164
g57
sg165
Nsg166
Nsg167
Nsbag3
(g4
g5
NtRp456
(dp457
g8
g10
sg145
Nsg146
(dp458
sg148
Nsg25
g27
sg149
(lp459
I2
aI13
asg151
Nsg152
VDevarim Rabbah 2:13
p460
sg154
(lp461
sg156
g110
sg157
Nsg158
(lp462
I2
aI13
asg160
Nsg161
g460
sg162
(lp463
sg164
g57
sg165
Nsg166
Nsg167
Nsbag3
(g4
g5
NtRp464
(dp465
g8
g10
sg145
Nsg146
(dp466
sg148
Nsg25
g27
sg149
(lp467
I2
aI14
asg151
Nsg152
VDevarim Rabbah 2:14
p468
sg154
(lp469
sg156
g110
sg157
Nsg158
(lp470
I2
aI14
asg160
Nsg161
g468
sg162
(lp471
sg164
g57
sg165
Nsg166
Nsg167
Nsbag3
(g4
g5
NtRp472
(dp473
g8
g10
sg145
Nsg146
(dp474
sg148
Nsg25
g27
sg149
(lp475
I2
aI15
asg151
Nsg152
VDevarim Rabbah 2:15
p476
sg154
(lp477
sg156
g110
sg157
Nsg158
(lp478
I2
aI15
asg160
Nsg161
g476
sg162
(lp479
sg164
g57
sg165
Nsg166
Nsg167
Nsbag3
(g4
g5
NtRp480
(dp481
g8
g10
sg145
Nsg146
(dp482
sg148
Nsg25
g27
sg149
(lp483
I2
aI16
asg151
Nsg152
VDevarim Rabbah 2:16
p484
sg154
(lp485
sg156
g110
sg157
Nsg158
(lp486
I2
aI16
asg160
Nsg161
g484
sg162
(lp487
sg164
g57
sg165
Nsg166
Nsg167
Nsbag3
(g4
g5
NtRp488
(dp489
g8
g10
sg145
Nsg146
(dp490
sg148
Nsg25
g27
sg149
(lp491
I2
aI17
asg151
Nsg152
VDevarim Rabbah 2:17
p492
sg154
(lp493
sg156
g110
sg157
Nsg158
(lp494
I2
aI17
asg160
Nsg161
g492
sg162
(lp495
sg164
g57
sg165
Nsg166
Nsg167
Nsbag3
(g4
g5
NtRp496
(dp497
g8
g10
sg145
Nsg146
(dp498
sg148
Nsg25
g27
sg149
(lp499
I2
aI18
asg151
Nsg152
VDevarim Rabbah 2:18
p500
sg154
(lp501
sg156
g110
sg157
Nsg158
(lp502
I2
aI18
asg160
Nsg161
g500
sg162
(lp503
sg164
g57
sg165
Nsg166
Nsg167
Nsbag3
(g4
g5
NtRp504
(dp505
g8
g10
sg145
Nsg146
(dp506
sg148
Nsg25
g27
sg149
(lp507
I2
aI19
asg151
Nsg152
VDevarim Rabbah 2:19
p508
sg154
(lp509
sg156
g110
sg157
Nsg158
(lp510
I2
aI19
asg160
Nsg161
g508
sg162
(lp511
sg164
g57
sg165
Nsg166
Nsg167
Nsbag3
(g4
g5
NtRp512
(dp513
g8
g10
sg145
Nsg146
(dp514
sg148
Nsg25
g27
sg149
(lp515
I2
aI20
asg151
Nsg152
VDevarim Rabbah 2:20
p516
sg154
(lp517
sg156
g110
sg157
Nsg158
(lp518
I2
aI20
asg160
Nsg161
g516
sg162
(lp519
sg164
g57
sg165
Nsg166
Nsg167
Nsbag3
(g4
g5
NtRp520
(dp521
g8
g10
sg145
Nsg146
(dp522
sg148
Nsg25
g27
sg149
(lp523
I2
aI21
asg151
Nsg152
VDevarim Rabbah 2:21
p524
sg154
(lp525
sg156
g110
sg157
Nsg158
(lp526
I2
aI21
asg160
Nsg161
g524
sg162
(lp527
sg164
g57
sg165
Nsg166
Nsg167
Nsbag3
(g4
g5
NtRp528
(dp529
g8
g10
sg145
Nsg146
(dp530
sg148
Nsg25
g27
sg149
(lp531
I2
aI22
asg151
Nsg152
VDevarim Rabbah 2:22
p532
sg154
(lp533
sg156
g110
sg157
Nsg158
(lp534
I2
aI22
asg160
Nsg161
g532
sg162
(lp535
sg164
g57
sg165
Nsg166
Nsg167
Nsbag3
(g4
g5
NtRp536
(dp537
g8
g10
sg145
Nsg146
(dp538
sg148
Nsg25
g27
sg149
(lp539
I2
aI23
asg151
Nsg152
VDevarim Rabbah 2:23
p540
sg154
(lp541
sg156
g110
sg157
Nsg158
(lp542
I2
aI23
asg160
Nsg161
g540
sg162
(lp543
sg164
g57
sg165
Nsg166
Nsg167
Nsbag3
(g4
g5
NtRp544
(dp545
g8
g10
sg145
Nsg146
(dp546
sg148
Nsg25
g27
sg149
(lp547
I2
aI24
asg151
Nsg152
VDevarim Rabbah 2:24
p548
sg154
(lp549
sg156
g110
sg157
Nsg158
(lp550
I2
aI24
asg160
Nsg161
g548
sg162
(lp551
sg164
g57
sg165
Nsg166
Nsg167
Nsbag3
(g4
g5
NtRp552
(dp553
g8
g10
sg145
Nsg146
(dp554
sg148
Nsg25
g27
sg149
(lp555
I2
aI25
asg151
Nsg152
VDevarim Rabbah 2:25
p556
sg154
(lp557
sg156
g110
sg157
Nsg158
(lp558
I2
aI25
asg160
Nsg161
g556
sg162
(lp559
sg164
g57
sg165
Nsg166
Nsg167
Nsbag3
(g4
g5
NtRp560
(dp561
g8
g10
sg145
Nsg146
(dp562
sg148
Nsg25
g27
sg149
(lp563
I2
aI26
asg151
Nsg152
VDevarim Rabbah 2:26
p564
sg154
(lp565
sg156
g110
sg157
Nsg158
(lp566
I2
aI26
asg160
Nsg161
g564
sg162
(lp567
sg164
g57
sg165
Nsg166
Nsg167
Nsbag3
(g4
g5
NtRp568
(dp569
g8
g10
sg145
Nsg146
(dp570
sg148
Nsg25
g27
sg149
(lp571
I2
aI27
asg151
Nsg152
VDevarim Rabbah 2:27
p572
sg154
(lp573
sg156
g110
sg157
Nsg158
(lp574
I2
aI27
asg160
Nsg161
g572
sg162
(lp575
sg164
g57
sg165
Nsg166
Nsg167
Nsbag3
(g4
g5
NtRp576
(dp577
g8
g10
sg145
Nsg146
(dp578
sg148
Nsg25
g27
sg149
(lp579
I2
aI28
asg151
Nsg152
VDevarim Rabbah 2:28
p580
sg154
(lp581
sg156
g110
sg157
Nsg158
(lp582
I2
aI28
asg160
Nsg161
g580
sg162
(lp583
sg164
g57
sg165
Nsg166
Nsg167
Nsbag3
(g4
g5
NtRp584
(dp585
g8
g10
sg145
Nsg146
(dp586
sg148
Nsg25
g27
sg149
(lp587
I2
aI29
asg151
Nsg152
VDevarim Rabbah 2:29
p588
sg154
(lp589
sg156
g110
sg157
Nsg158
(lp590
I2
aI29
asg160
Nsg161
g588
sg162
(lp591
sg164
g57
sg165
Nsg166
Nsg167
Nsbag3
(g4
g5
NtRp592
(dp593
g8
g10
sg145
Nsg146
(dp594
sg148
Nsg25
g27
sg149
(lp595
I2
aI30
asg151
Nsg152
VDevarim Rabbah 2:30
p596
sg154
(lp597
sg156
g110
sg157
Nsg158
(lp598
I2
aI30
asg160
Nsg161
g596
sg162
(lp599
sg164
g57
sg165
Nsg166
Nsg167
Nsbag3
(g4
g5
NtRp600
(dp601
g8
g10
sg145
Nsg146
(dp602
sg148
Nsg25
g27
sg149
(lp603
I2
aI31
asg151
Nsg152
VDevarim Rabbah 2:31
p604
sg154
(lp605
sg156
g110
sg157
Nsg158
(lp606
I2
aI31
asg160
Nsg161
g604
sg162
(lp607
sg164
g57
sg165
Nsg166
Nsg167
Nsbag3
(g4
g5
NtRp608
(dp609
g8
g10
sg145
Nsg146
(dp610
sg148
Nsg25
g27
sg149
(lp611
I2
aI32
asg151
Nsg152
VDevarim Rabbah 2:32
p612
sg154
(lp613
sg156
g110
sg157
Nsg158
(lp614
I2
aI32
asg160
Nsg161
g612
sg162
(lp615
sg164
g57
sg165
Nsg166
Nsg167
Nsbag3
(g4
g5
NtRp616
(dp617
g8
g10
sg145
Nsg146
(dp618
sg148
Nsg25
g27
sg149
(lp619
I2
aI33
asg151
Nsg152
VDevarim Rabbah 2:33
p620
sg154
(lp621
sg156
g110
sg157
Nsg158
(lp622
I2
aI33
asg160
Nsg161
g620
sg162
(lp623
sg164
g57
sg165
Nsg166
Nsg167
Nsbag3
(g4
g5
NtRp624
(dp625
g8
g10
sg145
Nsg146
(dp626
sg148
Nsg25
g27
sg149
(lp627
I2
aI34
asg151
Nsg152
VDevarim Rabbah 2:34
p628
sg154
(lp629
sg156
g110
sg157
Nsg158
(lp630
I2
aI34
asg160
Nsg161
g628
sg162
(lp631
sg164
g57
sg165
Nsg166
Nsg167
Nsbag3
(g4
g5
NtRp632
(dp633
g8
g10
sg145
Nsg146
(dp634
sg148
Nsg25
g27
sg149
(lp635
I2
aI35
asg151
Nsg152
VDevarim Rabbah 2:35
p636
sg154
(lp637
sg156
g110
sg157
Nsg158
(lp638
I2
aI35
asg160
Nsg161
g636
sg162
(lp639
sg164
g57
sg165
Nsg166
Nsg167
Nsbag3
(g4
g5
NtRp640
(dp641
g8
g10
sg145
Nsg146
(dp642
sg148
Nsg25
g27
sg149
(lp643
I2
aI36
asg151
Nsg152
VDevarim Rabbah 2:36
p644
sg154
(lp645
sg156
g110
sg157
Nsg158
(lp646
I2
aI36
asg160
Nsg161
g644
sg162
(lp647
sg164
g57
sg165
Nsg166
Nsg167
Nsbag3
(g4
g5
NtRp648
(dp649
g8
g10
sg145
Nsg146
(dp650
sg148
Nsg25
g27
sg149
(lp651
I2
aI37
asg151
Nsg152
VDevarim Rabbah 2:37
p652
sg154
(lp653
sg156
g110
sg157
Nsg158
(lp654
I2
aI37
asg160
Nsg161
g652
sg162
(lp655
sg164
g57
sg165
Nsg166
Nsg167
Nsbag3
(g4
g5
NtRp656
(dp657
g8
g10
sg145
Nsg146
(dp658
sg148
Nsg25
g27
sg149
(lp659
I3
aI1
asg151
Nsg152
VDevarim Rabbah 3:1
p660
sg154
(lp661
sg156
g110
sg157
Nsg158
(lp662
I3
aI1
asg160
Nsg161
g660
sg162
(lp663
sg164
g57
sg165
Nsg166
Nsg167
Nsbag3
(g4
g5
NtRp664
(dp665
g8
g10
sg145
Nsg146
(dp666
sg148
Nsg25
g27
sg149
(lp667
I3
aI2
asg151
Nsg152
VDevarim Rabbah 3:2
p668
sg154
(lp669
sg156
g110
sg157
Nsg158
(lp670
I3
aI2
asg160
Nsg161
g668
sg162
(lp671
sg164
g57
sg165
Nsg166
Nsg167
Nsbag3
(g4
g5
NtRp672
(dp673
g8
g10
sg145
Nsg146
(dp674
sg148
Nsg25
g27
sg149
(lp675
I3
aI3
asg151
Nsg152
VDevarim Rabbah 3:3
p676
sg154
(lp677
sg156
g110
sg157
Nsg158
(lp678
I3
aI3
asg160
Nsg161
g676
sg162
(lp679
sg164
g57
sg165
Nsg166
Nsg167
Nsbag3
(g4
g5
NtRp680
(dp681
g8
g10
sg145
Nsg146
(dp682
sg148
Nsg25
g27
sg149
(lp683
I3
aI4
asg151
Nsg152
VDevarim Rabbah 3:4
p684
sg154
(lp685
sg156
g110
sg157
Nsg158
(lp686
I3
aI4
asg160
Nsg161
g684
sg162
(lp687
sg164
g57
sg165
Nsg166
Nsg167
Nsbag3
(g4
g5
NtRp688
(dp689
g8
g10
sg145
Nsg146
(dp690
sg148
Nsg25
g27
sg149
(lp691
I3
aI5
asg151
Nsg152
VDevarim Rabbah 3:5
p692
sg154
(lp693
sg156
g110
sg157
Nsg158
(lp694
I3
aI5
asg160
Nsg161
g692
sg162
(lp695
sg164
g57
sg165
Nsg166
Nsg167
Nsbag3
(g4
g5
NtRp696
(dp697
g8
g10
sg145
Nsg146
(dp698
sg148
Nsg25
g27
sg149
(lp699
I3
aI6
asg151
Nsg152
VDevarim Rabbah 3:6
p700
sg154
(lp701
sg156
g110
sg157
Nsg158
(lp702
I3
aI6
asg160
Nsg161
g700
sg162
(lp703
sg164
g57
sg165
Nsg166
Nsg167
Nsbag3
(g4
g5
NtRp704
(dp705
g8
g10
sg145
Nsg146
(dp706
sg148
Nsg25
g27
sg149
(lp707
I3
aI7
asg151
Nsg152
VDevarim Rabbah 3:7
p708
sg154
(lp709
sg156
g110
sg157
Nsg158
(lp710
I3
aI7
asg160
Nsg161
g708
sg162
(lp711
sg164
g57
sg165
Nsg166
Nsg167
Nsbag3
(g4
g5
NtRp712
(dp713
g8
g10
sg145
Nsg146
(dp714
sg148
Nsg25
g27
sg149
(lp715
I3
aI8
asg151
Nsg152
VDevarim Rabbah 3:8
p716
sg154
(lp717
sg156
g110
sg157
Nsg158
(lp718
I3
aI8
asg160
Nsg161
g716
sg162
(lp719
sg164
g57
sg165
Nsg166
Nsg167
Nsbag3
(g4
g5
NtRp720
(dp721
g8
g10
sg145
Nsg146
(dp722
sg148
Nsg25
g27
sg149
(lp723
I3
aI9
asg151
Nsg152
VDevarim Rabbah 3:9
p724
sg154
(lp725
sg156
g110
sg157
Nsg158
(lp726
I3
aI9
asg160
Nsg161
g724
sg162
(lp727
sg164
g57
sg165
Nsg166
Nsg167
Nsbag3
(g4
g5
NtRp728
(dp729
g8
g10
sg145
Nsg146
(dp730
sg148
Nsg25
g27
sg149
(lp731
I3
aI10
asg151
Nsg152
VDevarim Rabbah 3:10
p732
sg154
(lp733
sg156
g110
sg157
Nsg158
(lp734
I3
aI10
asg160
Nsg161
g732
sg162
(lp735
sg164
g57
sg165
Nsg166
Nsg167
Nsbag3
(g4
g5
NtRp736
(dp737
g8
g10
sg145
Nsg146
(dp738
sg148
Nsg25
g27
sg149
(lp739
I3
aI11
asg151
Nsg152
VDevarim Rabbah 3:11
p740
sg154
(lp741
sg156
g110
sg157
Nsg158
(lp742
I3
aI11
asg160
Nsg161
g740
sg162
(lp743
sg164
g57
sg165
Nsg166
Nsg167
Nsbag3
(g4
g5
NtRp744
(dp745
g8
g10
sg145
Nsg146
(dp746
sg148
Nsg25
g27
sg149
(lp747
I3
aI12
asg151
Nsg152
VDevarim Rabbah 3:12
p748
sg154
(lp749
sg156
g110
sg157
Nsg158
(lp750
I3
aI12
asg160
Nsg161
g748
sg162
(lp751
sg164
g57
sg165
Nsg166
Nsg167
Nsbag3
(g4
g5
NtRp752
(dp753
g8
g10
sg145
Nsg146
(dp754
sg148
Nsg25
g27
sg149
(lp755
I3
aI13
asg151
Nsg152
VDevarim Rabbah 3:13
p756
sg154
(lp757
sg156
g110
sg157
Nsg158
(lp758
I3
aI13
asg160
Nsg161
g756
sg162
(lp759
sg164
g57
sg165
Nsg166
Nsg167
Nsbag3
(g4
g5
NtRp760
(dp761
g8
g10
sg145
Nsg146
(dp762
sg148
Nsg25
g27
sg149
(lp763
I3
aI14
asg151
Nsg152
VDevarim Rabbah 3:14
p764
sg154
(lp765
sg156
g110
sg157
Nsg158
(lp766
I3
aI14
asg160
Nsg161
g764
sg162
(lp767
sg164
g57
sg165
Nsg166
Nsg167
Nsbag3
(g4
g5
NtRp768
(dp769
g8
g10
sg145
Nsg146
(dp770
sg148
Nsg25
g27
sg149
(lp771
I3
aI15
asg151
Nsg152
VDevarim Rabbah 3:15
p772
sg154
(lp773
sg156
g110
sg157
Nsg158
(lp774
I3
aI15
asg160
Nsg161
g772
sg162
(lp775
sg164
g57
sg165
Nsg166
Nsg167
Nsbag3
(g4
g5
NtRp776
(dp777
g8
g10
sg145
Nsg146
(dp778
sg148
Nsg25
g27
sg149
(lp779
I3
aI16
asg151
Nsg152
VDevarim Rabbah 3:16
p780
sg154
(lp781
sg156
g110
sg157
Nsg158
(lp782
I3
aI16
asg160
Nsg161
g780
sg162
(lp783
sg164
g57
sg165
Nsg166
Nsg167
Nsbag3
(g4
g5
NtRp784
(dp785
g8
g10
sg145
Nsg146
(dp786
sg148
Nsg25
g27
sg149
(lp787
I3
aI17
asg151
Nsg152
VDevarim Rabbah 3:17
p788
sg154
(lp789
sg156
g110
sg157
Nsg158
(lp790
I3
aI17
asg160
Nsg161
g788
sg162
(lp791
sg164
g57
sg165
Nsg166
Nsg167
Nsbag3
(g4
g5
NtRp792
(dp793
g8
g10
sg145
Nsg146
(dp794
sg148
Nsg25
g27
sg149
(lp795
I4
aI1
asg151
Nsg152
VDevarim Rabbah 4:1
p796
sg154
(lp797
sg156
g110
sg157
Nsg158
(lp798
I4
aI1
asg160
Nsg161
g796
sg162
(lp799
sg164
g57
sg165
Nsg166
Nsg167
Nsbag3
(g4
g5
NtRp800
(dp801
g8
g10
sg145
Nsg146
(dp802
sg148
Nsg25
g27
sg149
(lp803
I4
aI2
asg151
Nsg152
VDevarim Rabbah 4:2
p804
sg154
(lp805
sg156
g110
sg157
Nsg158
(lp806
I4
aI2
asg160
Nsg161
g804
sg162
(lp807
sg164
g57
sg165
Nsg166
Nsg167
Nsbag3
(g4
g5
NtRp808
(dp809
g8
g10
sg145
Nsg146
(dp810
sg148
Nsg25
g27
sg149
(lp811
I4
aI3
asg151
Nsg152
VDevarim Rabbah 4:3
p812
sg154
(lp813
sg156
g110
sg157
Nsg158
(lp814
I4
aI3
asg160
Nsg161
g812
sg162
(lp815
sg164
g57
sg165
Nsg166
Nsg167
Nsbag3
(g4
g5
NtRp816
(dp817
g8
g10
sg145
Nsg146
(dp818
sg148
Nsg25
g27
sg149
(lp819
I4
aI4
asg151
Nsg152
VDevarim Rabbah 4:4
p820
sg154
(lp821
sg156
g110
sg157
Nsg158
(lp822
I4
aI4
asg160
Nsg161
g820
sg162
(lp823
sg164
g57
sg165
Nsg166
Nsg167
Nsbag3
(g4
g5
NtRp824
(dp825
g8
g10
sg145
Nsg146
(dp826
sg148
Nsg25
g27
sg149
(lp827
I4
aI5
asg151
Nsg152
VDevarim Rabbah 4:5
p828
sg154
(lp829
sg156
g110
sg157
Nsg158
(lp830
I4
aI5
asg160
Nsg161
g828
sg162
(lp831
sg164
g57
sg165
Nsg166
Nsg167
Nsbag3
(g4
g5
NtRp832
(dp833
g8
g10
sg145
Nsg146
(dp834
sg148
Nsg25
g27
sg149
(lp835
I4
aI6
asg151
Nsg152
VDevarim Rabbah 4:6
p836
sg154
(lp837
sg156
g110
sg157
Nsg158
(lp838
I4
aI6
asg160
Nsg161
g836
sg162
(lp839
sg164
g57
sg165
Nsg166
Nsg167
Nsbag3
(g4
g5
NtRp840
(dp841
g8
g10
sg145
Nsg146
(dp842
sg148
Nsg25
g27
sg149
(lp843
I4
aI7
asg151
Nsg152
VDevarim Rabbah 4:7
p844
sg154
(lp845
sg156
g110
sg157
Nsg158
(lp846
I4
aI7
asg160
Nsg161
g844
sg162
(lp847
sg164
g57
sg165
Nsg166
Nsg167
Nsbag3
(g4
g5
NtRp848
(dp849
g8
g10
sg145
Nsg146
(dp850
sg148
Nsg25
g27
sg149
(lp851
I4
aI8
asg151
Nsg152
VDevarim Rabbah 4:8
p852
sg154
(lp853
sg156
g110
sg157
Nsg158
(lp854
I4
aI8
asg160
Nsg161
g852
sg162
(lp855
sg164
g57
sg165
Nsg166
Nsg167
Nsbag3
(g4
g5
NtRp856
(dp857
g8
g10
sg145
Nsg146
(dp858
sg148
Nsg25
g27
sg149
(lp859
I4
aI9
asg151
Nsg152
VDevarim Rabbah 4:9
p860
sg154
(lp861
sg156
g110
sg157
Nsg158
(lp862
I4
aI9
asg160
Nsg161
g860
sg162
(lp863
sg164
g57
sg165
Nsg166
Nsg167
Nsbag3
(g4
g5
NtRp864
(dp865
g8
g10
sg145
Nsg146
(dp866
sg148
Nsg25
g27
sg149
(lp867
I4
aI10
asg151
Nsg152
VDevarim Rabbah 4:10
p868
sg154
(lp869
sg156
g110
sg157
Nsg158
(lp870
I4
aI10
asg160
Nsg161
g868
sg162
(lp871
sg164
g57
sg165
Nsg166
Nsg167
Nsbag3
(g4
g5
NtRp872
(dp873
g8
g10
sg145
Nsg146
(dp874
sg148
Nsg25
g27
sg149
(lp875
I4
aI11
asg151
Nsg152
VDevarim Rabbah 4:11
p876
sg154
(lp877
sg156
g110
sg157
Nsg158
(lp878
I4
aI11
asg160
Nsg161
g876
sg162
(lp879
sg164
g57
sg165
Nsg166
Nsg167
Nsbag3
(g4
g5
NtRp880
(dp881
g8
g10
sg145
Nsg146
(dp882
sg148
Nsg25
g27
sg149
(lp883
I5
aI1
asg151
Nsg152
VDevarim Rabbah 5:1
p884
sg154
(lp885
sg156
g110
sg157
Nsg158
(lp886
I5
aI1
asg160
Nsg161
g884
sg162
(lp887
sg164
g57
sg165
Nsg166
Nsg167
Nsbag3
(g4
g5
NtRp888
(dp889
g8
g10
sg145
Nsg146
(dp890
sg148
Nsg25
g27
sg149
(lp891
I5
aI2
asg151
Nsg152
VDevarim Rabbah 5:2
p892
sg154
(lp893
sg156
g110
sg157
Nsg158
(lp894
I5
aI2
asg160
Nsg161
g892
sg162
(lp895
sg164
g57
sg165
Nsg166
Nsg167
Nsbag3
(g4
g5
NtRp896
(dp897
g8
g10
sg145
Nsg146
(dp898
sg148
Nsg25
g27
sg149
(lp899
I5
aI3
asg151
Nsg152
VDevarim Rabbah 5:3
p900
sg154
(lp901
sg156
g110
sg157
Nsg158
(lp902
I5
aI3
asg160
Nsg161
g900
sg162
(lp903
sg164
g57
sg165
Nsg166
Nsg167
Nsbag3
(g4
g5
NtRp904
(dp905
g8
g10
sg145
Nsg146
(dp906
sg148
Nsg25
g27
sg149
(lp907
I5
aI4
asg151
Nsg152
VDevarim Rabbah 5:4
p908
sg154
(lp909
sg156
g110
sg157
Nsg158
(lp910
I5
aI4
asg160
Nsg161
g908
sg162
(lp911
sg164
g57
sg165
Nsg166
Nsg167
Nsbag3
(g4
g5
NtRp912
(dp913
g8
g10
sg145
Nsg146
(dp914
sg148
Nsg25
g27
sg149
(lp915
I5
aI5
asg151
Nsg152
VDevarim Rabbah 5:5
p916
sg154
(lp917
sg156
g110
sg157
Nsg158
(lp918
I5
aI5
asg160
Nsg161
g916
sg162
(lp919
sg164
g57
sg165
Nsg166
Nsg167
Nsbag3
(g4
g5
NtRp920
(dp921
g8
g10
sg145
Nsg146
(dp922
sg148
Nsg25
g27
sg149
(lp923
I5
aI6
asg151
Nsg152
VDevarim Rabbah 5:6
p924
sg154
(lp925
sg156
g110
sg157
Nsg158
(lp926
I5
aI6
asg160
Nsg161
g924
sg162
(lp927
sg164
g57
sg165
Nsg166
Nsg167
Nsbag3
(g4
g5
NtRp928
(dp929
g8
g10
sg145
Nsg146
(dp930
sg148
Nsg25
g27
sg149
(lp931
I5
aI7
asg151
Nsg152
VDevarim Rabbah 5:7
p932
sg154
(lp933
sg156
g110
sg157
Nsg158
(lp934
I5
aI7
asg160
Nsg161
g932
sg162
(lp935
sg164
g57
sg165
Nsg166
Nsg167
Nsbag3
(g4
g5
NtRp936
(dp937
g8
g10
sg145
Nsg146
(dp938
sg148
Nsg25
g27
sg149
(lp939
I5
aI8
asg151
Nsg152
VDevarim Rabbah 5:8
p940
sg154
(lp941
sg156
g110
sg157
Nsg158
(lp942
I5
aI8
asg160
Nsg161
g940
sg162
(lp943
sg164
g57
sg165
Nsg166
Nsg167
Nsbag3
(g4
g5
NtRp944
(dp945
g8
g10
sg145
Nsg146
(dp946
sg148
Nsg25
g27
sg149
(lp947
I5
aI9
asg151
Nsg152
VDevarim Rabbah 5:9
p948
sg154
(lp949
sg156
g110
sg157
Nsg158
(lp950
I5
aI9
asg160
Nsg161
g948
sg162
(lp951
sg164
g57
sg165
Nsg166
Nsg167
Nsbag3
(g4
g5
NtRp952
(dp953
g8
g10
sg145
Nsg146
(dp954
sg148
Nsg25
g27
sg149
(lp955
I5
aI10
asg151
Nsg152
VDevarim Rabbah 5:10
p956
sg154
(lp957
sg156
g110
sg157
Nsg158
(lp958
I5
aI10
asg160
Nsg161
g956
sg162
(lp959
sg164
g57
sg165
Nsg166
Nsg167
Nsbag3
(g4
g5
NtRp960
(dp961
g8
g10
sg145
Nsg146
(dp962
sg148
Nsg25
g27
sg149
(lp963
I5
aI11
asg151
Nsg152
VDevarim Rabbah 5:11
p964
sg154
(lp965
sg156
g110
sg157
Nsg158
(lp966
I5
aI11
asg160
Nsg161
g964
sg162
(lp967
sg164
g57
sg165
Nsg166
Nsg167
Nsbag3
(g4
g5
NtRp968
(dp969
g8
g10
sg145
Nsg146
(dp970
sg148
Nsg25
g27
sg149
(lp971
I5
aI12
asg151
Nsg152
VDevarim Rabbah 5:12
p972
sg154
(lp973
sg156
g110
sg157
Nsg158
(lp974
I5
aI12
asg160
Nsg161
g972
sg162
(lp975
sg164
g57
sg165
Nsg166
Nsg167
Nsbag3
(g4
g5
NtRp976
(dp977
g8
g10
sg145
Nsg146
(dp978
sg148
Nsg25
g27
sg149
(lp979
I5
aI13
asg151
Nsg152
VDevarim Rabbah 5:13
p980
sg154
(lp981
sg156
g110
sg157
Nsg158
(lp982
I5
aI13
asg160
Nsg161
g980
sg162
(lp983
sg164
g57
sg165
Nsg166
Nsg167
Nsbag3
(g4
g5
NtRp984
(dp985
g8
g10
sg145
Nsg146
(dp986
sg148
Nsg25
g27
sg149
(lp987
I5
aI14
asg151
Nsg152
VDevarim Rabbah 5:14
p988
sg154
(lp989
sg156
g110
sg157
Nsg158
(lp990
I5
aI14
asg160
Nsg161
g988
sg162
(lp991
sg164
g57
sg165
Nsg166
Nsg167
Nsbag3
(g4
g5
NtRp992
(dp993
g8
g10
sg145
Nsg146
(dp994
sg148
Nsg25
g27
sg149
(lp995
I5
aI15
asg151
Nsg152
VDevarim Rabbah 5:15
p996
sg154
(lp997
sg156
g110
sg157
Nsg158
(lp998
I5
aI15
asg160
Nsg161
g996
sg162
(lp999
sg164
g57
sg165
Nsg166
Nsg167
Nsbag3
(g4
g5
NtRp1000
(dp1001
g8
g10
sg145
Nsg146
(dp1002
sg148
Nsg25
g27
sg149
(lp1003
I6
aI1
asg151
Nsg152
VDevarim Rabbah 6:1
p1004
sg154
(lp1005
sg156
g110
sg157
Nsg158
(lp1006
I6
aI1
asg160
Nsg161
g1004
sg162
(lp1007
sg164
g57
sg165
Nsg166
Nsg167
Nsbag3
(g4
g5
NtRp1008
(dp1009
g8
g10
sg145
Nsg146
(dp1010
sg148
Nsg25
g27
sg149
(lp1011
I6
aI2
asg151
Nsg152
VDevarim Rabbah 6:2
p1012
sg154
(lp1013
sg156
g110
sg157
Nsg158
(lp1014
I6
aI2
asg160
Nsg161
g1012
sg162
(lp1015
sg164
g57
sg165
Nsg166
Nsg167
Nsbag3
(g4
g5
NtRp1016
(dp1017
g8
g10
sg145
Nsg146
(dp1018
sg148
Nsg25
g27
sg149
(lp1019
I6
aI3
asg151
Nsg152
VDevarim Rabbah 6:3
p1020
sg154
(lp1021
sg156
g110
sg157
Nsg158
(lp1022
I6
aI3
asg160
Nsg161
g1020
sg162
(lp1023
sg164
g57
sg165
Nsg166
Nsg167
Nsbag3
(g4
g5
NtRp1024
(dp1025
g8
g10
sg145
Nsg146
(dp1026
sg148
Nsg25
g27
sg149
(lp1027
I6
aI4
asg151
Nsg152
VDevarim Rabbah 6:4
p1028
sg154
(lp1029
sg156
g110
sg157
Nsg158
(lp1030
I6
aI4
asg160
Nsg161
g1028
sg162
(lp1031
sg164
g57
sg165
Nsg166
Nsg167
Nsbag3
(g4
g5
NtRp1032
(dp1033
g8
g10
sg145
Nsg146
(dp1034
sg148
Nsg25
g27
sg149
(lp1035
I6
aI5
asg151
Nsg152
VDevarim Rabbah 6:5
p1036
sg154
(lp1037
sg156
g110
sg157
Nsg158
(lp1038
I6
aI5
asg160
Nsg161
g1036
sg162
(lp1039
sg164
g57
sg165
Nsg166
Nsg167
Nsbag3
(g4
g5
NtRp1040
(dp1041
g8
g10
sg145
Nsg146
(dp1042
sg148
Nsg25
g27
sg149
(lp1043
I6
aI6
asg151
Nsg152
VDevarim Rabbah 6:6
p1044
sg154
(lp1045
sg156
g110
sg157
Nsg158
(lp1046
I6
aI6
asg160
Nsg161
g1044
sg162
(lp1047
sg164
g57
sg165
Nsg166
Nsg167
Nsbag3
(g4
g5
NtRp1048
(dp1049
g8
g10
sg145
Nsg146
(dp1050
sg148
Nsg25
g27
sg149
(lp1051
I6
aI7
asg151
Nsg152
VDevarim Rabbah 6:7
p1052
sg154
(lp1053
sg156
g110
sg157
Nsg158
(lp1054
I6
aI7
asg160
Nsg161
g1052
sg162
(lp1055
sg164
g57
sg165
Nsg166
Nsg167
Nsbag3
(g4
g5
NtRp1056
(dp1057
g8
g10
sg145
Nsg146
(dp1058
sg148
Nsg25
g27
sg149
(lp1059
I6
aI8
asg151
Nsg152
VDevarim Rabbah 6:8
p1060
sg154
(lp1061
sg156
g110
sg157
Nsg158
(lp1062
I6
aI8
asg160
Nsg161
g1060
sg162
(lp1063
sg164
g57
sg165
Nsg166
Nsg167
Nsbag3
(g4
g5
NtRp1064
(dp1065
g8
g10
sg145
Nsg146
(dp1066
sg148
Nsg25
g27
sg149
(lp1067
I6
aI9
asg151
Nsg152
VDevarim Rabbah 6:9
p1068
sg154
(lp1069
sg156
g110
sg157
Nsg158
(lp1070
I6
aI9
asg160
Nsg161
g1068
sg162
(lp1071
sg164
g57
sg165
Nsg166
Nsg167
Nsbag3
(g4
g5
NtRp1072
(dp1073
g8
g10
sg145
Nsg146
(dp1074
sg148
Nsg25
g27
sg149
(lp1075
I6
aI10
asg151
Nsg152
VDevarim Rabbah 6:10
p1076
sg154
(lp1077
sg156
g110
sg157
Nsg158
(lp1078
I6
aI10
asg160
Nsg161
g1076
sg162
(lp1079
sg164
g57
sg165
Nsg166
Nsg167
Nsbag3
(g4
g5
NtRp1080
(dp1081
g8
g10
sg145
Nsg146
(dp1082
sg148
Nsg25
g27
sg149
(lp1083
I6
aI11
asg151
Nsg152
VDevarim Rabbah 6:11
p1084
sg154
(lp1085
sg156
g110
sg157
Nsg158
(lp1086
I6
aI11
asg160
Nsg161
g1084
sg162
(lp1087
sg164
g57
sg165
Nsg166
Nsg167
Nsbag3
(g4
g5
NtRp1088
(dp1089
g8
g10
sg145
Nsg146
(dp1090
sg148
Nsg25
g27
sg149
(lp1091
I6
aI12
asg151
Nsg152
VDevarim Rabbah 6:12
p1092
sg154
(lp1093
sg156
g110
sg157
Nsg158
(lp1094
I6
aI12
asg160
Nsg161
g1092
sg162
(lp1095
sg164
g57
sg165
Nsg166
Nsg167
Nsbag3
(g4
g5
NtRp1096
(dp1097
g8
g10
sg145
Nsg146
(dp1098
sg148
Nsg25
g27
sg149
(lp1099
I6
aI13
asg151
Nsg152
VDevarim Rabbah 6:13
p1100
sg154
(lp1101
sg156
g110
sg157
Nsg158
(lp1102
I6
aI13
asg160
Nsg161
g1100
sg162
(lp1103
sg164
g57
sg165
Nsg166
Nsg167
Nsbag3
(g4
g5
NtRp1104
(dp1105
g8
g10
sg145
Nsg146
(dp1106
sg148
Nsg25
g27
sg149
(lp1107
I6
aI14
asg151
Nsg152
VDevarim Rabbah 6:14
p1108
sg154
(lp1109
sg156
g110
sg157
Nsg158
(lp1110
I6
aI14
asg160
Nsg161
g1108
sg162
(lp1111
sg164
g57
sg165
Nsg166
Nsg167
Nsbag3
(g4
g5
NtRp1112
(dp1113
g8
g10
sg145
Nsg146
(dp1114
sg148
Nsg25
g27
sg149
(lp1115
I7
aI1
asg151
Nsg152
VDevarim Rabbah 7:1
p1116
sg154
(lp1117
sg156
g110
sg157
Nsg158
(lp1118
I7
aI1
asg160
Nsg161
g1116
sg162
(lp1119
sg164
g57
sg165
Nsg166
Nsg167
Nsbag3
(g4
g5
NtRp1120
(dp1121
g8
g10
sg145
Nsg146
(dp1122
sg148
Nsg25
g27
sg149
(lp1123
I7
aI2
asg151
Nsg152
VDevarim Rabbah 7:2
p1124
sg154
(lp1125
sg156
g110
sg157
Nsg158
(lp1126
I7
aI2
asg160
Nsg161
g1124
sg162
(lp1127
sg164
g57
sg165
Nsg166
Nsg167
Nsbag3
(g4
g5
NtRp1128
(dp1129
g8
g10
sg145
Nsg146
(dp1130
sg148
Nsg25
g27
sg149
(lp1131
I7
aI3
asg151
Nsg152
VDevarim Rabbah 7:3
p1132
sg154
(lp1133
sg156
g110
sg157
Nsg158
(lp1134
I7
aI3
asg160
Nsg161
g1132
sg162
(lp1135
sg164
g57
sg165
Nsg166
Nsg167
Nsbag3
(g4
g5
NtRp1136
(dp1137
g8
g10
sg145
Nsg146
(dp1138
sg148
Nsg25
g27
sg149
(lp1139
I7
aI4
asg151
Nsg152
VDevarim Rabbah 7:4
p1140
sg154
(lp1141
sg156
g110
sg157
Nsg158
(lp1142
I7
aI4
asg160
Nsg161
g1140
sg162
(lp1143
sg164
g57
sg165
Nsg166
Nsg167
Nsbag3
(g4
g5
NtRp1144
(dp1145
g8
g10
sg145
Nsg146
(dp1146
sg148
Nsg25
g27
sg149
(lp1147
I7
aI5
asg151
Nsg152
VDevarim Rabbah 7:5
p1148
sg154
(lp1149
sg156
g110
sg157
Nsg158
(lp1150
I7
aI5
asg160
Nsg161
g1148
sg162
(lp1151
sg164
g57
sg165
Nsg166
Nsg167
Nsbag3
(g4
g5
NtRp1152
(dp1153
g8
g10
sg145
Nsg146
(dp1154
sg148
Nsg25
g27
sg149
(lp1155
I7
aI6
asg151
Nsg152
VDevarim Rabbah 7:6
p1156
sg154
(lp1157
sg156
g110
sg157
Nsg158
(lp1158
I7
aI6
asg160
Nsg161
g1156
sg162
(lp1159
sg164
g57
sg165
Nsg166
Nsg167
Nsbag3
(g4
g5
NtRp1160
(dp1161
g8
g10
sg145
Nsg146
(dp1162
sg148
Nsg25
g27
sg149
(lp1163
I7
aI7
asg151
Nsg152
VDevarim Rabbah 7:7
p1164
sg154
(lp1165
sg156
g110
sg157
Nsg158
(lp1166
I7
aI7
asg160
Nsg161
g1164
sg162
(lp1167
sg164
g57
sg165
Nsg166
Nsg167
Nsbag3
(g4
g5
NtRp1168
(dp1169
g8
g10
sg145
Nsg146
(dp1170
sg148
Nsg25
g27
sg149
(lp1171
I7
aI8
asg151
Nsg152
VDevarim Rabbah 7:8
p1172
sg154
(lp1173
sg156
g110
sg157
Nsg158
(lp1174
I7
aI8
asg160
Nsg161
g1172
sg162
(lp1175
sg164
g57
sg165
Nsg166
Nsg167
Nsbag3
(g4
g5
NtRp1176
(dp1177
g8
g10
sg145
Nsg146
(dp1178
sg148
Nsg25
g27
sg149
(lp1179
I7
aI9
asg151
Nsg152
VDevarim Rabbah 7:9
p1180
sg154
(lp1181
sg156
g110
sg157
Nsg158
(lp1182
I7
aI9
asg160
Nsg161
g1180
sg162
(lp1183
sg164
g57
sg165
Nsg166
Nsg167
Nsbag3
(g4
g5
NtRp1184
(dp1185
g8
g10
sg145
Nsg146
(dp1186
sg148
Nsg25
g27
sg149
(lp1187
I7
aI10
asg151
Nsg152
VDevarim Rabbah 7:10
p1188
sg154
(lp1189
sg156
g110
sg157
Nsg158
(lp1190
I7
aI10
asg160
Nsg161
g1188
sg162
(lp1191
sg164
g57
sg165
Nsg166
Nsg167
Nsbag3
(g4
g5
NtRp1192
(dp1193
g8
g10
sg145
Nsg146
(dp1194
sg148
Nsg25
g27
sg149
(lp1195
I7
aI11
asg151
Nsg152
VDevarim Rabbah 7:11
p1196
sg154
(lp1197
sg156
g110
sg157
Nsg158
(lp1198
I7
aI11
asg160
Nsg161
g1196
sg162
(lp1199
sg164
g57
sg165
Nsg166
Nsg167
Nsbag3
(g4
g5
NtRp1200
(dp1201
g8
g10
sg145
Nsg146
(dp1202
sg148
Nsg25
g27
sg149
(lp1203
I8
aI1
asg151
Nsg152
VDevarim Rabbah 8:1
p1204
sg154
(lp1205
sg156
g110
sg157
Nsg158
(lp1206
I8
aI1
asg160
Nsg161
g1204
sg162
(lp1207
sg164
g57
sg165
Nsg166
Nsg167
Nsbag3
(g4
g5
NtRp1208
(dp1209
g8
g10
sg145
Nsg146
(dp1210
sg148
Nsg25
g27
sg149
(lp1211
I8
aI2
asg151
Nsg152
VDevarim Rabbah 8:2
p1212
sg154
(lp1213
sg156
g110
sg157
Nsg158
(lp1214
I8
aI2
asg160
Nsg161
g1212
sg162
(lp1215
sg164
g57
sg165
Nsg166
Nsg167
Nsbag3
(g4
g5
NtRp1216
(dp1217
g8
g10
sg145
Nsg146
(dp1218
sg148
Nsg25
g27
sg149
(lp1219
I8
aI3
asg151
Nsg152
VDevarim Rabbah 8:3
p1220
sg154
(lp1221
sg156
g110
sg157
Nsg158
(lp1222
I8
aI3
asg160
Nsg161
g1220
sg162
(lp1223
sg164
g57
sg165
Nsg166
Nsg167
Nsbag3
(g4
g5
NtRp1224
(dp1225
g8
g10
sg145
Nsg146
(dp1226
sg148
Nsg25
g27
sg149
(lp1227
I8
aI4
asg151
Nsg152
VDevarim Rabbah 8:4
p1228
sg154
(lp1229
sg156
g110
sg157
Nsg158
(lp1230
I8
aI4
asg160
Nsg161
g1228
sg162
(lp1231
sg164
g57
sg165
Nsg166
Nsg167
Nsbag3
(g4
g5
NtRp1232
(dp1233
g8
g10
sg145
Nsg146
(dp1234
sg148
Nsg25
g27
sg149
(lp1235
I8
aI5
asg151
Nsg152
VDevarim Rabbah 8:5
p1236
sg154
(lp1237
sg156
g110
sg157
Nsg158
(lp1238
I8
aI5
asg160
Nsg161
g1236
sg162
(lp1239
sg164
g57
sg165
Nsg166
Nsg167
Nsbag3
(g4
g5
NtRp1240
(dp1241
g8
g10
sg145
Nsg146
(dp1242
sg148
Nsg25
g27
sg149
(lp1243
I8
aI6
asg151
Nsg152
VDevarim Rabbah 8:6
p1244
sg154
(lp1245
sg156
g110
sg157
Nsg158
(lp1246
I8
aI6
asg160
Nsg161
g1244
sg162
(lp1247
sg164
g57
sg165
Nsg166
Nsg167
Nsbag3
(g4
g5
NtRp1248
(dp1249
g8
g10
sg145
Nsg146
(dp1250
sg148
Nsg25
g27
sg149
(lp1251
I8
aI7
asg151
Nsg152
VDevarim Rabbah 8:7
p1252
sg154
(lp1253
sg156
g110
sg157
Nsg158
(lp1254
I8
aI7
asg160
Nsg161
g1252
sg162
(lp1255
sg164
g57
sg165
Nsg166
Nsg167
Nsbag3
(g4
g5
NtRp1256
(dp1257
g8
g10
sg145
Nsg146
(dp1258
sg148
Nsg25
g27
sg149
(lp1259
I9
aI1
asg151
Nsg152
VDevarim Rabbah 9:1
p1260
sg154
(lp1261
sg156
g110
sg157
Nsg158
(lp1262
I9
aI1
asg160
Nsg161
g1260
sg162
(lp1263
sg164
g57
sg165
Nsg166
Nsg167
Nsbag3
(g4
g5
NtRp1264
(dp1265
g8
g10
sg145
Nsg146
(dp1266
sg148
Nsg25
g27
sg149
(lp1267
I9
aI2
asg151
Nsg152
VDevarim Rabbah 9:2
p1268
sg154
(lp1269
sg156
g110
sg157
Nsg158
(lp1270
I9
aI2
asg160
Nsg161
g1268
sg162
(lp1271
sg164
g57
sg165
Nsg166
Nsg167
Nsbag3
(g4
g5
NtRp1272
(dp1273
g8
g10
sg145
Nsg146
(dp1274
sg148
Nsg25
g27
sg149
(lp1275
I9
aI3
asg151
Nsg152
VDevarim Rabbah 9:3
p1276
sg154
(lp1277
sg156
g110
sg157
Nsg158
(lp1278
I9
aI3
asg160
Nsg161
g1276
sg162
(lp1279
sg164
g57
sg165
Nsg166
Nsg167
Nsbag3
(g4
g5
NtRp1280
(dp1281
g8
g10
sg145
Nsg146
(dp1282
sg148
Nsg25
g27
sg149
(lp1283
I9
aI4
asg151
Nsg152
VDevarim Rabbah 9:4
p1284
sg154
(lp1285
sg156
g110
sg157
Nsg158
(lp1286
I9
aI4
asg160
Nsg161
g1284
sg162
(lp1287
sg164
g57
sg165
Nsg166
Nsg167
Nsbag3
(g4
g5
NtRp1288
(dp1289
g8
g10
sg145
Nsg146
(dp1290
sg148
Nsg25
g27
sg149
(lp1291
I9
aI5
asg151
Nsg152
VDevarim Rabbah 9:5
p1292
sg154
(lp1293
sg156
g110
sg157
Nsg158
(lp1294
I9
aI5
asg160
Nsg161
g1292
sg162
(lp1295
sg164
g57
sg165
Nsg166
Nsg167
Nsbag3
(g4
g5
NtRp1296
(dp1297
g8
g10
sg145
Nsg146
(dp1298
sg148
Nsg25
g27
sg149
(lp1299
I9
aI6
asg151
Nsg152
VDevarim Rabbah 9:6
p1300
sg154
(lp1301
sg156
g110
sg157
Nsg158
(lp1302
I9
aI6
asg160
Nsg161
g1300
sg162
(lp1303
sg164
g57
sg165
Nsg166
Nsg167
Nsbag3
(g4
g5
NtRp1304
(dp1305
g8
g10
sg145
Nsg146
(dp1306
sg148
Nsg25
g27
sg149
(lp1307
I9
aI7
asg151
Nsg152
VDevarim Rabbah 9:7
p1308
sg154
(lp1309
sg156
g110
sg157
Nsg158
(lp1310
I9
aI7
asg160
Nsg161
g1308
sg162
(lp1311
sg164
g57
sg165
Nsg166
Nsg167
Nsbag3
(g4
g5
NtRp1312
(dp1313
g8
g10
sg145
Nsg146
(dp1314
sg148
Nsg25
g27
sg149
(lp1315
I9
aI8
asg151
Nsg152
VDevarim Rabbah 9:8
p1316
sg154
(lp1317
sg156
g110
sg157
Nsg158
(lp1318
I9
aI8
asg160
Nsg161
g1316
sg162
(lp1319
sg164
g57
sg165
Nsg166
Nsg167
Nsbag3
(g4
g5
NtRp1320
(dp1321
g8
g10
sg145
Nsg146
(dp1322
sg148
Nsg25
g27
sg149
(lp1323
I9
aI9
asg151
Nsg152
VDevarim Rabbah 9:9
p1324
sg154
(lp1325
sg156
g110
sg157
Nsg158
(lp1326
I9
aI9
asg160
Nsg161
g1324
sg162
(lp1327
sg164
g57
sg165
Nsg166
Nsg167
Nsbag3
(g4
g5
NtRp1328
(dp1329
g8
g10
sg145
Nsg146
(dp1330
sg148
Nsg25
g27
sg149
(lp1331
I10
aI1
asg151
Nsg152
VDevarim Rabbah 10:1
p1332
sg154
(lp1333
sg156
g110
sg157
Nsg158
(lp1334
I10
aI1
asg160
Nsg161
g1332
sg162
(lp1335
sg164
g57
sg165
Nsg166
Nsg167
Nsbag3
(g4
g5
NtRp1336
(dp1337
g8
g10
sg145
Nsg146
(dp1338
sg148
Nsg25
g27
sg149
(lp1339
I10
aI2
asg151
Nsg152
VDevarim Rabbah 10:2
p1340
sg154
(lp1341
sg156
g110
sg157
Nsg158
(lp1342
I10
aI2
asg160
Nsg161
g1340
sg162
(lp1343
sg164
g57
sg165
Nsg166
Nsg167
Nsbag3
(g4
g5
NtRp1344
(dp1345
g8
g10
sg145
Nsg146
(dp1346
sg148
Nsg25
g27
sg149
(lp1347
I10
aI3
asg151
Nsg152
VDevarim Rabbah 10:3
p1348
sg154
(lp1349
sg156
g110
sg157
Nsg158
(lp1350
I10
aI3
asg160
Nsg161
g1348
sg162
(lp1351
sg164
g57
sg165
Nsg166
Nsg167
Nsbag3
(g4
g5
NtRp1352
(dp1353
g8
g10
sg145
Nsg146
(dp1354
sg148
Nsg25
g27
sg149
(lp1355
I10
aI4
asg151
Nsg152
VDevarim Rabbah 10:4
p1356
sg154
(lp1357
sg156
g110
sg157
Nsg158
(lp1358
I10
aI4
asg160
Nsg161
g1356
sg162
(lp1359
sg164
g57
sg165
Nsg166
Nsg167
Nsbag3
(g4
g5
NtRp1360
(dp1361
g8
g10
sg145
Nsg146
(dp1362
sg148
Nsg25
g27
sg149
(lp1363
I11
aI1
asg151
Nsg152
VDevarim Rabbah 11:1
p1364
sg154
(lp1365
sg156
g110
sg157
Nsg158
(lp1366
I11
aI1
asg160
Nsg161
g1364
sg162
(lp1367
sg164
g57
sg165
Nsg166
Nsg167
Nsbag3
(g4
g5
NtRp1368
(dp1369
g8
g10
sg145
Nsg146
(dp1370
sg148
Nsg25
g27
sg149
(lp1371
I11
aI2
asg151
Nsg152
VDevarim Rabbah 11:2
p1372
sg154
(lp1373
sg156
g110
sg157
Nsg158
(lp1374
I11
aI2
asg160
Nsg161
g1372
sg162
(lp1375
sg164
g57
sg165
Nsg166
Nsg167
Nsbag3
(g4
g5
NtRp1376
(dp1377
g8
g10
sg145
Nsg146
(dp1378
sg148
Nsg25
g27
sg149
(lp1379
I11
aI3
asg151
Nsg152
VDevarim Rabbah 11:3
p1380
sg154
(lp1381
sg156
g110
sg157
Nsg158
(lp1382
I11
aI3
asg160
Nsg161
g1380
sg162
(lp1383
sg164
g57
sg165
Nsg166
Nsg167
Nsbag3
(g4
g5
NtRp1384
(dp1385
g8
g10
sg145
Nsg146
(dp1386
sg148
Nsg25
g27
sg149
(lp1387
I11
aI4
asg151
Nsg152
VDevarim Rabbah 11:4
p1388
sg154
(lp1389
sg156
g110
sg157
Nsg158
(lp1390
I11
aI4
asg160
Nsg161
g1388
sg162
(lp1391
sg164
g57
sg165
Nsg166
Nsg167
Nsbag3
(g4
g5
NtRp1392
(dp1393
g8
g10
sg145
Nsg146
(dp1394
sg148
Nsg25
g27
sg149
(lp1395
I11
aI5
asg151
Nsg152
VDevarim Rabbah 11:5
p1396
sg154
(lp1397
sg156
g110
sg157
Nsg158
(lp1398
I11
aI5
asg160
Nsg161
g1396
sg162
(lp1399
sg164
g57
sg165
Nsg166
Nsg167
Nsbag3
(g4
g5
NtRp1400
(dp1401
g8
g10
sg145
Nsg146
(dp1402
sg148
Nsg25
g27
sg149
(lp1403
I11
aI6
asg151
Nsg152
VDevarim Rabbah 11:6
p1404
sg154
(lp1405
sg156
g110
sg157
Nsg158
(lp1406
I11
aI6
asg160
Nsg161
g1404
sg162
(lp1407
sg164
g57
sg165
Nsg166
Nsg167
Nsbag3
(g4
g5
NtRp1408
(dp1409
g8
g10
sg145
Nsg146
(dp1410
sg148
Nsg25
g27
sg149
(lp1411
I11
aI7
asg151
Nsg152
VDevarim Rabbah 11:7
p1412
sg154
(lp1413
sg156
g110
sg157
Nsg158
(lp1414
I11
aI7
asg160
Nsg161
g1412
sg162
(lp1415
sg164
g57
sg165
Nsg166
Nsg167
Nsbag3
(g4
g5
NtRp1416
(dp1417
g8
g10
sg145
Nsg146
(dp1418
sg148
Nsg25
g27
sg149
(lp1419
I11
aI8
asg151
Nsg152
VDevarim Rabbah 11:8
p1420
sg154
(lp1421
sg156
g110
sg157
Nsg158
(lp1422
I11
aI8
asg160
Nsg161
g1420
sg162
(lp1423
sg164
g57
sg165
Nsg166
Nsg167
Nsbag3
(g4
g5
NtRp1424
(dp1425
g8
g10
sg145
Nsg146
(dp1426
sg148
Nsg25
g27
sg149
(lp1427
I11
aI9
asg151
Nsg152
VDevarim Rabbah 11:9
p1428
sg154
(lp1429
sg156
g110
sg157
Nsg158
(lp1430
I11
aI9
asg160
Nsg161
g1428
sg162
(lp1431
sg164
g57
sg165
Nsg166
Nsg167
Nsbag3
(g4
g5
NtRp1432
(dp1433
g8
g10
sg145
Nsg146
(dp1434
sg148
Nsg25
g27
sg149
(lp1435
I11
aI10
asg151
Nsg152
VDevarim Rabbah 11:10
p1436
sg154
(lp1437
sg156
g110
sg157
Nsg158
(lp1438
I11
aI10
asg160
Nsg161
g1436
sg162
(lp1439
sg164
g57
sg165
Nsg166
Nsg167
Nsbag3
(g4
g5
NtRp1440
(dp1441
g8
g10
sg145
Nsg146
(dp1442
sg148
Nsg25
g27
sg149
(lp1443
I11
aI11
asg151
Nsg152
VDevarim Rabbah 11:11
p1444
sg154
(lp1445
sg156
g110
sg157
Nsg158
(lp1446
I11
aI11
asg160
Nsg161
g1444
sg162
(lp1447
sg164
g57
sg165
Nsg166
Nsg167
NsbaI31551
t.