((lp1
I0
aI496
aI956
aI1182
aI1916
aI1999
aI2118
aI2171
aI2223
aI2278
aI2333
aI2537
aI2794
aI3039
aI3407
aI3522
aI3623
aI3697
aI3870
aI4165
aI4455
aI4665
aI4826
aI5752
aI5812
aI5881
aI5951
aI5965
aI6162
aI6404
aI6549
aI7329
aI7384
aI7720
aI7813
aI7855
aI8134
aI8418
aI8791
aI9023
aI9131
aI9699
aI9909
aI10008
aI10053
aI10547
aI10727
aI10857
aI10924
aI10978
aI11697
aI12449
aI13042
aI13235
aI13413
aI13453
aI13691
aI14077
aI14269
aI14449
aI15094
aI16716
aI16893
aI17242
aI17279
aI17495
aI17626
aI17705
aI17894
aI17954
aI18031
aI18312
aI18396
aI18484
aI18750
aI18819
aI18915
aI18930
aI19014
aI19327
aI19468
aI19857
aI19958
aI20191
aI20272
aI20499
aI20969
aI21344
aI21632
aI21759
aI21966
aI22114
aI22138
aI22318
aI22498
aI22661
aI22675
aI22804
aI22840
aI22856
aI22957
aI22970
aI23184
aI23367
aI23522
aI23586
aI23809
aI24100
aI24145
aI24169
aI24250
aI24262
aI24340
aI24414
aI24512
aI24555
aI24621
aI24829
aI25193
aI25465
aI25512
aI25885
aI25899
aI26003
aI26124
aI26296
aI26448
aI26465
aI26641
aI26832
aI26880
aI26930
aI26959
aI27101
aI27136
aI27151
aI27176
aI27225
aI27239
aI27304
aI27337
aI27392
aI27401
aI27459
aI27497
aI27573
aI27822
aI27838
aI27940
aI28049
a(lp2
ccopy_reg
_reconstructor
p3
(csefaria.model.text
Ref
p4
c__builtin__
object
p5
NtRp6
(dp7
S'index_node'
p8
g3
(csefaria.model.schema
JaggedArrayNode
p9
g5
NtRp10
(dp11
S'_address'
p12
(lp13
VEichah Rabbah
p14
asS'_full_titles'
p15
(dp16
sVnodeType
p17
VJaggedArrayNode
p18
sS'parent'
p19
NsVaddressTypes
p20
(lp21
VInteger
p22
aVInteger
p23
asS'default'
p24
I00
sS'index'
p25
g3
(csefaria.model.text
Index
p26
g5
NtRp27
(dp28
S'pkeys_orig_values'
p29
(dp30
S'title'
p31
VEichah Rabbah
p32
ssS'pubDate'
p33
V1519
p34
sS'compDate'
p35
V500
p36
sS'pubPlace'
p37
VIstanbul
p38
sS'compPlace'
p39
VTalmudic Israel/Babylon
p40
sS'enDesc'
p41
VEkhah Rabbah (The Great Lamentations) is a haggadic and homiletic interpretation of the Book of Lamentations. It belongs to oldest works of the Midrashic literature. It begins with 36 consecutive proems forming a separate collection, certainly made by the author. They constitute more than one-fourth of the work. These proems which are arranged in the sequence of the verses originated in the discourses. The haggadic explanations of this book were treated as appropriate dirges on the destruction of the first and second Temples in Jerusalem on the Ninth of Av. Numerous Greek words suggest the book was composed in Israel, sometime after the Jerusalem Talmud was completed, in the 5th century.
p42
sS'order'
p43
(lp44
I10
asS'era'
p45
VAH
p46
sS'struct_objs'
p47
(dp48
sS'nodes'
p49
g10
sS'_id'
p50
g3
(cbson.objectid
ObjectId
p51
g5
NtRp52
S'Q>\xc6S\xed\xba\xb4|\x02\x96$\xcb'
p53
bsS'_title'
p54
g32
sS'categories'
p55
(lp56
VMidrash
p57
aVAggadic Midrash
p58
aVMidrash Rabbah
p59
asS'schema'
p60
(dp61
g17
g18
sg20
g21
sVdepth
p62
I2
sVtitles
p63
(lp64
(dp65
Vlang
p66
Ven
p67
sVtext
p68
VEichah Rabba
p69
sa(dp70
Vlang
p71
Ven
p72
sVtext
p73
VEicha Rabbah
p74
sa(dp75
Vlang
p76
Ven
p77
sVtext
p78
VEicha Rabba
p79
sa(dp80
Vlang
p81
Vhe
p82
sVtext
p83
V\u05d0\u05d9\u05db\u05d4 \u05e8\u05d1\u05d4
p84
sVprimary
p85
I01
sa(dp86
Vlang
p87
Ven
p88
sVtext
p89
VEichah Rabbah
p90
sVprimary
p91
I01
sasVkey
p92
g14
sVsectionNames
p93
(lp94
VChapter
p95
aVMidrash
p96
assbsS'_primary_title'
p97
(dp98
sS'title_group'
p99
g3
(csefaria.model.schema
TitleGroup
p100
g5
NtRp101
(dp102
g97
(dp103
S'en'
p104
g90
ssS'titles'
p105
g64
sbsS'_addressTypes'
p106
(lp107
g3
(csefaria.model.schema
AddressInteger
p108
g5
NtRp109
(dp110
S'length'
p111
Nsg43
I0
sbag3
(g108
g5
NtRp112
(dp113
g111
Nsg43
I1
sbasS'sharedTitle'
p114
Nsg62
I2
sS'_full_title'
p115
(dp116
g104
g90
ssS'key'
p117
g14
sS'checkFirst'
p118
NsS'_regexes'
p119
(dp120
sS'_leaf_nodes'
p121
(lp122
sg93
g94
sS'children'
p123
(lp124
sbsS'_range_index'
p125
NsS'_context'
p126
(dp127
sS'_padded'
p128
Nsg25
g27
sS'sections'
p129
(lp130
I1
aI1
asS'_first_spanned_ref'
p131
NsS'tref'
p132
VEichah Rabbah 1:1
p133
sS'_spanned_refs'
p134
(lp135
sS'book'
p136
g90
sS'_range_depth'
p137
NsS'toSections'
p138
(lp139
I1
aI1
asS'_url'
p140
NsS'_normal'
p141
g133
sS'_ranged_refs'
p142
(lp143
sS'type'
p144
g57
sS'_prev'
p145
NsS'_he_normal'
p146
NsS'_next'
p147
Nsbag3
(g4
g5
NtRp148
(dp149
g8
g10
sg125
Nsg126
(dp150
sg128
Nsg25
g27
sg129
(lp151
I1
aI2
asg131
Nsg132
VEichah Rabbah 1:2
p152
sg134
(lp153
sg136
g90
sg137
Nsg138
(lp154
I1
aI2
asg140
Nsg141
g152
sg142
(lp155
sg144
g57
sg145
Nsg146
Nsg147
Nsbag3
(g4
g5
NtRp156
(dp157
g8
g10
sg125
Nsg126
(dp158
sg128
Nsg25
g27
sg129
(lp159
I1
aI3
asg131
Nsg132
VEichah Rabbah 1:3
p160
sg134
(lp161
sg136
g90
sg137
Nsg138
(lp162
I1
aI3
asg140
Nsg141
g160
sg142
(lp163
sg144
g57
sg145
Nsg146
Nsg147
Nsbag3
(g4
g5
NtRp164
(dp165
g8
g10
sg125
Nsg126
(dp166
sg128
Nsg25
g27
sg129
(lp167
I1
aI4
asg131
Nsg132
VEichah Rabbah 1:4
p168
sg134
(lp169
sg136
g90
sg137
Nsg138
(lp170
I1
aI4
asg140
Nsg141
g168
sg142
(lp171
sg144
g57
sg145
Nsg146
Nsg147
Nsbag3
(g4
g5
NtRp172
(dp173
g8
g10
sg125
Nsg126
(dp174
sg128
Nsg25
g27
sg129
(lp175
I1
aI5
asg131
Nsg132
VEichah Rabbah 1:5
p176
sg134
(lp177
sg136
g90
sg137
Nsg138
(lp178
I1
aI5
asg140
Nsg141
g176
sg142
(lp179
sg144
g57
sg145
Nsg146
Nsg147
Nsbag3
(g4
g5
NtRp180
(dp181
g8
g10
sg125
Nsg126
(dp182
sg128
Nsg25
g27
sg129
(lp183
I1
aI6
asg131
Nsg132
VEichah Rabbah 1:6
p184
sg134
(lp185
sg136
g90
sg137
Nsg138
(lp186
I1
aI6
asg140
Nsg141
g184
sg142
(lp187
sg144
g57
sg145
Nsg146
Nsg147
Nsbag3
(g4
g5
NtRp188
(dp189
g8
g10
sg125
Nsg126
(dp190
sg128
Nsg25
g27
sg129
(lp191
I1
aI7
asg131
Nsg132
VEichah Rabbah 1:7
p192
sg134
(lp193
sg136
g90
sg137
Nsg138
(lp194
I1
aI7
asg140
Nsg141
g192
sg142
(lp195
sg144
g57
sg145
Nsg146
Nsg147
Nsbag3
(g4
g5
NtRp196
(dp197
g8
g10
sg125
Nsg126
(dp198
sg128
Nsg25
g27
sg129
(lp199
I1
aI8
asg131
Nsg132
VEichah Rabbah 1:8
p200
sg134
(lp201
sg136
g90
sg137
Nsg138
(lp202
I1
aI8
asg140
Nsg141
g200
sg142
(lp203
sg144
g57
sg145
Nsg146
Nsg147
Nsbag3
(g4
g5
NtRp204
(dp205
g8
g10
sg125
Nsg126
(dp206
sg128
Nsg25
g27
sg129
(lp207
I1
aI9
asg131
Nsg132
VEichah Rabbah 1:9
p208
sg134
(lp209
sg136
g90
sg137
Nsg138
(lp210
I1
aI9
asg140
Nsg141
g208
sg142
(lp211
sg144
g57
sg145
Nsg146
Nsg147
Nsbag3
(g4
g5
NtRp212
(dp213
g8
g10
sg125
Nsg126
(dp214
sg128
Nsg25
g27
sg129
(lp215
I1
aI10
asg131
Nsg132
VEichah Rabbah 1:10
p216
sg134
(lp217
sg136
g90
sg137
Nsg138
(lp218
I1
aI10
asg140
Nsg141
g216
sg142
(lp219
sg144
g57
sg145
Nsg146
Nsg147
Nsbag3
(g4
g5
NtRp220
(dp221
g8
g10
sg125
Nsg126
(dp222
sg128
Nsg25
g27
sg129
(lp223
I1
aI11
asg131
Nsg132
VEichah Rabbah 1:11
p224
sg134
(lp225
sg136
g90
sg137
Nsg138
(lp226
I1
aI11
asg140
Nsg141
g224
sg142
(lp227
sg144
g57
sg145
Nsg146
Nsg147
Nsbag3
(g4
g5
NtRp228
(dp229
g8
g10
sg125
Nsg126
(dp230
sg128
Nsg25
g27
sg129
(lp231
I1
aI12
asg131
Nsg132
VEichah Rabbah 1:12
p232
sg134
(lp233
sg136
g90
sg137
Nsg138
(lp234
I1
aI12
asg140
Nsg141
g232
sg142
(lp235
sg144
g57
sg145
Nsg146
Nsg147
Nsbag3
(g4
g5
NtRp236
(dp237
g8
g10
sg125
Nsg126
(dp238
sg128
Nsg25
g27
sg129
(lp239
I1
aI13
asg131
Nsg132
VEichah Rabbah 1:13
p240
sg134
(lp241
sg136
g90
sg137
Nsg138
(lp242
I1
aI13
asg140
Nsg141
g240
sg142
(lp243
sg144
g57
sg145
Nsg146
Nsg147
Nsbag3
(g4
g5
NtRp244
(dp245
g8
g10
sg125
Nsg126
(dp246
sg128
Nsg25
g27
sg129
(lp247
I1
aI14
asg131
Nsg132
VEichah Rabbah 1:14
p248
sg134
(lp249
sg136
g90
sg137
Nsg138
(lp250
I1
aI14
asg140
Nsg141
g248
sg142
(lp251
sg144
g57
sg145
Nsg146
Nsg147
Nsbag3
(g4
g5
NtRp252
(dp253
g8
g10
sg125
Nsg126
(dp254
sg128
Nsg25
g27
sg129
(lp255
I1
aI15
asg131
Nsg132
VEichah Rabbah 1:15
p256
sg134
(lp257
sg136
g90
sg137
Nsg138
(lp258
I1
aI15
asg140
Nsg141
g256
sg142
(lp259
sg144
g57
sg145
Nsg146
Nsg147
Nsbag3
(g4
g5
NtRp260
(dp261
g8
g10
sg125
Nsg126
(dp262
sg128
Nsg25
g27
sg129
(lp263
I1
aI16
asg131
Nsg132
VEichah Rabbah 1:16
p264
sg134
(lp265
sg136
g90
sg137
Nsg138
(lp266
I1
aI16
asg140
Nsg141
g264
sg142
(lp267
sg144
g57
sg145
Nsg146
Nsg147
Nsbag3
(g4
g5
NtRp268
(dp269
g8
g10
sg125
Nsg126
(dp270
sg128
Nsg25
g27
sg129
(lp271
I1
aI17
asg131
Nsg132
VEichah Rabbah 1:17
p272
sg134
(lp273
sg136
g90
sg137
Nsg138
(lp274
I1
aI17
asg140
Nsg141
g272
sg142
(lp275
sg144
g57
sg145
Nsg146
Nsg147
Nsbag3
(g4
g5
NtRp276
(dp277
g8
g10
sg125
Nsg126
(dp278
sg128
Nsg25
g27
sg129
(lp279
I1
aI18
asg131
Nsg132
VEichah Rabbah 1:18
p280
sg134
(lp281
sg136
g90
sg137
Nsg138
(lp282
I1
aI18
asg140
Nsg141
g280
sg142
(lp283
sg144
g57
sg145
Nsg146
Nsg147
Nsbag3
(g4
g5
NtRp284
(dp285
g8
g10
sg125
Nsg126
(dp286
sg128
Nsg25
g27
sg129
(lp287
I1
aI19
asg131
Nsg132
VEichah Rabbah 1:19
p288
sg134
(lp289
sg136
g90
sg137
Nsg138
(lp290
I1
aI19
asg140
Nsg141
g288
sg142
(lp291
sg144
g57
sg145
Nsg146
Nsg147
Nsbag3
(g4
g5
NtRp292
(dp293
g8
g10
sg125
Nsg126
(dp294
sg128
Nsg25
g27
sg129
(lp295
I1
aI20
asg131
Nsg132
VEichah Rabbah 1:20
p296
sg134
(lp297
sg136
g90
sg137
Nsg138
(lp298
I1
aI20
asg140
Nsg141
g296
sg142
(lp299
sg144
g57
sg145
Nsg146
Nsg147
Nsbag3
(g4
g5
NtRp300
(dp301
g8
g10
sg125
Nsg126
(dp302
sg128
Nsg25
g27
sg129
(lp303
I1
aI21
asg131
Nsg132
VEichah Rabbah 1:21
p304
sg134
(lp305
sg136
g90
sg137
Nsg138
(lp306
I1
aI21
asg140
Nsg141
g304
sg142
(lp307
sg144
g57
sg145
Nsg146
Nsg147
Nsbag3
(g4
g5
NtRp308
(dp309
g8
g10
sg125
Nsg126
(dp310
sg128
Nsg25
g27
sg129
(lp311
I1
aI22
asg131
Nsg132
VEichah Rabbah 1:22
p312
sg134
(lp313
sg136
g90
sg137
Nsg138
(lp314
I1
aI22
asg140
Nsg141
g312
sg142
(lp315
sg144
g57
sg145
Nsg146
Nsg147
Nsbag3
(g4
g5
NtRp316
(dp317
g8
g10
sg125
Nsg126
(dp318
sg128
Nsg25
g27
sg129
(lp319
I1
aI23
asg131
Nsg132
VEichah Rabbah 1:23
p320
sg134
(lp321
sg136
g90
sg137
Nsg138
(lp322
I1
aI23
asg140
Nsg141
g320
sg142
(lp323
sg144
g57
sg145
Nsg146
Nsg147
Nsbag3
(g4
g5
NtRp324
(dp325
g8
g10
sg125
Nsg126
(dp326
sg128
Nsg25
g27
sg129
(lp327
I1
aI24
asg131
Nsg132
VEichah Rabbah 1:24
p328
sg134
(lp329
sg136
g90
sg137
Nsg138
(lp330
I1
aI24
asg140
Nsg141
g328
sg142
(lp331
sg144
g57
sg145
Nsg146
Nsg147
Nsbag3
(g4
g5
NtRp332
(dp333
g8
g10
sg125
Nsg126
(dp334
sg128
Nsg25
g27
sg129
(lp335
I1
aI25
asg131
Nsg132
VEichah Rabbah 1:25
p336
sg134
(lp337
sg136
g90
sg137
Nsg138
(lp338
I1
aI25
asg140
Nsg141
g336
sg142
(lp339
sg144
g57
sg145
Nsg146
Nsg147
Nsbag3
(g4
g5
NtRp340
(dp341
g8
g10
sg125
Nsg126
(dp342
sg128
Nsg25
g27
sg129
(lp343
I1
aI26
asg131
Nsg132
VEichah Rabbah 1:26
p344
sg134
(lp345
sg136
g90
sg137
Nsg138
(lp346
I1
aI26
asg140
Nsg141
g344
sg142
(lp347
sg144
g57
sg145
Nsg146
Nsg147
Nsbag3
(g4
g5
NtRp348
(dp349
g8
g10
sg125
Nsg126
(dp350
sg128
Nsg25
g27
sg129
(lp351
I1
aI27
asg131
Nsg132
VEichah Rabbah 1:27
p352
sg134
(lp353
sg136
g90
sg137
Nsg138
(lp354
I1
aI27
asg140
Nsg141
g352
sg142
(lp355
sg144
g57
sg145
Nsg146
Nsg147
Nsbag3
(g4
g5
NtRp356
(dp357
g8
g10
sg125
Nsg126
(dp358
sg128
Nsg25
g27
sg129
(lp359
I1
aI28
asg131
Nsg132
VEichah Rabbah 1:28
p360
sg134
(lp361
sg136
g90
sg137
Nsg138
(lp362
I1
aI28
asg140
Nsg141
g360
sg142
(lp363
sg144
g57
sg145
Nsg146
Nsg147
Nsbag3
(g4
g5
NtRp364
(dp365
g8
g10
sg125
Nsg126
(dp366
sg128
Nsg25
g27
sg129
(lp367
I1
aI29
asg131
Nsg132
VEichah Rabbah 1:29
p368
sg134
(lp369
sg136
g90
sg137
Nsg138
(lp370
I1
aI29
asg140
Nsg141
g368
sg142
(lp371
sg144
g57
sg145
Nsg146
Nsg147
Nsbag3
(g4
g5
NtRp372
(dp373
g8
g10
sg125
Nsg126
(dp374
sg128
Nsg25
g27
sg129
(lp375
I1
aI30
asg131
Nsg132
VEichah Rabbah 1:30
p376
sg134
(lp377
sg136
g90
sg137
Nsg138
(lp378
I1
aI30
asg140
Nsg141
g376
sg142
(lp379
sg144
g57
sg145
Nsg146
Nsg147
Nsbag3
(g4
g5
NtRp380
(dp381
g8
g10
sg125
Nsg126
(dp382
sg128
Nsg25
g27
sg129
(lp383
I1
aI31
asg131
Nsg132
VEichah Rabbah 1:31
p384
sg134
(lp385
sg136
g90
sg137
Nsg138
(lp386
I1
aI31
asg140
Nsg141
g384
sg142
(lp387
sg144
g57
sg145
Nsg146
Nsg147
Nsbag3
(g4
g5
NtRp388
(dp389
g8
g10
sg125
Nsg126
(dp390
sg128
Nsg25
g27
sg129
(lp391
I1
aI32
asg131
Nsg132
VEichah Rabbah 1:32
p392
sg134
(lp393
sg136
g90
sg137
Nsg138
(lp394
I1
aI32
asg140
Nsg141
g392
sg142
(lp395
sg144
g57
sg145
Nsg146
Nsg147
Nsbag3
(g4
g5
NtRp396
(dp397
g8
g10
sg125
Nsg126
(dp398
sg128
Nsg25
g27
sg129
(lp399
I1
aI33
asg131
Nsg132
VEichah Rabbah 1:33
p400
sg134
(lp401
sg136
g90
sg137
Nsg138
(lp402
I1
aI33
asg140
Nsg141
g400
sg142
(lp403
sg144
g57
sg145
Nsg146
Nsg147
Nsbag3
(g4
g5
NtRp404
(dp405
g8
g10
sg125
Nsg126
(dp406
sg128
Nsg25
g27
sg129
(lp407
I1
aI34
asg131
Nsg132
VEichah Rabbah 1:34
p408
sg134
(lp409
sg136
g90
sg137
Nsg138
(lp410
I1
aI34
asg140
Nsg141
g408
sg142
(lp411
sg144
g57
sg145
Nsg146
Nsg147
Nsbag3
(g4
g5
NtRp412
(dp413
g8
g10
sg125
Nsg126
(dp414
sg128
Nsg25
g27
sg129
(lp415
I1
aI35
asg131
Nsg132
VEichah Rabbah 1:35
p416
sg134
(lp417
sg136
g90
sg137
Nsg138
(lp418
I1
aI35
asg140
Nsg141
g416
sg142
(lp419
sg144
g57
sg145
Nsg146
Nsg147
Nsbag3
(g4
g5
NtRp420
(dp421
g8
g10
sg125
Nsg126
(dp422
sg128
Nsg25
g27
sg129
(lp423
I1
aI36
asg131
Nsg132
VEichah Rabbah 1:36
p424
sg134
(lp425
sg136
g90
sg137
Nsg138
(lp426
I1
aI36
asg140
Nsg141
g424
sg142
(lp427
sg144
g57
sg145
Nsg146
Nsg147
Nsbag3
(g4
g5
NtRp428
(dp429
g8
g10
sg125
Nsg126
(dp430
sg128
Nsg25
g27
sg129
(lp431
I1
aI37
asg131
Nsg132
VEichah Rabbah 1:37
p432
sg134
(lp433
sg136
g90
sg137
Nsg138
(lp434
I1
aI37
asg140
Nsg141
g432
sg142
(lp435
sg144
g57
sg145
Nsg146
Nsg147
Nsbag3
(g4
g5
NtRp436
(dp437
g8
g10
sg125
Nsg126
(dp438
sg128
Nsg25
g27
sg129
(lp439
I1
aI38
asg131
Nsg132
VEichah Rabbah 1:38
p440
sg134
(lp441
sg136
g90
sg137
Nsg138
(lp442
I1
aI38
asg140
Nsg141
g440
sg142
(lp443
sg144
g57
sg145
Nsg146
Nsg147
Nsbag3
(g4
g5
NtRp444
(dp445
g8
g10
sg125
Nsg126
(dp446
sg128
Nsg25
g27
sg129
(lp447
I1
aI39
asg131
Nsg132
VEichah Rabbah 1:39
p448
sg134
(lp449
sg136
g90
sg137
Nsg138
(lp450
I1
aI39
asg140
Nsg141
g448
sg142
(lp451
sg144
g57
sg145
Nsg146
Nsg147
Nsbag3
(g4
g5
NtRp452
(dp453
g8
g10
sg125
Nsg126
(dp454
sg128
Nsg25
g27
sg129
(lp455
I1
aI40
asg131
Nsg132
VEichah Rabbah 1:40
p456
sg134
(lp457
sg136
g90
sg137
Nsg138
(lp458
I1
aI40
asg140
Nsg141
g456
sg142
(lp459
sg144
g57
sg145
Nsg146
Nsg147
Nsbag3
(g4
g5
NtRp460
(dp461
g8
g10
sg125
Nsg126
(dp462
sg128
Nsg25
g27
sg129
(lp463
I1
aI41
asg131
Nsg132
VEichah Rabbah 1:41
p464
sg134
(lp465
sg136
g90
sg137
Nsg138
(lp466
I1
aI41
asg140
Nsg141
g464
sg142
(lp467
sg144
g57
sg145
Nsg146
Nsg147
Nsbag3
(g4
g5
NtRp468
(dp469
g8
g10
sg125
Nsg126
(dp470
sg128
Nsg25
g27
sg129
(lp471
I1
aI42
asg131
Nsg132
VEichah Rabbah 1:42
p472
sg134
(lp473
sg136
g90
sg137
Nsg138
(lp474
I1
aI42
asg140
Nsg141
g472
sg142
(lp475
sg144
g57
sg145
Nsg146
Nsg147
Nsbag3
(g4
g5
NtRp476
(dp477
g8
g10
sg125
Nsg126
(dp478
sg128
Nsg25
g27
sg129
(lp479
I1
aI43
asg131
Nsg132
VEichah Rabbah 1:43
p480
sg134
(lp481
sg136
g90
sg137
Nsg138
(lp482
I1
aI43
asg140
Nsg141
g480
sg142
(lp483
sg144
g57
sg145
Nsg146
Nsg147
Nsbag3
(g4
g5
NtRp484
(dp485
g8
g10
sg125
Nsg126
(dp486
sg128
Nsg25
g27
sg129
(lp487
I1
aI44
asg131
Nsg132
VEichah Rabbah 1:44
p488
sg134
(lp489
sg136
g90
sg137
Nsg138
(lp490
I1
aI44
asg140
Nsg141
g488
sg142
(lp491
sg144
g57
sg145
Nsg146
Nsg147
Nsbag3
(g4
g5
NtRp492
(dp493
g8
g10
sg125
Nsg126
(dp494
sg128
Nsg25
g27
sg129
(lp495
I1
aI45
asg131
Nsg132
VEichah Rabbah 1:45
p496
sg134
(lp497
sg136
g90
sg137
Nsg138
(lp498
I1
aI45
asg140
Nsg141
g496
sg142
(lp499
sg144
g57
sg145
Nsg146
Nsg147
Nsbag3
(g4
g5
NtRp500
(dp501
g8
g10
sg125
Nsg126
(dp502
sg128
Nsg25
g27
sg129
(lp503
I1
aI46
asg131
Nsg132
VEichah Rabbah 1:46
p504
sg134
(lp505
sg136
g90
sg137
Nsg138
(lp506
I1
aI46
asg140
Nsg141
g504
sg142
(lp507
sg144
g57
sg145
Nsg146
Nsg147
Nsbag3
(g4
g5
NtRp508
(dp509
g8
g10
sg125
Nsg126
(dp510
sg128
Nsg25
g27
sg129
(lp511
I1
aI47
asg131
Nsg132
VEichah Rabbah 1:47
p512
sg134
(lp513
sg136
g90
sg137
Nsg138
(lp514
I1
aI47
asg140
Nsg141
g512
sg142
(lp515
sg144
g57
sg145
Nsg146
Nsg147
Nsbag3
(g4
g5
NtRp516
(dp517
g8
g10
sg125
Nsg126
(dp518
sg128
Nsg25
g27
sg129
(lp519
I1
aI48
asg131
Nsg132
VEichah Rabbah 1:48
p520
sg134
(lp521
sg136
g90
sg137
Nsg138
(lp522
I1
aI48
asg140
Nsg141
g520
sg142
(lp523
sg144
g57
sg145
Nsg146
Nsg147
Nsbag3
(g4
g5
NtRp524
(dp525
g8
g10
sg125
Nsg126
(dp526
sg128
Nsg25
g27
sg129
(lp527
I1
aI49
asg131
Nsg132
VEichah Rabbah 1:49
p528
sg134
(lp529
sg136
g90
sg137
Nsg138
(lp530
I1
aI49
asg140
Nsg141
g528
sg142
(lp531
sg144
g57
sg145
Nsg146
Nsg147
Nsbag3
(g4
g5
NtRp532
(dp533
g8
g10
sg125
Nsg126
(dp534
sg128
Nsg25
g27
sg129
(lp535
I1
aI50
asg131
Nsg132
VEichah Rabbah 1:50
p536
sg134
(lp537
sg136
g90
sg137
Nsg138
(lp538
I1
aI50
asg140
Nsg141
g536
sg142
(lp539
sg144
g57
sg145
Nsg146
Nsg147
Nsbag3
(g4
g5
NtRp540
(dp541
g8
g10
sg125
Nsg126
(dp542
sg128
Nsg25
g27
sg129
(lp543
I1
aI51
asg131
Nsg132
VEichah Rabbah 1:51
p544
sg134
(lp545
sg136
g90
sg137
Nsg138
(lp546
I1
aI51
asg140
Nsg141
g544
sg142
(lp547
sg144
g57
sg145
Nsg146
Nsg147
Nsbag3
(g4
g5
NtRp548
(dp549
g8
g10
sg125
Nsg126
(dp550
sg128
Nsg25
g27
sg129
(lp551
I1
aI52
asg131
Nsg132
VEichah Rabbah 1:52
p552
sg134
(lp553
sg136
g90
sg137
Nsg138
(lp554
I1
aI52
asg140
Nsg141
g552
sg142
(lp555
sg144
g57
sg145
Nsg146
Nsg147
Nsbag3
(g4
g5
NtRp556
(dp557
g8
g10
sg125
Nsg126
(dp558
sg128
Nsg25
g27
sg129
(lp559
I1
aI53
asg131
Nsg132
VEichah Rabbah 1:53
p560
sg134
(lp561
sg136
g90
sg137
Nsg138
(lp562
I1
aI53
asg140
Nsg141
g560
sg142
(lp563
sg144
g57
sg145
Nsg146
Nsg147
Nsbag3
(g4
g5
NtRp564
(dp565
g8
g10
sg125
Nsg126
(dp566
sg128
Nsg25
g27
sg129
(lp567
I1
aI54
asg131
Nsg132
VEichah Rabbah 1:54
p568
sg134
(lp569
sg136
g90
sg137
Nsg138
(lp570
I1
aI54
asg140
Nsg141
g568
sg142
(lp571
sg144
g57
sg145
Nsg146
Nsg147
Nsbag3
(g4
g5
NtRp572
(dp573
g8
g10
sg125
Nsg126
(dp574
sg128
Nsg25
g27
sg129
(lp575
I1
aI55
asg131
Nsg132
VEichah Rabbah 1:55
p576
sg134
(lp577
sg136
g90
sg137
Nsg138
(lp578
I1
aI55
asg140
Nsg141
g576
sg142
(lp579
sg144
g57
sg145
Nsg146
Nsg147
Nsbag3
(g4
g5
NtRp580
(dp581
g8
g10
sg125
Nsg126
(dp582
sg128
Nsg25
g27
sg129
(lp583
I1
aI56
asg131
Nsg132
VEichah Rabbah 1:56
p584
sg134
(lp585
sg136
g90
sg137
Nsg138
(lp586
I1
aI56
asg140
Nsg141
g584
sg142
(lp587
sg144
g57
sg145
Nsg146
Nsg147
Nsbag3
(g4
g5
NtRp588
(dp589
g8
g10
sg125
Nsg126
(dp590
sg128
Nsg25
g27
sg129
(lp591
I1
aI57
asg131
Nsg132
VEichah Rabbah 1:57
p592
sg134
(lp593
sg136
g90
sg137
Nsg138
(lp594
I1
aI57
asg140
Nsg141
g592
sg142
(lp595
sg144
g57
sg145
Nsg146
Nsg147
Nsbag3
(g4
g5
NtRp596
(dp597
g8
g10
sg125
Nsg126
(dp598
sg128
Nsg25
g27
sg129
(lp599
I2
aI1
asg131
Nsg132
VEichah Rabbah 2:1
p600
sg134
(lp601
sg136
g90
sg137
Nsg138
(lp602
I2
aI1
asg140
Nsg141
g600
sg142
(lp603
sg144
g57
sg145
Nsg146
Nsg147
Nsbag3
(g4
g5
NtRp604
(dp605
g8
g10
sg125
Nsg126
(dp606
sg128
Nsg25
g27
sg129
(lp607
I2
aI2
asg131
Nsg132
VEichah Rabbah 2:2
p608
sg134
(lp609
sg136
g90
sg137
Nsg138
(lp610
I2
aI2
asg140
Nsg141
g608
sg142
(lp611
sg144
g57
sg145
Nsg146
Nsg147
Nsbag3
(g4
g5
NtRp612
(dp613
g8
g10
sg125
Nsg126
(dp614
sg128
Nsg25
g27
sg129
(lp615
I2
aI3
asg131
Nsg132
VEichah Rabbah 2:3
p616
sg134
(lp617
sg136
g90
sg137
Nsg138
(lp618
I2
aI3
asg140
Nsg141
g616
sg142
(lp619
sg144
g57
sg145
Nsg146
Nsg147
Nsbag3
(g4
g5
NtRp620
(dp621
g8
g10
sg125
Nsg126
(dp622
sg128
Nsg25
g27
sg129
(lp623
I2
aI4
asg131
Nsg132
VEichah Rabbah 2:4
p624
sg134
(lp625
sg136
g90
sg137
Nsg138
(lp626
I2
aI4
asg140
Nsg141
g624
sg142
(lp627
sg144
g57
sg145
Nsg146
Nsg147
Nsbag3
(g4
g5
NtRp628
(dp629
g8
g10
sg125
Nsg126
(dp630
sg128
Nsg25
g27
sg129
(lp631
I2
aI5
asg131
Nsg132
VEichah Rabbah 2:5
p632
sg134
(lp633
sg136
g90
sg137
Nsg138
(lp634
I2
aI5
asg140
Nsg141
g632
sg142
(lp635
sg144
g57
sg145
Nsg146
Nsg147
Nsbag3
(g4
g5
NtRp636
(dp637
g8
g10
sg125
Nsg126
(dp638
sg128
Nsg25
g27
sg129
(lp639
I2
aI6
asg131
Nsg132
VEichah Rabbah 2:6
p640
sg134
(lp641
sg136
g90
sg137
Nsg138
(lp642
I2
aI6
asg140
Nsg141
g640
sg142
(lp643
sg144
g57
sg145
Nsg146
Nsg147
Nsbag3
(g4
g5
NtRp644
(dp645
g8
g10
sg125
Nsg126
(dp646
sg128
Nsg25
g27
sg129
(lp647
I2
aI7
asg131
Nsg132
VEichah Rabbah 2:7
p648
sg134
(lp649
sg136
g90
sg137
Nsg138
(lp650
I2
aI7
asg140
Nsg141
g648
sg142
(lp651
sg144
g57
sg145
Nsg146
Nsg147
Nsbag3
(g4
g5
NtRp652
(dp653
g8
g10
sg125
Nsg126
(dp654
sg128
Nsg25
g27
sg129
(lp655
I2
aI8
asg131
Nsg132
VEichah Rabbah 2:8
p656
sg134
(lp657
sg136
g90
sg137
Nsg138
(lp658
I2
aI8
asg140
Nsg141
g656
sg142
(lp659
sg144
g57
sg145
Nsg146
Nsg147
Nsbag3
(g4
g5
NtRp660
(dp661
g8
g10
sg125
Nsg126
(dp662
sg128
Nsg25
g27
sg129
(lp663
I2
aI9
asg131
Nsg132
VEichah Rabbah 2:9
p664
sg134
(lp665
sg136
g90
sg137
Nsg138
(lp666
I2
aI9
asg140
Nsg141
g664
sg142
(lp667
sg144
g57
sg145
Nsg146
Nsg147
Nsbag3
(g4
g5
NtRp668
(dp669
g8
g10
sg125
Nsg126
(dp670
sg128
Nsg25
g27
sg129
(lp671
I2
aI10
asg131
Nsg132
VEichah Rabbah 2:10
p672
sg134
(lp673
sg136
g90
sg137
Nsg138
(lp674
I2
aI10
asg140
Nsg141
g672
sg142
(lp675
sg144
g57
sg145
Nsg146
Nsg147
Nsbag3
(g4
g5
NtRp676
(dp677
g8
g10
sg125
Nsg126
(dp678
sg128
Nsg25
g27
sg129
(lp679
I2
aI11
asg131
Nsg132
VEichah Rabbah 2:11
p680
sg134
(lp681
sg136
g90
sg137
Nsg138
(lp682
I2
aI11
asg140
Nsg141
g680
sg142
(lp683
sg144
g57
sg145
Nsg146
Nsg147
Nsbag3
(g4
g5
NtRp684
(dp685
g8
g10
sg125
Nsg126
(dp686
sg128
Nsg25
g27
sg129
(lp687
I2
aI12
asg131
Nsg132
VEichah Rabbah 2:12
p688
sg134
(lp689
sg136
g90
sg137
Nsg138
(lp690
I2
aI12
asg140
Nsg141
g688
sg142
(lp691
sg144
g57
sg145
Nsg146
Nsg147
Nsbag3
(g4
g5
NtRp692
(dp693
g8
g10
sg125
Nsg126
(dp694
sg128
Nsg25
g27
sg129
(lp695
I2
aI13
asg131
Nsg132
VEichah Rabbah 2:13
p696
sg134
(lp697
sg136
g90
sg137
Nsg138
(lp698
I2
aI13
asg140
Nsg141
g696
sg142
(lp699
sg144
g57
sg145
Nsg146
Nsg147
Nsbag3
(g4
g5
NtRp700
(dp701
g8
g10
sg125
Nsg126
(dp702
sg128
Nsg25
g27
sg129
(lp703
I2
aI14
asg131
Nsg132
VEichah Rabbah 2:14
p704
sg134
(lp705
sg136
g90
sg137
Nsg138
(lp706
I2
aI14
asg140
Nsg141
g704
sg142
(lp707
sg144
g57
sg145
Nsg146
Nsg147
Nsbag3
(g4
g5
NtRp708
(dp709
g8
g10
sg125
Nsg126
(dp710
sg128
Nsg25
g27
sg129
(lp711
I2
aI15
asg131
Nsg132
VEichah Rabbah 2:15
p712
sg134
(lp713
sg136
g90
sg137
Nsg138
(lp714
I2
aI15
asg140
Nsg141
g712
sg142
(lp715
sg144
g57
sg145
Nsg146
Nsg147
Nsbag3
(g4
g5
NtRp716
(dp717
g8
g10
sg125
Nsg126
(dp718
sg128
Nsg25
g27
sg129
(lp719
I2
aI16
asg131
Nsg132
VEichah Rabbah 2:16
p720
sg134
(lp721
sg136
g90
sg137
Nsg138
(lp722
I2
aI16
asg140
Nsg141
g720
sg142
(lp723
sg144
g57
sg145
Nsg146
Nsg147
Nsbag3
(g4
g5
NtRp724
(dp725
g8
g10
sg125
Nsg126
(dp726
sg128
Nsg25
g27
sg129
(lp727
I2
aI17
asg131
Nsg132
VEichah Rabbah 2:17
p728
sg134
(lp729
sg136
g90
sg137
Nsg138
(lp730
I2
aI17
asg140
Nsg141
g728
sg142
(lp731
sg144
g57
sg145
Nsg146
Nsg147
Nsbag3
(g4
g5
NtRp732
(dp733
g8
g10
sg125
Nsg126
(dp734
sg128
Nsg25
g27
sg129
(lp735
I2
aI18
asg131
Nsg132
VEichah Rabbah 2:18
p736
sg134
(lp737
sg136
g90
sg137
Nsg138
(lp738
I2
aI18
asg140
Nsg141
g736
sg142
(lp739
sg144
g57
sg145
Nsg146
Nsg147
Nsbag3
(g4
g5
NtRp740
(dp741
g8
g10
sg125
Nsg126
(dp742
sg128
Nsg25
g27
sg129
(lp743
I2
aI19
asg131
Nsg132
VEichah Rabbah 2:19
p744
sg134
(lp745
sg136
g90
sg137
Nsg138
(lp746
I2
aI19
asg140
Nsg141
g744
sg142
(lp747
sg144
g57
sg145
Nsg146
Nsg147
Nsbag3
(g4
g5
NtRp748
(dp749
g8
g10
sg125
Nsg126
(dp750
sg128
Nsg25
g27
sg129
(lp751
I2
aI20
asg131
Nsg132
VEichah Rabbah 2:20
p752
sg134
(lp753
sg136
g90
sg137
Nsg138
(lp754
I2
aI20
asg140
Nsg141
g752
sg142
(lp755
sg144
g57
sg145
Nsg146
Nsg147
Nsbag3
(g4
g5
NtRp756
(dp757
g8
g10
sg125
Nsg126
(dp758
sg128
Nsg25
g27
sg129
(lp759
I2
aI21
asg131
Nsg132
VEichah Rabbah 2:21
p760
sg134
(lp761
sg136
g90
sg137
Nsg138
(lp762
I2
aI21
asg140
Nsg141
g760
sg142
(lp763
sg144
g57
sg145
Nsg146
Nsg147
Nsbag3
(g4
g5
NtRp764
(dp765
g8
g10
sg125
Nsg126
(dp766
sg128
Nsg25
g27
sg129
(lp767
I2
aI22
asg131
Nsg132
VEichah Rabbah 2:22
p768
sg134
(lp769
sg136
g90
sg137
Nsg138
(lp770
I2
aI22
asg140
Nsg141
g768
sg142
(lp771
sg144
g57
sg145
Nsg146
Nsg147
Nsbag3
(g4
g5
NtRp772
(dp773
g8
g10
sg125
Nsg126
(dp774
sg128
Nsg25
g27
sg129
(lp775
I2
aI23
asg131
Nsg132
VEichah Rabbah 2:23
p776
sg134
(lp777
sg136
g90
sg137
Nsg138
(lp778
I2
aI23
asg140
Nsg141
g776
sg142
(lp779
sg144
g57
sg145
Nsg146
Nsg147
Nsbag3
(g4
g5
NtRp780
(dp781
g8
g10
sg125
Nsg126
(dp782
sg128
Nsg25
g27
sg129
(lp783
I3
aI1
asg131
Nsg132
VEichah Rabbah 3:1
p784
sg134
(lp785
sg136
g90
sg137
Nsg138
(lp786
I3
aI1
asg140
Nsg141
g784
sg142
(lp787
sg144
g57
sg145
Nsg146
Nsg147
Nsbag3
(g4
g5
NtRp788
(dp789
g8
g10
sg125
Nsg126
(dp790
sg128
Nsg25
g27
sg129
(lp791
I3
aI2
asg131
Nsg132
VEichah Rabbah 3:2
p792
sg134
(lp793
sg136
g90
sg137
Nsg138
(lp794
I3
aI2
asg140
Nsg141
g792
sg142
(lp795
sg144
g57
sg145
Nsg146
Nsg147
Nsbag3
(g4
g5
NtRp796
(dp797
g8
g10
sg125
Nsg126
(dp798
sg128
Nsg25
g27
sg129
(lp799
I3
aI3
asg131
Nsg132
VEichah Rabbah 3:3
p800
sg134
(lp801
sg136
g90
sg137
Nsg138
(lp802
I3
aI3
asg140
Nsg141
g800
sg142
(lp803
sg144
g57
sg145
Nsg146
Nsg147
Nsbag3
(g4
g5
NtRp804
(dp805
g8
g10
sg125
Nsg126
(dp806
sg128
Nsg25
g27
sg129
(lp807
I3
aI4
asg131
Nsg132
VEichah Rabbah 3:4
p808
sg134
(lp809
sg136
g90
sg137
Nsg138
(lp810
I3
aI4
asg140
Nsg141
g808
sg142
(lp811
sg144
g57
sg145
Nsg146
Nsg147
Nsbag3
(g4
g5
NtRp812
(dp813
g8
g10
sg125
Nsg126
(dp814
sg128
Nsg25
g27
sg129
(lp815
I3
aI5
asg131
Nsg132
VEichah Rabbah 3:5
p816
sg134
(lp817
sg136
g90
sg137
Nsg138
(lp818
I3
aI5
asg140
Nsg141
g816
sg142
(lp819
sg144
g57
sg145
Nsg146
Nsg147
Nsbag3
(g4
g5
NtRp820
(dp821
g8
g10
sg125
Nsg126
(dp822
sg128
Nsg25
g27
sg129
(lp823
I3
aI6
asg131
Nsg132
VEichah Rabbah 3:6
p824
sg134
(lp825
sg136
g90
sg137
Nsg138
(lp826
I3
aI6
asg140
Nsg141
g824
sg142
(lp827
sg144
g57
sg145
Nsg146
Nsg147
Nsbag3
(g4
g5
NtRp828
(dp829
g8
g10
sg125
Nsg126
(dp830
sg128
Nsg25
g27
sg129
(lp831
I3
aI7
asg131
Nsg132
VEichah Rabbah 3:7
p832
sg134
(lp833
sg136
g90
sg137
Nsg138
(lp834
I3
aI7
asg140
Nsg141
g832
sg142
(lp835
sg144
g57
sg145
Nsg146
Nsg147
Nsbag3
(g4
g5
NtRp836
(dp837
g8
g10
sg125
Nsg126
(dp838
sg128
Nsg25
g27
sg129
(lp839
I3
aI8
asg131
Nsg132
VEichah Rabbah 3:8
p840
sg134
(lp841
sg136
g90
sg137
Nsg138
(lp842
I3
aI8
asg140
Nsg141
g840
sg142
(lp843
sg144
g57
sg145
Nsg146
Nsg147
Nsbag3
(g4
g5
NtRp844
(dp845
g8
g10
sg125
Nsg126
(dp846
sg128
Nsg25
g27
sg129
(lp847
I3
aI9
asg131
Nsg132
VEichah Rabbah 3:9
p848
sg134
(lp849
sg136
g90
sg137
Nsg138
(lp850
I3
aI9
asg140
Nsg141
g848
sg142
(lp851
sg144
g57
sg145
Nsg146
Nsg147
Nsbag3
(g4
g5
NtRp852
(dp853
g8
g10
sg125
Nsg126
(dp854
sg128
Nsg25
g27
sg129
(lp855
I3
aI10
asg131
Nsg132
VEichah Rabbah 3:10
p856
sg134
(lp857
sg136
g90
sg137
Nsg138
(lp858
I3
aI10
asg140
Nsg141
g856
sg142
(lp859
sg144
g57
sg145
Nsg146
Nsg147
Nsbag3
(g4
g5
NtRp860
(dp861
g8
g10
sg125
Nsg126
(dp862
sg128
Nsg25
g27
sg129
(lp863
I3
aI11
asg131
Nsg132
VEichah Rabbah 3:11
p864
sg134
(lp865
sg136
g90
sg137
Nsg138
(lp866
I3
aI11
asg140
Nsg141
g864
sg142
(lp867
sg144
g57
sg145
Nsg146
Nsg147
Nsbag3
(g4
g5
NtRp868
(dp869
g8
g10
sg125
Nsg126
(dp870
sg128
Nsg25
g27
sg129
(lp871
I3
aI12
asg131
Nsg132
VEichah Rabbah 3:12
p872
sg134
(lp873
sg136
g90
sg137
Nsg138
(lp874
I3
aI12
asg140
Nsg141
g872
sg142
(lp875
sg144
g57
sg145
Nsg146
Nsg147
Nsbag3
(g4
g5
NtRp876
(dp877
g8
g10
sg125
Nsg126
(dp878
sg128
Nsg25
g27
sg129
(lp879
I3
aI13
asg131
Nsg132
VEichah Rabbah 3:13
p880
sg134
(lp881
sg136
g90
sg137
Nsg138
(lp882
I3
aI13
asg140
Nsg141
g880
sg142
(lp883
sg144
g57
sg145
Nsg146
Nsg147
Nsbag3
(g4
g5
NtRp884
(dp885
g8
g10
sg125
Nsg126
(dp886
sg128
Nsg25
g27
sg129
(lp887
I3
aI14
asg131
Nsg132
VEichah Rabbah 3:14
p888
sg134
(lp889
sg136
g90
sg137
Nsg138
(lp890
I3
aI14
asg140
Nsg141
g888
sg142
(lp891
sg144
g57
sg145
Nsg146
Nsg147
Nsbag3
(g4
g5
NtRp892
(dp893
g8
g10
sg125
Nsg126
(dp894
sg128
Nsg25
g27
sg129
(lp895
I3
aI15
asg131
Nsg132
VEichah Rabbah 3:15
p896
sg134
(lp897
sg136
g90
sg137
Nsg138
(lp898
I3
aI15
asg140
Nsg141
g896
sg142
(lp899
sg144
g57
sg145
Nsg146
Nsg147
Nsbag3
(g4
g5
NtRp900
(dp901
g8
g10
sg125
Nsg126
(dp902
sg128
Nsg25
g27
sg129
(lp903
I3
aI16
asg131
Nsg132
VEichah Rabbah 3:16
p904
sg134
(lp905
sg136
g90
sg137
Nsg138
(lp906
I3
aI16
asg140
Nsg141
g904
sg142
(lp907
sg144
g57
sg145
Nsg146
Nsg147
Nsbag3
(g4
g5
NtRp908
(dp909
g8
g10
sg125
Nsg126
(dp910
sg128
Nsg25
g27
sg129
(lp911
I3
aI17
asg131
Nsg132
VEichah Rabbah 3:17
p912
sg134
(lp913
sg136
g90
sg137
Nsg138
(lp914
I3
aI17
asg140
Nsg141
g912
sg142
(lp915
sg144
g57
sg145
Nsg146
Nsg147
Nsbag3
(g4
g5
NtRp916
(dp917
g8
g10
sg125
Nsg126
(dp918
sg128
Nsg25
g27
sg129
(lp919
I3
aI18
asg131
Nsg132
VEichah Rabbah 3:18
p920
sg134
(lp921
sg136
g90
sg137
Nsg138
(lp922
I3
aI18
asg140
Nsg141
g920
sg142
(lp923
sg144
g57
sg145
Nsg146
Nsg147
Nsbag3
(g4
g5
NtRp924
(dp925
g8
g10
sg125
Nsg126
(dp926
sg128
Nsg25
g27
sg129
(lp927
I3
aI19
asg131
Nsg132
VEichah Rabbah 3:19
p928
sg134
(lp929
sg136
g90
sg137
Nsg138
(lp930
I3
aI19
asg140
Nsg141
g928
sg142
(lp931
sg144
g57
sg145
Nsg146
Nsg147
Nsbag3
(g4
g5
NtRp932
(dp933
g8
g10
sg125
Nsg126
(dp934
sg128
Nsg25
g27
sg129
(lp935
I3
aI20
asg131
Nsg132
VEichah Rabbah 3:20
p936
sg134
(lp937
sg136
g90
sg137
Nsg138
(lp938
I3
aI20
asg140
Nsg141
g936
sg142
(lp939
sg144
g57
sg145
Nsg146
Nsg147
Nsbag3
(g4
g5
NtRp940
(dp941
g8
g10
sg125
Nsg126
(dp942
sg128
Nsg25
g27
sg129
(lp943
I3
aI21
asg131
Nsg132
VEichah Rabbah 3:21
p944
sg134
(lp945
sg136
g90
sg137
Nsg138
(lp946
I3
aI21
asg140
Nsg141
g944
sg142
(lp947
sg144
g57
sg145
Nsg146
Nsg147
Nsbag3
(g4
g5
NtRp948
(dp949
g8
g10
sg125
Nsg126
(dp950
sg128
Nsg25
g27
sg129
(lp951
I3
aI22
asg131
Nsg132
VEichah Rabbah 3:22
p952
sg134
(lp953
sg136
g90
sg137
Nsg138
(lp954
I3
aI22
asg140
Nsg141
g952
sg142
(lp955
sg144
g57
sg145
Nsg146
Nsg147
Nsbag3
(g4
g5
NtRp956
(dp957
g8
g10
sg125
Nsg126
(dp958
sg128
Nsg25
g27
sg129
(lp959
I3
aI23
asg131
Nsg132
VEichah Rabbah 3:23
p960
sg134
(lp961
sg136
g90
sg137
Nsg138
(lp962
I3
aI23
asg140
Nsg141
g960
sg142
(lp963
sg144
g57
sg145
Nsg146
Nsg147
Nsbag3
(g4
g5
NtRp964
(dp965
g8
g10
sg125
Nsg126
(dp966
sg128
Nsg25
g27
sg129
(lp967
I4
aI1
asg131
Nsg132
VEichah Rabbah 4:1
p968
sg134
(lp969
sg136
g90
sg137
Nsg138
(lp970
I4
aI1
asg140
Nsg141
g968
sg142
(lp971
sg144
g57
sg145
Nsg146
Nsg147
Nsbag3
(g4
g5
NtRp972
(dp973
g8
g10
sg125
Nsg126
(dp974
sg128
Nsg25
g27
sg129
(lp975
I4
aI2
asg131
Nsg132
VEichah Rabbah 4:2
p976
sg134
(lp977
sg136
g90
sg137
Nsg138
(lp978
I4
aI2
asg140
Nsg141
g976
sg142
(lp979
sg144
g57
sg145
Nsg146
Nsg147
Nsbag3
(g4
g5
NtRp980
(dp981
g8
g10
sg125
Nsg126
(dp982
sg128
Nsg25
g27
sg129
(lp983
I4
aI3
asg131
Nsg132
VEichah Rabbah 4:3
p984
sg134
(lp985
sg136
g90
sg137
Nsg138
(lp986
I4
aI3
asg140
Nsg141
g984
sg142
(lp987
sg144
g57
sg145
Nsg146
Nsg147
Nsbag3
(g4
g5
NtRp988
(dp989
g8
g10
sg125
Nsg126
(dp990
sg128
Nsg25
g27
sg129
(lp991
I4
aI4
asg131
Nsg132
VEichah Rabbah 4:4
p992
sg134
(lp993
sg136
g90
sg137
Nsg138
(lp994
I4
aI4
asg140
Nsg141
g992
sg142
(lp995
sg144
g57
sg145
Nsg146
Nsg147
Nsbag3
(g4
g5
NtRp996
(dp997
g8
g10
sg125
Nsg126
(dp998
sg128
Nsg25
g27
sg129
(lp999
I4
aI5
asg131
Nsg132
VEichah Rabbah 4:5
p1000
sg134
(lp1001
sg136
g90
sg137
Nsg138
(lp1002
I4
aI5
asg140
Nsg141
g1000
sg142
(lp1003
sg144
g57
sg145
Nsg146
Nsg147
Nsbag3
(g4
g5
NtRp1004
(dp1005
g8
g10
sg125
Nsg126
(dp1006
sg128
Nsg25
g27
sg129
(lp1007
I4
aI6
asg131
Nsg132
VEichah Rabbah 4:6
p1008
sg134
(lp1009
sg136
g90
sg137
Nsg138
(lp1010
I4
aI6
asg140
Nsg141
g1008
sg142
(lp1011
sg144
g57
sg145
Nsg146
Nsg147
Nsbag3
(g4
g5
NtRp1012
(dp1013
g8
g10
sg125
Nsg126
(dp1014
sg128
Nsg25
g27
sg129
(lp1015
I4
aI7
asg131
Nsg132
VEichah Rabbah 4:7
p1016
sg134
(lp1017
sg136
g90
sg137
Nsg138
(lp1018
I4
aI7
asg140
Nsg141
g1016
sg142
(lp1019
sg144
g57
sg145
Nsg146
Nsg147
Nsbag3
(g4
g5
NtRp1020
(dp1021
g8
g10
sg125
Nsg126
(dp1022
sg128
Nsg25
g27
sg129
(lp1023
I4
aI8
asg131
Nsg132
VEichah Rabbah 4:8
p1024
sg134
(lp1025
sg136
g90
sg137
Nsg138
(lp1026
I4
aI8
asg140
Nsg141
g1024
sg142
(lp1027
sg144
g57
sg145
Nsg146
Nsg147
Nsbag3
(g4
g5
NtRp1028
(dp1029
g8
g10
sg125
Nsg126
(dp1030
sg128
Nsg25
g27
sg129
(lp1031
I4
aI9
asg131
Nsg132
VEichah Rabbah 4:9
p1032
sg134
(lp1033
sg136
g90
sg137
Nsg138
(lp1034
I4
aI9
asg140
Nsg141
g1032
sg142
(lp1035
sg144
g57
sg145
Nsg146
Nsg147
Nsbag3
(g4
g5
NtRp1036
(dp1037
g8
g10
sg125
Nsg126
(dp1038
sg128
Nsg25
g27
sg129
(lp1039
I4
aI10
asg131
Nsg132
VEichah Rabbah 4:10
p1040
sg134
(lp1041
sg136
g90
sg137
Nsg138
(lp1042
I4
aI10
asg140
Nsg141
g1040
sg142
(lp1043
sg144
g57
sg145
Nsg146
Nsg147
Nsbag3
(g4
g5
NtRp1044
(dp1045
g8
g10
sg125
Nsg126
(dp1046
sg128
Nsg25
g27
sg129
(lp1047
I4
aI11
asg131
Nsg132
VEichah Rabbah 4:11
p1048
sg134
(lp1049
sg136
g90
sg137
Nsg138
(lp1050
I4
aI11
asg140
Nsg141
g1048
sg142
(lp1051
sg144
g57
sg145
Nsg146
Nsg147
Nsbag3
(g4
g5
NtRp1052
(dp1053
g8
g10
sg125
Nsg126
(dp1054
sg128
Nsg25
g27
sg129
(lp1055
I4
aI12
asg131
Nsg132
VEichah Rabbah 4:12
p1056
sg134
(lp1057
sg136
g90
sg137
Nsg138
(lp1058
I4
aI12
asg140
Nsg141
g1056
sg142
(lp1059
sg144
g57
sg145
Nsg146
Nsg147
Nsbag3
(g4
g5
NtRp1060
(dp1061
g8
g10
sg125
Nsg126
(dp1062
sg128
Nsg25
g27
sg129
(lp1063
I4
aI13
asg131
Nsg132
VEichah Rabbah 4:13
p1064
sg134
(lp1065
sg136
g90
sg137
Nsg138
(lp1066
I4
aI13
asg140
Nsg141
g1064
sg142
(lp1067
sg144
g57
sg145
Nsg146
Nsg147
Nsbag3
(g4
g5
NtRp1068
(dp1069
g8
g10
sg125
Nsg126
(dp1070
sg128
Nsg25
g27
sg129
(lp1071
I4
aI14
asg131
Nsg132
VEichah Rabbah 4:14
p1072
sg134
(lp1073
sg136
g90
sg137
Nsg138
(lp1074
I4
aI14
asg140
Nsg141
g1072
sg142
(lp1075
sg144
g57
sg145
Nsg146
Nsg147
Nsbag3
(g4
g5
NtRp1076
(dp1077
g8
g10
sg125
Nsg126
(dp1078
sg128
Nsg25
g27
sg129
(lp1079
I4
aI15
asg131
Nsg132
VEichah Rabbah 4:15
p1080
sg134
(lp1081
sg136
g90
sg137
Nsg138
(lp1082
I4
aI15
asg140
Nsg141
g1080
sg142
(lp1083
sg144
g57
sg145
Nsg146
Nsg147
Nsbag3
(g4
g5
NtRp1084
(dp1085
g8
g10
sg125
Nsg126
(dp1086
sg128
Nsg25
g27
sg129
(lp1087
I4
aI16
asg131
Nsg132
VEichah Rabbah 4:16
p1088
sg134
(lp1089
sg136
g90
sg137
Nsg138
(lp1090
I4
aI16
asg140
Nsg141
g1088
sg142
(lp1091
sg144
g57
sg145
Nsg146
Nsg147
Nsbag3
(g4
g5
NtRp1092
(dp1093
g8
g10
sg125
Nsg126
(dp1094
sg128
Nsg25
g27
sg129
(lp1095
I4
aI17
asg131
Nsg132
VEichah Rabbah 4:17
p1096
sg134
(lp1097
sg136
g90
sg137
Nsg138
(lp1098
I4
aI17
asg140
Nsg141
g1096
sg142
(lp1099
sg144
g57
sg145
Nsg146
Nsg147
Nsbag3
(g4
g5
NtRp1100
(dp1101
g8
g10
sg125
Nsg126
(dp1102
sg128
Nsg25
g27
sg129
(lp1103
I4
aI18
asg131
Nsg132
VEichah Rabbah 4:18
p1104
sg134
(lp1105
sg136
g90
sg137
Nsg138
(lp1106
I4
aI18
asg140
Nsg141
g1104
sg142
(lp1107
sg144
g57
sg145
Nsg146
Nsg147
Nsbag3
(g4
g5
NtRp1108
(dp1109
g8
g10
sg125
Nsg126
(dp1110
sg128
Nsg25
g27
sg129
(lp1111
I4
aI19
asg131
Nsg132
VEichah Rabbah 4:19
p1112
sg134
(lp1113
sg136
g90
sg137
Nsg138
(lp1114
I4
aI19
asg140
Nsg141
g1112
sg142
(lp1115
sg144
g57
sg145
Nsg146
Nsg147
Nsbag3
(g4
g5
NtRp1116
(dp1117
g8
g10
sg125
Nsg126
(dp1118
sg128
Nsg25
g27
sg129
(lp1119
I4
aI20
asg131
Nsg132
VEichah Rabbah 4:20
p1120
sg134
(lp1121
sg136
g90
sg137
Nsg138
(lp1122
I4
aI20
asg140
Nsg141
g1120
sg142
(lp1123
sg144
g57
sg145
Nsg146
Nsg147
Nsbag3
(g4
g5
NtRp1124
(dp1125
g8
g10
sg125
Nsg126
(dp1126
sg128
Nsg25
g27
sg129
(lp1127
I4
aI21
asg131
Nsg132
VEichah Rabbah 4:21
p1128
sg134
(lp1129
sg136
g90
sg137
Nsg138
(lp1130
I4
aI21
asg140
Nsg141
g1128
sg142
(lp1131
sg144
g57
sg145
Nsg146
Nsg147
Nsbag3
(g4
g5
NtRp1132
(dp1133
g8
g10
sg125
Nsg126
(dp1134
sg128
Nsg25
g27
sg129
(lp1135
I4
aI22
asg131
Nsg132
VEichah Rabbah 4:22
p1136
sg134
(lp1137
sg136
g90
sg137
Nsg138
(lp1138
I4
aI22
asg140
Nsg141
g1136
sg142
(lp1139
sg144
g57
sg145
Nsg146
Nsg147
Nsbag3
(g4
g5
NtRp1140
(dp1141
g8
g10
sg125
Nsg126
(dp1142
sg128
Nsg25
g27
sg129
(lp1143
I4
aI23
asg131
Nsg132
VEichah Rabbah 4:23
p1144
sg134
(lp1145
sg136
g90
sg137
Nsg138
(lp1146
I4
aI23
asg140
Nsg141
g1144
sg142
(lp1147
sg144
g57
sg145
Nsg146
Nsg147
Nsbag3
(g4
g5
NtRp1148
(dp1149
g8
g10
sg125
Nsg126
(dp1150
sg128
Nsg25
g27
sg129
(lp1151
I4
aI24
asg131
Nsg132
VEichah Rabbah 4:24
p1152
sg134
(lp1153
sg136
g90
sg137
Nsg138
(lp1154
I4
aI24
asg140
Nsg141
g1152
sg142
(lp1155
sg144
g57
sg145
Nsg146
Nsg147
Nsbag3
(g4
g5
NtRp1156
(dp1157
g8
g10
sg125
Nsg126
(dp1158
sg128
Nsg25
g27
sg129
(lp1159
I4
aI25
asg131
Nsg132
VEichah Rabbah 4:25
p1160
sg134
(lp1161
sg136
g90
sg137
Nsg138
(lp1162
I4
aI25
asg140
Nsg141
g1160
sg142
(lp1163
sg144
g57
sg145
Nsg146
Nsg147
Nsbag3
(g4
g5
NtRp1164
(dp1165
g8
g10
sg125
Nsg126
(dp1166
sg128
Nsg25
g27
sg129
(lp1167
I5
aI1
asg131
Nsg132
VEichah Rabbah 5:1
p1168
sg134
(lp1169
sg136
g90
sg137
Nsg138
(lp1170
I5
aI1
asg140
Nsg141
g1168
sg142
(lp1171
sg144
g57
sg145
Nsg146
Nsg147
Nsbag3
(g4
g5
NtRp1172
(dp1173
g8
g10
sg125
Nsg126
(dp1174
sg128
Nsg25
g27
sg129
(lp1175
I5
aI2
asg131
Nsg132
VEichah Rabbah 5:2
p1176
sg134
(lp1177
sg136
g90
sg137
Nsg138
(lp1178
I5
aI2
asg140
Nsg141
g1176
sg142
(lp1179
sg144
g57
sg145
Nsg146
Nsg147
Nsbag3
(g4
g5
NtRp1180
(dp1181
g8
g10
sg125
Nsg126
(dp1182
sg128
Nsg25
g27
sg129
(lp1183
I5
aI3
asg131
Nsg132
VEichah Rabbah 5:3
p1184
sg134
(lp1185
sg136
g90
sg137
Nsg138
(lp1186
I5
aI3
asg140
Nsg141
g1184
sg142
(lp1187
sg144
g57
sg145
Nsg146
Nsg147
Nsbag3
(g4
g5
NtRp1188
(dp1189
g8
g10
sg125
Nsg126
(dp1190
sg128
Nsg25
g27
sg129
(lp1191
I5
aI4
asg131
Nsg132
VEichah Rabbah 5:4
p1192
sg134
(lp1193
sg136
g90
sg137
Nsg138
(lp1194
I5
aI4
asg140
Nsg141
g1192
sg142
(lp1195
sg144
g57
sg145
Nsg146
Nsg147
Nsbag3
(g4
g5
NtRp1196
(dp1197
g8
g10
sg125
Nsg126
(dp1198
sg128
Nsg25
g27
sg129
(lp1199
I5
aI5
asg131
Nsg132
VEichah Rabbah 5:5
p1200
sg134
(lp1201
sg136
g90
sg137
Nsg138
(lp1202
I5
aI5
asg140
Nsg141
g1200
sg142
(lp1203
sg144
g57
sg145
Nsg146
Nsg147
Nsbag3
(g4
g5
NtRp1204
(dp1205
g8
g10
sg125
Nsg126
(dp1206
sg128
Nsg25
g27
sg129
(lp1207
I5
aI6
asg131
Nsg132
VEichah Rabbah 5:6
p1208
sg134
(lp1209
sg136
g90
sg137
Nsg138
(lp1210
I5
aI6
asg140
Nsg141
g1208
sg142
(lp1211
sg144
g57
sg145
Nsg146
Nsg147
Nsbag3
(g4
g5
NtRp1212
(dp1213
g8
g10
sg125
Nsg126
(dp1214
sg128
Nsg25
g27
sg129
(lp1215
I5
aI7
asg131
Nsg132
VEichah Rabbah 5:7
p1216
sg134
(lp1217
sg136
g90
sg137
Nsg138
(lp1218
I5
aI7
asg140
Nsg141
g1216
sg142
(lp1219
sg144
g57
sg145
Nsg146
Nsg147
Nsbag3
(g4
g5
NtRp1220
(dp1221
g8
g10
sg125
Nsg126
(dp1222
sg128
Nsg25
g27
sg129
(lp1223
I5
aI8
asg131
Nsg132
VEichah Rabbah 5:8
p1224
sg134
(lp1225
sg136
g90
sg137
Nsg138
(lp1226
I5
aI8
asg140
Nsg141
g1224
sg142
(lp1227
sg144
g57
sg145
Nsg146
Nsg147
Nsbag3
(g4
g5
NtRp1228
(dp1229
g8
g10
sg125
Nsg126
(dp1230
sg128
Nsg25
g27
sg129
(lp1231
I5
aI9
asg131
Nsg132
VEichah Rabbah 5:9
p1232
sg134
(lp1233
sg136
g90
sg137
Nsg138
(lp1234
I5
aI9
asg140
Nsg141
g1232
sg142
(lp1235
sg144
g57
sg145
Nsg146
Nsg147
Nsbag3
(g4
g5
NtRp1236
(dp1237
g8
g10
sg125
Nsg126
(dp1238
sg128
Nsg25
g27
sg129
(lp1239
I5
aI10
asg131
Nsg132
VEichah Rabbah 5:10
p1240
sg134
(lp1241
sg136
g90
sg137
Nsg138
(lp1242
I5
aI10
asg140
Nsg141
g1240
sg142
(lp1243
sg144
g57
sg145
Nsg146
Nsg147
Nsbag3
(g4
g5
NtRp1244
(dp1245
g8
g10
sg125
Nsg126
(dp1246
sg128
Nsg25
g27
sg129
(lp1247
I5
aI11
asg131
Nsg132
VEichah Rabbah 5:11
p1248
sg134
(lp1249
sg136
g90
sg137
Nsg138
(lp1250
I5
aI11
asg140
Nsg141
g1248
sg142
(lp1251
sg144
g57
sg145
Nsg146
Nsg147
Nsbag3
(g4
g5
NtRp1252
(dp1253
g8
g10
sg125
Nsg126
(dp1254
sg128
Nsg25
g27
sg129
(lp1255
I5
aI12
asg131
Nsg132
VEichah Rabbah 5:12
p1256
sg134
(lp1257
sg136
g90
sg137
Nsg138
(lp1258
I5
aI12
asg140
Nsg141
g1256
sg142
(lp1259
sg144
g57
sg145
Nsg146
Nsg147
Nsbag3
(g4
g5
NtRp1260
(dp1261
g8
g10
sg125
Nsg126
(dp1262
sg128
Nsg25
g27
sg129
(lp1263
I5
aI13
asg131
Nsg132
VEichah Rabbah 5:13
p1264
sg134
(lp1265
sg136
g90
sg137
Nsg138
(lp1266
I5
aI13
asg140
Nsg141
g1264
sg142
(lp1267
sg144
g57
sg145
Nsg146
Nsg147
Nsbag3
(g4
g5
NtRp1268
(dp1269
g8
g10
sg125
Nsg126
(dp1270
sg128
Nsg25
g27
sg129
(lp1271
I5
aI14
asg131
Nsg132
VEichah Rabbah 5:14
p1272
sg134
(lp1273
sg136
g90
sg137
Nsg138
(lp1274
I5
aI14
asg140
Nsg141
g1272
sg142
(lp1275
sg144
g57
sg145
Nsg146
Nsg147
Nsbag3
(g4
g5
NtRp1276
(dp1277
g8
g10
sg125
Nsg126
(dp1278
sg128
Nsg25
g27
sg129
(lp1279
I5
aI15
asg131
Nsg132
VEichah Rabbah 5:15
p1280
sg134
(lp1281
sg136
g90
sg137
Nsg138
(lp1282
I5
aI15
asg140
Nsg141
g1280
sg142
(lp1283
sg144
g57
sg145
Nsg146
Nsg147
Nsbag3
(g4
g5
NtRp1284
(dp1285
g8
g10
sg125
Nsg126
(dp1286
sg128
Nsg25
g27
sg129
(lp1287
I5
aI16
asg131
Nsg132
VEichah Rabbah 5:16
p1288
sg134
(lp1289
sg136
g90
sg137
Nsg138
(lp1290
I5
aI16
asg140
Nsg141
g1288
sg142
(lp1291
sg144
g57
sg145
Nsg146
Nsg147
Nsbag3
(g4
g5
NtRp1292
(dp1293
g8
g10
sg125
Nsg126
(dp1294
sg128
Nsg25
g27
sg129
(lp1295
I5
aI17
asg131
Nsg132
VEichah Rabbah 5:17
p1296
sg134
(lp1297
sg136
g90
sg137
Nsg138
(lp1298
I5
aI17
asg140
Nsg141
g1296
sg142
(lp1299
sg144
g57
sg145
Nsg146
Nsg147
Nsbag3
(g4
g5
NtRp1300
(dp1301
g8
g10
sg125
Nsg126
(dp1302
sg128
Nsg25
g27
sg129
(lp1303
I5
aI18
asg131
Nsg132
VEichah Rabbah 5:18
p1304
sg134
(lp1305
sg136
g90
sg137
Nsg138
(lp1306
I5
aI18
asg140
Nsg141
g1304
sg142
(lp1307
sg144
g57
sg145
Nsg146
Nsg147
Nsbag3
(g4
g5
NtRp1308
(dp1309
g8
g10
sg125
Nsg126
(dp1310
sg128
Nsg25
g27
sg129
(lp1311
I5
aI19
asg131
Nsg132
VEichah Rabbah 5:19
p1312
sg134
(lp1313
sg136
g90
sg137
Nsg138
(lp1314
I5
aI19
asg140
Nsg141
g1312
sg142
(lp1315
sg144
g57
sg145
Nsg146
Nsg147
Nsbag3
(g4
g5
NtRp1316
(dp1317
g8
g10
sg125
Nsg126
(dp1318
sg128
Nsg25
g27
sg129
(lp1319
I5
aI20
asg131
Nsg132
VEichah Rabbah 5:20
p1320
sg134
(lp1321
sg136
g90
sg137
Nsg138
(lp1322
I5
aI20
asg140
Nsg141
g1320
sg142
(lp1323
sg144
g57
sg145
Nsg146
Nsg147
Nsbag3
(g4
g5
NtRp1324
(dp1325
g8
g10
sg125
Nsg126
(dp1326
sg128
Nsg25
g27
sg129
(lp1327
I5
aI21
asg131
Nsg132
VEichah Rabbah 5:21
p1328
sg134
(lp1329
sg136
g90
sg137
Nsg138
(lp1330
I5
aI21
asg140
Nsg141
g1328
sg142
(lp1331
sg144
g57
sg145
Nsg146
Nsg147
Nsbag3
(g4
g5
NtRp1332
(dp1333
g8
g10
sg125
Nsg126
(dp1334
sg128
Nsg25
g27
sg129
(lp1335
I5
aI22
asg131
Nsg132
VEichah Rabbah 5:22
p1336
sg134
(lp1337
sg136
g90
sg137
Nsg138
(lp1338
I5
aI22
asg140
Nsg141
g1336
sg142
(lp1339
sg144
g57
sg145
Nsg146
Nsg147
NsbaI28079
t.