((lp1
I0
aI233
aI307
aI376
aI506
aI832
aI1015
aI1081
aI1167
aI1169
aI1246
aI1281
aI1748
aI1803
aI1837
aI1928
aI1981
aI2155
aI2231
aI2309
aI2353
aI2516
aI2620
aI3108
aI3621
aI3709
aI3768
aI3925
aI3977
aI4039
aI4095
aI4196
aI4216
aI4325
aI4492
aI4915
aI5063
aI5121
aI5461
aI5664
aI6043
aI6045
aI6111
aI6243
aI6342
aI6403
aI6483
aI6592
aI6790
aI6889
aI7161
aI7393
aI7448
aI7530
aI7552
aI7746
aI7756
aI7790
aI7852
aI7931
aI7941
aI8119
aI9332
aI9441
aI9613
aI9759
aI9923
aI10181
aI10420
aI10461
aI10507
aI10651
aI10687
aI10741
aI10798
aI10820
aI10877
aI10943
aI11021
aI11060
aI11188
aI11294
aI11498
aI11541
aI11626
aI11696
aI11802
aI11904
aI12021
aI12276
aI13094
aI13363
aI15151
aI15153
aI15155
aI15157
aI15159
aI15161
aI15234
aI15275
aI15293
aI15418
aI15646
aI15793
aI15918
aI16046
aI16140
aI16183
aI16241
aI16436
aI16488
aI16794
aI16978
aI17162
aI17211
aI17394
aI17497
aI17525
aI17575
aI18083
aI18287
aI18309
aI18332
aI18367
aI18608
aI18663
aI18738
aI18829
aI19080
aI19151
a(lp2
ccopy_reg
_reconstructor
p3
(csefaria.model.text
Ref
p4
c__builtin__
object
p5
NtRp6
(dp7
S'index_node'
p8
g3
(csefaria.model.schema
JaggedArrayNode
p9
g5
NtRp10
(dp11
S'_address'
p12
(lp13
VEsther Rabbah
p14
asS'_full_titles'
p15
(dp16
sVnodeType
p17
VJaggedArrayNode
p18
sS'parent'
p19
NsVaddressTypes
p20
(lp21
VInteger
p22
aVInteger
p23
asS'default'
p24
I00
sS'index'
p25
g3
(csefaria.model.text
Index
p26
g5
NtRp27
(dp28
S'_id'
p29
g3
(cbson.objectid
ObjectId
p30
g5
NtRp31
S'Q\x12\x03P\xed\xba\xb4\x0e\xa5\xba\n\xca'
p32
bsS'pkeys_orig_values'
p33
(dp34
S'title'
p35
VEsther Rabbah
p36
ssS'pubDate'
p37
V1519
p38
sS'compDate'
p39
V1200
p40
sS'pubPlace'
p41
VIstanbul
p42
sS'compPlace'
p43
VTalmudic Israel/Babylon
p44
sS'enDesc'
p45
VEsther Rabbah (The Great Esther) is the midrash to the Book of Esther. Except in the Vilna and Warsaw editions with their modern and arbitrary divisions, this Midrash consists of six "parashiyyot" (chapters, sections; singular = "parashah") introduced by one or more proems. From its plan and scope it is apparently an incomplete collection derived from the rich haggadic material on Esther. The book draws from earlier Midrashim and was expanded over the centuries. It was probably written around the 10th Century though others date it to the 12th or 13th century.
p46
sS'order'
p47
(lp48
F8
asS'era'
p49
VRI
p50
sS'struct_objs'
p51
(dp52
sS'nodes'
p53
g10
sS'errorMargin'
p54
V100
p55
sS'_title'
p56
g36
sS'categories'
p57
(lp58
VMidrash
p59
aVAggadic Midrash
p60
aVMidrash Rabbah
p61
asS'schema'
p62
(dp63
g17
g18
sg20
g21
sVdepth
p64
I2
sVtitles
p65
(lp66
(dp67
Vlang
p68
Ven
p69
sVtext
p70
VEster Rabba
p71
sa(dp72
Vlang
p73
Ven
p74
sVtext
p75
VEsther Rabba
p76
sa(dp77
Vlang
p78
Ven
p79
sVtext
p80
VEster Rabbah
p81
sa(dp82
Vlang
p83
Vhe
p84
sVtext
p85
V\u05d0\u05e1\u05ea\u05e8 \u05e8\u05d1\u05d4
p86
sVprimary
p87
I01
sa(dp88
Vlang
p89
Ven
p90
sVtext
p91
VEsther Rabbah
p92
sVprimary
p93
I01
sasVkey
p94
g14
sVsectionNames
p95
(lp96
VChapter
p97
aVParagraph
p98
assbsS'_primary_title'
p99
(dp100
sS'title_group'
p101
g3
(csefaria.model.schema
TitleGroup
p102
g5
NtRp103
(dp104
g99
(dp105
S'en'
p106
g92
ssS'titles'
p107
g66
sbsS'_addressTypes'
p108
(lp109
g3
(csefaria.model.schema
AddressInteger
p110
g5
NtRp111
(dp112
S'length'
p113
Nsg47
I0
sbag3
(g110
g5
NtRp114
(dp115
g113
Nsg47
I1
sbasS'sharedTitle'
p116
Nsg64
I2
sS'_full_title'
p117
(dp118
g106
g92
ssS'key'
p119
g14
sS'checkFirst'
p120
NsS'_regexes'
p121
(dp122
sS'_leaf_nodes'
p123
(lp124
sg95
g96
sS'children'
p125
(lp126
sbsS'_range_index'
p127
NsS'_context'
p128
(dp129
sS'_padded'
p130
Nsg25
g27
sS'sections'
p131
(lp132
I1
aI1
asS'_first_spanned_ref'
p133
NsS'tref'
p134
VEsther Rabbah 1:1
p135
sS'_spanned_refs'
p136
(lp137
sS'book'
p138
g92
sS'_range_depth'
p139
NsS'toSections'
p140
(lp141
I1
aI1
asS'_url'
p142
NsS'_normal'
p143
g135
sS'_ranged_refs'
p144
(lp145
sS'type'
p146
g59
sS'_prev'
p147
NsS'_he_normal'
p148
NsS'_next'
p149
Nsbag3
(g4
g5
NtRp150
(dp151
g8
g10
sg127
Nsg128
(dp152
sg130
Nsg25
g27
sg131
(lp153
I1
aI2
asg133
Nsg134
VEsther Rabbah 1:2
p154
sg136
(lp155
sg138
g92
sg139
Nsg140
(lp156
I1
aI2
asg142
Nsg143
g154
sg144
(lp157
sg146
g59
sg147
Nsg148
Nsg149
Nsbag3
(g4
g5
NtRp158
(dp159
g8
g10
sg127
Nsg128
(dp160
sg130
Nsg25
g27
sg131
(lp161
I1
aI3
asg133
Nsg134
VEsther Rabbah 1:3
p162
sg136
(lp163
sg138
g92
sg139
Nsg140
(lp164
I1
aI3
asg142
Nsg143
g162
sg144
(lp165
sg146
g59
sg147
Nsg148
Nsg149
Nsbag3
(g4
g5
NtRp166
(dp167
g8
g10
sg127
Nsg128
(dp168
sg130
Nsg25
g27
sg131
(lp169
I1
aI4
asg133
Nsg134
VEsther Rabbah 1:4
p170
sg136
(lp171
sg138
g92
sg139
Nsg140
(lp172
I1
aI4
asg142
Nsg143
g170
sg144
(lp173
sg146
g59
sg147
Nsg148
Nsg149
Nsbag3
(g4
g5
NtRp174
(dp175
g8
g10
sg127
Nsg128
(dp176
sg130
Nsg25
g27
sg131
(lp177
I1
aI5
asg133
Nsg134
VEsther Rabbah 1:5
p178
sg136
(lp179
sg138
g92
sg139
Nsg140
(lp180
I1
aI5
asg142
Nsg143
g178
sg144
(lp181
sg146
g59
sg147
Nsg148
Nsg149
Nsbag3
(g4
g5
NtRp182
(dp183
g8
g10
sg127
Nsg128
(dp184
sg130
Nsg25
g27
sg131
(lp185
I1
aI6
asg133
Nsg134
VEsther Rabbah 1:6
p186
sg136
(lp187
sg138
g92
sg139
Nsg140
(lp188
I1
aI6
asg142
Nsg143
g186
sg144
(lp189
sg146
g59
sg147
Nsg148
Nsg149
Nsbag3
(g4
g5
NtRp190
(dp191
g8
g10
sg127
Nsg128
(dp192
sg130
Nsg25
g27
sg131
(lp193
I1
aI7
asg133
Nsg134
VEsther Rabbah 1:7
p194
sg136
(lp195
sg138
g92
sg139
Nsg140
(lp196
I1
aI7
asg142
Nsg143
g194
sg144
(lp197
sg146
g59
sg147
Nsg148
Nsg149
Nsbag3
(g4
g5
NtRp198
(dp199
g8
g10
sg127
Nsg128
(dp200
sg130
Nsg25
g27
sg131
(lp201
I1
aI8
asg133
Nsg134
VEsther Rabbah 1:8
p202
sg136
(lp203
sg138
g92
sg139
Nsg140
(lp204
I1
aI8
asg142
Nsg143
g202
sg144
(lp205
sg146
g59
sg147
Nsg148
Nsg149
Nsbag3
(g4
g5
NtRp206
(dp207
g8
g10
sg127
Nsg128
(dp208
sg130
Nsg25
g27
sg131
(lp209
I1
aI9
asg133
Nsg134
VEsther Rabbah 1:9
p210
sg136
(lp211
sg138
g92
sg139
Nsg140
(lp212
I1
aI9
asg142
Nsg143
g210
sg144
(lp213
sg146
g59
sg147
Nsg148
Nsg149
Nsbag3
(g4
g5
NtRp214
(dp215
g8
g10
sg127
Nsg128
(dp216
sg130
Nsg25
g27
sg131
(lp217
I1
aI10
asg133
Nsg134
VEsther Rabbah 1:10
p218
sg136
(lp219
sg138
g92
sg139
Nsg140
(lp220
I1
aI10
asg142
Nsg143
g218
sg144
(lp221
sg146
g59
sg147
Nsg148
Nsg149
Nsbag3
(g4
g5
NtRp222
(dp223
g8
g10
sg127
Nsg128
(dp224
sg130
Nsg25
g27
sg131
(lp225
I1
aI11
asg133
Nsg134
VEsther Rabbah 1:11
p226
sg136
(lp227
sg138
g92
sg139
Nsg140
(lp228
I1
aI11
asg142
Nsg143
g226
sg144
(lp229
sg146
g59
sg147
Nsg148
Nsg149
Nsbag3
(g4
g5
NtRp230
(dp231
g8
g10
sg127
Nsg128
(dp232
sg130
Nsg25
g27
sg131
(lp233
I1
aI12
asg133
Nsg134
VEsther Rabbah 1:12
p234
sg136
(lp235
sg138
g92
sg139
Nsg140
(lp236
I1
aI12
asg142
Nsg143
g234
sg144
(lp237
sg146
g59
sg147
Nsg148
Nsg149
Nsbag3
(g4
g5
NtRp238
(dp239
g8
g10
sg127
Nsg128
(dp240
sg130
Nsg25
g27
sg131
(lp241
I1
aI13
asg133
Nsg134
VEsther Rabbah 1:13
p242
sg136
(lp243
sg138
g92
sg139
Nsg140
(lp244
I1
aI13
asg142
Nsg143
g242
sg144
(lp245
sg146
g59
sg147
Nsg148
Nsg149
Nsbag3
(g4
g5
NtRp246
(dp247
g8
g10
sg127
Nsg128
(dp248
sg130
Nsg25
g27
sg131
(lp249
I1
aI14
asg133
Nsg134
VEsther Rabbah 1:14
p250
sg136
(lp251
sg138
g92
sg139
Nsg140
(lp252
I1
aI14
asg142
Nsg143
g250
sg144
(lp253
sg146
g59
sg147
Nsg148
Nsg149
Nsbag3
(g4
g5
NtRp254
(dp255
g8
g10
sg127
Nsg128
(dp256
sg130
Nsg25
g27
sg131
(lp257
I1
aI15
asg133
Nsg134
VEsther Rabbah 1:15
p258
sg136
(lp259
sg138
g92
sg139
Nsg140
(lp260
I1
aI15
asg142
Nsg143
g258
sg144
(lp261
sg146
g59
sg147
Nsg148
Nsg149
Nsbag3
(g4
g5
NtRp262
(dp263
g8
g10
sg127
Nsg128
(dp264
sg130
Nsg25
g27
sg131
(lp265
I1
aI16
asg133
Nsg134
VEsther Rabbah 1:16
p266
sg136
(lp267
sg138
g92
sg139
Nsg140
(lp268
I1
aI16
asg142
Nsg143
g266
sg144
(lp269
sg146
g59
sg147
Nsg148
Nsg149
Nsbag3
(g4
g5
NtRp270
(dp271
g8
g10
sg127
Nsg128
(dp272
sg130
Nsg25
g27
sg131
(lp273
I1
aI17
asg133
Nsg134
VEsther Rabbah 1:17
p274
sg136
(lp275
sg138
g92
sg139
Nsg140
(lp276
I1
aI17
asg142
Nsg143
g274
sg144
(lp277
sg146
g59
sg147
Nsg148
Nsg149
Nsbag3
(g4
g5
NtRp278
(dp279
g8
g10
sg127
Nsg128
(dp280
sg130
Nsg25
g27
sg131
(lp281
I1
aI18
asg133
Nsg134
VEsther Rabbah 1:18
p282
sg136
(lp283
sg138
g92
sg139
Nsg140
(lp284
I1
aI18
asg142
Nsg143
g282
sg144
(lp285
sg146
g59
sg147
Nsg148
Nsg149
Nsbag3
(g4
g5
NtRp286
(dp287
g8
g10
sg127
Nsg128
(dp288
sg130
Nsg25
g27
sg131
(lp289
I1
aI19
asg133
Nsg134
VEsther Rabbah 1:19
p290
sg136
(lp291
sg138
g92
sg139
Nsg140
(lp292
I1
aI19
asg142
Nsg143
g290
sg144
(lp293
sg146
g59
sg147
Nsg148
Nsg149
Nsbag3
(g4
g5
NtRp294
(dp295
g8
g10
sg127
Nsg128
(dp296
sg130
Nsg25
g27
sg131
(lp297
I1
aI20
asg133
Nsg134
VEsther Rabbah 1:20
p298
sg136
(lp299
sg138
g92
sg139
Nsg140
(lp300
I1
aI20
asg142
Nsg143
g298
sg144
(lp301
sg146
g59
sg147
Nsg148
Nsg149
Nsbag3
(g4
g5
NtRp302
(dp303
g8
g10
sg127
Nsg128
(dp304
sg130
Nsg25
g27
sg131
(lp305
I2
aI1
asg133
Nsg134
VEsther Rabbah 2:1
p306
sg136
(lp307
sg138
g92
sg139
Nsg140
(lp308
I2
aI1
asg142
Nsg143
g306
sg144
(lp309
sg146
g59
sg147
Nsg148
Nsg149
Nsbag3
(g4
g5
NtRp310
(dp311
g8
g10
sg127
Nsg128
(dp312
sg130
Nsg25
g27
sg131
(lp313
I2
aI2
asg133
Nsg134
VEsther Rabbah 2:2
p314
sg136
(lp315
sg138
g92
sg139
Nsg140
(lp316
I2
aI2
asg142
Nsg143
g314
sg144
(lp317
sg146
g59
sg147
Nsg148
Nsg149
Nsbag3
(g4
g5
NtRp318
(dp319
g8
g10
sg127
Nsg128
(dp320
sg130
Nsg25
g27
sg131
(lp321
I2
aI3
asg133
Nsg134
VEsther Rabbah 2:3
p322
sg136
(lp323
sg138
g92
sg139
Nsg140
(lp324
I2
aI3
asg142
Nsg143
g322
sg144
(lp325
sg146
g59
sg147
Nsg148
Nsg149
Nsbag3
(g4
g5
NtRp326
(dp327
g8
g10
sg127
Nsg128
(dp328
sg130
Nsg25
g27
sg131
(lp329
I2
aI4
asg133
Nsg134
VEsther Rabbah 2:4
p330
sg136
(lp331
sg138
g92
sg139
Nsg140
(lp332
I2
aI4
asg142
Nsg143
g330
sg144
(lp333
sg146
g59
sg147
Nsg148
Nsg149
Nsbag3
(g4
g5
NtRp334
(dp335
g8
g10
sg127
Nsg128
(dp336
sg130
Nsg25
g27
sg131
(lp337
I2
aI5
asg133
Nsg134
VEsther Rabbah 2:5
p338
sg136
(lp339
sg138
g92
sg139
Nsg140
(lp340
I2
aI5
asg142
Nsg143
g338
sg144
(lp341
sg146
g59
sg147
Nsg148
Nsg149
Nsbag3
(g4
g5
NtRp342
(dp343
g8
g10
sg127
Nsg128
(dp344
sg130
Nsg25
g27
sg131
(lp345
I2
aI6
asg133
Nsg134
VEsther Rabbah 2:6
p346
sg136
(lp347
sg138
g92
sg139
Nsg140
(lp348
I2
aI6
asg142
Nsg143
g346
sg144
(lp349
sg146
g59
sg147
Nsg148
Nsg149
Nsbag3
(g4
g5
NtRp350
(dp351
g8
g10
sg127
Nsg128
(dp352
sg130
Nsg25
g27
sg131
(lp353
I2
aI7
asg133
Nsg134
VEsther Rabbah 2:7
p354
sg136
(lp355
sg138
g92
sg139
Nsg140
(lp356
I2
aI7
asg142
Nsg143
g354
sg144
(lp357
sg146
g59
sg147
Nsg148
Nsg149
Nsbag3
(g4
g5
NtRp358
(dp359
g8
g10
sg127
Nsg128
(dp360
sg130
Nsg25
g27
sg131
(lp361
I2
aI8
asg133
Nsg134
VEsther Rabbah 2:8
p362
sg136
(lp363
sg138
g92
sg139
Nsg140
(lp364
I2
aI8
asg142
Nsg143
g362
sg144
(lp365
sg146
g59
sg147
Nsg148
Nsg149
Nsbag3
(g4
g5
NtRp366
(dp367
g8
g10
sg127
Nsg128
(dp368
sg130
Nsg25
g27
sg131
(lp369
I2
aI9
asg133
Nsg134
VEsther Rabbah 2:9
p370
sg136
(lp371
sg138
g92
sg139
Nsg140
(lp372
I2
aI9
asg142
Nsg143
g370
sg144
(lp373
sg146
g59
sg147
Nsg148
Nsg149
Nsbag3
(g4
g5
NtRp374
(dp375
g8
g10
sg127
Nsg128
(dp376
sg130
Nsg25
g27
sg131
(lp377
I2
aI10
asg133
Nsg134
VEsther Rabbah 2:10
p378
sg136
(lp379
sg138
g92
sg139
Nsg140
(lp380
I2
aI10
asg142
Nsg143
g378
sg144
(lp381
sg146
g59
sg147
Nsg148
Nsg149
Nsbag3
(g4
g5
NtRp382
(dp383
g8
g10
sg127
Nsg128
(dp384
sg130
Nsg25
g27
sg131
(lp385
I2
aI11
asg133
Nsg134
VEsther Rabbah 2:11
p386
sg136
(lp387
sg138
g92
sg139
Nsg140
(lp388
I2
aI11
asg142
Nsg143
g386
sg144
(lp389
sg146
g59
sg147
Nsg148
Nsg149
Nsbag3
(g4
g5
NtRp390
(dp391
g8
g10
sg127
Nsg128
(dp392
sg130
Nsg25
g27
sg131
(lp393
I2
aI12
asg133
Nsg134
VEsther Rabbah 2:12
p394
sg136
(lp395
sg138
g92
sg139
Nsg140
(lp396
I2
aI12
asg142
Nsg143
g394
sg144
(lp397
sg146
g59
sg147
Nsg148
Nsg149
Nsbag3
(g4
g5
NtRp398
(dp399
g8
g10
sg127
Nsg128
(dp400
sg130
Nsg25
g27
sg131
(lp401
I2
aI13
asg133
Nsg134
VEsther Rabbah 2:13
p402
sg136
(lp403
sg138
g92
sg139
Nsg140
(lp404
I2
aI13
asg142
Nsg143
g402
sg144
(lp405
sg146
g59
sg147
Nsg148
Nsg149
Nsbag3
(g4
g5
NtRp406
(dp407
g8
g10
sg127
Nsg128
(dp408
sg130
Nsg25
g27
sg131
(lp409
I2
aI14
asg133
Nsg134
VEsther Rabbah 2:14
p410
sg136
(lp411
sg138
g92
sg139
Nsg140
(lp412
I2
aI14
asg142
Nsg143
g410
sg144
(lp413
sg146
g59
sg147
Nsg148
Nsg149
Nsbag3
(g4
g5
NtRp414
(dp415
g8
g10
sg127
Nsg128
(dp416
sg130
Nsg25
g27
sg131
(lp417
I3
aI1
asg133
Nsg134
VEsther Rabbah 3:1
p418
sg136
(lp419
sg138
g92
sg139
Nsg140
(lp420
I3
aI1
asg142
Nsg143
g418
sg144
(lp421
sg146
g59
sg147
Nsg148
Nsg149
Nsbag3
(g4
g5
NtRp422
(dp423
g8
g10
sg127
Nsg128
(dp424
sg130
Nsg25
g27
sg131
(lp425
I3
aI2
asg133
Nsg134
VEsther Rabbah 3:2
p426
sg136
(lp427
sg138
g92
sg139
Nsg140
(lp428
I3
aI2
asg142
Nsg143
g426
sg144
(lp429
sg146
g59
sg147
Nsg148
Nsg149
Nsbag3
(g4
g5
NtRp430
(dp431
g8
g10
sg127
Nsg128
(dp432
sg130
Nsg25
g27
sg131
(lp433
I3
aI3
asg133
Nsg134
VEsther Rabbah 3:3
p434
sg136
(lp435
sg138
g92
sg139
Nsg140
(lp436
I3
aI3
asg142
Nsg143
g434
sg144
(lp437
sg146
g59
sg147
Nsg148
Nsg149
Nsbag3
(g4
g5
NtRp438
(dp439
g8
g10
sg127
Nsg128
(dp440
sg130
Nsg25
g27
sg131
(lp441
I3
aI4
asg133
Nsg134
VEsther Rabbah 3:4
p442
sg136
(lp443
sg138
g92
sg139
Nsg140
(lp444
I3
aI4
asg142
Nsg143
g442
sg144
(lp445
sg146
g59
sg147
Nsg148
Nsg149
Nsbag3
(g4
g5
NtRp446
(dp447
g8
g10
sg127
Nsg128
(dp448
sg130
Nsg25
g27
sg131
(lp449
I3
aI5
asg133
Nsg134
VEsther Rabbah 3:5
p450
sg136
(lp451
sg138
g92
sg139
Nsg140
(lp452
I3
aI5
asg142
Nsg143
g450
sg144
(lp453
sg146
g59
sg147
Nsg148
Nsg149
Nsbag3
(g4
g5
NtRp454
(dp455
g8
g10
sg127
Nsg128
(dp456
sg130
Nsg25
g27
sg131
(lp457
I3
aI6
asg133
Nsg134
VEsther Rabbah 3:6
p458
sg136
(lp459
sg138
g92
sg139
Nsg140
(lp460
I3
aI6
asg142
Nsg143
g458
sg144
(lp461
sg146
g59
sg147
Nsg148
Nsg149
Nsbag3
(g4
g5
NtRp462
(dp463
g8
g10
sg127
Nsg128
(dp464
sg130
Nsg25
g27
sg131
(lp465
I3
aI7
asg133
Nsg134
VEsther Rabbah 3:7
p466
sg136
(lp467
sg138
g92
sg139
Nsg140
(lp468
I3
aI7
asg142
Nsg143
g466
sg144
(lp469
sg146
g59
sg147
Nsg148
Nsg149
Nsbag3
(g4
g5
NtRp470
(dp471
g8
g10
sg127
Nsg128
(dp472
sg130
Nsg25
g27
sg131
(lp473
I3
aI8
asg133
Nsg134
VEsther Rabbah 3:8
p474
sg136
(lp475
sg138
g92
sg139
Nsg140
(lp476
I3
aI8
asg142
Nsg143
g474
sg144
(lp477
sg146
g59
sg147
Nsg148
Nsg149
Nsbag3
(g4
g5
NtRp478
(dp479
g8
g10
sg127
Nsg128
(dp480
sg130
Nsg25
g27
sg131
(lp481
I3
aI9
asg133
Nsg134
VEsther Rabbah 3:9
p482
sg136
(lp483
sg138
g92
sg139
Nsg140
(lp484
I3
aI9
asg142
Nsg143
g482
sg144
(lp485
sg146
g59
sg147
Nsg148
Nsg149
Nsbag3
(g4
g5
NtRp486
(dp487
g8
g10
sg127
Nsg128
(dp488
sg130
Nsg25
g27
sg131
(lp489
I3
aI10
asg133
Nsg134
VEsther Rabbah 3:10
p490
sg136
(lp491
sg138
g92
sg139
Nsg140
(lp492
I3
aI10
asg142
Nsg143
g490
sg144
(lp493
sg146
g59
sg147
Nsg148
Nsg149
Nsbag3
(g4
g5
NtRp494
(dp495
g8
g10
sg127
Nsg128
(dp496
sg130
Nsg25
g27
sg131
(lp497
I3
aI11
asg133
Nsg134
VEsther Rabbah 3:11
p498
sg136
(lp499
sg138
g92
sg139
Nsg140
(lp500
I3
aI11
asg142
Nsg143
g498
sg144
(lp501
sg146
g59
sg147
Nsg148
Nsg149
Nsbag3
(g4
g5
NtRp502
(dp503
g8
g10
sg127
Nsg128
(dp504
sg130
Nsg25
g27
sg131
(lp505
I3
aI12
asg133
Nsg134
VEsther Rabbah 3:12
p506
sg136
(lp507
sg138
g92
sg139
Nsg140
(lp508
I3
aI12
asg142
Nsg143
g506
sg144
(lp509
sg146
g59
sg147
Nsg148
Nsg149
Nsbag3
(g4
g5
NtRp510
(dp511
g8
g10
sg127
Nsg128
(dp512
sg130
Nsg25
g27
sg131
(lp513
I3
aI13
asg133
Nsg134
VEsther Rabbah 3:13
p514
sg136
(lp515
sg138
g92
sg139
Nsg140
(lp516
I3
aI13
asg142
Nsg143
g514
sg144
(lp517
sg146
g59
sg147
Nsg148
Nsg149
Nsbag3
(g4
g5
NtRp518
(dp519
g8
g10
sg127
Nsg128
(dp520
sg130
Nsg25
g27
sg131
(lp521
I3
aI14
asg133
Nsg134
VEsther Rabbah 3:14
p522
sg136
(lp523
sg138
g92
sg139
Nsg140
(lp524
I3
aI14
asg142
Nsg143
g522
sg144
(lp525
sg146
g59
sg147
Nsg148
Nsg149
Nsbag3
(g4
g5
NtRp526
(dp527
g8
g10
sg127
Nsg128
(dp528
sg130
Nsg25
g27
sg131
(lp529
I3
aI15
asg133
Nsg134
VEsther Rabbah 3:15
p530
sg136
(lp531
sg138
g92
sg139
Nsg140
(lp532
I3
aI15
asg142
Nsg143
g530
sg144
(lp533
sg146
g59
sg147
Nsg148
Nsg149
Nsbag3
(g4
g5
NtRp534
(dp535
g8
g10
sg127
Nsg128
(dp536
sg130
Nsg25
g27
sg131
(lp537
I4
aI1
asg133
Nsg134
VEsther Rabbah 4:1
p538
sg136
(lp539
sg138
g92
sg139
Nsg140
(lp540
I4
aI1
asg142
Nsg143
g538
sg144
(lp541
sg146
g59
sg147
Nsg148
Nsg149
Nsbag3
(g4
g5
NtRp542
(dp543
g8
g10
sg127
Nsg128
(dp544
sg130
Nsg25
g27
sg131
(lp545
I4
aI2
asg133
Nsg134
VEsther Rabbah 4:2
p546
sg136
(lp547
sg138
g92
sg139
Nsg140
(lp548
I4
aI2
asg142
Nsg143
g546
sg144
(lp549
sg146
g59
sg147
Nsg148
Nsg149
Nsbag3
(g4
g5
NtRp550
(dp551
g8
g10
sg127
Nsg128
(dp552
sg130
Nsg25
g27
sg131
(lp553
I4
aI3
asg133
Nsg134
VEsther Rabbah 4:3
p554
sg136
(lp555
sg138
g92
sg139
Nsg140
(lp556
I4
aI3
asg142
Nsg143
g554
sg144
(lp557
sg146
g59
sg147
Nsg148
Nsg149
Nsbag3
(g4
g5
NtRp558
(dp559
g8
g10
sg127
Nsg128
(dp560
sg130
Nsg25
g27
sg131
(lp561
I4
aI4
asg133
Nsg134
VEsther Rabbah 4:4
p562
sg136
(lp563
sg138
g92
sg139
Nsg140
(lp564
I4
aI4
asg142
Nsg143
g562
sg144
(lp565
sg146
g59
sg147
Nsg148
Nsg149
Nsbag3
(g4
g5
NtRp566
(dp567
g8
g10
sg127
Nsg128
(dp568
sg130
Nsg25
g27
sg131
(lp569
I4
aI5
asg133
Nsg134
VEsther Rabbah 4:5
p570
sg136
(lp571
sg138
g92
sg139
Nsg140
(lp572
I4
aI5
asg142
Nsg143
g570
sg144
(lp573
sg146
g59
sg147
Nsg148
Nsg149
Nsbag3
(g4
g5
NtRp574
(dp575
g8
g10
sg127
Nsg128
(dp576
sg130
Nsg25
g27
sg131
(lp577
I4
aI6
asg133
Nsg134
VEsther Rabbah 4:6
p578
sg136
(lp579
sg138
g92
sg139
Nsg140
(lp580
I4
aI6
asg142
Nsg143
g578
sg144
(lp581
sg146
g59
sg147
Nsg148
Nsg149
Nsbag3
(g4
g5
NtRp582
(dp583
g8
g10
sg127
Nsg128
(dp584
sg130
Nsg25
g27
sg131
(lp585
I4
aI7
asg133
Nsg134
VEsther Rabbah 4:7
p586
sg136
(lp587
sg138
g92
sg139
Nsg140
(lp588
I4
aI7
asg142
Nsg143
g586
sg144
(lp589
sg146
g59
sg147
Nsg148
Nsg149
Nsbag3
(g4
g5
NtRp590
(dp591
g8
g10
sg127
Nsg128
(dp592
sg130
Nsg25
g27
sg131
(lp593
I4
aI8
asg133
Nsg134
VEsther Rabbah 4:8
p594
sg136
(lp595
sg138
g92
sg139
Nsg140
(lp596
I4
aI8
asg142
Nsg143
g594
sg144
(lp597
sg146
g59
sg147
Nsg148
Nsg149
Nsbag3
(g4
g5
NtRp598
(dp599
g8
g10
sg127
Nsg128
(dp600
sg130
Nsg25
g27
sg131
(lp601
I4
aI9
asg133
Nsg134
VEsther Rabbah 4:9
p602
sg136
(lp603
sg138
g92
sg139
Nsg140
(lp604
I4
aI9
asg142
Nsg143
g602
sg144
(lp605
sg146
g59
sg147
Nsg148
Nsg149
Nsbag3
(g4
g5
NtRp606
(dp607
g8
g10
sg127
Nsg128
(dp608
sg130
Nsg25
g27
sg131
(lp609
I4
aI10
asg133
Nsg134
VEsther Rabbah 4:10
p610
sg136
(lp611
sg138
g92
sg139
Nsg140
(lp612
I4
aI10
asg142
Nsg143
g610
sg144
(lp613
sg146
g59
sg147
Nsg148
Nsg149
Nsbag3
(g4
g5
NtRp614
(dp615
g8
g10
sg127
Nsg128
(dp616
sg130
Nsg25
g27
sg131
(lp617
I4
aI11
asg133
Nsg134
VEsther Rabbah 4:11
p618
sg136
(lp619
sg138
g92
sg139
Nsg140
(lp620
I4
aI11
asg142
Nsg143
g618
sg144
(lp621
sg146
g59
sg147
Nsg148
Nsg149
Nsbag3
(g4
g5
NtRp622
(dp623
g8
g10
sg127
Nsg128
(dp624
sg130
Nsg25
g27
sg131
(lp625
I4
aI12
asg133
Nsg134
VEsther Rabbah 4:12
p626
sg136
(lp627
sg138
g92
sg139
Nsg140
(lp628
I4
aI12
asg142
Nsg143
g626
sg144
(lp629
sg146
g59
sg147
Nsg148
Nsg149
Nsbag3
(g4
g5
NtRp630
(dp631
g8
g10
sg127
Nsg128
(dp632
sg130
Nsg25
g27
sg131
(lp633
I5
aI1
asg133
Nsg134
VEsther Rabbah 5:1
p634
sg136
(lp635
sg138
g92
sg139
Nsg140
(lp636
I5
aI1
asg142
Nsg143
g634
sg144
(lp637
sg146
g59
sg147
Nsg148
Nsg149
Nsbag3
(g4
g5
NtRp638
(dp639
g8
g10
sg127
Nsg128
(dp640
sg130
Nsg25
g27
sg131
(lp641
I5
aI2
asg133
Nsg134
VEsther Rabbah 5:2
p642
sg136
(lp643
sg138
g92
sg139
Nsg140
(lp644
I5
aI2
asg142
Nsg143
g642
sg144
(lp645
sg146
g59
sg147
Nsg148
Nsg149
Nsbag3
(g4
g5
NtRp646
(dp647
g8
g10
sg127
Nsg128
(dp648
sg130
Nsg25
g27
sg131
(lp649
I5
aI3
asg133
Nsg134
VEsther Rabbah 5:3
p650
sg136
(lp651
sg138
g92
sg139
Nsg140
(lp652
I5
aI3
asg142
Nsg143
g650
sg144
(lp653
sg146
g59
sg147
Nsg148
Nsg149
Nsbag3
(g4
g5
NtRp654
(dp655
g8
g10
sg127
Nsg128
(dp656
sg130
Nsg25
g27
sg131
(lp657
I5
aI4
asg133
Nsg134
VEsther Rabbah 5:4
p658
sg136
(lp659
sg138
g92
sg139
Nsg140
(lp660
I5
aI4
asg142
Nsg143
g658
sg144
(lp661
sg146
g59
sg147
Nsg148
Nsg149
Nsbag3
(g4
g5
NtRp662
(dp663
g8
g10
sg127
Nsg128
(dp664
sg130
Nsg25
g27
sg131
(lp665
I6
aI1
asg133
Nsg134
VEsther Rabbah 6:1
p666
sg136
(lp667
sg138
g92
sg139
Nsg140
(lp668
I6
aI1
asg142
Nsg143
g666
sg144
(lp669
sg146
g59
sg147
Nsg148
Nsg149
Nsbag3
(g4
g5
NtRp670
(dp671
g8
g10
sg127
Nsg128
(dp672
sg130
Nsg25
g27
sg131
(lp673
I6
aI2
asg133
Nsg134
VEsther Rabbah 6:2
p674
sg136
(lp675
sg138
g92
sg139
Nsg140
(lp676
I6
aI2
asg142
Nsg143
g674
sg144
(lp677
sg146
g59
sg147
Nsg148
Nsg149
Nsbag3
(g4
g5
NtRp678
(dp679
g8
g10
sg127
Nsg128
(dp680
sg130
Nsg25
g27
sg131
(lp681
I6
aI3
asg133
Nsg134
VEsther Rabbah 6:3
p682
sg136
(lp683
sg138
g92
sg139
Nsg140
(lp684
I6
aI3
asg142
Nsg143
g682
sg144
(lp685
sg146
g59
sg147
Nsg148
Nsg149
Nsbag3
(g4
g5
NtRp686
(dp687
g8
g10
sg127
Nsg128
(dp688
sg130
Nsg25
g27
sg131
(lp689
I6
aI4
asg133
Nsg134
VEsther Rabbah 6:4
p690
sg136
(lp691
sg138
g92
sg139
Nsg140
(lp692
I6
aI4
asg142
Nsg143
g690
sg144
(lp693
sg146
g59
sg147
Nsg148
Nsg149
Nsbag3
(g4
g5
NtRp694
(dp695
g8
g10
sg127
Nsg128
(dp696
sg130
Nsg25
g27
sg131
(lp697
I6
aI5
asg133
Nsg134
VEsther Rabbah 6:5
p698
sg136
(lp699
sg138
g92
sg139
Nsg140
(lp700
I6
aI5
asg142
Nsg143
g698
sg144
(lp701
sg146
g59
sg147
Nsg148
Nsg149
Nsbag3
(g4
g5
NtRp702
(dp703
g8
g10
sg127
Nsg128
(dp704
sg130
Nsg25
g27
sg131
(lp705
I6
aI6
asg133
Nsg134
VEsther Rabbah 6:6
p706
sg136
(lp707
sg138
g92
sg139
Nsg140
(lp708
I6
aI6
asg142
Nsg143
g706
sg144
(lp709
sg146
g59
sg147
Nsg148
Nsg149
Nsbag3
(g4
g5
NtRp710
(dp711
g8
g10
sg127
Nsg128
(dp712
sg130
Nsg25
g27
sg131
(lp713
I6
aI7
asg133
Nsg134
VEsther Rabbah 6:7
p714
sg136
(lp715
sg138
g92
sg139
Nsg140
(lp716
I6
aI7
asg142
Nsg143
g714
sg144
(lp717
sg146
g59
sg147
Nsg148
Nsg149
Nsbag3
(g4
g5
NtRp718
(dp719
g8
g10
sg127
Nsg128
(dp720
sg130
Nsg25
g27
sg131
(lp721
I6
aI8
asg133
Nsg134
VEsther Rabbah 6:8
p722
sg136
(lp723
sg138
g92
sg139
Nsg140
(lp724
I6
aI8
asg142
Nsg143
g722
sg144
(lp725
sg146
g59
sg147
Nsg148
Nsg149
Nsbag3
(g4
g5
NtRp726
(dp727
g8
g10
sg127
Nsg128
(dp728
sg130
Nsg25
g27
sg131
(lp729
I6
aI9
asg133
Nsg134
VEsther Rabbah 6:9
p730
sg136
(lp731
sg138
g92
sg139
Nsg140
(lp732
I6
aI9
asg142
Nsg143
g730
sg144
(lp733
sg146
g59
sg147
Nsg148
Nsg149
Nsbag3
(g4
g5
NtRp734
(dp735
g8
g10
sg127
Nsg128
(dp736
sg130
Nsg25
g27
sg131
(lp737
I6
aI10
asg133
Nsg134
VEsther Rabbah 6:10
p738
sg136
(lp739
sg138
g92
sg139
Nsg140
(lp740
I6
aI10
asg142
Nsg143
g738
sg144
(lp741
sg146
g59
sg147
Nsg148
Nsg149
Nsbag3
(g4
g5
NtRp742
(dp743
g8
g10
sg127
Nsg128
(dp744
sg130
Nsg25
g27
sg131
(lp745
I6
aI11
asg133
Nsg134
VEsther Rabbah 6:11
p746
sg136
(lp747
sg138
g92
sg139
Nsg140
(lp748
I6
aI11
asg142
Nsg143
g746
sg144
(lp749
sg146
g59
sg147
Nsg148
Nsg149
Nsbag3
(g4
g5
NtRp750
(dp751
g8
g10
sg127
Nsg128
(dp752
sg130
Nsg25
g27
sg131
(lp753
I6
aI12
asg133
Nsg134
VEsther Rabbah 6:12
p754
sg136
(lp755
sg138
g92
sg139
Nsg140
(lp756
I6
aI12
asg142
Nsg143
g754
sg144
(lp757
sg146
g59
sg147
Nsg148
Nsg149
Nsbag3
(g4
g5
NtRp758
(dp759
g8
g10
sg127
Nsg128
(dp760
sg130
Nsg25
g27
sg131
(lp761
I6
aI13
asg133
Nsg134
VEsther Rabbah 6:13
p762
sg136
(lp763
sg138
g92
sg139
Nsg140
(lp764
I6
aI13
asg142
Nsg143
g762
sg144
(lp765
sg146
g59
sg147
Nsg148
Nsg149
Nsbag3
(g4
g5
NtRp766
(dp767
g8
g10
sg127
Nsg128
(dp768
sg130
Nsg25
g27
sg131
(lp769
I6
aI14
asg133
Nsg134
VEsther Rabbah 6:14
p770
sg136
(lp771
sg138
g92
sg139
Nsg140
(lp772
I6
aI14
asg142
Nsg143
g770
sg144
(lp773
sg146
g59
sg147
Nsg148
Nsg149
Nsbag3
(g4
g5
NtRp774
(dp775
g8
g10
sg127
Nsg128
(dp776
sg130
Nsg25
g27
sg131
(lp777
I7
aI1
asg133
Nsg134
VEsther Rabbah 7:1
p778
sg136
(lp779
sg138
g92
sg139
Nsg140
(lp780
I7
aI1
asg142
Nsg143
g778
sg144
(lp781
sg146
g59
sg147
Nsg148
Nsg149
Nsbag3
(g4
g5
NtRp782
(dp783
g8
g10
sg127
Nsg128
(dp784
sg130
Nsg25
g27
sg131
(lp785
I7
aI2
asg133
Nsg134
VEsther Rabbah 7:2
p786
sg136
(lp787
sg138
g92
sg139
Nsg140
(lp788
I7
aI2
asg142
Nsg143
g786
sg144
(lp789
sg146
g59
sg147
Nsg148
Nsg149
Nsbag3
(g4
g5
NtRp790
(dp791
g8
g10
sg127
Nsg128
(dp792
sg130
Nsg25
g27
sg131
(lp793
I7
aI3
asg133
Nsg134
VEsther Rabbah 7:3
p794
sg136
(lp795
sg138
g92
sg139
Nsg140
(lp796
I7
aI3
asg142
Nsg143
g794
sg144
(lp797
sg146
g59
sg147
Nsg148
Nsg149
Nsbag3
(g4
g5
NtRp798
(dp799
g8
g10
sg127
Nsg128
(dp800
sg130
Nsg25
g27
sg131
(lp801
I7
aI4
asg133
Nsg134
VEsther Rabbah 7:4
p802
sg136
(lp803
sg138
g92
sg139
Nsg140
(lp804
I7
aI4
asg142
Nsg143
g802
sg144
(lp805
sg146
g59
sg147
Nsg148
Nsg149
Nsbag3
(g4
g5
NtRp806
(dp807
g8
g10
sg127
Nsg128
(dp808
sg130
Nsg25
g27
sg131
(lp809
I7
aI5
asg133
Nsg134
VEsther Rabbah 7:5
p810
sg136
(lp811
sg138
g92
sg139
Nsg140
(lp812
I7
aI5
asg142
Nsg143
g810
sg144
(lp813
sg146
g59
sg147
Nsg148
Nsg149
Nsbag3
(g4
g5
NtRp814
(dp815
g8
g10
sg127
Nsg128
(dp816
sg130
Nsg25
g27
sg131
(lp817
I7
aI6
asg133
Nsg134
VEsther Rabbah 7:6
p818
sg136
(lp819
sg138
g92
sg139
Nsg140
(lp820
I7
aI6
asg142
Nsg143
g818
sg144
(lp821
sg146
g59
sg147
Nsg148
Nsg149
Nsbag3
(g4
g5
NtRp822
(dp823
g8
g10
sg127
Nsg128
(dp824
sg130
Nsg25
g27
sg131
(lp825
I7
aI7
asg133
Nsg134
VEsther Rabbah 7:7
p826
sg136
(lp827
sg138
g92
sg139
Nsg140
(lp828
I7
aI7
asg142
Nsg143
g826
sg144
(lp829
sg146
g59
sg147
Nsg148
Nsg149
Nsbag3
(g4
g5
NtRp830
(dp831
g8
g10
sg127
Nsg128
(dp832
sg130
Nsg25
g27
sg131
(lp833
I7
aI8
asg133
Nsg134
VEsther Rabbah 7:8
p834
sg136
(lp835
sg138
g92
sg139
Nsg140
(lp836
I7
aI8
asg142
Nsg143
g834
sg144
(lp837
sg146
g59
sg147
Nsg148
Nsg149
Nsbag3
(g4
g5
NtRp838
(dp839
g8
g10
sg127
Nsg128
(dp840
sg130
Nsg25
g27
sg131
(lp841
I7
aI9
asg133
Nsg134
VEsther Rabbah 7:9
p842
sg136
(lp843
sg138
g92
sg139
Nsg140
(lp844
I7
aI9
asg142
Nsg143
g842
sg144
(lp845
sg146
g59
sg147
Nsg148
Nsg149
Nsbag3
(g4
g5
NtRp846
(dp847
g8
g10
sg127
Nsg128
(dp848
sg130
Nsg25
g27
sg131
(lp849
I7
aI10
asg133
Nsg134
VEsther Rabbah 7:10
p850
sg136
(lp851
sg138
g92
sg139
Nsg140
(lp852
I7
aI10
asg142
Nsg143
g850
sg144
(lp853
sg146
g59
sg147
Nsg148
Nsg149
Nsbag3
(g4
g5
NtRp854
(dp855
g8
g10
sg127
Nsg128
(dp856
sg130
Nsg25
g27
sg131
(lp857
I7
aI11
asg133
Nsg134
VEsther Rabbah 7:11
p858
sg136
(lp859
sg138
g92
sg139
Nsg140
(lp860
I7
aI11
asg142
Nsg143
g858
sg144
(lp861
sg146
g59
sg147
Nsg148
Nsg149
Nsbag3
(g4
g5
NtRp862
(dp863
g8
g10
sg127
Nsg128
(dp864
sg130
Nsg25
g27
sg131
(lp865
I7
aI12
asg133
Nsg134
VEsther Rabbah 7:12
p866
sg136
(lp867
sg138
g92
sg139
Nsg140
(lp868
I7
aI12
asg142
Nsg143
g866
sg144
(lp869
sg146
g59
sg147
Nsg148
Nsg149
Nsbag3
(g4
g5
NtRp870
(dp871
g8
g10
sg127
Nsg128
(dp872
sg130
Nsg25
g27
sg131
(lp873
I7
aI13
asg133
Nsg134
VEsther Rabbah 7:13
p874
sg136
(lp875
sg138
g92
sg139
Nsg140
(lp876
I7
aI13
asg142
Nsg143
g874
sg144
(lp877
sg146
g59
sg147
Nsg148
Nsg149
Nsbag3
(g4
g5
NtRp878
(dp879
g8
g10
sg127
Nsg128
(dp880
sg130
Nsg25
g27
sg131
(lp881
I7
aI14
asg133
Nsg134
VEsther Rabbah 7:14
p882
sg136
(lp883
sg138
g92
sg139
Nsg140
(lp884
I7
aI14
asg142
Nsg143
g882
sg144
(lp885
sg146
g59
sg147
Nsg148
Nsg149
Nsbag3
(g4
g5
NtRp886
(dp887
g8
g10
sg127
Nsg128
(dp888
sg130
Nsg25
g27
sg131
(lp889
I7
aI15
asg133
Nsg134
VEsther Rabbah 7:15
p890
sg136
(lp891
sg138
g92
sg139
Nsg140
(lp892
I7
aI15
asg142
Nsg143
g890
sg144
(lp893
sg146
g59
sg147
Nsg148
Nsg149
Nsbag3
(g4
g5
NtRp894
(dp895
g8
g10
sg127
Nsg128
(dp896
sg130
Nsg25
g27
sg131
(lp897
I7
aI16
asg133
Nsg134
VEsther Rabbah 7:16
p898
sg136
(lp899
sg138
g92
sg139
Nsg140
(lp900
I7
aI16
asg142
Nsg143
g898
sg144
(lp901
sg146
g59
sg147
Nsg148
Nsg149
Nsbag3
(g4
g5
NtRp902
(dp903
g8
g10
sg127
Nsg128
(dp904
sg130
Nsg25
g27
sg131
(lp905
I7
aI17
asg133
Nsg134
VEsther Rabbah 7:17
p906
sg136
(lp907
sg138
g92
sg139
Nsg140
(lp908
I7
aI17
asg142
Nsg143
g906
sg144
(lp909
sg146
g59
sg147
Nsg148
Nsg149
Nsbag3
(g4
g5
NtRp910
(dp911
g8
g10
sg127
Nsg128
(dp912
sg130
Nsg25
g27
sg131
(lp913
I7
aI18
asg133
Nsg134
VEsther Rabbah 7:18
p914
sg136
(lp915
sg138
g92
sg139
Nsg140
(lp916
I7
aI18
asg142
Nsg143
g914
sg144
(lp917
sg146
g59
sg147
Nsg148
Nsg149
Nsbag3
(g4
g5
NtRp918
(dp919
g8
g10
sg127
Nsg128
(dp920
sg130
Nsg25
g27
sg131
(lp921
I7
aI19
asg133
Nsg134
VEsther Rabbah 7:19
p922
sg136
(lp923
sg138
g92
sg139
Nsg140
(lp924
I7
aI19
asg142
Nsg143
g922
sg144
(lp925
sg146
g59
sg147
Nsg148
Nsg149
Nsbag3
(g4
g5
NtRp926
(dp927
g8
g10
sg127
Nsg128
(dp928
sg130
Nsg25
g27
sg131
(lp929
I7
aI20
asg133
Nsg134
VEsther Rabbah 7:20
p930
sg136
(lp931
sg138
g92
sg139
Nsg140
(lp932
I7
aI20
asg142
Nsg143
g930
sg144
(lp933
sg146
g59
sg147
Nsg148
Nsg149
Nsbag3
(g4
g5
NtRp934
(dp935
g8
g10
sg127
Nsg128
(dp936
sg130
Nsg25
g27
sg131
(lp937
I7
aI21
asg133
Nsg134
VEsther Rabbah 7:21
p938
sg136
(lp939
sg138
g92
sg139
Nsg140
(lp940
I7
aI21
asg142
Nsg143
g938
sg144
(lp941
sg146
g59
sg147
Nsg148
Nsg149
Nsbag3
(g4
g5
NtRp942
(dp943
g8
g10
sg127
Nsg128
(dp944
sg130
Nsg25
g27
sg131
(lp945
I7
aI22
asg133
Nsg134
VEsther Rabbah 7:22
p946
sg136
(lp947
sg138
g92
sg139
Nsg140
(lp948
I7
aI22
asg142
Nsg143
g946
sg144
(lp949
sg146
g59
sg147
Nsg148
Nsg149
Nsbag3
(g4
g5
NtRp950
(dp951
g8
g10
sg127
Nsg128
(dp952
sg130
Nsg25
g27
sg131
(lp953
I7
aI23
asg133
Nsg134
VEsther Rabbah 7:23
p954
sg136
(lp955
sg138
g92
sg139
Nsg140
(lp956
I7
aI23
asg142
Nsg143
g954
sg144
(lp957
sg146
g59
sg147
Nsg148
Nsg149
Nsbag3
(g4
g5
NtRp958
(dp959
g8
g10
sg127
Nsg128
(dp960
sg130
Nsg25
g27
sg131
(lp961
I7
aI24
asg133
Nsg134
VEsther Rabbah 7:24
p962
sg136
(lp963
sg138
g92
sg139
Nsg140
(lp964
I7
aI24
asg142
Nsg143
g962
sg144
(lp965
sg146
g59
sg147
Nsg148
Nsg149
Nsbag3
(g4
g5
NtRp966
(dp967
g8
g10
sg127
Nsg128
(dp968
sg130
Nsg25
g27
sg131
(lp969
I7
aI25
asg133
Nsg134
VEsther Rabbah 7:25
p970
sg136
(lp971
sg138
g92
sg139
Nsg140
(lp972
I7
aI25
asg142
Nsg143
g970
sg144
(lp973
sg146
g59
sg147
Nsg148
Nsg149
Nsbag3
(g4
g5
NtRp974
(dp975
g8
g10
sg127
Nsg128
(dp976
sg130
Nsg25
g27
sg131
(lp977
I8
aI1
asg133
Nsg134
VEsther Rabbah 8:1
p978
sg136
(lp979
sg138
g92
sg139
Nsg140
(lp980
I8
aI1
asg142
Nsg143
g978
sg144
(lp981
sg146
g59
sg147
Nsg148
Nsg149
Nsbag3
(g4
g5
NtRp982
(dp983
g8
g10
sg127
Nsg128
(dp984
sg130
Nsg25
g27
sg131
(lp985
I8
aI2
asg133
Nsg134
VEsther Rabbah 8:2
p986
sg136
(lp987
sg138
g92
sg139
Nsg140
(lp988
I8
aI2
asg142
Nsg143
g986
sg144
(lp989
sg146
g59
sg147
Nsg148
Nsg149
Nsbag3
(g4
g5
NtRp990
(dp991
g8
g10
sg127
Nsg128
(dp992
sg130
Nsg25
g27
sg131
(lp993
I8
aI3
asg133
Nsg134
VEsther Rabbah 8:3
p994
sg136
(lp995
sg138
g92
sg139
Nsg140
(lp996
I8
aI3
asg142
Nsg143
g994
sg144
(lp997
sg146
g59
sg147
Nsg148
Nsg149
Nsbag3
(g4
g5
NtRp998
(dp999
g8
g10
sg127
Nsg128
(dp1000
sg130
Nsg25
g27
sg131
(lp1001
I8
aI4
asg133
Nsg134
VEsther Rabbah 8:4
p1002
sg136
(lp1003
sg138
g92
sg139
Nsg140
(lp1004
I8
aI4
asg142
Nsg143
g1002
sg144
(lp1005
sg146
g59
sg147
Nsg148
Nsg149
Nsbag3
(g4
g5
NtRp1006
(dp1007
g8
g10
sg127
Nsg128
(dp1008
sg130
Nsg25
g27
sg131
(lp1009
I8
aI5
asg133
Nsg134
VEsther Rabbah 8:5
p1010
sg136
(lp1011
sg138
g92
sg139
Nsg140
(lp1012
I8
aI5
asg142
Nsg143
g1010
sg144
(lp1013
sg146
g59
sg147
Nsg148
Nsg149
Nsbag3
(g4
g5
NtRp1014
(dp1015
g8
g10
sg127
Nsg128
(dp1016
sg130
Nsg25
g27
sg131
(lp1017
I8
aI6
asg133
Nsg134
VEsther Rabbah 8:6
p1018
sg136
(lp1019
sg138
g92
sg139
Nsg140
(lp1020
I8
aI6
asg142
Nsg143
g1018
sg144
(lp1021
sg146
g59
sg147
Nsg148
Nsg149
Nsbag3
(g4
g5
NtRp1022
(dp1023
g8
g10
sg127
Nsg128
(dp1024
sg130
Nsg25
g27
sg131
(lp1025
I8
aI7
asg133
Nsg134
VEsther Rabbah 8:7
p1026
sg136
(lp1027
sg138
g92
sg139
Nsg140
(lp1028
I8
aI7
asg142
Nsg143
g1026
sg144
(lp1029
sg146
g59
sg147
Nsg148
Nsg149
Nsbag3
(g4
g5
NtRp1030
(dp1031
g8
g10
sg127
Nsg128
(dp1032
sg130
Nsg25
g27
sg131
(lp1033
I9
aI1
asg133
Nsg134
VEsther Rabbah 9:1
p1034
sg136
(lp1035
sg138
g92
sg139
Nsg140
(lp1036
I9
aI1
asg142
Nsg143
g1034
sg144
(lp1037
sg146
g59
sg147
Nsg148
Nsg149
Nsbag3
(g4
g5
NtRp1038
(dp1039
g8
g10
sg127
Nsg128
(dp1040
sg130
Nsg25
g27
sg131
(lp1041
I9
aI2
asg133
Nsg134
VEsther Rabbah 9:2
p1042
sg136
(lp1043
sg138
g92
sg139
Nsg140
(lp1044
I9
aI2
asg142
Nsg143
g1042
sg144
(lp1045
sg146
g59
sg147
Nsg148
Nsg149
Nsbag3
(g4
g5
NtRp1046
(dp1047
g8
g10
sg127
Nsg128
(dp1048
sg130
Nsg25
g27
sg131
(lp1049
I9
aI3
asg133
Nsg134
VEsther Rabbah 9:3
p1050
sg136
(lp1051
sg138
g92
sg139
Nsg140
(lp1052
I9
aI3
asg142
Nsg143
g1050
sg144
(lp1053
sg146
g59
sg147
Nsg148
Nsg149
Nsbag3
(g4
g5
NtRp1054
(dp1055
g8
g10
sg127
Nsg128
(dp1056
sg130
Nsg25
g27
sg131
(lp1057
I9
aI4
asg133
Nsg134
VEsther Rabbah 9:4
p1058
sg136
(lp1059
sg138
g92
sg139
Nsg140
(lp1060
I9
aI4
asg142
Nsg143
g1058
sg144
(lp1061
sg146
g59
sg147
Nsg148
Nsg149
Nsbag3
(g4
g5
NtRp1062
(dp1063
g8
g10
sg127
Nsg128
(dp1064
sg130
Nsg25
g27
sg131
(lp1065
I10
aI1
asg133
Nsg134
VEsther Rabbah 10:1
p1066
sg136
(lp1067
sg138
g92
sg139
Nsg140
(lp1068
I10
aI1
asg142
Nsg143
g1066
sg144
(lp1069
sg146
g59
sg147
Nsg148
Nsg149
Nsbag3
(g4
g5
NtRp1070
(dp1071
g8
g10
sg127
Nsg128
(dp1072
sg130
Nsg25
g27
sg131
(lp1073
I10
aI2
asg133
Nsg134
VEsther Rabbah 10:2
p1074
sg136
(lp1075
sg138
g92
sg139
Nsg140
(lp1076
I10
aI2
asg142
Nsg143
g1074
sg144
(lp1077
sg146
g59
sg147
Nsg148
Nsg149
Nsbag3
(g4
g5
NtRp1078
(dp1079
g8
g10
sg127
Nsg128
(dp1080
sg130
Nsg25
g27
sg131
(lp1081
I10
aI3
asg133
Nsg134
VEsther Rabbah 10:3
p1082
sg136
(lp1083
sg138
g92
sg139
Nsg140
(lp1084
I10
aI3
asg142
Nsg143
g1082
sg144
(lp1085
sg146
g59
sg147
Nsg148
Nsg149
Nsbag3
(g4
g5
NtRp1086
(dp1087
g8
g10
sg127
Nsg128
(dp1088
sg130
Nsg25
g27
sg131
(lp1089
I10
aI4
asg133
Nsg134
VEsther Rabbah 10:4
p1090
sg136
(lp1091
sg138
g92
sg139
Nsg140
(lp1092
I10
aI4
asg142
Nsg143
g1090
sg144
(lp1093
sg146
g59
sg147
Nsg148
Nsg149
Nsbag3
(g4
g5
NtRp1094
(dp1095
g8
g10
sg127
Nsg128
(dp1096
sg130
Nsg25
g27
sg131
(lp1097
I10
aI5
asg133
Nsg134
VEsther Rabbah 10:5
p1098
sg136
(lp1099
sg138
g92
sg139
Nsg140
(lp1100
I10
aI5
asg142
Nsg143
g1098
sg144
(lp1101
sg146
g59
sg147
Nsg148
Nsg149
Nsbag3
(g4
g5
NtRp1102
(dp1103
g8
g10
sg127
Nsg128
(dp1104
sg130
Nsg25
g27
sg131
(lp1105
I10
aI6
asg133
Nsg134
VEsther Rabbah 10:6
p1106
sg136
(lp1107
sg138
g92
sg139
Nsg140
(lp1108
I10
aI6
asg142
Nsg143
g1106
sg144
(lp1109
sg146
g59
sg147
Nsg148
Nsg149
Nsbag3
(g4
g5
NtRp1110
(dp1111
g8
g10
sg127
Nsg128
(dp1112
sg130
Nsg25
g27
sg131
(lp1113
I10
aI7
asg133
Nsg134
VEsther Rabbah 10:7
p1114
sg136
(lp1115
sg138
g92
sg139
Nsg140
(lp1116
I10
aI7
asg142
Nsg143
g1114
sg144
(lp1117
sg146
g59
sg147
Nsg148
Nsg149
Nsbag3
(g4
g5
NtRp1118
(dp1119
g8
g10
sg127
Nsg128
(dp1120
sg130
Nsg25
g27
sg131
(lp1121
I10
aI8
asg133
Nsg134
VEsther Rabbah 10:8
p1122
sg136
(lp1123
sg138
g92
sg139
Nsg140
(lp1124
I10
aI8
asg142
Nsg143
g1122
sg144
(lp1125
sg146
g59
sg147
Nsg148
Nsg149
Nsbag3
(g4
g5
NtRp1126
(dp1127
g8
g10
sg127
Nsg128
(dp1128
sg130
Nsg25
g27
sg131
(lp1129
I10
aI9
asg133
Nsg134
VEsther Rabbah 10:9
p1130
sg136
(lp1131
sg138
g92
sg139
Nsg140
(lp1132
I10
aI9
asg142
Nsg143
g1130
sg144
(lp1133
sg146
g59
sg147
Nsg148
Nsg149
Nsbag3
(g4
g5
NtRp1134
(dp1135
g8
g10
sg127
Nsg128
(dp1136
sg130
Nsg25
g27
sg131
(lp1137
I10
aI10
asg133
Nsg134
VEsther Rabbah 10:10
p1138
sg136
(lp1139
sg138
g92
sg139
Nsg140
(lp1140
I10
aI10
asg142
Nsg143
g1138
sg144
(lp1141
sg146
g59
sg147
Nsg148
Nsg149
Nsbag3
(g4
g5
NtRp1142
(dp1143
g8
g10
sg127
Nsg128
(dp1144
sg130
Nsg25
g27
sg131
(lp1145
I10
aI11
asg133
Nsg134
VEsther Rabbah 10:11
p1146
sg136
(lp1147
sg138
g92
sg139
Nsg140
(lp1148
I10
aI11
asg142
Nsg143
g1146
sg144
(lp1149
sg146
g59
sg147
Nsg148
Nsg149
Nsbag3
(g4
g5
NtRp1150
(dp1151
g8
g10
sg127
Nsg128
(dp1152
sg130
Nsg25
g27
sg131
(lp1153
I10
aI12
asg133
Nsg134
VEsther Rabbah 10:12
p1154
sg136
(lp1155
sg138
g92
sg139
Nsg140
(lp1156
I10
aI12
asg142
Nsg143
g1154
sg144
(lp1157
sg146
g59
sg147
Nsg148
Nsg149
Nsbag3
(g4
g5
NtRp1158
(dp1159
g8
g10
sg127
Nsg128
(dp1160
sg130
Nsg25
g27
sg131
(lp1161
I10
aI13
asg133
Nsg134
VEsther Rabbah 10:13
p1162
sg136
(lp1163
sg138
g92
sg139
Nsg140
(lp1164
I10
aI13
asg142
Nsg143
g1162
sg144
(lp1165
sg146
g59
sg147
Nsg148
Nsg149
Nsbag3
(g4
g5
NtRp1166
(dp1167
g8
g10
sg127
Nsg128
(dp1168
sg130
Nsg25
g27
sg131
(lp1169
I10
aI14
asg133
Nsg134
VEsther Rabbah 10:14
p1170
sg136
(lp1171
sg138
g92
sg139
Nsg140
(lp1172
I10
aI14
asg142
Nsg143
g1170
sg144
(lp1173
sg146
g59
sg147
Nsg148
Nsg149
Nsbag3
(g4
g5
NtRp1174
(dp1175
g8
g10
sg127
Nsg128
(dp1176
sg130
Nsg25
g27
sg131
(lp1177
I10
aI15
asg133
Nsg134
VEsther Rabbah 10:15
p1178
sg136
(lp1179
sg138
g92
sg139
Nsg140
(lp1180
I10
aI15
asg142
Nsg143
g1178
sg144
(lp1181
sg146
g59
sg147
Nsg148
Nsg149
NsbaI19371
t.