((lp1
I0
aI336
aI580
aI893
aI1535
aI1623
aI1696
aI1753
aI2085
aI2463
aI2611
aI2702
aI2905
aI3036
aI3141
aI3252
aI3290
aI3465
aI3543
aI3613
aI3704
aI3845
aI3921
aI4065
aI4396
aI4777
aI4822
aI4918
aI5281
aI5433
aI5751
aI6032
aI6137
aI6460
aI6594
aI6910
aI7323
aI7764
aI7766
aI8000
aI8135
aI8299
aI8364
aI8517
aI8626
aI8662
aI8706
aI8767
aI8789
aI8884
aI9215
aI9393
aI9440
aI9502
aI9833
aI9855
aI9908
aI9992
aI10074
aI10182
aI10258
aI10361
aI10560
aI10629
aI10912
aI11006
aI11204
aI11261
aI11305
aI11550
aI11674
aI11775
aI11933
aI12443
aI12459
aI12475
aI12511
aI12614
aI12650
aI12665
aI12906
aI13240
aI13547
aI13971
aI14448
aI14935
aI15003
aI15589
aI16101
aI16750
aI16929
aI17134
aI17241
aI17401
aI17540
aI17566
aI17865
aI17885
aI18283
aI18329
aI18736
aI18748
aI19132
aI19604
aI19699
aI19819
aI19844
aI19866
aI20127
aI20675
aI20832
aI21116
aI21672
aI21801
aI21927
aI22058
aI22106
aI22406
aI22992
aI23955
aI24103
aI24279
aI24315
aI24421
aI24570
aI24659
aI24725
aI24921
aI25011
aI25095
aI25136
aI25164
aI25203
aI25285
aI25388
aI25558
aI25572
aI25644
aI25838
aI25898
aI25914
aI26159
aI26271
aI26414
aI27635
aI28253
aI28364
aI28394
aI28439
aI28469
aI28922
aI29897
aI29927
aI29929
aI30898
aI30900
aI31018
aI31287
aI31452
aI31600
aI31634
aI31656
aI32107
aI32148
aI32150
aI32152
aI33000
aI33002
aI33004
aI33377
aI33451
aI33558
aI33593
aI33673
aI33808
aI33932
aI34075
aI34208
aI34318
aI34348
aI34393
aI34424
aI34481
aI34877
aI35852
aI35882
aI36852
aI36971
aI37083
aI37144
aI37239
aI37405
aI37554
aI37589
aI37612
aI37680
aI37770
aI37876
aI38061
aI38102
aI38524
aI38583
aI38778
aI38947
aI39060
aI39170
aI39318
aI39393
aI39500
aI39536
aI39600
aI39777
aI39843
aI40051
aI40176
aI40205
aI40292
aI40418
aI40446
aI40469
aI40768
aI40861
aI41031
aI41059
aI41085
aI41143
aI41186
aI41296
aI41531
aI41745
aI41746
aI41747
aI41874
aI41922
aI42666
aI43032
aI43361
aI43747
aI43899
aI44074
aI44581
aI44826
aI45054
aI45192
aI45224
aI45301
aI45380
aI45479
aI45571
aI45654
aI45714
aI45799
aI45900
aI45976
aI46039
aI46140
aI46500
aI46634
aI46741
aI46893
aI47014
aI47032
aI47516
aI47708
aI47738
aI47869
aI48254
aI48315
aI48553
aI48757
aI48781
aI48832
aI48863
aI48988
aI49352
aI49489
aI49579
aI50002
aI50988
aI51486
aI51675
aI51677
aI51775
aI51956
aI51989
aI52018
aI52489
aI52611
aI52657
aI52697
aI52742
aI53013
aI53124
aI54139
aI54141
aI54179
aI54351
aI54743
aI54776
aI54964
a(lp2
ccopy_reg
_reconstructor
p3
(csefaria.model.text
Ref
p4
c__builtin__
object
p5
NtRp6
(dp7
S'index_node'
p8
g3
(csefaria.model.schema
JaggedArrayNode
p9
g5
NtRp10
(dp11
S'_address'
p12
(lp13
VKohelet Rabbah
p14
asS'_full_titles'
p15
(dp16
sVnodeType
p17
VJaggedArrayNode
p18
sS'parent'
p19
NsVaddressTypes
p20
(lp21
VInteger
p22
aVInteger
p23
aVInteger
p24
asS'default'
p25
I00
sS'index'
p26
g3
(csefaria.model.text
Index
p27
g5
NtRp28
(dp29
S'_id'
p30
g3
(cbson.objectid
ObjectId
p31
g5
NtRp32
S'Q \x86\x1e\xed\xba\xb4?\x90\x16\x87v'
p33
bsS'pkeys_orig_values'
p34
(dp35
S'title'
p36
VKohelet Rabbah
p37
ssS'pubDate'
p38
V1519
p39
sS'compDate'
p40
V825
p41
sS'pubPlace'
p42
VIstanbul
p43
sS'compPlace'
p44
VTalmudic Israel/Babylon
p45
sS'enDesc'
p46
VKohelet Rabbah (The Great Ecclesiastes) is a haggadic commentary on Ecclesiastes. It follows the Biblical book verse by verse, only a few verses remaining without comment. The author confined himself chiefly to collecting and editing earlier sources including Bereshit  Rabbah, Pesi\u1e33ta, Ekhah Rabbah, Vayi\u1e33ra Rabbah, Shir ha-Shirim Rabbah, the Jerusalem and Babylonian Talmud as well as others sources. The editor probably lived between the 6th and 8th centuries.
p47
sS'order'
p48
(lp49
F9
asS'era'
p50
VGN
p51
sS'struct_objs'
p52
(dp53
sS'nodes'
p54
g10
sS'errorMargin'
p55
V125
p56
sS'_title'
p57
g37
sS'categories'
p58
(lp59
VMidrash
p60
aVAggadic Midrash
p61
aVMidrash Rabbah
p62
asS'schema'
p63
(dp64
g17
g18
sg20
g21
sVdepth
p65
I3
sVtitles
p66
(lp67
(dp68
Vlang
p69
Ven
p70
sVtext
p71
VKoheleth Rabbah
p72
sa(dp73
Vlang
p74
Ven
p75
sVtext
p76
VKohelet Rabba
p77
sa(dp78
Vlang
p79
Vhe
p80
sVtext
p81
V\u05e7\u05d5\u05d4\u05dc\u05ea \u05e8\u05d1\u05d4
p82
sVprimary
p83
I01
sa(dp84
Vlang
p85
Ven
p86
sVtext
p87
VKoheleth Rabba
p88
sa(dp89
Vlang
p90
Ven
p91
sVtext
p92
VKohelet Rabbah
p93
sVprimary
p94
I01
sasVkey
p95
g14
sVsectionNames
p96
(lp97
VParasha
p98
aVPerek
p99
aVMidrash
p100
assbsS'_primary_title'
p101
(dp102
sS'title_group'
p103
g3
(csefaria.model.schema
TitleGroup
p104
g5
NtRp105
(dp106
g101
(dp107
S'en'
p108
g93
ssS'titles'
p109
g67
sbsS'_addressTypes'
p110
(lp111
g3
(csefaria.model.schema
AddressInteger
p112
g5
NtRp113
(dp114
S'length'
p115
Nsg48
I0
sbag3
(g112
g5
NtRp116
(dp117
g115
Nsg48
I1
sbag3
(g112
g5
NtRp118
(dp119
g115
Nsg48
I2
sbasS'sharedTitle'
p120
Nsg65
I3
sS'_full_title'
p121
(dp122
g108
g93
ssS'key'
p123
g14
sS'checkFirst'
p124
NsS'_regexes'
p125
(dp126
sS'_leaf_nodes'
p127
(lp128
sg96
g97
sS'children'
p129
(lp130
sbsS'_range_index'
p131
NsS'_context'
p132
(dp133
sS'_padded'
p134
Nsg26
g28
sS'sections'
p135
(lp136
I1
aI1
aI1
asS'_first_spanned_ref'
p137
NsS'tref'
p138
VKohelet Rabbah 1:1:1
p139
sS'_spanned_refs'
p140
(lp141
sS'book'
p142
g93
sS'_range_depth'
p143
NsS'toSections'
p144
(lp145
I1
aI1
aI1
asS'_url'
p146
NsS'_normal'
p147
g139
sS'_ranged_refs'
p148
(lp149
sS'type'
p150
g60
sS'_prev'
p151
NsS'_he_normal'
p152
NsS'_next'
p153
Nsbag3
(g4
g5
NtRp154
(dp155
g8
g10
sg131
Nsg132
(dp156
sg134
Nsg26
g28
sg135
(lp157
I1
aI1
aI2
asg137
Nsg138
VKohelet Rabbah 1:1:2
p158
sg140
(lp159
sg142
g93
sg143
Nsg144
(lp160
I1
aI1
aI2
asg146
Nsg147
g158
sg148
(lp161
sg150
g60
sg151
Nsg152
Nsg153
Nsbag3
(g4
g5
NtRp162
(dp163
g8
g10
sg131
Nsg132
(dp164
sg134
Nsg26
g28
sg135
(lp165
I1
aI2
aI1
asg137
Nsg138
VKohelet Rabbah 1:2:1
p166
sg140
(lp167
sg142
g93
sg143
Nsg144
(lp168
I1
aI2
aI1
asg146
Nsg147
g166
sg148
(lp169
sg150
g60
sg151
Nsg152
Nsg153
Nsbag3
(g4
g5
NtRp170
(dp171
g8
g10
sg131
Nsg132
(dp172
sg134
Nsg26
g28
sg135
(lp173
I1
aI3
aI1
asg137
Nsg138
VKohelet Rabbah 1:3:1
p174
sg140
(lp175
sg142
g93
sg143
Nsg144
(lp176
I1
aI3
aI1
asg146
Nsg147
g174
sg148
(lp177
sg150
g60
sg151
Nsg152
Nsg153
Nsbag3
(g4
g5
NtRp178
(dp179
g8
g10
sg131
Nsg132
(dp180
sg134
Nsg26
g28
sg135
(lp181
I1
aI4
aI1
asg137
Nsg138
VKohelet Rabbah 1:4:1
p182
sg140
(lp183
sg142
g93
sg143
Nsg144
(lp184
I1
aI4
aI1
asg146
Nsg147
g182
sg148
(lp185
sg150
g60
sg151
Nsg152
Nsg153
Nsbag3
(g4
g5
NtRp186
(dp187
g8
g10
sg131
Nsg132
(dp188
sg134
Nsg26
g28
sg135
(lp189
I1
aI4
aI2
asg137
Nsg138
VKohelet Rabbah 1:4:2
p190
sg140
(lp191
sg142
g93
sg143
Nsg144
(lp192
I1
aI4
aI2
asg146
Nsg147
g190
sg148
(lp193
sg150
g60
sg151
Nsg152
Nsg153
Nsbag3
(g4
g5
NtRp194
(dp195
g8
g10
sg131
Nsg132
(dp196
sg134
Nsg26
g28
sg135
(lp197
I1
aI4
aI3
asg137
Nsg138
VKohelet Rabbah 1:4:3
p198
sg140
(lp199
sg142
g93
sg143
Nsg144
(lp200
I1
aI4
aI3
asg146
Nsg147
g198
sg148
(lp201
sg150
g60
sg151
Nsg152
Nsg153
Nsbag3
(g4
g5
NtRp202
(dp203
g8
g10
sg131
Nsg132
(dp204
sg134
Nsg26
g28
sg135
(lp205
I1
aI4
aI4
asg137
Nsg138
VKohelet Rabbah 1:4:4
p206
sg140
(lp207
sg142
g93
sg143
Nsg144
(lp208
I1
aI4
aI4
asg146
Nsg147
g206
sg148
(lp209
sg150
g60
sg151
Nsg152
Nsg153
Nsbag3
(g4
g5
NtRp210
(dp211
g8
g10
sg131
Nsg132
(dp212
sg134
Nsg26
g28
sg135
(lp213
I1
aI4
aI5
asg137
Nsg138
VKohelet Rabbah 1:4:5
p214
sg140
(lp215
sg142
g93
sg143
Nsg144
(lp216
I1
aI4
aI5
asg146
Nsg147
g214
sg148
(lp217
sg150
g60
sg151
Nsg152
Nsg153
Nsbag3
(g4
g5
NtRp218
(dp219
g8
g10
sg131
Nsg132
(dp220
sg134
Nsg26
g28
sg135
(lp221
I1
aI5
aI1
asg137
Nsg138
VKohelet Rabbah 1:5:1
p222
sg140
(lp223
sg142
g93
sg143
Nsg144
(lp224
I1
aI5
aI1
asg146
Nsg147
g222
sg148
(lp225
sg150
g60
sg151
Nsg152
Nsg153
Nsbag3
(g4
g5
NtRp226
(dp227
g8
g10
sg131
Nsg132
(dp228
sg134
Nsg26
g28
sg135
(lp229
I1
aI5
aI2
asg137
Nsg138
VKohelet Rabbah 1:5:2
p230
sg140
(lp231
sg142
g93
sg143
Nsg144
(lp232
I1
aI5
aI2
asg146
Nsg147
g230
sg148
(lp233
sg150
g60
sg151
Nsg152
Nsg153
Nsbag3
(g4
g5
NtRp234
(dp235
g8
g10
sg131
Nsg132
(dp236
sg134
Nsg26
g28
sg135
(lp237
I1
aI6
aI1
asg137
Nsg138
VKohelet Rabbah 1:6:1
p238
sg140
(lp239
sg142
g93
sg143
Nsg144
(lp240
I1
aI6
aI1
asg146
Nsg147
g238
sg148
(lp241
sg150
g60
sg151
Nsg152
Nsg153
Nsbag3
(g4
g5
NtRp242
(dp243
g8
g10
sg131
Nsg132
(dp244
sg134
Nsg26
g28
sg135
(lp245
I1
aI7
aI1
asg137
Nsg138
VKohelet Rabbah 1:7:1
p246
sg140
(lp247
sg142
g93
sg143
Nsg144
(lp248
I1
aI7
aI1
asg146
Nsg147
g246
sg148
(lp249
sg150
g60
sg151
Nsg152
Nsg153
Nsbag3
(g4
g5
NtRp250
(dp251
g8
g10
sg131
Nsg132
(dp252
sg134
Nsg26
g28
sg135
(lp253
I1
aI7
aI2
asg137
Nsg138
VKohelet Rabbah 1:7:2
p254
sg140
(lp255
sg142
g93
sg143
Nsg144
(lp256
I1
aI7
aI2
asg146
Nsg147
g254
sg148
(lp257
sg150
g60
sg151
Nsg152
Nsg153
Nsbag3
(g4
g5
NtRp258
(dp259
g8
g10
sg131
Nsg132
(dp260
sg134
Nsg26
g28
sg135
(lp261
I1
aI7
aI3
asg137
Nsg138
VKohelet Rabbah 1:7:3
p262
sg140
(lp263
sg142
g93
sg143
Nsg144
(lp264
I1
aI7
aI3
asg146
Nsg147
g262
sg148
(lp265
sg150
g60
sg151
Nsg152
Nsg153
Nsbag3
(g4
g5
NtRp266
(dp267
g8
g10
sg131
Nsg132
(dp268
sg134
Nsg26
g28
sg135
(lp269
I1
aI7
aI4
asg137
Nsg138
VKohelet Rabbah 1:7:4
p270
sg140
(lp271
sg142
g93
sg143
Nsg144
(lp272
I1
aI7
aI4
asg146
Nsg147
g270
sg148
(lp273
sg150
g60
sg151
Nsg152
Nsg153
Nsbag3
(g4
g5
NtRp274
(dp275
g8
g10
sg131
Nsg132
(dp276
sg134
Nsg26
g28
sg135
(lp277
I1
aI7
aI5
asg137
Nsg138
VKohelet Rabbah 1:7:5
p278
sg140
(lp279
sg142
g93
sg143
Nsg144
(lp280
I1
aI7
aI5
asg146
Nsg147
g278
sg148
(lp281
sg150
g60
sg151
Nsg152
Nsg153
Nsbag3
(g4
g5
NtRp282
(dp283
g8
g10
sg131
Nsg132
(dp284
sg134
Nsg26
g28
sg135
(lp285
I1
aI7
aI6
asg137
Nsg138
VKohelet Rabbah 1:7:6
p286
sg140
(lp287
sg142
g93
sg143
Nsg144
(lp288
I1
aI7
aI6
asg146
Nsg147
g286
sg148
(lp289
sg150
g60
sg151
Nsg152
Nsg153
Nsbag3
(g4
g5
NtRp290
(dp291
g8
g10
sg131
Nsg132
(dp292
sg134
Nsg26
g28
sg135
(lp293
I1
aI7
aI7
asg137
Nsg138
VKohelet Rabbah 1:7:7
p294
sg140
(lp295
sg142
g93
sg143
Nsg144
(lp296
I1
aI7
aI7
asg146
Nsg147
g294
sg148
(lp297
sg150
g60
sg151
Nsg152
Nsg153
Nsbag3
(g4
g5
NtRp298
(dp299
g8
g10
sg131
Nsg132
(dp300
sg134
Nsg26
g28
sg135
(lp301
I1
aI7
aI8
asg137
Nsg138
VKohelet Rabbah 1:7:8
p302
sg140
(lp303
sg142
g93
sg143
Nsg144
(lp304
I1
aI7
aI8
asg146
Nsg147
g302
sg148
(lp305
sg150
g60
sg151
Nsg152
Nsg153
Nsbag3
(g4
g5
NtRp306
(dp307
g8
g10
sg131
Nsg132
(dp308
sg134
Nsg26
g28
sg135
(lp309
I1
aI7
aI9
asg137
Nsg138
VKohelet Rabbah 1:7:9
p310
sg140
(lp311
sg142
g93
sg143
Nsg144
(lp312
I1
aI7
aI9
asg146
Nsg147
g310
sg148
(lp313
sg150
g60
sg151
Nsg152
Nsg153
Nsbag3
(g4
g5
NtRp314
(dp315
g8
g10
sg131
Nsg132
(dp316
sg134
Nsg26
g28
sg135
(lp317
I1
aI8
aI1
asg137
Nsg138
VKohelet Rabbah 1:8:1
p318
sg140
(lp319
sg142
g93
sg143
Nsg144
(lp320
I1
aI8
aI1
asg146
Nsg147
g318
sg148
(lp321
sg150
g60
sg151
Nsg152
Nsg153
Nsbag3
(g4
g5
NtRp322
(dp323
g8
g10
sg131
Nsg132
(dp324
sg134
Nsg26
g28
sg135
(lp325
I1
aI8
aI2
asg137
Nsg138
VKohelet Rabbah 1:8:2
p326
sg140
(lp327
sg142
g93
sg143
Nsg144
(lp328
I1
aI8
aI2
asg146
Nsg147
g326
sg148
(lp329
sg150
g60
sg151
Nsg152
Nsg153
Nsbag3
(g4
g5
NtRp330
(dp331
g8
g10
sg131
Nsg132
(dp332
sg134
Nsg26
g28
sg135
(lp333
I1
aI8
aI3
asg137
Nsg138
VKohelet Rabbah 1:8:3
p334
sg140
(lp335
sg142
g93
sg143
Nsg144
(lp336
I1
aI8
aI3
asg146
Nsg147
g334
sg148
(lp337
sg150
g60
sg151
Nsg152
Nsg153
Nsbag3
(g4
g5
NtRp338
(dp339
g8
g10
sg131
Nsg132
(dp340
sg134
Nsg26
g28
sg135
(lp341
I1
aI8
aI4
asg137
Nsg138
VKohelet Rabbah 1:8:4
p342
sg140
(lp343
sg142
g93
sg143
Nsg144
(lp344
I1
aI8
aI4
asg146
Nsg147
g342
sg148
(lp345
sg150
g60
sg151
Nsg152
Nsg153
Nsbag3
(g4
g5
NtRp346
(dp347
g8
g10
sg131
Nsg132
(dp348
sg134
Nsg26
g28
sg135
(lp349
I1
aI8
aI5
asg137
Nsg138
VKohelet Rabbah 1:8:5
p350
sg140
(lp351
sg142
g93
sg143
Nsg144
(lp352
I1
aI8
aI5
asg146
Nsg147
g350
sg148
(lp353
sg150
g60
sg151
Nsg152
Nsg153
Nsbag3
(g4
g5
NtRp354
(dp355
g8
g10
sg131
Nsg132
(dp356
sg134
Nsg26
g28
sg135
(lp357
I1
aI8
aI6
asg137
Nsg138
VKohelet Rabbah 1:8:6
p358
sg140
(lp359
sg142
g93
sg143
Nsg144
(lp360
I1
aI8
aI6
asg146
Nsg147
g358
sg148
(lp361
sg150
g60
sg151
Nsg152
Nsg153
Nsbag3
(g4
g5
NtRp362
(dp363
g8
g10
sg131
Nsg132
(dp364
sg134
Nsg26
g28
sg135
(lp365
I1
aI9
aI1
asg137
Nsg138
VKohelet Rabbah 1:9:1
p366
sg140
(lp367
sg142
g93
sg143
Nsg144
(lp368
I1
aI9
aI1
asg146
Nsg147
g366
sg148
(lp369
sg150
g60
sg151
Nsg152
Nsg153
Nsbag3
(g4
g5
NtRp370
(dp371
g8
g10
sg131
Nsg132
(dp372
sg134
Nsg26
g28
sg135
(lp373
I1
aI10
aI1
asg137
Nsg138
VKohelet Rabbah 1:10:1
p374
sg140
(lp375
sg142
g93
sg143
Nsg144
(lp376
I1
aI10
aI1
asg146
Nsg147
g374
sg148
(lp377
sg150
g60
sg151
Nsg152
Nsg153
Nsbag3
(g4
g5
NtRp378
(dp379
g8
g10
sg131
Nsg132
(dp380
sg134
Nsg26
g28
sg135
(lp381
I1
aI11
aI1
asg137
Nsg138
VKohelet Rabbah 1:11:1
p382
sg140
(lp383
sg142
g93
sg143
Nsg144
(lp384
I1
aI11
aI1
asg146
Nsg147
g382
sg148
(lp385
sg150
g60
sg151
Nsg152
Nsg153
Nsbag3
(g4
g5
NtRp386
(dp387
g8
g10
sg131
Nsg132
(dp388
sg134
Nsg26
g28
sg135
(lp389
I1
aI12
aI1
asg137
Nsg138
VKohelet Rabbah 1:12:1
p390
sg140
(lp391
sg142
g93
sg143
Nsg144
(lp392
I1
aI12
aI1
asg146
Nsg147
g390
sg148
(lp393
sg150
g60
sg151
Nsg152
Nsg153
Nsbag3
(g4
g5
NtRp394
(dp395
g8
g10
sg131
Nsg132
(dp396
sg134
Nsg26
g28
sg135
(lp397
I1
aI13
aI1
asg137
Nsg138
VKohelet Rabbah 1:13:1
p398
sg140
(lp399
sg142
g93
sg143
Nsg144
(lp400
I1
aI13
aI1
asg146
Nsg147
g398
sg148
(lp401
sg150
g60
sg151
Nsg152
Nsg153
Nsbag3
(g4
g5
NtRp402
(dp403
g8
g10
sg131
Nsg132
(dp404
sg134
Nsg26
g28
sg135
(lp405
I1
aI13
aI2
asg137
Nsg138
VKohelet Rabbah 1:13:2
p406
sg140
(lp407
sg142
g93
sg143
Nsg144
(lp408
I1
aI13
aI2
asg146
Nsg147
g406
sg148
(lp409
sg150
g60
sg151
Nsg152
Nsg153
Nsbag3
(g4
g5
NtRp410
(dp411
g8
g10
sg131
Nsg132
(dp412
sg134
Nsg26
g28
sg135
(lp413
I1
aI14
aI1
asg137
Nsg138
VKohelet Rabbah 1:14:1
p414
sg140
(lp415
sg142
g93
sg143
Nsg144
(lp416
I1
aI14
aI1
asg146
Nsg147
g414
sg148
(lp417
sg150
g60
sg151
Nsg152
Nsg153
Nsbag3
(g4
g5
NtRp418
(dp419
g8
g10
sg131
Nsg132
(dp420
sg134
Nsg26
g28
sg135
(lp421
I1
aI15
aI1
asg137
Nsg138
VKohelet Rabbah 1:15:1
p422
sg140
(lp423
sg142
g93
sg143
Nsg144
(lp424
I1
aI15
aI1
asg146
Nsg147
g422
sg148
(lp425
sg150
g60
sg151
Nsg152
Nsg153
Nsbag3
(g4
g5
NtRp426
(dp427
g8
g10
sg131
Nsg132
(dp428
sg134
Nsg26
g28
sg135
(lp429
I1
aI15
aI2
asg137
Nsg138
VKohelet Rabbah 1:15:2
p430
sg140
(lp431
sg142
g93
sg143
Nsg144
(lp432
I1
aI15
aI2
asg146
Nsg147
g430
sg148
(lp433
sg150
g60
sg151
Nsg152
Nsg153
Nsbag3
(g4
g5
NtRp434
(dp435
g8
g10
sg131
Nsg132
(dp436
sg134
Nsg26
g28
sg135
(lp437
I1
aI16
aI1
asg137
Nsg138
VKohelet Rabbah 1:16:1
p438
sg140
(lp439
sg142
g93
sg143
Nsg144
(lp440
I1
aI16
aI1
asg146
Nsg147
g438
sg148
(lp441
sg150
g60
sg151
Nsg152
Nsg153
Nsbag3
(g4
g5
NtRp442
(dp443
g8
g10
sg131
Nsg132
(dp444
sg134
Nsg26
g28
sg135
(lp445
I1
aI17
aI1
asg137
Nsg138
VKohelet Rabbah 1:17:1
p446
sg140
(lp447
sg142
g93
sg143
Nsg144
(lp448
I1
aI17
aI1
asg146
Nsg147
g446
sg148
(lp449
sg150
g60
sg151
Nsg152
Nsg153
Nsbag3
(g4
g5
NtRp450
(dp451
g8
g10
sg131
Nsg132
(dp452
sg134
Nsg26
g28
sg135
(lp453
I1
aI18
aI1
asg137
Nsg138
VKohelet Rabbah 1:18:1
p454
sg140
(lp455
sg142
g93
sg143
Nsg144
(lp456
I1
aI18
aI1
asg146
Nsg147
g454
sg148
(lp457
sg150
g60
sg151
Nsg152
Nsg153
Nsbag3
(g4
g5
NtRp458
(dp459
g8
g10
sg131
Nsg132
(dp460
sg134
Nsg26
g28
sg135
(lp461
I2
aI1
aI1
asg137
Nsg138
VKohelet Rabbah 2:1:1
p462
sg140
(lp463
sg142
g93
sg143
Nsg144
(lp464
I2
aI1
aI1
asg146
Nsg147
g462
sg148
(lp465
sg150
g60
sg151
Nsg152
Nsg153
Nsbag3
(g4
g5
NtRp466
(dp467
g8
g10
sg131
Nsg132
(dp468
sg134
Nsg26
g28
sg135
(lp469
I2
aI2
aI1
asg137
Nsg138
VKohelet Rabbah 2:2:1
p470
sg140
(lp471
sg142
g93
sg143
Nsg144
(lp472
I2
aI2
aI1
asg146
Nsg147
g470
sg148
(lp473
sg150
g60
sg151
Nsg152
Nsg153
Nsbag3
(g4
g5
NtRp474
(dp475
g8
g10
sg131
Nsg132
(dp476
sg134
Nsg26
g28
sg135
(lp477
I2
aI2
aI2
asg137
Nsg138
VKohelet Rabbah 2:2:2
p478
sg140
(lp479
sg142
g93
sg143
Nsg144
(lp480
I2
aI2
aI2
asg146
Nsg147
g478
sg148
(lp481
sg150
g60
sg151
Nsg152
Nsg153
Nsbag3
(g4
g5
NtRp482
(dp483
g8
g10
sg131
Nsg132
(dp484
sg134
Nsg26
g28
sg135
(lp485
I2
aI2
aI3
asg137
Nsg138
VKohelet Rabbah 2:2:3
p486
sg140
(lp487
sg142
g93
sg143
Nsg144
(lp488
I2
aI2
aI3
asg146
Nsg147
g486
sg148
(lp489
sg150
g60
sg151
Nsg152
Nsg153
Nsbag3
(g4
g5
NtRp490
(dp491
g8
g10
sg131
Nsg132
(dp492
sg134
Nsg26
g28
sg135
(lp493
I2
aI2
aI4
asg137
Nsg138
VKohelet Rabbah 2:2:4
p494
sg140
(lp495
sg142
g93
sg143
Nsg144
(lp496
I2
aI2
aI4
asg146
Nsg147
g494
sg148
(lp497
sg150
g60
sg151
Nsg152
Nsg153
Nsbag3
(g4
g5
NtRp498
(dp499
g8
g10
sg131
Nsg132
(dp500
sg134
Nsg26
g28
sg135
(lp501
I2
aI3
aI1
asg137
Nsg138
VKohelet Rabbah 2:3:1
p502
sg140
(lp503
sg142
g93
sg143
Nsg144
(lp504
I2
aI3
aI1
asg146
Nsg147
g502
sg148
(lp505
sg150
g60
sg151
Nsg152
Nsg153
Nsbag3
(g4
g5
NtRp506
(dp507
g8
g10
sg131
Nsg132
(dp508
sg134
Nsg26
g28
sg135
(lp509
I2
aI4
aI1
asg137
Nsg138
VKohelet Rabbah 2:4:1
p510
sg140
(lp511
sg142
g93
sg143
Nsg144
(lp512
I2
aI4
aI1
asg146
Nsg147
g510
sg148
(lp513
sg150
g60
sg151
Nsg152
Nsg153
Nsbag3
(g4
g5
NtRp514
(dp515
g8
g10
sg131
Nsg132
(dp516
sg134
Nsg26
g28
sg135
(lp517
I2
aI5
aI1
asg137
Nsg138
VKohelet Rabbah 2:5:1
p518
sg140
(lp519
sg142
g93
sg143
Nsg144
(lp520
I2
aI5
aI1
asg146
Nsg147
g518
sg148
(lp521
sg150
g60
sg151
Nsg152
Nsg153
Nsbag3
(g4
g5
NtRp522
(dp523
g8
g10
sg131
Nsg132
(dp524
sg134
Nsg26
g28
sg135
(lp525
I2
aI6
aI1
asg137
Nsg138
VKohelet Rabbah 2:6:1
p526
sg140
(lp527
sg142
g93
sg143
Nsg144
(lp528
I2
aI6
aI1
asg146
Nsg147
g526
sg148
(lp529
sg150
g60
sg151
Nsg152
Nsg153
Nsbag3
(g4
g5
NtRp530
(dp531
g8
g10
sg131
Nsg132
(dp532
sg134
Nsg26
g28
sg135
(lp533
I2
aI7
aI1
asg137
Nsg138
VKohelet Rabbah 2:7:1
p534
sg140
(lp535
sg142
g93
sg143
Nsg144
(lp536
I2
aI7
aI1
asg146
Nsg147
g534
sg148
(lp537
sg150
g60
sg151
Nsg152
Nsg153
Nsbag3
(g4
g5
NtRp538
(dp539
g8
g10
sg131
Nsg132
(dp540
sg134
Nsg26
g28
sg135
(lp541
I2
aI8
aI1
asg137
Nsg138
VKohelet Rabbah 2:8:1
p542
sg140
(lp543
sg142
g93
sg143
Nsg144
(lp544
I2
aI8
aI1
asg146
Nsg147
g542
sg148
(lp545
sg150
g60
sg151
Nsg152
Nsg153
Nsbag3
(g4
g5
NtRp546
(dp547
g8
g10
sg131
Nsg132
(dp548
sg134
Nsg26
g28
sg135
(lp549
I2
aI8
aI2
asg137
Nsg138
VKohelet Rabbah 2:8:2
p550
sg140
(lp551
sg142
g93
sg143
Nsg144
(lp552
I2
aI8
aI2
asg146
Nsg147
g550
sg148
(lp553
sg150
g60
sg151
Nsg152
Nsg153
Nsbag3
(g4
g5
NtRp554
(dp555
g8
g10
sg131
Nsg132
(dp556
sg134
Nsg26
g28
sg135
(lp557
I2
aI9
aI1
asg137
Nsg138
VKohelet Rabbah 2:9:1
p558
sg140
(lp559
sg142
g93
sg143
Nsg144
(lp560
I2
aI9
aI1
asg146
Nsg147
g558
sg148
(lp561
sg150
g60
sg151
Nsg152
Nsg153
Nsbag3
(g4
g5
NtRp562
(dp563
g8
g10
sg131
Nsg132
(dp564
sg134
Nsg26
g28
sg135
(lp565
I2
aI10
aI1
asg137
Nsg138
VKohelet Rabbah 2:10:1
p566
sg140
(lp567
sg142
g93
sg143
Nsg144
(lp568
I2
aI10
aI1
asg146
Nsg147
g566
sg148
(lp569
sg150
g60
sg151
Nsg152
Nsg153
Nsbag3
(g4
g5
NtRp570
(dp571
g8
g10
sg131
Nsg132
(dp572
sg134
Nsg26
g28
sg135
(lp573
I2
aI11
aI1
asg137
Nsg138
VKohelet Rabbah 2:11:1
p574
sg140
(lp575
sg142
g93
sg143
Nsg144
(lp576
I2
aI11
aI1
asg146
Nsg147
g574
sg148
(lp577
sg150
g60
sg151
Nsg152
Nsg153
Nsbag3
(g4
g5
NtRp578
(dp579
g8
g10
sg131
Nsg132
(dp580
sg134
Nsg26
g28
sg135
(lp581
I2
aI13
aI1
asg137
Nsg138
VKohelet Rabbah 2:13:1
p582
sg140
(lp583
sg142
g93
sg143
Nsg144
(lp584
I2
aI13
aI1
asg146
Nsg147
g582
sg148
(lp585
sg150
g60
sg151
Nsg152
Nsg153
Nsbag3
(g4
g5
NtRp586
(dp587
g8
g10
sg131
Nsg132
(dp588
sg134
Nsg26
g28
sg135
(lp589
I2
aI14
aI1
asg137
Nsg138
VKohelet Rabbah 2:14:1
p590
sg140
(lp591
sg142
g93
sg143
Nsg144
(lp592
I2
aI14
aI1
asg146
Nsg147
g590
sg148
(lp593
sg150
g60
sg151
Nsg152
Nsg153
Nsbag3
(g4
g5
NtRp594
(dp595
g8
g10
sg131
Nsg132
(dp596
sg134
Nsg26
g28
sg135
(lp597
I2
aI15
aI1
asg137
Nsg138
VKohelet Rabbah 2:15:1
p598
sg140
(lp599
sg142
g93
sg143
Nsg144
(lp600
I2
aI15
aI1
asg146
Nsg147
g598
sg148
(lp601
sg150
g60
sg151
Nsg152
Nsg153
Nsbag3
(g4
g5
NtRp602
(dp603
g8
g10
sg131
Nsg132
(dp604
sg134
Nsg26
g28
sg135
(lp605
I2
aI15
aI2
asg137
Nsg138
VKohelet Rabbah 2:15:2
p606
sg140
(lp607
sg142
g93
sg143
Nsg144
(lp608
I2
aI15
aI2
asg146
Nsg147
g606
sg148
(lp609
sg150
g60
sg151
Nsg152
Nsg153
Nsbag3
(g4
g5
NtRp610
(dp611
g8
g10
sg131
Nsg132
(dp612
sg134
Nsg26
g28
sg135
(lp613
I2
aI15
aI3
asg137
Nsg138
VKohelet Rabbah 2:15:3
p614
sg140
(lp615
sg142
g93
sg143
Nsg144
(lp616
I2
aI15
aI3
asg146
Nsg147
g614
sg148
(lp617
sg150
g60
sg151
Nsg152
Nsg153
Nsbag3
(g4
g5
NtRp618
(dp619
g8
g10
sg131
Nsg132
(dp620
sg134
Nsg26
g28
sg135
(lp621
I2
aI15
aI4
asg137
Nsg138
VKohelet Rabbah 2:15:4
p622
sg140
(lp623
sg142
g93
sg143
Nsg144
(lp624
I2
aI15
aI4
asg146
Nsg147
g622
sg148
(lp625
sg150
g60
sg151
Nsg152
Nsg153
Nsbag3
(g4
g5
NtRp626
(dp627
g8
g10
sg131
Nsg132
(dp628
sg134
Nsg26
g28
sg135
(lp629
I2
aI15
aI5
asg137
Nsg138
VKohelet Rabbah 2:15:5
p630
sg140
(lp631
sg142
g93
sg143
Nsg144
(lp632
I2
aI15
aI5
asg146
Nsg147
g630
sg148
(lp633
sg150
g60
sg151
Nsg152
Nsg153
Nsbag3
(g4
g5
NtRp634
(dp635
g8
g10
sg131
Nsg132
(dp636
sg134
Nsg26
g28
sg135
(lp637
I2
aI16
aI1
asg137
Nsg138
VKohelet Rabbah 2:16:1
p638
sg140
(lp639
sg142
g93
sg143
Nsg144
(lp640
I2
aI16
aI1
asg146
Nsg147
g638
sg148
(lp641
sg150
g60
sg151
Nsg152
Nsg153
Nsbag3
(g4
g5
NtRp642
(dp643
g8
g10
sg131
Nsg132
(dp644
sg134
Nsg26
g28
sg135
(lp645
I2
aI17
aI1
asg137
Nsg138
VKohelet Rabbah 2:17:1
p646
sg140
(lp647
sg142
g93
sg143
Nsg144
(lp648
I2
aI17
aI1
asg146
Nsg147
g646
sg148
(lp649
sg150
g60
sg151
Nsg152
Nsg153
Nsbag3
(g4
g5
NtRp650
(dp651
g8
g10
sg131
Nsg132
(dp652
sg134
Nsg26
g28
sg135
(lp653
I2
aI20
aI1
asg137
Nsg138
VKohelet Rabbah 2:20:1
p654
sg140
(lp655
sg142
g93
sg143
Nsg144
(lp656
I2
aI20
aI1
asg146
Nsg147
g654
sg148
(lp657
sg150
g60
sg151
Nsg152
Nsg153
Nsbag3
(g4
g5
NtRp658
(dp659
g8
g10
sg131
Nsg132
(dp660
sg134
Nsg26
g28
sg135
(lp661
I2
aI21
aI1
asg137
Nsg138
VKohelet Rabbah 2:21:1
p662
sg140
(lp663
sg142
g93
sg143
Nsg144
(lp664
I2
aI21
aI1
asg146
Nsg147
g662
sg148
(lp665
sg150
g60
sg151
Nsg152
Nsg153
Nsbag3
(g4
g5
NtRp666
(dp667
g8
g10
sg131
Nsg132
(dp668
sg134
Nsg26
g28
sg135
(lp669
I2
aI23
aI1
asg137
Nsg138
VKohelet Rabbah 2:23:1
p670
sg140
(lp671
sg142
g93
sg143
Nsg144
(lp672
I2
aI23
aI1
asg146
Nsg147
g670
sg148
(lp673
sg150
g60
sg151
Nsg152
Nsg153
Nsbag3
(g4
g5
NtRp674
(dp675
g8
g10
sg131
Nsg132
(dp676
sg134
Nsg26
g28
sg135
(lp677
I2
aI24
aI1
asg137
Nsg138
VKohelet Rabbah 2:24:1
p678
sg140
(lp679
sg142
g93
sg143
Nsg144
(lp680
I2
aI24
aI1
asg146
Nsg147
g678
sg148
(lp681
sg150
g60
sg151
Nsg152
Nsg153
Nsbag3
(g4
g5
NtRp682
(dp683
g8
g10
sg131
Nsg132
(dp684
sg134
Nsg26
g28
sg135
(lp685
I2
aI25
aI1
asg137
Nsg138
VKohelet Rabbah 2:25:1
p686
sg140
(lp687
sg142
g93
sg143
Nsg144
(lp688
I2
aI25
aI1
asg146
Nsg147
g686
sg148
(lp689
sg150
g60
sg151
Nsg152
Nsg153
Nsbag3
(g4
g5
NtRp690
(dp691
g8
g10
sg131
Nsg132
(dp692
sg134
Nsg26
g28
sg135
(lp693
I2
aI26
aI1
asg137
Nsg138
VKohelet Rabbah 2:26:1
p694
sg140
(lp695
sg142
g93
sg143
Nsg144
(lp696
I2
aI26
aI1
asg146
Nsg147
g694
sg148
(lp697
sg150
g60
sg151
Nsg152
Nsg153
Nsbag3
(g4
g5
NtRp698
(dp699
g8
g10
sg131
Nsg132
(dp700
sg134
Nsg26
g28
sg135
(lp701
I3
aI1
aI1
asg137
Nsg138
VKohelet Rabbah 3:1:1
p702
sg140
(lp703
sg142
g93
sg143
Nsg144
(lp704
I3
aI1
aI1
asg146
Nsg147
g702
sg148
(lp705
sg150
g60
sg151
Nsg152
Nsg153
Nsbag3
(g4
g5
NtRp706
(dp707
g8
g10
sg131
Nsg132
(dp708
sg134
Nsg26
g28
sg135
(lp709
I3
aI2
aI1
asg137
Nsg138
VKohelet Rabbah 3:2:1
p710
sg140
(lp711
sg142
g93
sg143
Nsg144
(lp712
I3
aI2
aI1
asg146
Nsg147
g710
sg148
(lp713
sg150
g60
sg151
Nsg152
Nsg153
Nsbag3
(g4
g5
NtRp714
(dp715
g8
g10
sg131
Nsg132
(dp716
sg134
Nsg26
g28
sg135
(lp717
I3
aI2
aI2
asg137
Nsg138
VKohelet Rabbah 3:2:2
p718
sg140
(lp719
sg142
g93
sg143
Nsg144
(lp720
I3
aI2
aI2
asg146
Nsg147
g718
sg148
(lp721
sg150
g60
sg151
Nsg152
Nsg153
Nsbag3
(g4
g5
NtRp722
(dp723
g8
g10
sg131
Nsg132
(dp724
sg134
Nsg26
g28
sg135
(lp725
I3
aI2
aI3
asg137
Nsg138
VKohelet Rabbah 3:2:3
p726
sg140
(lp727
sg142
g93
sg143
Nsg144
(lp728
I3
aI2
aI3
asg146
Nsg147
g726
sg148
(lp729
sg150
g60
sg151
Nsg152
Nsg153
Nsbag3
(g4
g5
NtRp730
(dp731
g8
g10
sg131
Nsg132
(dp732
sg134
Nsg26
g28
sg135
(lp733
I3
aI3
aI1
asg137
Nsg138
VKohelet Rabbah 3:3:1
p734
sg140
(lp735
sg142
g93
sg143
Nsg144
(lp736
I3
aI3
aI1
asg146
Nsg147
g734
sg148
(lp737
sg150
g60
sg151
Nsg152
Nsg153
Nsbag3
(g4
g5
NtRp738
(dp739
g8
g10
sg131
Nsg132
(dp740
sg134
Nsg26
g28
sg135
(lp741
I3
aI4
aI1
asg137
Nsg138
VKohelet Rabbah 3:4:1
p742
sg140
(lp743
sg142
g93
sg143
Nsg144
(lp744
I3
aI4
aI1
asg146
Nsg147
g742
sg148
(lp745
sg150
g60
sg151
Nsg152
Nsg153
Nsbag3
(g4
g5
NtRp746
(dp747
g8
g10
sg131
Nsg132
(dp748
sg134
Nsg26
g28
sg135
(lp749
I3
aI5
aI1
asg137
Nsg138
VKohelet Rabbah 3:5:1
p750
sg140
(lp751
sg142
g93
sg143
Nsg144
(lp752
I3
aI5
aI1
asg146
Nsg147
g750
sg148
(lp753
sg150
g60
sg151
Nsg152
Nsg153
Nsbag3
(g4
g5
NtRp754
(dp755
g8
g10
sg131
Nsg132
(dp756
sg134
Nsg26
g28
sg135
(lp757
I3
aI6
aI1
asg137
Nsg138
VKohelet Rabbah 3:6:1
p758
sg140
(lp759
sg142
g93
sg143
Nsg144
(lp760
I3
aI6
aI1
asg146
Nsg147
g758
sg148
(lp761
sg150
g60
sg151
Nsg152
Nsg153
Nsbag3
(g4
g5
NtRp762
(dp763
g8
g10
sg131
Nsg132
(dp764
sg134
Nsg26
g28
sg135
(lp765
I3
aI7
aI1
asg137
Nsg138
VKohelet Rabbah 3:7:1
p766
sg140
(lp767
sg142
g93
sg143
Nsg144
(lp768
I3
aI7
aI1
asg146
Nsg147
g766
sg148
(lp769
sg150
g60
sg151
Nsg152
Nsg153
Nsbag3
(g4
g5
NtRp770
(dp771
g8
g10
sg131
Nsg132
(dp772
sg134
Nsg26
g28
sg135
(lp773
I3
aI8
aI1
asg137
Nsg138
VKohelet Rabbah 3:8:1
p774
sg140
(lp775
sg142
g93
sg143
Nsg144
(lp776
I3
aI8
aI1
asg146
Nsg147
g774
sg148
(lp777
sg150
g60
sg151
Nsg152
Nsg153
Nsbag3
(g4
g5
NtRp778
(dp779
g8
g10
sg131
Nsg132
(dp780
sg134
Nsg26
g28
sg135
(lp781
I3
aI8
aI2
asg137
Nsg138
VKohelet Rabbah 3:8:2
p782
sg140
(lp783
sg142
g93
sg143
Nsg144
(lp784
I3
aI8
aI2
asg146
Nsg147
g782
sg148
(lp785
sg150
g60
sg151
Nsg152
Nsg153
Nsbag3
(g4
g5
NtRp786
(dp787
g8
g10
sg131
Nsg132
(dp788
sg134
Nsg26
g28
sg135
(lp789
I3
aI9
aI1
asg137
Nsg138
VKohelet Rabbah 3:9:1
p790
sg140
(lp791
sg142
g93
sg143
Nsg144
(lp792
I3
aI9
aI1
asg146
Nsg147
g790
sg148
(lp793
sg150
g60
sg151
Nsg152
Nsg153
Nsbag3
(g4
g5
NtRp794
(dp795
g8
g10
sg131
Nsg132
(dp796
sg134
Nsg26
g28
sg135
(lp797
I3
aI10
aI1
asg137
Nsg138
VKohelet Rabbah 3:10:1
p798
sg140
(lp799
sg142
g93
sg143
Nsg144
(lp800
I3
aI10
aI1
asg146
Nsg147
g798
sg148
(lp801
sg150
g60
sg151
Nsg152
Nsg153
Nsbag3
(g4
g5
NtRp802
(dp803
g8
g10
sg131
Nsg132
(dp804
sg134
Nsg26
g28
sg135
(lp805
I3
aI11
aI1
asg137
Nsg138
VKohelet Rabbah 3:11:1
p806
sg140
(lp807
sg142
g93
sg143
Nsg144
(lp808
I3
aI11
aI1
asg146
Nsg147
g806
sg148
(lp809
sg150
g60
sg151
Nsg152
Nsg153
Nsbag3
(g4
g5
NtRp810
(dp811
g8
g10
sg131
Nsg132
(dp812
sg134
Nsg26
g28
sg135
(lp813
I3
aI11
aI2
asg137
Nsg138
VKohelet Rabbah 3:11:2
p814
sg140
(lp815
sg142
g93
sg143
Nsg144
(lp816
I3
aI11
aI2
asg146
Nsg147
g814
sg148
(lp817
sg150
g60
sg151
Nsg152
Nsg153
Nsbag3
(g4
g5
NtRp818
(dp819
g8
g10
sg131
Nsg132
(dp820
sg134
Nsg26
g28
sg135
(lp821
I3
aI11
aI3
asg137
Nsg138
VKohelet Rabbah 3:11:3
p822
sg140
(lp823
sg142
g93
sg143
Nsg144
(lp824
I3
aI11
aI3
asg146
Nsg147
g822
sg148
(lp825
sg150
g60
sg151
Nsg152
Nsg153
Nsbag3
(g4
g5
NtRp826
(dp827
g8
g10
sg131
Nsg132
(dp828
sg134
Nsg26
g28
sg135
(lp829
I3
aI12
aI1
asg137
Nsg138
VKohelet Rabbah 3:12:1
p830
sg140
(lp831
sg142
g93
sg143
Nsg144
(lp832
I3
aI12
aI1
asg146
Nsg147
g830
sg148
(lp833
sg150
g60
sg151
Nsg152
Nsg153
Nsbag3
(g4
g5
NtRp834
(dp835
g8
g10
sg131
Nsg132
(dp836
sg134
Nsg26
g28
sg135
(lp837
I3
aI14
aI1
asg137
Nsg138
VKohelet Rabbah 3:14:1
p838
sg140
(lp839
sg142
g93
sg143
Nsg144
(lp840
I3
aI14
aI1
asg146
Nsg147
g838
sg148
(lp841
sg150
g60
sg151
Nsg152
Nsg153
Nsbag3
(g4
g5
NtRp842
(dp843
g8
g10
sg131
Nsg132
(dp844
sg134
Nsg26
g28
sg135
(lp845
I3
aI15
aI1
asg137
Nsg138
VKohelet Rabbah 3:15:1
p846
sg140
(lp847
sg142
g93
sg143
Nsg144
(lp848
I3
aI15
aI1
asg146
Nsg147
g846
sg148
(lp849
sg150
g60
sg151
Nsg152
Nsg153
Nsbag3
(g4
g5
NtRp850
(dp851
g8
g10
sg131
Nsg132
(dp852
sg134
Nsg26
g28
sg135
(lp853
I3
aI16
aI1
asg137
Nsg138
VKohelet Rabbah 3:16:1
p854
sg140
(lp855
sg142
g93
sg143
Nsg144
(lp856
I3
aI16
aI1
asg146
Nsg147
g854
sg148
(lp857
sg150
g60
sg151
Nsg152
Nsg153
Nsbag3
(g4
g5
NtRp858
(dp859
g8
g10
sg131
Nsg132
(dp860
sg134
Nsg26
g28
sg135
(lp861
I3
aI17
aI1
asg137
Nsg138
VKohelet Rabbah 3:17:1
p862
sg140
(lp863
sg142
g93
sg143
Nsg144
(lp864
I3
aI17
aI1
asg146
Nsg147
g862
sg148
(lp865
sg150
g60
sg151
Nsg152
Nsg153
Nsbag3
(g4
g5
NtRp866
(dp867
g8
g10
sg131
Nsg132
(dp868
sg134
Nsg26
g28
sg135
(lp869
I3
aI18
aI1
asg137
Nsg138
VKohelet Rabbah 3:18:1
p870
sg140
(lp871
sg142
g93
sg143
Nsg144
(lp872
I3
aI18
aI1
asg146
Nsg147
g870
sg148
(lp873
sg150
g60
sg151
Nsg152
Nsg153
Nsbag3
(g4
g5
NtRp874
(dp875
g8
g10
sg131
Nsg132
(dp876
sg134
Nsg26
g28
sg135
(lp877
I3
aI19
aI1
asg137
Nsg138
VKohelet Rabbah 3:19:1
p878
sg140
(lp879
sg142
g93
sg143
Nsg144
(lp880
I3
aI19
aI1
asg146
Nsg147
g878
sg148
(lp881
sg150
g60
sg151
Nsg152
Nsg153
Nsbag3
(g4
g5
NtRp882
(dp883
g8
g10
sg131
Nsg132
(dp884
sg134
Nsg26
g28
sg135
(lp885
I3
aI20
aI1
asg137
Nsg138
VKohelet Rabbah 3:20:1
p886
sg140
(lp887
sg142
g93
sg143
Nsg144
(lp888
I3
aI20
aI1
asg146
Nsg147
g886
sg148
(lp889
sg150
g60
sg151
Nsg152
Nsg153
Nsbag3
(g4
g5
NtRp890
(dp891
g8
g10
sg131
Nsg132
(dp892
sg134
Nsg26
g28
sg135
(lp893
I3
aI21
aI1
asg137
Nsg138
VKohelet Rabbah 3:21:1
p894
sg140
(lp895
sg142
g93
sg143
Nsg144
(lp896
I3
aI21
aI1
asg146
Nsg147
g894
sg148
(lp897
sg150
g60
sg151
Nsg152
Nsg153
Nsbag3
(g4
g5
NtRp898
(dp899
g8
g10
sg131
Nsg132
(dp900
sg134
Nsg26
g28
sg135
(lp901
I3
aI22
aI1
asg137
Nsg138
VKohelet Rabbah 3:22:1
p902
sg140
(lp903
sg142
g93
sg143
Nsg144
(lp904
I3
aI22
aI1
asg146
Nsg147
g902
sg148
(lp905
sg150
g60
sg151
Nsg152
Nsg153
Nsbag3
(g4
g5
NtRp906
(dp907
g8
g10
sg131
Nsg132
(dp908
sg134
Nsg26
g28
sg135
(lp909
I4
aI1
aI1
asg137
Nsg138
VKohelet Rabbah 4:1:1
p910
sg140
(lp911
sg142
g93
sg143
Nsg144
(lp912
I4
aI1
aI1
asg146
Nsg147
g910
sg148
(lp913
sg150
g60
sg151
Nsg152
Nsg153
Nsbag3
(g4
g5
NtRp914
(dp915
g8
g10
sg131
Nsg132
(dp916
sg134
Nsg26
g28
sg135
(lp917
I4
aI2
aI1
asg137
Nsg138
VKohelet Rabbah 4:2:1
p918
sg140
(lp919
sg142
g93
sg143
Nsg144
(lp920
I4
aI2
aI1
asg146
Nsg147
g918
sg148
(lp921
sg150
g60
sg151
Nsg152
Nsg153
Nsbag3
(g4
g5
NtRp922
(dp923
g8
g10
sg131
Nsg132
(dp924
sg134
Nsg26
g28
sg135
(lp925
I4
aI3
aI1
asg137
Nsg138
VKohelet Rabbah 4:3:1
p926
sg140
(lp927
sg142
g93
sg143
Nsg144
(lp928
I4
aI3
aI1
asg146
Nsg147
g926
sg148
(lp929
sg150
g60
sg151
Nsg152
Nsg153
Nsbag3
(g4
g5
NtRp930
(dp931
g8
g10
sg131
Nsg132
(dp932
sg134
Nsg26
g28
sg135
(lp933
I4
aI5
aI1
asg137
Nsg138
VKohelet Rabbah 4:5:1
p934
sg140
(lp935
sg142
g93
sg143
Nsg144
(lp936
I4
aI5
aI1
asg146
Nsg147
g934
sg148
(lp937
sg150
g60
sg151
Nsg152
Nsg153
Nsbag3
(g4
g5
NtRp938
(dp939
g8
g10
sg131
Nsg132
(dp940
sg134
Nsg26
g28
sg135
(lp941
I4
aI6
aI1
asg137
Nsg138
VKohelet Rabbah 4:6:1
p942
sg140
(lp943
sg142
g93
sg143
Nsg144
(lp944
I4
aI6
aI1
asg146
Nsg147
g942
sg148
(lp945
sg150
g60
sg151
Nsg152
Nsg153
Nsbag3
(g4
g5
NtRp946
(dp947
g8
g10
sg131
Nsg132
(dp948
sg134
Nsg26
g28
sg135
(lp949
I4
aI7
aI1
asg137
Nsg138
VKohelet Rabbah 4:7:1
p950
sg140
(lp951
sg142
g93
sg143
Nsg144
(lp952
I4
aI7
aI1
asg146
Nsg147
g950
sg148
(lp953
sg150
g60
sg151
Nsg152
Nsg153
Nsbag3
(g4
g5
NtRp954
(dp955
g8
g10
sg131
Nsg132
(dp956
sg134
Nsg26
g28
sg135
(lp957
I4
aI8
aI1
asg137
Nsg138
VKohelet Rabbah 4:8:1
p958
sg140
(lp959
sg142
g93
sg143
Nsg144
(lp960
I4
aI8
aI1
asg146
Nsg147
g958
sg148
(lp961
sg150
g60
sg151
Nsg152
Nsg153
Nsbag3
(g4
g5
NtRp962
(dp963
g8
g10
sg131
Nsg132
(dp964
sg134
Nsg26
g28
sg135
(lp965
I4
aI9
aI1
asg137
Nsg138
VKohelet Rabbah 4:9:1
p966
sg140
(lp967
sg142
g93
sg143
Nsg144
(lp968
I4
aI9
aI1
asg146
Nsg147
g966
sg148
(lp969
sg150
g60
sg151
Nsg152
Nsg153
Nsbag3
(g4
g5
NtRp970
(dp971
g8
g10
sg131
Nsg132
(dp972
sg134
Nsg26
g28
sg135
(lp973
I4
aI13
aI1
asg137
Nsg138
VKohelet Rabbah 4:13:1
p974
sg140
(lp975
sg142
g93
sg143
Nsg144
(lp976
I4
aI13
aI1
asg146
Nsg147
g974
sg148
(lp977
sg150
g60
sg151
Nsg152
Nsg153
Nsbag3
(g4
g5
NtRp978
(dp979
g8
g10
sg131
Nsg132
(dp980
sg134
Nsg26
g28
sg135
(lp981
I4
aI14
aI1
asg137
Nsg138
VKohelet Rabbah 4:14:1
p982
sg140
(lp983
sg142
g93
sg143
Nsg144
(lp984
I4
aI14
aI1
asg146
Nsg147
g982
sg148
(lp985
sg150
g60
sg151
Nsg152
Nsg153
Nsbag3
(g4
g5
NtRp986
(dp987
g8
g10
sg131
Nsg132
(dp988
sg134
Nsg26
g28
sg135
(lp989
I4
aI15
aI1
asg137
Nsg138
VKohelet Rabbah 4:15:1
p990
sg140
(lp991
sg142
g93
sg143
Nsg144
(lp992
I4
aI15
aI1
asg146
Nsg147
g990
sg148
(lp993
sg150
g60
sg151
Nsg152
Nsg153
Nsbag3
(g4
g5
NtRp994
(dp995
g8
g10
sg131
Nsg132
(dp996
sg134
Nsg26
g28
sg135
(lp997
I4
aI16
aI1
asg137
Nsg138
VKohelet Rabbah 4:16:1
p998
sg140
(lp999
sg142
g93
sg143
Nsg144
(lp1000
I4
aI16
aI1
asg146
Nsg147
g998
sg148
(lp1001
sg150
g60
sg151
Nsg152
Nsg153
Nsbag3
(g4
g5
NtRp1002
(dp1003
g8
g10
sg131
Nsg132
(dp1004
sg134
Nsg26
g28
sg135
(lp1005
I4
aI17
aI1
asg137
Nsg138
VKohelet Rabbah 4:17:1
p1006
sg140
(lp1007
sg142
g93
sg143
Nsg144
(lp1008
I4
aI17
aI1
asg146
Nsg147
g1006
sg148
(lp1009
sg150
g60
sg151
Nsg152
Nsg153
Nsbag3
(g4
g5
NtRp1010
(dp1011
g8
g10
sg131
Nsg132
(dp1012
sg134
Nsg26
g28
sg135
(lp1013
I5
aI2
aI1
asg137
Nsg138
VKohelet Rabbah 5:2:1
p1014
sg140
(lp1015
sg142
g93
sg143
Nsg144
(lp1016
I5
aI2
aI1
asg146
Nsg147
g1014
sg148
(lp1017
sg150
g60
sg151
Nsg152
Nsg153
Nsbag3
(g4
g5
NtRp1018
(dp1019
g8
g10
sg131
Nsg132
(dp1020
sg134
Nsg26
g28
sg135
(lp1021
I5
aI4
aI1
asg137
Nsg138
VKohelet Rabbah 5:4:1
p1022
sg140
(lp1023
sg142
g93
sg143
Nsg144
(lp1024
I5
aI4
aI1
asg146
Nsg147
g1022
sg148
(lp1025
sg150
g60
sg151
Nsg152
Nsg153
Nsbag3
(g4
g5
NtRp1026
(dp1027
g8
g10
sg131
Nsg132
(dp1028
sg134
Nsg26
g28
sg135
(lp1029
I5
aI5
aI1
asg137
Nsg138
VKohelet Rabbah 5:5:1
p1030
sg140
(lp1031
sg142
g93
sg143
Nsg144
(lp1032
I5
aI5
aI1
asg146
Nsg147
g1030
sg148
(lp1033
sg150
g60
sg151
Nsg152
Nsg153
Nsbag3
(g4
g5
NtRp1034
(dp1035
g8
g10
sg131
Nsg132
(dp1036
sg134
Nsg26
g28
sg135
(lp1037
I5
aI6
aI1
asg137
Nsg138
VKohelet Rabbah 5:6:1
p1038
sg140
(lp1039
sg142
g93
sg143
Nsg144
(lp1040
I5
aI6
aI1
asg146
Nsg147
g1038
sg148
(lp1041
sg150
g60
sg151
Nsg152
Nsg153
Nsbag3
(g4
g5
NtRp1042
(dp1043
g8
g10
sg131
Nsg132
(dp1044
sg134
Nsg26
g28
sg135
(lp1045
I5
aI7
aI1
asg137
Nsg138
VKohelet Rabbah 5:7:1
p1046
sg140
(lp1047
sg142
g93
sg143
Nsg144
(lp1048
I5
aI7
aI1
asg146
Nsg147
g1046
sg148
(lp1049
sg150
g60
sg151
Nsg152
Nsg153
Nsbag3
(g4
g5
NtRp1050
(dp1051
g8
g10
sg131
Nsg132
(dp1052
sg134
Nsg26
g28
sg135
(lp1053
I5
aI8
aI1
asg137
Nsg138
VKohelet Rabbah 5:8:1
p1054
sg140
(lp1055
sg142
g93
sg143
Nsg144
(lp1056
I5
aI8
aI1
asg146
Nsg147
g1054
sg148
(lp1057
sg150
g60
sg151
Nsg152
Nsg153
Nsbag3
(g4
g5
NtRp1058
(dp1059
g8
g10
sg131
Nsg132
(dp1060
sg134
Nsg26
g28
sg135
(lp1061
I5
aI8
aI2
asg137
Nsg138
VKohelet Rabbah 5:8:2
p1062
sg140
(lp1063
sg142
g93
sg143
Nsg144
(lp1064
I5
aI8
aI2
asg146
Nsg147
g1062
sg148
(lp1065
sg150
g60
sg151
Nsg152
Nsg153
Nsbag3
(g4
g5
NtRp1066
(dp1067
g8
g10
sg131
Nsg132
(dp1068
sg134
Nsg26
g28
sg135
(lp1069
I5
aI8
aI3
asg137
Nsg138
VKohelet Rabbah 5:8:3
p1070
sg140
(lp1071
sg142
g93
sg143
Nsg144
(lp1072
I5
aI8
aI3
asg146
Nsg147
g1070
sg148
(lp1073
sg150
g60
sg151
Nsg152
Nsg153
Nsbag3
(g4
g5
NtRp1074
(dp1075
g8
g10
sg131
Nsg132
(dp1076
sg134
Nsg26
g28
sg135
(lp1077
I5
aI8
aI4
asg137
Nsg138
VKohelet Rabbah 5:8:4
p1078
sg140
(lp1079
sg142
g93
sg143
Nsg144
(lp1080
I5
aI8
aI4
asg146
Nsg147
g1078
sg148
(lp1081
sg150
g60
sg151
Nsg152
Nsg153
Nsbag3
(g4
g5
NtRp1082
(dp1083
g8
g10
sg131
Nsg132
(dp1084
sg134
Nsg26
g28
sg135
(lp1085
I5
aI8
aI5
asg137
Nsg138
VKohelet Rabbah 5:8:5
p1086
sg140
(lp1087
sg142
g93
sg143
Nsg144
(lp1088
I5
aI8
aI5
asg146
Nsg147
g1086
sg148
(lp1089
sg150
g60
sg151
Nsg152
Nsg153
Nsbag3
(g4
g5
NtRp1090
(dp1091
g8
g10
sg131
Nsg132
(dp1092
sg134
Nsg26
g28
sg135
(lp1093
I5
aI10
aI1
asg137
Nsg138
VKohelet Rabbah 5:10:1
p1094
sg140
(lp1095
sg142
g93
sg143
Nsg144
(lp1096
I5
aI10
aI1
asg146
Nsg147
g1094
sg148
(lp1097
sg150
g60
sg151
Nsg152
Nsg153
Nsbag3
(g4
g5
NtRp1098
(dp1099
g8
g10
sg131
Nsg132
(dp1100
sg134
Nsg26
g28
sg135
(lp1101
I5
aI11
aI1
asg137
Nsg138
VKohelet Rabbah 5:11:1
p1102
sg140
(lp1103
sg142
g93
sg143
Nsg144
(lp1104
I5
aI11
aI1
asg146
Nsg147
g1102
sg148
(lp1105
sg150
g60
sg151
Nsg152
Nsg153
Nsbag3
(g4
g5
NtRp1106
(dp1107
g8
g10
sg131
Nsg132
(dp1108
sg134
Nsg26
g28
sg135
(lp1109
I5
aI11
aI2
asg137
Nsg138
VKohelet Rabbah 5:11:2
p1110
sg140
(lp1111
sg142
g93
sg143
Nsg144
(lp1112
I5
aI11
aI2
asg146
Nsg147
g1110
sg148
(lp1113
sg150
g60
sg151
Nsg152
Nsg153
Nsbag3
(g4
g5
NtRp1114
(dp1115
g8
g10
sg131
Nsg132
(dp1116
sg134
Nsg26
g28
sg135
(lp1117
I5
aI11
aI3
asg137
Nsg138
VKohelet Rabbah 5:11:3
p1118
sg140
(lp1119
sg142
g93
sg143
Nsg144
(lp1120
I5
aI11
aI3
asg146
Nsg147
g1118
sg148
(lp1121
sg150
g60
sg151
Nsg152
Nsg153
Nsbag3
(g4
g5
NtRp1122
(dp1123
g8
g10
sg131
Nsg132
(dp1124
sg134
Nsg26
g28
sg135
(lp1125
I5
aI11
aI4
asg137
Nsg138
VKohelet Rabbah 5:11:4
p1126
sg140
(lp1127
sg142
g93
sg143
Nsg144
(lp1128
I5
aI11
aI4
asg146
Nsg147
g1126
sg148
(lp1129
sg150
g60
sg151
Nsg152
Nsg153
Nsbag3
(g4
g5
NtRp1130
(dp1131
g8
g10
sg131
Nsg132
(dp1132
sg134
Nsg26
g28
sg135
(lp1133
I5
aI11
aI5
asg137
Nsg138
VKohelet Rabbah 5:11:5
p1134
sg140
(lp1135
sg142
g93
sg143
Nsg144
(lp1136
I5
aI11
aI5
asg146
Nsg147
g1134
sg148
(lp1137
sg150
g60
sg151
Nsg152
Nsg153
Nsbag3
(g4
g5
NtRp1138
(dp1139
g8
g10
sg131
Nsg132
(dp1140
sg134
Nsg26
g28
sg135
(lp1141
I5
aI12
aI1
asg137
Nsg138
VKohelet Rabbah 5:12:1
p1142
sg140
(lp1143
sg142
g93
sg143
Nsg144
(lp1144
I5
aI12
aI1
asg146
Nsg147
g1142
sg148
(lp1145
sg150
g60
sg151
Nsg152
Nsg153
Nsbag3
(g4
g5
NtRp1146
(dp1147
g8
g10
sg131
Nsg132
(dp1148
sg134
Nsg26
g28
sg135
(lp1149
I5
aI13
aI1
asg137
Nsg138
VKohelet Rabbah 5:13:1
p1150
sg140
(lp1151
sg142
g93
sg143
Nsg144
(lp1152
I5
aI13
aI1
asg146
Nsg147
g1150
sg148
(lp1153
sg150
g60
sg151
Nsg152
Nsg153
Nsbag3
(g4
g5
NtRp1154
(dp1155
g8
g10
sg131
Nsg132
(dp1156
sg134
Nsg26
g28
sg135
(lp1157
I5
aI14
aI1
asg137
Nsg138
VKohelet Rabbah 5:14:1
p1158
sg140
(lp1159
sg142
g93
sg143
Nsg144
(lp1160
I5
aI14
aI1
asg146
Nsg147
g1158
sg148
(lp1161
sg150
g60
sg151
Nsg152
Nsg153
Nsbag3
(g4
g5
NtRp1162
(dp1163
g8
g10
sg131
Nsg132
(dp1164
sg134
Nsg26
g28
sg135
(lp1165
I5
aI15
aI1
asg137
Nsg138
VKohelet Rabbah 5:15:1
p1166
sg140
(lp1167
sg142
g93
sg143
Nsg144
(lp1168
I5
aI15
aI1
asg146
Nsg147
g1166
sg148
(lp1169
sg150
g60
sg151
Nsg152
Nsg153
Nsbag3
(g4
g5
NtRp1170
(dp1171
g8
g10
sg131
Nsg132
(dp1172
sg134
Nsg26
g28
sg135
(lp1173
I5
aI16
aI1
asg137
Nsg138
VKohelet Rabbah 5:16:1
p1174
sg140
(lp1175
sg142
g93
sg143
Nsg144
(lp1176
I5
aI16
aI1
asg146
Nsg147
g1174
sg148
(lp1177
sg150
g60
sg151
Nsg152
Nsg153
Nsbag3
(g4
g5
NtRp1178
(dp1179
g8
g10
sg131
Nsg132
(dp1180
sg134
Nsg26
g28
sg135
(lp1181
I5
aI17
aI1
asg137
Nsg138
VKohelet Rabbah 5:17:1
p1182
sg140
(lp1183
sg142
g93
sg143
Nsg144
(lp1184
I5
aI17
aI1
asg146
Nsg147
g1182
sg148
(lp1185
sg150
g60
sg151
Nsg152
Nsg153
Nsbag3
(g4
g5
NtRp1186
(dp1187
g8
g10
sg131
Nsg132
(dp1188
sg134
Nsg26
g28
sg135
(lp1189
I5
aI18
aI1
asg137
Nsg138
VKohelet Rabbah 5:18:1
p1190
sg140
(lp1191
sg142
g93
sg143
Nsg144
(lp1192
I5
aI18
aI1
asg146
Nsg147
g1190
sg148
(lp1193
sg150
g60
sg151
Nsg152
Nsg153
Nsbag3
(g4
g5
NtRp1194
(dp1195
g8
g10
sg131
Nsg132
(dp1196
sg134
Nsg26
g28
sg135
(lp1197
I5
aI19
aI1
asg137
Nsg138
VKohelet Rabbah 5:19:1
p1198
sg140
(lp1199
sg142
g93
sg143
Nsg144
(lp1200
I5
aI19
aI1
asg146
Nsg147
g1198
sg148
(lp1201
sg150
g60
sg151
Nsg152
Nsg153
Nsbag3
(g4
g5
NtRp1202
(dp1203
g8
g10
sg131
Nsg132
(dp1204
sg134
Nsg26
g28
sg135
(lp1205
I6
aI1
aI1
asg137
Nsg138
VKohelet Rabbah 6:1:1
p1206
sg140
(lp1207
sg142
g93
sg143
Nsg144
(lp1208
I6
aI1
aI1
asg146
Nsg147
g1206
sg148
(lp1209
sg150
g60
sg151
Nsg152
Nsg153
Nsbag3
(g4
g5
NtRp1210
(dp1211
g8
g10
sg131
Nsg132
(dp1212
sg134
Nsg26
g28
sg135
(lp1213
I6
aI2
aI1
asg137
Nsg138
VKohelet Rabbah 6:2:1
p1214
sg140
(lp1215
sg142
g93
sg143
Nsg144
(lp1216
I6
aI2
aI1
asg146
Nsg147
g1214
sg148
(lp1217
sg150
g60
sg151
Nsg152
Nsg153
Nsbag3
(g4
g5
NtRp1218
(dp1219
g8
g10
sg131
Nsg132
(dp1220
sg134
Nsg26
g28
sg135
(lp1221
I6
aI3
aI1
asg137
Nsg138
VKohelet Rabbah 6:3:1
p1222
sg140
(lp1223
sg142
g93
sg143
Nsg144
(lp1224
I6
aI3
aI1
asg146
Nsg147
g1222
sg148
(lp1225
sg150
g60
sg151
Nsg152
Nsg153
Nsbag3
(g4
g5
NtRp1226
(dp1227
g8
g10
sg131
Nsg132
(dp1228
sg134
Nsg26
g28
sg135
(lp1229
I6
aI4
aI1
asg137
Nsg138
VKohelet Rabbah 6:4:1
p1230
sg140
(lp1231
sg142
g93
sg143
Nsg144
(lp1232
I6
aI4
aI1
asg146
Nsg147
g1230
sg148
(lp1233
sg150
g60
sg151
Nsg152
Nsg153
Nsbag3
(g4
g5
NtRp1234
(dp1235
g8
g10
sg131
Nsg132
(dp1236
sg134
Nsg26
g28
sg135
(lp1237
I6
aI5
aI1
asg137
Nsg138
VKohelet Rabbah 6:5:1
p1238
sg140
(lp1239
sg142
g93
sg143
Nsg144
(lp1240
I6
aI5
aI1
asg146
Nsg147
g1238
sg148
(lp1241
sg150
g60
sg151
Nsg152
Nsg153
Nsbag3
(g4
g5
NtRp1242
(dp1243
g8
g10
sg131
Nsg132
(dp1244
sg134
Nsg26
g28
sg135
(lp1245
I6
aI6
aI1
asg137
Nsg138
VKohelet Rabbah 6:6:1
p1246
sg140
(lp1247
sg142
g93
sg143
Nsg144
(lp1248
I6
aI6
aI1
asg146
Nsg147
g1246
sg148
(lp1249
sg150
g60
sg151
Nsg152
Nsg153
Nsbag3
(g4
g5
NtRp1250
(dp1251
g8
g10
sg131
Nsg132
(dp1252
sg134
Nsg26
g28
sg135
(lp1253
I6
aI8
aI1
asg137
Nsg138
VKohelet Rabbah 6:8:1
p1254
sg140
(lp1255
sg142
g93
sg143
Nsg144
(lp1256
I6
aI8
aI1
asg146
Nsg147
g1254
sg148
(lp1257
sg150
g60
sg151
Nsg152
Nsg153
Nsbag3
(g4
g5
NtRp1258
(dp1259
g8
g10
sg131
Nsg132
(dp1260
sg134
Nsg26
g28
sg135
(lp1261
I6
aI9
aI1
asg137
Nsg138
VKohelet Rabbah 6:9:1
p1262
sg140
(lp1263
sg142
g93
sg143
Nsg144
(lp1264
I6
aI9
aI1
asg146
Nsg147
g1262
sg148
(lp1265
sg150
g60
sg151
Nsg152
Nsg153
Nsbag3
(g4
g5
NtRp1266
(dp1267
g8
g10
sg131
Nsg132
(dp1268
sg134
Nsg26
g28
sg135
(lp1269
I6
aI10
aI1
asg137
Nsg138
VKohelet Rabbah 6:10:1
p1270
sg140
(lp1271
sg142
g93
sg143
Nsg144
(lp1272
I6
aI10
aI1
asg146
Nsg147
g1270
sg148
(lp1273
sg150
g60
sg151
Nsg152
Nsg153
Nsbag3
(g4
g5
NtRp1274
(dp1275
g8
g10
sg131
Nsg132
(dp1276
sg134
Nsg26
g28
sg135
(lp1277
I6
aI11
aI1
asg137
Nsg138
VKohelet Rabbah 6:11:1
p1278
sg140
(lp1279
sg142
g93
sg143
Nsg144
(lp1280
I6
aI11
aI1
asg146
Nsg147
g1278
sg148
(lp1281
sg150
g60
sg151
Nsg152
Nsg153
Nsbag3
(g4
g5
NtRp1282
(dp1283
g8
g10
sg131
Nsg132
(dp1284
sg134
Nsg26
g28
sg135
(lp1285
I6
aI12
aI1
asg137
Nsg138
VKohelet Rabbah 6:12:1
p1286
sg140
(lp1287
sg142
g93
sg143
Nsg144
(lp1288
I6
aI12
aI1
asg146
Nsg147
g1286
sg148
(lp1289
sg150
g60
sg151
Nsg152
Nsg153
Nsbag3
(g4
g5
NtRp1290
(dp1291
g8
g10
sg131
Nsg132
(dp1292
sg134
Nsg26
g28
sg135
(lp1293
I7
aI1
aI1
asg137
Nsg138
VKohelet Rabbah 7:1:1
p1294
sg140
(lp1295
sg142
g93
sg143
Nsg144
(lp1296
I7
aI1
aI1
asg146
Nsg147
g1294
sg148
(lp1297
sg150
g60
sg151
Nsg152
Nsg153
Nsbag3
(g4
g5
NtRp1298
(dp1299
g8
g10
sg131
Nsg132
(dp1300
sg134
Nsg26
g28
sg135
(lp1301
I7
aI1
aI2
asg137
Nsg138
VKohelet Rabbah 7:1:2
p1302
sg140
(lp1303
sg142
g93
sg143
Nsg144
(lp1304
I7
aI1
aI2
asg146
Nsg147
g1302
sg148
(lp1305
sg150
g60
sg151
Nsg152
Nsg153
Nsbag3
(g4
g5
NtRp1306
(dp1307
g8
g10
sg131
Nsg132
(dp1308
sg134
Nsg26
g28
sg135
(lp1309
I7
aI1
aI3
asg137
Nsg138
VKohelet Rabbah 7:1:3
p1310
sg140
(lp1311
sg142
g93
sg143
Nsg144
(lp1312
I7
aI1
aI3
asg146
Nsg147
g1310
sg148
(lp1313
sg150
g60
sg151
Nsg152
Nsg153
Nsbag3
(g4
g5
NtRp1314
(dp1315
g8
g10
sg131
Nsg132
(dp1316
sg134
Nsg26
g28
sg135
(lp1317
I7
aI1
aI4
asg137
Nsg138
VKohelet Rabbah 7:1:4
p1318
sg140
(lp1319
sg142
g93
sg143
Nsg144
(lp1320
I7
aI1
aI4
asg146
Nsg147
g1318
sg148
(lp1321
sg150
g60
sg151
Nsg152
Nsg153
Nsbag3
(g4
g5
NtRp1322
(dp1323
g8
g10
sg131
Nsg132
(dp1324
sg134
Nsg26
g28
sg135
(lp1325
I7
aI1
aI5
asg137
Nsg138
VKohelet Rabbah 7:1:5
p1326
sg140
(lp1327
sg142
g93
sg143
Nsg144
(lp1328
I7
aI1
aI5
asg146
Nsg147
g1326
sg148
(lp1329
sg150
g60
sg151
Nsg152
Nsg153
Nsbag3
(g4
g5
NtRp1330
(dp1331
g8
g10
sg131
Nsg132
(dp1332
sg134
Nsg26
g28
sg135
(lp1333
I7
aI1
aI6
asg137
Nsg138
VKohelet Rabbah 7:1:6
p1334
sg140
(lp1335
sg142
g93
sg143
Nsg144
(lp1336
I7
aI1
aI6
asg146
Nsg147
g1334
sg148
(lp1337
sg150
g60
sg151
Nsg152
Nsg153
Nsbag3
(g4
g5
NtRp1338
(dp1339
g8
g10
sg131
Nsg132
(dp1340
sg134
Nsg26
g28
sg135
(lp1341
I7
aI1
aI7
asg137
Nsg138
VKohelet Rabbah 7:1:7
p1342
sg140
(lp1343
sg142
g93
sg143
Nsg144
(lp1344
I7
aI1
aI7
asg146
Nsg147
g1342
sg148
(lp1345
sg150
g60
sg151
Nsg152
Nsg153
Nsbag3
(g4
g5
NtRp1346
(dp1347
g8
g10
sg131
Nsg132
(dp1348
sg134
Nsg26
g28
sg135
(lp1349
I7
aI1
aI8
asg137
Nsg138
VKohelet Rabbah 7:1:8
p1350
sg140
(lp1351
sg142
g93
sg143
Nsg144
(lp1352
I7
aI1
aI8
asg146
Nsg147
g1350
sg148
(lp1353
sg150
g60
sg151
Nsg152
Nsg153
Nsbag3
(g4
g5
NtRp1354
(dp1355
g8
g10
sg131
Nsg132
(dp1356
sg134
Nsg26
g28
sg135
(lp1357
I7
aI1
aI9
asg137
Nsg138
VKohelet Rabbah 7:1:9
p1358
sg140
(lp1359
sg142
g93
sg143
Nsg144
(lp1360
I7
aI1
aI9
asg146
Nsg147
g1358
sg148
(lp1361
sg150
g60
sg151
Nsg152
Nsg153
Nsbag3
(g4
g5
NtRp1362
(dp1363
g8
g10
sg131
Nsg132
(dp1364
sg134
Nsg26
g28
sg135
(lp1365
I7
aI1
aI10
asg137
Nsg138
VKohelet Rabbah 7:1:10
p1366
sg140
(lp1367
sg142
g93
sg143
Nsg144
(lp1368
I7
aI1
aI10
asg146
Nsg147
g1366
sg148
(lp1369
sg150
g60
sg151
Nsg152
Nsg153
Nsbag3
(g4
g5
NtRp1370
(dp1371
g8
g10
sg131
Nsg132
(dp1372
sg134
Nsg26
g28
sg135
(lp1373
I7
aI1
aI11
asg137
Nsg138
VKohelet Rabbah 7:1:11
p1374
sg140
(lp1375
sg142
g93
sg143
Nsg144
(lp1376
I7
aI1
aI11
asg146
Nsg147
g1374
sg148
(lp1377
sg150
g60
sg151
Nsg152
Nsg153
Nsbag3
(g4
g5
NtRp1378
(dp1379
g8
g10
sg131
Nsg132
(dp1380
sg134
Nsg26
g28
sg135
(lp1381
I7
aI1
aI12
asg137
Nsg138
VKohelet Rabbah 7:1:12
p1382
sg140
(lp1383
sg142
g93
sg143
Nsg144
(lp1384
I7
aI1
aI12
asg146
Nsg147
g1382
sg148
(lp1385
sg150
g60
sg151
Nsg152
Nsg153
Nsbag3
(g4
g5
NtRp1386
(dp1387
g8
g10
sg131
Nsg132
(dp1388
sg134
Nsg26
g28
sg135
(lp1389
I7
aI1
aI13
asg137
Nsg138
VKohelet Rabbah 7:1:13
p1390
sg140
(lp1391
sg142
g93
sg143
Nsg144
(lp1392
I7
aI1
aI13
asg146
Nsg147
g1390
sg148
(lp1393
sg150
g60
sg151
Nsg152
Nsg153
Nsbag3
(g4
g5
NtRp1394
(dp1395
g8
g10
sg131
Nsg132
(dp1396
sg134
Nsg26
g28
sg135
(lp1397
I7
aI1
aI14
asg137
Nsg138
VKohelet Rabbah 7:1:14
p1398
sg140
(lp1399
sg142
g93
sg143
Nsg144
(lp1400
I7
aI1
aI14
asg146
Nsg147
g1398
sg148
(lp1401
sg150
g60
sg151
Nsg152
Nsg153
Nsbag3
(g4
g5
NtRp1402
(dp1403
g8
g10
sg131
Nsg132
(dp1404
sg134
Nsg26
g28
sg135
(lp1405
I7
aI1
aI15
asg137
Nsg138
VKohelet Rabbah 7:1:15
p1406
sg140
(lp1407
sg142
g93
sg143
Nsg144
(lp1408
I7
aI1
aI15
asg146
Nsg147
g1406
sg148
(lp1409
sg150
g60
sg151
Nsg152
Nsg153
Nsbag3
(g4
g5
NtRp1410
(dp1411
g8
g10
sg131
Nsg132
(dp1412
sg134
Nsg26
g28
sg135
(lp1413
I7
aI1
aI16
asg137
Nsg138
VKohelet Rabbah 7:1:16
p1414
sg140
(lp1415
sg142
g93
sg143
Nsg144
(lp1416
I7
aI1
aI16
asg146
Nsg147
g1414
sg148
(lp1417
sg150
g60
sg151
Nsg152
Nsg153
Nsbag3
(g4
g5
NtRp1418
(dp1419
g8
g10
sg131
Nsg132
(dp1420
sg134
Nsg26
g28
sg135
(lp1421
I7
aI1
aI17
asg137
Nsg138
VKohelet Rabbah 7:1:17
p1422
sg140
(lp1423
sg142
g93
sg143
Nsg144
(lp1424
I7
aI1
aI17
asg146
Nsg147
g1422
sg148
(lp1425
sg150
g60
sg151
Nsg152
Nsg153
Nsbag3
(g4
g5
NtRp1426
(dp1427
g8
g10
sg131
Nsg132
(dp1428
sg134
Nsg26
g28
sg135
(lp1429
I7
aI1
aI18
asg137
Nsg138
VKohelet Rabbah 7:1:18
p1430
sg140
(lp1431
sg142
g93
sg143
Nsg144
(lp1432
I7
aI1
aI18
asg146
Nsg147
g1430
sg148
(lp1433
sg150
g60
sg151
Nsg152
Nsg153
Nsbag3
(g4
g5
NtRp1434
(dp1435
g8
g10
sg131
Nsg132
(dp1436
sg134
Nsg26
g28
sg135
(lp1437
I7
aI1
aI19
asg137
Nsg138
VKohelet Rabbah 7:1:19
p1438
sg140
(lp1439
sg142
g93
sg143
Nsg144
(lp1440
I7
aI1
aI19
asg146
Nsg147
g1438
sg148
(lp1441
sg150
g60
sg151
Nsg152
Nsg153
Nsbag3
(g4
g5
NtRp1442
(dp1443
g8
g10
sg131
Nsg132
(dp1444
sg134
Nsg26
g28
sg135
(lp1445
I7
aI1
aI20
asg137
Nsg138
VKohelet Rabbah 7:1:20
p1446
sg140
(lp1447
sg142
g93
sg143
Nsg144
(lp1448
I7
aI1
aI20
asg146
Nsg147
g1446
sg148
(lp1449
sg150
g60
sg151
Nsg152
Nsg153
Nsbag3
(g4
g5
NtRp1450
(dp1451
g8
g10
sg131
Nsg132
(dp1452
sg134
Nsg26
g28
sg135
(lp1453
I7
aI1
aI21
asg137
Nsg138
VKohelet Rabbah 7:1:21
p1454
sg140
(lp1455
sg142
g93
sg143
Nsg144
(lp1456
I7
aI1
aI21
asg146
Nsg147
g1454
sg148
(lp1457
sg150
g60
sg151
Nsg152
Nsg153
Nsbag3
(g4
g5
NtRp1458
(dp1459
g8
g10
sg131
Nsg132
(dp1460
sg134
Nsg26
g28
sg135
(lp1461
I7
aI1
aI22
asg137
Nsg138
VKohelet Rabbah 7:1:22
p1462
sg140
(lp1463
sg142
g93
sg143
Nsg144
(lp1464
I7
aI1
aI22
asg146
Nsg147
g1462
sg148
(lp1465
sg150
g60
sg151
Nsg152
Nsg153
Nsbag3
(g4
g5
NtRp1466
(dp1467
g8
g10
sg131
Nsg132
(dp1468
sg134
Nsg26
g28
sg135
(lp1469
I7
aI1
aI23
asg137
Nsg138
VKohelet Rabbah 7:1:23
p1470
sg140
(lp1471
sg142
g93
sg143
Nsg144
(lp1472
I7
aI1
aI23
asg146
Nsg147
g1470
sg148
(lp1473
sg150
g60
sg151
Nsg152
Nsg153
Nsbag3
(g4
g5
NtRp1474
(dp1475
g8
g10
sg131
Nsg132
(dp1476
sg134
Nsg26
g28
sg135
(lp1477
I7
aI1
aI24
asg137
Nsg138
VKohelet Rabbah 7:1:24
p1478
sg140
(lp1479
sg142
g93
sg143
Nsg144
(lp1480
I7
aI1
aI24
asg146
Nsg147
g1478
sg148
(lp1481
sg150
g60
sg151
Nsg152
Nsg153
Nsbag3
(g4
g5
NtRp1482
(dp1483
g8
g10
sg131
Nsg132
(dp1484
sg134
Nsg26
g28
sg135
(lp1485
I7
aI1
aI25
asg137
Nsg138
VKohelet Rabbah 7:1:25
p1486
sg140
(lp1487
sg142
g93
sg143
Nsg144
(lp1488
I7
aI1
aI25
asg146
Nsg147
g1486
sg148
(lp1489
sg150
g60
sg151
Nsg152
Nsg153
Nsbag3
(g4
g5
NtRp1490
(dp1491
g8
g10
sg131
Nsg132
(dp1492
sg134
Nsg26
g28
sg135
(lp1493
I7
aI1
aI26
asg137
Nsg138
VKohelet Rabbah 7:1:26
p1494
sg140
(lp1495
sg142
g93
sg143
Nsg144
(lp1496
I7
aI1
aI26
asg146
Nsg147
g1494
sg148
(lp1497
sg150
g60
sg151
Nsg152
Nsg153
Nsbag3
(g4
g5
NtRp1498
(dp1499
g8
g10
sg131
Nsg132
(dp1500
sg134
Nsg26
g28
sg135
(lp1501
I7
aI1
aI27
asg137
Nsg138
VKohelet Rabbah 7:1:27
p1502
sg140
(lp1503
sg142
g93
sg143
Nsg144
(lp1504
I7
aI1
aI27
asg146
Nsg147
g1502
sg148
(lp1505
sg150
g60
sg151
Nsg152
Nsg153
Nsbag3
(g4
g5
NtRp1506
(dp1507
g8
g10
sg131
Nsg132
(dp1508
sg134
Nsg26
g28
sg135
(lp1509
I7
aI1
aI28
asg137
Nsg138
VKohelet Rabbah 7:1:28
p1510
sg140
(lp1511
sg142
g93
sg143
Nsg144
(lp1512
I7
aI1
aI28
asg146
Nsg147
g1510
sg148
(lp1513
sg150
g60
sg151
Nsg152
Nsg153
Nsbag3
(g4
g5
NtRp1514
(dp1515
g8
g10
sg131
Nsg132
(dp1516
sg134
Nsg26
g28
sg135
(lp1517
I7
aI1
aI29
asg137
Nsg138
VKohelet Rabbah 7:1:29
p1518
sg140
(lp1519
sg142
g93
sg143
Nsg144
(lp1520
I7
aI1
aI29
asg146
Nsg147
g1518
sg148
(lp1521
sg150
g60
sg151
Nsg152
Nsg153
Nsbag3
(g4
g5
NtRp1522
(dp1523
g8
g10
sg131
Nsg132
(dp1524
sg134
Nsg26
g28
sg135
(lp1525
I7
aI2
aI1
asg137
Nsg138
VKohelet Rabbah 7:2:1
p1526
sg140
(lp1527
sg142
g93
sg143
Nsg144
(lp1528
I7
aI2
aI1
asg146
Nsg147
g1526
sg148
(lp1529
sg150
g60
sg151
Nsg152
Nsg153
Nsbag3
(g4
g5
NtRp1530
(dp1531
g8
g10
sg131
Nsg132
(dp1532
sg134
Nsg26
g28
sg135
(lp1533
I7
aI2
aI2
asg137
Nsg138
VKohelet Rabbah 7:2:2
p1534
sg140
(lp1535
sg142
g93
sg143
Nsg144
(lp1536
I7
aI2
aI2
asg146
Nsg147
g1534
sg148
(lp1537
sg150
g60
sg151
Nsg152
Nsg153
Nsbag3
(g4
g5
NtRp1538
(dp1539
g8
g10
sg131
Nsg132
(dp1540
sg134
Nsg26
g28
sg135
(lp1541
I7
aI2
aI3
asg137
Nsg138
VKohelet Rabbah 7:2:3
p1542
sg140
(lp1543
sg142
g93
sg143
Nsg144
(lp1544
I7
aI2
aI3
asg146
Nsg147
g1542
sg148
(lp1545
sg150
g60
sg151
Nsg152
Nsg153
Nsbag3
(g4
g5
NtRp1546
(dp1547
g8
g10
sg131
Nsg132
(dp1548
sg134
Nsg26
g28
sg135
(lp1549
I7
aI2
aI4
asg137
Nsg138
VKohelet Rabbah 7:2:4
p1550
sg140
(lp1551
sg142
g93
sg143
Nsg144
(lp1552
I7
aI2
aI4
asg146
Nsg147
g1550
sg148
(lp1553
sg150
g60
sg151
Nsg152
Nsg153
Nsbag3
(g4
g5
NtRp1554
(dp1555
g8
g10
sg131
Nsg132
(dp1556
sg134
Nsg26
g28
sg135
(lp1557
I7
aI2
aI5
asg137
Nsg138
VKohelet Rabbah 7:2:5
p1558
sg140
(lp1559
sg142
g93
sg143
Nsg144
(lp1560
I7
aI2
aI5
asg146
Nsg147
g1558
sg148
(lp1561
sg150
g60
sg151
Nsg152
Nsg153
Nsbag3
(g4
g5
NtRp1562
(dp1563
g8
g10
sg131
Nsg132
(dp1564
sg134
Nsg26
g28
sg135
(lp1565
I7
aI3
aI1
asg137
Nsg138
VKohelet Rabbah 7:3:1
p1566
sg140
(lp1567
sg142
g93
sg143
Nsg144
(lp1568
I7
aI3
aI1
asg146
Nsg147
g1566
sg148
(lp1569
sg150
g60
sg151
Nsg152
Nsg153
Nsbag3
(g4
g5
NtRp1570
(dp1571
g8
g10
sg131
Nsg132
(dp1572
sg134
Nsg26
g28
sg135
(lp1573
I7
aI4
aI1
asg137
Nsg138
VKohelet Rabbah 7:4:1
p1574
sg140
(lp1575
sg142
g93
sg143
Nsg144
(lp1576
I7
aI4
aI1
asg146
Nsg147
g1574
sg148
(lp1577
sg150
g60
sg151
Nsg152
Nsg153
Nsbag3
(g4
g5
NtRp1578
(dp1579
g8
g10
sg131
Nsg132
(dp1580
sg134
Nsg26
g28
sg135
(lp1581
I7
aI5
aI1
asg137
Nsg138
VKohelet Rabbah 7:5:1
p1582
sg140
(lp1583
sg142
g93
sg143
Nsg144
(lp1584
I7
aI5
aI1
asg146
Nsg147
g1582
sg148
(lp1585
sg150
g60
sg151
Nsg152
Nsg153
Nsbag3
(g4
g5
NtRp1586
(dp1587
g8
g10
sg131
Nsg132
(dp1588
sg134
Nsg26
g28
sg135
(lp1589
I7
aI6
aI1
asg137
Nsg138
VKohelet Rabbah 7:6:1
p1590
sg140
(lp1591
sg142
g93
sg143
Nsg144
(lp1592
I7
aI6
aI1
asg146
Nsg147
g1590
sg148
(lp1593
sg150
g60
sg151
Nsg152
Nsg153
Nsbag3
(g4
g5
NtRp1594
(dp1595
g8
g10
sg131
Nsg132
(dp1596
sg134
Nsg26
g28
sg135
(lp1597
I7
aI7
aI1
asg137
Nsg138
VKohelet Rabbah 7:7:1
p1598
sg140
(lp1599
sg142
g93
sg143
Nsg144
(lp1600
I7
aI7
aI1
asg146
Nsg147
g1598
sg148
(lp1601
sg150
g60
sg151
Nsg152
Nsg153
Nsbag3
(g4
g5
NtRp1602
(dp1603
g8
g10
sg131
Nsg132
(dp1604
sg134
Nsg26
g28
sg135
(lp1605
I7
aI7
aI2
asg137
Nsg138
VKohelet Rabbah 7:7:2
p1606
sg140
(lp1607
sg142
g93
sg143
Nsg144
(lp1608
I7
aI7
aI2
asg146
Nsg147
g1606
sg148
(lp1609
sg150
g60
sg151
Nsg152
Nsg153
Nsbag3
(g4
g5
NtRp1610
(dp1611
g8
g10
sg131
Nsg132
(dp1612
sg134
Nsg26
g28
sg135
(lp1613
I7
aI8
aI1
asg137
Nsg138
VKohelet Rabbah 7:8:1
p1614
sg140
(lp1615
sg142
g93
sg143
Nsg144
(lp1616
I7
aI8
aI1
asg146
Nsg147
g1614
sg148
(lp1617
sg150
g60
sg151
Nsg152
Nsg153
Nsbag3
(g4
g5
NtRp1618
(dp1619
g8
g10
sg131
Nsg132
(dp1620
sg134
Nsg26
g28
sg135
(lp1621
I7
aI9
aI1
asg137
Nsg138
VKohelet Rabbah 7:9:1
p1622
sg140
(lp1623
sg142
g93
sg143
Nsg144
(lp1624
I7
aI9
aI1
asg146
Nsg147
g1622
sg148
(lp1625
sg150
g60
sg151
Nsg152
Nsg153
Nsbag3
(g4
g5
NtRp1626
(dp1627
g8
g10
sg131
Nsg132
(dp1628
sg134
Nsg26
g28
sg135
(lp1629
I7
aI11
aI1
asg137
Nsg138
VKohelet Rabbah 7:11:1
p1630
sg140
(lp1631
sg142
g93
sg143
Nsg144
(lp1632
I7
aI11
aI1
asg146
Nsg147
g1630
sg148
(lp1633
sg150
g60
sg151
Nsg152
Nsg153
Nsbag3
(g4
g5
NtRp1634
(dp1635
g8
g10
sg131
Nsg132
(dp1636
sg134
Nsg26
g28
sg135
(lp1637
I7
aI13
aI1
asg137
Nsg138
VKohelet Rabbah 7:13:1
p1638
sg140
(lp1639
sg142
g93
sg143
Nsg144
(lp1640
I7
aI13
aI1
asg146
Nsg147
g1638
sg148
(lp1641
sg150
g60
sg151
Nsg152
Nsg153
Nsbag3
(g4
g5
NtRp1642
(dp1643
g8
g10
sg131
Nsg132
(dp1644
sg134
Nsg26
g28
sg135
(lp1645
I7
aI14
aI1
asg137
Nsg138
VKohelet Rabbah 7:14:1
p1646
sg140
(lp1647
sg142
g93
sg143
Nsg144
(lp1648
I7
aI14
aI1
asg146
Nsg147
g1646
sg148
(lp1649
sg150
g60
sg151
Nsg152
Nsg153
Nsbag3
(g4
g5
NtRp1650
(dp1651
g8
g10
sg131
Nsg132
(dp1652
sg134
Nsg26
g28
sg135
(lp1653
I7
aI14
aI2
asg137
Nsg138
VKohelet Rabbah 7:14:2
p1654
sg140
(lp1655
sg142
g93
sg143
Nsg144
(lp1656
I7
aI14
aI2
asg146
Nsg147
g1654
sg148
(lp1657
sg150
g60
sg151
Nsg152
Nsg153
Nsbag3
(g4
g5
NtRp1658
(dp1659
g8
g10
sg131
Nsg132
(dp1660
sg134
Nsg26
g28
sg135
(lp1661
I7
aI14
aI3
asg137
Nsg138
VKohelet Rabbah 7:14:3
p1662
sg140
(lp1663
sg142
g93
sg143
Nsg144
(lp1664
I7
aI14
aI3
asg146
Nsg147
g1662
sg148
(lp1665
sg150
g60
sg151
Nsg152
Nsg153
Nsbag3
(g4
g5
NtRp1666
(dp1667
g8
g10
sg131
Nsg132
(dp1668
sg134
Nsg26
g28
sg135
(lp1669
I7
aI15
aI1
asg137
Nsg138
VKohelet Rabbah 7:15:1
p1670
sg140
(lp1671
sg142
g93
sg143
Nsg144
(lp1672
I7
aI15
aI1
asg146
Nsg147
g1670
sg148
(lp1673
sg150
g60
sg151
Nsg152
Nsg153
Nsbag3
(g4
g5
NtRp1674
(dp1675
g8
g10
sg131
Nsg132
(dp1676
sg134
Nsg26
g28
sg135
(lp1677
I7
aI16
aI1
asg137
Nsg138
VKohelet Rabbah 7:16:1
p1678
sg140
(lp1679
sg142
g93
sg143
Nsg144
(lp1680
I7
aI16
aI1
asg146
Nsg147
g1678
sg148
(lp1681
sg150
g60
sg151
Nsg152
Nsg153
Nsbag3
(g4
g5
NtRp1682
(dp1683
g8
g10
sg131
Nsg132
(dp1684
sg134
Nsg26
g28
sg135
(lp1685
I7
aI17
aI1
asg137
Nsg138
VKohelet Rabbah 7:17:1
p1686
sg140
(lp1687
sg142
g93
sg143
Nsg144
(lp1688
I7
aI17
aI1
asg146
Nsg147
g1686
sg148
(lp1689
sg150
g60
sg151
Nsg152
Nsg153
Nsbag3
(g4
g5
NtRp1690
(dp1691
g8
g10
sg131
Nsg132
(dp1692
sg134
Nsg26
g28
sg135
(lp1693
I7
aI18
aI1
asg137
Nsg138
VKohelet Rabbah 7:18:1
p1694
sg140
(lp1695
sg142
g93
sg143
Nsg144
(lp1696
I7
aI18
aI1
asg146
Nsg147
g1694
sg148
(lp1697
sg150
g60
sg151
Nsg152
Nsg153
Nsbag3
(g4
g5
NtRp1698
(dp1699
g8
g10
sg131
Nsg132
(dp1700
sg134
Nsg26
g28
sg135
(lp1701
I7
aI19
aI1
asg137
Nsg138
VKohelet Rabbah 7:19:1
p1702
sg140
(lp1703
sg142
g93
sg143
Nsg144
(lp1704
I7
aI19
aI1
asg146
Nsg147
g1702
sg148
(lp1705
sg150
g60
sg151
Nsg152
Nsg153
Nsbag3
(g4
g5
NtRp1706
(dp1707
g8
g10
sg131
Nsg132
(dp1708
sg134
Nsg26
g28
sg135
(lp1709
I7
aI19
aI2
asg137
Nsg138
VKohelet Rabbah 7:19:2
p1710
sg140
(lp1711
sg142
g93
sg143
Nsg144
(lp1712
I7
aI19
aI2
asg146
Nsg147
g1710
sg148
(lp1713
sg150
g60
sg151
Nsg152
Nsg153
Nsbag3
(g4
g5
NtRp1714
(dp1715
g8
g10
sg131
Nsg132
(dp1716
sg134
Nsg26
g28
sg135
(lp1717
I7
aI19
aI3
asg137
Nsg138
VKohelet Rabbah 7:19:3
p1718
sg140
(lp1719
sg142
g93
sg143
Nsg144
(lp1720
I7
aI19
aI3
asg146
Nsg147
g1718
sg148
(lp1721
sg150
g60
sg151
Nsg152
Nsg153
Nsbag3
(g4
g5
NtRp1722
(dp1723
g8
g10
sg131
Nsg132
(dp1724
sg134
Nsg26
g28
sg135
(lp1725
I7
aI19
aI4
asg137
Nsg138
VKohelet Rabbah 7:19:4
p1726
sg140
(lp1727
sg142
g93
sg143
Nsg144
(lp1728
I7
aI19
aI4
asg146
Nsg147
g1726
sg148
(lp1729
sg150
g60
sg151
Nsg152
Nsg153
Nsbag3
(g4
g5
NtRp1730
(dp1731
g8
g10
sg131
Nsg132
(dp1732
sg134
Nsg26
g28
sg135
(lp1733
I7
aI20
aI1
asg137
Nsg138
VKohelet Rabbah 7:20:1
p1734
sg140
(lp1735
sg142
g93
sg143
Nsg144
(lp1736
I7
aI20
aI1
asg146
Nsg147
g1734
sg148
(lp1737
sg150
g60
sg151
Nsg152
Nsg153
Nsbag3
(g4
g5
NtRp1738
(dp1739
g8
g10
sg131
Nsg132
(dp1740
sg134
Nsg26
g28
sg135
(lp1741
I7
aI23
aI1
asg137
Nsg138
VKohelet Rabbah 7:23:1
p1742
sg140
(lp1743
sg142
g93
sg143
Nsg144
(lp1744
I7
aI23
aI1
asg146
Nsg147
g1742
sg148
(lp1745
sg150
g60
sg151
Nsg152
Nsg153
Nsbag3
(g4
g5
NtRp1746
(dp1747
g8
g10
sg131
Nsg132
(dp1748
sg134
Nsg26
g28
sg135
(lp1749
I7
aI23
aI2
asg137
Nsg138
VKohelet Rabbah 7:23:2
p1750
sg140
(lp1751
sg142
g93
sg143
Nsg144
(lp1752
I7
aI23
aI2
asg146
Nsg147
g1750
sg148
(lp1753
sg150
g60
sg151
Nsg152
Nsg153
Nsbag3
(g4
g5
NtRp1754
(dp1755
g8
g10
sg131
Nsg132
(dp1756
sg134
Nsg26
g28
sg135
(lp1757
I7
aI23
aI3
asg137
Nsg138
VKohelet Rabbah 7:23:3
p1758
sg140
(lp1759
sg142
g93
sg143
Nsg144
(lp1760
I7
aI23
aI3
asg146
Nsg147
g1758
sg148
(lp1761
sg150
g60
sg151
Nsg152
Nsg153
Nsbag3
(g4
g5
NtRp1762
(dp1763
g8
g10
sg131
Nsg132
(dp1764
sg134
Nsg26
g28
sg135
(lp1765
I7
aI23
aI4
asg137
Nsg138
VKohelet Rabbah 7:23:4
p1766
sg140
(lp1767
sg142
g93
sg143
Nsg144
(lp1768
I7
aI23
aI4
asg146
Nsg147
g1766
sg148
(lp1769
sg150
g60
sg151
Nsg152
Nsg153
Nsbag3
(g4
g5
NtRp1770
(dp1771
g8
g10
sg131
Nsg132
(dp1772
sg134
Nsg26
g28
sg135
(lp1773
I7
aI26
aI1
asg137
Nsg138
VKohelet Rabbah 7:26:1
p1774
sg140
(lp1775
sg142
g93
sg143
Nsg144
(lp1776
I7
aI26
aI1
asg146
Nsg147
g1774
sg148
(lp1777
sg150
g60
sg151
Nsg152
Nsg153
Nsbag3
(g4
g5
NtRp1778
(dp1779
g8
g10
sg131
Nsg132
(dp1780
sg134
Nsg26
g28
sg135
(lp1781
I7
aI26
aI2
asg137
Nsg138
VKohelet Rabbah 7:26:2
p1782
sg140
(lp1783
sg142
g93
sg143
Nsg144
(lp1784
I7
aI26
aI2
asg146
Nsg147
g1782
sg148
(lp1785
sg150
g60
sg151
Nsg152
Nsg153
Nsbag3
(g4
g5
NtRp1786
(dp1787
g8
g10
sg131
Nsg132
(dp1788
sg134
Nsg26
g28
sg135
(lp1789
I7
aI26
aI3
asg137
Nsg138
VKohelet Rabbah 7:26:3
p1790
sg140
(lp1791
sg142
g93
sg143
Nsg144
(lp1792
I7
aI26
aI3
asg146
Nsg147
g1790
sg148
(lp1793
sg150
g60
sg151
Nsg152
Nsg153
Nsbag3
(g4
g5
NtRp1794
(dp1795
g8
g10
sg131
Nsg132
(dp1796
sg134
Nsg26
g28
sg135
(lp1797
I7
aI27
aI1
asg137
Nsg138
VKohelet Rabbah 7:27:1
p1798
sg140
(lp1799
sg142
g93
sg143
Nsg144
(lp1800
I7
aI27
aI1
asg146
Nsg147
g1798
sg148
(lp1801
sg150
g60
sg151
Nsg152
Nsg153
Nsbag3
(g4
g5
NtRp1802
(dp1803
g8
g10
sg131
Nsg132
(dp1804
sg134
Nsg26
g28
sg135
(lp1805
I7
aI28
aI1
asg137
Nsg138
VKohelet Rabbah 7:28:1
p1806
sg140
(lp1807
sg142
g93
sg143
Nsg144
(lp1808
I7
aI28
aI1
asg146
Nsg147
g1806
sg148
(lp1809
sg150
g60
sg151
Nsg152
Nsg153
Nsbag3
(g4
g5
NtRp1810
(dp1811
g8
g10
sg131
Nsg132
(dp1812
sg134
Nsg26
g28
sg135
(lp1813
I7
aI29
aI1
asg137
Nsg138
VKohelet Rabbah 7:29:1
p1814
sg140
(lp1815
sg142
g93
sg143
Nsg144
(lp1816
I7
aI29
aI1
asg146
Nsg147
g1814
sg148
(lp1817
sg150
g60
sg151
Nsg152
Nsg153
Nsbag3
(g4
g5
NtRp1818
(dp1819
g8
g10
sg131
Nsg132
(dp1820
sg134
Nsg26
g28
sg135
(lp1821
I8
aI1
aI1
asg137
Nsg138
VKohelet Rabbah 8:1:1
p1822
sg140
(lp1823
sg142
g93
sg143
Nsg144
(lp1824
I8
aI1
aI1
asg146
Nsg147
g1822
sg148
(lp1825
sg150
g60
sg151
Nsg152
Nsg153
Nsbag3
(g4
g5
NtRp1826
(dp1827
g8
g10
sg131
Nsg132
(dp1828
sg134
Nsg26
g28
sg135
(lp1829
I8
aI1
aI2
asg137
Nsg138
VKohelet Rabbah 8:1:2
p1830
sg140
(lp1831
sg142
g93
sg143
Nsg144
(lp1832
I8
aI1
aI2
asg146
Nsg147
g1830
sg148
(lp1833
sg150
g60
sg151
Nsg152
Nsg153
Nsbag3
(g4
g5
NtRp1834
(dp1835
g8
g10
sg131
Nsg132
(dp1836
sg134
Nsg26
g28
sg135
(lp1837
I8
aI1
aI3
asg137
Nsg138
VKohelet Rabbah 8:1:3
p1838
sg140
(lp1839
sg142
g93
sg143
Nsg144
(lp1840
I8
aI1
aI3
asg146
Nsg147
g1838
sg148
(lp1841
sg150
g60
sg151
Nsg152
Nsg153
Nsbag3
(g4
g5
NtRp1842
(dp1843
g8
g10
sg131
Nsg132
(dp1844
sg134
Nsg26
g28
sg135
(lp1845
I8
aI1
aI4
asg137
Nsg138
VKohelet Rabbah 8:1:4
p1846
sg140
(lp1847
sg142
g93
sg143
Nsg144
(lp1848
I8
aI1
aI4
asg146
Nsg147
g1846
sg148
(lp1849
sg150
g60
sg151
Nsg152
Nsg153
Nsbag3
(g4
g5
NtRp1850
(dp1851
g8
g10
sg131
Nsg132
(dp1852
sg134
Nsg26
g28
sg135
(lp1853
I8
aI1
aI5
asg137
Nsg138
VKohelet Rabbah 8:1:5
p1854
sg140
(lp1855
sg142
g93
sg143
Nsg144
(lp1856
I8
aI1
aI5
asg146
Nsg147
g1854
sg148
(lp1857
sg150
g60
sg151
Nsg152
Nsg153
Nsbag3
(g4
g5
NtRp1858
(dp1859
g8
g10
sg131
Nsg132
(dp1860
sg134
Nsg26
g28
sg135
(lp1861
I8
aI2
aI1
asg137
Nsg138
VKohelet Rabbah 8:2:1
p1862
sg140
(lp1863
sg142
g93
sg143
Nsg144
(lp1864
I8
aI2
aI1
asg146
Nsg147
g1862
sg148
(lp1865
sg150
g60
sg151
Nsg152
Nsg153
Nsbag3
(g4
g5
NtRp1866
(dp1867
g8
g10
sg131
Nsg132
(dp1868
sg134
Nsg26
g28
sg135
(lp1869
I8
aI3
aI1
asg137
Nsg138
VKohelet Rabbah 8:3:1
p1870
sg140
(lp1871
sg142
g93
sg143
Nsg144
(lp1872
I8
aI3
aI1
asg146
Nsg147
g1870
sg148
(lp1873
sg150
g60
sg151
Nsg152
Nsg153
Nsbag3
(g4
g5
NtRp1874
(dp1875
g8
g10
sg131
Nsg132
(dp1876
sg134
Nsg26
g28
sg135
(lp1877
I8
aI4
aI1
asg137
Nsg138
VKohelet Rabbah 8:4:1
p1878
sg140
(lp1879
sg142
g93
sg143
Nsg144
(lp1880
I8
aI4
aI1
asg146
Nsg147
g1878
sg148
(lp1881
sg150
g60
sg151
Nsg152
Nsg153
Nsbag3
(g4
g5
NtRp1882
(dp1883
g8
g10
sg131
Nsg132
(dp1884
sg134
Nsg26
g28
sg135
(lp1885
I8
aI5
aI1
asg137
Nsg138
VKohelet Rabbah 8:5:1
p1886
sg140
(lp1887
sg142
g93
sg143
Nsg144
(lp1888
I8
aI5
aI1
asg146
Nsg147
g1886
sg148
(lp1889
sg150
g60
sg151
Nsg152
Nsg153
Nsbag3
(g4
g5
NtRp1890
(dp1891
g8
g10
sg131
Nsg132
(dp1892
sg134
Nsg26
g28
sg135
(lp1893
I8
aI6
aI1
asg137
Nsg138
VKohelet Rabbah 8:6:1
p1894
sg140
(lp1895
sg142
g93
sg143
Nsg144
(lp1896
I8
aI6
aI1
asg146
Nsg147
g1894
sg148
(lp1897
sg150
g60
sg151
Nsg152
Nsg153
Nsbag3
(g4
g5
NtRp1898
(dp1899
g8
g10
sg131
Nsg132
(dp1900
sg134
Nsg26
g28
sg135
(lp1901
I8
aI8
aI1
asg137
Nsg138
VKohelet Rabbah 8:8:1
p1902
sg140
(lp1903
sg142
g93
sg143
Nsg144
(lp1904
I8
aI8
aI1
asg146
Nsg147
g1902
sg148
(lp1905
sg150
g60
sg151
Nsg152
Nsg153
Nsbag3
(g4
g5
NtRp1906
(dp1907
g8
g10
sg131
Nsg132
(dp1908
sg134
Nsg26
g28
sg135
(lp1909
I8
aI9
aI1
asg137
Nsg138
VKohelet Rabbah 8:9:1
p1910
sg140
(lp1911
sg142
g93
sg143
Nsg144
(lp1912
I8
aI9
aI1
asg146
Nsg147
g1910
sg148
(lp1913
sg150
g60
sg151
Nsg152
Nsg153
Nsbag3
(g4
g5
NtRp1914
(dp1915
g8
g10
sg131
Nsg132
(dp1916
sg134
Nsg26
g28
sg135
(lp1917
I8
aI10
aI1
asg137
Nsg138
VKohelet Rabbah 8:10:1
p1918
sg140
(lp1919
sg142
g93
sg143
Nsg144
(lp1920
I8
aI10
aI1
asg146
Nsg147
g1918
sg148
(lp1921
sg150
g60
sg151
Nsg152
Nsg153
Nsbag3
(g4
g5
NtRp1922
(dp1923
g8
g10
sg131
Nsg132
(dp1924
sg134
Nsg26
g28
sg135
(lp1925
I8
aI11
aI1
asg137
Nsg138
VKohelet Rabbah 8:11:1
p1926
sg140
(lp1927
sg142
g93
sg143
Nsg144
(lp1928
I8
aI11
aI1
asg146
Nsg147
g1926
sg148
(lp1929
sg150
g60
sg151
Nsg152
Nsg153
Nsbag3
(g4
g5
NtRp1930
(dp1931
g8
g10
sg131
Nsg132
(dp1932
sg134
Nsg26
g28
sg135
(lp1933
I8
aI13
aI1
asg137
Nsg138
VKohelet Rabbah 8:13:1
p1934
sg140
(lp1935
sg142
g93
sg143
Nsg144
(lp1936
I8
aI13
aI1
asg146
Nsg147
g1934
sg148
(lp1937
sg150
g60
sg151
Nsg152
Nsg153
Nsbag3
(g4
g5
NtRp1938
(dp1939
g8
g10
sg131
Nsg132
(dp1940
sg134
Nsg26
g28
sg135
(lp1941
I8
aI15
aI1
asg137
Nsg138
VKohelet Rabbah 8:15:1
p1942
sg140
(lp1943
sg142
g93
sg143
Nsg144
(lp1944
I8
aI15
aI1
asg146
Nsg147
g1942
sg148
(lp1945
sg150
g60
sg151
Nsg152
Nsg153
Nsbag3
(g4
g5
NtRp1946
(dp1947
g8
g10
sg131
Nsg132
(dp1948
sg134
Nsg26
g28
sg135
(lp1949
I8
aI16
aI1
asg137
Nsg138
VKohelet Rabbah 8:16:1
p1950
sg140
(lp1951
sg142
g93
sg143
Nsg144
(lp1952
I8
aI16
aI1
asg146
Nsg147
g1950
sg148
(lp1953
sg150
g60
sg151
Nsg152
Nsg153
Nsbag3
(g4
g5
NtRp1954
(dp1955
g8
g10
sg131
Nsg132
(dp1956
sg134
Nsg26
g28
sg135
(lp1957
I8
aI17
aI1
asg137
Nsg138
VKohelet Rabbah 8:17:1
p1958
sg140
(lp1959
sg142
g93
sg143
Nsg144
(lp1960
I8
aI17
aI1
asg146
Nsg147
g1958
sg148
(lp1961
sg150
g60
sg151
Nsg152
Nsg153
Nsbag3
(g4
g5
NtRp1962
(dp1963
g8
g10
sg131
Nsg132
(dp1964
sg134
Nsg26
g28
sg135
(lp1965
I9
aI1
aI1
asg137
Nsg138
VKohelet Rabbah 9:1:1
p1966
sg140
(lp1967
sg142
g93
sg143
Nsg144
(lp1968
I9
aI1
aI1
asg146
Nsg147
g1966
sg148
(lp1969
sg150
g60
sg151
Nsg152
Nsg153
Nsbag3
(g4
g5
NtRp1970
(dp1971
g8
g10
sg131
Nsg132
(dp1972
sg134
Nsg26
g28
sg135
(lp1973
I9
aI1
aI2
asg137
Nsg138
VKohelet Rabbah 9:1:2
p1974
sg140
(lp1975
sg142
g93
sg143
Nsg144
(lp1976
I9
aI1
aI2
asg146
Nsg147
g1974
sg148
(lp1977
sg150
g60
sg151
Nsg152
Nsg153
Nsbag3
(g4
g5
NtRp1978
(dp1979
g8
g10
sg131
Nsg132
(dp1980
sg134
Nsg26
g28
sg135
(lp1981
I9
aI2
aI1
asg137
Nsg138
VKohelet Rabbah 9:2:1
p1982
sg140
(lp1983
sg142
g93
sg143
Nsg144
(lp1984
I9
aI2
aI1
asg146
Nsg147
g1982
sg148
(lp1985
sg150
g60
sg151
Nsg152
Nsg153
Nsbag3
(g4
g5
NtRp1986
(dp1987
g8
g10
sg131
Nsg132
(dp1988
sg134
Nsg26
g28
sg135
(lp1989
I9
aI2
aI2
asg137
Nsg138
VKohelet Rabbah 9:2:2
p1990
sg140
(lp1991
sg142
g93
sg143
Nsg144
(lp1992
I9
aI2
aI2
asg146
Nsg147
g1990
sg148
(lp1993
sg150
g60
sg151
Nsg152
Nsg153
Nsbag3
(g4
g5
NtRp1994
(dp1995
g8
g10
sg131
Nsg132
(dp1996
sg134
Nsg26
g28
sg135
(lp1997
I9
aI5
aI1
asg137
Nsg138
VKohelet Rabbah 9:5:1
p1998
sg140
(lp1999
sg142
g93
sg143
Nsg144
(lp2000
I9
aI5
aI1
asg146
Nsg147
g1998
sg148
(lp2001
sg150
g60
sg151
Nsg152
Nsg153
Nsbag3
(g4
g5
NtRp2002
(dp2003
g8
g10
sg131
Nsg132
(dp2004
sg134
Nsg26
g28
sg135
(lp2005
I9
aI6
aI1
asg137
Nsg138
VKohelet Rabbah 9:6:1
p2006
sg140
(lp2007
sg142
g93
sg143
Nsg144
(lp2008
I9
aI6
aI1
asg146
Nsg147
g2006
sg148
(lp2009
sg150
g60
sg151
Nsg152
Nsg153
Nsbag3
(g4
g5
NtRp2010
(dp2011
g8
g10
sg131
Nsg132
(dp2012
sg134
Nsg26
g28
sg135
(lp2013
I9
aI7
aI1
asg137
Nsg138
VKohelet Rabbah 9:7:1
p2014
sg140
(lp2015
sg142
g93
sg143
Nsg144
(lp2016
I9
aI7
aI1
asg146
Nsg147
g2014
sg148
(lp2017
sg150
g60
sg151
Nsg152
Nsg153
Nsbag3
(g4
g5
NtRp2018
(dp2019
g8
g10
sg131
Nsg132
(dp2020
sg134
Nsg26
g28
sg135
(lp2021
I9
aI8
aI1
asg137
Nsg138
VKohelet Rabbah 9:8:1
p2022
sg140
(lp2023
sg142
g93
sg143
Nsg144
(lp2024
I9
aI8
aI1
asg146
Nsg147
g2022
sg148
(lp2025
sg150
g60
sg151
Nsg152
Nsg153
Nsbag3
(g4
g5
NtRp2026
(dp2027
g8
g10
sg131
Nsg132
(dp2028
sg134
Nsg26
g28
sg135
(lp2029
I9
aI9
aI1
asg137
Nsg138
VKohelet Rabbah 9:9:1
p2030
sg140
(lp2031
sg142
g93
sg143
Nsg144
(lp2032
I9
aI9
aI1
asg146
Nsg147
g2030
sg148
(lp2033
sg150
g60
sg151
Nsg152
Nsg153
Nsbag3
(g4
g5
NtRp2034
(dp2035
g8
g10
sg131
Nsg132
(dp2036
sg134
Nsg26
g28
sg135
(lp2037
I9
aI10
aI1
asg137
Nsg138
VKohelet Rabbah 9:10:1
p2038
sg140
(lp2039
sg142
g93
sg143
Nsg144
(lp2040
I9
aI10
aI1
asg146
Nsg147
g2038
sg148
(lp2041
sg150
g60
sg151
Nsg152
Nsg153
Nsbag3
(g4
g5
NtRp2042
(dp2043
g8
g10
sg131
Nsg132
(dp2044
sg134
Nsg26
g28
sg135
(lp2045
I9
aI10
aI2
asg137
Nsg138
VKohelet Rabbah 9:10:2
p2046
sg140
(lp2047
sg142
g93
sg143
Nsg144
(lp2048
I9
aI10
aI2
asg146
Nsg147
g2046
sg148
(lp2049
sg150
g60
sg151
Nsg152
Nsg153
Nsbag3
(g4
g5
NtRp2050
(dp2051
g8
g10
sg131
Nsg132
(dp2052
sg134
Nsg26
g28
sg135
(lp2053
I9
aI10
aI3
asg137
Nsg138
VKohelet Rabbah 9:10:3
p2054
sg140
(lp2055
sg142
g93
sg143
Nsg144
(lp2056
I9
aI10
aI3
asg146
Nsg147
g2054
sg148
(lp2057
sg150
g60
sg151
Nsg152
Nsg153
Nsbag3
(g4
g5
NtRp2058
(dp2059
g8
g10
sg131
Nsg132
(dp2060
sg134
Nsg26
g28
sg135
(lp2061
I9
aI11
aI1
asg137
Nsg138
VKohelet Rabbah 9:11:1
p2062
sg140
(lp2063
sg142
g93
sg143
Nsg144
(lp2064
I9
aI11
aI1
asg146
Nsg147
g2062
sg148
(lp2065
sg150
g60
sg151
Nsg152
Nsg153
Nsbag3
(g4
g5
NtRp2066
(dp2067
g8
g10
sg131
Nsg132
(dp2068
sg134
Nsg26
g28
sg135
(lp2069
I9
aI11
aI2
asg137
Nsg138
VKohelet Rabbah 9:11:2
p2070
sg140
(lp2071
sg142
g93
sg143
Nsg144
(lp2072
I9
aI11
aI2
asg146
Nsg147
g2070
sg148
(lp2073
sg150
g60
sg151
Nsg152
Nsg153
Nsbag3
(g4
g5
NtRp2074
(dp2075
g8
g10
sg131
Nsg132
(dp2076
sg134
Nsg26
g28
sg135
(lp2077
I9
aI12
aI1
asg137
Nsg138
VKohelet Rabbah 9:12:1
p2078
sg140
(lp2079
sg142
g93
sg143
Nsg144
(lp2080
I9
aI12
aI1
asg146
Nsg147
g2078
sg148
(lp2081
sg150
g60
sg151
Nsg152
Nsg153
Nsbag3
(g4
g5
NtRp2082
(dp2083
g8
g10
sg131
Nsg132
(dp2084
sg134
Nsg26
g28
sg135
(lp2085
I9
aI13
aI1
asg137
Nsg138
VKohelet Rabbah 9:13:1
p2086
sg140
(lp2087
sg142
g93
sg143
Nsg144
(lp2088
I9
aI13
aI1
asg146
Nsg147
g2086
sg148
(lp2089
sg150
g60
sg151
Nsg152
Nsg153
Nsbag3
(g4
g5
NtRp2090
(dp2091
g8
g10
sg131
Nsg132
(dp2092
sg134
Nsg26
g28
sg135
(lp2093
I9
aI14
aI1
asg137
Nsg138
VKohelet Rabbah 9:14:1
p2094
sg140
(lp2095
sg142
g93
sg143
Nsg144
(lp2096
I9
aI14
aI1
asg146
Nsg147
g2094
sg148
(lp2097
sg150
g60
sg151
Nsg152
Nsg153
Nsbag3
(g4
g5
NtRp2098
(dp2099
g8
g10
sg131
Nsg132
(dp2100
sg134
Nsg26
g28
sg135
(lp2101
I9
aI15
aI1
asg137
Nsg138
VKohelet Rabbah 9:15:1
p2102
sg140
(lp2103
sg142
g93
sg143
Nsg144
(lp2104
I9
aI15
aI1
asg146
Nsg147
g2102
sg148
(lp2105
sg150
g60
sg151
Nsg152
Nsg153
Nsbag3
(g4
g5
NtRp2106
(dp2107
g8
g10
sg131
Nsg132
(dp2108
sg134
Nsg26
g28
sg135
(lp2109
I9
aI15
aI2
asg137
Nsg138
VKohelet Rabbah 9:15:2
p2110
sg140
(lp2111
sg142
g93
sg143
Nsg144
(lp2112
I9
aI15
aI2
asg146
Nsg147
g2110
sg148
(lp2113
sg150
g60
sg151
Nsg152
Nsg153
Nsbag3
(g4
g5
NtRp2114
(dp2115
g8
g10
sg131
Nsg132
(dp2116
sg134
Nsg26
g28
sg135
(lp2117
I9
aI15
aI3
asg137
Nsg138
VKohelet Rabbah 9:15:3
p2118
sg140
(lp2119
sg142
g93
sg143
Nsg144
(lp2120
I9
aI15
aI3
asg146
Nsg147
g2118
sg148
(lp2121
sg150
g60
sg151
Nsg152
Nsg153
Nsbag3
(g4
g5
NtRp2122
(dp2123
g8
g10
sg131
Nsg132
(dp2124
sg134
Nsg26
g28
sg135
(lp2125
I9
aI15
aI4
asg137
Nsg138
VKohelet Rabbah 9:15:4
p2126
sg140
(lp2127
sg142
g93
sg143
Nsg144
(lp2128
I9
aI15
aI4
asg146
Nsg147
g2126
sg148
(lp2129
sg150
g60
sg151
Nsg152
Nsg153
Nsbag3
(g4
g5
NtRp2130
(dp2131
g8
g10
sg131
Nsg132
(dp2132
sg134
Nsg26
g28
sg135
(lp2133
I9
aI15
aI5
asg137
Nsg138
VKohelet Rabbah 9:15:5
p2134
sg140
(lp2135
sg142
g93
sg143
Nsg144
(lp2136
I9
aI15
aI5
asg146
Nsg147
g2134
sg148
(lp2137
sg150
g60
sg151
Nsg152
Nsg153
Nsbag3
(g4
g5
NtRp2138
(dp2139
g8
g10
sg131
Nsg132
(dp2140
sg134
Nsg26
g28
sg135
(lp2141
I9
aI15
aI6
asg137
Nsg138
VKohelet Rabbah 9:15:6
p2142
sg140
(lp2143
sg142
g93
sg143
Nsg144
(lp2144
I9
aI15
aI6
asg146
Nsg147
g2142
sg148
(lp2145
sg150
g60
sg151
Nsg152
Nsg153
Nsbag3
(g4
g5
NtRp2146
(dp2147
g8
g10
sg131
Nsg132
(dp2148
sg134
Nsg26
g28
sg135
(lp2149
I9
aI15
aI7
asg137
Nsg138
VKohelet Rabbah 9:15:7
p2150
sg140
(lp2151
sg142
g93
sg143
Nsg144
(lp2152
I9
aI15
aI7
asg146
Nsg147
g2150
sg148
(lp2153
sg150
g60
sg151
Nsg152
Nsg153
Nsbag3
(g4
g5
NtRp2154
(dp2155
g8
g10
sg131
Nsg132
(dp2156
sg134
Nsg26
g28
sg135
(lp2157
I9
aI15
aI8
asg137
Nsg138
VKohelet Rabbah 9:15:8
p2158
sg140
(lp2159
sg142
g93
sg143
Nsg144
(lp2160
I9
aI15
aI8
asg146
Nsg147
g2158
sg148
(lp2161
sg150
g60
sg151
Nsg152
Nsg153
Nsbag3
(g4
g5
NtRp2162
(dp2163
g8
g10
sg131
Nsg132
(dp2164
sg134
Nsg26
g28
sg135
(lp2165
I9
aI16
aI1
asg137
Nsg138
VKohelet Rabbah 9:16:1
p2166
sg140
(lp2167
sg142
g93
sg143
Nsg144
(lp2168
I9
aI16
aI1
asg146
Nsg147
g2166
sg148
(lp2169
sg150
g60
sg151
Nsg152
Nsg153
Nsbag3
(g4
g5
NtRp2170
(dp2171
g8
g10
sg131
Nsg132
(dp2172
sg134
Nsg26
g28
sg135
(lp2173
I9
aI17
aI1
asg137
Nsg138
VKohelet Rabbah 9:17:1
p2174
sg140
(lp2175
sg142
g93
sg143
Nsg144
(lp2176
I9
aI17
aI1
asg146
Nsg147
g2174
sg148
(lp2177
sg150
g60
sg151
Nsg152
Nsg153
Nsbag3
(g4
g5
NtRp2178
(dp2179
g8
g10
sg131
Nsg132
(dp2180
sg134
Nsg26
g28
sg135
(lp2181
I9
aI18
aI1
asg137
Nsg138
VKohelet Rabbah 9:18:1
p2182
sg140
(lp2183
sg142
g93
sg143
Nsg144
(lp2184
I9
aI18
aI1
asg146
Nsg147
g2182
sg148
(lp2185
sg150
g60
sg151
Nsg152
Nsg153
Nsbag3
(g4
g5
NtRp2186
(dp2187
g8
g10
sg131
Nsg132
(dp2188
sg134
Nsg26
g28
sg135
(lp2189
I9
aI18
aI2
asg137
Nsg138
VKohelet Rabbah 9:18:2
p2190
sg140
(lp2191
sg142
g93
sg143
Nsg144
(lp2192
I9
aI18
aI2
asg146
Nsg147
g2190
sg148
(lp2193
sg150
g60
sg151
Nsg152
Nsg153
Nsbag3
(g4
g5
NtRp2194
(dp2195
g8
g10
sg131
Nsg132
(dp2196
sg134
Nsg26
g28
sg135
(lp2197
I9
aI18
aI3
asg137
Nsg138
VKohelet Rabbah 9:18:3
p2198
sg140
(lp2199
sg142
g93
sg143
Nsg144
(lp2200
I9
aI18
aI3
asg146
Nsg147
g2198
sg148
(lp2201
sg150
g60
sg151
Nsg152
Nsg153
Nsbag3
(g4
g5
NtRp2202
(dp2203
g8
g10
sg131
Nsg132
(dp2204
sg134
Nsg26
g28
sg135
(lp2205
I10
aI1
aI1
asg137
Nsg138
VKohelet Rabbah 10:1:1
p2206
sg140
(lp2207
sg142
g93
sg143
Nsg144
(lp2208
I10
aI1
aI1
asg146
Nsg147
g2206
sg148
(lp2209
sg150
g60
sg151
Nsg152
Nsg153
Nsbag3
(g4
g5
NtRp2210
(dp2211
g8
g10
sg131
Nsg132
(dp2212
sg134
Nsg26
g28
sg135
(lp2213
I10
aI1
aI2
asg137
Nsg138
VKohelet Rabbah 10:1:2
p2214
sg140
(lp2215
sg142
g93
sg143
Nsg144
(lp2216
I10
aI1
aI2
asg146
Nsg147
g2214
sg148
(lp2217
sg150
g60
sg151
Nsg152
Nsg153
Nsbag3
(g4
g5
NtRp2218
(dp2219
g8
g10
sg131
Nsg132
(dp2220
sg134
Nsg26
g28
sg135
(lp2221
I10
aI2
aI1
asg137
Nsg138
VKohelet Rabbah 10:2:1
p2222
sg140
(lp2223
sg142
g93
sg143
Nsg144
(lp2224
I10
aI2
aI1
asg146
Nsg147
g2222
sg148
(lp2225
sg150
g60
sg151
Nsg152
Nsg153
Nsbag3
(g4
g5
NtRp2226
(dp2227
g8
g10
sg131
Nsg132
(dp2228
sg134
Nsg26
g28
sg135
(lp2229
I10
aI3
aI1
asg137
Nsg138
VKohelet Rabbah 10:3:1
p2230
sg140
(lp2231
sg142
g93
sg143
Nsg144
(lp2232
I10
aI3
aI1
asg146
Nsg147
g2230
sg148
(lp2233
sg150
g60
sg151
Nsg152
Nsg153
Nsbag3
(g4
g5
NtRp2234
(dp2235
g8
g10
sg131
Nsg132
(dp2236
sg134
Nsg26
g28
sg135
(lp2237
I10
aI4
aI1
asg137
Nsg138
VKohelet Rabbah 10:4:1
p2238
sg140
(lp2239
sg142
g93
sg143
Nsg144
(lp2240
I10
aI4
aI1
asg146
Nsg147
g2238
sg148
(lp2241
sg150
g60
sg151
Nsg152
Nsg153
Nsbag3
(g4
g5
NtRp2242
(dp2243
g8
g10
sg131
Nsg132
(dp2244
sg134
Nsg26
g28
sg135
(lp2245
I10
aI5
aI1
asg137
Nsg138
VKohelet Rabbah 10:5:1
p2246
sg140
(lp2247
sg142
g93
sg143
Nsg144
(lp2248
I10
aI5
aI1
asg146
Nsg147
g2246
sg148
(lp2249
sg150
g60
sg151
Nsg152
Nsg153
Nsbag3
(g4
g5
NtRp2250
(dp2251
g8
g10
sg131
Nsg132
(dp2252
sg134
Nsg26
g28
sg135
(lp2253
I10
aI6
aI1
asg137
Nsg138
VKohelet Rabbah 10:6:1
p2254
sg140
(lp2255
sg142
g93
sg143
Nsg144
(lp2256
I10
aI6
aI1
asg146
Nsg147
g2254
sg148
(lp2257
sg150
g60
sg151
Nsg152
Nsg153
Nsbag3
(g4
g5
NtRp2258
(dp2259
g8
g10
sg131
Nsg132
(dp2260
sg134
Nsg26
g28
sg135
(lp2261
I10
aI7
aI1
asg137
Nsg138
VKohelet Rabbah 10:7:1
p2262
sg140
(lp2263
sg142
g93
sg143
Nsg144
(lp2264
I10
aI7
aI1
asg146
Nsg147
g2262
sg148
(lp2265
sg150
g60
sg151
Nsg152
Nsg153
Nsbag3
(g4
g5
NtRp2266
(dp2267
g8
g10
sg131
Nsg132
(dp2268
sg134
Nsg26
g28
sg135
(lp2269
I10
aI8
aI1
asg137
Nsg138
VKohelet Rabbah 10:8:1
p2270
sg140
(lp2271
sg142
g93
sg143
Nsg144
(lp2272
I10
aI8
aI1
asg146
Nsg147
g2270
sg148
(lp2273
sg150
g60
sg151
Nsg152
Nsg153
Nsbag3
(g4
g5
NtRp2274
(dp2275
g8
g10
sg131
Nsg132
(dp2276
sg134
Nsg26
g28
sg135
(lp2277
I10
aI9
aI1
asg137
Nsg138
VKohelet Rabbah 10:9:1
p2278
sg140
(lp2279
sg142
g93
sg143
Nsg144
(lp2280
I10
aI9
aI1
asg146
Nsg147
g2278
sg148
(lp2281
sg150
g60
sg151
Nsg152
Nsg153
Nsbag3
(g4
g5
NtRp2282
(dp2283
g8
g10
sg131
Nsg132
(dp2284
sg134
Nsg26
g28
sg135
(lp2285
I10
aI10
aI1
asg137
Nsg138
VKohelet Rabbah 10:10:1
p2286
sg140
(lp2287
sg142
g93
sg143
Nsg144
(lp2288
I10
aI10
aI1
asg146
Nsg147
g2286
sg148
(lp2289
sg150
g60
sg151
Nsg152
Nsg153
Nsbag3
(g4
g5
NtRp2290
(dp2291
g8
g10
sg131
Nsg132
(dp2292
sg134
Nsg26
g28
sg135
(lp2293
I10
aI11
aI1
asg137
Nsg138
VKohelet Rabbah 10:11:1
p2294
sg140
(lp2295
sg142
g93
sg143
Nsg144
(lp2296
I10
aI11
aI1
asg146
Nsg147
g2294
sg148
(lp2297
sg150
g60
sg151
Nsg152
Nsg153
Nsbag3
(g4
g5
NtRp2298
(dp2299
g8
g10
sg131
Nsg132
(dp2300
sg134
Nsg26
g28
sg135
(lp2301
I10
aI12
aI1
asg137
Nsg138
VKohelet Rabbah 10:12:1
p2302
sg140
(lp2303
sg142
g93
sg143
Nsg144
(lp2304
I10
aI12
aI1
asg146
Nsg147
g2302
sg148
(lp2305
sg150
g60
sg151
Nsg152
Nsg153
Nsbag3
(g4
g5
NtRp2306
(dp2307
g8
g10
sg131
Nsg132
(dp2308
sg134
Nsg26
g28
sg135
(lp2309
I10
aI13
aI1
asg137
Nsg138
VKohelet Rabbah 10:13:1
p2310
sg140
(lp2311
sg142
g93
sg143
Nsg144
(lp2312
I10
aI13
aI1
asg146
Nsg147
g2310
sg148
(lp2313
sg150
g60
sg151
Nsg152
Nsg153
Nsbag3
(g4
g5
NtRp2314
(dp2315
g8
g10
sg131
Nsg132
(dp2316
sg134
Nsg26
g28
sg135
(lp2317
I10
aI14
aI1
asg137
Nsg138
VKohelet Rabbah 10:14:1
p2318
sg140
(lp2319
sg142
g93
sg143
Nsg144
(lp2320
I10
aI14
aI1
asg146
Nsg147
g2318
sg148
(lp2321
sg150
g60
sg151
Nsg152
Nsg153
Nsbag3
(g4
g5
NtRp2322
(dp2323
g8
g10
sg131
Nsg132
(dp2324
sg134
Nsg26
g28
sg135
(lp2325
I10
aI15
aI1
asg137
Nsg138
VKohelet Rabbah 10:15:1
p2326
sg140
(lp2327
sg142
g93
sg143
Nsg144
(lp2328
I10
aI15
aI1
asg146
Nsg147
g2326
sg148
(lp2329
sg150
g60
sg151
Nsg152
Nsg153
Nsbag3
(g4
g5
NtRp2330
(dp2331
g8
g10
sg131
Nsg132
(dp2332
sg134
Nsg26
g28
sg135
(lp2333
I10
aI16
aI1
asg137
Nsg138
VKohelet Rabbah 10:16:1
p2334
sg140
(lp2335
sg142
g93
sg143
Nsg144
(lp2336
I10
aI16
aI1
asg146
Nsg147
g2334
sg148
(lp2337
sg150
g60
sg151
Nsg152
Nsg153
Nsbag3
(g4
g5
NtRp2338
(dp2339
g8
g10
sg131
Nsg132
(dp2340
sg134
Nsg26
g28
sg135
(lp2341
I10
aI18
aI1
asg137
Nsg138
VKohelet Rabbah 10:18:1
p2342
sg140
(lp2343
sg142
g93
sg143
Nsg144
(lp2344
I10
aI18
aI1
asg146
Nsg147
g2342
sg148
(lp2345
sg150
g60
sg151
Nsg152
Nsg153
Nsbag3
(g4
g5
NtRp2346
(dp2347
g8
g10
sg131
Nsg132
(dp2348
sg134
Nsg26
g28
sg135
(lp2349
I10
aI19
aI1
asg137
Nsg138
VKohelet Rabbah 10:19:1
p2350
sg140
(lp2351
sg142
g93
sg143
Nsg144
(lp2352
I10
aI19
aI1
asg146
Nsg147
g2350
sg148
(lp2353
sg150
g60
sg151
Nsg152
Nsg153
Nsbag3
(g4
g5
NtRp2354
(dp2355
g8
g10
sg131
Nsg132
(dp2356
sg134
Nsg26
g28
sg135
(lp2357
I10
aI20
aI1
asg137
Nsg138
VKohelet Rabbah 10:20:1
p2358
sg140
(lp2359
sg142
g93
sg143
Nsg144
(lp2360
I10
aI20
aI1
asg146
Nsg147
g2358
sg148
(lp2361
sg150
g60
sg151
Nsg152
Nsg153
Nsbag3
(g4
g5
NtRp2362
(dp2363
g8
g10
sg131
Nsg132
(dp2364
sg134
Nsg26
g28
sg135
(lp2365
I11
aI1
aI1
asg137
Nsg138
VKohelet Rabbah 11:1:1
p2366
sg140
(lp2367
sg142
g93
sg143
Nsg144
(lp2368
I11
aI1
aI1
asg146
Nsg147
g2366
sg148
(lp2369
sg150
g60
sg151
Nsg152
Nsg153
Nsbag3
(g4
g5
NtRp2370
(dp2371
g8
g10
sg131
Nsg132
(dp2372
sg134
Nsg26
g28
sg135
(lp2373
I11
aI2
aI1
asg137
Nsg138
VKohelet Rabbah 11:2:1
p2374
sg140
(lp2375
sg142
g93
sg143
Nsg144
(lp2376
I11
aI2
aI1
asg146
Nsg147
g2374
sg148
(lp2377
sg150
g60
sg151
Nsg152
Nsg153
Nsbag3
(g4
g5
NtRp2378
(dp2379
g8
g10
sg131
Nsg132
(dp2380
sg134
Nsg26
g28
sg135
(lp2381
I11
aI3
aI1
asg137
Nsg138
VKohelet Rabbah 11:3:1
p2382
sg140
(lp2383
sg142
g93
sg143
Nsg144
(lp2384
I11
aI3
aI1
asg146
Nsg147
g2382
sg148
(lp2385
sg150
g60
sg151
Nsg152
Nsg153
Nsbag3
(g4
g5
NtRp2386
(dp2387
g8
g10
sg131
Nsg132
(dp2388
sg134
Nsg26
g28
sg135
(lp2389
I11
aI4
aI1
asg137
Nsg138
VKohelet Rabbah 11:4:1
p2390
sg140
(lp2391
sg142
g93
sg143
Nsg144
(lp2392
I11
aI4
aI1
asg146
Nsg147
g2390
sg148
(lp2393
sg150
g60
sg151
Nsg152
Nsg153
Nsbag3
(g4
g5
NtRp2394
(dp2395
g8
g10
sg131
Nsg132
(dp2396
sg134
Nsg26
g28
sg135
(lp2397
I11
aI5
aI1
asg137
Nsg138
VKohelet Rabbah 11:5:1
p2398
sg140
(lp2399
sg142
g93
sg143
Nsg144
(lp2400
I11
aI5
aI1
asg146
Nsg147
g2398
sg148
(lp2401
sg150
g60
sg151
Nsg152
Nsg153
Nsbag3
(g4
g5
NtRp2402
(dp2403
g8
g10
sg131
Nsg132
(dp2404
sg134
Nsg26
g28
sg135
(lp2405
I11
aI6
aI1
asg137
Nsg138
VKohelet Rabbah 11:6:1
p2406
sg140
(lp2407
sg142
g93
sg143
Nsg144
(lp2408
I11
aI6
aI1
asg146
Nsg147
g2406
sg148
(lp2409
sg150
g60
sg151
Nsg152
Nsg153
Nsbag3
(g4
g5
NtRp2410
(dp2411
g8
g10
sg131
Nsg132
(dp2412
sg134
Nsg26
g28
sg135
(lp2413
I11
aI7
aI1
asg137
Nsg138
VKohelet Rabbah 11:7:1
p2414
sg140
(lp2415
sg142
g93
sg143
Nsg144
(lp2416
I11
aI7
aI1
asg146
Nsg147
g2414
sg148
(lp2417
sg150
g60
sg151
Nsg152
Nsg153
Nsbag3
(g4
g5
NtRp2418
(dp2419
g8
g10
sg131
Nsg132
(dp2420
sg134
Nsg26
g28
sg135
(lp2421
I11
aI8
aI1
asg137
Nsg138
VKohelet Rabbah 11:8:1
p2422
sg140
(lp2423
sg142
g93
sg143
Nsg144
(lp2424
I11
aI8
aI1
asg146
Nsg147
g2422
sg148
(lp2425
sg150
g60
sg151
Nsg152
Nsg153
Nsbag3
(g4
g5
NtRp2426
(dp2427
g8
g10
sg131
Nsg132
(dp2428
sg134
Nsg26
g28
sg135
(lp2429
I11
aI9
aI1
asg137
Nsg138
VKohelet Rabbah 11:9:1
p2430
sg140
(lp2431
sg142
g93
sg143
Nsg144
(lp2432
I11
aI9
aI1
asg146
Nsg147
g2430
sg148
(lp2433
sg150
g60
sg151
Nsg152
Nsg153
Nsbag3
(g4
g5
NtRp2434
(dp2435
g8
g10
sg131
Nsg132
(dp2436
sg134
Nsg26
g28
sg135
(lp2437
I12
aI1
aI1
asg137
Nsg138
VKohelet Rabbah 12:1:1
p2438
sg140
(lp2439
sg142
g93
sg143
Nsg144
(lp2440
I12
aI1
aI1
asg146
Nsg147
g2438
sg148
(lp2441
sg150
g60
sg151
Nsg152
Nsg153
Nsbag3
(g4
g5
NtRp2442
(dp2443
g8
g10
sg131
Nsg132
(dp2444
sg134
Nsg26
g28
sg135
(lp2445
I12
aI2
aI1
asg137
Nsg138
VKohelet Rabbah 12:2:1
p2446
sg140
(lp2447
sg142
g93
sg143
Nsg144
(lp2448
I12
aI2
aI1
asg146
Nsg147
g2446
sg148
(lp2449
sg150
g60
sg151
Nsg152
Nsg153
Nsbag3
(g4
g5
NtRp2450
(dp2451
g8
g10
sg131
Nsg132
(dp2452
sg134
Nsg26
g28
sg135
(lp2453
I12
aI3
aI1
asg137
Nsg138
VKohelet Rabbah 12:3:1
p2454
sg140
(lp2455
sg142
g93
sg143
Nsg144
(lp2456
I12
aI3
aI1
asg146
Nsg147
g2454
sg148
(lp2457
sg150
g60
sg151
Nsg152
Nsg153
Nsbag3
(g4
g5
NtRp2458
(dp2459
g8
g10
sg131
Nsg132
(dp2460
sg134
Nsg26
g28
sg135
(lp2461
I12
aI4
aI1
asg137
Nsg138
VKohelet Rabbah 12:4:1
p2462
sg140
(lp2463
sg142
g93
sg143
Nsg144
(lp2464
I12
aI4
aI1
asg146
Nsg147
g2462
sg148
(lp2465
sg150
g60
sg151
Nsg152
Nsg153
Nsbag3
(g4
g5
NtRp2466
(dp2467
g8
g10
sg131
Nsg132
(dp2468
sg134
Nsg26
g28
sg135
(lp2469
I12
aI5
aI1
asg137
Nsg138
VKohelet Rabbah 12:5:1
p2470
sg140
(lp2471
sg142
g93
sg143
Nsg144
(lp2472
I12
aI5
aI1
asg146
Nsg147
g2470
sg148
(lp2473
sg150
g60
sg151
Nsg152
Nsg153
Nsbag3
(g4
g5
NtRp2474
(dp2475
g8
g10
sg131
Nsg132
(dp2476
sg134
Nsg26
g28
sg135
(lp2477
I12
aI6
aI1
asg137
Nsg138
VKohelet Rabbah 12:6:1
p2478
sg140
(lp2479
sg142
g93
sg143
Nsg144
(lp2480
I12
aI6
aI1
asg146
Nsg147
g2478
sg148
(lp2481
sg150
g60
sg151
Nsg152
Nsg153
Nsbag3
(g4
g5
NtRp2482
(dp2483
g8
g10
sg131
Nsg132
(dp2484
sg134
Nsg26
g28
sg135
(lp2485
I12
aI7
aI1
asg137
Nsg138
VKohelet Rabbah 12:7:1
p2486
sg140
(lp2487
sg142
g93
sg143
Nsg144
(lp2488
I12
aI7
aI1
asg146
Nsg147
g2486
sg148
(lp2489
sg150
g60
sg151
Nsg152
Nsg153
Nsbag3
(g4
g5
NtRp2490
(dp2491
g8
g10
sg131
Nsg132
(dp2492
sg134
Nsg26
g28
sg135
(lp2493
I12
aI8
aI1
asg137
Nsg138
VKohelet Rabbah 12:8:1
p2494
sg140
(lp2495
sg142
g93
sg143
Nsg144
(lp2496
I12
aI8
aI1
asg146
Nsg147
g2494
sg148
(lp2497
sg150
g60
sg151
Nsg152
Nsg153
Nsbag3
(g4
g5
NtRp2498
(dp2499
g8
g10
sg131
Nsg132
(dp2500
sg134
Nsg26
g28
sg135
(lp2501
I12
aI9
aI1
asg137
Nsg138
VKohelet Rabbah 12:9:1
p2502
sg140
(lp2503
sg142
g93
sg143
Nsg144
(lp2504
I12
aI9
aI1
asg146
Nsg147
g2502
sg148
(lp2505
sg150
g60
sg151
Nsg152
Nsg153
Nsbag3
(g4
g5
NtRp2506
(dp2507
g8
g10
sg131
Nsg132
(dp2508
sg134
Nsg26
g28
sg135
(lp2509
I12
aI10
aI1
asg137
Nsg138
VKohelet Rabbah 12:10:1
p2510
sg140
(lp2511
sg142
g93
sg143
Nsg144
(lp2512
I12
aI10
aI1
asg146
Nsg147
g2510
sg148
(lp2513
sg150
g60
sg151
Nsg152
Nsg153
Nsbag3
(g4
g5
NtRp2514
(dp2515
g8
g10
sg131
Nsg132
(dp2516
sg134
Nsg26
g28
sg135
(lp2517
I12
aI11
aI1
asg137
Nsg138
VKohelet Rabbah 12:11:1
p2518
sg140
(lp2519
sg142
g93
sg143
Nsg144
(lp2520
I12
aI11
aI1
asg146
Nsg147
g2518
sg148
(lp2521
sg150
g60
sg151
Nsg152
Nsg153
Nsbag3
(g4
g5
NtRp2522
(dp2523
g8
g10
sg131
Nsg132
(dp2524
sg134
Nsg26
g28
sg135
(lp2525
I12
aI12
aI1
asg137
Nsg138
VKohelet Rabbah 12:12:1
p2526
sg140
(lp2527
sg142
g93
sg143
Nsg144
(lp2528
I12
aI12
aI1
asg146
Nsg147
g2526
sg148
(lp2529
sg150
g60
sg151
Nsg152
Nsg153
Nsbag3
(g4
g5
NtRp2530
(dp2531
g8
g10
sg131
Nsg132
(dp2532
sg134
Nsg26
g28
sg135
(lp2533
I12
aI13
aI1
asg137
Nsg138
VKohelet Rabbah 12:13:1
p2534
sg140
(lp2535
sg142
g93
sg143
Nsg144
(lp2536
I12
aI13
aI1
asg146
Nsg147
g2534
sg148
(lp2537
sg150
g60
sg151
Nsg152
Nsg153
Nsbag3
(g4
g5
NtRp2538
(dp2539
g8
g10
sg131
Nsg132
(dp2540
sg134
Nsg26
g28
sg135
(lp2541
I12
aI14
aI1
asg137
Nsg138
VKohelet Rabbah 12:14:1
p2542
sg140
(lp2543
sg142
g93
sg143
Nsg144
(lp2544
I12
aI14
aI1
asg146
Nsg147
g2542
sg148
(lp2545
sg150
g60
sg151
Nsg152
Nsg153
NsbaI55275
t.