((lp1
I0
aI434
aI462
aI1195
aI1676
aI2131
aI2330
aI2484
aI2885
aI3031
aI3274
aI3492
aI3749
aI3990
aI4077
aI4146
aI4540
aI4682
aI4872
aI5246
aI5959
aI6131
aI6304
aI6594
aI6821
aI6991
aI7144
aI7225
aI7251
aI7305
aI7345
aI7526
aI7626
aI8010
aI8241
aI8315
aI8446
aI8534
aI8599
aI8636
aI9037
aI9271
aI9394
aI9453
aI9607
aI9698
aI9821
aI9955
aI10196
aI10334
aI10508
aI10565
aI10803
aI10860
aI10884
aI10911
aI11051
aI11209
aI11270
aI11631
aI11659
aI11762
aI11823
aI12156
aI12500
aI12566
aI12714
aI12966
aI12990
aI13076
aI13147
aI13559
aI13762
aI14371
aI14410
aI14648
aI14751
aI14796
aI14984
aI15127
aI15530
aI16143
aI16317
aI16562
aI16664
aI16755
aI17179
aI17264
aI17638
aI17785
aI18314
aI18426
aI18436
aI18587
aI18722
aI19194
aI19721
aI19875
aI20083
aI20446
aI20639
aI20843
aI20893
aI21149
aI21458
aI21887
aI23666
aI24537
aI24958
aI25064
aI25305
aI25548
aI26006
aI26228
aI26600
aI26817
aI27891
aI28098
aI28197
aI28324
aI28485
aI28672
aI29182
aI29209
aI29604
aI29737
aI29757
aI30229
aI30268
aI30322
aI30797
aI31006
aI31099
aI31194
aI31246
aI31377
aI31739
aI31831
aI31871
aI31915
aI31960
aI32002
aI32067
aI32072
aI32157
aI32236
aI32584
aI32691
aI32754
aI32769
aI32787
aI32867
aI32952
aI32996
aI33063
aI33070
aI33199
aI33239
aI33250
aI33419
aI33460
aI33645
aI33689
aI33819
aI33926
aI33948
aI33966
aI34010
aI34098
aI34164
aI34328
aI34376
aI34441
aI34790
aI34965
aI35000
aI35133
aI35375
aI35545
aI35867
aI35919
aI36064
aI36655
aI36791
aI36840
aI36930
aI37003
aI37112
aI37250
aI37291
aI37409
aI37476
aI37594
aI37784
aI37846
aI37873
aI37916
aI37972
aI38048
aI38153
aI38202
aI38298
aI38423
aI38838
aI38868
aI38912
aI38956
aI39772
aI40089
aI40286
aI40532
aI40792
aI41009
aI41276
aI41332
aI41388
aI41634
aI41845
aI41919
aI41984
aI42148
aI42633
aI42723
aI43015
aI43358
aI43758
aI43863
aI44248
aI44300
aI44349
aI44393
aI44440
aI44626
aI44847
aI45077
aI45213
aI45320
aI45917
aI46101
aI46244
aI46501
aI46724
aI47132
aI47516
aI47680
aI48556
aI49219
aI49406
aI49482
aI49591
aI49675
aI49809
aI49941
aI50336
aI50609
aI50837
aI51157
aI52024
aI52316
aI52595
aI52737
aI53111
aI53394
aI53706
aI53816
aI53972
aI54070
aI54196
aI54452
aI54678
aI54967
aI55186
aI55405
aI55595
aI55845
aI56082
aI56136
aI56432
aI56510
aI56611
aI56748
aI56842
aI57035
aI57279
aI57617
aI57737
aI57984
aI58196
aI58664
aI58738
aI59218
aI59368
aI59761
aI59856
aI60064
aI60665
aI61218
aI61717
aI62421
aI62511
aI63171
aI63546
aI63732
aI63871
aI64102
aI64448
aI64628
aI64795
aI64899
aI65029
aI65077
aI65195
aI65252
aI65351
aI65410
aI65609
aI65923
aI66034
aI66163
aI66291
aI66416
aI66685
aI66854
aI66977
aI67201
aI67242
aI67407
aI67600
aI67692
aI67914
aI67953
aI67985
aI68060
aI68290
aI68407
aI68524
aI68614
aI68714
aI68960
aI69360
aI69377
aI69679
aI69937
aI70108
aI70318
aI70797
aI70811
aI70825
aI70838
aI70864
aI70886
aI70926
aI70999
aI71072
aI71286
aI71406
aI71448
aI71514
aI71592
aI71634
aI71809
aI71949
aI72237
aI72675
aI72851
aI72911
aI72977
aI73044
aI73427
aI73467
aI73608
aI73723
aI73894
aI74069
aI74132
aI74520
aI74651
aI74757
aI74776
aI75081
aI75251
aI75460
a(lp2
ccopy_reg
_reconstructor
p3
(csefaria.model.text
Ref
p4
c__builtin__
object
p5
NtRp6
(dp7
S'index_node'
p8
g3
(csefaria.model.schema
JaggedArrayNode
p9
g5
NtRp10
(dp11
S'_address'
p12
(lp13
VMekhilta DeRabbi Shimon Bar Yochai
p14
aVdefault
p15
asS'_full_titles'
p16
(dp17
sVnodeType
p18
VJaggedArrayNode
p19
sS'parent'
p20
g3
(csefaria.model.schema
SchemaNode
p21
g5
NtRp22
(dp23
g12
(lp24
g14
asg16
(dp25
sg20
NsS'index'
p26
g3
(csefaria.model.text
Index
p27
g5
NtRp28
(dp29
S'pkeys_orig_values'
p30
(dp31
S'title'
p32
VMekhilta DeRabbi Shimon Bar Yochai
p33
ssS'pubDate'
p34
V1870
p35
sS'compDate'
p36
V1000
p37
sS'pubPlace'
p38
VVienna
p39
sS'compPlace'
p40
VTalmudic Israel/Babylon
p41
sS'enDesc'
p42
VThe Mekhilta de-Rabbi Shimon (Measures, Rules of R. Simon) is a halakhic midrash on Exodus from the school of R. Akiba. Rabbi Shimon is identified with R. Shimon bar Yohai. He is probably the author. However, the frequent citation of his son Elazar makes it plausible that he edited his father's midrash. Though no midrash of this name is mentioned in the Talmud, it was known by other names including Mekhilta Ahirta de R. Shimon or Mekhilta Aheret. Today it has disappeared, but some extracts from it have been preserved and collected together as Midrash ha-Gadol
p43
sS'era'
p44
VRI
p45
sS'struct_objs'
p46
(dp47
sS'nodes'
p48
g22
sS'_id'
p49
g3
(cbson.objectid
ObjectId
p50
g5
NtRp51
S'U\x9a\xf3\x7f\xfb\xfb\xa2-\x088\xc3\xa1'
p52
bsS'_title'
p53
g33
sS'categories'
p54
(lp55
VMidrash
p56
aVHalachic Midrash
p57
asS'schema'
p58
(dp59
Vnodes
p60
(lp61
(dp62
g18
g19
sVaddressTypes
p63
(lp64
VInteger
p65
aVInteger
p66
asVdefault
p67
I01
sVdepth
p68
I2
sVkey
p69
g15
sVsectionNames
p70
(lp71
VChapter
p72
aVVerse
p73
asa(dp74
VnodeType
p75
VJaggedArrayNode
p76
sVaddressTypes
p77
(lp78
VInteger
p79
aVInteger
p80
asVdepth
p81
I2
sVtitles
p82
(lp83
(dp84
Vlang
p85
Vhe
p86
sVtext
p87
V\u05d4\u05d5\u05e1\u05e4\u05d4
p88
sVprimary
p89
I01
sa(dp90
Vlang
p91
Ven
p92
sVtext
p93
VAdditions
p94
sVprimary
p95
I01
sasVkey
p96
VAdditions
p97
sVsectionNames
p98
(lp99
VChapter
p100
aVVerse
p101
asasVtitles
p102
(lp103
(dp104
Vlang
p105
Ven
p106
sVtext
p107
VMekhilta DeRabbi Shimon
p108
sa(dp109
Vlang
p110
Ven
p111
sVtext
p112
VMekhilta DeRashbi
p113
sa(dp114
Vlang
p115
Vhe
p116
sVtext
p117
V\u05de\u05db\u05d9\u05dc\u05ea\u05d0 \u05d3\u05e8\u05d1\u05d9 \u05e9\u05de\u05e2\u05d5\u05df \u05d1\u05e8 \u05d9\u05d5\u05d7\u05d0\u05d9
p118
sVprimary
p119
I01
sa(dp120
Vlang
p121
Vhe
p122
sVtext
p123
V\u05de\u05db\u05d9\u05dc\u05ea\u05d0 \u05d3\u05e8\u05d1\u05d9 \u05e9\u05de\u05e2\u05d5\u05df 
p124
sa(dp125
Vlang
p126
Vhe
p127
sVtext
p128
V\u05de\u05db\u05d9\u05dc\u05ea\u05d0 \u05d3\u05e8\u05e9\u05d1"\u05d9
p129
sa(dp130
Vlang
p131
Ven
p132
sVtext
p133
VMechilta DeRabbi Shimon Bar Yochai
p134
sa(dp135
Vlang
p136
Ven
p137
sVtext
p138
VMechilta DeRashbi
p139
sa(dp140
Vlang
p141
Ven
p142
sVtext
p143
VMekhilta of Rabbi Shimon Bar Yochai
p144
sa(dp145
Vlang
p146
Ven
p147
sVtext
p148
VMechilta of Rabbi Shimon Bar Yochai
p149
sa(dp150
Vlang
p151
Ven
p152
sVtext
p153
VMekhilta DeRabbi Shimon Bar Yochai
p154
sVprimary
p155
I01
sasVkey
p156
g14
ssbsS'default'
p157
I00
sS'_primary_title'
p158
(dp159
sS'title_group'
p160
g3
(csefaria.model.schema
TitleGroup
p161
g5
NtRp162
(dp163
g158
(dp164
S'en'
p165
g154
ssS'titles'
p166
g103
sbsS'sharedTitle'
p167
NsS'_full_title'
p168
(dp169
g165
g154
ssS'key'
p170
g14
sS'checkFirst'
p171
NsS'_leaf_nodes'
p172
(lp173
sS'children'
p174
(lp175
g10
ag3
(g9
g5
NtRp176
(dp177
g12
(lp178
g14
ag97
asg16
(dp179
sg75
g76
sg20
g22
sg77
g78
sg157
I00
sg26
g28
sg158
(dp180
sg160
g3
(g161
g5
NtRp181
(dp182
g158
(dp183
g165
g94
ssg166
g83
sbsS'_addressTypes'
p184
(lp185
g3
(csefaria.model.schema
AddressInteger
p186
g5
NtRp187
(dp188
S'length'
p189
NsS'order'
p190
I0
sbag3
(g186
g5
NtRp191
(dp192
g189
Nsg190
I1
sbasg167
Nsg81
I2
sg168
(dp193
g165
VMekhilta DeRabbi Shimon Bar Yochai, Additions
p194
ssg170
g97
sg171
NsS'_regexes'
p195
(dp196
sg172
(lp197
sg98
g99
sg174
(lp198
sbasbsg63
g64
sg157
I01
sg26
g28
sg158
(dp199
sg160
g3
(g161
g5
NtRp200
(dp201
g158
(dp202
g165
S''
ssg166
(lp203
sbsg184
(lp204
g3
(g186
g5
NtRp205
(dp206
g189
Nsg190
I0
sbag3
(g186
g5
NtRp207
(dp208
g189
Nsg190
I1
sbasg167
Nsg68
I2
sg168
(dp209
g165
g154
ssg170
g15
sg171
Nsg195
(dp210
sg172
(lp211
sg70
g71
sg174
(lp212
sbsS'_range_index'
p213
NsS'_context'
p214
(dp215
sS'_padded'
p216
Nsg26
g28
sS'sections'
p217
(lp218
I3
aI1
asS'_first_spanned_ref'
p219
NsS'tref'
p220
VMekhilta DeRabbi Shimon Bar Yochai 3:1
p221
sS'_spanned_refs'
p222
(lp223
sS'book'
p224
g154
sS'_range_depth'
p225
NsS'toSections'
p226
(lp227
I3
aI1
asS'_url'
p228
NsS'_normal'
p229
g221
sS'_ranged_refs'
p230
(lp231
sS'type'
p232
g56
sS'_prev'
p233
NsS'_he_normal'
p234
NsS'_next'
p235
Nsbag3
(g4
g5
NtRp236
(dp237
g8
g10
sg213
Nsg214
(dp238
sg216
Nsg26
g28
sg217
(lp239
I4
aI1
asg219
Nsg220
VMekhilta DeRabbi Shimon Bar Yochai 4:1
p240
sg222
(lp241
sg224
g154
sg225
Nsg226
(lp242
I4
aI1
asg228
Nsg229
g240
sg230
(lp243
sg232
g56
sg233
Nsg234
Nsg235
Nsbag3
(g4
g5
NtRp244
(dp245
g8
g10
sg213
Nsg214
(dp246
sg216
Nsg26
g28
sg217
(lp247
I4
aI2
asg219
Nsg220
VMekhilta DeRabbi Shimon Bar Yochai 4:2
p248
sg222
(lp249
sg224
g154
sg225
Nsg226
(lp250
I4
aI2
asg228
Nsg229
g248
sg230
(lp251
sg232
g56
sg233
Nsg234
Nsg235
Nsbag3
(g4
g5
NtRp252
(dp253
g8
g10
sg213
Nsg214
(dp254
sg216
Nsg26
g28
sg217
(lp255
I6
aI1
asg219
Nsg220
VMekhilta DeRabbi Shimon Bar Yochai 6:1
p256
sg222
(lp257
sg224
g154
sg225
Nsg226
(lp258
I6
aI1
asg228
Nsg229
g256
sg230
(lp259
sg232
g56
sg233
Nsg234
Nsg235
Nsbag3
(g4
g5
NtRp260
(dp261
g8
g10
sg213
Nsg214
(dp262
sg216
Nsg26
g28
sg217
(lp263
I12
aI1
asg219
Nsg220
VMekhilta DeRabbi Shimon Bar Yochai 12:1
p264
sg222
(lp265
sg224
g154
sg225
Nsg226
(lp266
I12
aI1
asg228
Nsg229
g264
sg230
(lp267
sg232
g56
sg233
Nsg234
Nsg235
Nsbag3
(g4
g5
NtRp268
(dp269
g8
g10
sg213
Nsg214
(dp270
sg216
Nsg26
g28
sg217
(lp271
I12
aI2
asg219
Nsg220
VMekhilta DeRabbi Shimon Bar Yochai 12:2
p272
sg222
(lp273
sg224
g154
sg225
Nsg226
(lp274
I12
aI2
asg228
Nsg229
g272
sg230
(lp275
sg232
g56
sg233
Nsg234
Nsg235
Nsbag3
(g4
g5
NtRp276
(dp277
g8
g10
sg213
Nsg214
(dp278
sg216
Nsg26
g28
sg217
(lp279
I12
aI3
asg219
Nsg220
VMekhilta DeRabbi Shimon Bar Yochai 12:3
p280
sg222
(lp281
sg224
g154
sg225
Nsg226
(lp282
I12
aI3
asg228
Nsg229
g280
sg230
(lp283
sg232
g56
sg233
Nsg234
Nsg235
Nsbag3
(g4
g5
NtRp284
(dp285
g8
g10
sg213
Nsg214
(dp286
sg216
Nsg26
g28
sg217
(lp287
I12
aI4
asg219
Nsg220
VMekhilta DeRabbi Shimon Bar Yochai 12:4
p288
sg222
(lp289
sg224
g154
sg225
Nsg226
(lp290
I12
aI4
asg228
Nsg229
g288
sg230
(lp291
sg232
g56
sg233
Nsg234
Nsg235
Nsbag3
(g4
g5
NtRp292
(dp293
g8
g10
sg213
Nsg214
(dp294
sg216
Nsg26
g28
sg217
(lp295
I12
aI5
asg219
Nsg220
VMekhilta DeRabbi Shimon Bar Yochai 12:5
p296
sg222
(lp297
sg224
g154
sg225
Nsg226
(lp298
I12
aI5
asg228
Nsg229
g296
sg230
(lp299
sg232
g56
sg233
Nsg234
Nsg235
Nsbag3
(g4
g5
NtRp300
(dp301
g8
g10
sg213
Nsg214
(dp302
sg216
Nsg26
g28
sg217
(lp303
I12
aI6
asg219
Nsg220
VMekhilta DeRabbi Shimon Bar Yochai 12:6
p304
sg222
(lp305
sg224
g154
sg225
Nsg226
(lp306
I12
aI6
asg228
Nsg229
g304
sg230
(lp307
sg232
g56
sg233
Nsg234
Nsg235
Nsbag3
(g4
g5
NtRp308
(dp309
g8
g10
sg213
Nsg214
(dp310
sg216
Nsg26
g28
sg217
(lp311
I12
aI7
asg219
Nsg220
VMekhilta DeRabbi Shimon Bar Yochai 12:7
p312
sg222
(lp313
sg224
g154
sg225
Nsg226
(lp314
I12
aI7
asg228
Nsg229
g312
sg230
(lp315
sg232
g56
sg233
Nsg234
Nsg235
Nsbag3
(g4
g5
NtRp316
(dp317
g8
g10
sg213
Nsg214
(dp318
sg216
Nsg26
g28
sg217
(lp319
I12
aI8
asg219
Nsg220
VMekhilta DeRabbi Shimon Bar Yochai 12:8
p320
sg222
(lp321
sg224
g154
sg225
Nsg226
(lp322
I12
aI8
asg228
Nsg229
g320
sg230
(lp323
sg232
g56
sg233
Nsg234
Nsg235
Nsbag3
(g4
g5
NtRp324
(dp325
g8
g10
sg213
Nsg214
(dp326
sg216
Nsg26
g28
sg217
(lp327
I12
aI9
asg219
Nsg220
VMekhilta DeRabbi Shimon Bar Yochai 12:9
p328
sg222
(lp329
sg224
g154
sg225
Nsg226
(lp330
I12
aI9
asg228
Nsg229
g328
sg230
(lp331
sg232
g56
sg233
Nsg234
Nsg235
Nsbag3
(g4
g5
NtRp332
(dp333
g8
g10
sg213
Nsg214
(dp334
sg216
Nsg26
g28
sg217
(lp335
I12
aI10
asg219
Nsg220
VMekhilta DeRabbi Shimon Bar Yochai 12:10
p336
sg222
(lp337
sg224
g154
sg225
Nsg226
(lp338
I12
aI10
asg228
Nsg229
g336
sg230
(lp339
sg232
g56
sg233
Nsg234
Nsg235
Nsbag3
(g4
g5
NtRp340
(dp341
g8
g10
sg213
Nsg214
(dp342
sg216
Nsg26
g28
sg217
(lp343
I12
aI11
asg219
Nsg220
VMekhilta DeRabbi Shimon Bar Yochai 12:11
p344
sg222
(lp345
sg224
g154
sg225
Nsg226
(lp346
I12
aI11
asg228
Nsg229
g344
sg230
(lp347
sg232
g56
sg233
Nsg234
Nsg235
Nsbag3
(g4
g5
NtRp348
(dp349
g8
g10
sg213
Nsg214
(dp350
sg216
Nsg26
g28
sg217
(lp351
I12
aI12
asg219
Nsg220
VMekhilta DeRabbi Shimon Bar Yochai 12:12
p352
sg222
(lp353
sg224
g154
sg225
Nsg226
(lp354
I12
aI12
asg228
Nsg229
g352
sg230
(lp355
sg232
g56
sg233
Nsg234
Nsg235
Nsbag3
(g4
g5
NtRp356
(dp357
g8
g10
sg213
Nsg214
(dp358
sg216
Nsg26
g28
sg217
(lp359
I12
aI13
asg219
Nsg220
VMekhilta DeRabbi Shimon Bar Yochai 12:13
p360
sg222
(lp361
sg224
g154
sg225
Nsg226
(lp362
I12
aI13
asg228
Nsg229
g360
sg230
(lp363
sg232
g56
sg233
Nsg234
Nsg235
Nsbag3
(g4
g5
NtRp364
(dp365
g8
g10
sg213
Nsg214
(dp366
sg216
Nsg26
g28
sg217
(lp367
I12
aI14
asg219
Nsg220
VMekhilta DeRabbi Shimon Bar Yochai 12:14
p368
sg222
(lp369
sg224
g154
sg225
Nsg226
(lp370
I12
aI14
asg228
Nsg229
g368
sg230
(lp371
sg232
g56
sg233
Nsg234
Nsg235
Nsbag3
(g4
g5
NtRp372
(dp373
g8
g10
sg213
Nsg214
(dp374
sg216
Nsg26
g28
sg217
(lp375
I12
aI15
asg219
Nsg220
VMekhilta DeRabbi Shimon Bar Yochai 12:15
p376
sg222
(lp377
sg224
g154
sg225
Nsg226
(lp378
I12
aI15
asg228
Nsg229
g376
sg230
(lp379
sg232
g56
sg233
Nsg234
Nsg235
Nsbag3
(g4
g5
NtRp380
(dp381
g8
g10
sg213
Nsg214
(dp382
sg216
Nsg26
g28
sg217
(lp383
I12
aI16
asg219
Nsg220
VMekhilta DeRabbi Shimon Bar Yochai 12:16
p384
sg222
(lp385
sg224
g154
sg225
Nsg226
(lp386
I12
aI16
asg228
Nsg229
g384
sg230
(lp387
sg232
g56
sg233
Nsg234
Nsg235
Nsbag3
(g4
g5
NtRp388
(dp389
g8
g10
sg213
Nsg214
(dp390
sg216
Nsg26
g28
sg217
(lp391
I12
aI17
asg219
Nsg220
VMekhilta DeRabbi Shimon Bar Yochai 12:17
p392
sg222
(lp393
sg224
g154
sg225
Nsg226
(lp394
I12
aI17
asg228
Nsg229
g392
sg230
(lp395
sg232
g56
sg233
Nsg234
Nsg235
Nsbag3
(g4
g5
NtRp396
(dp397
g8
g10
sg213
Nsg214
(dp398
sg216
Nsg26
g28
sg217
(lp399
I12
aI18
asg219
Nsg220
VMekhilta DeRabbi Shimon Bar Yochai 12:18
p400
sg222
(lp401
sg224
g154
sg225
Nsg226
(lp402
I12
aI18
asg228
Nsg229
g400
sg230
(lp403
sg232
g56
sg233
Nsg234
Nsg235
Nsbag3
(g4
g5
NtRp404
(dp405
g8
g10
sg213
Nsg214
(dp406
sg216
Nsg26
g28
sg217
(lp407
I12
aI19
asg219
Nsg220
VMekhilta DeRabbi Shimon Bar Yochai 12:19
p408
sg222
(lp409
sg224
g154
sg225
Nsg226
(lp410
I12
aI19
asg228
Nsg229
g408
sg230
(lp411
sg232
g56
sg233
Nsg234
Nsg235
Nsbag3
(g4
g5
NtRp412
(dp413
g8
g10
sg213
Nsg214
(dp414
sg216
Nsg26
g28
sg217
(lp415
I12
aI20
asg219
Nsg220
VMekhilta DeRabbi Shimon Bar Yochai 12:20
p416
sg222
(lp417
sg224
g154
sg225
Nsg226
(lp418
I12
aI20
asg228
Nsg229
g416
sg230
(lp419
sg232
g56
sg233
Nsg234
Nsg235
Nsbag3
(g4
g5
NtRp420
(dp421
g8
g10
sg213
Nsg214
(dp422
sg216
Nsg26
g28
sg217
(lp423
I12
aI21
asg219
Nsg220
VMekhilta DeRabbi Shimon Bar Yochai 12:21
p424
sg222
(lp425
sg224
g154
sg225
Nsg226
(lp426
I12
aI21
asg228
Nsg229
g424
sg230
(lp427
sg232
g56
sg233
Nsg234
Nsg235
Nsbag3
(g4
g5
NtRp428
(dp429
g8
g10
sg213
Nsg214
(dp430
sg216
Nsg26
g28
sg217
(lp431
I12
aI22
asg219
Nsg220
VMekhilta DeRabbi Shimon Bar Yochai 12:22
p432
sg222
(lp433
sg224
g154
sg225
Nsg226
(lp434
I12
aI22
asg228
Nsg229
g432
sg230
(lp435
sg232
g56
sg233
Nsg234
Nsg235
Nsbag3
(g4
g5
NtRp436
(dp437
g8
g10
sg213
Nsg214
(dp438
sg216
Nsg26
g28
sg217
(lp439
I12
aI23
asg219
Nsg220
VMekhilta DeRabbi Shimon Bar Yochai 12:23
p440
sg222
(lp441
sg224
g154
sg225
Nsg226
(lp442
I12
aI23
asg228
Nsg229
g440
sg230
(lp443
sg232
g56
sg233
Nsg234
Nsg235
Nsbag3
(g4
g5
NtRp444
(dp445
g8
g10
sg213
Nsg214
(dp446
sg216
Nsg26
g28
sg217
(lp447
I12
aI24
asg219
Nsg220
VMekhilta DeRabbi Shimon Bar Yochai 12:24
p448
sg222
(lp449
sg224
g154
sg225
Nsg226
(lp450
I12
aI24
asg228
Nsg229
g448
sg230
(lp451
sg232
g56
sg233
Nsg234
Nsg235
Nsbag3
(g4
g5
NtRp452
(dp453
g8
g10
sg213
Nsg214
(dp454
sg216
Nsg26
g28
sg217
(lp455
I12
aI25
asg219
Nsg220
VMekhilta DeRabbi Shimon Bar Yochai 12:25
p456
sg222
(lp457
sg224
g154
sg225
Nsg226
(lp458
I12
aI25
asg228
Nsg229
g456
sg230
(lp459
sg232
g56
sg233
Nsg234
Nsg235
Nsbag3
(g4
g5
NtRp460
(dp461
g8
g10
sg213
Nsg214
(dp462
sg216
Nsg26
g28
sg217
(lp463
I12
aI26
asg219
Nsg220
VMekhilta DeRabbi Shimon Bar Yochai 12:26
p464
sg222
(lp465
sg224
g154
sg225
Nsg226
(lp466
I12
aI26
asg228
Nsg229
g464
sg230
(lp467
sg232
g56
sg233
Nsg234
Nsg235
Nsbag3
(g4
g5
NtRp468
(dp469
g8
g10
sg213
Nsg214
(dp470
sg216
Nsg26
g28
sg217
(lp471
I12
aI27
asg219
Nsg220
VMekhilta DeRabbi Shimon Bar Yochai 12:27
p472
sg222
(lp473
sg224
g154
sg225
Nsg226
(lp474
I12
aI27
asg228
Nsg229
g472
sg230
(lp475
sg232
g56
sg233
Nsg234
Nsg235
Nsbag3
(g4
g5
NtRp476
(dp477
g8
g10
sg213
Nsg214
(dp478
sg216
Nsg26
g28
sg217
(lp479
I12
aI28
asg219
Nsg220
VMekhilta DeRabbi Shimon Bar Yochai 12:28
p480
sg222
(lp481
sg224
g154
sg225
Nsg226
(lp482
I12
aI28
asg228
Nsg229
g480
sg230
(lp483
sg232
g56
sg233
Nsg234
Nsg235
Nsbag3
(g4
g5
NtRp484
(dp485
g8
g10
sg213
Nsg214
(dp486
sg216
Nsg26
g28
sg217
(lp487
I12
aI29
asg219
Nsg220
VMekhilta DeRabbi Shimon Bar Yochai 12:29
p488
sg222
(lp489
sg224
g154
sg225
Nsg226
(lp490
I12
aI29
asg228
Nsg229
g488
sg230
(lp491
sg232
g56
sg233
Nsg234
Nsg235
Nsbag3
(g4
g5
NtRp492
(dp493
g8
g10
sg213
Nsg214
(dp494
sg216
Nsg26
g28
sg217
(lp495
I12
aI30
asg219
Nsg220
VMekhilta DeRabbi Shimon Bar Yochai 12:30
p496
sg222
(lp497
sg224
g154
sg225
Nsg226
(lp498
I12
aI30
asg228
Nsg229
g496
sg230
(lp499
sg232
g56
sg233
Nsg234
Nsg235
Nsbag3
(g4
g5
NtRp500
(dp501
g8
g10
sg213
Nsg214
(dp502
sg216
Nsg26
g28
sg217
(lp503
I12
aI31
asg219
Nsg220
VMekhilta DeRabbi Shimon Bar Yochai 12:31
p504
sg222
(lp505
sg224
g154
sg225
Nsg226
(lp506
I12
aI31
asg228
Nsg229
g504
sg230
(lp507
sg232
g56
sg233
Nsg234
Nsg235
Nsbag3
(g4
g5
NtRp508
(dp509
g8
g10
sg213
Nsg214
(dp510
sg216
Nsg26
g28
sg217
(lp511
I12
aI32
asg219
Nsg220
VMekhilta DeRabbi Shimon Bar Yochai 12:32
p512
sg222
(lp513
sg224
g154
sg225
Nsg226
(lp514
I12
aI32
asg228
Nsg229
g512
sg230
(lp515
sg232
g56
sg233
Nsg234
Nsg235
Nsbag3
(g4
g5
NtRp516
(dp517
g8
g10
sg213
Nsg214
(dp518
sg216
Nsg26
g28
sg217
(lp519
I12
aI33
asg219
Nsg220
VMekhilta DeRabbi Shimon Bar Yochai 12:33
p520
sg222
(lp521
sg224
g154
sg225
Nsg226
(lp522
I12
aI33
asg228
Nsg229
g520
sg230
(lp523
sg232
g56
sg233
Nsg234
Nsg235
Nsbag3
(g4
g5
NtRp524
(dp525
g8
g10
sg213
Nsg214
(dp526
sg216
Nsg26
g28
sg217
(lp527
I12
aI34
asg219
Nsg220
VMekhilta DeRabbi Shimon Bar Yochai 12:34
p528
sg222
(lp529
sg224
g154
sg225
Nsg226
(lp530
I12
aI34
asg228
Nsg229
g528
sg230
(lp531
sg232
g56
sg233
Nsg234
Nsg235
Nsbag3
(g4
g5
NtRp532
(dp533
g8
g10
sg213
Nsg214
(dp534
sg216
Nsg26
g28
sg217
(lp535
I12
aI35
asg219
Nsg220
VMekhilta DeRabbi Shimon Bar Yochai 12:35
p536
sg222
(lp537
sg224
g154
sg225
Nsg226
(lp538
I12
aI35
asg228
Nsg229
g536
sg230
(lp539
sg232
g56
sg233
Nsg234
Nsg235
Nsbag3
(g4
g5
NtRp540
(dp541
g8
g10
sg213
Nsg214
(dp542
sg216
Nsg26
g28
sg217
(lp543
I12
aI36
asg219
Nsg220
VMekhilta DeRabbi Shimon Bar Yochai 12:36
p544
sg222
(lp545
sg224
g154
sg225
Nsg226
(lp546
I12
aI36
asg228
Nsg229
g544
sg230
(lp547
sg232
g56
sg233
Nsg234
Nsg235
Nsbag3
(g4
g5
NtRp548
(dp549
g8
g10
sg213
Nsg214
(dp550
sg216
Nsg26
g28
sg217
(lp551
I12
aI37
asg219
Nsg220
VMekhilta DeRabbi Shimon Bar Yochai 12:37
p552
sg222
(lp553
sg224
g154
sg225
Nsg226
(lp554
I12
aI37
asg228
Nsg229
g552
sg230
(lp555
sg232
g56
sg233
Nsg234
Nsg235
Nsbag3
(g4
g5
NtRp556
(dp557
g8
g10
sg213
Nsg214
(dp558
sg216
Nsg26
g28
sg217
(lp559
I12
aI38
asg219
Nsg220
VMekhilta DeRabbi Shimon Bar Yochai 12:38
p560
sg222
(lp561
sg224
g154
sg225
Nsg226
(lp562
I12
aI38
asg228
Nsg229
g560
sg230
(lp563
sg232
g56
sg233
Nsg234
Nsg235
Nsbag3
(g4
g5
NtRp564
(dp565
g8
g10
sg213
Nsg214
(dp566
sg216
Nsg26
g28
sg217
(lp567
I12
aI39
asg219
Nsg220
VMekhilta DeRabbi Shimon Bar Yochai 12:39
p568
sg222
(lp569
sg224
g154
sg225
Nsg226
(lp570
I12
aI39
asg228
Nsg229
g568
sg230
(lp571
sg232
g56
sg233
Nsg234
Nsg235
Nsbag3
(g4
g5
NtRp572
(dp573
g8
g10
sg213
Nsg214
(dp574
sg216
Nsg26
g28
sg217
(lp575
I12
aI40
asg219
Nsg220
VMekhilta DeRabbi Shimon Bar Yochai 12:40
p576
sg222
(lp577
sg224
g154
sg225
Nsg226
(lp578
I12
aI40
asg228
Nsg229
g576
sg230
(lp579
sg232
g56
sg233
Nsg234
Nsg235
Nsbag3
(g4
g5
NtRp580
(dp581
g8
g10
sg213
Nsg214
(dp582
sg216
Nsg26
g28
sg217
(lp583
I12
aI41
asg219
Nsg220
VMekhilta DeRabbi Shimon Bar Yochai 12:41
p584
sg222
(lp585
sg224
g154
sg225
Nsg226
(lp586
I12
aI41
asg228
Nsg229
g584
sg230
(lp587
sg232
g56
sg233
Nsg234
Nsg235
Nsbag3
(g4
g5
NtRp588
(dp589
g8
g10
sg213
Nsg214
(dp590
sg216
Nsg26
g28
sg217
(lp591
I12
aI42
asg219
Nsg220
VMekhilta DeRabbi Shimon Bar Yochai 12:42
p592
sg222
(lp593
sg224
g154
sg225
Nsg226
(lp594
I12
aI42
asg228
Nsg229
g592
sg230
(lp595
sg232
g56
sg233
Nsg234
Nsg235
Nsbag3
(g4
g5
NtRp596
(dp597
g8
g10
sg213
Nsg214
(dp598
sg216
Nsg26
g28
sg217
(lp599
I12
aI43
asg219
Nsg220
VMekhilta DeRabbi Shimon Bar Yochai 12:43
p600
sg222
(lp601
sg224
g154
sg225
Nsg226
(lp602
I12
aI43
asg228
Nsg229
g600
sg230
(lp603
sg232
g56
sg233
Nsg234
Nsg235
Nsbag3
(g4
g5
NtRp604
(dp605
g8
g10
sg213
Nsg214
(dp606
sg216
Nsg26
g28
sg217
(lp607
I12
aI44
asg219
Nsg220
VMekhilta DeRabbi Shimon Bar Yochai 12:44
p608
sg222
(lp609
sg224
g154
sg225
Nsg226
(lp610
I12
aI44
asg228
Nsg229
g608
sg230
(lp611
sg232
g56
sg233
Nsg234
Nsg235
Nsbag3
(g4
g5
NtRp612
(dp613
g8
g10
sg213
Nsg214
(dp614
sg216
Nsg26
g28
sg217
(lp615
I12
aI45
asg219
Nsg220
VMekhilta DeRabbi Shimon Bar Yochai 12:45
p616
sg222
(lp617
sg224
g154
sg225
Nsg226
(lp618
I12
aI45
asg228
Nsg229
g616
sg230
(lp619
sg232
g56
sg233
Nsg234
Nsg235
Nsbag3
(g4
g5
NtRp620
(dp621
g8
g10
sg213
Nsg214
(dp622
sg216
Nsg26
g28
sg217
(lp623
I12
aI46
asg219
Nsg220
VMekhilta DeRabbi Shimon Bar Yochai 12:46
p624
sg222
(lp625
sg224
g154
sg225
Nsg226
(lp626
I12
aI46
asg228
Nsg229
g624
sg230
(lp627
sg232
g56
sg233
Nsg234
Nsg235
Nsbag3
(g4
g5
NtRp628
(dp629
g8
g10
sg213
Nsg214
(dp630
sg216
Nsg26
g28
sg217
(lp631
I12
aI47
asg219
Nsg220
VMekhilta DeRabbi Shimon Bar Yochai 12:47
p632
sg222
(lp633
sg224
g154
sg225
Nsg226
(lp634
I12
aI47
asg228
Nsg229
g632
sg230
(lp635
sg232
g56
sg233
Nsg234
Nsg235
Nsbag3
(g4
g5
NtRp636
(dp637
g8
g10
sg213
Nsg214
(dp638
sg216
Nsg26
g28
sg217
(lp639
I12
aI48
asg219
Nsg220
VMekhilta DeRabbi Shimon Bar Yochai 12:48
p640
sg222
(lp641
sg224
g154
sg225
Nsg226
(lp642
I12
aI48
asg228
Nsg229
g640
sg230
(lp643
sg232
g56
sg233
Nsg234
Nsg235
Nsbag3
(g4
g5
NtRp644
(dp645
g8
g10
sg213
Nsg214
(dp646
sg216
Nsg26
g28
sg217
(lp647
I12
aI49
asg219
Nsg220
VMekhilta DeRabbi Shimon Bar Yochai 12:49
p648
sg222
(lp649
sg224
g154
sg225
Nsg226
(lp650
I12
aI49
asg228
Nsg229
g648
sg230
(lp651
sg232
g56
sg233
Nsg234
Nsg235
Nsbag3
(g4
g5
NtRp652
(dp653
g8
g10
sg213
Nsg214
(dp654
sg216
Nsg26
g28
sg217
(lp655
I12
aI50
asg219
Nsg220
VMekhilta DeRabbi Shimon Bar Yochai 12:50
p656
sg222
(lp657
sg224
g154
sg225
Nsg226
(lp658
I12
aI50
asg228
Nsg229
g656
sg230
(lp659
sg232
g56
sg233
Nsg234
Nsg235
Nsbag3
(g4
g5
NtRp660
(dp661
g8
g10
sg213
Nsg214
(dp662
sg216
Nsg26
g28
sg217
(lp663
I12
aI51
asg219
Nsg220
VMekhilta DeRabbi Shimon Bar Yochai 12:51
p664
sg222
(lp665
sg224
g154
sg225
Nsg226
(lp666
I12
aI51
asg228
Nsg229
g664
sg230
(lp667
sg232
g56
sg233
Nsg234
Nsg235
Nsbag3
(g4
g5
NtRp668
(dp669
g8
g10
sg213
Nsg214
(dp670
sg216
Nsg26
g28
sg217
(lp671
I13
aI1
asg219
Nsg220
VMekhilta DeRabbi Shimon Bar Yochai 13:1
p672
sg222
(lp673
sg224
g154
sg225
Nsg226
(lp674
I13
aI1
asg228
Nsg229
g672
sg230
(lp675
sg232
g56
sg233
Nsg234
Nsg235
Nsbag3
(g4
g5
NtRp676
(dp677
g8
g10
sg213
Nsg214
(dp678
sg216
Nsg26
g28
sg217
(lp679
I13
aI2
asg219
Nsg220
VMekhilta DeRabbi Shimon Bar Yochai 13:2
p680
sg222
(lp681
sg224
g154
sg225
Nsg226
(lp682
I13
aI2
asg228
Nsg229
g680
sg230
(lp683
sg232
g56
sg233
Nsg234
Nsg235
Nsbag3
(g4
g5
NtRp684
(dp685
g8
g10
sg213
Nsg214
(dp686
sg216
Nsg26
g28
sg217
(lp687
I13
aI3
asg219
Nsg220
VMekhilta DeRabbi Shimon Bar Yochai 13:3
p688
sg222
(lp689
sg224
g154
sg225
Nsg226
(lp690
I13
aI3
asg228
Nsg229
g688
sg230
(lp691
sg232
g56
sg233
Nsg234
Nsg235
Nsbag3
(g4
g5
NtRp692
(dp693
g8
g10
sg213
Nsg214
(dp694
sg216
Nsg26
g28
sg217
(lp695
I13
aI4
asg219
Nsg220
VMekhilta DeRabbi Shimon Bar Yochai 13:4
p696
sg222
(lp697
sg224
g154
sg225
Nsg226
(lp698
I13
aI4
asg228
Nsg229
g696
sg230
(lp699
sg232
g56
sg233
Nsg234
Nsg235
Nsbag3
(g4
g5
NtRp700
(dp701
g8
g10
sg213
Nsg214
(dp702
sg216
Nsg26
g28
sg217
(lp703
I13
aI5
asg219
Nsg220
VMekhilta DeRabbi Shimon Bar Yochai 13:5
p704
sg222
(lp705
sg224
g154
sg225
Nsg226
(lp706
I13
aI5
asg228
Nsg229
g704
sg230
(lp707
sg232
g56
sg233
Nsg234
Nsg235
Nsbag3
(g4
g5
NtRp708
(dp709
g8
g10
sg213
Nsg214
(dp710
sg216
Nsg26
g28
sg217
(lp711
I13
aI6
asg219
Nsg220
VMekhilta DeRabbi Shimon Bar Yochai 13:6
p712
sg222
(lp713
sg224
g154
sg225
Nsg226
(lp714
I13
aI6
asg228
Nsg229
g712
sg230
(lp715
sg232
g56
sg233
Nsg234
Nsg235
Nsbag3
(g4
g5
NtRp716
(dp717
g8
g10
sg213
Nsg214
(dp718
sg216
Nsg26
g28
sg217
(lp719
I13
aI7
asg219
Nsg220
VMekhilta DeRabbi Shimon Bar Yochai 13:7
p720
sg222
(lp721
sg224
g154
sg225
Nsg226
(lp722
I13
aI7
asg228
Nsg229
g720
sg230
(lp723
sg232
g56
sg233
Nsg234
Nsg235
Nsbag3
(g4
g5
NtRp724
(dp725
g8
g10
sg213
Nsg214
(dp726
sg216
Nsg26
g28
sg217
(lp727
I13
aI8
asg219
Nsg220
VMekhilta DeRabbi Shimon Bar Yochai 13:8
p728
sg222
(lp729
sg224
g154
sg225
Nsg226
(lp730
I13
aI8
asg228
Nsg229
g728
sg230
(lp731
sg232
g56
sg233
Nsg234
Nsg235
Nsbag3
(g4
g5
NtRp732
(dp733
g8
g10
sg213
Nsg214
(dp734
sg216
Nsg26
g28
sg217
(lp735
I13
aI9
asg219
Nsg220
VMekhilta DeRabbi Shimon Bar Yochai 13:9
p736
sg222
(lp737
sg224
g154
sg225
Nsg226
(lp738
I13
aI9
asg228
Nsg229
g736
sg230
(lp739
sg232
g56
sg233
Nsg234
Nsg235
Nsbag3
(g4
g5
NtRp740
(dp741
g8
g10
sg213
Nsg214
(dp742
sg216
Nsg26
g28
sg217
(lp743
I13
aI10
asg219
Nsg220
VMekhilta DeRabbi Shimon Bar Yochai 13:10
p744
sg222
(lp745
sg224
g154
sg225
Nsg226
(lp746
I13
aI10
asg228
Nsg229
g744
sg230
(lp747
sg232
g56
sg233
Nsg234
Nsg235
Nsbag3
(g4
g5
NtRp748
(dp749
g8
g10
sg213
Nsg214
(dp750
sg216
Nsg26
g28
sg217
(lp751
I13
aI11
asg219
Nsg220
VMekhilta DeRabbi Shimon Bar Yochai 13:11
p752
sg222
(lp753
sg224
g154
sg225
Nsg226
(lp754
I13
aI11
asg228
Nsg229
g752
sg230
(lp755
sg232
g56
sg233
Nsg234
Nsg235
Nsbag3
(g4
g5
NtRp756
(dp757
g8
g10
sg213
Nsg214
(dp758
sg216
Nsg26
g28
sg217
(lp759
I13
aI12
asg219
Nsg220
VMekhilta DeRabbi Shimon Bar Yochai 13:12
p760
sg222
(lp761
sg224
g154
sg225
Nsg226
(lp762
I13
aI12
asg228
Nsg229
g760
sg230
(lp763
sg232
g56
sg233
Nsg234
Nsg235
Nsbag3
(g4
g5
NtRp764
(dp765
g8
g10
sg213
Nsg214
(dp766
sg216
Nsg26
g28
sg217
(lp767
I13
aI13
asg219
Nsg220
VMekhilta DeRabbi Shimon Bar Yochai 13:13
p768
sg222
(lp769
sg224
g154
sg225
Nsg226
(lp770
I13
aI13
asg228
Nsg229
g768
sg230
(lp771
sg232
g56
sg233
Nsg234
Nsg235
Nsbag3
(g4
g5
NtRp772
(dp773
g8
g10
sg213
Nsg214
(dp774
sg216
Nsg26
g28
sg217
(lp775
I13
aI14
asg219
Nsg220
VMekhilta DeRabbi Shimon Bar Yochai 13:14
p776
sg222
(lp777
sg224
g154
sg225
Nsg226
(lp778
I13
aI14
asg228
Nsg229
g776
sg230
(lp779
sg232
g56
sg233
Nsg234
Nsg235
Nsbag3
(g4
g5
NtRp780
(dp781
g8
g10
sg213
Nsg214
(dp782
sg216
Nsg26
g28
sg217
(lp783
I13
aI15
asg219
Nsg220
VMekhilta DeRabbi Shimon Bar Yochai 13:15
p784
sg222
(lp785
sg224
g154
sg225
Nsg226
(lp786
I13
aI15
asg228
Nsg229
g784
sg230
(lp787
sg232
g56
sg233
Nsg234
Nsg235
Nsbag3
(g4
g5
NtRp788
(dp789
g8
g10
sg213
Nsg214
(dp790
sg216
Nsg26
g28
sg217
(lp791
I13
aI16
asg219
Nsg220
VMekhilta DeRabbi Shimon Bar Yochai 13:16
p792
sg222
(lp793
sg224
g154
sg225
Nsg226
(lp794
I13
aI16
asg228
Nsg229
g792
sg230
(lp795
sg232
g56
sg233
Nsg234
Nsg235
Nsbag3
(g4
g5
NtRp796
(dp797
g8
g10
sg213
Nsg214
(dp798
sg216
Nsg26
g28
sg217
(lp799
I13
aI17
asg219
Nsg220
VMekhilta DeRabbi Shimon Bar Yochai 13:17
p800
sg222
(lp801
sg224
g154
sg225
Nsg226
(lp802
I13
aI17
asg228
Nsg229
g800
sg230
(lp803
sg232
g56
sg233
Nsg234
Nsg235
Nsbag3
(g4
g5
NtRp804
(dp805
g8
g10
sg213
Nsg214
(dp806
sg216
Nsg26
g28
sg217
(lp807
I13
aI18
asg219
Nsg220
VMekhilta DeRabbi Shimon Bar Yochai 13:18
p808
sg222
(lp809
sg224
g154
sg225
Nsg226
(lp810
I13
aI18
asg228
Nsg229
g808
sg230
(lp811
sg232
g56
sg233
Nsg234
Nsg235
Nsbag3
(g4
g5
NtRp812
(dp813
g8
g10
sg213
Nsg214
(dp814
sg216
Nsg26
g28
sg217
(lp815
I13
aI19
asg219
Nsg220
VMekhilta DeRabbi Shimon Bar Yochai 13:19
p816
sg222
(lp817
sg224
g154
sg225
Nsg226
(lp818
I13
aI19
asg228
Nsg229
g816
sg230
(lp819
sg232
g56
sg233
Nsg234
Nsg235
Nsbag3
(g4
g5
NtRp820
(dp821
g8
g10
sg213
Nsg214
(dp822
sg216
Nsg26
g28
sg217
(lp823
I13
aI20
asg219
Nsg220
VMekhilta DeRabbi Shimon Bar Yochai 13:20
p824
sg222
(lp825
sg224
g154
sg225
Nsg226
(lp826
I13
aI20
asg228
Nsg229
g824
sg230
(lp827
sg232
g56
sg233
Nsg234
Nsg235
Nsbag3
(g4
g5
NtRp828
(dp829
g8
g10
sg213
Nsg214
(dp830
sg216
Nsg26
g28
sg217
(lp831
I13
aI21
asg219
Nsg220
VMekhilta DeRabbi Shimon Bar Yochai 13:21
p832
sg222
(lp833
sg224
g154
sg225
Nsg226
(lp834
I13
aI21
asg228
Nsg229
g832
sg230
(lp835
sg232
g56
sg233
Nsg234
Nsg235
Nsbag3
(g4
g5
NtRp836
(dp837
g8
g10
sg213
Nsg214
(dp838
sg216
Nsg26
g28
sg217
(lp839
I14
aI1
asg219
Nsg220
VMekhilta DeRabbi Shimon Bar Yochai 14:1
p840
sg222
(lp841
sg224
g154
sg225
Nsg226
(lp842
I14
aI1
asg228
Nsg229
g840
sg230
(lp843
sg232
g56
sg233
Nsg234
Nsg235
Nsbag3
(g4
g5
NtRp844
(dp845
g8
g10
sg213
Nsg214
(dp846
sg216
Nsg26
g28
sg217
(lp847
I14
aI2
asg219
Nsg220
VMekhilta DeRabbi Shimon Bar Yochai 14:2
p848
sg222
(lp849
sg224
g154
sg225
Nsg226
(lp850
I14
aI2
asg228
Nsg229
g848
sg230
(lp851
sg232
g56
sg233
Nsg234
Nsg235
Nsbag3
(g4
g5
NtRp852
(dp853
g8
g10
sg213
Nsg214
(dp854
sg216
Nsg26
g28
sg217
(lp855
I14
aI3
asg219
Nsg220
VMekhilta DeRabbi Shimon Bar Yochai 14:3
p856
sg222
(lp857
sg224
g154
sg225
Nsg226
(lp858
I14
aI3
asg228
Nsg229
g856
sg230
(lp859
sg232
g56
sg233
Nsg234
Nsg235
Nsbag3
(g4
g5
NtRp860
(dp861
g8
g10
sg213
Nsg214
(dp862
sg216
Nsg26
g28
sg217
(lp863
I14
aI4
asg219
Nsg220
VMekhilta DeRabbi Shimon Bar Yochai 14:4
p864
sg222
(lp865
sg224
g154
sg225
Nsg226
(lp866
I14
aI4
asg228
Nsg229
g864
sg230
(lp867
sg232
g56
sg233
Nsg234
Nsg235
Nsbag3
(g4
g5
NtRp868
(dp869
g8
g10
sg213
Nsg214
(dp870
sg216
Nsg26
g28
sg217
(lp871
I14
aI5
asg219
Nsg220
VMekhilta DeRabbi Shimon Bar Yochai 14:5
p872
sg222
(lp873
sg224
g154
sg225
Nsg226
(lp874
I14
aI5
asg228
Nsg229
g872
sg230
(lp875
sg232
g56
sg233
Nsg234
Nsg235
Nsbag3
(g4
g5
NtRp876
(dp877
g8
g10
sg213
Nsg214
(dp878
sg216
Nsg26
g28
sg217
(lp879
I14
aI6
asg219
Nsg220
VMekhilta DeRabbi Shimon Bar Yochai 14:6
p880
sg222
(lp881
sg224
g154
sg225
Nsg226
(lp882
I14
aI6
asg228
Nsg229
g880
sg230
(lp883
sg232
g56
sg233
Nsg234
Nsg235
Nsbag3
(g4
g5
NtRp884
(dp885
g8
g10
sg213
Nsg214
(dp886
sg216
Nsg26
g28
sg217
(lp887
I14
aI7
asg219
Nsg220
VMekhilta DeRabbi Shimon Bar Yochai 14:7
p888
sg222
(lp889
sg224
g154
sg225
Nsg226
(lp890
I14
aI7
asg228
Nsg229
g888
sg230
(lp891
sg232
g56
sg233
Nsg234
Nsg235
Nsbag3
(g4
g5
NtRp892
(dp893
g8
g10
sg213
Nsg214
(dp894
sg216
Nsg26
g28
sg217
(lp895
I14
aI8
asg219
Nsg220
VMekhilta DeRabbi Shimon Bar Yochai 14:8
p896
sg222
(lp897
sg224
g154
sg225
Nsg226
(lp898
I14
aI8
asg228
Nsg229
g896
sg230
(lp899
sg232
g56
sg233
Nsg234
Nsg235
Nsbag3
(g4
g5
NtRp900
(dp901
g8
g10
sg213
Nsg214
(dp902
sg216
Nsg26
g28
sg217
(lp903
I14
aI9
asg219
Nsg220
VMekhilta DeRabbi Shimon Bar Yochai 14:9
p904
sg222
(lp905
sg224
g154
sg225
Nsg226
(lp906
I14
aI9
asg228
Nsg229
g904
sg230
(lp907
sg232
g56
sg233
Nsg234
Nsg235
Nsbag3
(g4
g5
NtRp908
(dp909
g8
g10
sg213
Nsg214
(dp910
sg216
Nsg26
g28
sg217
(lp911
I14
aI10
asg219
Nsg220
VMekhilta DeRabbi Shimon Bar Yochai 14:10
p912
sg222
(lp913
sg224
g154
sg225
Nsg226
(lp914
I14
aI10
asg228
Nsg229
g912
sg230
(lp915
sg232
g56
sg233
Nsg234
Nsg235
Nsbag3
(g4
g5
NtRp916
(dp917
g8
g10
sg213
Nsg214
(dp918
sg216
Nsg26
g28
sg217
(lp919
I14
aI11
asg219
Nsg220
VMekhilta DeRabbi Shimon Bar Yochai 14:11
p920
sg222
(lp921
sg224
g154
sg225
Nsg226
(lp922
I14
aI11
asg228
Nsg229
g920
sg230
(lp923
sg232
g56
sg233
Nsg234
Nsg235
Nsbag3
(g4
g5
NtRp924
(dp925
g8
g10
sg213
Nsg214
(dp926
sg216
Nsg26
g28
sg217
(lp927
I14
aI12
asg219
Nsg220
VMekhilta DeRabbi Shimon Bar Yochai 14:12
p928
sg222
(lp929
sg224
g154
sg225
Nsg226
(lp930
I14
aI12
asg228
Nsg229
g928
sg230
(lp931
sg232
g56
sg233
Nsg234
Nsg235
Nsbag3
(g4
g5
NtRp932
(dp933
g8
g10
sg213
Nsg214
(dp934
sg216
Nsg26
g28
sg217
(lp935
I14
aI13
asg219
Nsg220
VMekhilta DeRabbi Shimon Bar Yochai 14:13
p936
sg222
(lp937
sg224
g154
sg225
Nsg226
(lp938
I14
aI13
asg228
Nsg229
g936
sg230
(lp939
sg232
g56
sg233
Nsg234
Nsg235
Nsbag3
(g4
g5
NtRp940
(dp941
g8
g10
sg213
Nsg214
(dp942
sg216
Nsg26
g28
sg217
(lp943
I14
aI14
asg219
Nsg220
VMekhilta DeRabbi Shimon Bar Yochai 14:14
p944
sg222
(lp945
sg224
g154
sg225
Nsg226
(lp946
I14
aI14
asg228
Nsg229
g944
sg230
(lp947
sg232
g56
sg233
Nsg234
Nsg235
Nsbag3
(g4
g5
NtRp948
(dp949
g8
g10
sg213
Nsg214
(dp950
sg216
Nsg26
g28
sg217
(lp951
I14
aI15
asg219
Nsg220
VMekhilta DeRabbi Shimon Bar Yochai 14:15
p952
sg222
(lp953
sg224
g154
sg225
Nsg226
(lp954
I14
aI15
asg228
Nsg229
g952
sg230
(lp955
sg232
g56
sg233
Nsg234
Nsg235
Nsbag3
(g4
g5
NtRp956
(dp957
g8
g10
sg213
Nsg214
(dp958
sg216
Nsg26
g28
sg217
(lp959
I14
aI16
asg219
Nsg220
VMekhilta DeRabbi Shimon Bar Yochai 14:16
p960
sg222
(lp961
sg224
g154
sg225
Nsg226
(lp962
I14
aI16
asg228
Nsg229
g960
sg230
(lp963
sg232
g56
sg233
Nsg234
Nsg235
Nsbag3
(g4
g5
NtRp964
(dp965
g8
g10
sg213
Nsg214
(dp966
sg216
Nsg26
g28
sg217
(lp967
I14
aI17
asg219
Nsg220
VMekhilta DeRabbi Shimon Bar Yochai 14:17
p968
sg222
(lp969
sg224
g154
sg225
Nsg226
(lp970
I14
aI17
asg228
Nsg229
g968
sg230
(lp971
sg232
g56
sg233
Nsg234
Nsg235
Nsbag3
(g4
g5
NtRp972
(dp973
g8
g10
sg213
Nsg214
(dp974
sg216
Nsg26
g28
sg217
(lp975
I14
aI18
asg219
Nsg220
VMekhilta DeRabbi Shimon Bar Yochai 14:18
p976
sg222
(lp977
sg224
g154
sg225
Nsg226
(lp978
I14
aI18
asg228
Nsg229
g976
sg230
(lp979
sg232
g56
sg233
Nsg234
Nsg235
Nsbag3
(g4
g5
NtRp980
(dp981
g8
g10
sg213
Nsg214
(dp982
sg216
Nsg26
g28
sg217
(lp983
I14
aI19
asg219
Nsg220
VMekhilta DeRabbi Shimon Bar Yochai 14:19
p984
sg222
(lp985
sg224
g154
sg225
Nsg226
(lp986
I14
aI19
asg228
Nsg229
g984
sg230
(lp987
sg232
g56
sg233
Nsg234
Nsg235
Nsbag3
(g4
g5
NtRp988
(dp989
g8
g10
sg213
Nsg214
(dp990
sg216
Nsg26
g28
sg217
(lp991
I14
aI20
asg219
Nsg220
VMekhilta DeRabbi Shimon Bar Yochai 14:20
p992
sg222
(lp993
sg224
g154
sg225
Nsg226
(lp994
I14
aI20
asg228
Nsg229
g992
sg230
(lp995
sg232
g56
sg233
Nsg234
Nsg235
Nsbag3
(g4
g5
NtRp996
(dp997
g8
g10
sg213
Nsg214
(dp998
sg216
Nsg26
g28
sg217
(lp999
I14
aI21
asg219
Nsg220
VMekhilta DeRabbi Shimon Bar Yochai 14:21
p1000
sg222
(lp1001
sg224
g154
sg225
Nsg226
(lp1002
I14
aI21
asg228
Nsg229
g1000
sg230
(lp1003
sg232
g56
sg233
Nsg234
Nsg235
Nsbag3
(g4
g5
NtRp1004
(dp1005
g8
g10
sg213
Nsg214
(dp1006
sg216
Nsg26
g28
sg217
(lp1007
I14
aI22
asg219
Nsg220
VMekhilta DeRabbi Shimon Bar Yochai 14:22
p1008
sg222
(lp1009
sg224
g154
sg225
Nsg226
(lp1010
I14
aI22
asg228
Nsg229
g1008
sg230
(lp1011
sg232
g56
sg233
Nsg234
Nsg235
Nsbag3
(g4
g5
NtRp1012
(dp1013
g8
g10
sg213
Nsg214
(dp1014
sg216
Nsg26
g28
sg217
(lp1015
I14
aI23
asg219
Nsg220
VMekhilta DeRabbi Shimon Bar Yochai 14:23
p1016
sg222
(lp1017
sg224
g154
sg225
Nsg226
(lp1018
I14
aI23
asg228
Nsg229
g1016
sg230
(lp1019
sg232
g56
sg233
Nsg234
Nsg235
Nsbag3
(g4
g5
NtRp1020
(dp1021
g8
g10
sg213
Nsg214
(dp1022
sg216
Nsg26
g28
sg217
(lp1023
I14
aI24
asg219
Nsg220
VMekhilta DeRabbi Shimon Bar Yochai 14:24
p1024
sg222
(lp1025
sg224
g154
sg225
Nsg226
(lp1026
I14
aI24
asg228
Nsg229
g1024
sg230
(lp1027
sg232
g56
sg233
Nsg234
Nsg235
Nsbag3
(g4
g5
NtRp1028
(dp1029
g8
g10
sg213
Nsg214
(dp1030
sg216
Nsg26
g28
sg217
(lp1031
I14
aI25
asg219
Nsg220
VMekhilta DeRabbi Shimon Bar Yochai 14:25
p1032
sg222
(lp1033
sg224
g154
sg225
Nsg226
(lp1034
I14
aI25
asg228
Nsg229
g1032
sg230
(lp1035
sg232
g56
sg233
Nsg234
Nsg235
Nsbag3
(g4
g5
NtRp1036
(dp1037
g8
g10
sg213
Nsg214
(dp1038
sg216
Nsg26
g28
sg217
(lp1039
I14
aI26
asg219
Nsg220
VMekhilta DeRabbi Shimon Bar Yochai 14:26
p1040
sg222
(lp1041
sg224
g154
sg225
Nsg226
(lp1042
I14
aI26
asg228
Nsg229
g1040
sg230
(lp1043
sg232
g56
sg233
Nsg234
Nsg235
Nsbag3
(g4
g5
NtRp1044
(dp1045
g8
g10
sg213
Nsg214
(dp1046
sg216
Nsg26
g28
sg217
(lp1047
I14
aI27
asg219
Nsg220
VMekhilta DeRabbi Shimon Bar Yochai 14:27
p1048
sg222
(lp1049
sg224
g154
sg225
Nsg226
(lp1050
I14
aI27
asg228
Nsg229
g1048
sg230
(lp1051
sg232
g56
sg233
Nsg234
Nsg235
Nsbag3
(g4
g5
NtRp1052
(dp1053
g8
g10
sg213
Nsg214
(dp1054
sg216
Nsg26
g28
sg217
(lp1055
I14
aI28
asg219
Nsg220
VMekhilta DeRabbi Shimon Bar Yochai 14:28
p1056
sg222
(lp1057
sg224
g154
sg225
Nsg226
(lp1058
I14
aI28
asg228
Nsg229
g1056
sg230
(lp1059
sg232
g56
sg233
Nsg234
Nsg235
Nsbag3
(g4
g5
NtRp1060
(dp1061
g8
g10
sg213
Nsg214
(dp1062
sg216
Nsg26
g28
sg217
(lp1063
I14
aI29
asg219
Nsg220
VMekhilta DeRabbi Shimon Bar Yochai 14:29
p1064
sg222
(lp1065
sg224
g154
sg225
Nsg226
(lp1066
I14
aI29
asg228
Nsg229
g1064
sg230
(lp1067
sg232
g56
sg233
Nsg234
Nsg235
Nsbag3
(g4
g5
NtRp1068
(dp1069
g8
g10
sg213
Nsg214
(dp1070
sg216
Nsg26
g28
sg217
(lp1071
I15
aI1
asg219
Nsg220
VMekhilta DeRabbi Shimon Bar Yochai 15:1
p1072
sg222
(lp1073
sg224
g154
sg225
Nsg226
(lp1074
I15
aI1
asg228
Nsg229
g1072
sg230
(lp1075
sg232
g56
sg233
Nsg234
Nsg235
Nsbag3
(g4
g5
NtRp1076
(dp1077
g8
g10
sg213
Nsg214
(dp1078
sg216
Nsg26
g28
sg217
(lp1079
I15
aI2
asg219
Nsg220
VMekhilta DeRabbi Shimon Bar Yochai 15:2
p1080
sg222
(lp1081
sg224
g154
sg225
Nsg226
(lp1082
I15
aI2
asg228
Nsg229
g1080
sg230
(lp1083
sg232
g56
sg233
Nsg234
Nsg235
Nsbag3
(g4
g5
NtRp1084
(dp1085
g8
g10
sg213
Nsg214
(dp1086
sg216
Nsg26
g28
sg217
(lp1087
I15
aI3
asg219
Nsg220
VMekhilta DeRabbi Shimon Bar Yochai 15:3
p1088
sg222
(lp1089
sg224
g154
sg225
Nsg226
(lp1090
I15
aI3
asg228
Nsg229
g1088
sg230
(lp1091
sg232
g56
sg233
Nsg234
Nsg235
Nsbag3
(g4
g5
NtRp1092
(dp1093
g8
g10
sg213
Nsg214
(dp1094
sg216
Nsg26
g28
sg217
(lp1095
I15
aI4
asg219
Nsg220
VMekhilta DeRabbi Shimon Bar Yochai 15:4
p1096
sg222
(lp1097
sg224
g154
sg225
Nsg226
(lp1098
I15
aI4
asg228
Nsg229
g1096
sg230
(lp1099
sg232
g56
sg233
Nsg234
Nsg235
Nsbag3
(g4
g5
NtRp1100
(dp1101
g8
g10
sg213
Nsg214
(dp1102
sg216
Nsg26
g28
sg217
(lp1103
I15
aI5
asg219
Nsg220
VMekhilta DeRabbi Shimon Bar Yochai 15:5
p1104
sg222
(lp1105
sg224
g154
sg225
Nsg226
(lp1106
I15
aI5
asg228
Nsg229
g1104
sg230
(lp1107
sg232
g56
sg233
Nsg234
Nsg235
Nsbag3
(g4
g5
NtRp1108
(dp1109
g8
g10
sg213
Nsg214
(dp1110
sg216
Nsg26
g28
sg217
(lp1111
I15
aI6
asg219
Nsg220
VMekhilta DeRabbi Shimon Bar Yochai 15:6
p1112
sg222
(lp1113
sg224
g154
sg225
Nsg226
(lp1114
I15
aI6
asg228
Nsg229
g1112
sg230
(lp1115
sg232
g56
sg233
Nsg234
Nsg235
Nsbag3
(g4
g5
NtRp1116
(dp1117
g8
g10
sg213
Nsg214
(dp1118
sg216
Nsg26
g28
sg217
(lp1119
I15
aI7
asg219
Nsg220
VMekhilta DeRabbi Shimon Bar Yochai 15:7
p1120
sg222
(lp1121
sg224
g154
sg225
Nsg226
(lp1122
I15
aI7
asg228
Nsg229
g1120
sg230
(lp1123
sg232
g56
sg233
Nsg234
Nsg235
Nsbag3
(g4
g5
NtRp1124
(dp1125
g8
g10
sg213
Nsg214
(dp1126
sg216
Nsg26
g28
sg217
(lp1127
I15
aI8
asg219
Nsg220
VMekhilta DeRabbi Shimon Bar Yochai 15:8
p1128
sg222
(lp1129
sg224
g154
sg225
Nsg226
(lp1130
I15
aI8
asg228
Nsg229
g1128
sg230
(lp1131
sg232
g56
sg233
Nsg234
Nsg235
Nsbag3
(g4
g5
NtRp1132
(dp1133
g8
g10
sg213
Nsg214
(dp1134
sg216
Nsg26
g28
sg217
(lp1135
I15
aI9
asg219
Nsg220
VMekhilta DeRabbi Shimon Bar Yochai 15:9
p1136
sg222
(lp1137
sg224
g154
sg225
Nsg226
(lp1138
I15
aI9
asg228
Nsg229
g1136
sg230
(lp1139
sg232
g56
sg233
Nsg234
Nsg235
Nsbag3
(g4
g5
NtRp1140
(dp1141
g8
g10
sg213
Nsg214
(dp1142
sg216
Nsg26
g28
sg217
(lp1143
I15
aI10
asg219
Nsg220
VMekhilta DeRabbi Shimon Bar Yochai 15:10
p1144
sg222
(lp1145
sg224
g154
sg225
Nsg226
(lp1146
I15
aI10
asg228
Nsg229
g1144
sg230
(lp1147
sg232
g56
sg233
Nsg234
Nsg235
Nsbag3
(g4
g5
NtRp1148
(dp1149
g8
g10
sg213
Nsg214
(dp1150
sg216
Nsg26
g28
sg217
(lp1151
I15
aI11
asg219
Nsg220
VMekhilta DeRabbi Shimon Bar Yochai 15:11
p1152
sg222
(lp1153
sg224
g154
sg225
Nsg226
(lp1154
I15
aI11
asg228
Nsg229
g1152
sg230
(lp1155
sg232
g56
sg233
Nsg234
Nsg235
Nsbag3
(g4
g5
NtRp1156
(dp1157
g8
g10
sg213
Nsg214
(dp1158
sg216
Nsg26
g28
sg217
(lp1159
I15
aI12
asg219
Nsg220
VMekhilta DeRabbi Shimon Bar Yochai 15:12
p1160
sg222
(lp1161
sg224
g154
sg225
Nsg226
(lp1162
I15
aI12
asg228
Nsg229
g1160
sg230
(lp1163
sg232
g56
sg233
Nsg234
Nsg235
Nsbag3
(g4
g5
NtRp1164
(dp1165
g8
g10
sg213
Nsg214
(dp1166
sg216
Nsg26
g28
sg217
(lp1167
I15
aI13
asg219
Nsg220
VMekhilta DeRabbi Shimon Bar Yochai 15:13
p1168
sg222
(lp1169
sg224
g154
sg225
Nsg226
(lp1170
I15
aI13
asg228
Nsg229
g1168
sg230
(lp1171
sg232
g56
sg233
Nsg234
Nsg235
Nsbag3
(g4
g5
NtRp1172
(dp1173
g8
g10
sg213
Nsg214
(dp1174
sg216
Nsg26
g28
sg217
(lp1175
I15
aI14
asg219
Nsg220
VMekhilta DeRabbi Shimon Bar Yochai 15:14
p1176
sg222
(lp1177
sg224
g154
sg225
Nsg226
(lp1178
I15
aI14
asg228
Nsg229
g1176
sg230
(lp1179
sg232
g56
sg233
Nsg234
Nsg235
Nsbag3
(g4
g5
NtRp1180
(dp1181
g8
g10
sg213
Nsg214
(dp1182
sg216
Nsg26
g28
sg217
(lp1183
I15
aI15
asg219
Nsg220
VMekhilta DeRabbi Shimon Bar Yochai 15:15
p1184
sg222
(lp1185
sg224
g154
sg225
Nsg226
(lp1186
I15
aI15
asg228
Nsg229
g1184
sg230
(lp1187
sg232
g56
sg233
Nsg234
Nsg235
Nsbag3
(g4
g5
NtRp1188
(dp1189
g8
g10
sg213
Nsg214
(dp1190
sg216
Nsg26
g28
sg217
(lp1191
I15
aI16
asg219
Nsg220
VMekhilta DeRabbi Shimon Bar Yochai 15:16
p1192
sg222
(lp1193
sg224
g154
sg225
Nsg226
(lp1194
I15
aI16
asg228
Nsg229
g1192
sg230
(lp1195
sg232
g56
sg233
Nsg234
Nsg235
Nsbag3
(g4
g5
NtRp1196
(dp1197
g8
g10
sg213
Nsg214
(dp1198
sg216
Nsg26
g28
sg217
(lp1199
I15
aI17
asg219
Nsg220
VMekhilta DeRabbi Shimon Bar Yochai 15:17
p1200
sg222
(lp1201
sg224
g154
sg225
Nsg226
(lp1202
I15
aI17
asg228
Nsg229
g1200
sg230
(lp1203
sg232
g56
sg233
Nsg234
Nsg235
Nsbag3
(g4
g5
NtRp1204
(dp1205
g8
g10
sg213
Nsg214
(dp1206
sg216
Nsg26
g28
sg217
(lp1207
I15
aI18
asg219
Nsg220
VMekhilta DeRabbi Shimon Bar Yochai 15:18
p1208
sg222
(lp1209
sg224
g154
sg225
Nsg226
(lp1210
I15
aI18
asg228
Nsg229
g1208
sg230
(lp1211
sg232
g56
sg233
Nsg234
Nsg235
Nsbag3
(g4
g5
NtRp1212
(dp1213
g8
g10
sg213
Nsg214
(dp1214
sg216
Nsg26
g28
sg217
(lp1215
I15
aI19
asg219
Nsg220
VMekhilta DeRabbi Shimon Bar Yochai 15:19
p1216
sg222
(lp1217
sg224
g154
sg225
Nsg226
(lp1218
I15
aI19
asg228
Nsg229
g1216
sg230
(lp1219
sg232
g56
sg233
Nsg234
Nsg235
Nsbag3
(g4
g5
NtRp1220
(dp1221
g8
g10
sg213
Nsg214
(dp1222
sg216
Nsg26
g28
sg217
(lp1223
I15
aI20
asg219
Nsg220
VMekhilta DeRabbi Shimon Bar Yochai 15:20
p1224
sg222
(lp1225
sg224
g154
sg225
Nsg226
(lp1226
I15
aI20
asg228
Nsg229
g1224
sg230
(lp1227
sg232
g56
sg233
Nsg234
Nsg235
Nsbag3
(g4
g5
NtRp1228
(dp1229
g8
g10
sg213
Nsg214
(dp1230
sg216
Nsg26
g28
sg217
(lp1231
I15
aI21
asg219
Nsg220
VMekhilta DeRabbi Shimon Bar Yochai 15:21
p1232
sg222
(lp1233
sg224
g154
sg225
Nsg226
(lp1234
I15
aI21
asg228
Nsg229
g1232
sg230
(lp1235
sg232
g56
sg233
Nsg234
Nsg235
Nsbag3
(g4
g5
NtRp1236
(dp1237
g8
g10
sg213
Nsg214
(dp1238
sg216
Nsg26
g28
sg217
(lp1239
I15
aI22
asg219
Nsg220
VMekhilta DeRabbi Shimon Bar Yochai 15:22
p1240
sg222
(lp1241
sg224
g154
sg225
Nsg226
(lp1242
I15
aI22
asg228
Nsg229
g1240
sg230
(lp1243
sg232
g56
sg233
Nsg234
Nsg235
Nsbag3
(g4
g5
NtRp1244
(dp1245
g8
g10
sg213
Nsg214
(dp1246
sg216
Nsg26
g28
sg217
(lp1247
I15
aI23
asg219
Nsg220
VMekhilta DeRabbi Shimon Bar Yochai 15:23
p1248
sg222
(lp1249
sg224
g154
sg225
Nsg226
(lp1250
I15
aI23
asg228
Nsg229
g1248
sg230
(lp1251
sg232
g56
sg233
Nsg234
Nsg235
Nsbag3
(g4
g5
NtRp1252
(dp1253
g8
g10
sg213
Nsg214
(dp1254
sg216
Nsg26
g28
sg217
(lp1255
I15
aI24
asg219
Nsg220
VMekhilta DeRabbi Shimon Bar Yochai 15:24
p1256
sg222
(lp1257
sg224
g154
sg225
Nsg226
(lp1258
I15
aI24
asg228
Nsg229
g1256
sg230
(lp1259
sg232
g56
sg233
Nsg234
Nsg235
Nsbag3
(g4
g5
NtRp1260
(dp1261
g8
g10
sg213
Nsg214
(dp1262
sg216
Nsg26
g28
sg217
(lp1263
I15
aI25
asg219
Nsg220
VMekhilta DeRabbi Shimon Bar Yochai 15:25
p1264
sg222
(lp1265
sg224
g154
sg225
Nsg226
(lp1266
I15
aI25
asg228
Nsg229
g1264
sg230
(lp1267
sg232
g56
sg233
Nsg234
Nsg235
Nsbag3
(g4
g5
NtRp1268
(dp1269
g8
g10
sg213
Nsg214
(dp1270
sg216
Nsg26
g28
sg217
(lp1271
I15
aI26
asg219
Nsg220
VMekhilta DeRabbi Shimon Bar Yochai 15:26
p1272
sg222
(lp1273
sg224
g154
sg225
Nsg226
(lp1274
I15
aI26
asg228
Nsg229
g1272
sg230
(lp1275
sg232
g56
sg233
Nsg234
Nsg235
Nsbag3
(g4
g5
NtRp1276
(dp1277
g8
g10
sg213
Nsg214
(dp1278
sg216
Nsg26
g28
sg217
(lp1279
I15
aI27
asg219
Nsg220
VMekhilta DeRabbi Shimon Bar Yochai 15:27
p1280
sg222
(lp1281
sg224
g154
sg225
Nsg226
(lp1282
I15
aI27
asg228
Nsg229
g1280
sg230
(lp1283
sg232
g56
sg233
Nsg234
Nsg235
Nsbag3
(g4
g5
NtRp1284
(dp1285
g8
g10
sg213
Nsg214
(dp1286
sg216
Nsg26
g28
sg217
(lp1287
I16
aI1
asg219
Nsg220
VMekhilta DeRabbi Shimon Bar Yochai 16:1
p1288
sg222
(lp1289
sg224
g154
sg225
Nsg226
(lp1290
I16
aI1
asg228
Nsg229
g1288
sg230
(lp1291
sg232
g56
sg233
Nsg234
Nsg235
Nsbag3
(g4
g5
NtRp1292
(dp1293
g8
g10
sg213
Nsg214
(dp1294
sg216
Nsg26
g28
sg217
(lp1295
I16
aI2
asg219
Nsg220
VMekhilta DeRabbi Shimon Bar Yochai 16:2
p1296
sg222
(lp1297
sg224
g154
sg225
Nsg226
(lp1298
I16
aI2
asg228
Nsg229
g1296
sg230
(lp1299
sg232
g56
sg233
Nsg234
Nsg235
Nsbag3
(g4
g5
NtRp1300
(dp1301
g8
g10
sg213
Nsg214
(dp1302
sg216
Nsg26
g28
sg217
(lp1303
I16
aI3
asg219
Nsg220
VMekhilta DeRabbi Shimon Bar Yochai 16:3
p1304
sg222
(lp1305
sg224
g154
sg225
Nsg226
(lp1306
I16
aI3
asg228
Nsg229
g1304
sg230
(lp1307
sg232
g56
sg233
Nsg234
Nsg235
Nsbag3
(g4
g5
NtRp1308
(dp1309
g8
g10
sg213
Nsg214
(dp1310
sg216
Nsg26
g28
sg217
(lp1311
I16
aI4
asg219
Nsg220
VMekhilta DeRabbi Shimon Bar Yochai 16:4
p1312
sg222
(lp1313
sg224
g154
sg225
Nsg226
(lp1314
I16
aI4
asg228
Nsg229
g1312
sg230
(lp1315
sg232
g56
sg233
Nsg234
Nsg235
Nsbag3
(g4
g5
NtRp1316
(dp1317
g8
g10
sg213
Nsg214
(dp1318
sg216
Nsg26
g28
sg217
(lp1319
I16
aI5
asg219
Nsg220
VMekhilta DeRabbi Shimon Bar Yochai 16:5
p1320
sg222
(lp1321
sg224
g154
sg225
Nsg226
(lp1322
I16
aI5
asg228
Nsg229
g1320
sg230
(lp1323
sg232
g56
sg233
Nsg234
Nsg235
Nsbag3
(g4
g5
NtRp1324
(dp1325
g8
g10
sg213
Nsg214
(dp1326
sg216
Nsg26
g28
sg217
(lp1327
I16
aI6
asg219
Nsg220
VMekhilta DeRabbi Shimon Bar Yochai 16:6
p1328
sg222
(lp1329
sg224
g154
sg225
Nsg226
(lp1330
I16
aI6
asg228
Nsg229
g1328
sg230
(lp1331
sg232
g56
sg233
Nsg234
Nsg235
Nsbag3
(g4
g5
NtRp1332
(dp1333
g8
g10
sg213
Nsg214
(dp1334
sg216
Nsg26
g28
sg217
(lp1335
I16
aI7
asg219
Nsg220
VMekhilta DeRabbi Shimon Bar Yochai 16:7
p1336
sg222
(lp1337
sg224
g154
sg225
Nsg226
(lp1338
I16
aI7
asg228
Nsg229
g1336
sg230
(lp1339
sg232
g56
sg233
Nsg234
Nsg235
Nsbag3
(g4
g5
NtRp1340
(dp1341
g8
g10
sg213
Nsg214
(dp1342
sg216
Nsg26
g28
sg217
(lp1343
I16
aI8
asg219
Nsg220
VMekhilta DeRabbi Shimon Bar Yochai 16:8
p1344
sg222
(lp1345
sg224
g154
sg225
Nsg226
(lp1346
I16
aI8
asg228
Nsg229
g1344
sg230
(lp1347
sg232
g56
sg233
Nsg234
Nsg235
Nsbag3
(g4
g5
NtRp1348
(dp1349
g8
g10
sg213
Nsg214
(dp1350
sg216
Nsg26
g28
sg217
(lp1351
I16
aI9
asg219
Nsg220
VMekhilta DeRabbi Shimon Bar Yochai 16:9
p1352
sg222
(lp1353
sg224
g154
sg225
Nsg226
(lp1354
I16
aI9
asg228
Nsg229
g1352
sg230
(lp1355
sg232
g56
sg233
Nsg234
Nsg235
Nsbag3
(g4
g5
NtRp1356
(dp1357
g8
g10
sg213
Nsg214
(dp1358
sg216
Nsg26
g28
sg217
(lp1359
I16
aI10
asg219
Nsg220
VMekhilta DeRabbi Shimon Bar Yochai 16:10
p1360
sg222
(lp1361
sg224
g154
sg225
Nsg226
(lp1362
I16
aI10
asg228
Nsg229
g1360
sg230
(lp1363
sg232
g56
sg233
Nsg234
Nsg235
Nsbag3
(g4
g5
NtRp1364
(dp1365
g8
g10
sg213
Nsg214
(dp1366
sg216
Nsg26
g28
sg217
(lp1367
I16
aI11
asg219
Nsg220
VMekhilta DeRabbi Shimon Bar Yochai 16:11
p1368
sg222
(lp1369
sg224
g154
sg225
Nsg226
(lp1370
I16
aI11
asg228
Nsg229
g1368
sg230
(lp1371
sg232
g56
sg233
Nsg234
Nsg235
Nsbag3
(g4
g5
NtRp1372
(dp1373
g8
g10
sg213
Nsg214
(dp1374
sg216
Nsg26
g28
sg217
(lp1375
I16
aI12
asg219
Nsg220
VMekhilta DeRabbi Shimon Bar Yochai 16:12
p1376
sg222
(lp1377
sg224
g154
sg225
Nsg226
(lp1378
I16
aI12
asg228
Nsg229
g1376
sg230
(lp1379
sg232
g56
sg233
Nsg234
Nsg235
Nsbag3
(g4
g5
NtRp1380
(dp1381
g8
g10
sg213
Nsg214
(dp1382
sg216
Nsg26
g28
sg217
(lp1383
I16
aI13
asg219
Nsg220
VMekhilta DeRabbi Shimon Bar Yochai 16:13
p1384
sg222
(lp1385
sg224
g154
sg225
Nsg226
(lp1386
I16
aI13
asg228
Nsg229
g1384
sg230
(lp1387
sg232
g56
sg233
Nsg234
Nsg235
Nsbag3
(g4
g5
NtRp1388
(dp1389
g8
g10
sg213
Nsg214
(dp1390
sg216
Nsg26
g28
sg217
(lp1391
I16
aI14
asg219
Nsg220
VMekhilta DeRabbi Shimon Bar Yochai 16:14
p1392
sg222
(lp1393
sg224
g154
sg225
Nsg226
(lp1394
I16
aI14
asg228
Nsg229
g1392
sg230
(lp1395
sg232
g56
sg233
Nsg234
Nsg235
Nsbag3
(g4
g5
NtRp1396
(dp1397
g8
g10
sg213
Nsg214
(dp1398
sg216
Nsg26
g28
sg217
(lp1399
I16
aI15
asg219
Nsg220
VMekhilta DeRabbi Shimon Bar Yochai 16:15
p1400
sg222
(lp1401
sg224
g154
sg225
Nsg226
(lp1402
I16
aI15
asg228
Nsg229
g1400
sg230
(lp1403
sg232
g56
sg233
Nsg234
Nsg235
Nsbag3
(g4
g5
NtRp1404
(dp1405
g8
g10
sg213
Nsg214
(dp1406
sg216
Nsg26
g28
sg217
(lp1407
I16
aI16
asg219
Nsg220
VMekhilta DeRabbi Shimon Bar Yochai 16:16
p1408
sg222
(lp1409
sg224
g154
sg225
Nsg226
(lp1410
I16
aI16
asg228
Nsg229
g1408
sg230
(lp1411
sg232
g56
sg233
Nsg234
Nsg235
Nsbag3
(g4
g5
NtRp1412
(dp1413
g8
g10
sg213
Nsg214
(dp1414
sg216
Nsg26
g28
sg217
(lp1415
I16
aI17
asg219
Nsg220
VMekhilta DeRabbi Shimon Bar Yochai 16:17
p1416
sg222
(lp1417
sg224
g154
sg225
Nsg226
(lp1418
I16
aI17
asg228
Nsg229
g1416
sg230
(lp1419
sg232
g56
sg233
Nsg234
Nsg235
Nsbag3
(g4
g5
NtRp1420
(dp1421
g8
g10
sg213
Nsg214
(dp1422
sg216
Nsg26
g28
sg217
(lp1423
I16
aI18
asg219
Nsg220
VMekhilta DeRabbi Shimon Bar Yochai 16:18
p1424
sg222
(lp1425
sg224
g154
sg225
Nsg226
(lp1426
I16
aI18
asg228
Nsg229
g1424
sg230
(lp1427
sg232
g56
sg233
Nsg234
Nsg235
Nsbag3
(g4
g5
NtRp1428
(dp1429
g8
g10
sg213
Nsg214
(dp1430
sg216
Nsg26
g28
sg217
(lp1431
I16
aI19
asg219
Nsg220
VMekhilta DeRabbi Shimon Bar Yochai 16:19
p1432
sg222
(lp1433
sg224
g154
sg225
Nsg226
(lp1434
I16
aI19
asg228
Nsg229
g1432
sg230
(lp1435
sg232
g56
sg233
Nsg234
Nsg235
Nsbag3
(g4
g5
NtRp1436
(dp1437
g8
g10
sg213
Nsg214
(dp1438
sg216
Nsg26
g28
sg217
(lp1439
I16
aI20
asg219
Nsg220
VMekhilta DeRabbi Shimon Bar Yochai 16:20
p1440
sg222
(lp1441
sg224
g154
sg225
Nsg226
(lp1442
I16
aI20
asg228
Nsg229
g1440
sg230
(lp1443
sg232
g56
sg233
Nsg234
Nsg235
Nsbag3
(g4
g5
NtRp1444
(dp1445
g8
g10
sg213
Nsg214
(dp1446
sg216
Nsg26
g28
sg217
(lp1447
I16
aI21
asg219
Nsg220
VMekhilta DeRabbi Shimon Bar Yochai 16:21
p1448
sg222
(lp1449
sg224
g154
sg225
Nsg226
(lp1450
I16
aI21
asg228
Nsg229
g1448
sg230
(lp1451
sg232
g56
sg233
Nsg234
Nsg235
Nsbag3
(g4
g5
NtRp1452
(dp1453
g8
g10
sg213
Nsg214
(dp1454
sg216
Nsg26
g28
sg217
(lp1455
I16
aI22
asg219
Nsg220
VMekhilta DeRabbi Shimon Bar Yochai 16:22
p1456
sg222
(lp1457
sg224
g154
sg225
Nsg226
(lp1458
I16
aI22
asg228
Nsg229
g1456
sg230
(lp1459
sg232
g56
sg233
Nsg234
Nsg235
Nsbag3
(g4
g5
NtRp1460
(dp1461
g8
g10
sg213
Nsg214
(dp1462
sg216
Nsg26
g28
sg217
(lp1463
I16
aI23
asg219
Nsg220
VMekhilta DeRabbi Shimon Bar Yochai 16:23
p1464
sg222
(lp1465
sg224
g154
sg225
Nsg226
(lp1466
I16
aI23
asg228
Nsg229
g1464
sg230
(lp1467
sg232
g56
sg233
Nsg234
Nsg235
Nsbag3
(g4
g5
NtRp1468
(dp1469
g8
g10
sg213
Nsg214
(dp1470
sg216
Nsg26
g28
sg217
(lp1471
I16
aI24
asg219
Nsg220
VMekhilta DeRabbi Shimon Bar Yochai 16:24
p1472
sg222
(lp1473
sg224
g154
sg225
Nsg226
(lp1474
I16
aI24
asg228
Nsg229
g1472
sg230
(lp1475
sg232
g56
sg233
Nsg234
Nsg235
Nsbag3
(g4
g5
NtRp1476
(dp1477
g8
g10
sg213
Nsg214
(dp1478
sg216
Nsg26
g28
sg217
(lp1479
I16
aI25
asg219
Nsg220
VMekhilta DeRabbi Shimon Bar Yochai 16:25
p1480
sg222
(lp1481
sg224
g154
sg225
Nsg226
(lp1482
I16
aI25
asg228
Nsg229
g1480
sg230
(lp1483
sg232
g56
sg233
Nsg234
Nsg235
Nsbag3
(g4
g5
NtRp1484
(dp1485
g8
g10
sg213
Nsg214
(dp1486
sg216
Nsg26
g28
sg217
(lp1487
I16
aI26
asg219
Nsg220
VMekhilta DeRabbi Shimon Bar Yochai 16:26
p1488
sg222
(lp1489
sg224
g154
sg225
Nsg226
(lp1490
I16
aI26
asg228
Nsg229
g1488
sg230
(lp1491
sg232
g56
sg233
Nsg234
Nsg235
Nsbag3
(g4
g5
NtRp1492
(dp1493
g8
g10
sg213
Nsg214
(dp1494
sg216
Nsg26
g28
sg217
(lp1495
I16
aI27
asg219
Nsg220
VMekhilta DeRabbi Shimon Bar Yochai 16:27
p1496
sg222
(lp1497
sg224
g154
sg225
Nsg226
(lp1498
I16
aI27
asg228
Nsg229
g1496
sg230
(lp1499
sg232
g56
sg233
Nsg234
Nsg235
Nsbag3
(g4
g5
NtRp1500
(dp1501
g8
g10
sg213
Nsg214
(dp1502
sg216
Nsg26
g28
sg217
(lp1503
I16
aI28
asg219
Nsg220
VMekhilta DeRabbi Shimon Bar Yochai 16:28
p1504
sg222
(lp1505
sg224
g154
sg225
Nsg226
(lp1506
I16
aI28
asg228
Nsg229
g1504
sg230
(lp1507
sg232
g56
sg233
Nsg234
Nsg235
Nsbag3
(g4
g5
NtRp1508
(dp1509
g8
g10
sg213
Nsg214
(dp1510
sg216
Nsg26
g28
sg217
(lp1511
I16
aI29
asg219
Nsg220
VMekhilta DeRabbi Shimon Bar Yochai 16:29
p1512
sg222
(lp1513
sg224
g154
sg225
Nsg226
(lp1514
I16
aI29
asg228
Nsg229
g1512
sg230
(lp1515
sg232
g56
sg233
Nsg234
Nsg235
Nsbag3
(g4
g5
NtRp1516
(dp1517
g8
g10
sg213
Nsg214
(dp1518
sg216
Nsg26
g28
sg217
(lp1519
I16
aI30
asg219
Nsg220
VMekhilta DeRabbi Shimon Bar Yochai 16:30
p1520
sg222
(lp1521
sg224
g154
sg225
Nsg226
(lp1522
I16
aI30
asg228
Nsg229
g1520
sg230
(lp1523
sg232
g56
sg233
Nsg234
Nsg235
Nsbag3
(g4
g5
NtRp1524
(dp1525
g8
g10
sg213
Nsg214
(dp1526
sg216
Nsg26
g28
sg217
(lp1527
I16
aI31
asg219
Nsg220
VMekhilta DeRabbi Shimon Bar Yochai 16:31
p1528
sg222
(lp1529
sg224
g154
sg225
Nsg226
(lp1530
I16
aI31
asg228
Nsg229
g1528
sg230
(lp1531
sg232
g56
sg233
Nsg234
Nsg235
Nsbag3
(g4
g5
NtRp1532
(dp1533
g8
g10
sg213
Nsg214
(dp1534
sg216
Nsg26
g28
sg217
(lp1535
I16
aI32
asg219
Nsg220
VMekhilta DeRabbi Shimon Bar Yochai 16:32
p1536
sg222
(lp1537
sg224
g154
sg225
Nsg226
(lp1538
I16
aI32
asg228
Nsg229
g1536
sg230
(lp1539
sg232
g56
sg233
Nsg234
Nsg235
Nsbag3
(g4
g5
NtRp1540
(dp1541
g8
g10
sg213
Nsg214
(dp1542
sg216
Nsg26
g28
sg217
(lp1543
I16
aI33
asg219
Nsg220
VMekhilta DeRabbi Shimon Bar Yochai 16:33
p1544
sg222
(lp1545
sg224
g154
sg225
Nsg226
(lp1546
I16
aI33
asg228
Nsg229
g1544
sg230
(lp1547
sg232
g56
sg233
Nsg234
Nsg235
Nsbag3
(g4
g5
NtRp1548
(dp1549
g8
g10
sg213
Nsg214
(dp1550
sg216
Nsg26
g28
sg217
(lp1551
I17
aI1
asg219
Nsg220
VMekhilta DeRabbi Shimon Bar Yochai 17:1
p1552
sg222
(lp1553
sg224
g154
sg225
Nsg226
(lp1554
I17
aI1
asg228
Nsg229
g1552
sg230
(lp1555
sg232
g56
sg233
Nsg234
Nsg235
Nsbag3
(g4
g5
NtRp1556
(dp1557
g8
g10
sg213
Nsg214
(dp1558
sg216
Nsg26
g28
sg217
(lp1559
I17
aI2
asg219
Nsg220
VMekhilta DeRabbi Shimon Bar Yochai 17:2
p1560
sg222
(lp1561
sg224
g154
sg225
Nsg226
(lp1562
I17
aI2
asg228
Nsg229
g1560
sg230
(lp1563
sg232
g56
sg233
Nsg234
Nsg235
Nsbag3
(g4
g5
NtRp1564
(dp1565
g8
g10
sg213
Nsg214
(dp1566
sg216
Nsg26
g28
sg217
(lp1567
I17
aI3
asg219
Nsg220
VMekhilta DeRabbi Shimon Bar Yochai 17:3
p1568
sg222
(lp1569
sg224
g154
sg225
Nsg226
(lp1570
I17
aI3
asg228
Nsg229
g1568
sg230
(lp1571
sg232
g56
sg233
Nsg234
Nsg235
Nsbag3
(g4
g5
NtRp1572
(dp1573
g8
g10
sg213
Nsg214
(dp1574
sg216
Nsg26
g28
sg217
(lp1575
I17
aI4
asg219
Nsg220
VMekhilta DeRabbi Shimon Bar Yochai 17:4
p1576
sg222
(lp1577
sg224
g154
sg225
Nsg226
(lp1578
I17
aI4
asg228
Nsg229
g1576
sg230
(lp1579
sg232
g56
sg233
Nsg234
Nsg235
Nsbag3
(g4
g5
NtRp1580
(dp1581
g8
g10
sg213
Nsg214
(dp1582
sg216
Nsg26
g28
sg217
(lp1583
I17
aI5
asg219
Nsg220
VMekhilta DeRabbi Shimon Bar Yochai 17:5
p1584
sg222
(lp1585
sg224
g154
sg225
Nsg226
(lp1586
I17
aI5
asg228
Nsg229
g1584
sg230
(lp1587
sg232
g56
sg233
Nsg234
Nsg235
Nsbag3
(g4
g5
NtRp1588
(dp1589
g8
g10
sg213
Nsg214
(dp1590
sg216
Nsg26
g28
sg217
(lp1591
I17
aI6
asg219
Nsg220
VMekhilta DeRabbi Shimon Bar Yochai 17:6
p1592
sg222
(lp1593
sg224
g154
sg225
Nsg226
(lp1594
I17
aI6
asg228
Nsg229
g1592
sg230
(lp1595
sg232
g56
sg233
Nsg234
Nsg235
Nsbag3
(g4
g5
NtRp1596
(dp1597
g8
g10
sg213
Nsg214
(dp1598
sg216
Nsg26
g28
sg217
(lp1599
I17
aI7
asg219
Nsg220
VMekhilta DeRabbi Shimon Bar Yochai 17:7
p1600
sg222
(lp1601
sg224
g154
sg225
Nsg226
(lp1602
I17
aI7
asg228
Nsg229
g1600
sg230
(lp1603
sg232
g56
sg233
Nsg234
Nsg235
Nsbag3
(g4
g5
NtRp1604
(dp1605
g8
g10
sg213
Nsg214
(dp1606
sg216
Nsg26
g28
sg217
(lp1607
I17
aI8
asg219
Nsg220
VMekhilta DeRabbi Shimon Bar Yochai 17:8
p1608
sg222
(lp1609
sg224
g154
sg225
Nsg226
(lp1610
I17
aI8
asg228
Nsg229
g1608
sg230
(lp1611
sg232
g56
sg233
Nsg234
Nsg235
Nsbag3
(g4
g5
NtRp1612
(dp1613
g8
g10
sg213
Nsg214
(dp1614
sg216
Nsg26
g28
sg217
(lp1615
I17
aI9
asg219
Nsg220
VMekhilta DeRabbi Shimon Bar Yochai 17:9
p1616
sg222
(lp1617
sg224
g154
sg225
Nsg226
(lp1618
I17
aI9
asg228
Nsg229
g1616
sg230
(lp1619
sg232
g56
sg233
Nsg234
Nsg235
Nsbag3
(g4
g5
NtRp1620
(dp1621
g8
g10
sg213
Nsg214
(dp1622
sg216
Nsg26
g28
sg217
(lp1623
I17
aI10
asg219
Nsg220
VMekhilta DeRabbi Shimon Bar Yochai 17:10
p1624
sg222
(lp1625
sg224
g154
sg225
Nsg226
(lp1626
I17
aI10
asg228
Nsg229
g1624
sg230
(lp1627
sg232
g56
sg233
Nsg234
Nsg235
Nsbag3
(g4
g5
NtRp1628
(dp1629
g8
g10
sg213
Nsg214
(dp1630
sg216
Nsg26
g28
sg217
(lp1631
I17
aI11
asg219
Nsg220
VMekhilta DeRabbi Shimon Bar Yochai 17:11
p1632
sg222
(lp1633
sg224
g154
sg225
Nsg226
(lp1634
I17
aI11
asg228
Nsg229
g1632
sg230
(lp1635
sg232
g56
sg233
Nsg234
Nsg235
Nsbag3
(g4
g5
NtRp1636
(dp1637
g8
g10
sg213
Nsg214
(dp1638
sg216
Nsg26
g28
sg217
(lp1639
I17
aI12
asg219
Nsg220
VMekhilta DeRabbi Shimon Bar Yochai 17:12
p1640
sg222
(lp1641
sg224
g154
sg225
Nsg226
(lp1642
I17
aI12
asg228
Nsg229
g1640
sg230
(lp1643
sg232
g56
sg233
Nsg234
Nsg235
Nsbag3
(g4
g5
NtRp1644
(dp1645
g8
g10
sg213
Nsg214
(dp1646
sg216
Nsg26
g28
sg217
(lp1647
I17
aI13
asg219
Nsg220
VMekhilta DeRabbi Shimon Bar Yochai 17:13
p1648
sg222
(lp1649
sg224
g154
sg225
Nsg226
(lp1650
I17
aI13
asg228
Nsg229
g1648
sg230
(lp1651
sg232
g56
sg233
Nsg234
Nsg235
Nsbag3
(g4
g5
NtRp1652
(dp1653
g8
g10
sg213
Nsg214
(dp1654
sg216
Nsg26
g28
sg217
(lp1655
I17
aI14
asg219
Nsg220
VMekhilta DeRabbi Shimon Bar Yochai 17:14
p1656
sg222
(lp1657
sg224
g154
sg225
Nsg226
(lp1658
I17
aI14
asg228
Nsg229
g1656
sg230
(lp1659
sg232
g56
sg233
Nsg234
Nsg235
Nsbag3
(g4
g5
NtRp1660
(dp1661
g8
g10
sg213
Nsg214
(dp1662
sg216
Nsg26
g28
sg217
(lp1663
I17
aI15
asg219
Nsg220
VMekhilta DeRabbi Shimon Bar Yochai 17:15
p1664
sg222
(lp1665
sg224
g154
sg225
Nsg226
(lp1666
I17
aI15
asg228
Nsg229
g1664
sg230
(lp1667
sg232
g56
sg233
Nsg234
Nsg235
Nsbag3
(g4
g5
NtRp1668
(dp1669
g8
g10
sg213
Nsg214
(dp1670
sg216
Nsg26
g28
sg217
(lp1671
I17
aI16
asg219
Nsg220
VMekhilta DeRabbi Shimon Bar Yochai 17:16
p1672
sg222
(lp1673
sg224
g154
sg225
Nsg226
(lp1674
I17
aI16
asg228
Nsg229
g1672
sg230
(lp1675
sg232
g56
sg233
Nsg234
Nsg235
Nsbag3
(g4
g5
NtRp1676
(dp1677
g8
g10
sg213
Nsg214
(dp1678
sg216
Nsg26
g28
sg217
(lp1679
I18
aI1
asg219
Nsg220
VMekhilta DeRabbi Shimon Bar Yochai 18:1
p1680
sg222
(lp1681
sg224
g154
sg225
Nsg226
(lp1682
I18
aI1
asg228
Nsg229
g1680
sg230
(lp1683
sg232
g56
sg233
Nsg234
Nsg235
Nsbag3
(g4
g5
NtRp1684
(dp1685
g8
g10
sg213
Nsg214
(dp1686
sg216
Nsg26
g28
sg217
(lp1687
I18
aI2
asg219
Nsg220
VMekhilta DeRabbi Shimon Bar Yochai 18:2
p1688
sg222
(lp1689
sg224
g154
sg225
Nsg226
(lp1690
I18
aI2
asg228
Nsg229
g1688
sg230
(lp1691
sg232
g56
sg233
Nsg234
Nsg235
Nsbag3
(g4
g5
NtRp1692
(dp1693
g8
g10
sg213
Nsg214
(dp1694
sg216
Nsg26
g28
sg217
(lp1695
I18
aI3
asg219
Nsg220
VMekhilta DeRabbi Shimon Bar Yochai 18:3
p1696
sg222
(lp1697
sg224
g154
sg225
Nsg226
(lp1698
I18
aI3
asg228
Nsg229
g1696
sg230
(lp1699
sg232
g56
sg233
Nsg234
Nsg235
Nsbag3
(g4
g5
NtRp1700
(dp1701
g8
g10
sg213
Nsg214
(dp1702
sg216
Nsg26
g28
sg217
(lp1703
I18
aI4
asg219
Nsg220
VMekhilta DeRabbi Shimon Bar Yochai 18:4
p1704
sg222
(lp1705
sg224
g154
sg225
Nsg226
(lp1706
I18
aI4
asg228
Nsg229
g1704
sg230
(lp1707
sg232
g56
sg233
Nsg234
Nsg235
Nsbag3
(g4
g5
NtRp1708
(dp1709
g8
g10
sg213
Nsg214
(dp1710
sg216
Nsg26
g28
sg217
(lp1711
I18
aI5
asg219
Nsg220
VMekhilta DeRabbi Shimon Bar Yochai 18:5
p1712
sg222
(lp1713
sg224
g154
sg225
Nsg226
(lp1714
I18
aI5
asg228
Nsg229
g1712
sg230
(lp1715
sg232
g56
sg233
Nsg234
Nsg235
Nsbag3
(g4
g5
NtRp1716
(dp1717
g8
g10
sg213
Nsg214
(dp1718
sg216
Nsg26
g28
sg217
(lp1719
I18
aI6
asg219
Nsg220
VMekhilta DeRabbi Shimon Bar Yochai 18:6
p1720
sg222
(lp1721
sg224
g154
sg225
Nsg226
(lp1722
I18
aI6
asg228
Nsg229
g1720
sg230
(lp1723
sg232
g56
sg233
Nsg234
Nsg235
Nsbag3
(g4
g5
NtRp1724
(dp1725
g8
g10
sg213
Nsg214
(dp1726
sg216
Nsg26
g28
sg217
(lp1727
I18
aI7
asg219
Nsg220
VMekhilta DeRabbi Shimon Bar Yochai 18:7
p1728
sg222
(lp1729
sg224
g154
sg225
Nsg226
(lp1730
I18
aI7
asg228
Nsg229
g1728
sg230
(lp1731
sg232
g56
sg233
Nsg234
Nsg235
Nsbag3
(g4
g5
NtRp1732
(dp1733
g8
g10
sg213
Nsg214
(dp1734
sg216
Nsg26
g28
sg217
(lp1735
I18
aI8
asg219
Nsg220
VMekhilta DeRabbi Shimon Bar Yochai 18:8
p1736
sg222
(lp1737
sg224
g154
sg225
Nsg226
(lp1738
I18
aI8
asg228
Nsg229
g1736
sg230
(lp1739
sg232
g56
sg233
Nsg234
Nsg235
Nsbag3
(g4
g5
NtRp1740
(dp1741
g8
g10
sg213
Nsg214
(dp1742
sg216
Nsg26
g28
sg217
(lp1743
I18
aI9
asg219
Nsg220
VMekhilta DeRabbi Shimon Bar Yochai 18:9
p1744
sg222
(lp1745
sg224
g154
sg225
Nsg226
(lp1746
I18
aI9
asg228
Nsg229
g1744
sg230
(lp1747
sg232
g56
sg233
Nsg234
Nsg235
Nsbag3
(g4
g5
NtRp1748
(dp1749
g8
g10
sg213
Nsg214
(dp1750
sg216
Nsg26
g28
sg217
(lp1751
I18
aI10
asg219
Nsg220
VMekhilta DeRabbi Shimon Bar Yochai 18:10
p1752
sg222
(lp1753
sg224
g154
sg225
Nsg226
(lp1754
I18
aI10
asg228
Nsg229
g1752
sg230
(lp1755
sg232
g56
sg233
Nsg234
Nsg235
Nsbag3
(g4
g5
NtRp1756
(dp1757
g8
g10
sg213
Nsg214
(dp1758
sg216
Nsg26
g28
sg217
(lp1759
I18
aI11
asg219
Nsg220
VMekhilta DeRabbi Shimon Bar Yochai 18:11
p1760
sg222
(lp1761
sg224
g154
sg225
Nsg226
(lp1762
I18
aI11
asg228
Nsg229
g1760
sg230
(lp1763
sg232
g56
sg233
Nsg234
Nsg235
Nsbag3
(g4
g5
NtRp1764
(dp1765
g8
g10
sg213
Nsg214
(dp1766
sg216
Nsg26
g28
sg217
(lp1767
I18
aI12
asg219
Nsg220
VMekhilta DeRabbi Shimon Bar Yochai 18:12
p1768
sg222
(lp1769
sg224
g154
sg225
Nsg226
(lp1770
I18
aI12
asg228
Nsg229
g1768
sg230
(lp1771
sg232
g56
sg233
Nsg234
Nsg235
Nsbag3
(g4
g5
NtRp1772
(dp1773
g8
g10
sg213
Nsg214
(dp1774
sg216
Nsg26
g28
sg217
(lp1775
I18
aI13
asg219
Nsg220
VMekhilta DeRabbi Shimon Bar Yochai 18:13
p1776
sg222
(lp1777
sg224
g154
sg225
Nsg226
(lp1778
I18
aI13
asg228
Nsg229
g1776
sg230
(lp1779
sg232
g56
sg233
Nsg234
Nsg235
Nsbag3
(g4
g5
NtRp1780
(dp1781
g8
g10
sg213
Nsg214
(dp1782
sg216
Nsg26
g28
sg217
(lp1783
I18
aI14
asg219
Nsg220
VMekhilta DeRabbi Shimon Bar Yochai 18:14
p1784
sg222
(lp1785
sg224
g154
sg225
Nsg226
(lp1786
I18
aI14
asg228
Nsg229
g1784
sg230
(lp1787
sg232
g56
sg233
Nsg234
Nsg235
Nsbag3
(g4
g5
NtRp1788
(dp1789
g8
g10
sg213
Nsg214
(dp1790
sg216
Nsg26
g28
sg217
(lp1791
I18
aI15
asg219
Nsg220
VMekhilta DeRabbi Shimon Bar Yochai 18:15
p1792
sg222
(lp1793
sg224
g154
sg225
Nsg226
(lp1794
I18
aI15
asg228
Nsg229
g1792
sg230
(lp1795
sg232
g56
sg233
Nsg234
Nsg235
Nsbag3
(g4
g5
NtRp1796
(dp1797
g8
g10
sg213
Nsg214
(dp1798
sg216
Nsg26
g28
sg217
(lp1799
I18
aI16
asg219
Nsg220
VMekhilta DeRabbi Shimon Bar Yochai 18:16
p1800
sg222
(lp1801
sg224
g154
sg225
Nsg226
(lp1802
I18
aI16
asg228
Nsg229
g1800
sg230
(lp1803
sg232
g56
sg233
Nsg234
Nsg235
Nsbag3
(g4
g5
NtRp1804
(dp1805
g8
g10
sg213
Nsg214
(dp1806
sg216
Nsg26
g28
sg217
(lp1807
I18
aI17
asg219
Nsg220
VMekhilta DeRabbi Shimon Bar Yochai 18:17
p1808
sg222
(lp1809
sg224
g154
sg225
Nsg226
(lp1810
I18
aI17
asg228
Nsg229
g1808
sg230
(lp1811
sg232
g56
sg233
Nsg234
Nsg235
Nsbag3
(g4
g5
NtRp1812
(dp1813
g8
g10
sg213
Nsg214
(dp1814
sg216
Nsg26
g28
sg217
(lp1815
I18
aI18
asg219
Nsg220
VMekhilta DeRabbi Shimon Bar Yochai 18:18
p1816
sg222
(lp1817
sg224
g154
sg225
Nsg226
(lp1818
I18
aI18
asg228
Nsg229
g1816
sg230
(lp1819
sg232
g56
sg233
Nsg234
Nsg235
Nsbag3
(g4
g5
NtRp1820
(dp1821
g8
g10
sg213
Nsg214
(dp1822
sg216
Nsg26
g28
sg217
(lp1823
I18
aI19
asg219
Nsg220
VMekhilta DeRabbi Shimon Bar Yochai 18:19
p1824
sg222
(lp1825
sg224
g154
sg225
Nsg226
(lp1826
I18
aI19
asg228
Nsg229
g1824
sg230
(lp1827
sg232
g56
sg233
Nsg234
Nsg235
Nsbag3
(g4
g5
NtRp1828
(dp1829
g8
g10
sg213
Nsg214
(dp1830
sg216
Nsg26
g28
sg217
(lp1831
I18
aI20
asg219
Nsg220
VMekhilta DeRabbi Shimon Bar Yochai 18:20
p1832
sg222
(lp1833
sg224
g154
sg225
Nsg226
(lp1834
I18
aI20
asg228
Nsg229
g1832
sg230
(lp1835
sg232
g56
sg233
Nsg234
Nsg235
Nsbag3
(g4
g5
NtRp1836
(dp1837
g8
g10
sg213
Nsg214
(dp1838
sg216
Nsg26
g28
sg217
(lp1839
I18
aI21
asg219
Nsg220
VMekhilta DeRabbi Shimon Bar Yochai 18:21
p1840
sg222
(lp1841
sg224
g154
sg225
Nsg226
(lp1842
I18
aI21
asg228
Nsg229
g1840
sg230
(lp1843
sg232
g56
sg233
Nsg234
Nsg235
Nsbag3
(g4
g5
NtRp1844
(dp1845
g8
g10
sg213
Nsg214
(dp1846
sg216
Nsg26
g28
sg217
(lp1847
I18
aI22
asg219
Nsg220
VMekhilta DeRabbi Shimon Bar Yochai 18:22
p1848
sg222
(lp1849
sg224
g154
sg225
Nsg226
(lp1850
I18
aI22
asg228
Nsg229
g1848
sg230
(lp1851
sg232
g56
sg233
Nsg234
Nsg235
Nsbag3
(g4
g5
NtRp1852
(dp1853
g8
g10
sg213
Nsg214
(dp1854
sg216
Nsg26
g28
sg217
(lp1855
I18
aI23
asg219
Nsg220
VMekhilta DeRabbi Shimon Bar Yochai 18:23
p1856
sg222
(lp1857
sg224
g154
sg225
Nsg226
(lp1858
I18
aI23
asg228
Nsg229
g1856
sg230
(lp1859
sg232
g56
sg233
Nsg234
Nsg235
Nsbag3
(g4
g5
NtRp1860
(dp1861
g8
g10
sg213
Nsg214
(dp1862
sg216
Nsg26
g28
sg217
(lp1863
I18
aI24
asg219
Nsg220
VMekhilta DeRabbi Shimon Bar Yochai 18:24
p1864
sg222
(lp1865
sg224
g154
sg225
Nsg226
(lp1866
I18
aI24
asg228
Nsg229
g1864
sg230
(lp1867
sg232
g56
sg233
Nsg234
Nsg235
Nsbag3
(g4
g5
NtRp1868
(dp1869
g8
g10
sg213
Nsg214
(dp1870
sg216
Nsg26
g28
sg217
(lp1871
I18
aI25
asg219
Nsg220
VMekhilta DeRabbi Shimon Bar Yochai 18:25
p1872
sg222
(lp1873
sg224
g154
sg225
Nsg226
(lp1874
I18
aI25
asg228
Nsg229
g1872
sg230
(lp1875
sg232
g56
sg233
Nsg234
Nsg235
Nsbag3
(g4
g5
NtRp1876
(dp1877
g8
g10
sg213
Nsg214
(dp1878
sg216
Nsg26
g28
sg217
(lp1879
I18
aI26
asg219
Nsg220
VMekhilta DeRabbi Shimon Bar Yochai 18:26
p1880
sg222
(lp1881
sg224
g154
sg225
Nsg226
(lp1882
I18
aI26
asg228
Nsg229
g1880
sg230
(lp1883
sg232
g56
sg233
Nsg234
Nsg235
Nsbag3
(g4
g5
NtRp1884
(dp1885
g8
g10
sg213
Nsg214
(dp1886
sg216
Nsg26
g28
sg217
(lp1887
I19
aI1
asg219
Nsg220
VMekhilta DeRabbi Shimon Bar Yochai 19:1
p1888
sg222
(lp1889
sg224
g154
sg225
Nsg226
(lp1890
I19
aI1
asg228
Nsg229
g1888
sg230
(lp1891
sg232
g56
sg233
Nsg234
Nsg235
Nsbag3
(g4
g5
NtRp1892
(dp1893
g8
g10
sg213
Nsg214
(dp1894
sg216
Nsg26
g28
sg217
(lp1895
I19
aI2
asg219
Nsg220
VMekhilta DeRabbi Shimon Bar Yochai 19:2
p1896
sg222
(lp1897
sg224
g154
sg225
Nsg226
(lp1898
I19
aI2
asg228
Nsg229
g1896
sg230
(lp1899
sg232
g56
sg233
Nsg234
Nsg235
Nsbag3
(g4
g5
NtRp1900
(dp1901
g8
g10
sg213
Nsg214
(dp1902
sg216
Nsg26
g28
sg217
(lp1903
I19
aI3
asg219
Nsg220
VMekhilta DeRabbi Shimon Bar Yochai 19:3
p1904
sg222
(lp1905
sg224
g154
sg225
Nsg226
(lp1906
I19
aI3
asg228
Nsg229
g1904
sg230
(lp1907
sg232
g56
sg233
Nsg234
Nsg235
Nsbag3
(g4
g5
NtRp1908
(dp1909
g8
g10
sg213
Nsg214
(dp1910
sg216
Nsg26
g28
sg217
(lp1911
I19
aI4
asg219
Nsg220
VMekhilta DeRabbi Shimon Bar Yochai 19:4
p1912
sg222
(lp1913
sg224
g154
sg225
Nsg226
(lp1914
I19
aI4
asg228
Nsg229
g1912
sg230
(lp1915
sg232
g56
sg233
Nsg234
Nsg235
Nsbag3
(g4
g5
NtRp1916
(dp1917
g8
g10
sg213
Nsg214
(dp1918
sg216
Nsg26
g28
sg217
(lp1919
I19
aI5
asg219
Nsg220
VMekhilta DeRabbi Shimon Bar Yochai 19:5
p1920
sg222
(lp1921
sg224
g154
sg225
Nsg226
(lp1922
I19
aI5
asg228
Nsg229
g1920
sg230
(lp1923
sg232
g56
sg233
Nsg234
Nsg235
Nsbag3
(g4
g5
NtRp1924
(dp1925
g8
g10
sg213
Nsg214
(dp1926
sg216
Nsg26
g28
sg217
(lp1927
I19
aI6
asg219
Nsg220
VMekhilta DeRabbi Shimon Bar Yochai 19:6
p1928
sg222
(lp1929
sg224
g154
sg225
Nsg226
(lp1930
I19
aI6
asg228
Nsg229
g1928
sg230
(lp1931
sg232
g56
sg233
Nsg234
Nsg235
Nsbag3
(g4
g5
NtRp1932
(dp1933
g8
g10
sg213
Nsg214
(dp1934
sg216
Nsg26
g28
sg217
(lp1935
I19
aI7
asg219
Nsg220
VMekhilta DeRabbi Shimon Bar Yochai 19:7
p1936
sg222
(lp1937
sg224
g154
sg225
Nsg226
(lp1938
I19
aI7
asg228
Nsg229
g1936
sg230
(lp1939
sg232
g56
sg233
Nsg234
Nsg235
Nsbag3
(g4
g5
NtRp1940
(dp1941
g8
g10
sg213
Nsg214
(dp1942
sg216
Nsg26
g28
sg217
(lp1943
I19
aI8
asg219
Nsg220
VMekhilta DeRabbi Shimon Bar Yochai 19:8
p1944
sg222
(lp1945
sg224
g154
sg225
Nsg226
(lp1946
I19
aI8
asg228
Nsg229
g1944
sg230
(lp1947
sg232
g56
sg233
Nsg234
Nsg235
Nsbag3
(g4
g5
NtRp1948
(dp1949
g8
g10
sg213
Nsg214
(dp1950
sg216
Nsg26
g28
sg217
(lp1951
I19
aI9
asg219
Nsg220
VMekhilta DeRabbi Shimon Bar Yochai 19:9
p1952
sg222
(lp1953
sg224
g154
sg225
Nsg226
(lp1954
I19
aI9
asg228
Nsg229
g1952
sg230
(lp1955
sg232
g56
sg233
Nsg234
Nsg235
Nsbag3
(g4
g5
NtRp1956
(dp1957
g8
g10
sg213
Nsg214
(dp1958
sg216
Nsg26
g28
sg217
(lp1959
I19
aI10
asg219
Nsg220
VMekhilta DeRabbi Shimon Bar Yochai 19:10
p1960
sg222
(lp1961
sg224
g154
sg225
Nsg226
(lp1962
I19
aI10
asg228
Nsg229
g1960
sg230
(lp1963
sg232
g56
sg233
Nsg234
Nsg235
Nsbag3
(g4
g5
NtRp1964
(dp1965
g8
g10
sg213
Nsg214
(dp1966
sg216
Nsg26
g28
sg217
(lp1967
I19
aI11
asg219
Nsg220
VMekhilta DeRabbi Shimon Bar Yochai 19:11
p1968
sg222
(lp1969
sg224
g154
sg225
Nsg226
(lp1970
I19
aI11
asg228
Nsg229
g1968
sg230
(lp1971
sg232
g56
sg233
Nsg234
Nsg235
Nsbag3
(g4
g5
NtRp1972
(dp1973
g8
g10
sg213
Nsg214
(dp1974
sg216
Nsg26
g28
sg217
(lp1975
I19
aI12
asg219
Nsg220
VMekhilta DeRabbi Shimon Bar Yochai 19:12
p1976
sg222
(lp1977
sg224
g154
sg225
Nsg226
(lp1978
I19
aI12
asg228
Nsg229
g1976
sg230
(lp1979
sg232
g56
sg233
Nsg234
Nsg235
Nsbag3
(g4
g5
NtRp1980
(dp1981
g8
g10
sg213
Nsg214
(dp1982
sg216
Nsg26
g28
sg217
(lp1983
I19
aI13
asg219
Nsg220
VMekhilta DeRabbi Shimon Bar Yochai 19:13
p1984
sg222
(lp1985
sg224
g154
sg225
Nsg226
(lp1986
I19
aI13
asg228
Nsg229
g1984
sg230
(lp1987
sg232
g56
sg233
Nsg234
Nsg235
Nsbag3
(g4
g5
NtRp1988
(dp1989
g8
g10
sg213
Nsg214
(dp1990
sg216
Nsg26
g28
sg217
(lp1991
I19
aI14
asg219
Nsg220
VMekhilta DeRabbi Shimon Bar Yochai 19:14
p1992
sg222
(lp1993
sg224
g154
sg225
Nsg226
(lp1994
I19
aI14
asg228
Nsg229
g1992
sg230
(lp1995
sg232
g56
sg233
Nsg234
Nsg235
Nsbag3
(g4
g5
NtRp1996
(dp1997
g8
g10
sg213
Nsg214
(dp1998
sg216
Nsg26
g28
sg217
(lp1999
I19
aI15
asg219
Nsg220
VMekhilta DeRabbi Shimon Bar Yochai 19:15
p2000
sg222
(lp2001
sg224
g154
sg225
Nsg226
(lp2002
I19
aI15
asg228
Nsg229
g2000
sg230
(lp2003
sg232
g56
sg233
Nsg234
Nsg235
Nsbag3
(g4
g5
NtRp2004
(dp2005
g8
g10
sg213
Nsg214
(dp2006
sg216
Nsg26
g28
sg217
(lp2007
I19
aI16
asg219
Nsg220
VMekhilta DeRabbi Shimon Bar Yochai 19:16
p2008
sg222
(lp2009
sg224
g154
sg225
Nsg226
(lp2010
I19
aI16
asg228
Nsg229
g2008
sg230
(lp2011
sg232
g56
sg233
Nsg234
Nsg235
Nsbag3
(g4
g5
NtRp2012
(dp2013
g8
g10
sg213
Nsg214
(dp2014
sg216
Nsg26
g28
sg217
(lp2015
I19
aI17
asg219
Nsg220
VMekhilta DeRabbi Shimon Bar Yochai 19:17
p2016
sg222
(lp2017
sg224
g154
sg225
Nsg226
(lp2018
I19
aI17
asg228
Nsg229
g2016
sg230
(lp2019
sg232
g56
sg233
Nsg234
Nsg235
Nsbag3
(g4
g5
NtRp2020
(dp2021
g8
g10
sg213
Nsg214
(dp2022
sg216
Nsg26
g28
sg217
(lp2023
I19
aI18
asg219
Nsg220
VMekhilta DeRabbi Shimon Bar Yochai 19:18
p2024
sg222
(lp2025
sg224
g154
sg225
Nsg226
(lp2026
I19
aI18
asg228
Nsg229
g2024
sg230
(lp2027
sg232
g56
sg233
Nsg234
Nsg235
Nsbag3
(g4
g5
NtRp2028
(dp2029
g8
g10
sg213
Nsg214
(dp2030
sg216
Nsg26
g28
sg217
(lp2031
I19
aI19
asg219
Nsg220
VMekhilta DeRabbi Shimon Bar Yochai 19:19
p2032
sg222
(lp2033
sg224
g154
sg225
Nsg226
(lp2034
I19
aI19
asg228
Nsg229
g2032
sg230
(lp2035
sg232
g56
sg233
Nsg234
Nsg235
Nsbag3
(g4
g5
NtRp2036
(dp2037
g8
g10
sg213
Nsg214
(dp2038
sg216
Nsg26
g28
sg217
(lp2039
I19
aI20
asg219
Nsg220
VMekhilta DeRabbi Shimon Bar Yochai 19:20
p2040
sg222
(lp2041
sg224
g154
sg225
Nsg226
(lp2042
I19
aI20
asg228
Nsg229
g2040
sg230
(lp2043
sg232
g56
sg233
Nsg234
Nsg235
Nsbag3
(g4
g5
NtRp2044
(dp2045
g8
g10
sg213
Nsg214
(dp2046
sg216
Nsg26
g28
sg217
(lp2047
I19
aI21
asg219
Nsg220
VMekhilta DeRabbi Shimon Bar Yochai 19:21
p2048
sg222
(lp2049
sg224
g154
sg225
Nsg226
(lp2050
I19
aI21
asg228
Nsg229
g2048
sg230
(lp2051
sg232
g56
sg233
Nsg234
Nsg235
Nsbag3
(g4
g5
NtRp2052
(dp2053
g8
g10
sg213
Nsg214
(dp2054
sg216
Nsg26
g28
sg217
(lp2055
I19
aI22
asg219
Nsg220
VMekhilta DeRabbi Shimon Bar Yochai 19:22
p2056
sg222
(lp2057
sg224
g154
sg225
Nsg226
(lp2058
I19
aI22
asg228
Nsg229
g2056
sg230
(lp2059
sg232
g56
sg233
Nsg234
Nsg235
Nsbag3
(g4
g5
NtRp2060
(dp2061
g8
g10
sg213
Nsg214
(dp2062
sg216
Nsg26
g28
sg217
(lp2063
I19
aI23
asg219
Nsg220
VMekhilta DeRabbi Shimon Bar Yochai 19:23
p2064
sg222
(lp2065
sg224
g154
sg225
Nsg226
(lp2066
I19
aI23
asg228
Nsg229
g2064
sg230
(lp2067
sg232
g56
sg233
Nsg234
Nsg235
Nsbag3
(g4
g5
NtRp2068
(dp2069
g8
g10
sg213
Nsg214
(dp2070
sg216
Nsg26
g28
sg217
(lp2071
I19
aI24
asg219
Nsg220
VMekhilta DeRabbi Shimon Bar Yochai 19:24
p2072
sg222
(lp2073
sg224
g154
sg225
Nsg226
(lp2074
I19
aI24
asg228
Nsg229
g2072
sg230
(lp2075
sg232
g56
sg233
Nsg234
Nsg235
Nsbag3
(g4
g5
NtRp2076
(dp2077
g8
g10
sg213
Nsg214
(dp2078
sg216
Nsg26
g28
sg217
(lp2079
I19
aI25
asg219
Nsg220
VMekhilta DeRabbi Shimon Bar Yochai 19:25
p2080
sg222
(lp2081
sg224
g154
sg225
Nsg226
(lp2082
I19
aI25
asg228
Nsg229
g2080
sg230
(lp2083
sg232
g56
sg233
Nsg234
Nsg235
Nsbag3
(g4
g5
NtRp2084
(dp2085
g8
g10
sg213
Nsg214
(dp2086
sg216
Nsg26
g28
sg217
(lp2087
I20
aI1
asg219
Nsg220
VMekhilta DeRabbi Shimon Bar Yochai 20:1
p2088
sg222
(lp2089
sg224
g154
sg225
Nsg226
(lp2090
I20
aI1
asg228
Nsg229
g2088
sg230
(lp2091
sg232
g56
sg233
Nsg234
Nsg235
Nsbag3
(g4
g5
NtRp2092
(dp2093
g8
g10
sg213
Nsg214
(dp2094
sg216
Nsg26
g28
sg217
(lp2095
I20
aI2
asg219
Nsg220
VMekhilta DeRabbi Shimon Bar Yochai 20:2
p2096
sg222
(lp2097
sg224
g154
sg225
Nsg226
(lp2098
I20
aI2
asg228
Nsg229
g2096
sg230
(lp2099
sg232
g56
sg233
Nsg234
Nsg235
Nsbag3
(g4
g5
NtRp2100
(dp2101
g8
g10
sg213
Nsg214
(dp2102
sg216
Nsg26
g28
sg217
(lp2103
I20
aI3
asg219
Nsg220
VMekhilta DeRabbi Shimon Bar Yochai 20:3
p2104
sg222
(lp2105
sg224
g154
sg225
Nsg226
(lp2106
I20
aI3
asg228
Nsg229
g2104
sg230
(lp2107
sg232
g56
sg233
Nsg234
Nsg235
Nsbag3
(g4
g5
NtRp2108
(dp2109
g8
g10
sg213
Nsg214
(dp2110
sg216
Nsg26
g28
sg217
(lp2111
I20
aI4
asg219
Nsg220
VMekhilta DeRabbi Shimon Bar Yochai 20:4
p2112
sg222
(lp2113
sg224
g154
sg225
Nsg226
(lp2114
I20
aI4
asg228
Nsg229
g2112
sg230
(lp2115
sg232
g56
sg233
Nsg234
Nsg235
Nsbag3
(g4
g5
NtRp2116
(dp2117
g8
g10
sg213
Nsg214
(dp2118
sg216
Nsg26
g28
sg217
(lp2119
I20
aI5
asg219
Nsg220
VMekhilta DeRabbi Shimon Bar Yochai 20:5
p2120
sg222
(lp2121
sg224
g154
sg225
Nsg226
(lp2122
I20
aI5
asg228
Nsg229
g2120
sg230
(lp2123
sg232
g56
sg233
Nsg234
Nsg235
Nsbag3
(g4
g5
NtRp2124
(dp2125
g8
g10
sg213
Nsg214
(dp2126
sg216
Nsg26
g28
sg217
(lp2127
I20
aI6
asg219
Nsg220
VMekhilta DeRabbi Shimon Bar Yochai 20:6
p2128
sg222
(lp2129
sg224
g154
sg225
Nsg226
(lp2130
I20
aI6
asg228
Nsg229
g2128
sg230
(lp2131
sg232
g56
sg233
Nsg234
Nsg235
Nsbag3
(g4
g5
NtRp2132
(dp2133
g8
g10
sg213
Nsg214
(dp2134
sg216
Nsg26
g28
sg217
(lp2135
I20
aI7
asg219
Nsg220
VMekhilta DeRabbi Shimon Bar Yochai 20:7
p2136
sg222
(lp2137
sg224
g154
sg225
Nsg226
(lp2138
I20
aI7
asg228
Nsg229
g2136
sg230
(lp2139
sg232
g56
sg233
Nsg234
Nsg235
Nsbag3
(g4
g5
NtRp2140
(dp2141
g8
g10
sg213
Nsg214
(dp2142
sg216
Nsg26
g28
sg217
(lp2143
I20
aI8
asg219
Nsg220
VMekhilta DeRabbi Shimon Bar Yochai 20:8
p2144
sg222
(lp2145
sg224
g154
sg225
Nsg226
(lp2146
I20
aI8
asg228
Nsg229
g2144
sg230
(lp2147
sg232
g56
sg233
Nsg234
Nsg235
Nsbag3
(g4
g5
NtRp2148
(dp2149
g8
g10
sg213
Nsg214
(dp2150
sg216
Nsg26
g28
sg217
(lp2151
I20
aI9
asg219
Nsg220
VMekhilta DeRabbi Shimon Bar Yochai 20:9
p2152
sg222
(lp2153
sg224
g154
sg225
Nsg226
(lp2154
I20
aI9
asg228
Nsg229
g2152
sg230
(lp2155
sg232
g56
sg233
Nsg234
Nsg235
Nsbag3
(g4
g5
NtRp2156
(dp2157
g8
g10
sg213
Nsg214
(dp2158
sg216
Nsg26
g28
sg217
(lp2159
I20
aI10
asg219
Nsg220
VMekhilta DeRabbi Shimon Bar Yochai 20:10
p2160
sg222
(lp2161
sg224
g154
sg225
Nsg226
(lp2162
I20
aI10
asg228
Nsg229
g2160
sg230
(lp2163
sg232
g56
sg233
Nsg234
Nsg235
Nsbag3
(g4
g5
NtRp2164
(dp2165
g8
g10
sg213
Nsg214
(dp2166
sg216
Nsg26
g28
sg217
(lp2167
I20
aI11
asg219
Nsg220
VMekhilta DeRabbi Shimon Bar Yochai 20:11
p2168
sg222
(lp2169
sg224
g154
sg225
Nsg226
(lp2170
I20
aI11
asg228
Nsg229
g2168
sg230
(lp2171
sg232
g56
sg233
Nsg234
Nsg235
Nsbag3
(g4
g5
NtRp2172
(dp2173
g8
g10
sg213
Nsg214
(dp2174
sg216
Nsg26
g28
sg217
(lp2175
I20
aI12
asg219
Nsg220
VMekhilta DeRabbi Shimon Bar Yochai 20:12
p2176
sg222
(lp2177
sg224
g154
sg225
Nsg226
(lp2178
I20
aI12
asg228
Nsg229
g2176
sg230
(lp2179
sg232
g56
sg233
Nsg234
Nsg235
Nsbag3
(g4
g5
NtRp2180
(dp2181
g8
g10
sg213
Nsg214
(dp2182
sg216
Nsg26
g28
sg217
(lp2183
I20
aI13
asg219
Nsg220
VMekhilta DeRabbi Shimon Bar Yochai 20:13
p2184
sg222
(lp2185
sg224
g154
sg225
Nsg226
(lp2186
I20
aI13
asg228
Nsg229
g2184
sg230
(lp2187
sg232
g56
sg233
Nsg234
Nsg235
Nsbag3
(g4
g5
NtRp2188
(dp2189
g8
g10
sg213
Nsg214
(dp2190
sg216
Nsg26
g28
sg217
(lp2191
I20
aI14
asg219
Nsg220
VMekhilta DeRabbi Shimon Bar Yochai 20:14
p2192
sg222
(lp2193
sg224
g154
sg225
Nsg226
(lp2194
I20
aI14
asg228
Nsg229
g2192
sg230
(lp2195
sg232
g56
sg233
Nsg234
Nsg235
Nsbag3
(g4
g5
NtRp2196
(dp2197
g8
g10
sg213
Nsg214
(dp2198
sg216
Nsg26
g28
sg217
(lp2199
I20
aI15
asg219
Nsg220
VMekhilta DeRabbi Shimon Bar Yochai 20:15
p2200
sg222
(lp2201
sg224
g154
sg225
Nsg226
(lp2202
I20
aI15
asg228
Nsg229
g2200
sg230
(lp2203
sg232
g56
sg233
Nsg234
Nsg235
Nsbag3
(g4
g5
NtRp2204
(dp2205
g8
g10
sg213
Nsg214
(dp2206
sg216
Nsg26
g28
sg217
(lp2207
I20
aI16
asg219
Nsg220
VMekhilta DeRabbi Shimon Bar Yochai 20:16
p2208
sg222
(lp2209
sg224
g154
sg225
Nsg226
(lp2210
I20
aI16
asg228
Nsg229
g2208
sg230
(lp2211
sg232
g56
sg233
Nsg234
Nsg235
Nsbag3
(g4
g5
NtRp2212
(dp2213
g8
g10
sg213
Nsg214
(dp2214
sg216
Nsg26
g28
sg217
(lp2215
I20
aI17
asg219
Nsg220
VMekhilta DeRabbi Shimon Bar Yochai 20:17
p2216
sg222
(lp2217
sg224
g154
sg225
Nsg226
(lp2218
I20
aI17
asg228
Nsg229
g2216
sg230
(lp2219
sg232
g56
sg233
Nsg234
Nsg235
Nsbag3
(g4
g5
NtRp2220
(dp2221
g8
g10
sg213
Nsg214
(dp2222
sg216
Nsg26
g28
sg217
(lp2223
I20
aI18
asg219
Nsg220
VMekhilta DeRabbi Shimon Bar Yochai 20:18
p2224
sg222
(lp2225
sg224
g154
sg225
Nsg226
(lp2226
I20
aI18
asg228
Nsg229
g2224
sg230
(lp2227
sg232
g56
sg233
Nsg234
Nsg235
Nsbag3
(g4
g5
NtRp2228
(dp2229
g8
g10
sg213
Nsg214
(dp2230
sg216
Nsg26
g28
sg217
(lp2231
I20
aI19
asg219
Nsg220
VMekhilta DeRabbi Shimon Bar Yochai 20:19
p2232
sg222
(lp2233
sg224
g154
sg225
Nsg226
(lp2234
I20
aI19
asg228
Nsg229
g2232
sg230
(lp2235
sg232
g56
sg233
Nsg234
Nsg235
Nsbag3
(g4
g5
NtRp2236
(dp2237
g8
g10
sg213
Nsg214
(dp2238
sg216
Nsg26
g28
sg217
(lp2239
I20
aI20
asg219
Nsg220
VMekhilta DeRabbi Shimon Bar Yochai 20:20
p2240
sg222
(lp2241
sg224
g154
sg225
Nsg226
(lp2242
I20
aI20
asg228
Nsg229
g2240
sg230
(lp2243
sg232
g56
sg233
Nsg234
Nsg235
Nsbag3
(g4
g5
NtRp2244
(dp2245
g8
g10
sg213
Nsg214
(dp2246
sg216
Nsg26
g28
sg217
(lp2247
I20
aI21
asg219
Nsg220
VMekhilta DeRabbi Shimon Bar Yochai 20:21
p2248
sg222
(lp2249
sg224
g154
sg225
Nsg226
(lp2250
I20
aI21
asg228
Nsg229
g2248
sg230
(lp2251
sg232
g56
sg233
Nsg234
Nsg235
Nsbag3
(g4
g5
NtRp2252
(dp2253
g8
g10
sg213
Nsg214
(dp2254
sg216
Nsg26
g28
sg217
(lp2255
I20
aI22
asg219
Nsg220
VMekhilta DeRabbi Shimon Bar Yochai 20:22
p2256
sg222
(lp2257
sg224
g154
sg225
Nsg226
(lp2258
I20
aI22
asg228
Nsg229
g2256
sg230
(lp2259
sg232
g56
sg233
Nsg234
Nsg235
Nsbag3
(g4
g5
NtRp2260
(dp2261
g8
g10
sg213
Nsg214
(dp2262
sg216
Nsg26
g28
sg217
(lp2263
I20
aI23
asg219
Nsg220
VMekhilta DeRabbi Shimon Bar Yochai 20:23
p2264
sg222
(lp2265
sg224
g154
sg225
Nsg226
(lp2266
I20
aI23
asg228
Nsg229
g2264
sg230
(lp2267
sg232
g56
sg233
Nsg234
Nsg235
Nsbag3
(g4
g5
NtRp2268
(dp2269
g8
g10
sg213
Nsg214
(dp2270
sg216
Nsg26
g28
sg217
(lp2271
I21
aI1
asg219
Nsg220
VMekhilta DeRabbi Shimon Bar Yochai 21:1
p2272
sg222
(lp2273
sg224
g154
sg225
Nsg226
(lp2274
I21
aI1
asg228
Nsg229
g2272
sg230
(lp2275
sg232
g56
sg233
Nsg234
Nsg235
Nsbag3
(g4
g5
NtRp2276
(dp2277
g8
g10
sg213
Nsg214
(dp2278
sg216
Nsg26
g28
sg217
(lp2279
I21
aI2
asg219
Nsg220
VMekhilta DeRabbi Shimon Bar Yochai 21:2
p2280
sg222
(lp2281
sg224
g154
sg225
Nsg226
(lp2282
I21
aI2
asg228
Nsg229
g2280
sg230
(lp2283
sg232
g56
sg233
Nsg234
Nsg235
Nsbag3
(g4
g5
NtRp2284
(dp2285
g8
g10
sg213
Nsg214
(dp2286
sg216
Nsg26
g28
sg217
(lp2287
I21
aI3
asg219
Nsg220
VMekhilta DeRabbi Shimon Bar Yochai 21:3
p2288
sg222
(lp2289
sg224
g154
sg225
Nsg226
(lp2290
I21
aI3
asg228
Nsg229
g2288
sg230
(lp2291
sg232
g56
sg233
Nsg234
Nsg235
Nsbag3
(g4
g5
NtRp2292
(dp2293
g8
g10
sg213
Nsg214
(dp2294
sg216
Nsg26
g28
sg217
(lp2295
I21
aI4
asg219
Nsg220
VMekhilta DeRabbi Shimon Bar Yochai 21:4
p2296
sg222
(lp2297
sg224
g154
sg225
Nsg226
(lp2298
I21
aI4
asg228
Nsg229
g2296
sg230
(lp2299
sg232
g56
sg233
Nsg234
Nsg235
Nsbag3
(g4
g5
NtRp2300
(dp2301
g8
g10
sg213
Nsg214
(dp2302
sg216
Nsg26
g28
sg217
(lp2303
I21
aI5
asg219
Nsg220
VMekhilta DeRabbi Shimon Bar Yochai 21:5
p2304
sg222
(lp2305
sg224
g154
sg225
Nsg226
(lp2306
I21
aI5
asg228
Nsg229
g2304
sg230
(lp2307
sg232
g56
sg233
Nsg234
Nsg235
Nsbag3
(g4
g5
NtRp2308
(dp2309
g8
g10
sg213
Nsg214
(dp2310
sg216
Nsg26
g28
sg217
(lp2311
I21
aI6
asg219
Nsg220
VMekhilta DeRabbi Shimon Bar Yochai 21:6
p2312
sg222
(lp2313
sg224
g154
sg225
Nsg226
(lp2314
I21
aI6
asg228
Nsg229
g2312
sg230
(lp2315
sg232
g56
sg233
Nsg234
Nsg235
Nsbag3
(g4
g5
NtRp2316
(dp2317
g8
g10
sg213
Nsg214
(dp2318
sg216
Nsg26
g28
sg217
(lp2319
I21
aI7
asg219
Nsg220
VMekhilta DeRabbi Shimon Bar Yochai 21:7
p2320
sg222
(lp2321
sg224
g154
sg225
Nsg226
(lp2322
I21
aI7
asg228
Nsg229
g2320
sg230
(lp2323
sg232
g56
sg233
Nsg234
Nsg235
Nsbag3
(g4
g5
NtRp2324
(dp2325
g8
g10
sg213
Nsg214
(dp2326
sg216
Nsg26
g28
sg217
(lp2327
I21
aI8
asg219
Nsg220
VMekhilta DeRabbi Shimon Bar Yochai 21:8
p2328
sg222
(lp2329
sg224
g154
sg225
Nsg226
(lp2330
I21
aI8
asg228
Nsg229
g2328
sg230
(lp2331
sg232
g56
sg233
Nsg234
Nsg235
Nsbag3
(g4
g5
NtRp2332
(dp2333
g8
g10
sg213
Nsg214
(dp2334
sg216
Nsg26
g28
sg217
(lp2335
I21
aI9
asg219
Nsg220
VMekhilta DeRabbi Shimon Bar Yochai 21:9
p2336
sg222
(lp2337
sg224
g154
sg225
Nsg226
(lp2338
I21
aI9
asg228
Nsg229
g2336
sg230
(lp2339
sg232
g56
sg233
Nsg234
Nsg235
Nsbag3
(g4
g5
NtRp2340
(dp2341
g8
g10
sg213
Nsg214
(dp2342
sg216
Nsg26
g28
sg217
(lp2343
I21
aI10
asg219
Nsg220
VMekhilta DeRabbi Shimon Bar Yochai 21:10
p2344
sg222
(lp2345
sg224
g154
sg225
Nsg226
(lp2346
I21
aI10
asg228
Nsg229
g2344
sg230
(lp2347
sg232
g56
sg233
Nsg234
Nsg235
Nsbag3
(g4
g5
NtRp2348
(dp2349
g8
g10
sg213
Nsg214
(dp2350
sg216
Nsg26
g28
sg217
(lp2351
I21
aI11
asg219
Nsg220
VMekhilta DeRabbi Shimon Bar Yochai 21:11
p2352
sg222
(lp2353
sg224
g154
sg225
Nsg226
(lp2354
I21
aI11
asg228
Nsg229
g2352
sg230
(lp2355
sg232
g56
sg233
Nsg234
Nsg235
Nsbag3
(g4
g5
NtRp2356
(dp2357
g8
g10
sg213
Nsg214
(dp2358
sg216
Nsg26
g28
sg217
(lp2359
I21
aI12
asg219
Nsg220
VMekhilta DeRabbi Shimon Bar Yochai 21:12
p2360
sg222
(lp2361
sg224
g154
sg225
Nsg226
(lp2362
I21
aI12
asg228
Nsg229
g2360
sg230
(lp2363
sg232
g56
sg233
Nsg234
Nsg235
Nsbag3
(g4
g5
NtRp2364
(dp2365
g8
g10
sg213
Nsg214
(dp2366
sg216
Nsg26
g28
sg217
(lp2367
I21
aI13
asg219
Nsg220
VMekhilta DeRabbi Shimon Bar Yochai 21:13
p2368
sg222
(lp2369
sg224
g154
sg225
Nsg226
(lp2370
I21
aI13
asg228
Nsg229
g2368
sg230
(lp2371
sg232
g56
sg233
Nsg234
Nsg235
Nsbag3
(g4
g5
NtRp2372
(dp2373
g8
g10
sg213
Nsg214
(dp2374
sg216
Nsg26
g28
sg217
(lp2375
I21
aI14
asg219
Nsg220
VMekhilta DeRabbi Shimon Bar Yochai 21:14
p2376
sg222
(lp2377
sg224
g154
sg225
Nsg226
(lp2378
I21
aI14
asg228
Nsg229
g2376
sg230
(lp2379
sg232
g56
sg233
Nsg234
Nsg235
Nsbag3
(g4
g5
NtRp2380
(dp2381
g8
g10
sg213
Nsg214
(dp2382
sg216
Nsg26
g28
sg217
(lp2383
I21
aI15
asg219
Nsg220
VMekhilta DeRabbi Shimon Bar Yochai 21:15
p2384
sg222
(lp2385
sg224
g154
sg225
Nsg226
(lp2386
I21
aI15
asg228
Nsg229
g2384
sg230
(lp2387
sg232
g56
sg233
Nsg234
Nsg235
Nsbag3
(g4
g5
NtRp2388
(dp2389
g8
g10
sg213
Nsg214
(dp2390
sg216
Nsg26
g28
sg217
(lp2391
I21
aI16
asg219
Nsg220
VMekhilta DeRabbi Shimon Bar Yochai 21:16
p2392
sg222
(lp2393
sg224
g154
sg225
Nsg226
(lp2394
I21
aI16
asg228
Nsg229
g2392
sg230
(lp2395
sg232
g56
sg233
Nsg234
Nsg235
Nsbag3
(g4
g5
NtRp2396
(dp2397
g8
g10
sg213
Nsg214
(dp2398
sg216
Nsg26
g28
sg217
(lp2399
I21
aI17
asg219
Nsg220
VMekhilta DeRabbi Shimon Bar Yochai 21:17
p2400
sg222
(lp2401
sg224
g154
sg225
Nsg226
(lp2402
I21
aI17
asg228
Nsg229
g2400
sg230
(lp2403
sg232
g56
sg233
Nsg234
Nsg235
Nsbag3
(g4
g5
NtRp2404
(dp2405
g8
g10
sg213
Nsg214
(dp2406
sg216
Nsg26
g28
sg217
(lp2407
I21
aI18
asg219
Nsg220
VMekhilta DeRabbi Shimon Bar Yochai 21:18
p2408
sg222
(lp2409
sg224
g154
sg225
Nsg226
(lp2410
I21
aI18
asg228
Nsg229
g2408
sg230
(lp2411
sg232
g56
sg233
Nsg234
Nsg235
Nsbag3
(g4
g5
NtRp2412
(dp2413
g8
g10
sg213
Nsg214
(dp2414
sg216
Nsg26
g28
sg217
(lp2415
I21
aI19
asg219
Nsg220
VMekhilta DeRabbi Shimon Bar Yochai 21:19
p2416
sg222
(lp2417
sg224
g154
sg225
Nsg226
(lp2418
I21
aI19
asg228
Nsg229
g2416
sg230
(lp2419
sg232
g56
sg233
Nsg234
Nsg235
Nsbag3
(g4
g5
NtRp2420
(dp2421
g8
g10
sg213
Nsg214
(dp2422
sg216
Nsg26
g28
sg217
(lp2423
I21
aI20
asg219
Nsg220
VMekhilta DeRabbi Shimon Bar Yochai 21:20
p2424
sg222
(lp2425
sg224
g154
sg225
Nsg226
(lp2426
I21
aI20
asg228
Nsg229
g2424
sg230
(lp2427
sg232
g56
sg233
Nsg234
Nsg235
Nsbag3
(g4
g5
NtRp2428
(dp2429
g8
g10
sg213
Nsg214
(dp2430
sg216
Nsg26
g28
sg217
(lp2431
I21
aI21
asg219
Nsg220
VMekhilta DeRabbi Shimon Bar Yochai 21:21
p2432
sg222
(lp2433
sg224
g154
sg225
Nsg226
(lp2434
I21
aI21
asg228
Nsg229
g2432
sg230
(lp2435
sg232
g56
sg233
Nsg234
Nsg235
Nsbag3
(g4
g5
NtRp2436
(dp2437
g8
g10
sg213
Nsg214
(dp2438
sg216
Nsg26
g28
sg217
(lp2439
I21
aI22
asg219
Nsg220
VMekhilta DeRabbi Shimon Bar Yochai 21:22
p2440
sg222
(lp2441
sg224
g154
sg225
Nsg226
(lp2442
I21
aI22
asg228
Nsg229
g2440
sg230
(lp2443
sg232
g56
sg233
Nsg234
Nsg235
Nsbag3
(g4
g5
NtRp2444
(dp2445
g8
g10
sg213
Nsg214
(dp2446
sg216
Nsg26
g28
sg217
(lp2447
I21
aI23
asg219
Nsg220
VMekhilta DeRabbi Shimon Bar Yochai 21:23
p2448
sg222
(lp2449
sg224
g154
sg225
Nsg226
(lp2450
I21
aI23
asg228
Nsg229
g2448
sg230
(lp2451
sg232
g56
sg233
Nsg234
Nsg235
Nsbag3
(g4
g5
NtRp2452
(dp2453
g8
g10
sg213
Nsg214
(dp2454
sg216
Nsg26
g28
sg217
(lp2455
I21
aI24
asg219
Nsg220
VMekhilta DeRabbi Shimon Bar Yochai 21:24
p2456
sg222
(lp2457
sg224
g154
sg225
Nsg226
(lp2458
I21
aI24
asg228
Nsg229
g2456
sg230
(lp2459
sg232
g56
sg233
Nsg234
Nsg235
Nsbag3
(g4
g5
NtRp2460
(dp2461
g8
g10
sg213
Nsg214
(dp2462
sg216
Nsg26
g28
sg217
(lp2463
I21
aI25
asg219
Nsg220
VMekhilta DeRabbi Shimon Bar Yochai 21:25
p2464
sg222
(lp2465
sg224
g154
sg225
Nsg226
(lp2466
I21
aI25
asg228
Nsg229
g2464
sg230
(lp2467
sg232
g56
sg233
Nsg234
Nsg235
Nsbag3
(g4
g5
NtRp2468
(dp2469
g8
g10
sg213
Nsg214
(dp2470
sg216
Nsg26
g28
sg217
(lp2471
I21
aI26
asg219
Nsg220
VMekhilta DeRabbi Shimon Bar Yochai 21:26
p2472
sg222
(lp2473
sg224
g154
sg225
Nsg226
(lp2474
I21
aI26
asg228
Nsg229
g2472
sg230
(lp2475
sg232
g56
sg233
Nsg234
Nsg235
Nsbag3
(g4
g5
NtRp2476
(dp2477
g8
g10
sg213
Nsg214
(dp2478
sg216
Nsg26
g28
sg217
(lp2479
I21
aI27
asg219
Nsg220
VMekhilta DeRabbi Shimon Bar Yochai 21:27
p2480
sg222
(lp2481
sg224
g154
sg225
Nsg226
(lp2482
I21
aI27
asg228
Nsg229
g2480
sg230
(lp2483
sg232
g56
sg233
Nsg234
Nsg235
Nsbag3
(g4
g5
NtRp2484
(dp2485
g8
g10
sg213
Nsg214
(dp2486
sg216
Nsg26
g28
sg217
(lp2487
I21
aI28
asg219
Nsg220
VMekhilta DeRabbi Shimon Bar Yochai 21:28
p2488
sg222
(lp2489
sg224
g154
sg225
Nsg226
(lp2490
I21
aI28
asg228
Nsg229
g2488
sg230
(lp2491
sg232
g56
sg233
Nsg234
Nsg235
Nsbag3
(g4
g5
NtRp2492
(dp2493
g8
g10
sg213
Nsg214
(dp2494
sg216
Nsg26
g28
sg217
(lp2495
I21
aI29
asg219
Nsg220
VMekhilta DeRabbi Shimon Bar Yochai 21:29
p2496
sg222
(lp2497
sg224
g154
sg225
Nsg226
(lp2498
I21
aI29
asg228
Nsg229
g2496
sg230
(lp2499
sg232
g56
sg233
Nsg234
Nsg235
Nsbag3
(g4
g5
NtRp2500
(dp2501
g8
g10
sg213
Nsg214
(dp2502
sg216
Nsg26
g28
sg217
(lp2503
I21
aI30
asg219
Nsg220
VMekhilta DeRabbi Shimon Bar Yochai 21:30
p2504
sg222
(lp2505
sg224
g154
sg225
Nsg226
(lp2506
I21
aI30
asg228
Nsg229
g2504
sg230
(lp2507
sg232
g56
sg233
Nsg234
Nsg235
Nsbag3
(g4
g5
NtRp2508
(dp2509
g8
g10
sg213
Nsg214
(dp2510
sg216
Nsg26
g28
sg217
(lp2511
I21
aI31
asg219
Nsg220
VMekhilta DeRabbi Shimon Bar Yochai 21:31
p2512
sg222
(lp2513
sg224
g154
sg225
Nsg226
(lp2514
I21
aI31
asg228
Nsg229
g2512
sg230
(lp2515
sg232
g56
sg233
Nsg234
Nsg235
Nsbag3
(g4
g5
NtRp2516
(dp2517
g8
g10
sg213
Nsg214
(dp2518
sg216
Nsg26
g28
sg217
(lp2519
I21
aI32
asg219
Nsg220
VMekhilta DeRabbi Shimon Bar Yochai 21:32
p2520
sg222
(lp2521
sg224
g154
sg225
Nsg226
(lp2522
I21
aI32
asg228
Nsg229
g2520
sg230
(lp2523
sg232
g56
sg233
Nsg234
Nsg235
Nsbag3
(g4
g5
NtRp2524
(dp2525
g8
g10
sg213
Nsg214
(dp2526
sg216
Nsg26
g28
sg217
(lp2527
I21
aI33
asg219
Nsg220
VMekhilta DeRabbi Shimon Bar Yochai 21:33
p2528
sg222
(lp2529
sg224
g154
sg225
Nsg226
(lp2530
I21
aI33
asg228
Nsg229
g2528
sg230
(lp2531
sg232
g56
sg233
Nsg234
Nsg235
Nsbag3
(g4
g5
NtRp2532
(dp2533
g8
g10
sg213
Nsg214
(dp2534
sg216
Nsg26
g28
sg217
(lp2535
I21
aI34
asg219
Nsg220
VMekhilta DeRabbi Shimon Bar Yochai 21:34
p2536
sg222
(lp2537
sg224
g154
sg225
Nsg226
(lp2538
I21
aI34
asg228
Nsg229
g2536
sg230
(lp2539
sg232
g56
sg233
Nsg234
Nsg235
Nsbag3
(g4
g5
NtRp2540
(dp2541
g8
g10
sg213
Nsg214
(dp2542
sg216
Nsg26
g28
sg217
(lp2543
I21
aI35
asg219
Nsg220
VMekhilta DeRabbi Shimon Bar Yochai 21:35
p2544
sg222
(lp2545
sg224
g154
sg225
Nsg226
(lp2546
I21
aI35
asg228
Nsg229
g2544
sg230
(lp2547
sg232
g56
sg233
Nsg234
Nsg235
Nsbag3
(g4
g5
NtRp2548
(dp2549
g8
g10
sg213
Nsg214
(dp2550
sg216
Nsg26
g28
sg217
(lp2551
I21
aI36
asg219
Nsg220
VMekhilta DeRabbi Shimon Bar Yochai 21:36
p2552
sg222
(lp2553
sg224
g154
sg225
Nsg226
(lp2554
I21
aI36
asg228
Nsg229
g2552
sg230
(lp2555
sg232
g56
sg233
Nsg234
Nsg235
Nsbag3
(g4
g5
NtRp2556
(dp2557
g8
g10
sg213
Nsg214
(dp2558
sg216
Nsg26
g28
sg217
(lp2559
I21
aI37
asg219
Nsg220
VMekhilta DeRabbi Shimon Bar Yochai 21:37
p2560
sg222
(lp2561
sg224
g154
sg225
Nsg226
(lp2562
I21
aI37
asg228
Nsg229
g2560
sg230
(lp2563
sg232
g56
sg233
Nsg234
Nsg235
Nsbag3
(g4
g5
NtRp2564
(dp2565
g8
g10
sg213
Nsg214
(dp2566
sg216
Nsg26
g28
sg217
(lp2567
I22
aI1
asg219
Nsg220
VMekhilta DeRabbi Shimon Bar Yochai 22:1
p2568
sg222
(lp2569
sg224
g154
sg225
Nsg226
(lp2570
I22
aI1
asg228
Nsg229
g2568
sg230
(lp2571
sg232
g56
sg233
Nsg234
Nsg235
Nsbag3
(g4
g5
NtRp2572
(dp2573
g8
g10
sg213
Nsg214
(dp2574
sg216
Nsg26
g28
sg217
(lp2575
I22
aI2
asg219
Nsg220
VMekhilta DeRabbi Shimon Bar Yochai 22:2
p2576
sg222
(lp2577
sg224
g154
sg225
Nsg226
(lp2578
I22
aI2
asg228
Nsg229
g2576
sg230
(lp2579
sg232
g56
sg233
Nsg234
Nsg235
Nsbag3
(g4
g5
NtRp2580
(dp2581
g8
g10
sg213
Nsg214
(dp2582
sg216
Nsg26
g28
sg217
(lp2583
I22
aI3
asg219
Nsg220
VMekhilta DeRabbi Shimon Bar Yochai 22:3
p2584
sg222
(lp2585
sg224
g154
sg225
Nsg226
(lp2586
I22
aI3
asg228
Nsg229
g2584
sg230
(lp2587
sg232
g56
sg233
Nsg234
Nsg235
Nsbag3
(g4
g5
NtRp2588
(dp2589
g8
g10
sg213
Nsg214
(dp2590
sg216
Nsg26
g28
sg217
(lp2591
I22
aI4
asg219
Nsg220
VMekhilta DeRabbi Shimon Bar Yochai 22:4
p2592
sg222
(lp2593
sg224
g154
sg225
Nsg226
(lp2594
I22
aI4
asg228
Nsg229
g2592
sg230
(lp2595
sg232
g56
sg233
Nsg234
Nsg235
Nsbag3
(g4
g5
NtRp2596
(dp2597
g8
g10
sg213
Nsg214
(dp2598
sg216
Nsg26
g28
sg217
(lp2599
I22
aI5
asg219
Nsg220
VMekhilta DeRabbi Shimon Bar Yochai 22:5
p2600
sg222
(lp2601
sg224
g154
sg225
Nsg226
(lp2602
I22
aI5
asg228
Nsg229
g2600
sg230
(lp2603
sg232
g56
sg233
Nsg234
Nsg235
Nsbag3
(g4
g5
NtRp2604
(dp2605
g8
g10
sg213
Nsg214
(dp2606
sg216
Nsg26
g28
sg217
(lp2607
I22
aI6
asg219
Nsg220
VMekhilta DeRabbi Shimon Bar Yochai 22:6
p2608
sg222
(lp2609
sg224
g154
sg225
Nsg226
(lp2610
I22
aI6
asg228
Nsg229
g2608
sg230
(lp2611
sg232
g56
sg233
Nsg234
Nsg235
Nsbag3
(g4
g5
NtRp2612
(dp2613
g8
g10
sg213
Nsg214
(dp2614
sg216
Nsg26
g28
sg217
(lp2615
I22
aI7
asg219
Nsg220
VMekhilta DeRabbi Shimon Bar Yochai 22:7
p2616
sg222
(lp2617
sg224
g154
sg225
Nsg226
(lp2618
I22
aI7
asg228
Nsg229
g2616
sg230
(lp2619
sg232
g56
sg233
Nsg234
Nsg235
Nsbag3
(g4
g5
NtRp2620
(dp2621
g8
g10
sg213
Nsg214
(dp2622
sg216
Nsg26
g28
sg217
(lp2623
I22
aI8
asg219
Nsg220
VMekhilta DeRabbi Shimon Bar Yochai 22:8
p2624
sg222
(lp2625
sg224
g154
sg225
Nsg226
(lp2626
I22
aI8
asg228
Nsg229
g2624
sg230
(lp2627
sg232
g56
sg233
Nsg234
Nsg235
Nsbag3
(g4
g5
NtRp2628
(dp2629
g8
g10
sg213
Nsg214
(dp2630
sg216
Nsg26
g28
sg217
(lp2631
I22
aI9
asg219
Nsg220
VMekhilta DeRabbi Shimon Bar Yochai 22:9
p2632
sg222
(lp2633
sg224
g154
sg225
Nsg226
(lp2634
I22
aI9
asg228
Nsg229
g2632
sg230
(lp2635
sg232
g56
sg233
Nsg234
Nsg235
Nsbag3
(g4
g5
NtRp2636
(dp2637
g8
g10
sg213
Nsg214
(dp2638
sg216
Nsg26
g28
sg217
(lp2639
I22
aI10
asg219
Nsg220
VMekhilta DeRabbi Shimon Bar Yochai 22:10
p2640
sg222
(lp2641
sg224
g154
sg225
Nsg226
(lp2642
I22
aI10
asg228
Nsg229
g2640
sg230
(lp2643
sg232
g56
sg233
Nsg234
Nsg235
Nsbag3
(g4
g5
NtRp2644
(dp2645
g8
g10
sg213
Nsg214
(dp2646
sg216
Nsg26
g28
sg217
(lp2647
I22
aI11
asg219
Nsg220
VMekhilta DeRabbi Shimon Bar Yochai 22:11
p2648
sg222
(lp2649
sg224
g154
sg225
Nsg226
(lp2650
I22
aI11
asg228
Nsg229
g2648
sg230
(lp2651
sg232
g56
sg233
Nsg234
Nsg235
Nsbag3
(g4
g5
NtRp2652
(dp2653
g8
g10
sg213
Nsg214
(dp2654
sg216
Nsg26
g28
sg217
(lp2655
I22
aI12
asg219
Nsg220
VMekhilta DeRabbi Shimon Bar Yochai 22:12
p2656
sg222
(lp2657
sg224
g154
sg225
Nsg226
(lp2658
I22
aI12
asg228
Nsg229
g2656
sg230
(lp2659
sg232
g56
sg233
Nsg234
Nsg235
Nsbag3
(g4
g5
NtRp2660
(dp2661
g8
g10
sg213
Nsg214
(dp2662
sg216
Nsg26
g28
sg217
(lp2663
I22
aI13
asg219
Nsg220
VMekhilta DeRabbi Shimon Bar Yochai 22:13
p2664
sg222
(lp2665
sg224
g154
sg225
Nsg226
(lp2666
I22
aI13
asg228
Nsg229
g2664
sg230
(lp2667
sg232
g56
sg233
Nsg234
Nsg235
Nsbag3
(g4
g5
NtRp2668
(dp2669
g8
g10
sg213
Nsg214
(dp2670
sg216
Nsg26
g28
sg217
(lp2671
I22
aI14
asg219
Nsg220
VMekhilta DeRabbi Shimon Bar Yochai 22:14
p2672
sg222
(lp2673
sg224
g154
sg225
Nsg226
(lp2674
I22
aI14
asg228
Nsg229
g2672
sg230
(lp2675
sg232
g56
sg233
Nsg234
Nsg235
Nsbag3
(g4
g5
NtRp2676
(dp2677
g8
g10
sg213
Nsg214
(dp2678
sg216
Nsg26
g28
sg217
(lp2679
I22
aI15
asg219
Nsg220
VMekhilta DeRabbi Shimon Bar Yochai 22:15
p2680
sg222
(lp2681
sg224
g154
sg225
Nsg226
(lp2682
I22
aI15
asg228
Nsg229
g2680
sg230
(lp2683
sg232
g56
sg233
Nsg234
Nsg235
Nsbag3
(g4
g5
NtRp2684
(dp2685
g8
g10
sg213
Nsg214
(dp2686
sg216
Nsg26
g28
sg217
(lp2687
I22
aI16
asg219
Nsg220
VMekhilta DeRabbi Shimon Bar Yochai 22:16
p2688
sg222
(lp2689
sg224
g154
sg225
Nsg226
(lp2690
I22
aI16
asg228
Nsg229
g2688
sg230
(lp2691
sg232
g56
sg233
Nsg234
Nsg235
Nsbag3
(g4
g5
NtRp2692
(dp2693
g8
g10
sg213
Nsg214
(dp2694
sg216
Nsg26
g28
sg217
(lp2695
I22
aI17
asg219
Nsg220
VMekhilta DeRabbi Shimon Bar Yochai 22:17
p2696
sg222
(lp2697
sg224
g154
sg225
Nsg226
(lp2698
I22
aI17
asg228
Nsg229
g2696
sg230
(lp2699
sg232
g56
sg233
Nsg234
Nsg235
Nsbag3
(g4
g5
NtRp2700
(dp2701
g8
g10
sg213
Nsg214
(dp2702
sg216
Nsg26
g28
sg217
(lp2703
I22
aI18
asg219
Nsg220
VMekhilta DeRabbi Shimon Bar Yochai 22:18
p2704
sg222
(lp2705
sg224
g154
sg225
Nsg226
(lp2706
I22
aI18
asg228
Nsg229
g2704
sg230
(lp2707
sg232
g56
sg233
Nsg234
Nsg235
Nsbag3
(g4
g5
NtRp2708
(dp2709
g8
g10
sg213
Nsg214
(dp2710
sg216
Nsg26
g28
sg217
(lp2711
I22
aI19
asg219
Nsg220
VMekhilta DeRabbi Shimon Bar Yochai 22:19
p2712
sg222
(lp2713
sg224
g154
sg225
Nsg226
(lp2714
I22
aI19
asg228
Nsg229
g2712
sg230
(lp2715
sg232
g56
sg233
Nsg234
Nsg235
Nsbag3
(g4
g5
NtRp2716
(dp2717
g8
g10
sg213
Nsg214
(dp2718
sg216
Nsg26
g28
sg217
(lp2719
I22
aI20
asg219
Nsg220
VMekhilta DeRabbi Shimon Bar Yochai 22:20
p2720
sg222
(lp2721
sg224
g154
sg225
Nsg226
(lp2722
I22
aI20
asg228
Nsg229
g2720
sg230
(lp2723
sg232
g56
sg233
Nsg234
Nsg235
Nsbag3
(g4
g5
NtRp2724
(dp2725
g8
g10
sg213
Nsg214
(dp2726
sg216
Nsg26
g28
sg217
(lp2727
I22
aI21
asg219
Nsg220
VMekhilta DeRabbi Shimon Bar Yochai 22:21
p2728
sg222
(lp2729
sg224
g154
sg225
Nsg226
(lp2730
I22
aI21
asg228
Nsg229
g2728
sg230
(lp2731
sg232
g56
sg233
Nsg234
Nsg235
Nsbag3
(g4
g5
NtRp2732
(dp2733
g8
g10
sg213
Nsg214
(dp2734
sg216
Nsg26
g28
sg217
(lp2735
I22
aI22
asg219
Nsg220
VMekhilta DeRabbi Shimon Bar Yochai 22:22
p2736
sg222
(lp2737
sg224
g154
sg225
Nsg226
(lp2738
I22
aI22
asg228
Nsg229
g2736
sg230
(lp2739
sg232
g56
sg233
Nsg234
Nsg235
Nsbag3
(g4
g5
NtRp2740
(dp2741
g8
g10
sg213
Nsg214
(dp2742
sg216
Nsg26
g28
sg217
(lp2743
I22
aI23
asg219
Nsg220
VMekhilta DeRabbi Shimon Bar Yochai 22:23
p2744
sg222
(lp2745
sg224
g154
sg225
Nsg226
(lp2746
I22
aI23
asg228
Nsg229
g2744
sg230
(lp2747
sg232
g56
sg233
Nsg234
Nsg235
Nsbag3
(g4
g5
NtRp2748
(dp2749
g8
g10
sg213
Nsg214
(dp2750
sg216
Nsg26
g28
sg217
(lp2751
I22
aI24
asg219
Nsg220
VMekhilta DeRabbi Shimon Bar Yochai 22:24
p2752
sg222
(lp2753
sg224
g154
sg225
Nsg226
(lp2754
I22
aI24
asg228
Nsg229
g2752
sg230
(lp2755
sg232
g56
sg233
Nsg234
Nsg235
Nsbag3
(g4
g5
NtRp2756
(dp2757
g8
g10
sg213
Nsg214
(dp2758
sg216
Nsg26
g28
sg217
(lp2759
I22
aI25
asg219
Nsg220
VMekhilta DeRabbi Shimon Bar Yochai 22:25
p2760
sg222
(lp2761
sg224
g154
sg225
Nsg226
(lp2762
I22
aI25
asg228
Nsg229
g2760
sg230
(lp2763
sg232
g56
sg233
Nsg234
Nsg235
Nsbag3
(g4
g5
NtRp2764
(dp2765
g8
g10
sg213
Nsg214
(dp2766
sg216
Nsg26
g28
sg217
(lp2767
I22
aI26
asg219
Nsg220
VMekhilta DeRabbi Shimon Bar Yochai 22:26
p2768
sg222
(lp2769
sg224
g154
sg225
Nsg226
(lp2770
I22
aI26
asg228
Nsg229
g2768
sg230
(lp2771
sg232
g56
sg233
Nsg234
Nsg235
Nsbag3
(g4
g5
NtRp2772
(dp2773
g8
g10
sg213
Nsg214
(dp2774
sg216
Nsg26
g28
sg217
(lp2775
I22
aI27
asg219
Nsg220
VMekhilta DeRabbi Shimon Bar Yochai 22:27
p2776
sg222
(lp2777
sg224
g154
sg225
Nsg226
(lp2778
I22
aI27
asg228
Nsg229
g2776
sg230
(lp2779
sg232
g56
sg233
Nsg234
Nsg235
Nsbag3
(g4
g5
NtRp2780
(dp2781
g8
g10
sg213
Nsg214
(dp2782
sg216
Nsg26
g28
sg217
(lp2783
I22
aI28
asg219
Nsg220
VMekhilta DeRabbi Shimon Bar Yochai 22:28
p2784
sg222
(lp2785
sg224
g154
sg225
Nsg226
(lp2786
I22
aI28
asg228
Nsg229
g2784
sg230
(lp2787
sg232
g56
sg233
Nsg234
Nsg235
Nsbag3
(g4
g5
NtRp2788
(dp2789
g8
g10
sg213
Nsg214
(dp2790
sg216
Nsg26
g28
sg217
(lp2791
I22
aI29
asg219
Nsg220
VMekhilta DeRabbi Shimon Bar Yochai 22:29
p2792
sg222
(lp2793
sg224
g154
sg225
Nsg226
(lp2794
I22
aI29
asg228
Nsg229
g2792
sg230
(lp2795
sg232
g56
sg233
Nsg234
Nsg235
Nsbag3
(g4
g5
NtRp2796
(dp2797
g8
g10
sg213
Nsg214
(dp2798
sg216
Nsg26
g28
sg217
(lp2799
I22
aI30
asg219
Nsg220
VMekhilta DeRabbi Shimon Bar Yochai 22:30
p2800
sg222
(lp2801
sg224
g154
sg225
Nsg226
(lp2802
I22
aI30
asg228
Nsg229
g2800
sg230
(lp2803
sg232
g56
sg233
Nsg234
Nsg235
Nsbag3
(g4
g5
NtRp2804
(dp2805
g8
g10
sg213
Nsg214
(dp2806
sg216
Nsg26
g28
sg217
(lp2807
I23
aI1
asg219
Nsg220
VMekhilta DeRabbi Shimon Bar Yochai 23:1
p2808
sg222
(lp2809
sg224
g154
sg225
Nsg226
(lp2810
I23
aI1
asg228
Nsg229
g2808
sg230
(lp2811
sg232
g56
sg233
Nsg234
Nsg235
Nsbag3
(g4
g5
NtRp2812
(dp2813
g8
g10
sg213
Nsg214
(dp2814
sg216
Nsg26
g28
sg217
(lp2815
I23
aI2
asg219
Nsg220
VMekhilta DeRabbi Shimon Bar Yochai 23:2
p2816
sg222
(lp2817
sg224
g154
sg225
Nsg226
(lp2818
I23
aI2
asg228
Nsg229
g2816
sg230
(lp2819
sg232
g56
sg233
Nsg234
Nsg235
Nsbag3
(g4
g5
NtRp2820
(dp2821
g8
g10
sg213
Nsg214
(dp2822
sg216
Nsg26
g28
sg217
(lp2823
I23
aI3
asg219
Nsg220
VMekhilta DeRabbi Shimon Bar Yochai 23:3
p2824
sg222
(lp2825
sg224
g154
sg225
Nsg226
(lp2826
I23
aI3
asg228
Nsg229
g2824
sg230
(lp2827
sg232
g56
sg233
Nsg234
Nsg235
Nsbag3
(g4
g5
NtRp2828
(dp2829
g8
g10
sg213
Nsg214
(dp2830
sg216
Nsg26
g28
sg217
(lp2831
I23
aI4
asg219
Nsg220
VMekhilta DeRabbi Shimon Bar Yochai 23:4
p2832
sg222
(lp2833
sg224
g154
sg225
Nsg226
(lp2834
I23
aI4
asg228
Nsg229
g2832
sg230
(lp2835
sg232
g56
sg233
Nsg234
Nsg235
Nsbag3
(g4
g5
NtRp2836
(dp2837
g8
g10
sg213
Nsg214
(dp2838
sg216
Nsg26
g28
sg217
(lp2839
I23
aI5
asg219
Nsg220
VMekhilta DeRabbi Shimon Bar Yochai 23:5
p2840
sg222
(lp2841
sg224
g154
sg225
Nsg226
(lp2842
I23
aI5
asg228
Nsg229
g2840
sg230
(lp2843
sg232
g56
sg233
Nsg234
Nsg235
Nsbag3
(g4
g5
NtRp2844
(dp2845
g8
g10
sg213
Nsg214
(dp2846
sg216
Nsg26
g28
sg217
(lp2847
I23
aI6
asg219
Nsg220
VMekhilta DeRabbi Shimon Bar Yochai 23:6
p2848
sg222
(lp2849
sg224
g154
sg225
Nsg226
(lp2850
I23
aI6
asg228
Nsg229
g2848
sg230
(lp2851
sg232
g56
sg233
Nsg234
Nsg235
Nsbag3
(g4
g5
NtRp2852
(dp2853
g8
g10
sg213
Nsg214
(dp2854
sg216
Nsg26
g28
sg217
(lp2855
I23
aI7
asg219
Nsg220
VMekhilta DeRabbi Shimon Bar Yochai 23:7
p2856
sg222
(lp2857
sg224
g154
sg225
Nsg226
(lp2858
I23
aI7
asg228
Nsg229
g2856
sg230
(lp2859
sg232
g56
sg233
Nsg234
Nsg235
Nsbag3
(g4
g5
NtRp2860
(dp2861
g8
g10
sg213
Nsg214
(dp2862
sg216
Nsg26
g28
sg217
(lp2863
I23
aI8
asg219
Nsg220
VMekhilta DeRabbi Shimon Bar Yochai 23:8
p2864
sg222
(lp2865
sg224
g154
sg225
Nsg226
(lp2866
I23
aI8
asg228
Nsg229
g2864
sg230
(lp2867
sg232
g56
sg233
Nsg234
Nsg235
Nsbag3
(g4
g5
NtRp2868
(dp2869
g8
g10
sg213
Nsg214
(dp2870
sg216
Nsg26
g28
sg217
(lp2871
I23
aI9
asg219
Nsg220
VMekhilta DeRabbi Shimon Bar Yochai 23:9
p2872
sg222
(lp2873
sg224
g154
sg225
Nsg226
(lp2874
I23
aI9
asg228
Nsg229
g2872
sg230
(lp2875
sg232
g56
sg233
Nsg234
Nsg235
Nsbag3
(g4
g5
NtRp2876
(dp2877
g8
g10
sg213
Nsg214
(dp2878
sg216
Nsg26
g28
sg217
(lp2879
I23
aI10
asg219
Nsg220
VMekhilta DeRabbi Shimon Bar Yochai 23:10
p2880
sg222
(lp2881
sg224
g154
sg225
Nsg226
(lp2882
I23
aI10
asg228
Nsg229
g2880
sg230
(lp2883
sg232
g56
sg233
Nsg234
Nsg235
Nsbag3
(g4
g5
NtRp2884
(dp2885
g8
g10
sg213
Nsg214
(dp2886
sg216
Nsg26
g28
sg217
(lp2887
I23
aI11
asg219
Nsg220
VMekhilta DeRabbi Shimon Bar Yochai 23:11
p2888
sg222
(lp2889
sg224
g154
sg225
Nsg226
(lp2890
I23
aI11
asg228
Nsg229
g2888
sg230
(lp2891
sg232
g56
sg233
Nsg234
Nsg235
Nsbag3
(g4
g5
NtRp2892
(dp2893
g8
g10
sg213
Nsg214
(dp2894
sg216
Nsg26
g28
sg217
(lp2895
I23
aI12
asg219
Nsg220
VMekhilta DeRabbi Shimon Bar Yochai 23:12
p2896
sg222
(lp2897
sg224
g154
sg225
Nsg226
(lp2898
I23
aI12
asg228
Nsg229
g2896
sg230
(lp2899
sg232
g56
sg233
Nsg234
Nsg235
Nsbag3
(g4
g5
NtRp2900
(dp2901
g8
g10
sg213
Nsg214
(dp2902
sg216
Nsg26
g28
sg217
(lp2903
I23
aI13
asg219
Nsg220
VMekhilta DeRabbi Shimon Bar Yochai 23:13
p2904
sg222
(lp2905
sg224
g154
sg225
Nsg226
(lp2906
I23
aI13
asg228
Nsg229
g2904
sg230
(lp2907
sg232
g56
sg233
Nsg234
Nsg235
Nsbag3
(g4
g5
NtRp2908
(dp2909
g8
g10
sg213
Nsg214
(dp2910
sg216
Nsg26
g28
sg217
(lp2911
I23
aI14
asg219
Nsg220
VMekhilta DeRabbi Shimon Bar Yochai 23:14
p2912
sg222
(lp2913
sg224
g154
sg225
Nsg226
(lp2914
I23
aI14
asg228
Nsg229
g2912
sg230
(lp2915
sg232
g56
sg233
Nsg234
Nsg235
Nsbag3
(g4
g5
NtRp2916
(dp2917
g8
g10
sg213
Nsg214
(dp2918
sg216
Nsg26
g28
sg217
(lp2919
I23
aI15
asg219
Nsg220
VMekhilta DeRabbi Shimon Bar Yochai 23:15
p2920
sg222
(lp2921
sg224
g154
sg225
Nsg226
(lp2922
I23
aI15
asg228
Nsg229
g2920
sg230
(lp2923
sg232
g56
sg233
Nsg234
Nsg235
Nsbag3
(g4
g5
NtRp2924
(dp2925
g8
g10
sg213
Nsg214
(dp2926
sg216
Nsg26
g28
sg217
(lp2927
I23
aI16
asg219
Nsg220
VMekhilta DeRabbi Shimon Bar Yochai 23:16
p2928
sg222
(lp2929
sg224
g154
sg225
Nsg226
(lp2930
I23
aI16
asg228
Nsg229
g2928
sg230
(lp2931
sg232
g56
sg233
Nsg234
Nsg235
Nsbag3
(g4
g5
NtRp2932
(dp2933
g8
g10
sg213
Nsg214
(dp2934
sg216
Nsg26
g28
sg217
(lp2935
I23
aI17
asg219
Nsg220
VMekhilta DeRabbi Shimon Bar Yochai 23:17
p2936
sg222
(lp2937
sg224
g154
sg225
Nsg226
(lp2938
I23
aI17
asg228
Nsg229
g2936
sg230
(lp2939
sg232
g56
sg233
Nsg234
Nsg235
Nsbag3
(g4
g5
NtRp2940
(dp2941
g8
g10
sg213
Nsg214
(dp2942
sg216
Nsg26
g28
sg217
(lp2943
I31
aI1
asg219
Nsg220
VMekhilta DeRabbi Shimon Bar Yochai 31:1
p2944
sg222
(lp2945
sg224
g154
sg225
Nsg226
(lp2946
I31
aI1
asg228
Nsg229
g2944
sg230
(lp2947
sg232
g56
sg233
Nsg234
Nsg235
Nsbag3
(g4
g5
NtRp2948
(dp2949
g8
g10
sg213
Nsg214
(dp2950
sg216
Nsg26
g28
sg217
(lp2951
I31
aI2
asg219
Nsg220
VMekhilta DeRabbi Shimon Bar Yochai 31:2
p2952
sg222
(lp2953
sg224
g154
sg225
Nsg226
(lp2954
I31
aI2
asg228
Nsg229
g2952
sg230
(lp2955
sg232
g56
sg233
Nsg234
Nsg235
Nsbag3
(g4
g5
NtRp2956
(dp2957
g8
g10
sg213
Nsg214
(dp2958
sg216
Nsg26
g28
sg217
(lp2959
I31
aI3
asg219
Nsg220
VMekhilta DeRabbi Shimon Bar Yochai 31:3
p2960
sg222
(lp2961
sg224
g154
sg225
Nsg226
(lp2962
I31
aI3
asg228
Nsg229
g2960
sg230
(lp2963
sg232
g56
sg233
Nsg234
Nsg235
Nsbag3
(g4
g5
NtRp2964
(dp2965
g8
g10
sg213
Nsg214
(dp2966
sg216
Nsg26
g28
sg217
(lp2967
I31
aI4
asg219
Nsg220
VMekhilta DeRabbi Shimon Bar Yochai 31:4
p2968
sg222
(lp2969
sg224
g154
sg225
Nsg226
(lp2970
I31
aI4
asg228
Nsg229
g2968
sg230
(lp2971
sg232
g56
sg233
Nsg234
Nsg235
Nsbag3
(g4
g5
NtRp2972
(dp2973
g8
g10
sg213
Nsg214
(dp2974
sg216
Nsg26
g28
sg217
(lp2975
I31
aI5
asg219
Nsg220
VMekhilta DeRabbi Shimon Bar Yochai 31:5
p2976
sg222
(lp2977
sg224
g154
sg225
Nsg226
(lp2978
I31
aI5
asg228
Nsg229
g2976
sg230
(lp2979
sg232
g56
sg233
Nsg234
Nsg235
Nsbag3
(g4
g5
NtRp2980
(dp2981
g8
g10
sg213
Nsg214
(dp2982
sg216
Nsg26
g28
sg217
(lp2983
I31
aI6
asg219
Nsg220
VMekhilta DeRabbi Shimon Bar Yochai 31:6
p2984
sg222
(lp2985
sg224
g154
sg225
Nsg226
(lp2986
I31
aI6
asg228
Nsg229
g2984
sg230
(lp2987
sg232
g56
sg233
Nsg234
Nsg235
Nsbag3
(g4
g5
NtRp2988
(dp2989
g8
g10
sg213
Nsg214
(dp2990
sg216
Nsg26
g28
sg217
(lp2991
I34
aI1
asg219
Nsg220
VMekhilta DeRabbi Shimon Bar Yochai 34:1
p2992
sg222
(lp2993
sg224
g154
sg225
Nsg226
(lp2994
I34
aI1
asg228
Nsg229
g2992
sg230
(lp2995
sg232
g56
sg233
Nsg234
Nsg235
Nsbag3
(g4
g5
NtRp2996
(dp2997
g8
g10
sg213
Nsg214
(dp2998
sg216
Nsg26
g28
sg217
(lp2999
I34
aI2
asg219
Nsg220
VMekhilta DeRabbi Shimon Bar Yochai 34:2
p3000
sg222
(lp3001
sg224
g154
sg225
Nsg226
(lp3002
I34
aI2
asg228
Nsg229
g3000
sg230
(lp3003
sg232
g56
sg233
Nsg234
Nsg235
Nsbag3
(g4
g5
NtRp3004
(dp3005
g8
g10
sg213
Nsg214
(dp3006
sg216
Nsg26
g28
sg217
(lp3007
I34
aI3
asg219
Nsg220
VMekhilta DeRabbi Shimon Bar Yochai 34:3
p3008
sg222
(lp3009
sg224
g154
sg225
Nsg226
(lp3010
I34
aI3
asg228
Nsg229
g3008
sg230
(lp3011
sg232
g56
sg233
Nsg234
Nsg235
Nsbag3
(g4
g5
NtRp3012
(dp3013
g8
g10
sg213
Nsg214
(dp3014
sg216
Nsg26
g28
sg217
(lp3015
I34
aI4
asg219
Nsg220
VMekhilta DeRabbi Shimon Bar Yochai 34:4
p3016
sg222
(lp3017
sg224
g154
sg225
Nsg226
(lp3018
I34
aI4
asg228
Nsg229
g3016
sg230
(lp3019
sg232
g56
sg233
Nsg234
Nsg235
Nsbag3
(g4
g5
NtRp3020
(dp3021
g8
g10
sg213
Nsg214
(dp3022
sg216
Nsg26
g28
sg217
(lp3023
I34
aI5
asg219
Nsg220
VMekhilta DeRabbi Shimon Bar Yochai 34:5
p3024
sg222
(lp3025
sg224
g154
sg225
Nsg226
(lp3026
I34
aI5
asg228
Nsg229
g3024
sg230
(lp3027
sg232
g56
sg233
Nsg234
Nsg235
Nsbag3
(g4
g5
NtRp3028
(dp3029
g8
g10
sg213
Nsg214
(dp3030
sg216
Nsg26
g28
sg217
(lp3031
I34
aI6
asg219
Nsg220
VMekhilta DeRabbi Shimon Bar Yochai 34:6
p3032
sg222
(lp3033
sg224
g154
sg225
Nsg226
(lp3034
I34
aI6
asg228
Nsg229
g3032
sg230
(lp3035
sg232
g56
sg233
Nsg234
Nsg235
Nsbag3
(g4
g5
NtRp3036
(dp3037
g8
g10
sg213
Nsg214
(dp3038
sg216
Nsg26
g28
sg217
(lp3039
I34
aI7
asg219
Nsg220
VMekhilta DeRabbi Shimon Bar Yochai 34:7
p3040
sg222
(lp3041
sg224
g154
sg225
Nsg226
(lp3042
I34
aI7
asg228
Nsg229
g3040
sg230
(lp3043
sg232
g56
sg233
Nsg234
Nsg235
Nsbag3
(g4
g5
NtRp3044
(dp3045
g8
g10
sg213
Nsg214
(dp3046
sg216
Nsg26
g28
sg217
(lp3047
I34
aI8
asg219
Nsg220
VMekhilta DeRabbi Shimon Bar Yochai 34:8
p3048
sg222
(lp3049
sg224
g154
sg225
Nsg226
(lp3050
I34
aI8
asg228
Nsg229
g3048
sg230
(lp3051
sg232
g56
sg233
Nsg234
Nsg235
Nsbag3
(g4
g5
NtRp3052
(dp3053
g8
g10
sg213
Nsg214
(dp3054
sg216
Nsg26
g28
sg217
(lp3055
I34
aI9
asg219
Nsg220
VMekhilta DeRabbi Shimon Bar Yochai 34:9
p3056
sg222
(lp3057
sg224
g154
sg225
Nsg226
(lp3058
I34
aI9
asg228
Nsg229
g3056
sg230
(lp3059
sg232
g56
sg233
Nsg234
Nsg235
Nsbag3
(g4
g5
NtRp3060
(dp3061
g8
g10
sg213
Nsg214
(dp3062
sg216
Nsg26
g28
sg217
(lp3063
I34
aI10
asg219
Nsg220
VMekhilta DeRabbi Shimon Bar Yochai 34:10
p3064
sg222
(lp3065
sg224
g154
sg225
Nsg226
(lp3066
I34
aI10
asg228
Nsg229
g3064
sg230
(lp3067
sg232
g56
sg233
Nsg234
Nsg235
Nsbag3
(g4
g5
NtRp3068
(dp3069
g8
g10
sg213
Nsg214
(dp3070
sg216
Nsg26
g28
sg217
(lp3071
I34
aI11
asg219
Nsg220
VMekhilta DeRabbi Shimon Bar Yochai 34:11
p3072
sg222
(lp3073
sg224
g154
sg225
Nsg226
(lp3074
I34
aI11
asg228
Nsg229
g3072
sg230
(lp3075
sg232
g56
sg233
Nsg234
Nsg235
Nsbag3
(g4
g5
NtRp3076
(dp3077
g8
g10
sg213
Nsg214
(dp3078
sg216
Nsg26
g28
sg217
(lp3079
I34
aI12
asg219
Nsg220
VMekhilta DeRabbi Shimon Bar Yochai 34:12
p3080
sg222
(lp3081
sg224
g154
sg225
Nsg226
(lp3082
I34
aI12
asg228
Nsg229
g3080
sg230
(lp3083
sg232
g56
sg233
Nsg234
Nsg235
Nsbag3
(g4
g5
NtRp3084
(dp3085
g8
g10
sg213
Nsg214
(dp3086
sg216
Nsg26
g28
sg217
(lp3087
I34
aI13
asg219
Nsg220
VMekhilta DeRabbi Shimon Bar Yochai 34:13
p3088
sg222
(lp3089
sg224
g154
sg225
Nsg226
(lp3090
I34
aI13
asg228
Nsg229
g3088
sg230
(lp3091
sg232
g56
sg233
Nsg234
Nsg235
Nsbag3
(g4
g5
NtRp3092
(dp3093
g8
g10
sg213
Nsg214
(dp3094
sg216
Nsg26
g28
sg217
(lp3095
I34
aI14
asg219
Nsg220
VMekhilta DeRabbi Shimon Bar Yochai 34:14
p3096
sg222
(lp3097
sg224
g154
sg225
Nsg226
(lp3098
I34
aI14
asg228
Nsg229
g3096
sg230
(lp3099
sg232
g56
sg233
Nsg234
Nsg235
Nsbag3
(g4
g5
NtRp3100
(dp3101
g8
g10
sg213
Nsg214
(dp3102
sg216
Nsg26
g28
sg217
(lp3103
I34
aI15
asg219
Nsg220
VMekhilta DeRabbi Shimon Bar Yochai 34:15
p3104
sg222
(lp3105
sg224
g154
sg225
Nsg226
(lp3106
I34
aI15
asg228
Nsg229
g3104
sg230
(lp3107
sg232
g56
sg233
Nsg234
Nsg235
Nsbag3
(g4
g5
NtRp3108
(dp3109
g8
g10
sg213
Nsg214
(dp3110
sg216
Nsg26
g28
sg217
(lp3111
I35
aI1
asg219
Nsg220
VMekhilta DeRabbi Shimon Bar Yochai 35:1
p3112
sg222
(lp3113
sg224
g154
sg225
Nsg226
(lp3114
I35
aI1
asg228
Nsg229
g3112
sg230
(lp3115
sg232
g56
sg233
Nsg234
Nsg235
Nsbag3
(g4
g5
NtRp3116
(dp3117
g8
g10
sg213
Nsg214
(dp3118
sg216
Nsg26
g28
sg217
(lp3119
I35
aI2
asg219
Nsg220
VMekhilta DeRabbi Shimon Bar Yochai 35:2
p3120
sg222
(lp3121
sg224
g154
sg225
Nsg226
(lp3122
I35
aI2
asg228
Nsg229
g3120
sg230
(lp3123
sg232
g56
sg233
Nsg234
Nsg235
Nsbag3
(g4
g5
NtRp3124
(dp3125
g8
g10
sg213
Nsg214
(dp3126
sg216
Nsg26
g28
sg217
(lp3127
I35
aI3
asg219
Nsg220
VMekhilta DeRabbi Shimon Bar Yochai 35:3
p3128
sg222
(lp3129
sg224
g154
sg225
Nsg226
(lp3130
I35
aI3
asg228
Nsg229
g3128
sg230
(lp3131
sg232
g56
sg233
Nsg234
Nsg235
Nsbag3
(g4
g5
NtRp3132
(dp3133
g8
g176
sg213
Nsg214
(dp3134
sg216
Nsg26
g28
sg217
(lp3135
I3
aI1
asg219
Nsg220
VMekhilta DeRabbi Shimon Bar Yochai, Additions 3:1
p3136
sg222
(lp3137
sg224
g194
sg225
Nsg226
(lp3138
I3
aI1
asg228
Nsg229
g3136
sg230
(lp3139
sg232
g56
sg233
Nsg234
Nsg235
Nsbag3
(g4
g5
NtRp3140
(dp3141
g8
g176
sg213
Nsg214
(dp3142
sg216
Nsg26
g28
sg217
(lp3143
I3
aI2
asg219
Nsg220
VMekhilta DeRabbi Shimon Bar Yochai, Additions 3:2
p3144
sg222
(lp3145
sg224
g194
sg225
Nsg226
(lp3146
I3
aI2
asg228
Nsg229
g3144
sg230
(lp3147
sg232
g56
sg233
Nsg234
Nsg235
Nsbag3
(g4
g5
NtRp3148
(dp3149
g8
g176
sg213
Nsg214
(dp3150
sg216
Nsg26
g28
sg217
(lp3151
I3
aI3
asg219
Nsg220
VMekhilta DeRabbi Shimon Bar Yochai, Additions 3:3
p3152
sg222
(lp3153
sg224
g194
sg225
Nsg226
(lp3154
I3
aI3
asg228
Nsg229
g3152
sg230
(lp3155
sg232
g56
sg233
Nsg234
Nsg235
Nsbag3
(g4
g5
NtRp3156
(dp3157
g8
g176
sg213
Nsg214
(dp3158
sg216
Nsg26
g28
sg217
(lp3159
I3
aI4
asg219
Nsg220
VMekhilta DeRabbi Shimon Bar Yochai, Additions 3:4
p3160
sg222
(lp3161
sg224
g194
sg225
Nsg226
(lp3162
I3
aI4
asg228
Nsg229
g3160
sg230
(lp3163
sg232
g56
sg233
Nsg234
Nsg235
Nsbag3
(g4
g5
NtRp3164
(dp3165
g8
g176
sg213
Nsg214
(dp3166
sg216
Nsg26
g28
sg217
(lp3167
I3
aI5
asg219
Nsg220
VMekhilta DeRabbi Shimon Bar Yochai, Additions 3:5
p3168
sg222
(lp3169
sg224
g194
sg225
Nsg226
(lp3170
I3
aI5
asg228
Nsg229
g3168
sg230
(lp3171
sg232
g56
sg233
Nsg234
Nsg235
Nsbag3
(g4
g5
NtRp3172
(dp3173
g8
g176
sg213
Nsg214
(dp3174
sg216
Nsg26
g28
sg217
(lp3175
I3
aI6
asg219
Nsg220
VMekhilta DeRabbi Shimon Bar Yochai, Additions 3:6
p3176
sg222
(lp3177
sg224
g194
sg225
Nsg226
(lp3178
I3
aI6
asg228
Nsg229
g3176
sg230
(lp3179
sg232
g56
sg233
Nsg234
Nsg235
Nsbag3
(g4
g5
NtRp3180
(dp3181
g8
g176
sg213
Nsg214
(dp3182
sg216
Nsg26
g28
sg217
(lp3183
I3
aI7
asg219
Nsg220
VMekhilta DeRabbi Shimon Bar Yochai, Additions 3:7
p3184
sg222
(lp3185
sg224
g194
sg225
Nsg226
(lp3186
I3
aI7
asg228
Nsg229
g3184
sg230
(lp3187
sg232
g56
sg233
Nsg234
Nsg235
Nsbag3
(g4
g5
NtRp3188
(dp3189
g8
g176
sg213
Nsg214
(dp3190
sg216
Nsg26
g28
sg217
(lp3191
I3
aI8
asg219
Nsg220
VMekhilta DeRabbi Shimon Bar Yochai, Additions 3:8
p3192
sg222
(lp3193
sg224
g194
sg225
Nsg226
(lp3194
I3
aI8
asg228
Nsg229
g3192
sg230
(lp3195
sg232
g56
sg233
Nsg234
Nsg235
Nsbag3
(g4
g5
NtRp3196
(dp3197
g8
g176
sg213
Nsg214
(dp3198
sg216
Nsg26
g28
sg217
(lp3199
I4
aI1
asg219
Nsg220
VMekhilta DeRabbi Shimon Bar Yochai, Additions 4:1
p3200
sg222
(lp3201
sg224
g194
sg225
Nsg226
(lp3202
I4
aI1
asg228
Nsg229
g3200
sg230
(lp3203
sg232
g56
sg233
Nsg234
Nsg235
Nsbag3
(g4
g5
NtRp3204
(dp3205
g8
g176
sg213
Nsg214
(dp3206
sg216
Nsg26
g28
sg217
(lp3207
I5
aI1
asg219
Nsg220
VMekhilta DeRabbi Shimon Bar Yochai, Additions 5:1
p3208
sg222
(lp3209
sg224
g194
sg225
Nsg226
(lp3210
I5
aI1
asg228
Nsg229
g3208
sg230
(lp3211
sg232
g56
sg233
Nsg234
Nsg235
Nsbag3
(g4
g5
NtRp3212
(dp3213
g8
g176
sg213
Nsg214
(dp3214
sg216
Nsg26
g28
sg217
(lp3215
I6
aI1
asg219
Nsg220
VMekhilta DeRabbi Shimon Bar Yochai, Additions 6:1
p3216
sg222
(lp3217
sg224
g194
sg225
Nsg226
(lp3218
I6
aI1
asg228
Nsg229
g3216
sg230
(lp3219
sg232
g56
sg233
Nsg234
Nsg235
Nsbag3
(g4
g5
NtRp3220
(dp3221
g8
g176
sg213
Nsg214
(dp3222
sg216
Nsg26
g28
sg217
(lp3223
I6
aI2
asg219
Nsg220
VMekhilta DeRabbi Shimon Bar Yochai, Additions 6:2
p3224
sg222
(lp3225
sg224
g194
sg225
Nsg226
(lp3226
I6
aI2
asg228
Nsg229
g3224
sg230
(lp3227
sg232
g56
sg233
Nsg234
Nsg235
Nsbag3
(g4
g5
NtRp3228
(dp3229
g8
g176
sg213
Nsg214
(dp3230
sg216
Nsg26
g28
sg217
(lp3231
I6
aI3
asg219
Nsg220
VMekhilta DeRabbi Shimon Bar Yochai, Additions 6:3
p3232
sg222
(lp3233
sg224
g194
sg225
Nsg226
(lp3234
I6
aI3
asg228
Nsg229
g3232
sg230
(lp3235
sg232
g56
sg233
Nsg234
Nsg235
Nsbag3
(g4
g5
NtRp3236
(dp3237
g8
g176
sg213
Nsg214
(dp3238
sg216
Nsg26
g28
sg217
(lp3239
I6
aI4
asg219
Nsg220
VMekhilta DeRabbi Shimon Bar Yochai, Additions 6:4
p3240
sg222
(lp3241
sg224
g194
sg225
Nsg226
(lp3242
I6
aI4
asg228
Nsg229
g3240
sg230
(lp3243
sg232
g56
sg233
Nsg234
Nsg235
Nsbag3
(g4
g5
NtRp3244
(dp3245
g8
g176
sg213
Nsg214
(dp3246
sg216
Nsg26
g28
sg217
(lp3247
I8
aI1
asg219
Nsg220
VMekhilta DeRabbi Shimon Bar Yochai, Additions 8:1
p3248
sg222
(lp3249
sg224
g194
sg225
Nsg226
(lp3250
I8
aI1
asg228
Nsg229
g3248
sg230
(lp3251
sg232
g56
sg233
Nsg234
Nsg235
Nsbag3
(g4
g5
NtRp3252
(dp3253
g8
g176
sg213
Nsg214
(dp3254
sg216
Nsg26
g28
sg217
(lp3255
I8
aI2
asg219
Nsg220
VMekhilta DeRabbi Shimon Bar Yochai, Additions 8:2
p3256
sg222
(lp3257
sg224
g194
sg225
Nsg226
(lp3258
I8
aI2
asg228
Nsg229
g3256
sg230
(lp3259
sg232
g56
sg233
Nsg234
Nsg235
Nsbag3
(g4
g5
NtRp3260
(dp3261
g8
g176
sg213
Nsg214
(dp3262
sg216
Nsg26
g28
sg217
(lp3263
I9
aI1
asg219
Nsg220
VMekhilta DeRabbi Shimon Bar Yochai, Additions 9:1
p3264
sg222
(lp3265
sg224
g194
sg225
Nsg226
(lp3266
I9
aI1
asg228
Nsg229
g3264
sg230
(lp3267
sg232
g56
sg233
Nsg234
Nsg235
Nsbag3
(g4
g5
NtRp3268
(dp3269
g8
g176
sg213
Nsg214
(dp3270
sg216
Nsg26
g28
sg217
(lp3271
I10
aI1
asg219
Nsg220
VMekhilta DeRabbi Shimon Bar Yochai, Additions 10:1
p3272
sg222
(lp3273
sg224
g194
sg225
Nsg226
(lp3274
I10
aI1
asg228
Nsg229
g3272
sg230
(lp3275
sg232
g56
sg233
Nsg234
Nsg235
Nsbag3
(g4
g5
NtRp3276
(dp3277
g8
g176
sg213
Nsg214
(dp3278
sg216
Nsg26
g28
sg217
(lp3279
I10
aI2
asg219
Nsg220
VMekhilta DeRabbi Shimon Bar Yochai, Additions 10:2
p3280
sg222
(lp3281
sg224
g194
sg225
Nsg226
(lp3282
I10
aI2
asg228
Nsg229
g3280
sg230
(lp3283
sg232
g56
sg233
Nsg234
Nsg235
NsbaI75548
t.