((lp1
I0
aI62
aI104
aI154
aI220
aI250
aI282
aI390
aI410
aI506
aI556
aI626
aI656
aI684
aI729
a(lp2
ccopy_reg
_reconstructor
p3
(csefaria.model.text
Ref
p4
c__builtin__
object
p5
NtRp6
(dp7
S'index_node'
p8
g3
(csefaria.model.schema
JaggedArrayNode
p9
g5
NtRp10
(dp11
S'_address'
p12
(lp13
VMishnah Kinnim
p14
asS'_full_titles'
p15
(dp16
sVnodeType
p17
VJaggedArrayNode
p18
sS'parent'
p19
NsVaddressTypes
p20
(lp21
VPerek
p22
aVMishnah
p23
asS'default'
p24
I00
sS'index'
p25
g3
(csefaria.model.text
Index
p26
g5
NtRp27
(dp28
S'_id'
p29
g3
(cbson.objectid
ObjectId
p30
g5
NtRp31
S'NJ\xb8\x8f\xed\xba\xb4X3\x00\x00Y'
p32
bsS'pkeys_orig_values'
p33
(dp34
S'title'
p35
VMishnah Kinnim
p36
ssS'pubDate'
p37
V1492
p38
sS'compDate'
p39
V210
p40
sS'pubPlace'
p41
VNaples
p42
sS'compPlace'
p43
VTalmudic Israel
p44
sS'enDesc'
p45
VThe Mishnah is the first major written redaction of the Jewish oral traditions known as the Oral Torah. The Mishnah was redacted by Rabbi Yehudah Ha-Nasi before his death around 217 CE, in a time when, according to the Talmud, the persecution of the Jews and the passage of time raised the possibility that the details of the oral traditions of the Pharisees from the Second Temple period (536 BCE \u2013 70 CE) would be forgotten. The majority of the Mishnah is written in Mishnaic Hebrew, while some parts are Aramaic. The Mishnah consists of six orders (sedarim, singular seder), each containing 7\u201312 tractates (masekhtot, singular masekhet), numbering 63 in total and further subdivided into chapters and paragraphs or verses. The word Mishnah can also indicate a single paragraph or a verse of the work itself, i.e. the smallest unit of structure in the Mishnah. For this reason the whole work is sometimes called by the plural, Mishnayot. Kinnim (Nests) belongs to the fifth order, Kodshim (Holy things) and discusses the complex laws for situations where the mixing of bird-offerings occurred. It has three chapters.
p46
sS'order'
p47
(lp48
I51
aI11
asS'era'
p49
VT
sS'struct_objs'
p50
(dp51
sS'nodes'
p52
g10
sS'errorMargin'
p53
V20
p54
sS'_title'
p55
g36
sS'categories'
p56
(lp57
VMishnah
p58
aVSeder Kodashim
p59
asS'schema'
p60
(dp61
g17
g18
sg20
g21
sVlengths
p62
(lp63
I3
aI16
asVdepth
p64
I2
sVtitles
p65
(lp66
(dp67
Vlang
p68
Ven
p69
sVtext
p70
VM. Kinnim
p71
sa(dp72
Vlang
p73
Ven
p74
sVtext
p75
VMishna Kinnim
p76
sa(dp77
Vlang
p78
Ven
p79
sVtext
p80
VM Kinnim
p81
sa(dp82
Vlang
p83
Vhe
p84
sVtext
p85
V\u05de\u05e9\u05e0\u05d4 \u05e7\u05d9\u05e0\u05d9\u05dd
p86
sVprimary
p87
I01
sa(dp88
Vlang
p89
Vhe
p90
sVtext
p91
V\u05e7\u05d9\u05e0\u05d9\u05dd
p92
sa(dp93
Vlang
p94
Vhe
p95
sVtext
p96
V\u05e7\u05e0\u05d9\u05dd
p97
sa(dp98
Vlang
p99
Vhe
p100
sVtext
p101
V\u05de\u05e9\u05e0\u05d4 \u05e7\u05e0\u05d9\u05dd
p102
sa(dp103
Vlang
p104
Ven
p105
sVtext
p106
VMishnah Kinnim
p107
sVprimary
p108
I01
sasVkey
p109
g14
sVsectionNames
p110
(lp111
VChapter
p112
aVMishna
p113
assbsS'_primary_title'
p114
(dp115
sS'title_group'
p116
g3
(csefaria.model.schema
TitleGroup
p117
g5
NtRp118
(dp119
g114
(dp120
S'en'
p121
g107
ssS'titles'
p122
g66
sbsS'_addressTypes'
p123
(lp124
g3
(csefaria.model.schema
AddressPerek
p125
g5
NtRp126
(dp127
S'length'
p128
I3
sg47
I0
sbag3
(csefaria.model.schema
AddressMishnah
p129
g5
NtRp130
(dp131
g128
Nsg47
I1
sbasS'sharedTitle'
p132
Nsg62
g63
sg64
I2
sS'_full_title'
p133
(dp134
g121
g107
ssS'key'
p135
g14
sS'checkFirst'
p136
NsS'_regexes'
p137
(dp138
sS'_leaf_nodes'
p139
(lp140
sg110
g111
sS'children'
p141
(lp142
sbsS'_range_index'
p143
NsS'_context'
p144
(dp145
sS'_padded'
p146
Nsg25
g27
sS'sections'
p147
(lp148
I1
aI1
asS'_first_spanned_ref'
p149
NsS'tref'
p150
VMishnah Kinnim 1:1
p151
sS'_spanned_refs'
p152
(lp153
sS'book'
p154
g107
sS'_range_depth'
p155
NsS'toSections'
p156
(lp157
I1
aI1
asS'_url'
p158
NsS'_normal'
p159
g151
sS'_ranged_refs'
p160
(lp161
sS'type'
p162
g58
sS'_prev'
p163
NsS'_he_normal'
p164
NsS'_next'
p165
Nsbag3
(g4
g5
NtRp166
(dp167
g8
g10
sg143
Nsg144
(dp168
sg146
Nsg25
g27
sg147
(lp169
I1
aI2
asg149
Nsg150
VMishnah Kinnim 1:2
p170
sg152
(lp171
sg154
g107
sg155
Nsg156
(lp172
I1
aI2
asg158
Nsg159
g170
sg160
(lp173
sg162
g58
sg163
Nsg164
Nsg165
Nsbag3
(g4
g5
NtRp174
(dp175
g8
g10
sg143
Nsg144
(dp176
sg146
Nsg25
g27
sg147
(lp177
I1
aI3
asg149
Nsg150
VMishnah Kinnim 1:3
p178
sg152
(lp179
sg154
g107
sg155
Nsg156
(lp180
I1
aI3
asg158
Nsg159
g178
sg160
(lp181
sg162
g58
sg163
Nsg164
Nsg165
Nsbag3
(g4
g5
NtRp182
(dp183
g8
g10
sg143
Nsg144
(dp184
sg146
Nsg25
g27
sg147
(lp185
I1
aI4
asg149
Nsg150
VMishnah Kinnim 1:4
p186
sg152
(lp187
sg154
g107
sg155
Nsg156
(lp188
I1
aI4
asg158
Nsg159
g186
sg160
(lp189
sg162
g58
sg163
Nsg164
Nsg165
Nsbag3
(g4
g5
NtRp190
(dp191
g8
g10
sg143
Nsg144
(dp192
sg146
Nsg25
g27
sg147
(lp193
I2
aI1
asg149
Nsg150
VMishnah Kinnim 2:1
p194
sg152
(lp195
sg154
g107
sg155
Nsg156
(lp196
I2
aI1
asg158
Nsg159
g194
sg160
(lp197
sg162
g58
sg163
Nsg164
Nsg165
Nsbag3
(g4
g5
NtRp198
(dp199
g8
g10
sg143
Nsg144
(dp200
sg146
Nsg25
g27
sg147
(lp201
I2
aI2
asg149
Nsg150
VMishnah Kinnim 2:2
p202
sg152
(lp203
sg154
g107
sg155
Nsg156
(lp204
I2
aI2
asg158
Nsg159
g202
sg160
(lp205
sg162
g58
sg163
Nsg164
Nsg165
Nsbag3
(g4
g5
NtRp206
(dp207
g8
g10
sg143
Nsg144
(dp208
sg146
Nsg25
g27
sg147
(lp209
I2
aI3
asg149
Nsg150
VMishnah Kinnim 2:3
p210
sg152
(lp211
sg154
g107
sg155
Nsg156
(lp212
I2
aI3
asg158
Nsg159
g210
sg160
(lp213
sg162
g58
sg163
Nsg164
Nsg165
Nsbag3
(g4
g5
NtRp214
(dp215
g8
g10
sg143
Nsg144
(dp216
sg146
Nsg25
g27
sg147
(lp217
I2
aI4
asg149
Nsg150
VMishnah Kinnim 2:4
p218
sg152
(lp219
sg154
g107
sg155
Nsg156
(lp220
I2
aI4
asg158
Nsg159
g218
sg160
(lp221
sg162
g58
sg163
Nsg164
Nsg165
Nsbag3
(g4
g5
NtRp222
(dp223
g8
g10
sg143
Nsg144
(dp224
sg146
Nsg25
g27
sg147
(lp225
I2
aI5
asg149
Nsg150
VMishnah Kinnim 2:5
p226
sg152
(lp227
sg154
g107
sg155
Nsg156
(lp228
I2
aI5
asg158
Nsg159
g226
sg160
(lp229
sg162
g58
sg163
Nsg164
Nsg165
Nsbag3
(g4
g5
NtRp230
(dp231
g8
g10
sg143
Nsg144
(dp232
sg146
Nsg25
g27
sg147
(lp233
I3
aI1
asg149
Nsg150
VMishnah Kinnim 3:1
p234
sg152
(lp235
sg154
g107
sg155
Nsg156
(lp236
I3
aI1
asg158
Nsg159
g234
sg160
(lp237
sg162
g58
sg163
Nsg164
Nsg165
Nsbag3
(g4
g5
NtRp238
(dp239
g8
g10
sg143
Nsg144
(dp240
sg146
Nsg25
g27
sg147
(lp241
I3
aI2
asg149
Nsg150
VMishnah Kinnim 3:2
p242
sg152
(lp243
sg154
g107
sg155
Nsg156
(lp244
I3
aI2
asg158
Nsg159
g242
sg160
(lp245
sg162
g58
sg163
Nsg164
Nsg165
Nsbag3
(g4
g5
NtRp246
(dp247
g8
g10
sg143
Nsg144
(dp248
sg146
Nsg25
g27
sg147
(lp249
I3
aI3
asg149
Nsg150
VMishnah Kinnim 3:3
p250
sg152
(lp251
sg154
g107
sg155
Nsg156
(lp252
I3
aI3
asg158
Nsg159
g250
sg160
(lp253
sg162
g58
sg163
Nsg164
Nsg165
Nsbag3
(g4
g5
NtRp254
(dp255
g8
g10
sg143
Nsg144
(dp256
sg146
Nsg25
g27
sg147
(lp257
I3
aI4
asg149
Nsg150
VMishnah Kinnim 3:4
p258
sg152
(lp259
sg154
g107
sg155
Nsg156
(lp260
I3
aI4
asg158
Nsg159
g258
sg160
(lp261
sg162
g58
sg163
Nsg164
Nsg165
Nsbag3
(g4
g5
NtRp262
(dp263
g8
g10
sg143
Nsg144
(dp264
sg146
Nsg25
g27
sg147
(lp265
I3
aI5
asg149
Nsg150
VMishnah Kinnim 3:5
p266
sg152
(lp267
sg154
g107
sg155
Nsg156
(lp268
I3
aI5
asg158
Nsg159
g266
sg160
(lp269
sg162
g58
sg163
Nsg164
Nsg165
Nsbag3
(g4
g5
NtRp270
(dp271
g8
g10
sg143
Nsg144
(dp272
sg146
Nsg25
g27
sg147
(lp273
I3
aI6
asg149
Nsg150
VMishnah Kinnim 3:6
p274
sg152
(lp275
sg154
g107
sg155
Nsg156
(lp276
I3
aI6
asg158
Nsg159
g274
sg160
(lp277
sg162
g58
sg163
Nsg164
Nsg165
NsbaI904
t.