((lp1
I0
aI57
aI98
aI118
aI189
aI250
aI308
aI341
aI375
aI507
aI528
aI564
aI591
aI633
aI650
aI720
aI739
aI757
aI834
aI913
aI980
aI1121
aI1203
aI1263
aI1307
aI1366
aI1403
aI1425
aI1461
aI1484
aI1537
aI1588
aI1639
aI1692
aI1761
aI1836
aI1915
aI1949
aI1977
aI2033
aI2058
aI2187
aI2246
aI2284
aI2346
aI2411
aI2477
aI2542
aI2595
aI2634
aI2687
aI2828
aI2850
aI2888
aI2921
aI2942
aI3091
aI3161
aI3206
aI3258
aI3298
aI3361
aI3387
aI3451
aI3517
aI3537
aI3562
aI3590
aI3641
aI3705
aI3742
aI3834
aI3862
aI3937
aI3966
aI3987
aI4018
aI4041
aI4074
a(lp2
ccopy_reg
_reconstructor
p3
(csefaria.model.text
Ref
p4
c__builtin__
object
p5
NtRp6
(dp7
S'index_node'
p8
g3
(csefaria.model.schema
JaggedArrayNode
p9
g5
NtRp10
(dp11
S'_address'
p12
(lp13
VMishnah Bava Kamma
p14
asS'_full_titles'
p15
(dp16
sVnodeType
p17
VJaggedArrayNode
p18
sS'parent'
p19
NsVaddressTypes
p20
(lp21
VPerek
p22
aVMishnah
p23
asS'default'
p24
I00
sS'index'
p25
g3
(csefaria.model.text
Index
p26
g5
NtRp27
(dp28
S'_id'
p29
g3
(cbson.objectid
ObjectId
p30
g5
NtRp31
S'NJ\xb8\x8f\xed\xba\xb4X3\x00\x00E'
p32
bsS'pkeys_orig_values'
p33
(dp34
S'title'
p35
VMishnah Bava Kamma
p36
ssS'pubDate'
p37
V1492
p38
sS'compDate'
p39
V210
p40
sS'pubPlace'
p41
VNaples
p42
sS'compPlace'
p43
VTalmudic Israel
p44
sS'enDesc'
p45
VThe Mishnah is the first major written redaction of the Jewish oral traditions known as the Oral Torah. The Mishnah was redacted by Rabbi Yehudah Ha-Nasi before his death around 217 CE, in a time when, according to the Talmud, the persecution of the Jews and the passage of time raised the possibility that the details of the oral traditions of the Pharisees from the Second Temple period (536 BCE \u2013 70 CE) would be forgotten. The majority of the Mishnah is written in Mishnaic Hebrew, while some parts are Aramaic. The Mishnah consists of six orders (sedarim, singular seder), each containing 7\u201312 tractates (masekhtot, singular masekhet), numbering 63 in total and further subdivided into chapters and paragraphs or verses. The word Mishnah can also indicate a single paragraph or a verse of the work itself, i.e. the smallest unit of structure in the Mishnah. For this reason the whole work is sometimes called by the plural, Mishnayot. Bava Kamma (First Gate) belongs to the fourth order, Nezikin (The Order of Damages) and discusses the civil matters, largely damages and compensation. It has ten chapters.
p46
sS'order'
p47
(lp48
I31
aI1
asS'era'
p49
VT
sS'struct_objs'
p50
(dp51
sS'nodes'
p52
g10
sS'errorMargin'
p53
V20
p54
sS'_title'
p55
g36
sS'categories'
p56
(lp57
VMishnah
p58
aVSeder Nezikin
p59
asS'schema'
p60
(dp61
g17
g18
sg20
g21
sVlengths
p62
(lp63
I10
aI79
asVdepth
p64
I2
sVtitles
p65
(lp66
(dp67
Vlang
p68
Ven
p69
sVtext
p70
VM. Bava Kamma
p71
sa(dp72
Vlang
p73
Ven
p74
sVtext
p75
VMishna Bava Kamma
p76
sa(dp77
Vlang
p78
Ven
p79
sVtext
p80
VM Bava Kamma
p81
sa(dp82
Vlang
p83
Vhe
p84
sVtext
p85
V\u05de\u05e9\u05e0\u05d4 \u05d1\u05d1\u05d0 \u05e7\u05de\u05d0
p86
sVprimary
p87
I01
sa(dp88
Vlang
p89
Ven
p90
sVtext
p91
VMishnah Bava Kamma
p92
sVprimary
p93
I01
sasVkey
p94
g14
sVsectionNames
p95
(lp96
VChapter
p97
aVMishna
p98
assbsS'_primary_title'
p99
(dp100
sS'title_group'
p101
g3
(csefaria.model.schema
TitleGroup
p102
g5
NtRp103
(dp104
g99
(dp105
S'en'
p106
g92
ssS'titles'
p107
g66
sbsS'_addressTypes'
p108
(lp109
g3
(csefaria.model.schema
AddressPerek
p110
g5
NtRp111
(dp112
S'length'
p113
I10
sg47
I0
sbag3
(csefaria.model.schema
AddressMishnah
p114
g5
NtRp115
(dp116
g113
Nsg47
I1
sbasS'sharedTitle'
p117
Nsg62
g63
sg64
I2
sS'_full_title'
p118
(dp119
g106
g92
ssS'key'
p120
g14
sS'checkFirst'
p121
NsS'_regexes'
p122
(dp123
sS'_leaf_nodes'
p124
(lp125
sg95
g96
sS'children'
p126
(lp127
sbsS'_range_index'
p128
NsS'_context'
p129
(dp130
sS'_padded'
p131
Nsg25
g27
sS'sections'
p132
(lp133
I1
aI1
asS'_first_spanned_ref'
p134
NsS'tref'
p135
VMishnah Bava Kamma 1:1
p136
sS'_spanned_refs'
p137
(lp138
sS'book'
p139
g92
sS'_range_depth'
p140
NsS'toSections'
p141
(lp142
I1
aI1
asS'_url'
p143
NsS'_normal'
p144
g136
sS'_ranged_refs'
p145
(lp146
sS'type'
p147
g58
sS'_prev'
p148
NsS'_he_normal'
p149
NsS'_next'
p150
Nsbag3
(g4
g5
NtRp151
(dp152
g8
g10
sg128
Nsg129
(dp153
sg131
Nsg25
g27
sg132
(lp154
I1
aI2
asg134
Nsg135
VMishnah Bava Kamma 1:2
p155
sg137
(lp156
sg139
g92
sg140
Nsg141
(lp157
I1
aI2
asg143
Nsg144
g155
sg145
(lp158
sg147
g58
sg148
Nsg149
Nsg150
Nsbag3
(g4
g5
NtRp159
(dp160
g8
g10
sg128
Nsg129
(dp161
sg131
Nsg25
g27
sg132
(lp162
I1
aI3
asg134
Nsg135
VMishnah Bava Kamma 1:3
p163
sg137
(lp164
sg139
g92
sg140
Nsg141
(lp165
I1
aI3
asg143
Nsg144
g163
sg145
(lp166
sg147
g58
sg148
Nsg149
Nsg150
Nsbag3
(g4
g5
NtRp167
(dp168
g8
g10
sg128
Nsg129
(dp169
sg131
Nsg25
g27
sg132
(lp170
I1
aI4
asg134
Nsg135
VMishnah Bava Kamma 1:4
p171
sg137
(lp172
sg139
g92
sg140
Nsg141
(lp173
I1
aI4
asg143
Nsg144
g171
sg145
(lp174
sg147
g58
sg148
Nsg149
Nsg150
Nsbag3
(g4
g5
NtRp175
(dp176
g8
g10
sg128
Nsg129
(dp177
sg131
Nsg25
g27
sg132
(lp178
I2
aI1
asg134
Nsg135
VMishnah Bava Kamma 2:1
p179
sg137
(lp180
sg139
g92
sg140
Nsg141
(lp181
I2
aI1
asg143
Nsg144
g179
sg145
(lp182
sg147
g58
sg148
Nsg149
Nsg150
Nsbag3
(g4
g5
NtRp183
(dp184
g8
g10
sg128
Nsg129
(dp185
sg131
Nsg25
g27
sg132
(lp186
I2
aI2
asg134
Nsg135
VMishnah Bava Kamma 2:2
p187
sg137
(lp188
sg139
g92
sg140
Nsg141
(lp189
I2
aI2
asg143
Nsg144
g187
sg145
(lp190
sg147
g58
sg148
Nsg149
Nsg150
Nsbag3
(g4
g5
NtRp191
(dp192
g8
g10
sg128
Nsg129
(dp193
sg131
Nsg25
g27
sg132
(lp194
I2
aI3
asg134
Nsg135
VMishnah Bava Kamma 2:3
p195
sg137
(lp196
sg139
g92
sg140
Nsg141
(lp197
I2
aI3
asg143
Nsg144
g195
sg145
(lp198
sg147
g58
sg148
Nsg149
Nsg150
Nsbag3
(g4
g5
NtRp199
(dp200
g8
g10
sg128
Nsg129
(dp201
sg131
Nsg25
g27
sg132
(lp202
I2
aI4
asg134
Nsg135
VMishnah Bava Kamma 2:4
p203
sg137
(lp204
sg139
g92
sg140
Nsg141
(lp205
I2
aI4
asg143
Nsg144
g203
sg145
(lp206
sg147
g58
sg148
Nsg149
Nsg150
Nsbag3
(g4
g5
NtRp207
(dp208
g8
g10
sg128
Nsg129
(dp209
sg131
Nsg25
g27
sg132
(lp210
I2
aI5
asg134
Nsg135
VMishnah Bava Kamma 2:5
p211
sg137
(lp212
sg139
g92
sg140
Nsg141
(lp213
I2
aI5
asg143
Nsg144
g211
sg145
(lp214
sg147
g58
sg148
Nsg149
Nsg150
Nsbag3
(g4
g5
NtRp215
(dp216
g8
g10
sg128
Nsg129
(dp217
sg131
Nsg25
g27
sg132
(lp218
I2
aI6
asg134
Nsg135
VMishnah Bava Kamma 2:6
p219
sg137
(lp220
sg139
g92
sg140
Nsg141
(lp221
I2
aI6
asg143
Nsg144
g219
sg145
(lp222
sg147
g58
sg148
Nsg149
Nsg150
Nsbag3
(g4
g5
NtRp223
(dp224
g8
g10
sg128
Nsg129
(dp225
sg131
Nsg25
g27
sg132
(lp226
I3
aI1
asg134
Nsg135
VMishnah Bava Kamma 3:1
p227
sg137
(lp228
sg139
g92
sg140
Nsg141
(lp229
I3
aI1
asg143
Nsg144
g227
sg145
(lp230
sg147
g58
sg148
Nsg149
Nsg150
Nsbag3
(g4
g5
NtRp231
(dp232
g8
g10
sg128
Nsg129
(dp233
sg131
Nsg25
g27
sg132
(lp234
I3
aI2
asg134
Nsg135
VMishnah Bava Kamma 3:2
p235
sg137
(lp236
sg139
g92
sg140
Nsg141
(lp237
I3
aI2
asg143
Nsg144
g235
sg145
(lp238
sg147
g58
sg148
Nsg149
Nsg150
Nsbag3
(g4
g5
NtRp239
(dp240
g8
g10
sg128
Nsg129
(dp241
sg131
Nsg25
g27
sg132
(lp242
I3
aI3
asg134
Nsg135
VMishnah Bava Kamma 3:3
p243
sg137
(lp244
sg139
g92
sg140
Nsg141
(lp245
I3
aI3
asg143
Nsg144
g243
sg145
(lp246
sg147
g58
sg148
Nsg149
Nsg150
Nsbag3
(g4
g5
NtRp247
(dp248
g8
g10
sg128
Nsg129
(dp249
sg131
Nsg25
g27
sg132
(lp250
I3
aI4
asg134
Nsg135
VMishnah Bava Kamma 3:4
p251
sg137
(lp252
sg139
g92
sg140
Nsg141
(lp253
I3
aI4
asg143
Nsg144
g251
sg145
(lp254
sg147
g58
sg148
Nsg149
Nsg150
Nsbag3
(g4
g5
NtRp255
(dp256
g8
g10
sg128
Nsg129
(dp257
sg131
Nsg25
g27
sg132
(lp258
I3
aI5
asg134
Nsg135
VMishnah Bava Kamma 3:5
p259
sg137
(lp260
sg139
g92
sg140
Nsg141
(lp261
I3
aI5
asg143
Nsg144
g259
sg145
(lp262
sg147
g58
sg148
Nsg149
Nsg150
Nsbag3
(g4
g5
NtRp263
(dp264
g8
g10
sg128
Nsg129
(dp265
sg131
Nsg25
g27
sg132
(lp266
I3
aI6
asg134
Nsg135
VMishnah Bava Kamma 3:6
p267
sg137
(lp268
sg139
g92
sg140
Nsg141
(lp269
I3
aI6
asg143
Nsg144
g267
sg145
(lp270
sg147
g58
sg148
Nsg149
Nsg150
Nsbag3
(g4
g5
NtRp271
(dp272
g8
g10
sg128
Nsg129
(dp273
sg131
Nsg25
g27
sg132
(lp274
I3
aI7
asg134
Nsg135
VMishnah Bava Kamma 3:7
p275
sg137
(lp276
sg139
g92
sg140
Nsg141
(lp277
I3
aI7
asg143
Nsg144
g275
sg145
(lp278
sg147
g58
sg148
Nsg149
Nsg150
Nsbag3
(g4
g5
NtRp279
(dp280
g8
g10
sg128
Nsg129
(dp281
sg131
Nsg25
g27
sg132
(lp282
I3
aI8
asg134
Nsg135
VMishnah Bava Kamma 3:8
p283
sg137
(lp284
sg139
g92
sg140
Nsg141
(lp285
I3
aI8
asg143
Nsg144
g283
sg145
(lp286
sg147
g58
sg148
Nsg149
Nsg150
Nsbag3
(g4
g5
NtRp287
(dp288
g8
g10
sg128
Nsg129
(dp289
sg131
Nsg25
g27
sg132
(lp290
I3
aI9
asg134
Nsg135
VMishnah Bava Kamma 3:9
p291
sg137
(lp292
sg139
g92
sg140
Nsg141
(lp293
I3
aI9
asg143
Nsg144
g291
sg145
(lp294
sg147
g58
sg148
Nsg149
Nsg150
Nsbag3
(g4
g5
NtRp295
(dp296
g8
g10
sg128
Nsg129
(dp297
sg131
Nsg25
g27
sg132
(lp298
I3
aI10
asg134
Nsg135
VMishnah Bava Kamma 3:10
p299
sg137
(lp300
sg139
g92
sg140
Nsg141
(lp301
I3
aI10
asg143
Nsg144
g299
sg145
(lp302
sg147
g58
sg148
Nsg149
Nsg150
Nsbag3
(g4
g5
NtRp303
(dp304
g8
g10
sg128
Nsg129
(dp305
sg131
Nsg25
g27
sg132
(lp306
I3
aI11
asg134
Nsg135
VMishnah Bava Kamma 3:11
p307
sg137
(lp308
sg139
g92
sg140
Nsg141
(lp309
I3
aI11
asg143
Nsg144
g307
sg145
(lp310
sg147
g58
sg148
Nsg149
Nsg150
Nsbag3
(g4
g5
NtRp311
(dp312
g8
g10
sg128
Nsg129
(dp313
sg131
Nsg25
g27
sg132
(lp314
I4
aI1
asg134
Nsg135
VMishnah Bava Kamma 4:1
p315
sg137
(lp316
sg139
g92
sg140
Nsg141
(lp317
I4
aI1
asg143
Nsg144
g315
sg145
(lp318
sg147
g58
sg148
Nsg149
Nsg150
Nsbag3
(g4
g5
NtRp319
(dp320
g8
g10
sg128
Nsg129
(dp321
sg131
Nsg25
g27
sg132
(lp322
I4
aI2
asg134
Nsg135
VMishnah Bava Kamma 4:2
p323
sg137
(lp324
sg139
g92
sg140
Nsg141
(lp325
I4
aI2
asg143
Nsg144
g323
sg145
(lp326
sg147
g58
sg148
Nsg149
Nsg150
Nsbag3
(g4
g5
NtRp327
(dp328
g8
g10
sg128
Nsg129
(dp329
sg131
Nsg25
g27
sg132
(lp330
I4
aI3
asg134
Nsg135
VMishnah Bava Kamma 4:3
p331
sg137
(lp332
sg139
g92
sg140
Nsg141
(lp333
I4
aI3
asg143
Nsg144
g331
sg145
(lp334
sg147
g58
sg148
Nsg149
Nsg150
Nsbag3
(g4
g5
NtRp335
(dp336
g8
g10
sg128
Nsg129
(dp337
sg131
Nsg25
g27
sg132
(lp338
I4
aI4
asg134
Nsg135
VMishnah Bava Kamma 4:4
p339
sg137
(lp340
sg139
g92
sg140
Nsg141
(lp341
I4
aI4
asg143
Nsg144
g339
sg145
(lp342
sg147
g58
sg148
Nsg149
Nsg150
Nsbag3
(g4
g5
NtRp343
(dp344
g8
g10
sg128
Nsg129
(dp345
sg131
Nsg25
g27
sg132
(lp346
I4
aI5
asg134
Nsg135
VMishnah Bava Kamma 4:5
p347
sg137
(lp348
sg139
g92
sg140
Nsg141
(lp349
I4
aI5
asg143
Nsg144
g347
sg145
(lp350
sg147
g58
sg148
Nsg149
Nsg150
Nsbag3
(g4
g5
NtRp351
(dp352
g8
g10
sg128
Nsg129
(dp353
sg131
Nsg25
g27
sg132
(lp354
I4
aI6
asg134
Nsg135
VMishnah Bava Kamma 4:6
p355
sg137
(lp356
sg139
g92
sg140
Nsg141
(lp357
I4
aI6
asg143
Nsg144
g355
sg145
(lp358
sg147
g58
sg148
Nsg149
Nsg150
Nsbag3
(g4
g5
NtRp359
(dp360
g8
g10
sg128
Nsg129
(dp361
sg131
Nsg25
g27
sg132
(lp362
I4
aI7
asg134
Nsg135
VMishnah Bava Kamma 4:7
p363
sg137
(lp364
sg139
g92
sg140
Nsg141
(lp365
I4
aI7
asg143
Nsg144
g363
sg145
(lp366
sg147
g58
sg148
Nsg149
Nsg150
Nsbag3
(g4
g5
NtRp367
(dp368
g8
g10
sg128
Nsg129
(dp369
sg131
Nsg25
g27
sg132
(lp370
I4
aI8
asg134
Nsg135
VMishnah Bava Kamma 4:8
p371
sg137
(lp372
sg139
g92
sg140
Nsg141
(lp373
I4
aI8
asg143
Nsg144
g371
sg145
(lp374
sg147
g58
sg148
Nsg149
Nsg150
Nsbag3
(g4
g5
NtRp375
(dp376
g8
g10
sg128
Nsg129
(dp377
sg131
Nsg25
g27
sg132
(lp378
I4
aI9
asg134
Nsg135
VMishnah Bava Kamma 4:9
p379
sg137
(lp380
sg139
g92
sg140
Nsg141
(lp381
I4
aI9
asg143
Nsg144
g379
sg145
(lp382
sg147
g58
sg148
Nsg149
Nsg150
Nsbag3
(g4
g5
NtRp383
(dp384
g8
g10
sg128
Nsg129
(dp385
sg131
Nsg25
g27
sg132
(lp386
I5
aI1
asg134
Nsg135
VMishnah Bava Kamma 5:1
p387
sg137
(lp388
sg139
g92
sg140
Nsg141
(lp389
I5
aI1
asg143
Nsg144
g387
sg145
(lp390
sg147
g58
sg148
Nsg149
Nsg150
Nsbag3
(g4
g5
NtRp391
(dp392
g8
g10
sg128
Nsg129
(dp393
sg131
Nsg25
g27
sg132
(lp394
I5
aI2
asg134
Nsg135
VMishnah Bava Kamma 5:2
p395
sg137
(lp396
sg139
g92
sg140
Nsg141
(lp397
I5
aI2
asg143
Nsg144
g395
sg145
(lp398
sg147
g58
sg148
Nsg149
Nsg150
Nsbag3
(g4
g5
NtRp399
(dp400
g8
g10
sg128
Nsg129
(dp401
sg131
Nsg25
g27
sg132
(lp402
I5
aI3
asg134
Nsg135
VMishnah Bava Kamma 5:3
p403
sg137
(lp404
sg139
g92
sg140
Nsg141
(lp405
I5
aI3
asg143
Nsg144
g403
sg145
(lp406
sg147
g58
sg148
Nsg149
Nsg150
Nsbag3
(g4
g5
NtRp407
(dp408
g8
g10
sg128
Nsg129
(dp409
sg131
Nsg25
g27
sg132
(lp410
I5
aI4
asg134
Nsg135
VMishnah Bava Kamma 5:4
p411
sg137
(lp412
sg139
g92
sg140
Nsg141
(lp413
I5
aI4
asg143
Nsg144
g411
sg145
(lp414
sg147
g58
sg148
Nsg149
Nsg150
Nsbag3
(g4
g5
NtRp415
(dp416
g8
g10
sg128
Nsg129
(dp417
sg131
Nsg25
g27
sg132
(lp418
I5
aI5
asg134
Nsg135
VMishnah Bava Kamma 5:5
p419
sg137
(lp420
sg139
g92
sg140
Nsg141
(lp421
I5
aI5
asg143
Nsg144
g419
sg145
(lp422
sg147
g58
sg148
Nsg149
Nsg150
Nsbag3
(g4
g5
NtRp423
(dp424
g8
g10
sg128
Nsg129
(dp425
sg131
Nsg25
g27
sg132
(lp426
I5
aI6
asg134
Nsg135
VMishnah Bava Kamma 5:6
p427
sg137
(lp428
sg139
g92
sg140
Nsg141
(lp429
I5
aI6
asg143
Nsg144
g427
sg145
(lp430
sg147
g58
sg148
Nsg149
Nsg150
Nsbag3
(g4
g5
NtRp431
(dp432
g8
g10
sg128
Nsg129
(dp433
sg131
Nsg25
g27
sg132
(lp434
I5
aI7
asg134
Nsg135
VMishnah Bava Kamma 5:7
p435
sg137
(lp436
sg139
g92
sg140
Nsg141
(lp437
I5
aI7
asg143
Nsg144
g435
sg145
(lp438
sg147
g58
sg148
Nsg149
Nsg150
Nsbag3
(g4
g5
NtRp439
(dp440
g8
g10
sg128
Nsg129
(dp441
sg131
Nsg25
g27
sg132
(lp442
I6
aI1
asg134
Nsg135
VMishnah Bava Kamma 6:1
p443
sg137
(lp444
sg139
g92
sg140
Nsg141
(lp445
I6
aI1
asg143
Nsg144
g443
sg145
(lp446
sg147
g58
sg148
Nsg149
Nsg150
Nsbag3
(g4
g5
NtRp447
(dp448
g8
g10
sg128
Nsg129
(dp449
sg131
Nsg25
g27
sg132
(lp450
I6
aI2
asg134
Nsg135
VMishnah Bava Kamma 6:2
p451
sg137
(lp452
sg139
g92
sg140
Nsg141
(lp453
I6
aI2
asg143
Nsg144
g451
sg145
(lp454
sg147
g58
sg148
Nsg149
Nsg150
Nsbag3
(g4
g5
NtRp455
(dp456
g8
g10
sg128
Nsg129
(dp457
sg131
Nsg25
g27
sg132
(lp458
I6
aI3
asg134
Nsg135
VMishnah Bava Kamma 6:3
p459
sg137
(lp460
sg139
g92
sg140
Nsg141
(lp461
I6
aI3
asg143
Nsg144
g459
sg145
(lp462
sg147
g58
sg148
Nsg149
Nsg150
Nsbag3
(g4
g5
NtRp463
(dp464
g8
g10
sg128
Nsg129
(dp465
sg131
Nsg25
g27
sg132
(lp466
I6
aI4
asg134
Nsg135
VMishnah Bava Kamma 6:4
p467
sg137
(lp468
sg139
g92
sg140
Nsg141
(lp469
I6
aI4
asg143
Nsg144
g467
sg145
(lp470
sg147
g58
sg148
Nsg149
Nsg150
Nsbag3
(g4
g5
NtRp471
(dp472
g8
g10
sg128
Nsg129
(dp473
sg131
Nsg25
g27
sg132
(lp474
I6
aI5
asg134
Nsg135
VMishnah Bava Kamma 6:5
p475
sg137
(lp476
sg139
g92
sg140
Nsg141
(lp477
I6
aI5
asg143
Nsg144
g475
sg145
(lp478
sg147
g58
sg148
Nsg149
Nsg150
Nsbag3
(g4
g5
NtRp479
(dp480
g8
g10
sg128
Nsg129
(dp481
sg131
Nsg25
g27
sg132
(lp482
I6
aI6
asg134
Nsg135
VMishnah Bava Kamma 6:6
p483
sg137
(lp484
sg139
g92
sg140
Nsg141
(lp485
I6
aI6
asg143
Nsg144
g483
sg145
(lp486
sg147
g58
sg148
Nsg149
Nsg150
Nsbag3
(g4
g5
NtRp487
(dp488
g8
g10
sg128
Nsg129
(dp489
sg131
Nsg25
g27
sg132
(lp490
I7
aI1
asg134
Nsg135
VMishnah Bava Kamma 7:1
p491
sg137
(lp492
sg139
g92
sg140
Nsg141
(lp493
I7
aI1
asg143
Nsg144
g491
sg145
(lp494
sg147
g58
sg148
Nsg149
Nsg150
Nsbag3
(g4
g5
NtRp495
(dp496
g8
g10
sg128
Nsg129
(dp497
sg131
Nsg25
g27
sg132
(lp498
I7
aI2
asg134
Nsg135
VMishnah Bava Kamma 7:2
p499
sg137
(lp500
sg139
g92
sg140
Nsg141
(lp501
I7
aI2
asg143
Nsg144
g499
sg145
(lp502
sg147
g58
sg148
Nsg149
Nsg150
Nsbag3
(g4
g5
NtRp503
(dp504
g8
g10
sg128
Nsg129
(dp505
sg131
Nsg25
g27
sg132
(lp506
I7
aI3
asg134
Nsg135
VMishnah Bava Kamma 7:3
p507
sg137
(lp508
sg139
g92
sg140
Nsg141
(lp509
I7
aI3
asg143
Nsg144
g507
sg145
(lp510
sg147
g58
sg148
Nsg149
Nsg150
Nsbag3
(g4
g5
NtRp511
(dp512
g8
g10
sg128
Nsg129
(dp513
sg131
Nsg25
g27
sg132
(lp514
I7
aI4
asg134
Nsg135
VMishnah Bava Kamma 7:4
p515
sg137
(lp516
sg139
g92
sg140
Nsg141
(lp517
I7
aI4
asg143
Nsg144
g515
sg145
(lp518
sg147
g58
sg148
Nsg149
Nsg150
Nsbag3
(g4
g5
NtRp519
(dp520
g8
g10
sg128
Nsg129
(dp521
sg131
Nsg25
g27
sg132
(lp522
I7
aI5
asg134
Nsg135
VMishnah Bava Kamma 7:5
p523
sg137
(lp524
sg139
g92
sg140
Nsg141
(lp525
I7
aI5
asg143
Nsg144
g523
sg145
(lp526
sg147
g58
sg148
Nsg149
Nsg150
Nsbag3
(g4
g5
NtRp527
(dp528
g8
g10
sg128
Nsg129
(dp529
sg131
Nsg25
g27
sg132
(lp530
I7
aI6
asg134
Nsg135
VMishnah Bava Kamma 7:6
p531
sg137
(lp532
sg139
g92
sg140
Nsg141
(lp533
I7
aI6
asg143
Nsg144
g531
sg145
(lp534
sg147
g58
sg148
Nsg149
Nsg150
Nsbag3
(g4
g5
NtRp535
(dp536
g8
g10
sg128
Nsg129
(dp537
sg131
Nsg25
g27
sg132
(lp538
I7
aI7
asg134
Nsg135
VMishnah Bava Kamma 7:7
p539
sg137
(lp540
sg139
g92
sg140
Nsg141
(lp541
I7
aI7
asg143
Nsg144
g539
sg145
(lp542
sg147
g58
sg148
Nsg149
Nsg150
Nsbag3
(g4
g5
NtRp543
(dp544
g8
g10
sg128
Nsg129
(dp545
sg131
Nsg25
g27
sg132
(lp546
I8
aI1
asg134
Nsg135
VMishnah Bava Kamma 8:1
p547
sg137
(lp548
sg139
g92
sg140
Nsg141
(lp549
I8
aI1
asg143
Nsg144
g547
sg145
(lp550
sg147
g58
sg148
Nsg149
Nsg150
Nsbag3
(g4
g5
NtRp551
(dp552
g8
g10
sg128
Nsg129
(dp553
sg131
Nsg25
g27
sg132
(lp554
I8
aI2
asg134
Nsg135
VMishnah Bava Kamma 8:2
p555
sg137
(lp556
sg139
g92
sg140
Nsg141
(lp557
I8
aI2
asg143
Nsg144
g555
sg145
(lp558
sg147
g58
sg148
Nsg149
Nsg150
Nsbag3
(g4
g5
NtRp559
(dp560
g8
g10
sg128
Nsg129
(dp561
sg131
Nsg25
g27
sg132
(lp562
I8
aI3
asg134
Nsg135
VMishnah Bava Kamma 8:3
p563
sg137
(lp564
sg139
g92
sg140
Nsg141
(lp565
I8
aI3
asg143
Nsg144
g563
sg145
(lp566
sg147
g58
sg148
Nsg149
Nsg150
Nsbag3
(g4
g5
NtRp567
(dp568
g8
g10
sg128
Nsg129
(dp569
sg131
Nsg25
g27
sg132
(lp570
I8
aI4
asg134
Nsg135
VMishnah Bava Kamma 8:4
p571
sg137
(lp572
sg139
g92
sg140
Nsg141
(lp573
I8
aI4
asg143
Nsg144
g571
sg145
(lp574
sg147
g58
sg148
Nsg149
Nsg150
Nsbag3
(g4
g5
NtRp575
(dp576
g8
g10
sg128
Nsg129
(dp577
sg131
Nsg25
g27
sg132
(lp578
I8
aI5
asg134
Nsg135
VMishnah Bava Kamma 8:5
p579
sg137
(lp580
sg139
g92
sg140
Nsg141
(lp581
I8
aI5
asg143
Nsg144
g579
sg145
(lp582
sg147
g58
sg148
Nsg149
Nsg150
Nsbag3
(g4
g5
NtRp583
(dp584
g8
g10
sg128
Nsg129
(dp585
sg131
Nsg25
g27
sg132
(lp586
I8
aI6
asg134
Nsg135
VMishnah Bava Kamma 8:6
p587
sg137
(lp588
sg139
g92
sg140
Nsg141
(lp589
I8
aI6
asg143
Nsg144
g587
sg145
(lp590
sg147
g58
sg148
Nsg149
Nsg150
Nsbag3
(g4
g5
NtRp591
(dp592
g8
g10
sg128
Nsg129
(dp593
sg131
Nsg25
g27
sg132
(lp594
I8
aI7
asg134
Nsg135
VMishnah Bava Kamma 8:7
p595
sg137
(lp596
sg139
g92
sg140
Nsg141
(lp597
I8
aI7
asg143
Nsg144
g595
sg145
(lp598
sg147
g58
sg148
Nsg149
Nsg150
Nsbag3
(g4
g5
NtRp599
(dp600
g8
g10
sg128
Nsg129
(dp601
sg131
Nsg25
g27
sg132
(lp602
I9
aI1
asg134
Nsg135
VMishnah Bava Kamma 9:1
p603
sg137
(lp604
sg139
g92
sg140
Nsg141
(lp605
I9
aI1
asg143
Nsg144
g603
sg145
(lp606
sg147
g58
sg148
Nsg149
Nsg150
Nsbag3
(g4
g5
NtRp607
(dp608
g8
g10
sg128
Nsg129
(dp609
sg131
Nsg25
g27
sg132
(lp610
I9
aI2
asg134
Nsg135
VMishnah Bava Kamma 9:2
p611
sg137
(lp612
sg139
g92
sg140
Nsg141
(lp613
I9
aI2
asg143
Nsg144
g611
sg145
(lp614
sg147
g58
sg148
Nsg149
Nsg150
Nsbag3
(g4
g5
NtRp615
(dp616
g8
g10
sg128
Nsg129
(dp617
sg131
Nsg25
g27
sg132
(lp618
I9
aI3
asg134
Nsg135
VMishnah Bava Kamma 9:3
p619
sg137
(lp620
sg139
g92
sg140
Nsg141
(lp621
I9
aI3
asg143
Nsg144
g619
sg145
(lp622
sg147
g58
sg148
Nsg149
Nsg150
Nsbag3
(g4
g5
NtRp623
(dp624
g8
g10
sg128
Nsg129
(dp625
sg131
Nsg25
g27
sg132
(lp626
I9
aI4
asg134
Nsg135
VMishnah Bava Kamma 9:4
p627
sg137
(lp628
sg139
g92
sg140
Nsg141
(lp629
I9
aI4
asg143
Nsg144
g627
sg145
(lp630
sg147
g58
sg148
Nsg149
Nsg150
Nsbag3
(g4
g5
NtRp631
(dp632
g8
g10
sg128
Nsg129
(dp633
sg131
Nsg25
g27
sg132
(lp634
I9
aI5
asg134
Nsg135
VMishnah Bava Kamma 9:5
p635
sg137
(lp636
sg139
g92
sg140
Nsg141
(lp637
I9
aI5
asg143
Nsg144
g635
sg145
(lp638
sg147
g58
sg148
Nsg149
Nsg150
Nsbag3
(g4
g5
NtRp639
(dp640
g8
g10
sg128
Nsg129
(dp641
sg131
Nsg25
g27
sg132
(lp642
I9
aI6
asg134
Nsg135
VMishnah Bava Kamma 9:6
p643
sg137
(lp644
sg139
g92
sg140
Nsg141
(lp645
I9
aI6
asg143
Nsg144
g643
sg145
(lp646
sg147
g58
sg148
Nsg149
Nsg150
Nsbag3
(g4
g5
NtRp647
(dp648
g8
g10
sg128
Nsg129
(dp649
sg131
Nsg25
g27
sg132
(lp650
I9
aI7
asg134
Nsg135
VMishnah Bava Kamma 9:7
p651
sg137
(lp652
sg139
g92
sg140
Nsg141
(lp653
I9
aI7
asg143
Nsg144
g651
sg145
(lp654
sg147
g58
sg148
Nsg149
Nsg150
Nsbag3
(g4
g5
NtRp655
(dp656
g8
g10
sg128
Nsg129
(dp657
sg131
Nsg25
g27
sg132
(lp658
I9
aI8
asg134
Nsg135
VMishnah Bava Kamma 9:8
p659
sg137
(lp660
sg139
g92
sg140
Nsg141
(lp661
I9
aI8
asg143
Nsg144
g659
sg145
(lp662
sg147
g58
sg148
Nsg149
Nsg150
Nsbag3
(g4
g5
NtRp663
(dp664
g8
g10
sg128
Nsg129
(dp665
sg131
Nsg25
g27
sg132
(lp666
I9
aI9
asg134
Nsg135
VMishnah Bava Kamma 9:9
p667
sg137
(lp668
sg139
g92
sg140
Nsg141
(lp669
I9
aI9
asg143
Nsg144
g667
sg145
(lp670
sg147
g58
sg148
Nsg149
Nsg150
Nsbag3
(g4
g5
NtRp671
(dp672
g8
g10
sg128
Nsg129
(dp673
sg131
Nsg25
g27
sg132
(lp674
I9
aI10
asg134
Nsg135
VMishnah Bava Kamma 9:10
p675
sg137
(lp676
sg139
g92
sg140
Nsg141
(lp677
I9
aI10
asg143
Nsg144
g675
sg145
(lp678
sg147
g58
sg148
Nsg149
Nsg150
Nsbag3
(g4
g5
NtRp679
(dp680
g8
g10
sg128
Nsg129
(dp681
sg131
Nsg25
g27
sg132
(lp682
I9
aI11
asg134
Nsg135
VMishnah Bava Kamma 9:11
p683
sg137
(lp684
sg139
g92
sg140
Nsg141
(lp685
I9
aI11
asg143
Nsg144
g683
sg145
(lp686
sg147
g58
sg148
Nsg149
Nsg150
Nsbag3
(g4
g5
NtRp687
(dp688
g8
g10
sg128
Nsg129
(dp689
sg131
Nsg25
g27
sg132
(lp690
I9
aI12
asg134
Nsg135
VMishnah Bava Kamma 9:12
p691
sg137
(lp692
sg139
g92
sg140
Nsg141
(lp693
I9
aI12
asg143
Nsg144
g691
sg145
(lp694
sg147
g58
sg148
Nsg149
Nsg150
Nsbag3
(g4
g5
NtRp695
(dp696
g8
g10
sg128
Nsg129
(dp697
sg131
Nsg25
g27
sg132
(lp698
I10
aI1
asg134
Nsg135
VMishnah Bava Kamma 10:1
p699
sg137
(lp700
sg139
g92
sg140
Nsg141
(lp701
I10
aI1
asg143
Nsg144
g699
sg145
(lp702
sg147
g58
sg148
Nsg149
Nsg150
Nsbag3
(g4
g5
NtRp703
(dp704
g8
g10
sg128
Nsg129
(dp705
sg131
Nsg25
g27
sg132
(lp706
I10
aI2
asg134
Nsg135
VMishnah Bava Kamma 10:2
p707
sg137
(lp708
sg139
g92
sg140
Nsg141
(lp709
I10
aI2
asg143
Nsg144
g707
sg145
(lp710
sg147
g58
sg148
Nsg149
Nsg150
Nsbag3
(g4
g5
NtRp711
(dp712
g8
g10
sg128
Nsg129
(dp713
sg131
Nsg25
g27
sg132
(lp714
I10
aI3
asg134
Nsg135
VMishnah Bava Kamma 10:3
p715
sg137
(lp716
sg139
g92
sg140
Nsg141
(lp717
I10
aI3
asg143
Nsg144
g715
sg145
(lp718
sg147
g58
sg148
Nsg149
Nsg150
Nsbag3
(g4
g5
NtRp719
(dp720
g8
g10
sg128
Nsg129
(dp721
sg131
Nsg25
g27
sg132
(lp722
I10
aI4
asg134
Nsg135
VMishnah Bava Kamma 10:4
p723
sg137
(lp724
sg139
g92
sg140
Nsg141
(lp725
I10
aI4
asg143
Nsg144
g723
sg145
(lp726
sg147
g58
sg148
Nsg149
Nsg150
Nsbag3
(g4
g5
NtRp727
(dp728
g8
g10
sg128
Nsg129
(dp729
sg131
Nsg25
g27
sg132
(lp730
I10
aI5
asg134
Nsg135
VMishnah Bava Kamma 10:5
p731
sg137
(lp732
sg139
g92
sg140
Nsg141
(lp733
I10
aI5
asg143
Nsg144
g731
sg145
(lp734
sg147
g58
sg148
Nsg149
Nsg150
Nsbag3
(g4
g5
NtRp735
(dp736
g8
g10
sg128
Nsg129
(dp737
sg131
Nsg25
g27
sg132
(lp738
I10
aI6
asg134
Nsg135
VMishnah Bava Kamma 10:6
p739
sg137
(lp740
sg139
g92
sg140
Nsg141
(lp741
I10
aI6
asg143
Nsg144
g739
sg145
(lp742
sg147
g58
sg148
Nsg149
Nsg150
Nsbag3
(g4
g5
NtRp743
(dp744
g8
g10
sg128
Nsg129
(dp745
sg131
Nsg25
g27
sg132
(lp746
I10
aI7
asg134
Nsg135
VMishnah Bava Kamma 10:7
p747
sg137
(lp748
sg139
g92
sg140
Nsg141
(lp749
I10
aI7
asg143
Nsg144
g747
sg145
(lp750
sg147
g58
sg148
Nsg149
Nsg150
Nsbag3
(g4
g5
NtRp751
(dp752
g8
g10
sg128
Nsg129
(dp753
sg131
Nsg25
g27
sg132
(lp754
I10
aI8
asg134
Nsg135
VMishnah Bava Kamma 10:8
p755
sg137
(lp756
sg139
g92
sg140
Nsg141
(lp757
I10
aI8
asg143
Nsg144
g755
sg145
(lp758
sg147
g58
sg148
Nsg149
Nsg150
Nsbag3
(g4
g5
NtRp759
(dp760
g8
g10
sg128
Nsg129
(dp761
sg131
Nsg25
g27
sg132
(lp762
I10
aI9
asg134
Nsg135
VMishnah Bava Kamma 10:9
p763
sg137
(lp764
sg139
g92
sg140
Nsg141
(lp765
I10
aI9
asg143
Nsg144
g763
sg145
(lp766
sg147
g58
sg148
Nsg149
Nsg150
Nsbag3
(g4
g5
NtRp767
(dp768
g8
g10
sg128
Nsg129
(dp769
sg131
Nsg25
g27
sg132
(lp770
I10
aI10
asg134
Nsg135
VMishnah Bava Kamma 10:10
p771
sg137
(lp772
sg139
g92
sg140
Nsg141
(lp773
I10
aI10
asg143
Nsg144
g771
sg145
(lp774
sg147
g58
sg148
Nsg149
Nsg150
NsbaI4150
t.