((lp1
I0
aI47
aI65
aI115
aI140
aI175
aI215
aI234
aI317
aI368
aI425
aI490
aI526
aI547
aI573
aI618
aI725
aI760
aI805
aI847
aI904
aI930
aI1042
aI1102
aI1137
aI1184
aI1211
aI1236
aI1260
aI1298
aI1328
aI1387
aI1430
aI1503
aI1562
aI1604
aI1684
aI1718
aI1758
aI1809
aI1885
aI1984
aI2042
aI2079
aI2098
aI2124
aI2207
aI2239
aI2283
aI2294
aI2353
aI2383
aI2420
aI2439
aI2486
aI2512
aI2550
aI2566
aI2607
aI2628
aI2664
aI2689
aI2718
aI2789
aI2825
aI2880
aI2938
aI3017
aI3059
aI3131
aI3172
aI3218
aI3279
aI3324
aI3383
aI3411
aI3444
aI3496
aI3531
aI3550
aI3559
aI3644
aI3681
aI3726
aI3767
aI3797
aI3847
aI3867
aI3910
aI3956
aI3978
aI4021
aI4096
aI4120
aI4146
aI4170
aI4229
aI4303
aI4353
aI4376
aI4399
aI4427
aI4502
aI4522
aI4556
aI4616
aI4657
aI4703
aI4734
aI4764
aI4809
aI4836
aI4886
aI4925
aI4978
aI5039
aI5121
aI5175
aI5200
aI5248
aI5298
aI5352
aI5381
aI5403
aI5471
aI5527
aI5574
aI5600
aI5650
aI5706
aI5750
aI5803
aI5831
aI5869
a(lp2
ccopy_reg
_reconstructor
p3
(csefaria.model.text
Ref
p4
c__builtin__
object
p5
NtRp6
(dp7
S'index_node'
p8
g3
(csefaria.model.schema
JaggedArrayNode
p9
g5
NtRp10
(dp11
S'_address'
p12
(lp13
VMishnah Oholot
p14
asS'_full_titles'
p15
(dp16
sVnodeType
p17
VJaggedArrayNode
p18
sS'parent'
p19
NsVaddressTypes
p20
(lp21
VPerek
p22
aVMishnah
p23
asS'default'
p24
I00
sS'index'
p25
g3
(csefaria.model.text
Index
p26
g5
NtRp27
(dp28
S'_id'
p29
g3
(cbson.objectid
ObjectId
p30
g5
NtRp31
S'NJ\xb8\x8f\xed\xba\xb4X3\x00\x00['
p32
bsS'pkeys_orig_values'
p33
(dp34
S'title'
p35
VMishnah Oholot
p36
ssS'pubDate'
p37
V1492
p38
sS'compDate'
p39
V210
p40
sS'pubPlace'
p41
VNaples
p42
sS'compPlace'
p43
VTalmudic Israel
p44
sS'enDesc'
p45
VThe Mishnah is the first major written redaction of the Jewish oral traditions known as the Oral Torah. The Mishnah was redacted by Rabbi Yehudah Ha-Nasi before his death around 217 CE, in a time when, according to the Talmud, the persecution of the Jews and the passage of time raised the possibility that the details of the oral traditions of the Pharisees from the Second Temple period (536 BCE \u2013 70 CE) would be forgotten. The majority of the Mishnah is written in Mishnaic Hebrew, while some parts are Aramaic. The Mishnah consists of six orders (sedarim, singular seder), each containing 7\u201312 tractates (masekhtot, singular masekhet), numbering 63 in total and further subdivided into chapters and paragraphs or verses. The word Mishnah can also indicate a single paragraph or a verse of the work itself, i.e. the smallest unit of structure in the Mishnah. For this reason the whole work is sometimes called by the plural, Mishnayot. Ohalot (Tents) belongs to the sixth order, Tahorot (Purities) and discusses with the laws of the Zaraath (an unknown skin disease). It has eighteen chapters.
p46
sS'order'
p47
(lp48
I53
aI2
asS'era'
p49
VT
sS'struct_objs'
p50
(dp51
sS'nodes'
p52
g10
sS'errorMargin'
p53
V20
p54
sS'_title'
p55
g36
sS'categories'
p56
(lp57
VMishnah
p58
aVSeder Tahorot
p59
asS'schema'
p60
(dp61
g17
g18
sg20
g21
sVlengths
p62
(lp63
I18
aI134
asVdepth
p64
I2
sVtitles
p65
(lp66
(dp67
Vlang
p68
Ven
p69
sVtext
p70
VM. Oholot
p71
sa(dp72
Vlang
p73
Ven
p74
sVtext
p75
VMishna Oholot
p76
sa(dp77
Vlang
p78
Ven
p79
sVtext
p80
VM Oholot
p81
sa(dp82
Vlang
p83
Vhe
p84
sVtext
p85
V\u05de\u05e9\u05e0\u05d4 \u05d0\u05d4\u05dc\u05d5\u05ea
p86
sVprimary
p87
I01
sa(dp88
Vlang
p89
Vhe
p90
sVtext
p91
V\u05d0\u05d4\u05dc\u05d5\u05ea
p92
sa(dp93
Vlang
p94
Ven
p95
sVtext
p96
VMishnah Oholot
p97
sVprimary
p98
I01
sasVkey
p99
g14
sVsectionNames
p100
(lp101
VChapter
p102
aVMishna
p103
assbsS'_primary_title'
p104
(dp105
sS'title_group'
p106
g3
(csefaria.model.schema
TitleGroup
p107
g5
NtRp108
(dp109
g104
(dp110
S'en'
p111
g97
ssS'titles'
p112
g66
sbsS'_addressTypes'
p113
(lp114
g3
(csefaria.model.schema
AddressPerek
p115
g5
NtRp116
(dp117
S'length'
p118
I18
sg47
I0
sbag3
(csefaria.model.schema
AddressMishnah
p119
g5
NtRp120
(dp121
g118
Nsg47
I1
sbasS'sharedTitle'
p122
Nsg62
g63
sg64
I2
sS'_full_title'
p123
(dp124
g111
g97
ssS'key'
p125
g14
sS'checkFirst'
p126
NsS'_regexes'
p127
(dp128
sS'_leaf_nodes'
p129
(lp130
sg100
g101
sS'children'
p131
(lp132
sbsS'_range_index'
p133
NsS'_context'
p134
(dp135
sS'_padded'
p136
Nsg25
g27
sS'sections'
p137
(lp138
I1
aI1
asS'_first_spanned_ref'
p139
NsS'tref'
p140
VMishnah Oholot 1:1
p141
sS'_spanned_refs'
p142
(lp143
sS'book'
p144
g97
sS'_range_depth'
p145
NsS'toSections'
p146
(lp147
I1
aI1
asS'_url'
p148
NsS'_normal'
p149
g141
sS'_ranged_refs'
p150
(lp151
sS'type'
p152
g58
sS'_prev'
p153
NsS'_he_normal'
p154
NsS'_next'
p155
Nsbag3
(g4
g5
NtRp156
(dp157
g8
g10
sg133
Nsg134
(dp158
sg136
Nsg25
g27
sg137
(lp159
I1
aI2
asg139
Nsg140
VMishnah Oholot 1:2
p160
sg142
(lp161
sg144
g97
sg145
Nsg146
(lp162
I1
aI2
asg148
Nsg149
g160
sg150
(lp163
sg152
g58
sg153
Nsg154
Nsg155
Nsbag3
(g4
g5
NtRp164
(dp165
g8
g10
sg133
Nsg134
(dp166
sg136
Nsg25
g27
sg137
(lp167
I1
aI3
asg139
Nsg140
VMishnah Oholot 1:3
p168
sg142
(lp169
sg144
g97
sg145
Nsg146
(lp170
I1
aI3
asg148
Nsg149
g168
sg150
(lp171
sg152
g58
sg153
Nsg154
Nsg155
Nsbag3
(g4
g5
NtRp172
(dp173
g8
g10
sg133
Nsg134
(dp174
sg136
Nsg25
g27
sg137
(lp175
I1
aI4
asg139
Nsg140
VMishnah Oholot 1:4
p176
sg142
(lp177
sg144
g97
sg145
Nsg146
(lp178
I1
aI4
asg148
Nsg149
g176
sg150
(lp179
sg152
g58
sg153
Nsg154
Nsg155
Nsbag3
(g4
g5
NtRp180
(dp181
g8
g10
sg133
Nsg134
(dp182
sg136
Nsg25
g27
sg137
(lp183
I1
aI5
asg139
Nsg140
VMishnah Oholot 1:5
p184
sg142
(lp185
sg144
g97
sg145
Nsg146
(lp186
I1
aI5
asg148
Nsg149
g184
sg150
(lp187
sg152
g58
sg153
Nsg154
Nsg155
Nsbag3
(g4
g5
NtRp188
(dp189
g8
g10
sg133
Nsg134
(dp190
sg136
Nsg25
g27
sg137
(lp191
I1
aI6
asg139
Nsg140
VMishnah Oholot 1:6
p192
sg142
(lp193
sg144
g97
sg145
Nsg146
(lp194
I1
aI6
asg148
Nsg149
g192
sg150
(lp195
sg152
g58
sg153
Nsg154
Nsg155
Nsbag3
(g4
g5
NtRp196
(dp197
g8
g10
sg133
Nsg134
(dp198
sg136
Nsg25
g27
sg137
(lp199
I1
aI7
asg139
Nsg140
VMishnah Oholot 1:7
p200
sg142
(lp201
sg144
g97
sg145
Nsg146
(lp202
I1
aI7
asg148
Nsg149
g200
sg150
(lp203
sg152
g58
sg153
Nsg154
Nsg155
Nsbag3
(g4
g5
NtRp204
(dp205
g8
g10
sg133
Nsg134
(dp206
sg136
Nsg25
g27
sg137
(lp207
I1
aI8
asg139
Nsg140
VMishnah Oholot 1:8
p208
sg142
(lp209
sg144
g97
sg145
Nsg146
(lp210
I1
aI8
asg148
Nsg149
g208
sg150
(lp211
sg152
g58
sg153
Nsg154
Nsg155
Nsbag3
(g4
g5
NtRp212
(dp213
g8
g10
sg133
Nsg134
(dp214
sg136
Nsg25
g27
sg137
(lp215
I2
aI1
asg139
Nsg140
VMishnah Oholot 2:1
p216
sg142
(lp217
sg144
g97
sg145
Nsg146
(lp218
I2
aI1
asg148
Nsg149
g216
sg150
(lp219
sg152
g58
sg153
Nsg154
Nsg155
Nsbag3
(g4
g5
NtRp220
(dp221
g8
g10
sg133
Nsg134
(dp222
sg136
Nsg25
g27
sg137
(lp223
I2
aI2
asg139
Nsg140
VMishnah Oholot 2:2
p224
sg142
(lp225
sg144
g97
sg145
Nsg146
(lp226
I2
aI2
asg148
Nsg149
g224
sg150
(lp227
sg152
g58
sg153
Nsg154
Nsg155
Nsbag3
(g4
g5
NtRp228
(dp229
g8
g10
sg133
Nsg134
(dp230
sg136
Nsg25
g27
sg137
(lp231
I2
aI3
asg139
Nsg140
VMishnah Oholot 2:3
p232
sg142
(lp233
sg144
g97
sg145
Nsg146
(lp234
I2
aI3
asg148
Nsg149
g232
sg150
(lp235
sg152
g58
sg153
Nsg154
Nsg155
Nsbag3
(g4
g5
NtRp236
(dp237
g8
g10
sg133
Nsg134
(dp238
sg136
Nsg25
g27
sg137
(lp239
I2
aI4
asg139
Nsg140
VMishnah Oholot 2:4
p240
sg142
(lp241
sg144
g97
sg145
Nsg146
(lp242
I2
aI4
asg148
Nsg149
g240
sg150
(lp243
sg152
g58
sg153
Nsg154
Nsg155
Nsbag3
(g4
g5
NtRp244
(dp245
g8
g10
sg133
Nsg134
(dp246
sg136
Nsg25
g27
sg137
(lp247
I2
aI5
asg139
Nsg140
VMishnah Oholot 2:5
p248
sg142
(lp249
sg144
g97
sg145
Nsg146
(lp250
I2
aI5
asg148
Nsg149
g248
sg150
(lp251
sg152
g58
sg153
Nsg154
Nsg155
Nsbag3
(g4
g5
NtRp252
(dp253
g8
g10
sg133
Nsg134
(dp254
sg136
Nsg25
g27
sg137
(lp255
I2
aI6
asg139
Nsg140
VMishnah Oholot 2:6
p256
sg142
(lp257
sg144
g97
sg145
Nsg146
(lp258
I2
aI6
asg148
Nsg149
g256
sg150
(lp259
sg152
g58
sg153
Nsg154
Nsg155
Nsbag3
(g4
g5
NtRp260
(dp261
g8
g10
sg133
Nsg134
(dp262
sg136
Nsg25
g27
sg137
(lp263
I2
aI7
asg139
Nsg140
VMishnah Oholot 2:7
p264
sg142
(lp265
sg144
g97
sg145
Nsg146
(lp266
I2
aI7
asg148
Nsg149
g264
sg150
(lp267
sg152
g58
sg153
Nsg154
Nsg155
Nsbag3
(g4
g5
NtRp268
(dp269
g8
g10
sg133
Nsg134
(dp270
sg136
Nsg25
g27
sg137
(lp271
I3
aI1
asg139
Nsg140
VMishnah Oholot 3:1
p272
sg142
(lp273
sg144
g97
sg145
Nsg146
(lp274
I3
aI1
asg148
Nsg149
g272
sg150
(lp275
sg152
g58
sg153
Nsg154
Nsg155
Nsbag3
(g4
g5
NtRp276
(dp277
g8
g10
sg133
Nsg134
(dp278
sg136
Nsg25
g27
sg137
(lp279
I3
aI2
asg139
Nsg140
VMishnah Oholot 3:2
p280
sg142
(lp281
sg144
g97
sg145
Nsg146
(lp282
I3
aI2
asg148
Nsg149
g280
sg150
(lp283
sg152
g58
sg153
Nsg154
Nsg155
Nsbag3
(g4
g5
NtRp284
(dp285
g8
g10
sg133
Nsg134
(dp286
sg136
Nsg25
g27
sg137
(lp287
I3
aI3
asg139
Nsg140
VMishnah Oholot 3:3
p288
sg142
(lp289
sg144
g97
sg145
Nsg146
(lp290
I3
aI3
asg148
Nsg149
g288
sg150
(lp291
sg152
g58
sg153
Nsg154
Nsg155
Nsbag3
(g4
g5
NtRp292
(dp293
g8
g10
sg133
Nsg134
(dp294
sg136
Nsg25
g27
sg137
(lp295
I3
aI4
asg139
Nsg140
VMishnah Oholot 3:4
p296
sg142
(lp297
sg144
g97
sg145
Nsg146
(lp298
I3
aI4
asg148
Nsg149
g296
sg150
(lp299
sg152
g58
sg153
Nsg154
Nsg155
Nsbag3
(g4
g5
NtRp300
(dp301
g8
g10
sg133
Nsg134
(dp302
sg136
Nsg25
g27
sg137
(lp303
I3
aI5
asg139
Nsg140
VMishnah Oholot 3:5
p304
sg142
(lp305
sg144
g97
sg145
Nsg146
(lp306
I3
aI5
asg148
Nsg149
g304
sg150
(lp307
sg152
g58
sg153
Nsg154
Nsg155
Nsbag3
(g4
g5
NtRp308
(dp309
g8
g10
sg133
Nsg134
(dp310
sg136
Nsg25
g27
sg137
(lp311
I3
aI6
asg139
Nsg140
VMishnah Oholot 3:6
p312
sg142
(lp313
sg144
g97
sg145
Nsg146
(lp314
I3
aI6
asg148
Nsg149
g312
sg150
(lp315
sg152
g58
sg153
Nsg154
Nsg155
Nsbag3
(g4
g5
NtRp316
(dp317
g8
g10
sg133
Nsg134
(dp318
sg136
Nsg25
g27
sg137
(lp319
I3
aI7
asg139
Nsg140
VMishnah Oholot 3:7
p320
sg142
(lp321
sg144
g97
sg145
Nsg146
(lp322
I3
aI7
asg148
Nsg149
g320
sg150
(lp323
sg152
g58
sg153
Nsg154
Nsg155
Nsbag3
(g4
g5
NtRp324
(dp325
g8
g10
sg133
Nsg134
(dp326
sg136
Nsg25
g27
sg137
(lp327
I4
aI1
asg139
Nsg140
VMishnah Oholot 4:1
p328
sg142
(lp329
sg144
g97
sg145
Nsg146
(lp330
I4
aI1
asg148
Nsg149
g328
sg150
(lp331
sg152
g58
sg153
Nsg154
Nsg155
Nsbag3
(g4
g5
NtRp332
(dp333
g8
g10
sg133
Nsg134
(dp334
sg136
Nsg25
g27
sg137
(lp335
I4
aI2
asg139
Nsg140
VMishnah Oholot 4:2
p336
sg142
(lp337
sg144
g97
sg145
Nsg146
(lp338
I4
aI2
asg148
Nsg149
g336
sg150
(lp339
sg152
g58
sg153
Nsg154
Nsg155
Nsbag3
(g4
g5
NtRp340
(dp341
g8
g10
sg133
Nsg134
(dp342
sg136
Nsg25
g27
sg137
(lp343
I4
aI3
asg139
Nsg140
VMishnah Oholot 4:3
p344
sg142
(lp345
sg144
g97
sg145
Nsg146
(lp346
I4
aI3
asg148
Nsg149
g344
sg150
(lp347
sg152
g58
sg153
Nsg154
Nsg155
Nsbag3
(g4
g5
NtRp348
(dp349
g8
g10
sg133
Nsg134
(dp350
sg136
Nsg25
g27
sg137
(lp351
I5
aI1
asg139
Nsg140
VMishnah Oholot 5:1
p352
sg142
(lp353
sg144
g97
sg145
Nsg146
(lp354
I5
aI1
asg148
Nsg149
g352
sg150
(lp355
sg152
g58
sg153
Nsg154
Nsg155
Nsbag3
(g4
g5
NtRp356
(dp357
g8
g10
sg133
Nsg134
(dp358
sg136
Nsg25
g27
sg137
(lp359
I5
aI2
asg139
Nsg140
VMishnah Oholot 5:2
p360
sg142
(lp361
sg144
g97
sg145
Nsg146
(lp362
I5
aI2
asg148
Nsg149
g360
sg150
(lp363
sg152
g58
sg153
Nsg154
Nsg155
Nsbag3
(g4
g5
NtRp364
(dp365
g8
g10
sg133
Nsg134
(dp366
sg136
Nsg25
g27
sg137
(lp367
I5
aI3
asg139
Nsg140
VMishnah Oholot 5:3
p368
sg142
(lp369
sg144
g97
sg145
Nsg146
(lp370
I5
aI3
asg148
Nsg149
g368
sg150
(lp371
sg152
g58
sg153
Nsg154
Nsg155
Nsbag3
(g4
g5
NtRp372
(dp373
g8
g10
sg133
Nsg134
(dp374
sg136
Nsg25
g27
sg137
(lp375
I5
aI4
asg139
Nsg140
VMishnah Oholot 5:4
p376
sg142
(lp377
sg144
g97
sg145
Nsg146
(lp378
I5
aI4
asg148
Nsg149
g376
sg150
(lp379
sg152
g58
sg153
Nsg154
Nsg155
Nsbag3
(g4
g5
NtRp380
(dp381
g8
g10
sg133
Nsg134
(dp382
sg136
Nsg25
g27
sg137
(lp383
I5
aI5
asg139
Nsg140
VMishnah Oholot 5:5
p384
sg142
(lp385
sg144
g97
sg145
Nsg146
(lp386
I5
aI5
asg148
Nsg149
g384
sg150
(lp387
sg152
g58
sg153
Nsg154
Nsg155
Nsbag3
(g4
g5
NtRp388
(dp389
g8
g10
sg133
Nsg134
(dp390
sg136
Nsg25
g27
sg137
(lp391
I5
aI6
asg139
Nsg140
VMishnah Oholot 5:6
p392
sg142
(lp393
sg144
g97
sg145
Nsg146
(lp394
I5
aI6
asg148
Nsg149
g392
sg150
(lp395
sg152
g58
sg153
Nsg154
Nsg155
Nsbag3
(g4
g5
NtRp396
(dp397
g8
g10
sg133
Nsg134
(dp398
sg136
Nsg25
g27
sg137
(lp399
I5
aI7
asg139
Nsg140
VMishnah Oholot 5:7
p400
sg142
(lp401
sg144
g97
sg145
Nsg146
(lp402
I5
aI7
asg148
Nsg149
g400
sg150
(lp403
sg152
g58
sg153
Nsg154
Nsg155
Nsbag3
(g4
g5
NtRp404
(dp405
g8
g10
sg133
Nsg134
(dp406
sg136
Nsg25
g27
sg137
(lp407
I6
aI1
asg139
Nsg140
VMishnah Oholot 6:1
p408
sg142
(lp409
sg144
g97
sg145
Nsg146
(lp410
I6
aI1
asg148
Nsg149
g408
sg150
(lp411
sg152
g58
sg153
Nsg154
Nsg155
Nsbag3
(g4
g5
NtRp412
(dp413
g8
g10
sg133
Nsg134
(dp414
sg136
Nsg25
g27
sg137
(lp415
I6
aI2
asg139
Nsg140
VMishnah Oholot 6:2
p416
sg142
(lp417
sg144
g97
sg145
Nsg146
(lp418
I6
aI2
asg148
Nsg149
g416
sg150
(lp419
sg152
g58
sg153
Nsg154
Nsg155
Nsbag3
(g4
g5
NtRp420
(dp421
g8
g10
sg133
Nsg134
(dp422
sg136
Nsg25
g27
sg137
(lp423
I6
aI3
asg139
Nsg140
VMishnah Oholot 6:3
p424
sg142
(lp425
sg144
g97
sg145
Nsg146
(lp426
I6
aI3
asg148
Nsg149
g424
sg150
(lp427
sg152
g58
sg153
Nsg154
Nsg155
Nsbag3
(g4
g5
NtRp428
(dp429
g8
g10
sg133
Nsg134
(dp430
sg136
Nsg25
g27
sg137
(lp431
I6
aI4
asg139
Nsg140
VMishnah Oholot 6:4
p432
sg142
(lp433
sg144
g97
sg145
Nsg146
(lp434
I6
aI4
asg148
Nsg149
g432
sg150
(lp435
sg152
g58
sg153
Nsg154
Nsg155
Nsbag3
(g4
g5
NtRp436
(dp437
g8
g10
sg133
Nsg134
(dp438
sg136
Nsg25
g27
sg137
(lp439
I6
aI5
asg139
Nsg140
VMishnah Oholot 6:5
p440
sg142
(lp441
sg144
g97
sg145
Nsg146
(lp442
I6
aI5
asg148
Nsg149
g440
sg150
(lp443
sg152
g58
sg153
Nsg154
Nsg155
Nsbag3
(g4
g5
NtRp444
(dp445
g8
g10
sg133
Nsg134
(dp446
sg136
Nsg25
g27
sg137
(lp447
I6
aI6
asg139
Nsg140
VMishnah Oholot 6:6
p448
sg142
(lp449
sg144
g97
sg145
Nsg146
(lp450
I6
aI6
asg148
Nsg149
g448
sg150
(lp451
sg152
g58
sg153
Nsg154
Nsg155
Nsbag3
(g4
g5
NtRp452
(dp453
g8
g10
sg133
Nsg134
(dp454
sg136
Nsg25
g27
sg137
(lp455
I6
aI7
asg139
Nsg140
VMishnah Oholot 6:7
p456
sg142
(lp457
sg144
g97
sg145
Nsg146
(lp458
I6
aI7
asg148
Nsg149
g456
sg150
(lp459
sg152
g58
sg153
Nsg154
Nsg155
Nsbag3
(g4
g5
NtRp460
(dp461
g8
g10
sg133
Nsg134
(dp462
sg136
Nsg25
g27
sg137
(lp463
I7
aI1
asg139
Nsg140
VMishnah Oholot 7:1
p464
sg142
(lp465
sg144
g97
sg145
Nsg146
(lp466
I7
aI1
asg148
Nsg149
g464
sg150
(lp467
sg152
g58
sg153
Nsg154
Nsg155
Nsbag3
(g4
g5
NtRp468
(dp469
g8
g10
sg133
Nsg134
(dp470
sg136
Nsg25
g27
sg137
(lp471
I7
aI2
asg139
Nsg140
VMishnah Oholot 7:2
p472
sg142
(lp473
sg144
g97
sg145
Nsg146
(lp474
I7
aI2
asg148
Nsg149
g472
sg150
(lp475
sg152
g58
sg153
Nsg154
Nsg155
Nsbag3
(g4
g5
NtRp476
(dp477
g8
g10
sg133
Nsg134
(dp478
sg136
Nsg25
g27
sg137
(lp479
I7
aI3
asg139
Nsg140
VMishnah Oholot 7:3
p480
sg142
(lp481
sg144
g97
sg145
Nsg146
(lp482
I7
aI3
asg148
Nsg149
g480
sg150
(lp483
sg152
g58
sg153
Nsg154
Nsg155
Nsbag3
(g4
g5
NtRp484
(dp485
g8
g10
sg133
Nsg134
(dp486
sg136
Nsg25
g27
sg137
(lp487
I7
aI4
asg139
Nsg140
VMishnah Oholot 7:4
p488
sg142
(lp489
sg144
g97
sg145
Nsg146
(lp490
I7
aI4
asg148
Nsg149
g488
sg150
(lp491
sg152
g58
sg153
Nsg154
Nsg155
Nsbag3
(g4
g5
NtRp492
(dp493
g8
g10
sg133
Nsg134
(dp494
sg136
Nsg25
g27
sg137
(lp495
I7
aI5
asg139
Nsg140
VMishnah Oholot 7:5
p496
sg142
(lp497
sg144
g97
sg145
Nsg146
(lp498
I7
aI5
asg148
Nsg149
g496
sg150
(lp499
sg152
g58
sg153
Nsg154
Nsg155
Nsbag3
(g4
g5
NtRp500
(dp501
g8
g10
sg133
Nsg134
(dp502
sg136
Nsg25
g27
sg137
(lp503
I7
aI6
asg139
Nsg140
VMishnah Oholot 7:6
p504
sg142
(lp505
sg144
g97
sg145
Nsg146
(lp506
I7
aI6
asg148
Nsg149
g504
sg150
(lp507
sg152
g58
sg153
Nsg154
Nsg155
Nsbag3
(g4
g5
NtRp508
(dp509
g8
g10
sg133
Nsg134
(dp510
sg136
Nsg25
g27
sg137
(lp511
I8
aI1
asg139
Nsg140
VMishnah Oholot 8:1
p512
sg142
(lp513
sg144
g97
sg145
Nsg146
(lp514
I8
aI1
asg148
Nsg149
g512
sg150
(lp515
sg152
g58
sg153
Nsg154
Nsg155
Nsbag3
(g4
g5
NtRp516
(dp517
g8
g10
sg133
Nsg134
(dp518
sg136
Nsg25
g27
sg137
(lp519
I8
aI2
asg139
Nsg140
VMishnah Oholot 8:2
p520
sg142
(lp521
sg144
g97
sg145
Nsg146
(lp522
I8
aI2
asg148
Nsg149
g520
sg150
(lp523
sg152
g58
sg153
Nsg154
Nsg155
Nsbag3
(g4
g5
NtRp524
(dp525
g8
g10
sg133
Nsg134
(dp526
sg136
Nsg25
g27
sg137
(lp527
I8
aI3
asg139
Nsg140
VMishnah Oholot 8:3
p528
sg142
(lp529
sg144
g97
sg145
Nsg146
(lp530
I8
aI3
asg148
Nsg149
g528
sg150
(lp531
sg152
g58
sg153
Nsg154
Nsg155
Nsbag3
(g4
g5
NtRp532
(dp533
g8
g10
sg133
Nsg134
(dp534
sg136
Nsg25
g27
sg137
(lp535
I8
aI4
asg139
Nsg140
VMishnah Oholot 8:4
p536
sg142
(lp537
sg144
g97
sg145
Nsg146
(lp538
I8
aI4
asg148
Nsg149
g536
sg150
(lp539
sg152
g58
sg153
Nsg154
Nsg155
Nsbag3
(g4
g5
NtRp540
(dp541
g8
g10
sg133
Nsg134
(dp542
sg136
Nsg25
g27
sg137
(lp543
I8
aI5
asg139
Nsg140
VMishnah Oholot 8:5
p544
sg142
(lp545
sg144
g97
sg145
Nsg146
(lp546
I8
aI5
asg148
Nsg149
g544
sg150
(lp547
sg152
g58
sg153
Nsg154
Nsg155
Nsbag3
(g4
g5
NtRp548
(dp549
g8
g10
sg133
Nsg134
(dp550
sg136
Nsg25
g27
sg137
(lp551
I8
aI6
asg139
Nsg140
VMishnah Oholot 8:6
p552
sg142
(lp553
sg144
g97
sg145
Nsg146
(lp554
I8
aI6
asg148
Nsg149
g552
sg150
(lp555
sg152
g58
sg153
Nsg154
Nsg155
Nsbag3
(g4
g5
NtRp556
(dp557
g8
g10
sg133
Nsg134
(dp558
sg136
Nsg25
g27
sg137
(lp559
I9
aI1
asg139
Nsg140
VMishnah Oholot 9:1
p560
sg142
(lp561
sg144
g97
sg145
Nsg146
(lp562
I9
aI1
asg148
Nsg149
g560
sg150
(lp563
sg152
g58
sg153
Nsg154
Nsg155
Nsbag3
(g4
g5
NtRp564
(dp565
g8
g10
sg133
Nsg134
(dp566
sg136
Nsg25
g27
sg137
(lp567
I9
aI2
asg139
Nsg140
VMishnah Oholot 9:2
p568
sg142
(lp569
sg144
g97
sg145
Nsg146
(lp570
I9
aI2
asg148
Nsg149
g568
sg150
(lp571
sg152
g58
sg153
Nsg154
Nsg155
Nsbag3
(g4
g5
NtRp572
(dp573
g8
g10
sg133
Nsg134
(dp574
sg136
Nsg25
g27
sg137
(lp575
I9
aI3
asg139
Nsg140
VMishnah Oholot 9:3
p576
sg142
(lp577
sg144
g97
sg145
Nsg146
(lp578
I9
aI3
asg148
Nsg149
g576
sg150
(lp579
sg152
g58
sg153
Nsg154
Nsg155
Nsbag3
(g4
g5
NtRp580
(dp581
g8
g10
sg133
Nsg134
(dp582
sg136
Nsg25
g27
sg137
(lp583
I9
aI4
asg139
Nsg140
VMishnah Oholot 9:4
p584
sg142
(lp585
sg144
g97
sg145
Nsg146
(lp586
I9
aI4
asg148
Nsg149
g584
sg150
(lp587
sg152
g58
sg153
Nsg154
Nsg155
Nsbag3
(g4
g5
NtRp588
(dp589
g8
g10
sg133
Nsg134
(dp590
sg136
Nsg25
g27
sg137
(lp591
I9
aI5
asg139
Nsg140
VMishnah Oholot 9:5
p592
sg142
(lp593
sg144
g97
sg145
Nsg146
(lp594
I9
aI5
asg148
Nsg149
g592
sg150
(lp595
sg152
g58
sg153
Nsg154
Nsg155
Nsbag3
(g4
g5
NtRp596
(dp597
g8
g10
sg133
Nsg134
(dp598
sg136
Nsg25
g27
sg137
(lp599
I9
aI6
asg139
Nsg140
VMishnah Oholot 9:6
p600
sg142
(lp601
sg144
g97
sg145
Nsg146
(lp602
I9
aI6
asg148
Nsg149
g600
sg150
(lp603
sg152
g58
sg153
Nsg154
Nsg155
Nsbag3
(g4
g5
NtRp604
(dp605
g8
g10
sg133
Nsg134
(dp606
sg136
Nsg25
g27
sg137
(lp607
I9
aI7
asg139
Nsg140
VMishnah Oholot 9:7
p608
sg142
(lp609
sg144
g97
sg145
Nsg146
(lp610
I9
aI7
asg148
Nsg149
g608
sg150
(lp611
sg152
g58
sg153
Nsg154
Nsg155
Nsbag3
(g4
g5
NtRp612
(dp613
g8
g10
sg133
Nsg134
(dp614
sg136
Nsg25
g27
sg137
(lp615
I9
aI8
asg139
Nsg140
VMishnah Oholot 9:8
p616
sg142
(lp617
sg144
g97
sg145
Nsg146
(lp618
I9
aI8
asg148
Nsg149
g616
sg150
(lp619
sg152
g58
sg153
Nsg154
Nsg155
Nsbag3
(g4
g5
NtRp620
(dp621
g8
g10
sg133
Nsg134
(dp622
sg136
Nsg25
g27
sg137
(lp623
I9
aI9
asg139
Nsg140
VMishnah Oholot 9:9
p624
sg142
(lp625
sg144
g97
sg145
Nsg146
(lp626
I9
aI9
asg148
Nsg149
g624
sg150
(lp627
sg152
g58
sg153
Nsg154
Nsg155
Nsbag3
(g4
g5
NtRp628
(dp629
g8
g10
sg133
Nsg134
(dp630
sg136
Nsg25
g27
sg137
(lp631
I9
aI10
asg139
Nsg140
VMishnah Oholot 9:10
p632
sg142
(lp633
sg144
g97
sg145
Nsg146
(lp634
I9
aI10
asg148
Nsg149
g632
sg150
(lp635
sg152
g58
sg153
Nsg154
Nsg155
Nsbag3
(g4
g5
NtRp636
(dp637
g8
g10
sg133
Nsg134
(dp638
sg136
Nsg25
g27
sg137
(lp639
I9
aI11
asg139
Nsg140
VMishnah Oholot 9:11
p640
sg142
(lp641
sg144
g97
sg145
Nsg146
(lp642
I9
aI11
asg148
Nsg149
g640
sg150
(lp643
sg152
g58
sg153
Nsg154
Nsg155
Nsbag3
(g4
g5
NtRp644
(dp645
g8
g10
sg133
Nsg134
(dp646
sg136
Nsg25
g27
sg137
(lp647
I9
aI12
asg139
Nsg140
VMishnah Oholot 9:12
p648
sg142
(lp649
sg144
g97
sg145
Nsg146
(lp650
I9
aI12
asg148
Nsg149
g648
sg150
(lp651
sg152
g58
sg153
Nsg154
Nsg155
Nsbag3
(g4
g5
NtRp652
(dp653
g8
g10
sg133
Nsg134
(dp654
sg136
Nsg25
g27
sg137
(lp655
I9
aI13
asg139
Nsg140
VMishnah Oholot 9:13
p656
sg142
(lp657
sg144
g97
sg145
Nsg146
(lp658
I9
aI13
asg148
Nsg149
g656
sg150
(lp659
sg152
g58
sg153
Nsg154
Nsg155
Nsbag3
(g4
g5
NtRp660
(dp661
g8
g10
sg133
Nsg134
(dp662
sg136
Nsg25
g27
sg137
(lp663
I9
aI14
asg139
Nsg140
VMishnah Oholot 9:14
p664
sg142
(lp665
sg144
g97
sg145
Nsg146
(lp666
I9
aI14
asg148
Nsg149
g664
sg150
(lp667
sg152
g58
sg153
Nsg154
Nsg155
Nsbag3
(g4
g5
NtRp668
(dp669
g8
g10
sg133
Nsg134
(dp670
sg136
Nsg25
g27
sg137
(lp671
I9
aI15
asg139
Nsg140
VMishnah Oholot 9:15
p672
sg142
(lp673
sg144
g97
sg145
Nsg146
(lp674
I9
aI15
asg148
Nsg149
g672
sg150
(lp675
sg152
g58
sg153
Nsg154
Nsg155
Nsbag3
(g4
g5
NtRp676
(dp677
g8
g10
sg133
Nsg134
(dp678
sg136
Nsg25
g27
sg137
(lp679
I9
aI16
asg139
Nsg140
VMishnah Oholot 9:16
p680
sg142
(lp681
sg144
g97
sg145
Nsg146
(lp682
I9
aI16
asg148
Nsg149
g680
sg150
(lp683
sg152
g58
sg153
Nsg154
Nsg155
Nsbag3
(g4
g5
NtRp684
(dp685
g8
g10
sg133
Nsg134
(dp686
sg136
Nsg25
g27
sg137
(lp687
I10
aI1
asg139
Nsg140
VMishnah Oholot 10:1
p688
sg142
(lp689
sg144
g97
sg145
Nsg146
(lp690
I10
aI1
asg148
Nsg149
g688
sg150
(lp691
sg152
g58
sg153
Nsg154
Nsg155
Nsbag3
(g4
g5
NtRp692
(dp693
g8
g10
sg133
Nsg134
(dp694
sg136
Nsg25
g27
sg137
(lp695
I10
aI2
asg139
Nsg140
VMishnah Oholot 10:2
p696
sg142
(lp697
sg144
g97
sg145
Nsg146
(lp698
I10
aI2
asg148
Nsg149
g696
sg150
(lp699
sg152
g58
sg153
Nsg154
Nsg155
Nsbag3
(g4
g5
NtRp700
(dp701
g8
g10
sg133
Nsg134
(dp702
sg136
Nsg25
g27
sg137
(lp703
I10
aI3
asg139
Nsg140
VMishnah Oholot 10:3
p704
sg142
(lp705
sg144
g97
sg145
Nsg146
(lp706
I10
aI3
asg148
Nsg149
g704
sg150
(lp707
sg152
g58
sg153
Nsg154
Nsg155
Nsbag3
(g4
g5
NtRp708
(dp709
g8
g10
sg133
Nsg134
(dp710
sg136
Nsg25
g27
sg137
(lp711
I10
aI4
asg139
Nsg140
VMishnah Oholot 10:4
p712
sg142
(lp713
sg144
g97
sg145
Nsg146
(lp714
I10
aI4
asg148
Nsg149
g712
sg150
(lp715
sg152
g58
sg153
Nsg154
Nsg155
Nsbag3
(g4
g5
NtRp716
(dp717
g8
g10
sg133
Nsg134
(dp718
sg136
Nsg25
g27
sg137
(lp719
I10
aI5
asg139
Nsg140
VMishnah Oholot 10:5
p720
sg142
(lp721
sg144
g97
sg145
Nsg146
(lp722
I10
aI5
asg148
Nsg149
g720
sg150
(lp723
sg152
g58
sg153
Nsg154
Nsg155
Nsbag3
(g4
g5
NtRp724
(dp725
g8
g10
sg133
Nsg134
(dp726
sg136
Nsg25
g27
sg137
(lp727
I10
aI6
asg139
Nsg140
VMishnah Oholot 10:6
p728
sg142
(lp729
sg144
g97
sg145
Nsg146
(lp730
I10
aI6
asg148
Nsg149
g728
sg150
(lp731
sg152
g58
sg153
Nsg154
Nsg155
Nsbag3
(g4
g5
NtRp732
(dp733
g8
g10
sg133
Nsg134
(dp734
sg136
Nsg25
g27
sg137
(lp735
I10
aI7
asg139
Nsg140
VMishnah Oholot 10:7
p736
sg142
(lp737
sg144
g97
sg145
Nsg146
(lp738
I10
aI7
asg148
Nsg149
g736
sg150
(lp739
sg152
g58
sg153
Nsg154
Nsg155
Nsbag3
(g4
g5
NtRp740
(dp741
g8
g10
sg133
Nsg134
(dp742
sg136
Nsg25
g27
sg137
(lp743
I11
aI1
asg139
Nsg140
VMishnah Oholot 11:1
p744
sg142
(lp745
sg144
g97
sg145
Nsg146
(lp746
I11
aI1
asg148
Nsg149
g744
sg150
(lp747
sg152
g58
sg153
Nsg154
Nsg155
Nsbag3
(g4
g5
NtRp748
(dp749
g8
g10
sg133
Nsg134
(dp750
sg136
Nsg25
g27
sg137
(lp751
I11
aI2
asg139
Nsg140
VMishnah Oholot 11:2
p752
sg142
(lp753
sg144
g97
sg145
Nsg146
(lp754
I11
aI2
asg148
Nsg149
g752
sg150
(lp755
sg152
g58
sg153
Nsg154
Nsg155
Nsbag3
(g4
g5
NtRp756
(dp757
g8
g10
sg133
Nsg134
(dp758
sg136
Nsg25
g27
sg137
(lp759
I11
aI3
asg139
Nsg140
VMishnah Oholot 11:3
p760
sg142
(lp761
sg144
g97
sg145
Nsg146
(lp762
I11
aI3
asg148
Nsg149
g760
sg150
(lp763
sg152
g58
sg153
Nsg154
Nsg155
Nsbag3
(g4
g5
NtRp764
(dp765
g8
g10
sg133
Nsg134
(dp766
sg136
Nsg25
g27
sg137
(lp767
I11
aI4
asg139
Nsg140
VMishnah Oholot 11:4
p768
sg142
(lp769
sg144
g97
sg145
Nsg146
(lp770
I11
aI4
asg148
Nsg149
g768
sg150
(lp771
sg152
g58
sg153
Nsg154
Nsg155
Nsbag3
(g4
g5
NtRp772
(dp773
g8
g10
sg133
Nsg134
(dp774
sg136
Nsg25
g27
sg137
(lp775
I11
aI5
asg139
Nsg140
VMishnah Oholot 11:5
p776
sg142
(lp777
sg144
g97
sg145
Nsg146
(lp778
I11
aI5
asg148
Nsg149
g776
sg150
(lp779
sg152
g58
sg153
Nsg154
Nsg155
Nsbag3
(g4
g5
NtRp780
(dp781
g8
g10
sg133
Nsg134
(dp782
sg136
Nsg25
g27
sg137
(lp783
I11
aI6
asg139
Nsg140
VMishnah Oholot 11:6
p784
sg142
(lp785
sg144
g97
sg145
Nsg146
(lp786
I11
aI6
asg148
Nsg149
g784
sg150
(lp787
sg152
g58
sg153
Nsg154
Nsg155
Nsbag3
(g4
g5
NtRp788
(dp789
g8
g10
sg133
Nsg134
(dp790
sg136
Nsg25
g27
sg137
(lp791
I11
aI7
asg139
Nsg140
VMishnah Oholot 11:7
p792
sg142
(lp793
sg144
g97
sg145
Nsg146
(lp794
I11
aI7
asg148
Nsg149
g792
sg150
(lp795
sg152
g58
sg153
Nsg154
Nsg155
Nsbag3
(g4
g5
NtRp796
(dp797
g8
g10
sg133
Nsg134
(dp798
sg136
Nsg25
g27
sg137
(lp799
I11
aI8
asg139
Nsg140
VMishnah Oholot 11:8
p800
sg142
(lp801
sg144
g97
sg145
Nsg146
(lp802
I11
aI8
asg148
Nsg149
g800
sg150
(lp803
sg152
g58
sg153
Nsg154
Nsg155
Nsbag3
(g4
g5
NtRp804
(dp805
g8
g10
sg133
Nsg134
(dp806
sg136
Nsg25
g27
sg137
(lp807
I11
aI9
asg139
Nsg140
VMishnah Oholot 11:9
p808
sg142
(lp809
sg144
g97
sg145
Nsg146
(lp810
I11
aI9
asg148
Nsg149
g808
sg150
(lp811
sg152
g58
sg153
Nsg154
Nsg155
Nsbag3
(g4
g5
NtRp812
(dp813
g8
g10
sg133
Nsg134
(dp814
sg136
Nsg25
g27
sg137
(lp815
I12
aI1
asg139
Nsg140
VMishnah Oholot 12:1
p816
sg142
(lp817
sg144
g97
sg145
Nsg146
(lp818
I12
aI1
asg148
Nsg149
g816
sg150
(lp819
sg152
g58
sg153
Nsg154
Nsg155
Nsbag3
(g4
g5
NtRp820
(dp821
g8
g10
sg133
Nsg134
(dp822
sg136
Nsg25
g27
sg137
(lp823
I12
aI2
asg139
Nsg140
VMishnah Oholot 12:2
p824
sg142
(lp825
sg144
g97
sg145
Nsg146
(lp826
I12
aI2
asg148
Nsg149
g824
sg150
(lp827
sg152
g58
sg153
Nsg154
Nsg155
Nsbag3
(g4
g5
NtRp828
(dp829
g8
g10
sg133
Nsg134
(dp830
sg136
Nsg25
g27
sg137
(lp831
I12
aI3
asg139
Nsg140
VMishnah Oholot 12:3
p832
sg142
(lp833
sg144
g97
sg145
Nsg146
(lp834
I12
aI3
asg148
Nsg149
g832
sg150
(lp835
sg152
g58
sg153
Nsg154
Nsg155
Nsbag3
(g4
g5
NtRp836
(dp837
g8
g10
sg133
Nsg134
(dp838
sg136
Nsg25
g27
sg137
(lp839
I12
aI4
asg139
Nsg140
VMishnah Oholot 12:4
p840
sg142
(lp841
sg144
g97
sg145
Nsg146
(lp842
I12
aI4
asg148
Nsg149
g840
sg150
(lp843
sg152
g58
sg153
Nsg154
Nsg155
Nsbag3
(g4
g5
NtRp844
(dp845
g8
g10
sg133
Nsg134
(dp846
sg136
Nsg25
g27
sg137
(lp847
I12
aI5
asg139
Nsg140
VMishnah Oholot 12:5
p848
sg142
(lp849
sg144
g97
sg145
Nsg146
(lp850
I12
aI5
asg148
Nsg149
g848
sg150
(lp851
sg152
g58
sg153
Nsg154
Nsg155
Nsbag3
(g4
g5
NtRp852
(dp853
g8
g10
sg133
Nsg134
(dp854
sg136
Nsg25
g27
sg137
(lp855
I12
aI6
asg139
Nsg140
VMishnah Oholot 12:6
p856
sg142
(lp857
sg144
g97
sg145
Nsg146
(lp858
I12
aI6
asg148
Nsg149
g856
sg150
(lp859
sg152
g58
sg153
Nsg154
Nsg155
Nsbag3
(g4
g5
NtRp860
(dp861
g8
g10
sg133
Nsg134
(dp862
sg136
Nsg25
g27
sg137
(lp863
I12
aI7
asg139
Nsg140
VMishnah Oholot 12:7
p864
sg142
(lp865
sg144
g97
sg145
Nsg146
(lp866
I12
aI7
asg148
Nsg149
g864
sg150
(lp867
sg152
g58
sg153
Nsg154
Nsg155
Nsbag3
(g4
g5
NtRp868
(dp869
g8
g10
sg133
Nsg134
(dp870
sg136
Nsg25
g27
sg137
(lp871
I12
aI8
asg139
Nsg140
VMishnah Oholot 12:8
p872
sg142
(lp873
sg144
g97
sg145
Nsg146
(lp874
I12
aI8
asg148
Nsg149
g872
sg150
(lp875
sg152
g58
sg153
Nsg154
Nsg155
Nsbag3
(g4
g5
NtRp876
(dp877
g8
g10
sg133
Nsg134
(dp878
sg136
Nsg25
g27
sg137
(lp879
I13
aI1
asg139
Nsg140
VMishnah Oholot 13:1
p880
sg142
(lp881
sg144
g97
sg145
Nsg146
(lp882
I13
aI1
asg148
Nsg149
g880
sg150
(lp883
sg152
g58
sg153
Nsg154
Nsg155
Nsbag3
(g4
g5
NtRp884
(dp885
g8
g10
sg133
Nsg134
(dp886
sg136
Nsg25
g27
sg137
(lp887
I13
aI2
asg139
Nsg140
VMishnah Oholot 13:2
p888
sg142
(lp889
sg144
g97
sg145
Nsg146
(lp890
I13
aI2
asg148
Nsg149
g888
sg150
(lp891
sg152
g58
sg153
Nsg154
Nsg155
Nsbag3
(g4
g5
NtRp892
(dp893
g8
g10
sg133
Nsg134
(dp894
sg136
Nsg25
g27
sg137
(lp895
I13
aI3
asg139
Nsg140
VMishnah Oholot 13:3
p896
sg142
(lp897
sg144
g97
sg145
Nsg146
(lp898
I13
aI3
asg148
Nsg149
g896
sg150
(lp899
sg152
g58
sg153
Nsg154
Nsg155
Nsbag3
(g4
g5
NtRp900
(dp901
g8
g10
sg133
Nsg134
(dp902
sg136
Nsg25
g27
sg137
(lp903
I13
aI4
asg139
Nsg140
VMishnah Oholot 13:4
p904
sg142
(lp905
sg144
g97
sg145
Nsg146
(lp906
I13
aI4
asg148
Nsg149
g904
sg150
(lp907
sg152
g58
sg153
Nsg154
Nsg155
Nsbag3
(g4
g5
NtRp908
(dp909
g8
g10
sg133
Nsg134
(dp910
sg136
Nsg25
g27
sg137
(lp911
I13
aI5
asg139
Nsg140
VMishnah Oholot 13:5
p912
sg142
(lp913
sg144
g97
sg145
Nsg146
(lp914
I13
aI5
asg148
Nsg149
g912
sg150
(lp915
sg152
g58
sg153
Nsg154
Nsg155
Nsbag3
(g4
g5
NtRp916
(dp917
g8
g10
sg133
Nsg134
(dp918
sg136
Nsg25
g27
sg137
(lp919
I13
aI6
asg139
Nsg140
VMishnah Oholot 13:6
p920
sg142
(lp921
sg144
g97
sg145
Nsg146
(lp922
I13
aI6
asg148
Nsg149
g920
sg150
(lp923
sg152
g58
sg153
Nsg154
Nsg155
Nsbag3
(g4
g5
NtRp924
(dp925
g8
g10
sg133
Nsg134
(dp926
sg136
Nsg25
g27
sg137
(lp927
I14
aI1
asg139
Nsg140
VMishnah Oholot 14:1
p928
sg142
(lp929
sg144
g97
sg145
Nsg146
(lp930
I14
aI1
asg148
Nsg149
g928
sg150
(lp931
sg152
g58
sg153
Nsg154
Nsg155
Nsbag3
(g4
g5
NtRp932
(dp933
g8
g10
sg133
Nsg134
(dp934
sg136
Nsg25
g27
sg137
(lp935
I14
aI2
asg139
Nsg140
VMishnah Oholot 14:2
p936
sg142
(lp937
sg144
g97
sg145
Nsg146
(lp938
I14
aI2
asg148
Nsg149
g936
sg150
(lp939
sg152
g58
sg153
Nsg154
Nsg155
Nsbag3
(g4
g5
NtRp940
(dp941
g8
g10
sg133
Nsg134
(dp942
sg136
Nsg25
g27
sg137
(lp943
I14
aI3
asg139
Nsg140
VMishnah Oholot 14:3
p944
sg142
(lp945
sg144
g97
sg145
Nsg146
(lp946
I14
aI3
asg148
Nsg149
g944
sg150
(lp947
sg152
g58
sg153
Nsg154
Nsg155
Nsbag3
(g4
g5
NtRp948
(dp949
g8
g10
sg133
Nsg134
(dp950
sg136
Nsg25
g27
sg137
(lp951
I14
aI4
asg139
Nsg140
VMishnah Oholot 14:4
p952
sg142
(lp953
sg144
g97
sg145
Nsg146
(lp954
I14
aI4
asg148
Nsg149
g952
sg150
(lp955
sg152
g58
sg153
Nsg154
Nsg155
Nsbag3
(g4
g5
NtRp956
(dp957
g8
g10
sg133
Nsg134
(dp958
sg136
Nsg25
g27
sg137
(lp959
I14
aI5
asg139
Nsg140
VMishnah Oholot 14:5
p960
sg142
(lp961
sg144
g97
sg145
Nsg146
(lp962
I14
aI5
asg148
Nsg149
g960
sg150
(lp963
sg152
g58
sg153
Nsg154
Nsg155
Nsbag3
(g4
g5
NtRp964
(dp965
g8
g10
sg133
Nsg134
(dp966
sg136
Nsg25
g27
sg137
(lp967
I14
aI6
asg139
Nsg140
VMishnah Oholot 14:6
p968
sg142
(lp969
sg144
g97
sg145
Nsg146
(lp970
I14
aI6
asg148
Nsg149
g968
sg150
(lp971
sg152
g58
sg153
Nsg154
Nsg155
Nsbag3
(g4
g5
NtRp972
(dp973
g8
g10
sg133
Nsg134
(dp974
sg136
Nsg25
g27
sg137
(lp975
I14
aI7
asg139
Nsg140
VMishnah Oholot 14:7
p976
sg142
(lp977
sg144
g97
sg145
Nsg146
(lp978
I14
aI7
asg148
Nsg149
g976
sg150
(lp979
sg152
g58
sg153
Nsg154
Nsg155
Nsbag3
(g4
g5
NtRp980
(dp981
g8
g10
sg133
Nsg134
(dp982
sg136
Nsg25
g27
sg137
(lp983
I15
aI1
asg139
Nsg140
VMishnah Oholot 15:1
p984
sg142
(lp985
sg144
g97
sg145
Nsg146
(lp986
I15
aI1
asg148
Nsg149
g984
sg150
(lp987
sg152
g58
sg153
Nsg154
Nsg155
Nsbag3
(g4
g5
NtRp988
(dp989
g8
g10
sg133
Nsg134
(dp990
sg136
Nsg25
g27
sg137
(lp991
I15
aI2
asg139
Nsg140
VMishnah Oholot 15:2
p992
sg142
(lp993
sg144
g97
sg145
Nsg146
(lp994
I15
aI2
asg148
Nsg149
g992
sg150
(lp995
sg152
g58
sg153
Nsg154
Nsg155
Nsbag3
(g4
g5
NtRp996
(dp997
g8
g10
sg133
Nsg134
(dp998
sg136
Nsg25
g27
sg137
(lp999
I15
aI3
asg139
Nsg140
VMishnah Oholot 15:3
p1000
sg142
(lp1001
sg144
g97
sg145
Nsg146
(lp1002
I15
aI3
asg148
Nsg149
g1000
sg150
(lp1003
sg152
g58
sg153
Nsg154
Nsg155
Nsbag3
(g4
g5
NtRp1004
(dp1005
g8
g10
sg133
Nsg134
(dp1006
sg136
Nsg25
g27
sg137
(lp1007
I15
aI4
asg139
Nsg140
VMishnah Oholot 15:4
p1008
sg142
(lp1009
sg144
g97
sg145
Nsg146
(lp1010
I15
aI4
asg148
Nsg149
g1008
sg150
(lp1011
sg152
g58
sg153
Nsg154
Nsg155
Nsbag3
(g4
g5
NtRp1012
(dp1013
g8
g10
sg133
Nsg134
(dp1014
sg136
Nsg25
g27
sg137
(lp1015
I15
aI5
asg139
Nsg140
VMishnah Oholot 15:5
p1016
sg142
(lp1017
sg144
g97
sg145
Nsg146
(lp1018
I15
aI5
asg148
Nsg149
g1016
sg150
(lp1019
sg152
g58
sg153
Nsg154
Nsg155
Nsbag3
(g4
g5
NtRp1020
(dp1021
g8
g10
sg133
Nsg134
(dp1022
sg136
Nsg25
g27
sg137
(lp1023
I15
aI6
asg139
Nsg140
VMishnah Oholot 15:6
p1024
sg142
(lp1025
sg144
g97
sg145
Nsg146
(lp1026
I15
aI6
asg148
Nsg149
g1024
sg150
(lp1027
sg152
g58
sg153
Nsg154
Nsg155
Nsbag3
(g4
g5
NtRp1028
(dp1029
g8
g10
sg133
Nsg134
(dp1030
sg136
Nsg25
g27
sg137
(lp1031
I15
aI7
asg139
Nsg140
VMishnah Oholot 15:7
p1032
sg142
(lp1033
sg144
g97
sg145
Nsg146
(lp1034
I15
aI7
asg148
Nsg149
g1032
sg150
(lp1035
sg152
g58
sg153
Nsg154
Nsg155
Nsbag3
(g4
g5
NtRp1036
(dp1037
g8
g10
sg133
Nsg134
(dp1038
sg136
Nsg25
g27
sg137
(lp1039
I15
aI8
asg139
Nsg140
VMishnah Oholot 15:8
p1040
sg142
(lp1041
sg144
g97
sg145
Nsg146
(lp1042
I15
aI8
asg148
Nsg149
g1040
sg150
(lp1043
sg152
g58
sg153
Nsg154
Nsg155
Nsbag3
(g4
g5
NtRp1044
(dp1045
g8
g10
sg133
Nsg134
(dp1046
sg136
Nsg25
g27
sg137
(lp1047
I15
aI9
asg139
Nsg140
VMishnah Oholot 15:9
p1048
sg142
(lp1049
sg144
g97
sg145
Nsg146
(lp1050
I15
aI9
asg148
Nsg149
g1048
sg150
(lp1051
sg152
g58
sg153
Nsg154
Nsg155
Nsbag3
(g4
g5
NtRp1052
(dp1053
g8
g10
sg133
Nsg134
(dp1054
sg136
Nsg25
g27
sg137
(lp1055
I15
aI10
asg139
Nsg140
VMishnah Oholot 15:10
p1056
sg142
(lp1057
sg144
g97
sg145
Nsg146
(lp1058
I15
aI10
asg148
Nsg149
g1056
sg150
(lp1059
sg152
g58
sg153
Nsg154
Nsg155
Nsbag3
(g4
g5
NtRp1060
(dp1061
g8
g10
sg133
Nsg134
(dp1062
sg136
Nsg25
g27
sg137
(lp1063
I16
aI1
asg139
Nsg140
VMishnah Oholot 16:1
p1064
sg142
(lp1065
sg144
g97
sg145
Nsg146
(lp1066
I16
aI1
asg148
Nsg149
g1064
sg150
(lp1067
sg152
g58
sg153
Nsg154
Nsg155
Nsbag3
(g4
g5
NtRp1068
(dp1069
g8
g10
sg133
Nsg134
(dp1070
sg136
Nsg25
g27
sg137
(lp1071
I16
aI2
asg139
Nsg140
VMishnah Oholot 16:2
p1072
sg142
(lp1073
sg144
g97
sg145
Nsg146
(lp1074
I16
aI2
asg148
Nsg149
g1072
sg150
(lp1075
sg152
g58
sg153
Nsg154
Nsg155
Nsbag3
(g4
g5
NtRp1076
(dp1077
g8
g10
sg133
Nsg134
(dp1078
sg136
Nsg25
g27
sg137
(lp1079
I16
aI3
asg139
Nsg140
VMishnah Oholot 16:3
p1080
sg142
(lp1081
sg144
g97
sg145
Nsg146
(lp1082
I16
aI3
asg148
Nsg149
g1080
sg150
(lp1083
sg152
g58
sg153
Nsg154
Nsg155
Nsbag3
(g4
g5
NtRp1084
(dp1085
g8
g10
sg133
Nsg134
(dp1086
sg136
Nsg25
g27
sg137
(lp1087
I16
aI4
asg139
Nsg140
VMishnah Oholot 16:4
p1088
sg142
(lp1089
sg144
g97
sg145
Nsg146
(lp1090
I16
aI4
asg148
Nsg149
g1088
sg150
(lp1091
sg152
g58
sg153
Nsg154
Nsg155
Nsbag3
(g4
g5
NtRp1092
(dp1093
g8
g10
sg133
Nsg134
(dp1094
sg136
Nsg25
g27
sg137
(lp1095
I16
aI5
asg139
Nsg140
VMishnah Oholot 16:5
p1096
sg142
(lp1097
sg144
g97
sg145
Nsg146
(lp1098
I16
aI5
asg148
Nsg149
g1096
sg150
(lp1099
sg152
g58
sg153
Nsg154
Nsg155
Nsbag3
(g4
g5
NtRp1100
(dp1101
g8
g10
sg133
Nsg134
(dp1102
sg136
Nsg25
g27
sg137
(lp1103
I17
aI1
asg139
Nsg140
VMishnah Oholot 17:1
p1104
sg142
(lp1105
sg144
g97
sg145
Nsg146
(lp1106
I17
aI1
asg148
Nsg149
g1104
sg150
(lp1107
sg152
g58
sg153
Nsg154
Nsg155
Nsbag3
(g4
g5
NtRp1108
(dp1109
g8
g10
sg133
Nsg134
(dp1110
sg136
Nsg25
g27
sg137
(lp1111
I17
aI2
asg139
Nsg140
VMishnah Oholot 17:2
p1112
sg142
(lp1113
sg144
g97
sg145
Nsg146
(lp1114
I17
aI2
asg148
Nsg149
g1112
sg150
(lp1115
sg152
g58
sg153
Nsg154
Nsg155
Nsbag3
(g4
g5
NtRp1116
(dp1117
g8
g10
sg133
Nsg134
(dp1118
sg136
Nsg25
g27
sg137
(lp1119
I17
aI3
asg139
Nsg140
VMishnah Oholot 17:3
p1120
sg142
(lp1121
sg144
g97
sg145
Nsg146
(lp1122
I17
aI3
asg148
Nsg149
g1120
sg150
(lp1123
sg152
g58
sg153
Nsg154
Nsg155
Nsbag3
(g4
g5
NtRp1124
(dp1125
g8
g10
sg133
Nsg134
(dp1126
sg136
Nsg25
g27
sg137
(lp1127
I17
aI4
asg139
Nsg140
VMishnah Oholot 17:4
p1128
sg142
(lp1129
sg144
g97
sg145
Nsg146
(lp1130
I17
aI4
asg148
Nsg149
g1128
sg150
(lp1131
sg152
g58
sg153
Nsg154
Nsg155
Nsbag3
(g4
g5
NtRp1132
(dp1133
g8
g10
sg133
Nsg134
(dp1134
sg136
Nsg25
g27
sg137
(lp1135
I17
aI5
asg139
Nsg140
VMishnah Oholot 17:5
p1136
sg142
(lp1137
sg144
g97
sg145
Nsg146
(lp1138
I17
aI5
asg148
Nsg149
g1136
sg150
(lp1139
sg152
g58
sg153
Nsg154
Nsg155
Nsbag3
(g4
g5
NtRp1140
(dp1141
g8
g10
sg133
Nsg134
(dp1142
sg136
Nsg25
g27
sg137
(lp1143
I18
aI1
asg139
Nsg140
VMishnah Oholot 18:1
p1144
sg142
(lp1145
sg144
g97
sg145
Nsg146
(lp1146
I18
aI1
asg148
Nsg149
g1144
sg150
(lp1147
sg152
g58
sg153
Nsg154
Nsg155
Nsbag3
(g4
g5
NtRp1148
(dp1149
g8
g10
sg133
Nsg134
(dp1150
sg136
Nsg25
g27
sg137
(lp1151
I18
aI2
asg139
Nsg140
VMishnah Oholot 18:2
p1152
sg142
(lp1153
sg144
g97
sg145
Nsg146
(lp1154
I18
aI2
asg148
Nsg149
g1152
sg150
(lp1155
sg152
g58
sg153
Nsg154
Nsg155
Nsbag3
(g4
g5
NtRp1156
(dp1157
g8
g10
sg133
Nsg134
(dp1158
sg136
Nsg25
g27
sg137
(lp1159
I18
aI3
asg139
Nsg140
VMishnah Oholot 18:3
p1160
sg142
(lp1161
sg144
g97
sg145
Nsg146
(lp1162
I18
aI3
asg148
Nsg149
g1160
sg150
(lp1163
sg152
g58
sg153
Nsg154
Nsg155
Nsbag3
(g4
g5
NtRp1164
(dp1165
g8
g10
sg133
Nsg134
(dp1166
sg136
Nsg25
g27
sg137
(lp1167
I18
aI4
asg139
Nsg140
VMishnah Oholot 18:4
p1168
sg142
(lp1169
sg144
g97
sg145
Nsg146
(lp1170
I18
aI4
asg148
Nsg149
g1168
sg150
(lp1171
sg152
g58
sg153
Nsg154
Nsg155
Nsbag3
(g4
g5
NtRp1172
(dp1173
g8
g10
sg133
Nsg134
(dp1174
sg136
Nsg25
g27
sg137
(lp1175
I18
aI5
asg139
Nsg140
VMishnah Oholot 18:5
p1176
sg142
(lp1177
sg144
g97
sg145
Nsg146
(lp1178
I18
aI5
asg148
Nsg149
g1176
sg150
(lp1179
sg152
g58
sg153
Nsg154
Nsg155
Nsbag3
(g4
g5
NtRp1180
(dp1181
g8
g10
sg133
Nsg134
(dp1182
sg136
Nsg25
g27
sg137
(lp1183
I18
aI6
asg139
Nsg140
VMishnah Oholot 18:6
p1184
sg142
(lp1185
sg144
g97
sg145
Nsg146
(lp1186
I18
aI6
asg148
Nsg149
g1184
sg150
(lp1187
sg152
g58
sg153
Nsg154
Nsg155
Nsbag3
(g4
g5
NtRp1188
(dp1189
g8
g10
sg133
Nsg134
(dp1190
sg136
Nsg25
g27
sg137
(lp1191
I18
aI7
asg139
Nsg140
VMishnah Oholot 18:7
p1192
sg142
(lp1193
sg144
g97
sg145
Nsg146
(lp1194
I18
aI7
asg148
Nsg149
g1192
sg150
(lp1195
sg152
g58
sg153
Nsg154
Nsg155
Nsbag3
(g4
g5
NtRp1196
(dp1197
g8
g10
sg133
Nsg134
(dp1198
sg136
Nsg25
g27
sg137
(lp1199
I18
aI8
asg139
Nsg140
VMishnah Oholot 18:8
p1200
sg142
(lp1201
sg144
g97
sg145
Nsg146
(lp1202
I18
aI8
asg148
Nsg149
g1200
sg150
(lp1203
sg152
g58
sg153
Nsg154
Nsg155
Nsbag3
(g4
g5
NtRp1204
(dp1205
g8
g10
sg133
Nsg134
(dp1206
sg136
Nsg25
g27
sg137
(lp1207
I18
aI9
asg139
Nsg140
VMishnah Oholot 18:9
p1208
sg142
(lp1209
sg144
g97
sg145
Nsg146
(lp1210
I18
aI9
asg148
Nsg149
g1208
sg150
(lp1211
sg152
g58
sg153
Nsg154
Nsg155
Nsbag3
(g4
g5
NtRp1212
(dp1213
g8
g10
sg133
Nsg134
(dp1214
sg136
Nsg25
g27
sg137
(lp1215
I18
aI10
asg139
Nsg140
VMishnah Oholot 18:10
p1216
sg142
(lp1217
sg144
g97
sg145
Nsg146
(lp1218
I18
aI10
asg148
Nsg149
g1216
sg150
(lp1219
sg152
g58
sg153
Nsg154
Nsg155
NsbaI5893
t.