((lp1
I0
aI128
aI159
aI203
aI238
aI282
aI313
aI382
aI398
aI469
aI534
aI582
aI641
aI667
aI715
aI743
aI800
aI834
aI892
aI936
aI992
aI1032
aI1063
aI1091
aI1149
aI1184
aI1211
aI1253
aI1277
aI1327
aI1339
aI1412
aI1445
aI1473
aI1511
aI1549
aI1588
aI1617
aI1636
aI1702
aI1725
aI1751
aI1775
aI1829
aI1849
aI1866
aI1907
aI1958
aI1974
aI2001
aI2032
aI2083
aI2123
aI2147
aI2169
aI2188
aI2206
aI2230
aI2267
aI2292
aI2325
aI2369
aI2412
aI2442
aI2479
aI2509
aI2534
aI2572
aI2588
aI2618
aI2640
aI2676
aI2702
aI2728
aI2765
aI2799
aI2866
aI2905
aI2932
aI2976
aI3024
aI3059
aI3101
aI3156
aI3193
aI3237
aI3256
aI3352
aI3412
aI3467
aI3505
aI3532
aI3547
aI3607
aI3632
aI3684
a(lp2
ccopy_reg
_reconstructor
p3
(csefaria.model.text
Ref
p4
c__builtin__
object
p5
NtRp6
(dp7
S'index_node'
p8
g3
(csefaria.model.schema
JaggedArrayNode
p9
g5
NtRp10
(dp11
S'_address'
p12
(lp13
VMishnah Parah
p14
asS'_full_titles'
p15
(dp16
sVnodeType
p17
VJaggedArrayNode
p18
sS'parent'
p19
NsVaddressTypes
p20
(lp21
VPerek
p22
aVMishnah
p23
asS'default'
p24
I00
sS'index'
p25
g3
(csefaria.model.text
Index
p26
g5
NtRp27
(dp28
S'_id'
p29
g3
(cbson.objectid
ObjectId
p30
g5
NtRp31
S'NJ\xb8\x8f\xed\xba\xb4X3\x00\x00]'
p32
bsS'pkeys_orig_values'
p33
(dp34
S'title'
p35
VMishnah Parah
p36
ssS'pubDate'
p37
V1492
p38
sS'compDate'
p39
V210
p40
sS'pubPlace'
p41
VNaples
p42
sS'compPlace'
p43
VTalmudic Israel
p44
sS'enDesc'
p45
VThe Mishnah is the first major written redaction of the Jewish oral traditions known as the Oral Torah. The Mishnah was redacted by Rabbi Yehudah Ha-Nasi before his death around 217 CE, in a time when, according to the Talmud, the persecution of the Jews and the passage of time raised the possibility that the details of the oral traditions of the Pharisees from the Second Temple period (536 BCE \u2013 70 CE) would be forgotten. The majority of the Mishnah is written in Mishnaic Hebrew, while some parts are Aramaic. The Mishnah consists of six orders (sedarim, singular seder), each containing 7\u201312 tractates (masekhtot, singular masekhet), numbering 63 in total and further subdivided into chapters and paragraphs or verses. The word Mishnah can also indicate a single paragraph or a verse of the work itself, i.e. the smallest unit of structure in the Mishnah. For this reason the whole work is sometimes called by the plural, Mishnayot. Parah (Cow) belongs to the sixth order, Tahorot (Purities) and discusses the laws of the Red Heifer (Para Adumah). It has twelve chapters.
p46
sS'order'
p47
(lp48
I55
aI4
asS'era'
p49
VT
sS'struct_objs'
p50
(dp51
sS'nodes'
p52
g10
sS'errorMargin'
p53
V20
p54
sS'_title'
p55
g36
sS'categories'
p56
(lp57
VMishnah
p58
aVSeder Tahorot
p59
asS'schema'
p60
(dp61
g17
g18
sg20
g21
sVlengths
p62
(lp63
I12
aI96
asVdepth
p64
I2
sVtitles
p65
(lp66
(dp67
Vlang
p68
Ven
p69
sVtext
p70
VM Parah
p71
sa(dp72
Vlang
p73
Ven
p74
sVtext
p75
VMishna Parah
p76
sa(dp77
Vlang
p78
Ven
p79
sVtext
p80
VM. Parah
p81
sa(dp82
Vlang
p83
Vhe
p84
sVtext
p85
V\u05de\u05e9\u05e0\u05d4 \u05e4\u05e8\u05d4
p86
sVprimary
p87
I01
sa(dp88
Vlang
p89
Vhe
p90
sVtext
p91
V\u05e4\u05e8\u05d4
p92
sa(dp93
Vlang
p94
Ven
p95
sVtext
p96
VMishnah Parah
p97
sVprimary
p98
I01
sasVkey
p99
g14
sVsectionNames
p100
(lp101
VChapter
p102
aVMishna
p103
assbsS'_primary_title'
p104
(dp105
sS'title_group'
p106
g3
(csefaria.model.schema
TitleGroup
p107
g5
NtRp108
(dp109
g104
(dp110
S'en'
p111
g97
ssS'titles'
p112
g66
sbsS'_addressTypes'
p113
(lp114
g3
(csefaria.model.schema
AddressPerek
p115
g5
NtRp116
(dp117
S'length'
p118
I12
sg47
I0
sbag3
(csefaria.model.schema
AddressMishnah
p119
g5
NtRp120
(dp121
g118
Nsg47
I1
sbasS'sharedTitle'
p122
Nsg62
g63
sg64
I2
sS'_full_title'
p123
(dp124
g111
g97
ssS'key'
p125
g14
sS'checkFirst'
p126
NsS'_regexes'
p127
(dp128
sS'_leaf_nodes'
p129
(lp130
sg100
g101
sS'children'
p131
(lp132
sbsS'_range_index'
p133
NsS'_context'
p134
(dp135
sS'_padded'
p136
Nsg25
g27
sS'sections'
p137
(lp138
I1
aI1
asS'_first_spanned_ref'
p139
NsS'tref'
p140
VMishnah Parah 1:1
p141
sS'_spanned_refs'
p142
(lp143
sS'book'
p144
g97
sS'_range_depth'
p145
NsS'toSections'
p146
(lp147
I1
aI1
asS'_url'
p148
NsS'_normal'
p149
g141
sS'_ranged_refs'
p150
(lp151
sS'type'
p152
g58
sS'_prev'
p153
NsS'_he_normal'
p154
NsS'_next'
p155
Nsbag3
(g4
g5
NtRp156
(dp157
g8
g10
sg133
Nsg134
(dp158
sg136
Nsg25
g27
sg137
(lp159
I1
aI2
asg139
Nsg140
VMishnah Parah 1:2
p160
sg142
(lp161
sg144
g97
sg145
Nsg146
(lp162
I1
aI2
asg148
Nsg149
g160
sg150
(lp163
sg152
g58
sg153
Nsg154
Nsg155
Nsbag3
(g4
g5
NtRp164
(dp165
g8
g10
sg133
Nsg134
(dp166
sg136
Nsg25
g27
sg137
(lp167
I1
aI3
asg139
Nsg140
VMishnah Parah 1:3
p168
sg142
(lp169
sg144
g97
sg145
Nsg146
(lp170
I1
aI3
asg148
Nsg149
g168
sg150
(lp171
sg152
g58
sg153
Nsg154
Nsg155
Nsbag3
(g4
g5
NtRp172
(dp173
g8
g10
sg133
Nsg134
(dp174
sg136
Nsg25
g27
sg137
(lp175
I1
aI4
asg139
Nsg140
VMishnah Parah 1:4
p176
sg142
(lp177
sg144
g97
sg145
Nsg146
(lp178
I1
aI4
asg148
Nsg149
g176
sg150
(lp179
sg152
g58
sg153
Nsg154
Nsg155
Nsbag3
(g4
g5
NtRp180
(dp181
g8
g10
sg133
Nsg134
(dp182
sg136
Nsg25
g27
sg137
(lp183
I2
aI1
asg139
Nsg140
VMishnah Parah 2:1
p184
sg142
(lp185
sg144
g97
sg145
Nsg146
(lp186
I2
aI1
asg148
Nsg149
g184
sg150
(lp187
sg152
g58
sg153
Nsg154
Nsg155
Nsbag3
(g4
g5
NtRp188
(dp189
g8
g10
sg133
Nsg134
(dp190
sg136
Nsg25
g27
sg137
(lp191
I2
aI2
asg139
Nsg140
VMishnah Parah 2:2
p192
sg142
(lp193
sg144
g97
sg145
Nsg146
(lp194
I2
aI2
asg148
Nsg149
g192
sg150
(lp195
sg152
g58
sg153
Nsg154
Nsg155
Nsbag3
(g4
g5
NtRp196
(dp197
g8
g10
sg133
Nsg134
(dp198
sg136
Nsg25
g27
sg137
(lp199
I2
aI3
asg139
Nsg140
VMishnah Parah 2:3
p200
sg142
(lp201
sg144
g97
sg145
Nsg146
(lp202
I2
aI3
asg148
Nsg149
g200
sg150
(lp203
sg152
g58
sg153
Nsg154
Nsg155
Nsbag3
(g4
g5
NtRp204
(dp205
g8
g10
sg133
Nsg134
(dp206
sg136
Nsg25
g27
sg137
(lp207
I2
aI4
asg139
Nsg140
VMishnah Parah 2:4
p208
sg142
(lp209
sg144
g97
sg145
Nsg146
(lp210
I2
aI4
asg148
Nsg149
g208
sg150
(lp211
sg152
g58
sg153
Nsg154
Nsg155
Nsbag3
(g4
g5
NtRp212
(dp213
g8
g10
sg133
Nsg134
(dp214
sg136
Nsg25
g27
sg137
(lp215
I2
aI5
asg139
Nsg140
VMishnah Parah 2:5
p216
sg142
(lp217
sg144
g97
sg145
Nsg146
(lp218
I2
aI5
asg148
Nsg149
g216
sg150
(lp219
sg152
g58
sg153
Nsg154
Nsg155
Nsbag3
(g4
g5
NtRp220
(dp221
g8
g10
sg133
Nsg134
(dp222
sg136
Nsg25
g27
sg137
(lp223
I3
aI1
asg139
Nsg140
VMishnah Parah 3:1
p224
sg142
(lp225
sg144
g97
sg145
Nsg146
(lp226
I3
aI1
asg148
Nsg149
g224
sg150
(lp227
sg152
g58
sg153
Nsg154
Nsg155
Nsbag3
(g4
g5
NtRp228
(dp229
g8
g10
sg133
Nsg134
(dp230
sg136
Nsg25
g27
sg137
(lp231
I3
aI2
asg139
Nsg140
VMishnah Parah 3:2
p232
sg142
(lp233
sg144
g97
sg145
Nsg146
(lp234
I3
aI2
asg148
Nsg149
g232
sg150
(lp235
sg152
g58
sg153
Nsg154
Nsg155
Nsbag3
(g4
g5
NtRp236
(dp237
g8
g10
sg133
Nsg134
(dp238
sg136
Nsg25
g27
sg137
(lp239
I3
aI3
asg139
Nsg140
VMishnah Parah 3:3
p240
sg142
(lp241
sg144
g97
sg145
Nsg146
(lp242
I3
aI3
asg148
Nsg149
g240
sg150
(lp243
sg152
g58
sg153
Nsg154
Nsg155
Nsbag3
(g4
g5
NtRp244
(dp245
g8
g10
sg133
Nsg134
(dp246
sg136
Nsg25
g27
sg137
(lp247
I3
aI4
asg139
Nsg140
VMishnah Parah 3:4
p248
sg142
(lp249
sg144
g97
sg145
Nsg146
(lp250
I3
aI4
asg148
Nsg149
g248
sg150
(lp251
sg152
g58
sg153
Nsg154
Nsg155
Nsbag3
(g4
g5
NtRp252
(dp253
g8
g10
sg133
Nsg134
(dp254
sg136
Nsg25
g27
sg137
(lp255
I3
aI5
asg139
Nsg140
VMishnah Parah 3:5
p256
sg142
(lp257
sg144
g97
sg145
Nsg146
(lp258
I3
aI5
asg148
Nsg149
g256
sg150
(lp259
sg152
g58
sg153
Nsg154
Nsg155
Nsbag3
(g4
g5
NtRp260
(dp261
g8
g10
sg133
Nsg134
(dp262
sg136
Nsg25
g27
sg137
(lp263
I3
aI6
asg139
Nsg140
VMishnah Parah 3:6
p264
sg142
(lp265
sg144
g97
sg145
Nsg146
(lp266
I3
aI6
asg148
Nsg149
g264
sg150
(lp267
sg152
g58
sg153
Nsg154
Nsg155
Nsbag3
(g4
g5
NtRp268
(dp269
g8
g10
sg133
Nsg134
(dp270
sg136
Nsg25
g27
sg137
(lp271
I3
aI7
asg139
Nsg140
VMishnah Parah 3:7
p272
sg142
(lp273
sg144
g97
sg145
Nsg146
(lp274
I3
aI7
asg148
Nsg149
g272
sg150
(lp275
sg152
g58
sg153
Nsg154
Nsg155
Nsbag3
(g4
g5
NtRp276
(dp277
g8
g10
sg133
Nsg134
(dp278
sg136
Nsg25
g27
sg137
(lp279
I3
aI8
asg139
Nsg140
VMishnah Parah 3:8
p280
sg142
(lp281
sg144
g97
sg145
Nsg146
(lp282
I3
aI8
asg148
Nsg149
g280
sg150
(lp283
sg152
g58
sg153
Nsg154
Nsg155
Nsbag3
(g4
g5
NtRp284
(dp285
g8
g10
sg133
Nsg134
(dp286
sg136
Nsg25
g27
sg137
(lp287
I3
aI9
asg139
Nsg140
VMishnah Parah 3:9
p288
sg142
(lp289
sg144
g97
sg145
Nsg146
(lp290
I3
aI9
asg148
Nsg149
g288
sg150
(lp291
sg152
g58
sg153
Nsg154
Nsg155
Nsbag3
(g4
g5
NtRp292
(dp293
g8
g10
sg133
Nsg134
(dp294
sg136
Nsg25
g27
sg137
(lp295
I3
aI10
asg139
Nsg140
VMishnah Parah 3:10
p296
sg142
(lp297
sg144
g97
sg145
Nsg146
(lp298
I3
aI10
asg148
Nsg149
g296
sg150
(lp299
sg152
g58
sg153
Nsg154
Nsg155
Nsbag3
(g4
g5
NtRp300
(dp301
g8
g10
sg133
Nsg134
(dp302
sg136
Nsg25
g27
sg137
(lp303
I3
aI11
asg139
Nsg140
VMishnah Parah 3:11
p304
sg142
(lp305
sg144
g97
sg145
Nsg146
(lp306
I3
aI11
asg148
Nsg149
g304
sg150
(lp307
sg152
g58
sg153
Nsg154
Nsg155
Nsbag3
(g4
g5
NtRp308
(dp309
g8
g10
sg133
Nsg134
(dp310
sg136
Nsg25
g27
sg137
(lp311
I4
aI1
asg139
Nsg140
VMishnah Parah 4:1
p312
sg142
(lp313
sg144
g97
sg145
Nsg146
(lp314
I4
aI1
asg148
Nsg149
g312
sg150
(lp315
sg152
g58
sg153
Nsg154
Nsg155
Nsbag3
(g4
g5
NtRp316
(dp317
g8
g10
sg133
Nsg134
(dp318
sg136
Nsg25
g27
sg137
(lp319
I4
aI2
asg139
Nsg140
VMishnah Parah 4:2
p320
sg142
(lp321
sg144
g97
sg145
Nsg146
(lp322
I4
aI2
asg148
Nsg149
g320
sg150
(lp323
sg152
g58
sg153
Nsg154
Nsg155
Nsbag3
(g4
g5
NtRp324
(dp325
g8
g10
sg133
Nsg134
(dp326
sg136
Nsg25
g27
sg137
(lp327
I4
aI3
asg139
Nsg140
VMishnah Parah 4:3
p328
sg142
(lp329
sg144
g97
sg145
Nsg146
(lp330
I4
aI3
asg148
Nsg149
g328
sg150
(lp331
sg152
g58
sg153
Nsg154
Nsg155
Nsbag3
(g4
g5
NtRp332
(dp333
g8
g10
sg133
Nsg134
(dp334
sg136
Nsg25
g27
sg137
(lp335
I4
aI4
asg139
Nsg140
VMishnah Parah 4:4
p336
sg142
(lp337
sg144
g97
sg145
Nsg146
(lp338
I4
aI4
asg148
Nsg149
g336
sg150
(lp339
sg152
g58
sg153
Nsg154
Nsg155
Nsbag3
(g4
g5
NtRp340
(dp341
g8
g10
sg133
Nsg134
(dp342
sg136
Nsg25
g27
sg137
(lp343
I5
aI1
asg139
Nsg140
VMishnah Parah 5:1
p344
sg142
(lp345
sg144
g97
sg145
Nsg146
(lp346
I5
aI1
asg148
Nsg149
g344
sg150
(lp347
sg152
g58
sg153
Nsg154
Nsg155
Nsbag3
(g4
g5
NtRp348
(dp349
g8
g10
sg133
Nsg134
(dp350
sg136
Nsg25
g27
sg137
(lp351
I5
aI2
asg139
Nsg140
VMishnah Parah 5:2
p352
sg142
(lp353
sg144
g97
sg145
Nsg146
(lp354
I5
aI2
asg148
Nsg149
g352
sg150
(lp355
sg152
g58
sg153
Nsg154
Nsg155
Nsbag3
(g4
g5
NtRp356
(dp357
g8
g10
sg133
Nsg134
(dp358
sg136
Nsg25
g27
sg137
(lp359
I5
aI3
asg139
Nsg140
VMishnah Parah 5:3
p360
sg142
(lp361
sg144
g97
sg145
Nsg146
(lp362
I5
aI3
asg148
Nsg149
g360
sg150
(lp363
sg152
g58
sg153
Nsg154
Nsg155
Nsbag3
(g4
g5
NtRp364
(dp365
g8
g10
sg133
Nsg134
(dp366
sg136
Nsg25
g27
sg137
(lp367
I5
aI4
asg139
Nsg140
VMishnah Parah 5:4
p368
sg142
(lp369
sg144
g97
sg145
Nsg146
(lp370
I5
aI4
asg148
Nsg149
g368
sg150
(lp371
sg152
g58
sg153
Nsg154
Nsg155
Nsbag3
(g4
g5
NtRp372
(dp373
g8
g10
sg133
Nsg134
(dp374
sg136
Nsg25
g27
sg137
(lp375
I5
aI5
asg139
Nsg140
VMishnah Parah 5:5
p376
sg142
(lp377
sg144
g97
sg145
Nsg146
(lp378
I5
aI5
asg148
Nsg149
g376
sg150
(lp379
sg152
g58
sg153
Nsg154
Nsg155
Nsbag3
(g4
g5
NtRp380
(dp381
g8
g10
sg133
Nsg134
(dp382
sg136
Nsg25
g27
sg137
(lp383
I5
aI6
asg139
Nsg140
VMishnah Parah 5:6
p384
sg142
(lp385
sg144
g97
sg145
Nsg146
(lp386
I5
aI6
asg148
Nsg149
g384
sg150
(lp387
sg152
g58
sg153
Nsg154
Nsg155
Nsbag3
(g4
g5
NtRp388
(dp389
g8
g10
sg133
Nsg134
(dp390
sg136
Nsg25
g27
sg137
(lp391
I5
aI7
asg139
Nsg140
VMishnah Parah 5:7
p392
sg142
(lp393
sg144
g97
sg145
Nsg146
(lp394
I5
aI7
asg148
Nsg149
g392
sg150
(lp395
sg152
g58
sg153
Nsg154
Nsg155
Nsbag3
(g4
g5
NtRp396
(dp397
g8
g10
sg133
Nsg134
(dp398
sg136
Nsg25
g27
sg137
(lp399
I5
aI8
asg139
Nsg140
VMishnah Parah 5:8
p400
sg142
(lp401
sg144
g97
sg145
Nsg146
(lp402
I5
aI8
asg148
Nsg149
g400
sg150
(lp403
sg152
g58
sg153
Nsg154
Nsg155
Nsbag3
(g4
g5
NtRp404
(dp405
g8
g10
sg133
Nsg134
(dp406
sg136
Nsg25
g27
sg137
(lp407
I5
aI9
asg139
Nsg140
VMishnah Parah 5:9
p408
sg142
(lp409
sg144
g97
sg145
Nsg146
(lp410
I5
aI9
asg148
Nsg149
g408
sg150
(lp411
sg152
g58
sg153
Nsg154
Nsg155
Nsbag3
(g4
g5
NtRp412
(dp413
g8
g10
sg133
Nsg134
(dp414
sg136
Nsg25
g27
sg137
(lp415
I6
aI1
asg139
Nsg140
VMishnah Parah 6:1
p416
sg142
(lp417
sg144
g97
sg145
Nsg146
(lp418
I6
aI1
asg148
Nsg149
g416
sg150
(lp419
sg152
g58
sg153
Nsg154
Nsg155
Nsbag3
(g4
g5
NtRp420
(dp421
g8
g10
sg133
Nsg134
(dp422
sg136
Nsg25
g27
sg137
(lp423
I6
aI2
asg139
Nsg140
VMishnah Parah 6:2
p424
sg142
(lp425
sg144
g97
sg145
Nsg146
(lp426
I6
aI2
asg148
Nsg149
g424
sg150
(lp427
sg152
g58
sg153
Nsg154
Nsg155
Nsbag3
(g4
g5
NtRp428
(dp429
g8
g10
sg133
Nsg134
(dp430
sg136
Nsg25
g27
sg137
(lp431
I6
aI3
asg139
Nsg140
VMishnah Parah 6:3
p432
sg142
(lp433
sg144
g97
sg145
Nsg146
(lp434
I6
aI3
asg148
Nsg149
g432
sg150
(lp435
sg152
g58
sg153
Nsg154
Nsg155
Nsbag3
(g4
g5
NtRp436
(dp437
g8
g10
sg133
Nsg134
(dp438
sg136
Nsg25
g27
sg137
(lp439
I6
aI4
asg139
Nsg140
VMishnah Parah 6:4
p440
sg142
(lp441
sg144
g97
sg145
Nsg146
(lp442
I6
aI4
asg148
Nsg149
g440
sg150
(lp443
sg152
g58
sg153
Nsg154
Nsg155
Nsbag3
(g4
g5
NtRp444
(dp445
g8
g10
sg133
Nsg134
(dp446
sg136
Nsg25
g27
sg137
(lp447
I6
aI5
asg139
Nsg140
VMishnah Parah 6:5
p448
sg142
(lp449
sg144
g97
sg145
Nsg146
(lp450
I6
aI5
asg148
Nsg149
g448
sg150
(lp451
sg152
g58
sg153
Nsg154
Nsg155
Nsbag3
(g4
g5
NtRp452
(dp453
g8
g10
sg133
Nsg134
(dp454
sg136
Nsg25
g27
sg137
(lp455
I7
aI1
asg139
Nsg140
VMishnah Parah 7:1
p456
sg142
(lp457
sg144
g97
sg145
Nsg146
(lp458
I7
aI1
asg148
Nsg149
g456
sg150
(lp459
sg152
g58
sg153
Nsg154
Nsg155
Nsbag3
(g4
g5
NtRp460
(dp461
g8
g10
sg133
Nsg134
(dp462
sg136
Nsg25
g27
sg137
(lp463
I7
aI2
asg139
Nsg140
VMishnah Parah 7:2
p464
sg142
(lp465
sg144
g97
sg145
Nsg146
(lp466
I7
aI2
asg148
Nsg149
g464
sg150
(lp467
sg152
g58
sg153
Nsg154
Nsg155
Nsbag3
(g4
g5
NtRp468
(dp469
g8
g10
sg133
Nsg134
(dp470
sg136
Nsg25
g27
sg137
(lp471
I7
aI3
asg139
Nsg140
VMishnah Parah 7:3
p472
sg142
(lp473
sg144
g97
sg145
Nsg146
(lp474
I7
aI3
asg148
Nsg149
g472
sg150
(lp475
sg152
g58
sg153
Nsg154
Nsg155
Nsbag3
(g4
g5
NtRp476
(dp477
g8
g10
sg133
Nsg134
(dp478
sg136
Nsg25
g27
sg137
(lp479
I7
aI4
asg139
Nsg140
VMishnah Parah 7:4
p480
sg142
(lp481
sg144
g97
sg145
Nsg146
(lp482
I7
aI4
asg148
Nsg149
g480
sg150
(lp483
sg152
g58
sg153
Nsg154
Nsg155
Nsbag3
(g4
g5
NtRp484
(dp485
g8
g10
sg133
Nsg134
(dp486
sg136
Nsg25
g27
sg137
(lp487
I7
aI5
asg139
Nsg140
VMishnah Parah 7:5
p488
sg142
(lp489
sg144
g97
sg145
Nsg146
(lp490
I7
aI5
asg148
Nsg149
g488
sg150
(lp491
sg152
g58
sg153
Nsg154
Nsg155
Nsbag3
(g4
g5
NtRp492
(dp493
g8
g10
sg133
Nsg134
(dp494
sg136
Nsg25
g27
sg137
(lp495
I7
aI6
asg139
Nsg140
VMishnah Parah 7:6
p496
sg142
(lp497
sg144
g97
sg145
Nsg146
(lp498
I7
aI6
asg148
Nsg149
g496
sg150
(lp499
sg152
g58
sg153
Nsg154
Nsg155
Nsbag3
(g4
g5
NtRp500
(dp501
g8
g10
sg133
Nsg134
(dp502
sg136
Nsg25
g27
sg137
(lp503
I7
aI7
asg139
Nsg140
VMishnah Parah 7:7
p504
sg142
(lp505
sg144
g97
sg145
Nsg146
(lp506
I7
aI7
asg148
Nsg149
g504
sg150
(lp507
sg152
g58
sg153
Nsg154
Nsg155
Nsbag3
(g4
g5
NtRp508
(dp509
g8
g10
sg133
Nsg134
(dp510
sg136
Nsg25
g27
sg137
(lp511
I7
aI8
asg139
Nsg140
VMishnah Parah 7:8
p512
sg142
(lp513
sg144
g97
sg145
Nsg146
(lp514
I7
aI8
asg148
Nsg149
g512
sg150
(lp515
sg152
g58
sg153
Nsg154
Nsg155
Nsbag3
(g4
g5
NtRp516
(dp517
g8
g10
sg133
Nsg134
(dp518
sg136
Nsg25
g27
sg137
(lp519
I7
aI9
asg139
Nsg140
VMishnah Parah 7:9
p520
sg142
(lp521
sg144
g97
sg145
Nsg146
(lp522
I7
aI9
asg148
Nsg149
g520
sg150
(lp523
sg152
g58
sg153
Nsg154
Nsg155
Nsbag3
(g4
g5
NtRp524
(dp525
g8
g10
sg133
Nsg134
(dp526
sg136
Nsg25
g27
sg137
(lp527
I7
aI10
asg139
Nsg140
VMishnah Parah 7:10
p528
sg142
(lp529
sg144
g97
sg145
Nsg146
(lp530
I7
aI10
asg148
Nsg149
g528
sg150
(lp531
sg152
g58
sg153
Nsg154
Nsg155
Nsbag3
(g4
g5
NtRp532
(dp533
g8
g10
sg133
Nsg134
(dp534
sg136
Nsg25
g27
sg137
(lp535
I7
aI11
asg139
Nsg140
VMishnah Parah 7:11
p536
sg142
(lp537
sg144
g97
sg145
Nsg146
(lp538
I7
aI11
asg148
Nsg149
g536
sg150
(lp539
sg152
g58
sg153
Nsg154
Nsg155
Nsbag3
(g4
g5
NtRp540
(dp541
g8
g10
sg133
Nsg134
(dp542
sg136
Nsg25
g27
sg137
(lp543
I7
aI12
asg139
Nsg140
VMishnah Parah 7:12
p544
sg142
(lp545
sg144
g97
sg145
Nsg146
(lp546
I7
aI12
asg148
Nsg149
g544
sg150
(lp547
sg152
g58
sg153
Nsg154
Nsg155
Nsbag3
(g4
g5
NtRp548
(dp549
g8
g10
sg133
Nsg134
(dp550
sg136
Nsg25
g27
sg137
(lp551
I8
aI1
asg139
Nsg140
VMishnah Parah 8:1
p552
sg142
(lp553
sg144
g97
sg145
Nsg146
(lp554
I8
aI1
asg148
Nsg149
g552
sg150
(lp555
sg152
g58
sg153
Nsg154
Nsg155
Nsbag3
(g4
g5
NtRp556
(dp557
g8
g10
sg133
Nsg134
(dp558
sg136
Nsg25
g27
sg137
(lp559
I8
aI2
asg139
Nsg140
VMishnah Parah 8:2
p560
sg142
(lp561
sg144
g97
sg145
Nsg146
(lp562
I8
aI2
asg148
Nsg149
g560
sg150
(lp563
sg152
g58
sg153
Nsg154
Nsg155
Nsbag3
(g4
g5
NtRp564
(dp565
g8
g10
sg133
Nsg134
(dp566
sg136
Nsg25
g27
sg137
(lp567
I8
aI3
asg139
Nsg140
VMishnah Parah 8:3
p568
sg142
(lp569
sg144
g97
sg145
Nsg146
(lp570
I8
aI3
asg148
Nsg149
g568
sg150
(lp571
sg152
g58
sg153
Nsg154
Nsg155
Nsbag3
(g4
g5
NtRp572
(dp573
g8
g10
sg133
Nsg134
(dp574
sg136
Nsg25
g27
sg137
(lp575
I8
aI4
asg139
Nsg140
VMishnah Parah 8:4
p576
sg142
(lp577
sg144
g97
sg145
Nsg146
(lp578
I8
aI4
asg148
Nsg149
g576
sg150
(lp579
sg152
g58
sg153
Nsg154
Nsg155
Nsbag3
(g4
g5
NtRp580
(dp581
g8
g10
sg133
Nsg134
(dp582
sg136
Nsg25
g27
sg137
(lp583
I8
aI5
asg139
Nsg140
VMishnah Parah 8:5
p584
sg142
(lp585
sg144
g97
sg145
Nsg146
(lp586
I8
aI5
asg148
Nsg149
g584
sg150
(lp587
sg152
g58
sg153
Nsg154
Nsg155
Nsbag3
(g4
g5
NtRp588
(dp589
g8
g10
sg133
Nsg134
(dp590
sg136
Nsg25
g27
sg137
(lp591
I8
aI6
asg139
Nsg140
VMishnah Parah 8:6
p592
sg142
(lp593
sg144
g97
sg145
Nsg146
(lp594
I8
aI6
asg148
Nsg149
g592
sg150
(lp595
sg152
g58
sg153
Nsg154
Nsg155
Nsbag3
(g4
g5
NtRp596
(dp597
g8
g10
sg133
Nsg134
(dp598
sg136
Nsg25
g27
sg137
(lp599
I8
aI7
asg139
Nsg140
VMishnah Parah 8:7
p600
sg142
(lp601
sg144
g97
sg145
Nsg146
(lp602
I8
aI7
asg148
Nsg149
g600
sg150
(lp603
sg152
g58
sg153
Nsg154
Nsg155
Nsbag3
(g4
g5
NtRp604
(dp605
g8
g10
sg133
Nsg134
(dp606
sg136
Nsg25
g27
sg137
(lp607
I8
aI8
asg139
Nsg140
VMishnah Parah 8:8
p608
sg142
(lp609
sg144
g97
sg145
Nsg146
(lp610
I8
aI8
asg148
Nsg149
g608
sg150
(lp611
sg152
g58
sg153
Nsg154
Nsg155
Nsbag3
(g4
g5
NtRp612
(dp613
g8
g10
sg133
Nsg134
(dp614
sg136
Nsg25
g27
sg137
(lp615
I8
aI9
asg139
Nsg140
VMishnah Parah 8:9
p616
sg142
(lp617
sg144
g97
sg145
Nsg146
(lp618
I8
aI9
asg148
Nsg149
g616
sg150
(lp619
sg152
g58
sg153
Nsg154
Nsg155
Nsbag3
(g4
g5
NtRp620
(dp621
g8
g10
sg133
Nsg134
(dp622
sg136
Nsg25
g27
sg137
(lp623
I8
aI10
asg139
Nsg140
VMishnah Parah 8:10
p624
sg142
(lp625
sg144
g97
sg145
Nsg146
(lp626
I8
aI10
asg148
Nsg149
g624
sg150
(lp627
sg152
g58
sg153
Nsg154
Nsg155
Nsbag3
(g4
g5
NtRp628
(dp629
g8
g10
sg133
Nsg134
(dp630
sg136
Nsg25
g27
sg137
(lp631
I8
aI11
asg139
Nsg140
VMishnah Parah 8:11
p632
sg142
(lp633
sg144
g97
sg145
Nsg146
(lp634
I8
aI11
asg148
Nsg149
g632
sg150
(lp635
sg152
g58
sg153
Nsg154
Nsg155
Nsbag3
(g4
g5
NtRp636
(dp637
g8
g10
sg133
Nsg134
(dp638
sg136
Nsg25
g27
sg137
(lp639
I9
aI1
asg139
Nsg140
VMishnah Parah 9:1
p640
sg142
(lp641
sg144
g97
sg145
Nsg146
(lp642
I9
aI1
asg148
Nsg149
g640
sg150
(lp643
sg152
g58
sg153
Nsg154
Nsg155
Nsbag3
(g4
g5
NtRp644
(dp645
g8
g10
sg133
Nsg134
(dp646
sg136
Nsg25
g27
sg137
(lp647
I9
aI2
asg139
Nsg140
VMishnah Parah 9:2
p648
sg142
(lp649
sg144
g97
sg145
Nsg146
(lp650
I9
aI2
asg148
Nsg149
g648
sg150
(lp651
sg152
g58
sg153
Nsg154
Nsg155
Nsbag3
(g4
g5
NtRp652
(dp653
g8
g10
sg133
Nsg134
(dp654
sg136
Nsg25
g27
sg137
(lp655
I9
aI3
asg139
Nsg140
VMishnah Parah 9:3
p656
sg142
(lp657
sg144
g97
sg145
Nsg146
(lp658
I9
aI3
asg148
Nsg149
g656
sg150
(lp659
sg152
g58
sg153
Nsg154
Nsg155
Nsbag3
(g4
g5
NtRp660
(dp661
g8
g10
sg133
Nsg134
(dp662
sg136
Nsg25
g27
sg137
(lp663
I9
aI4
asg139
Nsg140
VMishnah Parah 9:4
p664
sg142
(lp665
sg144
g97
sg145
Nsg146
(lp666
I9
aI4
asg148
Nsg149
g664
sg150
(lp667
sg152
g58
sg153
Nsg154
Nsg155
Nsbag3
(g4
g5
NtRp668
(dp669
g8
g10
sg133
Nsg134
(dp670
sg136
Nsg25
g27
sg137
(lp671
I9
aI5
asg139
Nsg140
VMishnah Parah 9:5
p672
sg142
(lp673
sg144
g97
sg145
Nsg146
(lp674
I9
aI5
asg148
Nsg149
g672
sg150
(lp675
sg152
g58
sg153
Nsg154
Nsg155
Nsbag3
(g4
g5
NtRp676
(dp677
g8
g10
sg133
Nsg134
(dp678
sg136
Nsg25
g27
sg137
(lp679
I9
aI6
asg139
Nsg140
VMishnah Parah 9:6
p680
sg142
(lp681
sg144
g97
sg145
Nsg146
(lp682
I9
aI6
asg148
Nsg149
g680
sg150
(lp683
sg152
g58
sg153
Nsg154
Nsg155
Nsbag3
(g4
g5
NtRp684
(dp685
g8
g10
sg133
Nsg134
(dp686
sg136
Nsg25
g27
sg137
(lp687
I9
aI7
asg139
Nsg140
VMishnah Parah 9:7
p688
sg142
(lp689
sg144
g97
sg145
Nsg146
(lp690
I9
aI7
asg148
Nsg149
g688
sg150
(lp691
sg152
g58
sg153
Nsg154
Nsg155
Nsbag3
(g4
g5
NtRp692
(dp693
g8
g10
sg133
Nsg134
(dp694
sg136
Nsg25
g27
sg137
(lp695
I9
aI8
asg139
Nsg140
VMishnah Parah 9:8
p696
sg142
(lp697
sg144
g97
sg145
Nsg146
(lp698
I9
aI8
asg148
Nsg149
g696
sg150
(lp699
sg152
g58
sg153
Nsg154
Nsg155
Nsbag3
(g4
g5
NtRp700
(dp701
g8
g10
sg133
Nsg134
(dp702
sg136
Nsg25
g27
sg137
(lp703
I9
aI9
asg139
Nsg140
VMishnah Parah 9:9
p704
sg142
(lp705
sg144
g97
sg145
Nsg146
(lp706
I9
aI9
asg148
Nsg149
g704
sg150
(lp707
sg152
g58
sg153
Nsg154
Nsg155
Nsbag3
(g4
g5
NtRp708
(dp709
g8
g10
sg133
Nsg134
(dp710
sg136
Nsg25
g27
sg137
(lp711
I10
aI1
asg139
Nsg140
VMishnah Parah 10:1
p712
sg142
(lp713
sg144
g97
sg145
Nsg146
(lp714
I10
aI1
asg148
Nsg149
g712
sg150
(lp715
sg152
g58
sg153
Nsg154
Nsg155
Nsbag3
(g4
g5
NtRp716
(dp717
g8
g10
sg133
Nsg134
(dp718
sg136
Nsg25
g27
sg137
(lp719
I10
aI2
asg139
Nsg140
VMishnah Parah 10:2
p720
sg142
(lp721
sg144
g97
sg145
Nsg146
(lp722
I10
aI2
asg148
Nsg149
g720
sg150
(lp723
sg152
g58
sg153
Nsg154
Nsg155
Nsbag3
(g4
g5
NtRp724
(dp725
g8
g10
sg133
Nsg134
(dp726
sg136
Nsg25
g27
sg137
(lp727
I10
aI3
asg139
Nsg140
VMishnah Parah 10:3
p728
sg142
(lp729
sg144
g97
sg145
Nsg146
(lp730
I10
aI3
asg148
Nsg149
g728
sg150
(lp731
sg152
g58
sg153
Nsg154
Nsg155
Nsbag3
(g4
g5
NtRp732
(dp733
g8
g10
sg133
Nsg134
(dp734
sg136
Nsg25
g27
sg137
(lp735
I10
aI4
asg139
Nsg140
VMishnah Parah 10:4
p736
sg142
(lp737
sg144
g97
sg145
Nsg146
(lp738
I10
aI4
asg148
Nsg149
g736
sg150
(lp739
sg152
g58
sg153
Nsg154
Nsg155
Nsbag3
(g4
g5
NtRp740
(dp741
g8
g10
sg133
Nsg134
(dp742
sg136
Nsg25
g27
sg137
(lp743
I10
aI5
asg139
Nsg140
VMishnah Parah 10:5
p744
sg142
(lp745
sg144
g97
sg145
Nsg146
(lp746
I10
aI5
asg148
Nsg149
g744
sg150
(lp747
sg152
g58
sg153
Nsg154
Nsg155
Nsbag3
(g4
g5
NtRp748
(dp749
g8
g10
sg133
Nsg134
(dp750
sg136
Nsg25
g27
sg137
(lp751
I10
aI6
asg139
Nsg140
VMishnah Parah 10:6
p752
sg142
(lp753
sg144
g97
sg145
Nsg146
(lp754
I10
aI6
asg148
Nsg149
g752
sg150
(lp755
sg152
g58
sg153
Nsg154
Nsg155
Nsbag3
(g4
g5
NtRp756
(dp757
g8
g10
sg133
Nsg134
(dp758
sg136
Nsg25
g27
sg137
(lp759
I11
aI1
asg139
Nsg140
VMishnah Parah 11:1
p760
sg142
(lp761
sg144
g97
sg145
Nsg146
(lp762
I11
aI1
asg148
Nsg149
g760
sg150
(lp763
sg152
g58
sg153
Nsg154
Nsg155
Nsbag3
(g4
g5
NtRp764
(dp765
g8
g10
sg133
Nsg134
(dp766
sg136
Nsg25
g27
sg137
(lp767
I11
aI2
asg139
Nsg140
VMishnah Parah 11:2
p768
sg142
(lp769
sg144
g97
sg145
Nsg146
(lp770
I11
aI2
asg148
Nsg149
g768
sg150
(lp771
sg152
g58
sg153
Nsg154
Nsg155
Nsbag3
(g4
g5
NtRp772
(dp773
g8
g10
sg133
Nsg134
(dp774
sg136
Nsg25
g27
sg137
(lp775
I11
aI3
asg139
Nsg140
VMishnah Parah 11:3
p776
sg142
(lp777
sg144
g97
sg145
Nsg146
(lp778
I11
aI3
asg148
Nsg149
g776
sg150
(lp779
sg152
g58
sg153
Nsg154
Nsg155
Nsbag3
(g4
g5
NtRp780
(dp781
g8
g10
sg133
Nsg134
(dp782
sg136
Nsg25
g27
sg137
(lp783
I11
aI4
asg139
Nsg140
VMishnah Parah 11:4
p784
sg142
(lp785
sg144
g97
sg145
Nsg146
(lp786
I11
aI4
asg148
Nsg149
g784
sg150
(lp787
sg152
g58
sg153
Nsg154
Nsg155
Nsbag3
(g4
g5
NtRp788
(dp789
g8
g10
sg133
Nsg134
(dp790
sg136
Nsg25
g27
sg137
(lp791
I11
aI5
asg139
Nsg140
VMishnah Parah 11:5
p792
sg142
(lp793
sg144
g97
sg145
Nsg146
(lp794
I11
aI5
asg148
Nsg149
g792
sg150
(lp795
sg152
g58
sg153
Nsg154
Nsg155
Nsbag3
(g4
g5
NtRp796
(dp797
g8
g10
sg133
Nsg134
(dp798
sg136
Nsg25
g27
sg137
(lp799
I11
aI6
asg139
Nsg140
VMishnah Parah 11:6
p800
sg142
(lp801
sg144
g97
sg145
Nsg146
(lp802
I11
aI6
asg148
Nsg149
g800
sg150
(lp803
sg152
g58
sg153
Nsg154
Nsg155
Nsbag3
(g4
g5
NtRp804
(dp805
g8
g10
sg133
Nsg134
(dp806
sg136
Nsg25
g27
sg137
(lp807
I11
aI7
asg139
Nsg140
VMishnah Parah 11:7
p808
sg142
(lp809
sg144
g97
sg145
Nsg146
(lp810
I11
aI7
asg148
Nsg149
g808
sg150
(lp811
sg152
g58
sg153
Nsg154
Nsg155
Nsbag3
(g4
g5
NtRp812
(dp813
g8
g10
sg133
Nsg134
(dp814
sg136
Nsg25
g27
sg137
(lp815
I11
aI8
asg139
Nsg140
VMishnah Parah 11:8
p816
sg142
(lp817
sg144
g97
sg145
Nsg146
(lp818
I11
aI8
asg148
Nsg149
g816
sg150
(lp819
sg152
g58
sg153
Nsg154
Nsg155
Nsbag3
(g4
g5
NtRp820
(dp821
g8
g10
sg133
Nsg134
(dp822
sg136
Nsg25
g27
sg137
(lp823
I11
aI9
asg139
Nsg140
VMishnah Parah 11:9
p824
sg142
(lp825
sg144
g97
sg145
Nsg146
(lp826
I11
aI9
asg148
Nsg149
g824
sg150
(lp827
sg152
g58
sg153
Nsg154
Nsg155
Nsbag3
(g4
g5
NtRp828
(dp829
g8
g10
sg133
Nsg134
(dp830
sg136
Nsg25
g27
sg137
(lp831
I12
aI1
asg139
Nsg140
VMishnah Parah 12:1
p832
sg142
(lp833
sg144
g97
sg145
Nsg146
(lp834
I12
aI1
asg148
Nsg149
g832
sg150
(lp835
sg152
g58
sg153
Nsg154
Nsg155
Nsbag3
(g4
g5
NtRp836
(dp837
g8
g10
sg133
Nsg134
(dp838
sg136
Nsg25
g27
sg137
(lp839
I12
aI2
asg139
Nsg140
VMishnah Parah 12:2
p840
sg142
(lp841
sg144
g97
sg145
Nsg146
(lp842
I12
aI2
asg148
Nsg149
g840
sg150
(lp843
sg152
g58
sg153
Nsg154
Nsg155
Nsbag3
(g4
g5
NtRp844
(dp845
g8
g10
sg133
Nsg134
(dp846
sg136
Nsg25
g27
sg137
(lp847
I12
aI3
asg139
Nsg140
VMishnah Parah 12:3
p848
sg142
(lp849
sg144
g97
sg145
Nsg146
(lp850
I12
aI3
asg148
Nsg149
g848
sg150
(lp851
sg152
g58
sg153
Nsg154
Nsg155
Nsbag3
(g4
g5
NtRp852
(dp853
g8
g10
sg133
Nsg134
(dp854
sg136
Nsg25
g27
sg137
(lp855
I12
aI4
asg139
Nsg140
VMishnah Parah 12:4
p856
sg142
(lp857
sg144
g97
sg145
Nsg146
(lp858
I12
aI4
asg148
Nsg149
g856
sg150
(lp859
sg152
g58
sg153
Nsg154
Nsg155
Nsbag3
(g4
g5
NtRp860
(dp861
g8
g10
sg133
Nsg134
(dp862
sg136
Nsg25
g27
sg137
(lp863
I12
aI5
asg139
Nsg140
VMishnah Parah 12:5
p864
sg142
(lp865
sg144
g97
sg145
Nsg146
(lp866
I12
aI5
asg148
Nsg149
g864
sg150
(lp867
sg152
g58
sg153
Nsg154
Nsg155
Nsbag3
(g4
g5
NtRp868
(dp869
g8
g10
sg133
Nsg134
(dp870
sg136
Nsg25
g27
sg137
(lp871
I12
aI6
asg139
Nsg140
VMishnah Parah 12:6
p872
sg142
(lp873
sg144
g97
sg145
Nsg146
(lp874
I12
aI6
asg148
Nsg149
g872
sg150
(lp875
sg152
g58
sg153
Nsg154
Nsg155
Nsbag3
(g4
g5
NtRp876
(dp877
g8
g10
sg133
Nsg134
(dp878
sg136
Nsg25
g27
sg137
(lp879
I12
aI7
asg139
Nsg140
VMishnah Parah 12:7
p880
sg142
(lp881
sg144
g97
sg145
Nsg146
(lp882
I12
aI7
asg148
Nsg149
g880
sg150
(lp883
sg152
g58
sg153
Nsg154
Nsg155
Nsbag3
(g4
g5
NtRp884
(dp885
g8
g10
sg133
Nsg134
(dp886
sg136
Nsg25
g27
sg137
(lp887
I12
aI8
asg139
Nsg140
VMishnah Parah 12:8
p888
sg142
(lp889
sg144
g97
sg145
Nsg146
(lp890
I12
aI8
asg148
Nsg149
g888
sg150
(lp891
sg152
g58
sg153
Nsg154
Nsg155
Nsbag3
(g4
g5
NtRp892
(dp893
g8
g10
sg133
Nsg134
(dp894
sg136
Nsg25
g27
sg137
(lp895
I12
aI9
asg139
Nsg140
VMishnah Parah 12:9
p896
sg142
(lp897
sg144
g97
sg145
Nsg146
(lp898
I12
aI9
asg148
Nsg149
g896
sg150
(lp899
sg152
g58
sg153
Nsg154
Nsg155
Nsbag3
(g4
g5
NtRp900
(dp901
g8
g10
sg133
Nsg134
(dp902
sg136
Nsg25
g27
sg137
(lp903
I12
aI10
asg139
Nsg140
VMishnah Parah 12:10
p904
sg142
(lp905
sg144
g97
sg145
Nsg146
(lp906
I12
aI10
asg148
Nsg149
g904
sg150
(lp907
sg152
g58
sg153
Nsg154
Nsg155
Nsbag3
(g4
g5
NtRp908
(dp909
g8
g10
sg133
Nsg134
(dp910
sg136
Nsg25
g27
sg137
(lp911
I12
aI11
asg139
Nsg140
VMishnah Parah 12:11
p912
sg142
(lp913
sg144
g97
sg145
Nsg146
(lp914
I12
aI11
asg148
Nsg149
g912
sg150
(lp915
sg152
g58
sg153
Nsg154
Nsg155
NsbaI3716
t.