((lp1
I0
aI22
aI56
aI79
aI103
aI121
aI143
aI159
aI213
aI260
aI292
aI333
aI375
aI413
aI463
aI487
aI546
aI583
aI643
aI679
aI712
aI758
aI803
aI853
aI896
aI932
aI998
aI1088
aI1140
aI1168
aI1195
aI1241
aI1273
aI1304
aI1340
aI1394
aI1459
aI1504
aI1524
aI1580
aI1607
aI1649
aI1662
aI1695
aI1730
aI1803
aI1852
aI1878
aI1942
aI1970
aI2020
aI2045
aI2060
aI2093
aI2138
aI2184
aI2210
aI2232
aI2249
aI2278
aI2319
aI2342
aI2382
aI2410
aI2426
aI2479
aI2506
aI2537
aI2585
aI2622
aI2639
aI2657
aI2673
aI2689
aI2719
aI2745
aI2788
a(lp2
ccopy_reg
_reconstructor
p3
(csefaria.model.text
Ref
p4
c__builtin__
object
p5
NtRp6
(dp7
S'index_node'
p8
g3
(csefaria.model.schema
JaggedArrayNode
p9
g5
NtRp10
(dp11
S'_address'
p12
(lp13
VMishnah Kilayim
p14
asS'_full_titles'
p15
(dp16
sVnodeType
p17
VJaggedArrayNode
p18
sS'parent'
p19
NsVaddressTypes
p20
(lp21
VPerek
p22
aVMishnah
p23
asS'default'
p24
I00
sS'index'
p25
g3
(csefaria.model.text
Index
p26
g5
NtRp27
(dp28
S'_id'
p29
g3
(cbson.objectid
ObjectId
p30
g5
NtRp31
S'NJ\xb8\x8f\xed\xba\xb4X3\x00\x00*'
p32
bsS'pkeys_orig_values'
p33
(dp34
S'title'
p35
VMishnah Kilayim
p36
ssS'pubDate'
p37
V1492
p38
sS'compDate'
p39
V210
p40
sS'pubPlace'
p41
VNaples
p42
sS'compPlace'
p43
VTalmudic Israel
p44
sS'enDesc'
p45
VThe Mishnah is the first major written redaction of the Jewish oral traditions known as the Oral Torah. The Mishnah was redacted by Rabbi Yehudah Ha-Nasi before his death around 217 CE, in a time when, according to the Talmud, the persecution of the Jews and the passage of time raised the possibility that the details of the oral traditions of the Pharisees from the Second Temple period (536 BCE \u2013 70 CE) would be forgotten. The majority of the Mishnah is written in Mishnaic Hebrew, while some parts are Aramaic. The Mishnah consists of six orders (sedarim, singular seder), each containing 7\u201312 tractates (masekhtot, singular masekhet ( 63 in total, and further subdivided into chapters and paragraphs or verses. The word Mishnah can also indicate a single paragraph or a verse of the work itself, i.e. the smallest unit of structure in the Mishnah. For this reason the whole work is sometimes called by the plural, Mishnayot. Kilyaim (Of Two Sorts) belongs to the first order, Zera'im (seeds) and discusses rules regarding forbidden mixtures in agriculture, clothing and breeding, as stated in Leviticus 19:19; Deuteronomy 22:9-11. It consists of nine chapters.
p46
sS'order'
p47
(lp48
I4
aI4
asS'era'
p49
VT
sS'struct_objs'
p50
(dp51
sS'nodes'
p52
g10
sS'errorMargin'
p53
V20
p54
sS'_title'
p55
g36
sS'categories'
p56
(lp57
VMishnah
p58
aVSeder Zeraim
p59
asS'schema'
p60
(dp61
g17
g18
sg20
g21
sVlengths
p62
(lp63
I9
aI77
asVdepth
p64
I2
sVtitles
p65
(lp66
(dp67
Vlang
p68
Ven
p69
sVtext
p70
VM. Kilayim
p71
sa(dp72
Vlang
p73
Ven
p74
sVtext
p75
VM Kilayim
p76
sa(dp77
Vlang
p78
Ven
p79
sVtext
p80
VMishna Kilayim
p81
sa(dp82
Vlang
p83
Vhe
p84
sVtext
p85
V\u05de\u05e9\u05e0\u05d4 \u05db\u05dc\u05d0\u05d9\u05dd
p86
sVprimary
p87
I01
sa(dp88
Vlang
p89
Vhe
p90
sVtext
p91
V\u05db\u05dc\u05d0\u05d9\u05dd
p92
sa(dp93
Vlang
p94
Ven
p95
sVtext
p96
VMishnah Kilayim
p97
sVprimary
p98
I01
sasVkey
p99
g14
sVsectionNames
p100
(lp101
VChapter
p102
aVMishna
p103
assbsS'_primary_title'
p104
(dp105
sS'title_group'
p106
g3
(csefaria.model.schema
TitleGroup
p107
g5
NtRp108
(dp109
g104
(dp110
S'en'
p111
g97
ssS'titles'
p112
g66
sbsS'_addressTypes'
p113
(lp114
g3
(csefaria.model.schema
AddressPerek
p115
g5
NtRp116
(dp117
S'length'
p118
I9
sg47
I0
sbag3
(csefaria.model.schema
AddressMishnah
p119
g5
NtRp120
(dp121
g118
Nsg47
I1
sbasS'sharedTitle'
p122
Nsg62
g63
sg64
I2
sS'_full_title'
p123
(dp124
g111
g97
ssS'key'
p125
g14
sS'checkFirst'
p126
NsS'_regexes'
p127
(dp128
sS'_leaf_nodes'
p129
(lp130
sg100
g101
sS'children'
p131
(lp132
sbsS'_range_index'
p133
NsS'_context'
p134
(dp135
sS'_padded'
p136
Nsg25
g27
sS'sections'
p137
(lp138
I1
aI1
asS'_first_spanned_ref'
p139
NsS'tref'
p140
VMishnah Kilayim 1:1
p141
sS'_spanned_refs'
p142
(lp143
sS'book'
p144
g97
sS'_range_depth'
p145
NsS'toSections'
p146
(lp147
I1
aI1
asS'_url'
p148
NsS'_normal'
p149
g141
sS'_ranged_refs'
p150
(lp151
sS'type'
p152
g58
sS'_prev'
p153
NsS'_he_normal'
p154
NsS'_next'
p155
Nsbag3
(g4
g5
NtRp156
(dp157
g8
g10
sg133
Nsg134
(dp158
sg136
Nsg25
g27
sg137
(lp159
I1
aI2
asg139
Nsg140
VMishnah Kilayim 1:2
p160
sg142
(lp161
sg144
g97
sg145
Nsg146
(lp162
I1
aI2
asg148
Nsg149
g160
sg150
(lp163
sg152
g58
sg153
Nsg154
Nsg155
Nsbag3
(g4
g5
NtRp164
(dp165
g8
g10
sg133
Nsg134
(dp166
sg136
Nsg25
g27
sg137
(lp167
I1
aI3
asg139
Nsg140
VMishnah Kilayim 1:3
p168
sg142
(lp169
sg144
g97
sg145
Nsg146
(lp170
I1
aI3
asg148
Nsg149
g168
sg150
(lp171
sg152
g58
sg153
Nsg154
Nsg155
Nsbag3
(g4
g5
NtRp172
(dp173
g8
g10
sg133
Nsg134
(dp174
sg136
Nsg25
g27
sg137
(lp175
I1
aI4
asg139
Nsg140
VMishnah Kilayim 1:4
p176
sg142
(lp177
sg144
g97
sg145
Nsg146
(lp178
I1
aI4
asg148
Nsg149
g176
sg150
(lp179
sg152
g58
sg153
Nsg154
Nsg155
Nsbag3
(g4
g5
NtRp180
(dp181
g8
g10
sg133
Nsg134
(dp182
sg136
Nsg25
g27
sg137
(lp183
I1
aI5
asg139
Nsg140
VMishnah Kilayim 1:5
p184
sg142
(lp185
sg144
g97
sg145
Nsg146
(lp186
I1
aI5
asg148
Nsg149
g184
sg150
(lp187
sg152
g58
sg153
Nsg154
Nsg155
Nsbag3
(g4
g5
NtRp188
(dp189
g8
g10
sg133
Nsg134
(dp190
sg136
Nsg25
g27
sg137
(lp191
I1
aI6
asg139
Nsg140
VMishnah Kilayim 1:6
p192
sg142
(lp193
sg144
g97
sg145
Nsg146
(lp194
I1
aI6
asg148
Nsg149
g192
sg150
(lp195
sg152
g58
sg153
Nsg154
Nsg155
Nsbag3
(g4
g5
NtRp196
(dp197
g8
g10
sg133
Nsg134
(dp198
sg136
Nsg25
g27
sg137
(lp199
I1
aI7
asg139
Nsg140
VMishnah Kilayim 1:7
p200
sg142
(lp201
sg144
g97
sg145
Nsg146
(lp202
I1
aI7
asg148
Nsg149
g200
sg150
(lp203
sg152
g58
sg153
Nsg154
Nsg155
Nsbag3
(g4
g5
NtRp204
(dp205
g8
g10
sg133
Nsg134
(dp206
sg136
Nsg25
g27
sg137
(lp207
I1
aI8
asg139
Nsg140
VMishnah Kilayim 1:8
p208
sg142
(lp209
sg144
g97
sg145
Nsg146
(lp210
I1
aI8
asg148
Nsg149
g208
sg150
(lp211
sg152
g58
sg153
Nsg154
Nsg155
Nsbag3
(g4
g5
NtRp212
(dp213
g8
g10
sg133
Nsg134
(dp214
sg136
Nsg25
g27
sg137
(lp215
I1
aI9
asg139
Nsg140
VMishnah Kilayim 1:9
p216
sg142
(lp217
sg144
g97
sg145
Nsg146
(lp218
I1
aI9
asg148
Nsg149
g216
sg150
(lp219
sg152
g58
sg153
Nsg154
Nsg155
Nsbag3
(g4
g5
NtRp220
(dp221
g8
g10
sg133
Nsg134
(dp222
sg136
Nsg25
g27
sg137
(lp223
I2
aI1
asg139
Nsg140
VMishnah Kilayim 2:1
p224
sg142
(lp225
sg144
g97
sg145
Nsg146
(lp226
I2
aI1
asg148
Nsg149
g224
sg150
(lp227
sg152
g58
sg153
Nsg154
Nsg155
Nsbag3
(g4
g5
NtRp228
(dp229
g8
g10
sg133
Nsg134
(dp230
sg136
Nsg25
g27
sg137
(lp231
I2
aI2
asg139
Nsg140
VMishnah Kilayim 2:2
p232
sg142
(lp233
sg144
g97
sg145
Nsg146
(lp234
I2
aI2
asg148
Nsg149
g232
sg150
(lp235
sg152
g58
sg153
Nsg154
Nsg155
Nsbag3
(g4
g5
NtRp236
(dp237
g8
g10
sg133
Nsg134
(dp238
sg136
Nsg25
g27
sg137
(lp239
I2
aI3
asg139
Nsg140
VMishnah Kilayim 2:3
p240
sg142
(lp241
sg144
g97
sg145
Nsg146
(lp242
I2
aI3
asg148
Nsg149
g240
sg150
(lp243
sg152
g58
sg153
Nsg154
Nsg155
Nsbag3
(g4
g5
NtRp244
(dp245
g8
g10
sg133
Nsg134
(dp246
sg136
Nsg25
g27
sg137
(lp247
I2
aI4
asg139
Nsg140
VMishnah Kilayim 2:4
p248
sg142
(lp249
sg144
g97
sg145
Nsg146
(lp250
I2
aI4
asg148
Nsg149
g248
sg150
(lp251
sg152
g58
sg153
Nsg154
Nsg155
Nsbag3
(g4
g5
NtRp252
(dp253
g8
g10
sg133
Nsg134
(dp254
sg136
Nsg25
g27
sg137
(lp255
I2
aI5
asg139
Nsg140
VMishnah Kilayim 2:5
p256
sg142
(lp257
sg144
g97
sg145
Nsg146
(lp258
I2
aI5
asg148
Nsg149
g256
sg150
(lp259
sg152
g58
sg153
Nsg154
Nsg155
Nsbag3
(g4
g5
NtRp260
(dp261
g8
g10
sg133
Nsg134
(dp262
sg136
Nsg25
g27
sg137
(lp263
I2
aI6
asg139
Nsg140
VMishnah Kilayim 2:6
p264
sg142
(lp265
sg144
g97
sg145
Nsg146
(lp266
I2
aI6
asg148
Nsg149
g264
sg150
(lp267
sg152
g58
sg153
Nsg154
Nsg155
Nsbag3
(g4
g5
NtRp268
(dp269
g8
g10
sg133
Nsg134
(dp270
sg136
Nsg25
g27
sg137
(lp271
I2
aI7
asg139
Nsg140
VMishnah Kilayim 2:7
p272
sg142
(lp273
sg144
g97
sg145
Nsg146
(lp274
I2
aI7
asg148
Nsg149
g272
sg150
(lp275
sg152
g58
sg153
Nsg154
Nsg155
Nsbag3
(g4
g5
NtRp276
(dp277
g8
g10
sg133
Nsg134
(dp278
sg136
Nsg25
g27
sg137
(lp279
I2
aI8
asg139
Nsg140
VMishnah Kilayim 2:8
p280
sg142
(lp281
sg144
g97
sg145
Nsg146
(lp282
I2
aI8
asg148
Nsg149
g280
sg150
(lp283
sg152
g58
sg153
Nsg154
Nsg155
Nsbag3
(g4
g5
NtRp284
(dp285
g8
g10
sg133
Nsg134
(dp286
sg136
Nsg25
g27
sg137
(lp287
I2
aI9
asg139
Nsg140
VMishnah Kilayim 2:9
p288
sg142
(lp289
sg144
g97
sg145
Nsg146
(lp290
I2
aI9
asg148
Nsg149
g288
sg150
(lp291
sg152
g58
sg153
Nsg154
Nsg155
Nsbag3
(g4
g5
NtRp292
(dp293
g8
g10
sg133
Nsg134
(dp294
sg136
Nsg25
g27
sg137
(lp295
I2
aI10
asg139
Nsg140
VMishnah Kilayim 2:10
p296
sg142
(lp297
sg144
g97
sg145
Nsg146
(lp298
I2
aI10
asg148
Nsg149
g296
sg150
(lp299
sg152
g58
sg153
Nsg154
Nsg155
Nsbag3
(g4
g5
NtRp300
(dp301
g8
g10
sg133
Nsg134
(dp302
sg136
Nsg25
g27
sg137
(lp303
I2
aI11
asg139
Nsg140
VMishnah Kilayim 2:11
p304
sg142
(lp305
sg144
g97
sg145
Nsg146
(lp306
I2
aI11
asg148
Nsg149
g304
sg150
(lp307
sg152
g58
sg153
Nsg154
Nsg155
Nsbag3
(g4
g5
NtRp308
(dp309
g8
g10
sg133
Nsg134
(dp310
sg136
Nsg25
g27
sg137
(lp311
I3
aI1
asg139
Nsg140
VMishnah Kilayim 3:1
p312
sg142
(lp313
sg144
g97
sg145
Nsg146
(lp314
I3
aI1
asg148
Nsg149
g312
sg150
(lp315
sg152
g58
sg153
Nsg154
Nsg155
Nsbag3
(g4
g5
NtRp316
(dp317
g8
g10
sg133
Nsg134
(dp318
sg136
Nsg25
g27
sg137
(lp319
I3
aI2
asg139
Nsg140
VMishnah Kilayim 3:2
p320
sg142
(lp321
sg144
g97
sg145
Nsg146
(lp322
I3
aI2
asg148
Nsg149
g320
sg150
(lp323
sg152
g58
sg153
Nsg154
Nsg155
Nsbag3
(g4
g5
NtRp324
(dp325
g8
g10
sg133
Nsg134
(dp326
sg136
Nsg25
g27
sg137
(lp327
I3
aI3
asg139
Nsg140
VMishnah Kilayim 3:3
p328
sg142
(lp329
sg144
g97
sg145
Nsg146
(lp330
I3
aI3
asg148
Nsg149
g328
sg150
(lp331
sg152
g58
sg153
Nsg154
Nsg155
Nsbag3
(g4
g5
NtRp332
(dp333
g8
g10
sg133
Nsg134
(dp334
sg136
Nsg25
g27
sg137
(lp335
I3
aI4
asg139
Nsg140
VMishnah Kilayim 3:4
p336
sg142
(lp337
sg144
g97
sg145
Nsg146
(lp338
I3
aI4
asg148
Nsg149
g336
sg150
(lp339
sg152
g58
sg153
Nsg154
Nsg155
Nsbag3
(g4
g5
NtRp340
(dp341
g8
g10
sg133
Nsg134
(dp342
sg136
Nsg25
g27
sg137
(lp343
I3
aI5
asg139
Nsg140
VMishnah Kilayim 3:5
p344
sg142
(lp345
sg144
g97
sg145
Nsg146
(lp346
I3
aI5
asg148
Nsg149
g344
sg150
(lp347
sg152
g58
sg153
Nsg154
Nsg155
Nsbag3
(g4
g5
NtRp348
(dp349
g8
g10
sg133
Nsg134
(dp350
sg136
Nsg25
g27
sg137
(lp351
I3
aI6
asg139
Nsg140
VMishnah Kilayim 3:6
p352
sg142
(lp353
sg144
g97
sg145
Nsg146
(lp354
I3
aI6
asg148
Nsg149
g352
sg150
(lp355
sg152
g58
sg153
Nsg154
Nsg155
Nsbag3
(g4
g5
NtRp356
(dp357
g8
g10
sg133
Nsg134
(dp358
sg136
Nsg25
g27
sg137
(lp359
I3
aI7
asg139
Nsg140
VMishnah Kilayim 3:7
p360
sg142
(lp361
sg144
g97
sg145
Nsg146
(lp362
I3
aI7
asg148
Nsg149
g360
sg150
(lp363
sg152
g58
sg153
Nsg154
Nsg155
Nsbag3
(g4
g5
NtRp364
(dp365
g8
g10
sg133
Nsg134
(dp366
sg136
Nsg25
g27
sg137
(lp367
I4
aI1
asg139
Nsg140
VMishnah Kilayim 4:1
p368
sg142
(lp369
sg144
g97
sg145
Nsg146
(lp370
I4
aI1
asg148
Nsg149
g368
sg150
(lp371
sg152
g58
sg153
Nsg154
Nsg155
Nsbag3
(g4
g5
NtRp372
(dp373
g8
g10
sg133
Nsg134
(dp374
sg136
Nsg25
g27
sg137
(lp375
I4
aI2
asg139
Nsg140
VMishnah Kilayim 4:2
p376
sg142
(lp377
sg144
g97
sg145
Nsg146
(lp378
I4
aI2
asg148
Nsg149
g376
sg150
(lp379
sg152
g58
sg153
Nsg154
Nsg155
Nsbag3
(g4
g5
NtRp380
(dp381
g8
g10
sg133
Nsg134
(dp382
sg136
Nsg25
g27
sg137
(lp383
I4
aI3
asg139
Nsg140
VMishnah Kilayim 4:3
p384
sg142
(lp385
sg144
g97
sg145
Nsg146
(lp386
I4
aI3
asg148
Nsg149
g384
sg150
(lp387
sg152
g58
sg153
Nsg154
Nsg155
Nsbag3
(g4
g5
NtRp388
(dp389
g8
g10
sg133
Nsg134
(dp390
sg136
Nsg25
g27
sg137
(lp391
I4
aI4
asg139
Nsg140
VMishnah Kilayim 4:4
p392
sg142
(lp393
sg144
g97
sg145
Nsg146
(lp394
I4
aI4
asg148
Nsg149
g392
sg150
(lp395
sg152
g58
sg153
Nsg154
Nsg155
Nsbag3
(g4
g5
NtRp396
(dp397
g8
g10
sg133
Nsg134
(dp398
sg136
Nsg25
g27
sg137
(lp399
I4
aI5
asg139
Nsg140
VMishnah Kilayim 4:5
p400
sg142
(lp401
sg144
g97
sg145
Nsg146
(lp402
I4
aI5
asg148
Nsg149
g400
sg150
(lp403
sg152
g58
sg153
Nsg154
Nsg155
Nsbag3
(g4
g5
NtRp404
(dp405
g8
g10
sg133
Nsg134
(dp406
sg136
Nsg25
g27
sg137
(lp407
I4
aI6
asg139
Nsg140
VMishnah Kilayim 4:6
p408
sg142
(lp409
sg144
g97
sg145
Nsg146
(lp410
I4
aI6
asg148
Nsg149
g408
sg150
(lp411
sg152
g58
sg153
Nsg154
Nsg155
Nsbag3
(g4
g5
NtRp412
(dp413
g8
g10
sg133
Nsg134
(dp414
sg136
Nsg25
g27
sg137
(lp415
I4
aI7
asg139
Nsg140
VMishnah Kilayim 4:7
p416
sg142
(lp417
sg144
g97
sg145
Nsg146
(lp418
I4
aI7
asg148
Nsg149
g416
sg150
(lp419
sg152
g58
sg153
Nsg154
Nsg155
Nsbag3
(g4
g5
NtRp420
(dp421
g8
g10
sg133
Nsg134
(dp422
sg136
Nsg25
g27
sg137
(lp423
I4
aI8
asg139
Nsg140
VMishnah Kilayim 4:8
p424
sg142
(lp425
sg144
g97
sg145
Nsg146
(lp426
I4
aI8
asg148
Nsg149
g424
sg150
(lp427
sg152
g58
sg153
Nsg154
Nsg155
Nsbag3
(g4
g5
NtRp428
(dp429
g8
g10
sg133
Nsg134
(dp430
sg136
Nsg25
g27
sg137
(lp431
I4
aI9
asg139
Nsg140
VMishnah Kilayim 4:9
p432
sg142
(lp433
sg144
g97
sg145
Nsg146
(lp434
I4
aI9
asg148
Nsg149
g432
sg150
(lp435
sg152
g58
sg153
Nsg154
Nsg155
Nsbag3
(g4
g5
NtRp436
(dp437
g8
g10
sg133
Nsg134
(dp438
sg136
Nsg25
g27
sg137
(lp439
I5
aI1
asg139
Nsg140
VMishnah Kilayim 5:1
p440
sg142
(lp441
sg144
g97
sg145
Nsg146
(lp442
I5
aI1
asg148
Nsg149
g440
sg150
(lp443
sg152
g58
sg153
Nsg154
Nsg155
Nsbag3
(g4
g5
NtRp444
(dp445
g8
g10
sg133
Nsg134
(dp446
sg136
Nsg25
g27
sg137
(lp447
I5
aI2
asg139
Nsg140
VMishnah Kilayim 5:2
p448
sg142
(lp449
sg144
g97
sg145
Nsg146
(lp450
I5
aI2
asg148
Nsg149
g448
sg150
(lp451
sg152
g58
sg153
Nsg154
Nsg155
Nsbag3
(g4
g5
NtRp452
(dp453
g8
g10
sg133
Nsg134
(dp454
sg136
Nsg25
g27
sg137
(lp455
I5
aI3
asg139
Nsg140
VMishnah Kilayim 5:3
p456
sg142
(lp457
sg144
g97
sg145
Nsg146
(lp458
I5
aI3
asg148
Nsg149
g456
sg150
(lp459
sg152
g58
sg153
Nsg154
Nsg155
Nsbag3
(g4
g5
NtRp460
(dp461
g8
g10
sg133
Nsg134
(dp462
sg136
Nsg25
g27
sg137
(lp463
I5
aI4
asg139
Nsg140
VMishnah Kilayim 5:4
p464
sg142
(lp465
sg144
g97
sg145
Nsg146
(lp466
I5
aI4
asg148
Nsg149
g464
sg150
(lp467
sg152
g58
sg153
Nsg154
Nsg155
Nsbag3
(g4
g5
NtRp468
(dp469
g8
g10
sg133
Nsg134
(dp470
sg136
Nsg25
g27
sg137
(lp471
I5
aI5
asg139
Nsg140
VMishnah Kilayim 5:5
p472
sg142
(lp473
sg144
g97
sg145
Nsg146
(lp474
I5
aI5
asg148
Nsg149
g472
sg150
(lp475
sg152
g58
sg153
Nsg154
Nsg155
Nsbag3
(g4
g5
NtRp476
(dp477
g8
g10
sg133
Nsg134
(dp478
sg136
Nsg25
g27
sg137
(lp479
I5
aI6
asg139
Nsg140
VMishnah Kilayim 5:6
p480
sg142
(lp481
sg144
g97
sg145
Nsg146
(lp482
I5
aI6
asg148
Nsg149
g480
sg150
(lp483
sg152
g58
sg153
Nsg154
Nsg155
Nsbag3
(g4
g5
NtRp484
(dp485
g8
g10
sg133
Nsg134
(dp486
sg136
Nsg25
g27
sg137
(lp487
I5
aI7
asg139
Nsg140
VMishnah Kilayim 5:7
p488
sg142
(lp489
sg144
g97
sg145
Nsg146
(lp490
I5
aI7
asg148
Nsg149
g488
sg150
(lp491
sg152
g58
sg153
Nsg154
Nsg155
Nsbag3
(g4
g5
NtRp492
(dp493
g8
g10
sg133
Nsg134
(dp494
sg136
Nsg25
g27
sg137
(lp495
I5
aI8
asg139
Nsg140
VMishnah Kilayim 5:8
p496
sg142
(lp497
sg144
g97
sg145
Nsg146
(lp498
I5
aI8
asg148
Nsg149
g496
sg150
(lp499
sg152
g58
sg153
Nsg154
Nsg155
Nsbag3
(g4
g5
NtRp500
(dp501
g8
g10
sg133
Nsg134
(dp502
sg136
Nsg25
g27
sg137
(lp503
I6
aI1
asg139
Nsg140
VMishnah Kilayim 6:1
p504
sg142
(lp505
sg144
g97
sg145
Nsg146
(lp506
I6
aI1
asg148
Nsg149
g504
sg150
(lp507
sg152
g58
sg153
Nsg154
Nsg155
Nsbag3
(g4
g5
NtRp508
(dp509
g8
g10
sg133
Nsg134
(dp510
sg136
Nsg25
g27
sg137
(lp511
I6
aI2
asg139
Nsg140
VMishnah Kilayim 6:2
p512
sg142
(lp513
sg144
g97
sg145
Nsg146
(lp514
I6
aI2
asg148
Nsg149
g512
sg150
(lp515
sg152
g58
sg153
Nsg154
Nsg155
Nsbag3
(g4
g5
NtRp516
(dp517
g8
g10
sg133
Nsg134
(dp518
sg136
Nsg25
g27
sg137
(lp519
I6
aI3
asg139
Nsg140
VMishnah Kilayim 6:3
p520
sg142
(lp521
sg144
g97
sg145
Nsg146
(lp522
I6
aI3
asg148
Nsg149
g520
sg150
(lp523
sg152
g58
sg153
Nsg154
Nsg155
Nsbag3
(g4
g5
NtRp524
(dp525
g8
g10
sg133
Nsg134
(dp526
sg136
Nsg25
g27
sg137
(lp527
I6
aI4
asg139
Nsg140
VMishnah Kilayim 6:4
p528
sg142
(lp529
sg144
g97
sg145
Nsg146
(lp530
I6
aI4
asg148
Nsg149
g528
sg150
(lp531
sg152
g58
sg153
Nsg154
Nsg155
Nsbag3
(g4
g5
NtRp532
(dp533
g8
g10
sg133
Nsg134
(dp534
sg136
Nsg25
g27
sg137
(lp535
I6
aI5
asg139
Nsg140
VMishnah Kilayim 6:5
p536
sg142
(lp537
sg144
g97
sg145
Nsg146
(lp538
I6
aI5
asg148
Nsg149
g536
sg150
(lp539
sg152
g58
sg153
Nsg154
Nsg155
Nsbag3
(g4
g5
NtRp540
(dp541
g8
g10
sg133
Nsg134
(dp542
sg136
Nsg25
g27
sg137
(lp543
I6
aI6
asg139
Nsg140
VMishnah Kilayim 6:6
p544
sg142
(lp545
sg144
g97
sg145
Nsg146
(lp546
I6
aI6
asg148
Nsg149
g544
sg150
(lp547
sg152
g58
sg153
Nsg154
Nsg155
Nsbag3
(g4
g5
NtRp548
(dp549
g8
g10
sg133
Nsg134
(dp550
sg136
Nsg25
g27
sg137
(lp551
I6
aI7
asg139
Nsg140
VMishnah Kilayim 6:7
p552
sg142
(lp553
sg144
g97
sg145
Nsg146
(lp554
I6
aI7
asg148
Nsg149
g552
sg150
(lp555
sg152
g58
sg153
Nsg154
Nsg155
Nsbag3
(g4
g5
NtRp556
(dp557
g8
g10
sg133
Nsg134
(dp558
sg136
Nsg25
g27
sg137
(lp559
I6
aI8
asg139
Nsg140
VMishnah Kilayim 6:8
p560
sg142
(lp561
sg144
g97
sg145
Nsg146
(lp562
I6
aI8
asg148
Nsg149
g560
sg150
(lp563
sg152
g58
sg153
Nsg154
Nsg155
Nsbag3
(g4
g5
NtRp564
(dp565
g8
g10
sg133
Nsg134
(dp566
sg136
Nsg25
g27
sg137
(lp567
I6
aI9
asg139
Nsg140
VMishnah Kilayim 6:9
p568
sg142
(lp569
sg144
g97
sg145
Nsg146
(lp570
I6
aI9
asg148
Nsg149
g568
sg150
(lp571
sg152
g58
sg153
Nsg154
Nsg155
Nsbag3
(g4
g5
NtRp572
(dp573
g8
g10
sg133
Nsg134
(dp574
sg136
Nsg25
g27
sg137
(lp575
I7
aI1
asg139
Nsg140
VMishnah Kilayim 7:1
p576
sg142
(lp577
sg144
g97
sg145
Nsg146
(lp578
I7
aI1
asg148
Nsg149
g576
sg150
(lp579
sg152
g58
sg153
Nsg154
Nsg155
Nsbag3
(g4
g5
NtRp580
(dp581
g8
g10
sg133
Nsg134
(dp582
sg136
Nsg25
g27
sg137
(lp583
I7
aI2
asg139
Nsg140
VMishnah Kilayim 7:2
p584
sg142
(lp585
sg144
g97
sg145
Nsg146
(lp586
I7
aI2
asg148
Nsg149
g584
sg150
(lp587
sg152
g58
sg153
Nsg154
Nsg155
Nsbag3
(g4
g5
NtRp588
(dp589
g8
g10
sg133
Nsg134
(dp590
sg136
Nsg25
g27
sg137
(lp591
I7
aI3
asg139
Nsg140
VMishnah Kilayim 7:3
p592
sg142
(lp593
sg144
g97
sg145
Nsg146
(lp594
I7
aI3
asg148
Nsg149
g592
sg150
(lp595
sg152
g58
sg153
Nsg154
Nsg155
Nsbag3
(g4
g5
NtRp596
(dp597
g8
g10
sg133
Nsg134
(dp598
sg136
Nsg25
g27
sg137
(lp599
I7
aI4
asg139
Nsg140
VMishnah Kilayim 7:4
p600
sg142
(lp601
sg144
g97
sg145
Nsg146
(lp602
I7
aI4
asg148
Nsg149
g600
sg150
(lp603
sg152
g58
sg153
Nsg154
Nsg155
Nsbag3
(g4
g5
NtRp604
(dp605
g8
g10
sg133
Nsg134
(dp606
sg136
Nsg25
g27
sg137
(lp607
I7
aI5
asg139
Nsg140
VMishnah Kilayim 7:5
p608
sg142
(lp609
sg144
g97
sg145
Nsg146
(lp610
I7
aI5
asg148
Nsg149
g608
sg150
(lp611
sg152
g58
sg153
Nsg154
Nsg155
Nsbag3
(g4
g5
NtRp612
(dp613
g8
g10
sg133
Nsg134
(dp614
sg136
Nsg25
g27
sg137
(lp615
I7
aI6
asg139
Nsg140
VMishnah Kilayim 7:6
p616
sg142
(lp617
sg144
g97
sg145
Nsg146
(lp618
I7
aI6
asg148
Nsg149
g616
sg150
(lp619
sg152
g58
sg153
Nsg154
Nsg155
Nsbag3
(g4
g5
NtRp620
(dp621
g8
g10
sg133
Nsg134
(dp622
sg136
Nsg25
g27
sg137
(lp623
I7
aI7
asg139
Nsg140
VMishnah Kilayim 7:7
p624
sg142
(lp625
sg144
g97
sg145
Nsg146
(lp626
I7
aI7
asg148
Nsg149
g624
sg150
(lp627
sg152
g58
sg153
Nsg154
Nsg155
Nsbag3
(g4
g5
NtRp628
(dp629
g8
g10
sg133
Nsg134
(dp630
sg136
Nsg25
g27
sg137
(lp631
I7
aI8
asg139
Nsg140
VMishnah Kilayim 7:8
p632
sg142
(lp633
sg144
g97
sg145
Nsg146
(lp634
I7
aI8
asg148
Nsg149
g632
sg150
(lp635
sg152
g58
sg153
Nsg154
Nsg155
Nsbag3
(g4
g5
NtRp636
(dp637
g8
g10
sg133
Nsg134
(dp638
sg136
Nsg25
g27
sg137
(lp639
I8
aI1
asg139
Nsg140
VMishnah Kilayim 8:1
p640
sg142
(lp641
sg144
g97
sg145
Nsg146
(lp642
I8
aI1
asg148
Nsg149
g640
sg150
(lp643
sg152
g58
sg153
Nsg154
Nsg155
Nsbag3
(g4
g5
NtRp644
(dp645
g8
g10
sg133
Nsg134
(dp646
sg136
Nsg25
g27
sg137
(lp647
I8
aI2
asg139
Nsg140
VMishnah Kilayim 8:2
p648
sg142
(lp649
sg144
g97
sg145
Nsg146
(lp650
I8
aI2
asg148
Nsg149
g648
sg150
(lp651
sg152
g58
sg153
Nsg154
Nsg155
Nsbag3
(g4
g5
NtRp652
(dp653
g8
g10
sg133
Nsg134
(dp654
sg136
Nsg25
g27
sg137
(lp655
I8
aI3
asg139
Nsg140
VMishnah Kilayim 8:3
p656
sg142
(lp657
sg144
g97
sg145
Nsg146
(lp658
I8
aI3
asg148
Nsg149
g656
sg150
(lp659
sg152
g58
sg153
Nsg154
Nsg155
Nsbag3
(g4
g5
NtRp660
(dp661
g8
g10
sg133
Nsg134
(dp662
sg136
Nsg25
g27
sg137
(lp663
I8
aI4
asg139
Nsg140
VMishnah Kilayim 8:4
p664
sg142
(lp665
sg144
g97
sg145
Nsg146
(lp666
I8
aI4
asg148
Nsg149
g664
sg150
(lp667
sg152
g58
sg153
Nsg154
Nsg155
Nsbag3
(g4
g5
NtRp668
(dp669
g8
g10
sg133
Nsg134
(dp670
sg136
Nsg25
g27
sg137
(lp671
I8
aI5
asg139
Nsg140
VMishnah Kilayim 8:5
p672
sg142
(lp673
sg144
g97
sg145
Nsg146
(lp674
I8
aI5
asg148
Nsg149
g672
sg150
(lp675
sg152
g58
sg153
Nsg154
Nsg155
Nsbag3
(g4
g5
NtRp676
(dp677
g8
g10
sg133
Nsg134
(dp678
sg136
Nsg25
g27
sg137
(lp679
I8
aI6
asg139
Nsg140
VMishnah Kilayim 8:6
p680
sg142
(lp681
sg144
g97
sg145
Nsg146
(lp682
I8
aI6
asg148
Nsg149
g680
sg150
(lp683
sg152
g58
sg153
Nsg154
Nsg155
Nsbag3
(g4
g5
NtRp684
(dp685
g8
g10
sg133
Nsg134
(dp686
sg136
Nsg25
g27
sg137
(lp687
I9
aI1
asg139
Nsg140
VMishnah Kilayim 9:1
p688
sg142
(lp689
sg144
g97
sg145
Nsg146
(lp690
I9
aI1
asg148
Nsg149
g688
sg150
(lp691
sg152
g58
sg153
Nsg154
Nsg155
Nsbag3
(g4
g5
NtRp692
(dp693
g8
g10
sg133
Nsg134
(dp694
sg136
Nsg25
g27
sg137
(lp695
I9
aI2
asg139
Nsg140
VMishnah Kilayim 9:2
p696
sg142
(lp697
sg144
g97
sg145
Nsg146
(lp698
I9
aI2
asg148
Nsg149
g696
sg150
(lp699
sg152
g58
sg153
Nsg154
Nsg155
Nsbag3
(g4
g5
NtRp700
(dp701
g8
g10
sg133
Nsg134
(dp702
sg136
Nsg25
g27
sg137
(lp703
I9
aI3
asg139
Nsg140
VMishnah Kilayim 9:3
p704
sg142
(lp705
sg144
g97
sg145
Nsg146
(lp706
I9
aI3
asg148
Nsg149
g704
sg150
(lp707
sg152
g58
sg153
Nsg154
Nsg155
Nsbag3
(g4
g5
NtRp708
(dp709
g8
g10
sg133
Nsg134
(dp710
sg136
Nsg25
g27
sg137
(lp711
I9
aI4
asg139
Nsg140
VMishnah Kilayim 9:4
p712
sg142
(lp713
sg144
g97
sg145
Nsg146
(lp714
I9
aI4
asg148
Nsg149
g712
sg150
(lp715
sg152
g58
sg153
Nsg154
Nsg155
Nsbag3
(g4
g5
NtRp716
(dp717
g8
g10
sg133
Nsg134
(dp718
sg136
Nsg25
g27
sg137
(lp719
I9
aI5
asg139
Nsg140
VMishnah Kilayim 9:5
p720
sg142
(lp721
sg144
g97
sg145
Nsg146
(lp722
I9
aI5
asg148
Nsg149
g720
sg150
(lp723
sg152
g58
sg153
Nsg154
Nsg155
Nsbag3
(g4
g5
NtRp724
(dp725
g8
g10
sg133
Nsg134
(dp726
sg136
Nsg25
g27
sg137
(lp727
I9
aI6
asg139
Nsg140
VMishnah Kilayim 9:6
p728
sg142
(lp729
sg144
g97
sg145
Nsg146
(lp730
I9
aI6
asg148
Nsg149
g728
sg150
(lp731
sg152
g58
sg153
Nsg154
Nsg155
Nsbag3
(g4
g5
NtRp732
(dp733
g8
g10
sg133
Nsg134
(dp734
sg136
Nsg25
g27
sg137
(lp735
I9
aI7
asg139
Nsg140
VMishnah Kilayim 9:7
p736
sg142
(lp737
sg144
g97
sg145
Nsg146
(lp738
I9
aI7
asg148
Nsg149
g736
sg150
(lp739
sg152
g58
sg153
Nsg154
Nsg155
Nsbag3
(g4
g5
NtRp740
(dp741
g8
g10
sg133
Nsg134
(dp742
sg136
Nsg25
g27
sg137
(lp743
I9
aI8
asg139
Nsg140
VMishnah Kilayim 9:8
p744
sg142
(lp745
sg144
g97
sg145
Nsg146
(lp746
I9
aI8
asg148
Nsg149
g744
sg150
(lp747
sg152
g58
sg153
Nsg154
Nsg155
Nsbag3
(g4
g5
NtRp748
(dp749
g8
g10
sg133
Nsg134
(dp750
sg136
Nsg25
g27
sg137
(lp751
I9
aI9
asg139
Nsg140
VMishnah Kilayim 9:9
p752
sg142
(lp753
sg144
g97
sg145
Nsg146
(lp754
I9
aI9
asg148
Nsg149
g752
sg150
(lp755
sg152
g58
sg153
Nsg154
Nsg155
Nsbag3
(g4
g5
NtRp756
(dp757
g8
g10
sg133
Nsg134
(dp758
sg136
Nsg25
g27
sg137
(lp759
I9
aI10
asg139
Nsg140
VMishnah Kilayim 9:10
p760
sg142
(lp761
sg144
g97
sg145
Nsg146
(lp762
I9
aI10
asg148
Nsg149
g760
sg150
(lp763
sg152
g58
sg153
Nsg154
Nsg155
NsbaI2828
t.