((lp1
I0
aI91
aI129
aI189
aI224
aI274
aI317
aI387
aI418
aI431
aI474
aI495
aI520
aI540
aI578
aI601
aI614
aI636
aI686
aI700
aI732
aI763
aI791
aI826
aI851
aI865
aI893
aI925
aI947
aI980
aI1009
aI1060
aI1109
aI1131
aI1164
aI1184
aI1222
aI1263
aI1291
aI1331
aI1373
aI1388
aI1500
aI1520
aI1557
aI1583
aI1601
aI1613
aI1631
aI1653
aI1688
aI1712
aI1757
aI1781
aI1844
aI1899
aI1920
a(lp2
ccopy_reg
_reconstructor
p3
(csefaria.model.text
Ref
p4
c__builtin__
object
p5
NtRp6
(dp7
S'index_node'
p8
g3
(csefaria.model.schema
JaggedArrayNode
p9
g5
NtRp10
(dp11
S'_address'
p12
(lp13
VMishnah Berakhot
p14
asS'_full_titles'
p15
(dp16
sVnodeType
p17
VJaggedArrayNode
p18
sS'parent'
p19
NsVaddressTypes
p20
(lp21
VPerek
p22
aVMishnah
p23
asS'default'
p24
I00
sS'index'
p25
g3
(csefaria.model.text
Index
p26
g5
NtRp27
(dp28
S'_id'
p29
g3
(cbson.objectid
ObjectId
p30
g5
NtRp31
S"NJ\xb8\x8f\xed\xba\xb4X3\x00\x00'"
p32
bsS'pkeys_orig_values'
p33
(dp34
S'title'
p35
VMishnah Berakhot
p36
ssS'pubDate'
p37
V1492
p38
sS'compDate'
p39
V210
p40
sS'pubPlace'
p41
VNaples
p42
sS'compPlace'
p43
VTalmudic Israel
p44
sS'enDesc'
p45
VThe Mishnah is the first major written redaction of the Jewish oral traditions known as the Oral Torah. The Mishnah was redacted by Rabbi Yehudah Ha-Nasi before his death around 217 CE, in a time when, according to the Talmud, the persecution of the Jews and the passage of time raised the possibility that the details of the oral traditions of the Pharisees from the Second Temple period (536 BCE \u2013 70 CE) would be forgotten. The majority of the Mishnah is written in Mishnaic Hebrew, while some parts are Aramaic. The Mishnah consists of six orders (sedarim, singular seder), each containing 7\u201312 tractates (masekhtot, singular masekhet), numbering 63 in total and further subdivided into chapters and paragraphs or verses. The word Mishnah can also indicate a single paragraph or a verse of the work itself, i.e. the smallest unit of structure in the Mishnah. For this reason the whole work is sometimes called by the plural, Mishnayot. Berakhot (Blessings) belongs to the first order, Zera'im (seeds) and discusses the rules of blessings and prayers, particularly the Shema and the Amidah. It consists of nine chapters.
p46
sS'order'
p47
(lp48
I1
aI1
asS'era'
p49
VT
sS'struct_objs'
p50
(dp51
sS'nodes'
p52
g10
sS'errorMargin'
p53
V20
p54
sS'_title'
p55
g36
sS'categories'
p56
(lp57
VMishnah
p58
aVSeder Zeraim
p59
asS'schema'
p60
(dp61
g17
g18
sg20
g21
sVlengths
p62
(lp63
I9
aI57
asVdepth
p64
I2
sVtitles
p65
(lp66
(dp67
Vlang
p68
Ven
p69
sVtext
p70
VM. Berakhot
p71
sa(dp72
Vlang
p73
Ven
p74
sVtext
p75
VMishna Berakhot
p76
sa(dp77
Vlang
p78
Ven
p79
sVtext
p80
VM Berakhot
p81
sa(dp82
Vlang
p83
Ven
p84
sVtext
p85
VMishna Berachot
p86
sa(dp87
Vlang
p88
Ven
p89
sVtext
p90
VMishnah Brachot
p91
sa(dp92
Vlang
p93
Ven
p94
sVtext
p95
VMishna Brachot
p96
sa(dp97
Vlang
p98
Ven
p99
sVtext
p100
VMishnah Berachot
p101
sa(dp102
Vlang
p103
Vhe
p104
sVtext
p105
V\u05de\u05e9\u05e0\u05d4 \u05d1\u05e8\u05db\u05d5\u05ea
p106
sVprimary
p107
I01
sa(dp108
Vlang
p109
Ven
p110
sVtext
p111
VMishnah Berakhot
p112
sVprimary
p113
I01
sasVkey
p114
g14
sVsectionNames
p115
(lp116
VChapter
p117
aVMishna
p118
assbsS'_primary_title'
p119
(dp120
sS'title_group'
p121
g3
(csefaria.model.schema
TitleGroup
p122
g5
NtRp123
(dp124
g119
(dp125
S'en'
p126
g112
ssS'titles'
p127
g66
sbsS'_addressTypes'
p128
(lp129
g3
(csefaria.model.schema
AddressPerek
p130
g5
NtRp131
(dp132
S'length'
p133
I9
sg47
I0
sbag3
(csefaria.model.schema
AddressMishnah
p134
g5
NtRp135
(dp136
g133
Nsg47
I1
sbasS'sharedTitle'
p137
Nsg62
g63
sg64
I2
sS'_full_title'
p138
(dp139
g126
g112
ssS'key'
p140
g14
sS'checkFirst'
p141
NsS'_regexes'
p142
(dp143
sS'_leaf_nodes'
p144
(lp145
sg115
g116
sS'children'
p146
(lp147
sbsS'_range_index'
p148
NsS'_context'
p149
(dp150
sS'_padded'
p151
Nsg25
g27
sS'sections'
p152
(lp153
I1
aI1
asS'_first_spanned_ref'
p154
NsS'tref'
p155
VMishnah Berakhot 1:1
p156
sS'_spanned_refs'
p157
(lp158
sS'book'
p159
g112
sS'_range_depth'
p160
NsS'toSections'
p161
(lp162
I1
aI1
asS'_url'
p163
NsS'_normal'
p164
g156
sS'_ranged_refs'
p165
(lp166
sS'type'
p167
g58
sS'_prev'
p168
NsS'_he_normal'
p169
NsS'_next'
p170
Nsbag3
(g4
g5
NtRp171
(dp172
g8
g10
sg148
Nsg149
(dp173
sg151
Nsg25
g27
sg152
(lp174
I1
aI2
asg154
Nsg155
VMishnah Berakhot 1:2
p175
sg157
(lp176
sg159
g112
sg160
Nsg161
(lp177
I1
aI2
asg163
Nsg164
g175
sg165
(lp178
sg167
g58
sg168
Nsg169
Nsg170
Nsbag3
(g4
g5
NtRp179
(dp180
g8
g10
sg148
Nsg149
(dp181
sg151
Nsg25
g27
sg152
(lp182
I1
aI3
asg154
Nsg155
VMishnah Berakhot 1:3
p183
sg157
(lp184
sg159
g112
sg160
Nsg161
(lp185
I1
aI3
asg163
Nsg164
g183
sg165
(lp186
sg167
g58
sg168
Nsg169
Nsg170
Nsbag3
(g4
g5
NtRp187
(dp188
g8
g10
sg148
Nsg149
(dp189
sg151
Nsg25
g27
sg152
(lp190
I1
aI4
asg154
Nsg155
VMishnah Berakhot 1:4
p191
sg157
(lp192
sg159
g112
sg160
Nsg161
(lp193
I1
aI4
asg163
Nsg164
g191
sg165
(lp194
sg167
g58
sg168
Nsg169
Nsg170
Nsbag3
(g4
g5
NtRp195
(dp196
g8
g10
sg148
Nsg149
(dp197
sg151
Nsg25
g27
sg152
(lp198
I1
aI5
asg154
Nsg155
VMishnah Berakhot 1:5
p199
sg157
(lp200
sg159
g112
sg160
Nsg161
(lp201
I1
aI5
asg163
Nsg164
g199
sg165
(lp202
sg167
g58
sg168
Nsg169
Nsg170
Nsbag3
(g4
g5
NtRp203
(dp204
g8
g10
sg148
Nsg149
(dp205
sg151
Nsg25
g27
sg152
(lp206
I2
aI1
asg154
Nsg155
VMishnah Berakhot 2:1
p207
sg157
(lp208
sg159
g112
sg160
Nsg161
(lp209
I2
aI1
asg163
Nsg164
g207
sg165
(lp210
sg167
g58
sg168
Nsg169
Nsg170
Nsbag3
(g4
g5
NtRp211
(dp212
g8
g10
sg148
Nsg149
(dp213
sg151
Nsg25
g27
sg152
(lp214
I2
aI2
asg154
Nsg155
VMishnah Berakhot 2:2
p215
sg157
(lp216
sg159
g112
sg160
Nsg161
(lp217
I2
aI2
asg163
Nsg164
g215
sg165
(lp218
sg167
g58
sg168
Nsg169
Nsg170
Nsbag3
(g4
g5
NtRp219
(dp220
g8
g10
sg148
Nsg149
(dp221
sg151
Nsg25
g27
sg152
(lp222
I2
aI3
asg154
Nsg155
VMishnah Berakhot 2:3
p223
sg157
(lp224
sg159
g112
sg160
Nsg161
(lp225
I2
aI3
asg163
Nsg164
g223
sg165
(lp226
sg167
g58
sg168
Nsg169
Nsg170
Nsbag3
(g4
g5
NtRp227
(dp228
g8
g10
sg148
Nsg149
(dp229
sg151
Nsg25
g27
sg152
(lp230
I2
aI4
asg154
Nsg155
VMishnah Berakhot 2:4
p231
sg157
(lp232
sg159
g112
sg160
Nsg161
(lp233
I2
aI4
asg163
Nsg164
g231
sg165
(lp234
sg167
g58
sg168
Nsg169
Nsg170
Nsbag3
(g4
g5
NtRp235
(dp236
g8
g10
sg148
Nsg149
(dp237
sg151
Nsg25
g27
sg152
(lp238
I2
aI5
asg154
Nsg155
VMishnah Berakhot 2:5
p239
sg157
(lp240
sg159
g112
sg160
Nsg161
(lp241
I2
aI5
asg163
Nsg164
g239
sg165
(lp242
sg167
g58
sg168
Nsg169
Nsg170
Nsbag3
(g4
g5
NtRp243
(dp244
g8
g10
sg148
Nsg149
(dp245
sg151
Nsg25
g27
sg152
(lp246
I2
aI6
asg154
Nsg155
VMishnah Berakhot 2:6
p247
sg157
(lp248
sg159
g112
sg160
Nsg161
(lp249
I2
aI6
asg163
Nsg164
g247
sg165
(lp250
sg167
g58
sg168
Nsg169
Nsg170
Nsbag3
(g4
g5
NtRp251
(dp252
g8
g10
sg148
Nsg149
(dp253
sg151
Nsg25
g27
sg152
(lp254
I2
aI7
asg154
Nsg155
VMishnah Berakhot 2:7
p255
sg157
(lp256
sg159
g112
sg160
Nsg161
(lp257
I2
aI7
asg163
Nsg164
g255
sg165
(lp258
sg167
g58
sg168
Nsg169
Nsg170
Nsbag3
(g4
g5
NtRp259
(dp260
g8
g10
sg148
Nsg149
(dp261
sg151
Nsg25
g27
sg152
(lp262
I2
aI8
asg154
Nsg155
VMishnah Berakhot 2:8
p263
sg157
(lp264
sg159
g112
sg160
Nsg161
(lp265
I2
aI8
asg163
Nsg164
g263
sg165
(lp266
sg167
g58
sg168
Nsg169
Nsg170
Nsbag3
(g4
g5
NtRp267
(dp268
g8
g10
sg148
Nsg149
(dp269
sg151
Nsg25
g27
sg152
(lp270
I3
aI1
asg154
Nsg155
VMishnah Berakhot 3:1
p271
sg157
(lp272
sg159
g112
sg160
Nsg161
(lp273
I3
aI1
asg163
Nsg164
g271
sg165
(lp274
sg167
g58
sg168
Nsg169
Nsg170
Nsbag3
(g4
g5
NtRp275
(dp276
g8
g10
sg148
Nsg149
(dp277
sg151
Nsg25
g27
sg152
(lp278
I3
aI2
asg154
Nsg155
VMishnah Berakhot 3:2
p279
sg157
(lp280
sg159
g112
sg160
Nsg161
(lp281
I3
aI2
asg163
Nsg164
g279
sg165
(lp282
sg167
g58
sg168
Nsg169
Nsg170
Nsbag3
(g4
g5
NtRp283
(dp284
g8
g10
sg148
Nsg149
(dp285
sg151
Nsg25
g27
sg152
(lp286
I3
aI3
asg154
Nsg155
VMishnah Berakhot 3:3
p287
sg157
(lp288
sg159
g112
sg160
Nsg161
(lp289
I3
aI3
asg163
Nsg164
g287
sg165
(lp290
sg167
g58
sg168
Nsg169
Nsg170
Nsbag3
(g4
g5
NtRp291
(dp292
g8
g10
sg148
Nsg149
(dp293
sg151
Nsg25
g27
sg152
(lp294
I3
aI4
asg154
Nsg155
VMishnah Berakhot 3:4
p295
sg157
(lp296
sg159
g112
sg160
Nsg161
(lp297
I3
aI4
asg163
Nsg164
g295
sg165
(lp298
sg167
g58
sg168
Nsg169
Nsg170
Nsbag3
(g4
g5
NtRp299
(dp300
g8
g10
sg148
Nsg149
(dp301
sg151
Nsg25
g27
sg152
(lp302
I3
aI5
asg154
Nsg155
VMishnah Berakhot 3:5
p303
sg157
(lp304
sg159
g112
sg160
Nsg161
(lp305
I3
aI5
asg163
Nsg164
g303
sg165
(lp306
sg167
g58
sg168
Nsg169
Nsg170
Nsbag3
(g4
g5
NtRp307
(dp308
g8
g10
sg148
Nsg149
(dp309
sg151
Nsg25
g27
sg152
(lp310
I3
aI6
asg154
Nsg155
VMishnah Berakhot 3:6
p311
sg157
(lp312
sg159
g112
sg160
Nsg161
(lp313
I3
aI6
asg163
Nsg164
g311
sg165
(lp314
sg167
g58
sg168
Nsg169
Nsg170
Nsbag3
(g4
g5
NtRp315
(dp316
g8
g10
sg148
Nsg149
(dp317
sg151
Nsg25
g27
sg152
(lp318
I4
aI1
asg154
Nsg155
VMishnah Berakhot 4:1
p319
sg157
(lp320
sg159
g112
sg160
Nsg161
(lp321
I4
aI1
asg163
Nsg164
g319
sg165
(lp322
sg167
g58
sg168
Nsg169
Nsg170
Nsbag3
(g4
g5
NtRp323
(dp324
g8
g10
sg148
Nsg149
(dp325
sg151
Nsg25
g27
sg152
(lp326
I4
aI2
asg154
Nsg155
VMishnah Berakhot 4:2
p327
sg157
(lp328
sg159
g112
sg160
Nsg161
(lp329
I4
aI2
asg163
Nsg164
g327
sg165
(lp330
sg167
g58
sg168
Nsg169
Nsg170
Nsbag3
(g4
g5
NtRp331
(dp332
g8
g10
sg148
Nsg149
(dp333
sg151
Nsg25
g27
sg152
(lp334
I4
aI3
asg154
Nsg155
VMishnah Berakhot 4:3
p335
sg157
(lp336
sg159
g112
sg160
Nsg161
(lp337
I4
aI3
asg163
Nsg164
g335
sg165
(lp338
sg167
g58
sg168
Nsg169
Nsg170
Nsbag3
(g4
g5
NtRp339
(dp340
g8
g10
sg148
Nsg149
(dp341
sg151
Nsg25
g27
sg152
(lp342
I4
aI4
asg154
Nsg155
VMishnah Berakhot 4:4
p343
sg157
(lp344
sg159
g112
sg160
Nsg161
(lp345
I4
aI4
asg163
Nsg164
g343
sg165
(lp346
sg167
g58
sg168
Nsg169
Nsg170
Nsbag3
(g4
g5
NtRp347
(dp348
g8
g10
sg148
Nsg149
(dp349
sg151
Nsg25
g27
sg152
(lp350
I4
aI5
asg154
Nsg155
VMishnah Berakhot 4:5
p351
sg157
(lp352
sg159
g112
sg160
Nsg161
(lp353
I4
aI5
asg163
Nsg164
g351
sg165
(lp354
sg167
g58
sg168
Nsg169
Nsg170
Nsbag3
(g4
g5
NtRp355
(dp356
g8
g10
sg148
Nsg149
(dp357
sg151
Nsg25
g27
sg152
(lp358
I4
aI6
asg154
Nsg155
VMishnah Berakhot 4:6
p359
sg157
(lp360
sg159
g112
sg160
Nsg161
(lp361
I4
aI6
asg163
Nsg164
g359
sg165
(lp362
sg167
g58
sg168
Nsg169
Nsg170
Nsbag3
(g4
g5
NtRp363
(dp364
g8
g10
sg148
Nsg149
(dp365
sg151
Nsg25
g27
sg152
(lp366
I4
aI7
asg154
Nsg155
VMishnah Berakhot 4:7
p367
sg157
(lp368
sg159
g112
sg160
Nsg161
(lp369
I4
aI7
asg163
Nsg164
g367
sg165
(lp370
sg167
g58
sg168
Nsg169
Nsg170
Nsbag3
(g4
g5
NtRp371
(dp372
g8
g10
sg148
Nsg149
(dp373
sg151
Nsg25
g27
sg152
(lp374
I5
aI1
asg154
Nsg155
VMishnah Berakhot 5:1
p375
sg157
(lp376
sg159
g112
sg160
Nsg161
(lp377
I5
aI1
asg163
Nsg164
g375
sg165
(lp378
sg167
g58
sg168
Nsg169
Nsg170
Nsbag3
(g4
g5
NtRp379
(dp380
g8
g10
sg148
Nsg149
(dp381
sg151
Nsg25
g27
sg152
(lp382
I5
aI2
asg154
Nsg155
VMishnah Berakhot 5:2
p383
sg157
(lp384
sg159
g112
sg160
Nsg161
(lp385
I5
aI2
asg163
Nsg164
g383
sg165
(lp386
sg167
g58
sg168
Nsg169
Nsg170
Nsbag3
(g4
g5
NtRp387
(dp388
g8
g10
sg148
Nsg149
(dp389
sg151
Nsg25
g27
sg152
(lp390
I5
aI3
asg154
Nsg155
VMishnah Berakhot 5:3
p391
sg157
(lp392
sg159
g112
sg160
Nsg161
(lp393
I5
aI3
asg163
Nsg164
g391
sg165
(lp394
sg167
g58
sg168
Nsg169
Nsg170
Nsbag3
(g4
g5
NtRp395
(dp396
g8
g10
sg148
Nsg149
(dp397
sg151
Nsg25
g27
sg152
(lp398
I5
aI4
asg154
Nsg155
VMishnah Berakhot 5:4
p399
sg157
(lp400
sg159
g112
sg160
Nsg161
(lp401
I5
aI4
asg163
Nsg164
g399
sg165
(lp402
sg167
g58
sg168
Nsg169
Nsg170
Nsbag3
(g4
g5
NtRp403
(dp404
g8
g10
sg148
Nsg149
(dp405
sg151
Nsg25
g27
sg152
(lp406
I5
aI5
asg154
Nsg155
VMishnah Berakhot 5:5
p407
sg157
(lp408
sg159
g112
sg160
Nsg161
(lp409
I5
aI5
asg163
Nsg164
g407
sg165
(lp410
sg167
g58
sg168
Nsg169
Nsg170
Nsbag3
(g4
g5
NtRp411
(dp412
g8
g10
sg148
Nsg149
(dp413
sg151
Nsg25
g27
sg152
(lp414
I6
aI1
asg154
Nsg155
VMishnah Berakhot 6:1
p415
sg157
(lp416
sg159
g112
sg160
Nsg161
(lp417
I6
aI1
asg163
Nsg164
g415
sg165
(lp418
sg167
g58
sg168
Nsg169
Nsg170
Nsbag3
(g4
g5
NtRp419
(dp420
g8
g10
sg148
Nsg149
(dp421
sg151
Nsg25
g27
sg152
(lp422
I6
aI2
asg154
Nsg155
VMishnah Berakhot 6:2
p423
sg157
(lp424
sg159
g112
sg160
Nsg161
(lp425
I6
aI2
asg163
Nsg164
g423
sg165
(lp426
sg167
g58
sg168
Nsg169
Nsg170
Nsbag3
(g4
g5
NtRp427
(dp428
g8
g10
sg148
Nsg149
(dp429
sg151
Nsg25
g27
sg152
(lp430
I6
aI3
asg154
Nsg155
VMishnah Berakhot 6:3
p431
sg157
(lp432
sg159
g112
sg160
Nsg161
(lp433
I6
aI3
asg163
Nsg164
g431
sg165
(lp434
sg167
g58
sg168
Nsg169
Nsg170
Nsbag3
(g4
g5
NtRp435
(dp436
g8
g10
sg148
Nsg149
(dp437
sg151
Nsg25
g27
sg152
(lp438
I6
aI4
asg154
Nsg155
VMishnah Berakhot 6:4
p439
sg157
(lp440
sg159
g112
sg160
Nsg161
(lp441
I6
aI4
asg163
Nsg164
g439
sg165
(lp442
sg167
g58
sg168
Nsg169
Nsg170
Nsbag3
(g4
g5
NtRp443
(dp444
g8
g10
sg148
Nsg149
(dp445
sg151
Nsg25
g27
sg152
(lp446
I6
aI5
asg154
Nsg155
VMishnah Berakhot 6:5
p447
sg157
(lp448
sg159
g112
sg160
Nsg161
(lp449
I6
aI5
asg163
Nsg164
g447
sg165
(lp450
sg167
g58
sg168
Nsg169
Nsg170
Nsbag3
(g4
g5
NtRp451
(dp452
g8
g10
sg148
Nsg149
(dp453
sg151
Nsg25
g27
sg152
(lp454
I6
aI6
asg154
Nsg155
VMishnah Berakhot 6:6
p455
sg157
(lp456
sg159
g112
sg160
Nsg161
(lp457
I6
aI6
asg163
Nsg164
g455
sg165
(lp458
sg167
g58
sg168
Nsg169
Nsg170
Nsbag3
(g4
g5
NtRp459
(dp460
g8
g10
sg148
Nsg149
(dp461
sg151
Nsg25
g27
sg152
(lp462
I6
aI7
asg154
Nsg155
VMishnah Berakhot 6:7
p463
sg157
(lp464
sg159
g112
sg160
Nsg161
(lp465
I6
aI7
asg163
Nsg164
g463
sg165
(lp466
sg167
g58
sg168
Nsg169
Nsg170
Nsbag3
(g4
g5
NtRp467
(dp468
g8
g10
sg148
Nsg149
(dp469
sg151
Nsg25
g27
sg152
(lp470
I6
aI8
asg154
Nsg155
VMishnah Berakhot 6:8
p471
sg157
(lp472
sg159
g112
sg160
Nsg161
(lp473
I6
aI8
asg163
Nsg164
g471
sg165
(lp474
sg167
g58
sg168
Nsg169
Nsg170
Nsbag3
(g4
g5
NtRp475
(dp476
g8
g10
sg148
Nsg149
(dp477
sg151
Nsg25
g27
sg152
(lp478
I7
aI1
asg154
Nsg155
VMishnah Berakhot 7:1
p479
sg157
(lp480
sg159
g112
sg160
Nsg161
(lp481
I7
aI1
asg163
Nsg164
g479
sg165
(lp482
sg167
g58
sg168
Nsg169
Nsg170
Nsbag3
(g4
g5
NtRp483
(dp484
g8
g10
sg148
Nsg149
(dp485
sg151
Nsg25
g27
sg152
(lp486
I7
aI2
asg154
Nsg155
VMishnah Berakhot 7:2
p487
sg157
(lp488
sg159
g112
sg160
Nsg161
(lp489
I7
aI2
asg163
Nsg164
g487
sg165
(lp490
sg167
g58
sg168
Nsg169
Nsg170
Nsbag3
(g4
g5
NtRp491
(dp492
g8
g10
sg148
Nsg149
(dp493
sg151
Nsg25
g27
sg152
(lp494
I7
aI3
asg154
Nsg155
VMishnah Berakhot 7:3
p495
sg157
(lp496
sg159
g112
sg160
Nsg161
(lp497
I7
aI3
asg163
Nsg164
g495
sg165
(lp498
sg167
g58
sg168
Nsg169
Nsg170
Nsbag3
(g4
g5
NtRp499
(dp500
g8
g10
sg148
Nsg149
(dp501
sg151
Nsg25
g27
sg152
(lp502
I7
aI4
asg154
Nsg155
VMishnah Berakhot 7:4
p503
sg157
(lp504
sg159
g112
sg160
Nsg161
(lp505
I7
aI4
asg163
Nsg164
g503
sg165
(lp506
sg167
g58
sg168
Nsg169
Nsg170
Nsbag3
(g4
g5
NtRp507
(dp508
g8
g10
sg148
Nsg149
(dp509
sg151
Nsg25
g27
sg152
(lp510
I7
aI5
asg154
Nsg155
VMishnah Berakhot 7:5
p511
sg157
(lp512
sg159
g112
sg160
Nsg161
(lp513
I7
aI5
asg163
Nsg164
g511
sg165
(lp514
sg167
g58
sg168
Nsg169
Nsg170
Nsbag3
(g4
g5
NtRp515
(dp516
g8
g10
sg148
Nsg149
(dp517
sg151
Nsg25
g27
sg152
(lp518
I8
aI1
asg154
Nsg155
VMishnah Berakhot 8:1
p519
sg157
(lp520
sg159
g112
sg160
Nsg161
(lp521
I8
aI1
asg163
Nsg164
g519
sg165
(lp522
sg167
g58
sg168
Nsg169
Nsg170
Nsbag3
(g4
g5
NtRp523
(dp524
g8
g10
sg148
Nsg149
(dp525
sg151
Nsg25
g27
sg152
(lp526
I8
aI2
asg154
Nsg155
VMishnah Berakhot 8:2
p527
sg157
(lp528
sg159
g112
sg160
Nsg161
(lp529
I8
aI2
asg163
Nsg164
g527
sg165
(lp530
sg167
g58
sg168
Nsg169
Nsg170
Nsbag3
(g4
g5
NtRp531
(dp532
g8
g10
sg148
Nsg149
(dp533
sg151
Nsg25
g27
sg152
(lp534
I8
aI3
asg154
Nsg155
VMishnah Berakhot 8:3
p535
sg157
(lp536
sg159
g112
sg160
Nsg161
(lp537
I8
aI3
asg163
Nsg164
g535
sg165
(lp538
sg167
g58
sg168
Nsg169
Nsg170
Nsbag3
(g4
g5
NtRp539
(dp540
g8
g10
sg148
Nsg149
(dp541
sg151
Nsg25
g27
sg152
(lp542
I8
aI4
asg154
Nsg155
VMishnah Berakhot 8:4
p543
sg157
(lp544
sg159
g112
sg160
Nsg161
(lp545
I8
aI4
asg163
Nsg164
g543
sg165
(lp546
sg167
g58
sg168
Nsg169
Nsg170
Nsbag3
(g4
g5
NtRp547
(dp548
g8
g10
sg148
Nsg149
(dp549
sg151
Nsg25
g27
sg152
(lp550
I8
aI5
asg154
Nsg155
VMishnah Berakhot 8:5
p551
sg157
(lp552
sg159
g112
sg160
Nsg161
(lp553
I8
aI5
asg163
Nsg164
g551
sg165
(lp554
sg167
g58
sg168
Nsg169
Nsg170
Nsbag3
(g4
g5
NtRp555
(dp556
g8
g10
sg148
Nsg149
(dp557
sg151
Nsg25
g27
sg152
(lp558
I8
aI6
asg154
Nsg155
VMishnah Berakhot 8:6
p559
sg157
(lp560
sg159
g112
sg160
Nsg161
(lp561
I8
aI6
asg163
Nsg164
g559
sg165
(lp562
sg167
g58
sg168
Nsg169
Nsg170
Nsbag3
(g4
g5
NtRp563
(dp564
g8
g10
sg148
Nsg149
(dp565
sg151
Nsg25
g27
sg152
(lp566
I8
aI7
asg154
Nsg155
VMishnah Berakhot 8:7
p567
sg157
(lp568
sg159
g112
sg160
Nsg161
(lp569
I8
aI7
asg163
Nsg164
g567
sg165
(lp570
sg167
g58
sg168
Nsg169
Nsg170
Nsbag3
(g4
g5
NtRp571
(dp572
g8
g10
sg148
Nsg149
(dp573
sg151
Nsg25
g27
sg152
(lp574
I8
aI8
asg154
Nsg155
VMishnah Berakhot 8:8
p575
sg157
(lp576
sg159
g112
sg160
Nsg161
(lp577
I8
aI8
asg163
Nsg164
g575
sg165
(lp578
sg167
g58
sg168
Nsg169
Nsg170
Nsbag3
(g4
g5
NtRp579
(dp580
g8
g10
sg148
Nsg149
(dp581
sg151
Nsg25
g27
sg152
(lp582
I9
aI1
asg154
Nsg155
VMishnah Berakhot 9:1
p583
sg157
(lp584
sg159
g112
sg160
Nsg161
(lp585
I9
aI1
asg163
Nsg164
g583
sg165
(lp586
sg167
g58
sg168
Nsg169
Nsg170
Nsbag3
(g4
g5
NtRp587
(dp588
g8
g10
sg148
Nsg149
(dp589
sg151
Nsg25
g27
sg152
(lp590
I9
aI2
asg154
Nsg155
VMishnah Berakhot 9:2
p591
sg157
(lp592
sg159
g112
sg160
Nsg161
(lp593
I9
aI2
asg163
Nsg164
g591
sg165
(lp594
sg167
g58
sg168
Nsg169
Nsg170
Nsbag3
(g4
g5
NtRp595
(dp596
g8
g10
sg148
Nsg149
(dp597
sg151
Nsg25
g27
sg152
(lp598
I9
aI3
asg154
Nsg155
VMishnah Berakhot 9:3
p599
sg157
(lp600
sg159
g112
sg160
Nsg161
(lp601
I9
aI3
asg163
Nsg164
g599
sg165
(lp602
sg167
g58
sg168
Nsg169
Nsg170
Nsbag3
(g4
g5
NtRp603
(dp604
g8
g10
sg148
Nsg149
(dp605
sg151
Nsg25
g27
sg152
(lp606
I9
aI4
asg154
Nsg155
VMishnah Berakhot 9:4
p607
sg157
(lp608
sg159
g112
sg160
Nsg161
(lp609
I9
aI4
asg163
Nsg164
g607
sg165
(lp610
sg167
g58
sg168
Nsg169
Nsg170
Nsbag3
(g4
g5
NtRp611
(dp612
g8
g10
sg148
Nsg149
(dp613
sg151
Nsg25
g27
sg152
(lp614
I9
aI5
asg154
Nsg155
VMishnah Berakhot 9:5
p615
sg157
(lp616
sg159
g112
sg160
Nsg161
(lp617
I9
aI5
asg163
Nsg164
g615
sg165
(lp618
sg167
g58
sg168
Nsg169
Nsg170
NsbaI2074
t.