((lp1
I0
aI82
aI146
aI165
aI198
aI243
aI288
aI322
aI419
aI460
aI490
aI553
aI626
aI701
aI741
aI781
aI832
aI887
aI922
aI974
aI1057
aI1114
aI1197
aI1237
aI1266
aI1314
aI1339
aI1367
aI1401
aI1432
aI1474
aI1496
a(lp2
ccopy_reg
_reconstructor
p3
(csefaria.model.text
Ref
p4
c__builtin__
object
p5
NtRp6
(dp7
S'index_node'
p8
g3
(csefaria.model.schema
JaggedArrayNode
p9
g5
NtRp10
(dp11
S'_address'
p12
(lp13
VMishnah Zavim
p14
asS'_full_titles'
p15
(dp16
sVnodeType
p17
VJaggedArrayNode
p18
sS'parent'
p19
NsVaddressTypes
p20
(lp21
VPerek
p22
aVMishnah
p23
asS'default'
p24
I00
sS'index'
p25
g3
(csefaria.model.text
Index
p26
g5
NtRp27
(dp28
S'_id'
p29
g3
(cbson.objectid
ObjectId
p30
g5
NtRp31
S'NJ\xb8\x8f\xed\xba\xb4X3\x00\x00b'
p32
bsS'pkeys_orig_values'
p33
(dp34
S'title'
p35
VMishnah Zavim
p36
ssS'pubDate'
p37
V1492
p38
sS'compDate'
p39
V210
p40
sS'pubPlace'
p41
VNaples
p42
sS'compPlace'
p43
VTalmudic Israel
p44
sS'enDesc'
p45
VThe Mishnah is the first major written redaction of the Jewish oral traditions known as the Oral Torah. The Mishnah was redacted by Rabbi Yehudah Ha-Nasi before his death around 217 CE, in a time when, according to the Talmud, the persecution of the Jews and the passage of time raised the possibility that the details of the oral traditions of the Pharisees from the Second Temple period (536 BCE \u2013 70 CE) would be forgotten. The majority of the Mishnah is written in Mishnaic Hebrew, while some parts are Aramaic. The Mishnah consists of six orders (sedarim, singular seder), each containing 7\u201312 tractates (masekhtot, singular masekhet), numbering 63 in total and further subdivided into chapters and paragraphs or verses. The word Mishnah can also indicate a single paragraph or a verse of the work itself, i.e. the smallest unit of structure in the Mishnah. For this reason the whole work is sometimes called by the plural, Mishnayot. Zavim (Seminal Emissions) belongs to the sixth order, Tahorot (Purities) and discusses the laws of a person who has ejaculated. It has five chapters.
p46
sS'order'
p47
(lp48
I60
aI9
asS'era'
p49
VT
sS'struct_objs'
p50
(dp51
sS'nodes'
p52
g10
sS'errorMargin'
p53
V20
p54
sS'_title'
p55
g36
sS'categories'
p56
(lp57
VMishnah
p58
aVSeder Tahorot
p59
asS'schema'
p60
(dp61
g17
g18
sg20
g21
sVlengths
p62
(lp63
I5
aI32
asVdepth
p64
I2
sVtitles
p65
(lp66
(dp67
Vlang
p68
Ven
p69
sVtext
p70
VM. Zavim
p71
sa(dp72
Vlang
p73
Ven
p74
sVtext
p75
VMishna Zavim
p76
sa(dp77
Vlang
p78
Ven
p79
sVtext
p80
VM Zavim
p81
sa(dp82
Vlang
p83
Vhe
p84
sVtext
p85
V\u05de\u05e9\u05e0\u05d4 \u05d6\u05d1\u05d9\u05dd
p86
sVprimary
p87
I01
sa(dp88
Vlang
p89
Vhe
p90
sVtext
p91
V\u05d6\u05d1\u05d9\u05dd
p92
sa(dp93
Vlang
p94
Ven
p95
sVtext
p96
VMishnah Zavim
p97
sVprimary
p98
I01
sasVkey
p99
g14
sVsectionNames
p100
(lp101
VChapter
p102
aVMishna
p103
assbsS'_primary_title'
p104
(dp105
sS'title_group'
p106
g3
(csefaria.model.schema
TitleGroup
p107
g5
NtRp108
(dp109
g104
(dp110
S'en'
p111
g97
ssS'titles'
p112
g66
sbsS'_addressTypes'
p113
(lp114
g3
(csefaria.model.schema
AddressPerek
p115
g5
NtRp116
(dp117
S'length'
p118
I5
sg47
I0
sbag3
(csefaria.model.schema
AddressMishnah
p119
g5
NtRp120
(dp121
g118
Nsg47
I1
sbasS'sharedTitle'
p122
Nsg62
g63
sg64
I2
sS'_full_title'
p123
(dp124
g111
g97
ssS'key'
p125
g14
sS'checkFirst'
p126
NsS'_regexes'
p127
(dp128
sS'_leaf_nodes'
p129
(lp130
sg100
g101
sS'children'
p131
(lp132
sbsS'_range_index'
p133
NsS'_context'
p134
(dp135
sS'_padded'
p136
Nsg25
g27
sS'sections'
p137
(lp138
I1
aI1
asS'_first_spanned_ref'
p139
NsS'tref'
p140
VMishnah Zavim 1:1
p141
sS'_spanned_refs'
p142
(lp143
sS'book'
p144
g97
sS'_range_depth'
p145
NsS'toSections'
p146
(lp147
I1
aI1
asS'_url'
p148
NsS'_normal'
p149
g141
sS'_ranged_refs'
p150
(lp151
sS'type'
p152
g58
sS'_prev'
p153
NsS'_he_normal'
p154
NsS'_next'
p155
Nsbag3
(g4
g5
NtRp156
(dp157
g8
g10
sg133
Nsg134
(dp158
sg136
Nsg25
g27
sg137
(lp159
I1
aI2
asg139
Nsg140
VMishnah Zavim 1:2
p160
sg142
(lp161
sg144
g97
sg145
Nsg146
(lp162
I1
aI2
asg148
Nsg149
g160
sg150
(lp163
sg152
g58
sg153
Nsg154
Nsg155
Nsbag3
(g4
g5
NtRp164
(dp165
g8
g10
sg133
Nsg134
(dp166
sg136
Nsg25
g27
sg137
(lp167
I1
aI3
asg139
Nsg140
VMishnah Zavim 1:3
p168
sg142
(lp169
sg144
g97
sg145
Nsg146
(lp170
I1
aI3
asg148
Nsg149
g168
sg150
(lp171
sg152
g58
sg153
Nsg154
Nsg155
Nsbag3
(g4
g5
NtRp172
(dp173
g8
g10
sg133
Nsg134
(dp174
sg136
Nsg25
g27
sg137
(lp175
I1
aI4
asg139
Nsg140
VMishnah Zavim 1:4
p176
sg142
(lp177
sg144
g97
sg145
Nsg146
(lp178
I1
aI4
asg148
Nsg149
g176
sg150
(lp179
sg152
g58
sg153
Nsg154
Nsg155
Nsbag3
(g4
g5
NtRp180
(dp181
g8
g10
sg133
Nsg134
(dp182
sg136
Nsg25
g27
sg137
(lp183
I1
aI5
asg139
Nsg140
VMishnah Zavim 1:5
p184
sg142
(lp185
sg144
g97
sg145
Nsg146
(lp186
I1
aI5
asg148
Nsg149
g184
sg150
(lp187
sg152
g58
sg153
Nsg154
Nsg155
Nsbag3
(g4
g5
NtRp188
(dp189
g8
g10
sg133
Nsg134
(dp190
sg136
Nsg25
g27
sg137
(lp191
I1
aI6
asg139
Nsg140
VMishnah Zavim 1:6
p192
sg142
(lp193
sg144
g97
sg145
Nsg146
(lp194
I1
aI6
asg148
Nsg149
g192
sg150
(lp195
sg152
g58
sg153
Nsg154
Nsg155
Nsbag3
(g4
g5
NtRp196
(dp197
g8
g10
sg133
Nsg134
(dp198
sg136
Nsg25
g27
sg137
(lp199
I2
aI1
asg139
Nsg140
VMishnah Zavim 2:1
p200
sg142
(lp201
sg144
g97
sg145
Nsg146
(lp202
I2
aI1
asg148
Nsg149
g200
sg150
(lp203
sg152
g58
sg153
Nsg154
Nsg155
Nsbag3
(g4
g5
NtRp204
(dp205
g8
g10
sg133
Nsg134
(dp206
sg136
Nsg25
g27
sg137
(lp207
I2
aI2
asg139
Nsg140
VMishnah Zavim 2:2
p208
sg142
(lp209
sg144
g97
sg145
Nsg146
(lp210
I2
aI2
asg148
Nsg149
g208
sg150
(lp211
sg152
g58
sg153
Nsg154
Nsg155
Nsbag3
(g4
g5
NtRp212
(dp213
g8
g10
sg133
Nsg134
(dp214
sg136
Nsg25
g27
sg137
(lp215
I2
aI3
asg139
Nsg140
VMishnah Zavim 2:3
p216
sg142
(lp217
sg144
g97
sg145
Nsg146
(lp218
I2
aI3
asg148
Nsg149
g216
sg150
(lp219
sg152
g58
sg153
Nsg154
Nsg155
Nsbag3
(g4
g5
NtRp220
(dp221
g8
g10
sg133
Nsg134
(dp222
sg136
Nsg25
g27
sg137
(lp223
I2
aI4
asg139
Nsg140
VMishnah Zavim 2:4
p224
sg142
(lp225
sg144
g97
sg145
Nsg146
(lp226
I2
aI4
asg148
Nsg149
g224
sg150
(lp227
sg152
g58
sg153
Nsg154
Nsg155
Nsbag3
(g4
g5
NtRp228
(dp229
g8
g10
sg133
Nsg134
(dp230
sg136
Nsg25
g27
sg137
(lp231
I3
aI1
asg139
Nsg140
VMishnah Zavim 3:1
p232
sg142
(lp233
sg144
g97
sg145
Nsg146
(lp234
I3
aI1
asg148
Nsg149
g232
sg150
(lp235
sg152
g58
sg153
Nsg154
Nsg155
Nsbag3
(g4
g5
NtRp236
(dp237
g8
g10
sg133
Nsg134
(dp238
sg136
Nsg25
g27
sg137
(lp239
I3
aI2
asg139
Nsg140
VMishnah Zavim 3:2
p240
sg142
(lp241
sg144
g97
sg145
Nsg146
(lp242
I3
aI2
asg148
Nsg149
g240
sg150
(lp243
sg152
g58
sg153
Nsg154
Nsg155
Nsbag3
(g4
g5
NtRp244
(dp245
g8
g10
sg133
Nsg134
(dp246
sg136
Nsg25
g27
sg137
(lp247
I3
aI3
asg139
Nsg140
VMishnah Zavim 3:3
p248
sg142
(lp249
sg144
g97
sg145
Nsg146
(lp250
I3
aI3
asg148
Nsg149
g248
sg150
(lp251
sg152
g58
sg153
Nsg154
Nsg155
Nsbag3
(g4
g5
NtRp252
(dp253
g8
g10
sg133
Nsg134
(dp254
sg136
Nsg25
g27
sg137
(lp255
I4
aI1
asg139
Nsg140
VMishnah Zavim 4:1
p256
sg142
(lp257
sg144
g97
sg145
Nsg146
(lp258
I4
aI1
asg148
Nsg149
g256
sg150
(lp259
sg152
g58
sg153
Nsg154
Nsg155
Nsbag3
(g4
g5
NtRp260
(dp261
g8
g10
sg133
Nsg134
(dp262
sg136
Nsg25
g27
sg137
(lp263
I4
aI2
asg139
Nsg140
VMishnah Zavim 4:2
p264
sg142
(lp265
sg144
g97
sg145
Nsg146
(lp266
I4
aI2
asg148
Nsg149
g264
sg150
(lp267
sg152
g58
sg153
Nsg154
Nsg155
Nsbag3
(g4
g5
NtRp268
(dp269
g8
g10
sg133
Nsg134
(dp270
sg136
Nsg25
g27
sg137
(lp271
I4
aI3
asg139
Nsg140
VMishnah Zavim 4:3
p272
sg142
(lp273
sg144
g97
sg145
Nsg146
(lp274
I4
aI3
asg148
Nsg149
g272
sg150
(lp275
sg152
g58
sg153
Nsg154
Nsg155
Nsbag3
(g4
g5
NtRp276
(dp277
g8
g10
sg133
Nsg134
(dp278
sg136
Nsg25
g27
sg137
(lp279
I4
aI4
asg139
Nsg140
VMishnah Zavim 4:4
p280
sg142
(lp281
sg144
g97
sg145
Nsg146
(lp282
I4
aI4
asg148
Nsg149
g280
sg150
(lp283
sg152
g58
sg153
Nsg154
Nsg155
Nsbag3
(g4
g5
NtRp284
(dp285
g8
g10
sg133
Nsg134
(dp286
sg136
Nsg25
g27
sg137
(lp287
I4
aI5
asg139
Nsg140
VMishnah Zavim 4:5
p288
sg142
(lp289
sg144
g97
sg145
Nsg146
(lp290
I4
aI5
asg148
Nsg149
g288
sg150
(lp291
sg152
g58
sg153
Nsg154
Nsg155
Nsbag3
(g4
g5
NtRp292
(dp293
g8
g10
sg133
Nsg134
(dp294
sg136
Nsg25
g27
sg137
(lp295
I4
aI6
asg139
Nsg140
VMishnah Zavim 4:6
p296
sg142
(lp297
sg144
g97
sg145
Nsg146
(lp298
I4
aI6
asg148
Nsg149
g296
sg150
(lp299
sg152
g58
sg153
Nsg154
Nsg155
Nsbag3
(g4
g5
NtRp300
(dp301
g8
g10
sg133
Nsg134
(dp302
sg136
Nsg25
g27
sg137
(lp303
I4
aI7
asg139
Nsg140
VMishnah Zavim 4:7
p304
sg142
(lp305
sg144
g97
sg145
Nsg146
(lp306
I4
aI7
asg148
Nsg149
g304
sg150
(lp307
sg152
g58
sg153
Nsg154
Nsg155
Nsbag3
(g4
g5
NtRp308
(dp309
g8
g10
sg133
Nsg134
(dp310
sg136
Nsg25
g27
sg137
(lp311
I5
aI1
asg139
Nsg140
VMishnah Zavim 5:1
p312
sg142
(lp313
sg144
g97
sg145
Nsg146
(lp314
I5
aI1
asg148
Nsg149
g312
sg150
(lp315
sg152
g58
sg153
Nsg154
Nsg155
Nsbag3
(g4
g5
NtRp316
(dp317
g8
g10
sg133
Nsg134
(dp318
sg136
Nsg25
g27
sg137
(lp319
I5
aI2
asg139
Nsg140
VMishnah Zavim 5:2
p320
sg142
(lp321
sg144
g97
sg145
Nsg146
(lp322
I5
aI2
asg148
Nsg149
g320
sg150
(lp323
sg152
g58
sg153
Nsg154
Nsg155
Nsbag3
(g4
g5
NtRp324
(dp325
g8
g10
sg133
Nsg134
(dp326
sg136
Nsg25
g27
sg137
(lp327
I5
aI3
asg139
Nsg140
VMishnah Zavim 5:3
p328
sg142
(lp329
sg144
g97
sg145
Nsg146
(lp330
I5
aI3
asg148
Nsg149
g328
sg150
(lp331
sg152
g58
sg153
Nsg154
Nsg155
Nsbag3
(g4
g5
NtRp332
(dp333
g8
g10
sg133
Nsg134
(dp334
sg136
Nsg25
g27
sg137
(lp335
I5
aI4
asg139
Nsg140
VMishnah Zavim 5:4
p336
sg142
(lp337
sg144
g97
sg145
Nsg146
(lp338
I5
aI4
asg148
Nsg149
g336
sg150
(lp339
sg152
g58
sg153
Nsg154
Nsg155
Nsbag3
(g4
g5
NtRp340
(dp341
g8
g10
sg133
Nsg134
(dp342
sg136
Nsg25
g27
sg137
(lp343
I5
aI5
asg139
Nsg140
VMishnah Zavim 5:5
p344
sg142
(lp345
sg144
g97
sg145
Nsg146
(lp346
I5
aI5
asg148
Nsg149
g344
sg150
(lp347
sg152
g58
sg153
Nsg154
Nsg155
Nsbag3
(g4
g5
NtRp348
(dp349
g8
g10
sg133
Nsg134
(dp350
sg136
Nsg25
g27
sg137
(lp351
I5
aI6
asg139
Nsg140
VMishnah Zavim 5:6
p352
sg142
(lp353
sg144
g97
sg145
Nsg146
(lp354
I5
aI6
asg148
Nsg149
g352
sg150
(lp355
sg152
g58
sg153
Nsg154
Nsg155
Nsbag3
(g4
g5
NtRp356
(dp357
g8
g10
sg133
Nsg134
(dp358
sg136
Nsg25
g27
sg137
(lp359
I5
aI7
asg139
Nsg140
VMishnah Zavim 5:7
p360
sg142
(lp361
sg144
g97
sg145
Nsg146
(lp362
I5
aI7
asg148
Nsg149
g360
sg150
(lp363
sg152
g58
sg153
Nsg154
Nsg155
Nsbag3
(g4
g5
NtRp364
(dp365
g8
g10
sg133
Nsg134
(dp366
sg136
Nsg25
g27
sg137
(lp367
I5
aI8
asg139
Nsg140
VMishnah Zavim 5:8
p368
sg142
(lp369
sg144
g97
sg145
Nsg146
(lp370
I5
aI8
asg148
Nsg149
g368
sg150
(lp371
sg152
g58
sg153
Nsg154
Nsg155
Nsbag3
(g4
g5
NtRp372
(dp373
g8
g10
sg133
Nsg134
(dp374
sg136
Nsg25
g27
sg137
(lp375
I5
aI9
asg139
Nsg140
VMishnah Zavim 5:9
p376
sg142
(lp377
sg144
g97
sg145
Nsg146
(lp378
I5
aI9
asg148
Nsg149
g376
sg150
(lp379
sg152
g58
sg153
Nsg154
Nsg155
Nsbag3
(g4
g5
NtRp380
(dp381
g8
g10
sg133
Nsg134
(dp382
sg136
Nsg25
g27
sg137
(lp383
I5
aI10
asg139
Nsg140
VMishnah Zavim 5:10
p384
sg142
(lp385
sg144
g97
sg145
Nsg146
(lp386
I5
aI10
asg148
Nsg149
g384
sg150
(lp387
sg152
g58
sg153
Nsg154
Nsg155
Nsbag3
(g4
g5
NtRp388
(dp389
g8
g10
sg133
Nsg134
(dp390
sg136
Nsg25
g27
sg137
(lp391
I5
aI11
asg139
Nsg140
VMishnah Zavim 5:11
p392
sg142
(lp393
sg144
g97
sg145
Nsg146
(lp394
I5
aI11
asg148
Nsg149
g392
sg150
(lp395
sg152
g58
sg153
Nsg154
Nsg155
Nsbag3
(g4
g5
NtRp396
(dp397
g8
g10
sg133
Nsg134
(dp398
sg136
Nsg25
g27
sg137
(lp399
I5
aI12
asg139
Nsg140
VMishnah Zavim 5:12
p400
sg142
(lp401
sg144
g97
sg145
Nsg146
(lp402
I5
aI12
asg148
Nsg149
g400
sg150
(lp403
sg152
g58
sg153
Nsg154
Nsg155
NsbaI1532
t.