((lp1
I0
aI24
aI57
aI89
aI164
aI188
aI212
aI233
aI263
aI297
aI324
aI354
aI382
aI428
aI465
aI484
aI508
aI543
aI582
aI598
aI626
aI685
aI729
aI752
aI808
aI860
aI903
aI936
aI978
aI1020
aI1066
aI1089
aI1124
aI1168
aI1198
aI1221
aI1240
aI1277
aI1320
aI1347
aI1381
aI1413
aI1447
aI1461
aI1494
aI1520
aI1565
aI1624
aI1658
aI1686
aI1714
aI1734
aI1752
aI1767
aI1823
aI1887
aI1941
aI1979
aI2014
aI2031
aI2076
aI2136
aI2168
aI2202
aI2244
aI2264
aI2302
aI2323
aI2359
aI2393
aI2415
aI2432
aI2482
aI2539
aI2570
aI2600
aI2643
aI2675
aI2714
aI2747
aI2784
aI2828
aI2863
aI2895
aI2921
aI2949
aI2983
aI3016
aI3060
a(lp2
ccopy_reg
_reconstructor
p3
(csefaria.model.text
Ref
p4
c__builtin__
object
p5
NtRp6
(dp7
S'index_node'
p8
g3
(csefaria.model.schema
JaggedArrayNode
p9
g5
NtRp10
(dp11
S'_address'
p12
(lp13
VMishnah Sheviit
p14
asS'_full_titles'
p15
(dp16
sVnodeType
p17
VJaggedArrayNode
p18
sS'parent'
p19
NsVaddressTypes
p20
(lp21
VPerek
p22
aVMishnah
p23
asS'default'
p24
I00
sS'index'
p25
g3
(csefaria.model.text
Index
p26
g5
NtRp27
(dp28
S'_id'
p29
g3
(cbson.objectid
ObjectId
p30
g5
NtRp31
S'NJ\xb8\x8f\xed\xba\xb4X3\x00\x00+'
p32
bsS'pkeys_orig_values'
p33
(dp34
S'title'
p35
VMishnah Sheviit
p36
ssS'pubDate'
p37
V1492
p38
sS'compDate'
p39
V210
p40
sS'pubPlace'
p41
VNaples
p42
sS'compPlace'
p43
VTalmudic Israel
p44
sS'enDesc'
p45
VThe Mishnah is the first major written redaction of the Jewish oral traditions known as the Oral Torah. The Mishnah was redacted by Rabbi Yehudah Ha-Nasi before his death around 217 CE, in a time when, according to the Talmud, the persecution of the Jews and the passage of time raised the possibility that the details of the oral traditions of the Pharisees from the Second Temple period (536 BCE \u2013 70 CE) would be forgotten. The majority of the Mishnah is written in Mishnaic Hebrew, while some parts are Aramaic. The Mishnah consists of six orders (sedarim, singular seder), each containing 7\u201312 tractates (masekhtot, singular masekhet), numbering 63 in total and further subdivided into chapters and paragraphs or verses. The word Mishnah can also indicate a single paragraph or a verse of the work itself, i.e. the smallest unit of structure in the Mishnah. For this reason the whole work is sometimes called by the plural, Mishnayot. Sheviit (Seventh Year) belongs to the first order, Zera'im (seeds) and discusses rules of agricultural and fiscal regulations concerning the Sabbatical Year, as stated in Exodus 23:11, Leviticus 25:1-8, Deuteronomy 15:1-11. It consists of ten chapters.
p46
sS'order'
p47
(lp48
I5
aI5
asS'era'
p49
VT
sS'struct_objs'
p50
(dp51
sS'nodes'
p52
g10
sS'errorMargin'
p53
V20
p54
sS'_title'
p55
g36
sS'categories'
p56
(lp57
VMishnah
p58
aVSeder Zeraim
p59
asS'schema'
p60
(dp61
g17
g18
sg20
g21
sVlengths
p62
(lp63
I10
aI89
asVdepth
p64
I2
sVtitles
p65
(lp66
(dp67
Vlang
p68
Ven
p69
sVtext
p70
VM Sheviit
p71
sa(dp72
Vlang
p73
Ven
p74
sVtext
p75
VMishna Sheviit
p76
sa(dp77
Vlang
p78
Ven
p79
sVtext
p80
VM. Sheviit
p81
sa(dp82
Vlang
p83
Ven
p84
sVtext
p85
VShevi'it
p86
sa(dp87
Vlang
p88
Ven
p89
sVtext
p90
VSheviit
p91
sa(dp92
Vlang
p93
Vhe
p94
sVtext
p95
V\u05de\u05e9\u05e0\u05d4 \u05e9\u05d1\u05d9\u05e2\u05d9\u05ea
p96
sVprimary
p97
I01
sa(dp98
Vlang
p99
Vhe
p100
sVtext
p101
V\u05e9\u05d1\u05d9\u05e2\u05d9\u05ea
p102
sa(dp103
Vlang
p104
Ven
p105
sVtext
p106
VMishnah Sheviit
p107
sVprimary
p108
I01
sasVkey
p109
g14
sVsectionNames
p110
(lp111
VChapter
p112
aVMishna
p113
assbsS'_primary_title'
p114
(dp115
sS'title_group'
p116
g3
(csefaria.model.schema
TitleGroup
p117
g5
NtRp118
(dp119
g114
(dp120
S'en'
p121
g107
ssS'titles'
p122
g66
sbsS'_addressTypes'
p123
(lp124
g3
(csefaria.model.schema
AddressPerek
p125
g5
NtRp126
(dp127
S'length'
p128
I10
sg47
I0
sbag3
(csefaria.model.schema
AddressMishnah
p129
g5
NtRp130
(dp131
g128
Nsg47
I1
sbasS'sharedTitle'
p132
Nsg62
g63
sg64
I2
sS'_full_title'
p133
(dp134
g121
g107
ssS'key'
p135
g14
sS'checkFirst'
p136
NsS'_regexes'
p137
(dp138
sS'_leaf_nodes'
p139
(lp140
sg110
g111
sS'children'
p141
(lp142
sbsS'_range_index'
p143
NsS'_context'
p144
(dp145
sS'_padded'
p146
Nsg25
g27
sS'sections'
p147
(lp148
I1
aI1
asS'_first_spanned_ref'
p149
NsS'tref'
p150
VMishnah Sheviit 1:1
p151
sS'_spanned_refs'
p152
(lp153
sS'book'
p154
g107
sS'_range_depth'
p155
NsS'toSections'
p156
(lp157
I1
aI1
asS'_url'
p158
NsS'_normal'
p159
g151
sS'_ranged_refs'
p160
(lp161
sS'type'
p162
g58
sS'_prev'
p163
NsS'_he_normal'
p164
NsS'_next'
p165
Nsbag3
(g4
g5
NtRp166
(dp167
g8
g10
sg143
Nsg144
(dp168
sg146
Nsg25
g27
sg147
(lp169
I1
aI2
asg149
Nsg150
VMishnah Sheviit 1:2
p170
sg152
(lp171
sg154
g107
sg155
Nsg156
(lp172
I1
aI2
asg158
Nsg159
g170
sg160
(lp173
sg162
g58
sg163
Nsg164
Nsg165
Nsbag3
(g4
g5
NtRp174
(dp175
g8
g10
sg143
Nsg144
(dp176
sg146
Nsg25
g27
sg147
(lp177
I1
aI3
asg149
Nsg150
VMishnah Sheviit 1:3
p178
sg152
(lp179
sg154
g107
sg155
Nsg156
(lp180
I1
aI3
asg158
Nsg159
g178
sg160
(lp181
sg162
g58
sg163
Nsg164
Nsg165
Nsbag3
(g4
g5
NtRp182
(dp183
g8
g10
sg143
Nsg144
(dp184
sg146
Nsg25
g27
sg147
(lp185
I1
aI4
asg149
Nsg150
VMishnah Sheviit 1:4
p186
sg152
(lp187
sg154
g107
sg155
Nsg156
(lp188
I1
aI4
asg158
Nsg159
g186
sg160
(lp189
sg162
g58
sg163
Nsg164
Nsg165
Nsbag3
(g4
g5
NtRp190
(dp191
g8
g10
sg143
Nsg144
(dp192
sg146
Nsg25
g27
sg147
(lp193
I1
aI5
asg149
Nsg150
VMishnah Sheviit 1:5
p194
sg152
(lp195
sg154
g107
sg155
Nsg156
(lp196
I1
aI5
asg158
Nsg159
g194
sg160
(lp197
sg162
g58
sg163
Nsg164
Nsg165
Nsbag3
(g4
g5
NtRp198
(dp199
g8
g10
sg143
Nsg144
(dp200
sg146
Nsg25
g27
sg147
(lp201
I1
aI6
asg149
Nsg150
VMishnah Sheviit 1:6
p202
sg152
(lp203
sg154
g107
sg155
Nsg156
(lp204
I1
aI6
asg158
Nsg159
g202
sg160
(lp205
sg162
g58
sg163
Nsg164
Nsg165
Nsbag3
(g4
g5
NtRp206
(dp207
g8
g10
sg143
Nsg144
(dp208
sg146
Nsg25
g27
sg147
(lp209
I1
aI7
asg149
Nsg150
VMishnah Sheviit 1:7
p210
sg152
(lp211
sg154
g107
sg155
Nsg156
(lp212
I1
aI7
asg158
Nsg159
g210
sg160
(lp213
sg162
g58
sg163
Nsg164
Nsg165
Nsbag3
(g4
g5
NtRp214
(dp215
g8
g10
sg143
Nsg144
(dp216
sg146
Nsg25
g27
sg147
(lp217
I1
aI8
asg149
Nsg150
VMishnah Sheviit 1:8
p218
sg152
(lp219
sg154
g107
sg155
Nsg156
(lp220
I1
aI8
asg158
Nsg159
g218
sg160
(lp221
sg162
g58
sg163
Nsg164
Nsg165
Nsbag3
(g4
g5
NtRp222
(dp223
g8
g10
sg143
Nsg144
(dp224
sg146
Nsg25
g27
sg147
(lp225
I2
aI1
asg149
Nsg150
VMishnah Sheviit 2:1
p226
sg152
(lp227
sg154
g107
sg155
Nsg156
(lp228
I2
aI1
asg158
Nsg159
g226
sg160
(lp229
sg162
g58
sg163
Nsg164
Nsg165
Nsbag3
(g4
g5
NtRp230
(dp231
g8
g10
sg143
Nsg144
(dp232
sg146
Nsg25
g27
sg147
(lp233
I2
aI2
asg149
Nsg150
VMishnah Sheviit 2:2
p234
sg152
(lp235
sg154
g107
sg155
Nsg156
(lp236
I2
aI2
asg158
Nsg159
g234
sg160
(lp237
sg162
g58
sg163
Nsg164
Nsg165
Nsbag3
(g4
g5
NtRp238
(dp239
g8
g10
sg143
Nsg144
(dp240
sg146
Nsg25
g27
sg147
(lp241
I2
aI3
asg149
Nsg150
VMishnah Sheviit 2:3
p242
sg152
(lp243
sg154
g107
sg155
Nsg156
(lp244
I2
aI3
asg158
Nsg159
g242
sg160
(lp245
sg162
g58
sg163
Nsg164
Nsg165
Nsbag3
(g4
g5
NtRp246
(dp247
g8
g10
sg143
Nsg144
(dp248
sg146
Nsg25
g27
sg147
(lp249
I2
aI4
asg149
Nsg150
VMishnah Sheviit 2:4
p250
sg152
(lp251
sg154
g107
sg155
Nsg156
(lp252
I2
aI4
asg158
Nsg159
g250
sg160
(lp253
sg162
g58
sg163
Nsg164
Nsg165
Nsbag3
(g4
g5
NtRp254
(dp255
g8
g10
sg143
Nsg144
(dp256
sg146
Nsg25
g27
sg147
(lp257
I2
aI5
asg149
Nsg150
VMishnah Sheviit 2:5
p258
sg152
(lp259
sg154
g107
sg155
Nsg156
(lp260
I2
aI5
asg158
Nsg159
g258
sg160
(lp261
sg162
g58
sg163
Nsg164
Nsg165
Nsbag3
(g4
g5
NtRp262
(dp263
g8
g10
sg143
Nsg144
(dp264
sg146
Nsg25
g27
sg147
(lp265
I2
aI6
asg149
Nsg150
VMishnah Sheviit 2:6
p266
sg152
(lp267
sg154
g107
sg155
Nsg156
(lp268
I2
aI6
asg158
Nsg159
g266
sg160
(lp269
sg162
g58
sg163
Nsg164
Nsg165
Nsbag3
(g4
g5
NtRp270
(dp271
g8
g10
sg143
Nsg144
(dp272
sg146
Nsg25
g27
sg147
(lp273
I2
aI7
asg149
Nsg150
VMishnah Sheviit 2:7
p274
sg152
(lp275
sg154
g107
sg155
Nsg156
(lp276
I2
aI7
asg158
Nsg159
g274
sg160
(lp277
sg162
g58
sg163
Nsg164
Nsg165
Nsbag3
(g4
g5
NtRp278
(dp279
g8
g10
sg143
Nsg144
(dp280
sg146
Nsg25
g27
sg147
(lp281
I2
aI8
asg149
Nsg150
VMishnah Sheviit 2:8
p282
sg152
(lp283
sg154
g107
sg155
Nsg156
(lp284
I2
aI8
asg158
Nsg159
g282
sg160
(lp285
sg162
g58
sg163
Nsg164
Nsg165
Nsbag3
(g4
g5
NtRp286
(dp287
g8
g10
sg143
Nsg144
(dp288
sg146
Nsg25
g27
sg147
(lp289
I2
aI9
asg149
Nsg150
VMishnah Sheviit 2:9
p290
sg152
(lp291
sg154
g107
sg155
Nsg156
(lp292
I2
aI9
asg158
Nsg159
g290
sg160
(lp293
sg162
g58
sg163
Nsg164
Nsg165
Nsbag3
(g4
g5
NtRp294
(dp295
g8
g10
sg143
Nsg144
(dp296
sg146
Nsg25
g27
sg147
(lp297
I2
aI10
asg149
Nsg150
VMishnah Sheviit 2:10
p298
sg152
(lp299
sg154
g107
sg155
Nsg156
(lp300
I2
aI10
asg158
Nsg159
g298
sg160
(lp301
sg162
g58
sg163
Nsg164
Nsg165
Nsbag3
(g4
g5
NtRp302
(dp303
g8
g10
sg143
Nsg144
(dp304
sg146
Nsg25
g27
sg147
(lp305
I3
aI1
asg149
Nsg150
VMishnah Sheviit 3:1
p306
sg152
(lp307
sg154
g107
sg155
Nsg156
(lp308
I3
aI1
asg158
Nsg159
g306
sg160
(lp309
sg162
g58
sg163
Nsg164
Nsg165
Nsbag3
(g4
g5
NtRp310
(dp311
g8
g10
sg143
Nsg144
(dp312
sg146
Nsg25
g27
sg147
(lp313
I3
aI2
asg149
Nsg150
VMishnah Sheviit 3:2
p314
sg152
(lp315
sg154
g107
sg155
Nsg156
(lp316
I3
aI2
asg158
Nsg159
g314
sg160
(lp317
sg162
g58
sg163
Nsg164
Nsg165
Nsbag3
(g4
g5
NtRp318
(dp319
g8
g10
sg143
Nsg144
(dp320
sg146
Nsg25
g27
sg147
(lp321
I3
aI3
asg149
Nsg150
VMishnah Sheviit 3:3
p322
sg152
(lp323
sg154
g107
sg155
Nsg156
(lp324
I3
aI3
asg158
Nsg159
g322
sg160
(lp325
sg162
g58
sg163
Nsg164
Nsg165
Nsbag3
(g4
g5
NtRp326
(dp327
g8
g10
sg143
Nsg144
(dp328
sg146
Nsg25
g27
sg147
(lp329
I3
aI4
asg149
Nsg150
VMishnah Sheviit 3:4
p330
sg152
(lp331
sg154
g107
sg155
Nsg156
(lp332
I3
aI4
asg158
Nsg159
g330
sg160
(lp333
sg162
g58
sg163
Nsg164
Nsg165
Nsbag3
(g4
g5
NtRp334
(dp335
g8
g10
sg143
Nsg144
(dp336
sg146
Nsg25
g27
sg147
(lp337
I3
aI5
asg149
Nsg150
VMishnah Sheviit 3:5
p338
sg152
(lp339
sg154
g107
sg155
Nsg156
(lp340
I3
aI5
asg158
Nsg159
g338
sg160
(lp341
sg162
g58
sg163
Nsg164
Nsg165
Nsbag3
(g4
g5
NtRp342
(dp343
g8
g10
sg143
Nsg144
(dp344
sg146
Nsg25
g27
sg147
(lp345
I3
aI6
asg149
Nsg150
VMishnah Sheviit 3:6
p346
sg152
(lp347
sg154
g107
sg155
Nsg156
(lp348
I3
aI6
asg158
Nsg159
g346
sg160
(lp349
sg162
g58
sg163
Nsg164
Nsg165
Nsbag3
(g4
g5
NtRp350
(dp351
g8
g10
sg143
Nsg144
(dp352
sg146
Nsg25
g27
sg147
(lp353
I3
aI7
asg149
Nsg150
VMishnah Sheviit 3:7
p354
sg152
(lp355
sg154
g107
sg155
Nsg156
(lp356
I3
aI7
asg158
Nsg159
g354
sg160
(lp357
sg162
g58
sg163
Nsg164
Nsg165
Nsbag3
(g4
g5
NtRp358
(dp359
g8
g10
sg143
Nsg144
(dp360
sg146
Nsg25
g27
sg147
(lp361
I3
aI8
asg149
Nsg150
VMishnah Sheviit 3:8
p362
sg152
(lp363
sg154
g107
sg155
Nsg156
(lp364
I3
aI8
asg158
Nsg159
g362
sg160
(lp365
sg162
g58
sg163
Nsg164
Nsg165
Nsbag3
(g4
g5
NtRp366
(dp367
g8
g10
sg143
Nsg144
(dp368
sg146
Nsg25
g27
sg147
(lp369
I3
aI9
asg149
Nsg150
VMishnah Sheviit 3:9
p370
sg152
(lp371
sg154
g107
sg155
Nsg156
(lp372
I3
aI9
asg158
Nsg159
g370
sg160
(lp373
sg162
g58
sg163
Nsg164
Nsg165
Nsbag3
(g4
g5
NtRp374
(dp375
g8
g10
sg143
Nsg144
(dp376
sg146
Nsg25
g27
sg147
(lp377
I3
aI10
asg149
Nsg150
VMishnah Sheviit 3:10
p378
sg152
(lp379
sg154
g107
sg155
Nsg156
(lp380
I3
aI10
asg158
Nsg159
g378
sg160
(lp381
sg162
g58
sg163
Nsg164
Nsg165
Nsbag3
(g4
g5
NtRp382
(dp383
g8
g10
sg143
Nsg144
(dp384
sg146
Nsg25
g27
sg147
(lp385
I4
aI1
asg149
Nsg150
VMishnah Sheviit 4:1
p386
sg152
(lp387
sg154
g107
sg155
Nsg156
(lp388
I4
aI1
asg158
Nsg159
g386
sg160
(lp389
sg162
g58
sg163
Nsg164
Nsg165
Nsbag3
(g4
g5
NtRp390
(dp391
g8
g10
sg143
Nsg144
(dp392
sg146
Nsg25
g27
sg147
(lp393
I4
aI2
asg149
Nsg150
VMishnah Sheviit 4:2
p394
sg152
(lp395
sg154
g107
sg155
Nsg156
(lp396
I4
aI2
asg158
Nsg159
g394
sg160
(lp397
sg162
g58
sg163
Nsg164
Nsg165
Nsbag3
(g4
g5
NtRp398
(dp399
g8
g10
sg143
Nsg144
(dp400
sg146
Nsg25
g27
sg147
(lp401
I4
aI3
asg149
Nsg150
VMishnah Sheviit 4:3
p402
sg152
(lp403
sg154
g107
sg155
Nsg156
(lp404
I4
aI3
asg158
Nsg159
g402
sg160
(lp405
sg162
g58
sg163
Nsg164
Nsg165
Nsbag3
(g4
g5
NtRp406
(dp407
g8
g10
sg143
Nsg144
(dp408
sg146
Nsg25
g27
sg147
(lp409
I4
aI4
asg149
Nsg150
VMishnah Sheviit 4:4
p410
sg152
(lp411
sg154
g107
sg155
Nsg156
(lp412
I4
aI4
asg158
Nsg159
g410
sg160
(lp413
sg162
g58
sg163
Nsg164
Nsg165
Nsbag3
(g4
g5
NtRp414
(dp415
g8
g10
sg143
Nsg144
(dp416
sg146
Nsg25
g27
sg147
(lp417
I4
aI5
asg149
Nsg150
VMishnah Sheviit 4:5
p418
sg152
(lp419
sg154
g107
sg155
Nsg156
(lp420
I4
aI5
asg158
Nsg159
g418
sg160
(lp421
sg162
g58
sg163
Nsg164
Nsg165
Nsbag3
(g4
g5
NtRp422
(dp423
g8
g10
sg143
Nsg144
(dp424
sg146
Nsg25
g27
sg147
(lp425
I4
aI6
asg149
Nsg150
VMishnah Sheviit 4:6
p426
sg152
(lp427
sg154
g107
sg155
Nsg156
(lp428
I4
aI6
asg158
Nsg159
g426
sg160
(lp429
sg162
g58
sg163
Nsg164
Nsg165
Nsbag3
(g4
g5
NtRp430
(dp431
g8
g10
sg143
Nsg144
(dp432
sg146
Nsg25
g27
sg147
(lp433
I4
aI7
asg149
Nsg150
VMishnah Sheviit 4:7
p434
sg152
(lp435
sg154
g107
sg155
Nsg156
(lp436
I4
aI7
asg158
Nsg159
g434
sg160
(lp437
sg162
g58
sg163
Nsg164
Nsg165
Nsbag3
(g4
g5
NtRp438
(dp439
g8
g10
sg143
Nsg144
(dp440
sg146
Nsg25
g27
sg147
(lp441
I4
aI8
asg149
Nsg150
VMishnah Sheviit 4:8
p442
sg152
(lp443
sg154
g107
sg155
Nsg156
(lp444
I4
aI8
asg158
Nsg159
g442
sg160
(lp445
sg162
g58
sg163
Nsg164
Nsg165
Nsbag3
(g4
g5
NtRp446
(dp447
g8
g10
sg143
Nsg144
(dp448
sg146
Nsg25
g27
sg147
(lp449
I4
aI9
asg149
Nsg150
VMishnah Sheviit 4:9
p450
sg152
(lp451
sg154
g107
sg155
Nsg156
(lp452
I4
aI9
asg158
Nsg159
g450
sg160
(lp453
sg162
g58
sg163
Nsg164
Nsg165
Nsbag3
(g4
g5
NtRp454
(dp455
g8
g10
sg143
Nsg144
(dp456
sg146
Nsg25
g27
sg147
(lp457
I4
aI10
asg149
Nsg150
VMishnah Sheviit 4:10
p458
sg152
(lp459
sg154
g107
sg155
Nsg156
(lp460
I4
aI10
asg158
Nsg159
g458
sg160
(lp461
sg162
g58
sg163
Nsg164
Nsg165
Nsbag3
(g4
g5
NtRp462
(dp463
g8
g10
sg143
Nsg144
(dp464
sg146
Nsg25
g27
sg147
(lp465
I5
aI1
asg149
Nsg150
VMishnah Sheviit 5:1
p466
sg152
(lp467
sg154
g107
sg155
Nsg156
(lp468
I5
aI1
asg158
Nsg159
g466
sg160
(lp469
sg162
g58
sg163
Nsg164
Nsg165
Nsbag3
(g4
g5
NtRp470
(dp471
g8
g10
sg143
Nsg144
(dp472
sg146
Nsg25
g27
sg147
(lp473
I5
aI2
asg149
Nsg150
VMishnah Sheviit 5:2
p474
sg152
(lp475
sg154
g107
sg155
Nsg156
(lp476
I5
aI2
asg158
Nsg159
g474
sg160
(lp477
sg162
g58
sg163
Nsg164
Nsg165
Nsbag3
(g4
g5
NtRp478
(dp479
g8
g10
sg143
Nsg144
(dp480
sg146
Nsg25
g27
sg147
(lp481
I5
aI3
asg149
Nsg150
VMishnah Sheviit 5:3
p482
sg152
(lp483
sg154
g107
sg155
Nsg156
(lp484
I5
aI3
asg158
Nsg159
g482
sg160
(lp485
sg162
g58
sg163
Nsg164
Nsg165
Nsbag3
(g4
g5
NtRp486
(dp487
g8
g10
sg143
Nsg144
(dp488
sg146
Nsg25
g27
sg147
(lp489
I5
aI4
asg149
Nsg150
VMishnah Sheviit 5:4
p490
sg152
(lp491
sg154
g107
sg155
Nsg156
(lp492
I5
aI4
asg158
Nsg159
g490
sg160
(lp493
sg162
g58
sg163
Nsg164
Nsg165
Nsbag3
(g4
g5
NtRp494
(dp495
g8
g10
sg143
Nsg144
(dp496
sg146
Nsg25
g27
sg147
(lp497
I5
aI5
asg149
Nsg150
VMishnah Sheviit 5:5
p498
sg152
(lp499
sg154
g107
sg155
Nsg156
(lp500
I5
aI5
asg158
Nsg159
g498
sg160
(lp501
sg162
g58
sg163
Nsg164
Nsg165
Nsbag3
(g4
g5
NtRp502
(dp503
g8
g10
sg143
Nsg144
(dp504
sg146
Nsg25
g27
sg147
(lp505
I5
aI6
asg149
Nsg150
VMishnah Sheviit 5:6
p506
sg152
(lp507
sg154
g107
sg155
Nsg156
(lp508
I5
aI6
asg158
Nsg159
g506
sg160
(lp509
sg162
g58
sg163
Nsg164
Nsg165
Nsbag3
(g4
g5
NtRp510
(dp511
g8
g10
sg143
Nsg144
(dp512
sg146
Nsg25
g27
sg147
(lp513
I5
aI7
asg149
Nsg150
VMishnah Sheviit 5:7
p514
sg152
(lp515
sg154
g107
sg155
Nsg156
(lp516
I5
aI7
asg158
Nsg159
g514
sg160
(lp517
sg162
g58
sg163
Nsg164
Nsg165
Nsbag3
(g4
g5
NtRp518
(dp519
g8
g10
sg143
Nsg144
(dp520
sg146
Nsg25
g27
sg147
(lp521
I5
aI8
asg149
Nsg150
VMishnah Sheviit 5:8
p522
sg152
(lp523
sg154
g107
sg155
Nsg156
(lp524
I5
aI8
asg158
Nsg159
g522
sg160
(lp525
sg162
g58
sg163
Nsg164
Nsg165
Nsbag3
(g4
g5
NtRp526
(dp527
g8
g10
sg143
Nsg144
(dp528
sg146
Nsg25
g27
sg147
(lp529
I5
aI9
asg149
Nsg150
VMishnah Sheviit 5:9
p530
sg152
(lp531
sg154
g107
sg155
Nsg156
(lp532
I5
aI9
asg158
Nsg159
g530
sg160
(lp533
sg162
g58
sg163
Nsg164
Nsg165
Nsbag3
(g4
g5
NtRp534
(dp535
g8
g10
sg143
Nsg144
(dp536
sg146
Nsg25
g27
sg147
(lp537
I6
aI1
asg149
Nsg150
VMishnah Sheviit 6:1
p538
sg152
(lp539
sg154
g107
sg155
Nsg156
(lp540
I6
aI1
asg158
Nsg159
g538
sg160
(lp541
sg162
g58
sg163
Nsg164
Nsg165
Nsbag3
(g4
g5
NtRp542
(dp543
g8
g10
sg143
Nsg144
(dp544
sg146
Nsg25
g27
sg147
(lp545
I6
aI2
asg149
Nsg150
VMishnah Sheviit 6:2
p546
sg152
(lp547
sg154
g107
sg155
Nsg156
(lp548
I6
aI2
asg158
Nsg159
g546
sg160
(lp549
sg162
g58
sg163
Nsg164
Nsg165
Nsbag3
(g4
g5
NtRp550
(dp551
g8
g10
sg143
Nsg144
(dp552
sg146
Nsg25
g27
sg147
(lp553
I6
aI3
asg149
Nsg150
VMishnah Sheviit 6:3
p554
sg152
(lp555
sg154
g107
sg155
Nsg156
(lp556
I6
aI3
asg158
Nsg159
g554
sg160
(lp557
sg162
g58
sg163
Nsg164
Nsg165
Nsbag3
(g4
g5
NtRp558
(dp559
g8
g10
sg143
Nsg144
(dp560
sg146
Nsg25
g27
sg147
(lp561
I6
aI4
asg149
Nsg150
VMishnah Sheviit 6:4
p562
sg152
(lp563
sg154
g107
sg155
Nsg156
(lp564
I6
aI4
asg158
Nsg159
g562
sg160
(lp565
sg162
g58
sg163
Nsg164
Nsg165
Nsbag3
(g4
g5
NtRp566
(dp567
g8
g10
sg143
Nsg144
(dp568
sg146
Nsg25
g27
sg147
(lp569
I6
aI5
asg149
Nsg150
VMishnah Sheviit 6:5
p570
sg152
(lp571
sg154
g107
sg155
Nsg156
(lp572
I6
aI5
asg158
Nsg159
g570
sg160
(lp573
sg162
g58
sg163
Nsg164
Nsg165
Nsbag3
(g4
g5
NtRp574
(dp575
g8
g10
sg143
Nsg144
(dp576
sg146
Nsg25
g27
sg147
(lp577
I6
aI6
asg149
Nsg150
VMishnah Sheviit 6:6
p578
sg152
(lp579
sg154
g107
sg155
Nsg156
(lp580
I6
aI6
asg158
Nsg159
g578
sg160
(lp581
sg162
g58
sg163
Nsg164
Nsg165
Nsbag3
(g4
g5
NtRp582
(dp583
g8
g10
sg143
Nsg144
(dp584
sg146
Nsg25
g27
sg147
(lp585
I7
aI1
asg149
Nsg150
VMishnah Sheviit 7:1
p586
sg152
(lp587
sg154
g107
sg155
Nsg156
(lp588
I7
aI1
asg158
Nsg159
g586
sg160
(lp589
sg162
g58
sg163
Nsg164
Nsg165
Nsbag3
(g4
g5
NtRp590
(dp591
g8
g10
sg143
Nsg144
(dp592
sg146
Nsg25
g27
sg147
(lp593
I7
aI2
asg149
Nsg150
VMishnah Sheviit 7:2
p594
sg152
(lp595
sg154
g107
sg155
Nsg156
(lp596
I7
aI2
asg158
Nsg159
g594
sg160
(lp597
sg162
g58
sg163
Nsg164
Nsg165
Nsbag3
(g4
g5
NtRp598
(dp599
g8
g10
sg143
Nsg144
(dp600
sg146
Nsg25
g27
sg147
(lp601
I7
aI3
asg149
Nsg150
VMishnah Sheviit 7:3
p602
sg152
(lp603
sg154
g107
sg155
Nsg156
(lp604
I7
aI3
asg158
Nsg159
g602
sg160
(lp605
sg162
g58
sg163
Nsg164
Nsg165
Nsbag3
(g4
g5
NtRp606
(dp607
g8
g10
sg143
Nsg144
(dp608
sg146
Nsg25
g27
sg147
(lp609
I7
aI4
asg149
Nsg150
VMishnah Sheviit 7:4
p610
sg152
(lp611
sg154
g107
sg155
Nsg156
(lp612
I7
aI4
asg158
Nsg159
g610
sg160
(lp613
sg162
g58
sg163
Nsg164
Nsg165
Nsbag3
(g4
g5
NtRp614
(dp615
g8
g10
sg143
Nsg144
(dp616
sg146
Nsg25
g27
sg147
(lp617
I7
aI5
asg149
Nsg150
VMishnah Sheviit 7:5
p618
sg152
(lp619
sg154
g107
sg155
Nsg156
(lp620
I7
aI5
asg158
Nsg159
g618
sg160
(lp621
sg162
g58
sg163
Nsg164
Nsg165
Nsbag3
(g4
g5
NtRp622
(dp623
g8
g10
sg143
Nsg144
(dp624
sg146
Nsg25
g27
sg147
(lp625
I7
aI6
asg149
Nsg150
VMishnah Sheviit 7:6
p626
sg152
(lp627
sg154
g107
sg155
Nsg156
(lp628
I7
aI6
asg158
Nsg159
g626
sg160
(lp629
sg162
g58
sg163
Nsg164
Nsg165
Nsbag3
(g4
g5
NtRp630
(dp631
g8
g10
sg143
Nsg144
(dp632
sg146
Nsg25
g27
sg147
(lp633
I7
aI7
asg149
Nsg150
VMishnah Sheviit 7:7
p634
sg152
(lp635
sg154
g107
sg155
Nsg156
(lp636
I7
aI7
asg158
Nsg159
g634
sg160
(lp637
sg162
g58
sg163
Nsg164
Nsg165
Nsbag3
(g4
g5
NtRp638
(dp639
g8
g10
sg143
Nsg144
(dp640
sg146
Nsg25
g27
sg147
(lp641
I8
aI1
asg149
Nsg150
VMishnah Sheviit 8:1
p642
sg152
(lp643
sg154
g107
sg155
Nsg156
(lp644
I8
aI1
asg158
Nsg159
g642
sg160
(lp645
sg162
g58
sg163
Nsg164
Nsg165
Nsbag3
(g4
g5
NtRp646
(dp647
g8
g10
sg143
Nsg144
(dp648
sg146
Nsg25
g27
sg147
(lp649
I8
aI2
asg149
Nsg150
VMishnah Sheviit 8:2
p650
sg152
(lp651
sg154
g107
sg155
Nsg156
(lp652
I8
aI2
asg158
Nsg159
g650
sg160
(lp653
sg162
g58
sg163
Nsg164
Nsg165
Nsbag3
(g4
g5
NtRp654
(dp655
g8
g10
sg143
Nsg144
(dp656
sg146
Nsg25
g27
sg147
(lp657
I8
aI3
asg149
Nsg150
VMishnah Sheviit 8:3
p658
sg152
(lp659
sg154
g107
sg155
Nsg156
(lp660
I8
aI3
asg158
Nsg159
g658
sg160
(lp661
sg162
g58
sg163
Nsg164
Nsg165
Nsbag3
(g4
g5
NtRp662
(dp663
g8
g10
sg143
Nsg144
(dp664
sg146
Nsg25
g27
sg147
(lp665
I8
aI4
asg149
Nsg150
VMishnah Sheviit 8:4
p666
sg152
(lp667
sg154
g107
sg155
Nsg156
(lp668
I8
aI4
asg158
Nsg159
g666
sg160
(lp669
sg162
g58
sg163
Nsg164
Nsg165
Nsbag3
(g4
g5
NtRp670
(dp671
g8
g10
sg143
Nsg144
(dp672
sg146
Nsg25
g27
sg147
(lp673
I8
aI5
asg149
Nsg150
VMishnah Sheviit 8:5
p674
sg152
(lp675
sg154
g107
sg155
Nsg156
(lp676
I8
aI5
asg158
Nsg159
g674
sg160
(lp677
sg162
g58
sg163
Nsg164
Nsg165
Nsbag3
(g4
g5
NtRp678
(dp679
g8
g10
sg143
Nsg144
(dp680
sg146
Nsg25
g27
sg147
(lp681
I8
aI6
asg149
Nsg150
VMishnah Sheviit 8:6
p682
sg152
(lp683
sg154
g107
sg155
Nsg156
(lp684
I8
aI6
asg158
Nsg159
g682
sg160
(lp685
sg162
g58
sg163
Nsg164
Nsg165
Nsbag3
(g4
g5
NtRp686
(dp687
g8
g10
sg143
Nsg144
(dp688
sg146
Nsg25
g27
sg147
(lp689
I8
aI7
asg149
Nsg150
VMishnah Sheviit 8:7
p690
sg152
(lp691
sg154
g107
sg155
Nsg156
(lp692
I8
aI7
asg158
Nsg159
g690
sg160
(lp693
sg162
g58
sg163
Nsg164
Nsg165
Nsbag3
(g4
g5
NtRp694
(dp695
g8
g10
sg143
Nsg144
(dp696
sg146
Nsg25
g27
sg147
(lp697
I8
aI8
asg149
Nsg150
VMishnah Sheviit 8:8
p698
sg152
(lp699
sg154
g107
sg155
Nsg156
(lp700
I8
aI8
asg158
Nsg159
g698
sg160
(lp701
sg162
g58
sg163
Nsg164
Nsg165
Nsbag3
(g4
g5
NtRp702
(dp703
g8
g10
sg143
Nsg144
(dp704
sg146
Nsg25
g27
sg147
(lp705
I8
aI9
asg149
Nsg150
VMishnah Sheviit 8:9
p706
sg152
(lp707
sg154
g107
sg155
Nsg156
(lp708
I8
aI9
asg158
Nsg159
g706
sg160
(lp709
sg162
g58
sg163
Nsg164
Nsg165
Nsbag3
(g4
g5
NtRp710
(dp711
g8
g10
sg143
Nsg144
(dp712
sg146
Nsg25
g27
sg147
(lp713
I8
aI10
asg149
Nsg150
VMishnah Sheviit 8:10
p714
sg152
(lp715
sg154
g107
sg155
Nsg156
(lp716
I8
aI10
asg158
Nsg159
g714
sg160
(lp717
sg162
g58
sg163
Nsg164
Nsg165
Nsbag3
(g4
g5
NtRp718
(dp719
g8
g10
sg143
Nsg144
(dp720
sg146
Nsg25
g27
sg147
(lp721
I8
aI11
asg149
Nsg150
VMishnah Sheviit 8:11
p722
sg152
(lp723
sg154
g107
sg155
Nsg156
(lp724
I8
aI11
asg158
Nsg159
g722
sg160
(lp725
sg162
g58
sg163
Nsg164
Nsg165
Nsbag3
(g4
g5
NtRp726
(dp727
g8
g10
sg143
Nsg144
(dp728
sg146
Nsg25
g27
sg147
(lp729
I9
aI1
asg149
Nsg150
VMishnah Sheviit 9:1
p730
sg152
(lp731
sg154
g107
sg155
Nsg156
(lp732
I9
aI1
asg158
Nsg159
g730
sg160
(lp733
sg162
g58
sg163
Nsg164
Nsg165
Nsbag3
(g4
g5
NtRp734
(dp735
g8
g10
sg143
Nsg144
(dp736
sg146
Nsg25
g27
sg147
(lp737
I9
aI2
asg149
Nsg150
VMishnah Sheviit 9:2
p738
sg152
(lp739
sg154
g107
sg155
Nsg156
(lp740
I9
aI2
asg158
Nsg159
g738
sg160
(lp741
sg162
g58
sg163
Nsg164
Nsg165
Nsbag3
(g4
g5
NtRp742
(dp743
g8
g10
sg143
Nsg144
(dp744
sg146
Nsg25
g27
sg147
(lp745
I9
aI3
asg149
Nsg150
VMishnah Sheviit 9:3
p746
sg152
(lp747
sg154
g107
sg155
Nsg156
(lp748
I9
aI3
asg158
Nsg159
g746
sg160
(lp749
sg162
g58
sg163
Nsg164
Nsg165
Nsbag3
(g4
g5
NtRp750
(dp751
g8
g10
sg143
Nsg144
(dp752
sg146
Nsg25
g27
sg147
(lp753
I9
aI4
asg149
Nsg150
VMishnah Sheviit 9:4
p754
sg152
(lp755
sg154
g107
sg155
Nsg156
(lp756
I9
aI4
asg158
Nsg159
g754
sg160
(lp757
sg162
g58
sg163
Nsg164
Nsg165
Nsbag3
(g4
g5
NtRp758
(dp759
g8
g10
sg143
Nsg144
(dp760
sg146
Nsg25
g27
sg147
(lp761
I9
aI5
asg149
Nsg150
VMishnah Sheviit 9:5
p762
sg152
(lp763
sg154
g107
sg155
Nsg156
(lp764
I9
aI5
asg158
Nsg159
g762
sg160
(lp765
sg162
g58
sg163
Nsg164
Nsg165
Nsbag3
(g4
g5
NtRp766
(dp767
g8
g10
sg143
Nsg144
(dp768
sg146
Nsg25
g27
sg147
(lp769
I9
aI6
asg149
Nsg150
VMishnah Sheviit 9:6
p770
sg152
(lp771
sg154
g107
sg155
Nsg156
(lp772
I9
aI6
asg158
Nsg159
g770
sg160
(lp773
sg162
g58
sg163
Nsg164
Nsg165
Nsbag3
(g4
g5
NtRp774
(dp775
g8
g10
sg143
Nsg144
(dp776
sg146
Nsg25
g27
sg147
(lp777
I9
aI7
asg149
Nsg150
VMishnah Sheviit 9:7
p778
sg152
(lp779
sg154
g107
sg155
Nsg156
(lp780
I9
aI7
asg158
Nsg159
g778
sg160
(lp781
sg162
g58
sg163
Nsg164
Nsg165
Nsbag3
(g4
g5
NtRp782
(dp783
g8
g10
sg143
Nsg144
(dp784
sg146
Nsg25
g27
sg147
(lp785
I9
aI8
asg149
Nsg150
VMishnah Sheviit 9:8
p786
sg152
(lp787
sg154
g107
sg155
Nsg156
(lp788
I9
aI8
asg158
Nsg159
g786
sg160
(lp789
sg162
g58
sg163
Nsg164
Nsg165
Nsbag3
(g4
g5
NtRp790
(dp791
g8
g10
sg143
Nsg144
(dp792
sg146
Nsg25
g27
sg147
(lp793
I9
aI9
asg149
Nsg150
VMishnah Sheviit 9:9
p794
sg152
(lp795
sg154
g107
sg155
Nsg156
(lp796
I9
aI9
asg158
Nsg159
g794
sg160
(lp797
sg162
g58
sg163
Nsg164
Nsg165
Nsbag3
(g4
g5
NtRp798
(dp799
g8
g10
sg143
Nsg144
(dp800
sg146
Nsg25
g27
sg147
(lp801
I10
aI1
asg149
Nsg150
VMishnah Sheviit 10:1
p802
sg152
(lp803
sg154
g107
sg155
Nsg156
(lp804
I10
aI1
asg158
Nsg159
g802
sg160
(lp805
sg162
g58
sg163
Nsg164
Nsg165
Nsbag3
(g4
g5
NtRp806
(dp807
g8
g10
sg143
Nsg144
(dp808
sg146
Nsg25
g27
sg147
(lp809
I10
aI2
asg149
Nsg150
VMishnah Sheviit 10:2
p810
sg152
(lp811
sg154
g107
sg155
Nsg156
(lp812
I10
aI2
asg158
Nsg159
g810
sg160
(lp813
sg162
g58
sg163
Nsg164
Nsg165
Nsbag3
(g4
g5
NtRp814
(dp815
g8
g10
sg143
Nsg144
(dp816
sg146
Nsg25
g27
sg147
(lp817
I10
aI3
asg149
Nsg150
VMishnah Sheviit 10:3
p818
sg152
(lp819
sg154
g107
sg155
Nsg156
(lp820
I10
aI3
asg158
Nsg159
g818
sg160
(lp821
sg162
g58
sg163
Nsg164
Nsg165
Nsbag3
(g4
g5
NtRp822
(dp823
g8
g10
sg143
Nsg144
(dp824
sg146
Nsg25
g27
sg147
(lp825
I10
aI4
asg149
Nsg150
VMishnah Sheviit 10:4
p826
sg152
(lp827
sg154
g107
sg155
Nsg156
(lp828
I10
aI4
asg158
Nsg159
g826
sg160
(lp829
sg162
g58
sg163
Nsg164
Nsg165
Nsbag3
(g4
g5
NtRp830
(dp831
g8
g10
sg143
Nsg144
(dp832
sg146
Nsg25
g27
sg147
(lp833
I10
aI5
asg149
Nsg150
VMishnah Sheviit 10:5
p834
sg152
(lp835
sg154
g107
sg155
Nsg156
(lp836
I10
aI5
asg158
Nsg159
g834
sg160
(lp837
sg162
g58
sg163
Nsg164
Nsg165
Nsbag3
(g4
g5
NtRp838
(dp839
g8
g10
sg143
Nsg144
(dp840
sg146
Nsg25
g27
sg147
(lp841
I10
aI6
asg149
Nsg150
VMishnah Sheviit 10:6
p842
sg152
(lp843
sg154
g107
sg155
Nsg156
(lp844
I10
aI6
asg158
Nsg159
g842
sg160
(lp845
sg162
g58
sg163
Nsg164
Nsg165
Nsbag3
(g4
g5
NtRp846
(dp847
g8
g10
sg143
Nsg144
(dp848
sg146
Nsg25
g27
sg147
(lp849
I10
aI7
asg149
Nsg150
VMishnah Sheviit 10:7
p850
sg152
(lp851
sg154
g107
sg155
Nsg156
(lp852
I10
aI7
asg158
Nsg159
g850
sg160
(lp853
sg162
g58
sg163
Nsg164
Nsg165
Nsbag3
(g4
g5
NtRp854
(dp855
g8
g10
sg143
Nsg144
(dp856
sg146
Nsg25
g27
sg147
(lp857
I10
aI8
asg149
Nsg150
VMishnah Sheviit 10:8
p858
sg152
(lp859
sg154
g107
sg155
Nsg156
(lp860
I10
aI8
asg158
Nsg159
g858
sg160
(lp861
sg162
g58
sg163
Nsg164
Nsg165
Nsbag3
(g4
g5
NtRp862
(dp863
g8
g10
sg143
Nsg144
(dp864
sg146
Nsg25
g27
sg147
(lp865
I10
aI9
asg149
Nsg150
VMishnah Sheviit 10:9
p866
sg152
(lp867
sg154
g107
sg155
Nsg156
(lp868
I10
aI9
asg158
Nsg159
g866
sg160
(lp869
sg162
g58
sg163
Nsg164
Nsg165
NsbaI3094
t.