((lp1
I0
aI85
aI164
aI186
aI242
aI283
aI329
aI354
aI375
aI423
aI456
aI550
aI586
aI614
aI656
aI684
aI706
aI738
aI782
aI835
aI907
aI976
aI1029
aI1094
aI1155
aI1187
aI1218
aI1260
aI1273
aI1295
aI1321
aI1402
aI1428
aI1467
aI1526
aI1570
aI1593
aI1660
aI1697
aI1719
aI1766
aI1829
aI1862
aI1912
aI1952
aI1982
aI2006
aI2081
aI2119
aI2190
aI2257
aI2293
aI2338
aI2381
aI2510
aI2556
aI2587
aI2630
aI2713
aI2794
aI2829
aI2870
aI2926
aI3014
aI3073
aI3124
aI3180
aI3240
aI3375
aI3412
aI3515
aI3589
aI3647
aI3693
aI3717
aI3753
aI3801
aI3827
aI3852
aI3880
aI3937
aI4027
aI4080
aI4195
aI4228
aI4268
aI4315
aI4332
aI4360
aI4469
aI4533
aI4580
aI4599
aI4665
aI4689
aI4718
aI4793
aI4844
aI4906
aI4941
aI4982
aI5027
aI5053
aI5122
aI5138
aI5190
aI5424
aI5478
aI5520
aI5575
aI5629
aI5696
aI5734
aI5840
aI5870
aI5895
aI5956
aI5989
aI6054
aI6101
aI6160
aI6204
aI6255
a(lp2
ccopy_reg
_reconstructor
p3
(csefaria.model.text
Ref
p4
c__builtin__
object
p5
NtRp6
(dp7
S'index_node'
p8
g3
(csefaria.model.schema
JaggedArrayNode
p9
g5
NtRp10
(dp11
S'_address'
p12
(lp13
VMishnah Yevamot
p14
asS'_full_titles'
p15
(dp16
sVnodeType
p17
VJaggedArrayNode
p18
sS'parent'
p19
NsVaddressTypes
p20
(lp21
VPerek
p22
aVMishnah
p23
asS'default'
p24
I00
sS'index'
p25
g3
(csefaria.model.text
Index
p26
g5
NtRp27
(dp28
S'_id'
p29
g3
(cbson.objectid
ObjectId
p30
g5
NtRp31
S'NJ\xb8\x8f\xed\xba\xb4X3\x00\x00>'
p32
bsS'pkeys_orig_values'
p33
(dp34
S'title'
p35
VMishnah Yevamot
p36
ssS'pubDate'
p37
V1492
p38
sS'compDate'
p39
V210
p40
sS'pubPlace'
p41
VNaples
p42
sS'compPlace'
p43
VTalmudic Israel
p44
sS'enDesc'
p45
VThe Mishnah is the first major written redaction of the Jewish oral traditions known as the Oral Torah. The Mishnah was redacted by Rabbi Yehudah Ha-Nasi before his death around 217 CE, in a time when, according to the Talmud, the persecution of the Jews and the passage of time raised the possibility that the details of the oral traditions of the Pharisees from the Second Temple period (536 BCE \u2013 70 CE) would be forgotten. The majority of the Mishnah is written in Mishnaic Hebrew, while some parts are Aramaic. The Mishnah consists of six orders (sedarim, singular seder), each containing 7\u201312 tractates (masekhtot, singular masekhet), numbering 63 in total and further subdivided into chapters and paragraphs or verses. The word Mishnah can also indicate a single paragraph or a verse of the work itself, i.e. the smallest unit of structure in the Mishnah. For this reason the whole work is sometimes called by the plural, Mishnayot. Yevamot (Levirate marriage) belongs to the third order, Nashim (Women) and discusses the mandated marriage of a widow to her brother-in-law, deals with the Jewish law of levirate marriage (Deut. 25:5\u201310) and other topics, such as the status of minors. It has sixteen chapters.
p46
sS'order'
p47
(lp48
I24
aI1
asS'era'
p49
VT
sS'struct_objs'
p50
(dp51
sS'nodes'
p52
g10
sS'errorMargin'
p53
V20
p54
sS'_title'
p55
g36
sS'categories'
p56
(lp57
VMishnah
p58
aVSeder Nashim
p59
asS'schema'
p60
(dp61
g17
g18
sg20
g21
sVlengths
p62
(lp63
I16
aI123
asVdepth
p64
I2
sVtitles
p65
(lp66
(dp67
Vlang
p68
Ven
p69
sVtext
p70
VM Yevamot
p71
sa(dp72
Vlang
p73
Ven
p74
sVtext
p75
VM. Yevamot
p76
sa(dp77
Vlang
p78
Ven
p79
sVtext
p80
VMishna Yevamot
p81
sa(dp82
Vlang
p83
Vhe
p84
sVtext
p85
V\u05de\u05e9\u05e0\u05d4 \u05d9\u05d1\u05de\u05d5\u05ea
p86
sVprimary
p87
I01
sa(dp88
Vlang
p89
Ven
p90
sVtext
p91
VMishnah Yevamot
p92
sVprimary
p93
I01
sasVkey
p94
g14
sVsectionNames
p95
(lp96
VChapter
p97
aVMishna
p98
assbsS'_primary_title'
p99
(dp100
sS'title_group'
p101
g3
(csefaria.model.schema
TitleGroup
p102
g5
NtRp103
(dp104
g99
(dp105
S'en'
p106
g92
ssS'titles'
p107
g66
sbsS'_addressTypes'
p108
(lp109
g3
(csefaria.model.schema
AddressPerek
p110
g5
NtRp111
(dp112
S'length'
p113
I16
sg47
I0
sbag3
(csefaria.model.schema
AddressMishnah
p114
g5
NtRp115
(dp116
g113
Nsg47
I1
sbasS'sharedTitle'
p117
Nsg62
g63
sg64
I2
sS'_full_title'
p118
(dp119
g106
g92
ssS'key'
p120
g14
sS'checkFirst'
p121
NsS'_regexes'
p122
(dp123
sS'_leaf_nodes'
p124
(lp125
sg95
g96
sS'children'
p126
(lp127
sbsS'_range_index'
p128
NsS'_context'
p129
(dp130
sS'_padded'
p131
Nsg25
g27
sS'sections'
p132
(lp133
I1
aI1
asS'_first_spanned_ref'
p134
NsS'tref'
p135
VMishnah Yevamot 1:1
p136
sS'_spanned_refs'
p137
(lp138
sS'book'
p139
g92
sS'_range_depth'
p140
NsS'toSections'
p141
(lp142
I1
aI1
asS'_url'
p143
NsS'_normal'
p144
g136
sS'_ranged_refs'
p145
(lp146
sS'type'
p147
g58
sS'_prev'
p148
NsS'_he_normal'
p149
NsS'_next'
p150
Nsbag3
(g4
g5
NtRp151
(dp152
g8
g10
sg128
Nsg129
(dp153
sg131
Nsg25
g27
sg132
(lp154
I1
aI2
asg134
Nsg135
VMishnah Yevamot 1:2
p155
sg137
(lp156
sg139
g92
sg140
Nsg141
(lp157
I1
aI2
asg143
Nsg144
g155
sg145
(lp158
sg147
g58
sg148
Nsg149
Nsg150
Nsbag3
(g4
g5
NtRp159
(dp160
g8
g10
sg128
Nsg129
(dp161
sg131
Nsg25
g27
sg132
(lp162
I1
aI3
asg134
Nsg135
VMishnah Yevamot 1:3
p163
sg137
(lp164
sg139
g92
sg140
Nsg141
(lp165
I1
aI3
asg143
Nsg144
g163
sg145
(lp166
sg147
g58
sg148
Nsg149
Nsg150
Nsbag3
(g4
g5
NtRp167
(dp168
g8
g10
sg128
Nsg129
(dp169
sg131
Nsg25
g27
sg132
(lp170
I1
aI4
asg134
Nsg135
VMishnah Yevamot 1:4
p171
sg137
(lp172
sg139
g92
sg140
Nsg141
(lp173
I1
aI4
asg143
Nsg144
g171
sg145
(lp174
sg147
g58
sg148
Nsg149
Nsg150
Nsbag3
(g4
g5
NtRp175
(dp176
g8
g10
sg128
Nsg129
(dp177
sg131
Nsg25
g27
sg132
(lp178
I2
aI1
asg134
Nsg135
VMishnah Yevamot 2:1
p179
sg137
(lp180
sg139
g92
sg140
Nsg141
(lp181
I2
aI1
asg143
Nsg144
g179
sg145
(lp182
sg147
g58
sg148
Nsg149
Nsg150
Nsbag3
(g4
g5
NtRp183
(dp184
g8
g10
sg128
Nsg129
(dp185
sg131
Nsg25
g27
sg132
(lp186
I2
aI2
asg134
Nsg135
VMishnah Yevamot 2:2
p187
sg137
(lp188
sg139
g92
sg140
Nsg141
(lp189
I2
aI2
asg143
Nsg144
g187
sg145
(lp190
sg147
g58
sg148
Nsg149
Nsg150
Nsbag3
(g4
g5
NtRp191
(dp192
g8
g10
sg128
Nsg129
(dp193
sg131
Nsg25
g27
sg132
(lp194
I2
aI3
asg134
Nsg135
VMishnah Yevamot 2:3
p195
sg137
(lp196
sg139
g92
sg140
Nsg141
(lp197
I2
aI3
asg143
Nsg144
g195
sg145
(lp198
sg147
g58
sg148
Nsg149
Nsg150
Nsbag3
(g4
g5
NtRp199
(dp200
g8
g10
sg128
Nsg129
(dp201
sg131
Nsg25
g27
sg132
(lp202
I2
aI4
asg134
Nsg135
VMishnah Yevamot 2:4
p203
sg137
(lp204
sg139
g92
sg140
Nsg141
(lp205
I2
aI4
asg143
Nsg144
g203
sg145
(lp206
sg147
g58
sg148
Nsg149
Nsg150
Nsbag3
(g4
g5
NtRp207
(dp208
g8
g10
sg128
Nsg129
(dp209
sg131
Nsg25
g27
sg132
(lp210
I2
aI5
asg134
Nsg135
VMishnah Yevamot 2:5
p211
sg137
(lp212
sg139
g92
sg140
Nsg141
(lp213
I2
aI5
asg143
Nsg144
g211
sg145
(lp214
sg147
g58
sg148
Nsg149
Nsg150
Nsbag3
(g4
g5
NtRp215
(dp216
g8
g10
sg128
Nsg129
(dp217
sg131
Nsg25
g27
sg132
(lp218
I2
aI6
asg134
Nsg135
VMishnah Yevamot 2:6
p219
sg137
(lp220
sg139
g92
sg140
Nsg141
(lp221
I2
aI6
asg143
Nsg144
g219
sg145
(lp222
sg147
g58
sg148
Nsg149
Nsg150
Nsbag3
(g4
g5
NtRp223
(dp224
g8
g10
sg128
Nsg129
(dp225
sg131
Nsg25
g27
sg132
(lp226
I2
aI7
asg134
Nsg135
VMishnah Yevamot 2:7
p227
sg137
(lp228
sg139
g92
sg140
Nsg141
(lp229
I2
aI7
asg143
Nsg144
g227
sg145
(lp230
sg147
g58
sg148
Nsg149
Nsg150
Nsbag3
(g4
g5
NtRp231
(dp232
g8
g10
sg128
Nsg129
(dp233
sg131
Nsg25
g27
sg132
(lp234
I2
aI8
asg134
Nsg135
VMishnah Yevamot 2:8
p235
sg137
(lp236
sg139
g92
sg140
Nsg141
(lp237
I2
aI8
asg143
Nsg144
g235
sg145
(lp238
sg147
g58
sg148
Nsg149
Nsg150
Nsbag3
(g4
g5
NtRp239
(dp240
g8
g10
sg128
Nsg129
(dp241
sg131
Nsg25
g27
sg132
(lp242
I2
aI9
asg134
Nsg135
VMishnah Yevamot 2:9
p243
sg137
(lp244
sg139
g92
sg140
Nsg141
(lp245
I2
aI9
asg143
Nsg144
g243
sg145
(lp246
sg147
g58
sg148
Nsg149
Nsg150
Nsbag3
(g4
g5
NtRp247
(dp248
g8
g10
sg128
Nsg129
(dp249
sg131
Nsg25
g27
sg132
(lp250
I2
aI10
asg134
Nsg135
VMishnah Yevamot 2:10
p251
sg137
(lp252
sg139
g92
sg140
Nsg141
(lp253
I2
aI10
asg143
Nsg144
g251
sg145
(lp254
sg147
g58
sg148
Nsg149
Nsg150
Nsbag3
(g4
g5
NtRp255
(dp256
g8
g10
sg128
Nsg129
(dp257
sg131
Nsg25
g27
sg132
(lp258
I3
aI1
asg134
Nsg135
VMishnah Yevamot 3:1
p259
sg137
(lp260
sg139
g92
sg140
Nsg141
(lp261
I3
aI1
asg143
Nsg144
g259
sg145
(lp262
sg147
g58
sg148
Nsg149
Nsg150
Nsbag3
(g4
g5
NtRp263
(dp264
g8
g10
sg128
Nsg129
(dp265
sg131
Nsg25
g27
sg132
(lp266
I3
aI2
asg134
Nsg135
VMishnah Yevamot 3:2
p267
sg137
(lp268
sg139
g92
sg140
Nsg141
(lp269
I3
aI2
asg143
Nsg144
g267
sg145
(lp270
sg147
g58
sg148
Nsg149
Nsg150
Nsbag3
(g4
g5
NtRp271
(dp272
g8
g10
sg128
Nsg129
(dp273
sg131
Nsg25
g27
sg132
(lp274
I3
aI3
asg134
Nsg135
VMishnah Yevamot 3:3
p275
sg137
(lp276
sg139
g92
sg140
Nsg141
(lp277
I3
aI3
asg143
Nsg144
g275
sg145
(lp278
sg147
g58
sg148
Nsg149
Nsg150
Nsbag3
(g4
g5
NtRp279
(dp280
g8
g10
sg128
Nsg129
(dp281
sg131
Nsg25
g27
sg132
(lp282
I3
aI4
asg134
Nsg135
VMishnah Yevamot 3:4
p283
sg137
(lp284
sg139
g92
sg140
Nsg141
(lp285
I3
aI4
asg143
Nsg144
g283
sg145
(lp286
sg147
g58
sg148
Nsg149
Nsg150
Nsbag3
(g4
g5
NtRp287
(dp288
g8
g10
sg128
Nsg129
(dp289
sg131
Nsg25
g27
sg132
(lp290
I3
aI5
asg134
Nsg135
VMishnah Yevamot 3:5
p291
sg137
(lp292
sg139
g92
sg140
Nsg141
(lp293
I3
aI5
asg143
Nsg144
g291
sg145
(lp294
sg147
g58
sg148
Nsg149
Nsg150
Nsbag3
(g4
g5
NtRp295
(dp296
g8
g10
sg128
Nsg129
(dp297
sg131
Nsg25
g27
sg132
(lp298
I3
aI6
asg134
Nsg135
VMishnah Yevamot 3:6
p299
sg137
(lp300
sg139
g92
sg140
Nsg141
(lp301
I3
aI6
asg143
Nsg144
g299
sg145
(lp302
sg147
g58
sg148
Nsg149
Nsg150
Nsbag3
(g4
g5
NtRp303
(dp304
g8
g10
sg128
Nsg129
(dp305
sg131
Nsg25
g27
sg132
(lp306
I3
aI7
asg134
Nsg135
VMishnah Yevamot 3:7
p307
sg137
(lp308
sg139
g92
sg140
Nsg141
(lp309
I3
aI7
asg143
Nsg144
g307
sg145
(lp310
sg147
g58
sg148
Nsg149
Nsg150
Nsbag3
(g4
g5
NtRp311
(dp312
g8
g10
sg128
Nsg129
(dp313
sg131
Nsg25
g27
sg132
(lp314
I3
aI8
asg134
Nsg135
VMishnah Yevamot 3:8
p315
sg137
(lp316
sg139
g92
sg140
Nsg141
(lp317
I3
aI8
asg143
Nsg144
g315
sg145
(lp318
sg147
g58
sg148
Nsg149
Nsg150
Nsbag3
(g4
g5
NtRp319
(dp320
g8
g10
sg128
Nsg129
(dp321
sg131
Nsg25
g27
sg132
(lp322
I3
aI9
asg134
Nsg135
VMishnah Yevamot 3:9
p323
sg137
(lp324
sg139
g92
sg140
Nsg141
(lp325
I3
aI9
asg143
Nsg144
g323
sg145
(lp326
sg147
g58
sg148
Nsg149
Nsg150
Nsbag3
(g4
g5
NtRp327
(dp328
g8
g10
sg128
Nsg129
(dp329
sg131
Nsg25
g27
sg132
(lp330
I3
aI10
asg134
Nsg135
VMishnah Yevamot 3:10
p331
sg137
(lp332
sg139
g92
sg140
Nsg141
(lp333
I3
aI10
asg143
Nsg144
g331
sg145
(lp334
sg147
g58
sg148
Nsg149
Nsg150
Nsbag3
(g4
g5
NtRp335
(dp336
g8
g10
sg128
Nsg129
(dp337
sg131
Nsg25
g27
sg132
(lp338
I4
aI1
asg134
Nsg135
VMishnah Yevamot 4:1
p339
sg137
(lp340
sg139
g92
sg140
Nsg141
(lp341
I4
aI1
asg143
Nsg144
g339
sg145
(lp342
sg147
g58
sg148
Nsg149
Nsg150
Nsbag3
(g4
g5
NtRp343
(dp344
g8
g10
sg128
Nsg129
(dp345
sg131
Nsg25
g27
sg132
(lp346
I4
aI2
asg134
Nsg135
VMishnah Yevamot 4:2
p347
sg137
(lp348
sg139
g92
sg140
Nsg141
(lp349
I4
aI2
asg143
Nsg144
g347
sg145
(lp350
sg147
g58
sg148
Nsg149
Nsg150
Nsbag3
(g4
g5
NtRp351
(dp352
g8
g10
sg128
Nsg129
(dp353
sg131
Nsg25
g27
sg132
(lp354
I4
aI3
asg134
Nsg135
VMishnah Yevamot 4:3
p355
sg137
(lp356
sg139
g92
sg140
Nsg141
(lp357
I4
aI3
asg143
Nsg144
g355
sg145
(lp358
sg147
g58
sg148
Nsg149
Nsg150
Nsbag3
(g4
g5
NtRp359
(dp360
g8
g10
sg128
Nsg129
(dp361
sg131
Nsg25
g27
sg132
(lp362
I4
aI4
asg134
Nsg135
VMishnah Yevamot 4:4
p363
sg137
(lp364
sg139
g92
sg140
Nsg141
(lp365
I4
aI4
asg143
Nsg144
g363
sg145
(lp366
sg147
g58
sg148
Nsg149
Nsg150
Nsbag3
(g4
g5
NtRp367
(dp368
g8
g10
sg128
Nsg129
(dp369
sg131
Nsg25
g27
sg132
(lp370
I4
aI5
asg134
Nsg135
VMishnah Yevamot 4:5
p371
sg137
(lp372
sg139
g92
sg140
Nsg141
(lp373
I4
aI5
asg143
Nsg144
g371
sg145
(lp374
sg147
g58
sg148
Nsg149
Nsg150
Nsbag3
(g4
g5
NtRp375
(dp376
g8
g10
sg128
Nsg129
(dp377
sg131
Nsg25
g27
sg132
(lp378
I4
aI6
asg134
Nsg135
VMishnah Yevamot 4:6
p379
sg137
(lp380
sg139
g92
sg140
Nsg141
(lp381
I4
aI6
asg143
Nsg144
g379
sg145
(lp382
sg147
g58
sg148
Nsg149
Nsg150
Nsbag3
(g4
g5
NtRp383
(dp384
g8
g10
sg128
Nsg129
(dp385
sg131
Nsg25
g27
sg132
(lp386
I4
aI7
asg134
Nsg135
VMishnah Yevamot 4:7
p387
sg137
(lp388
sg139
g92
sg140
Nsg141
(lp389
I4
aI7
asg143
Nsg144
g387
sg145
(lp390
sg147
g58
sg148
Nsg149
Nsg150
Nsbag3
(g4
g5
NtRp391
(dp392
g8
g10
sg128
Nsg129
(dp393
sg131
Nsg25
g27
sg132
(lp394
I4
aI8
asg134
Nsg135
VMishnah Yevamot 4:8
p395
sg137
(lp396
sg139
g92
sg140
Nsg141
(lp397
I4
aI8
asg143
Nsg144
g395
sg145
(lp398
sg147
g58
sg148
Nsg149
Nsg150
Nsbag3
(g4
g5
NtRp399
(dp400
g8
g10
sg128
Nsg129
(dp401
sg131
Nsg25
g27
sg132
(lp402
I4
aI9
asg134
Nsg135
VMishnah Yevamot 4:9
p403
sg137
(lp404
sg139
g92
sg140
Nsg141
(lp405
I4
aI9
asg143
Nsg144
g403
sg145
(lp406
sg147
g58
sg148
Nsg149
Nsg150
Nsbag3
(g4
g5
NtRp407
(dp408
g8
g10
sg128
Nsg129
(dp409
sg131
Nsg25
g27
sg132
(lp410
I4
aI10
asg134
Nsg135
VMishnah Yevamot 4:10
p411
sg137
(lp412
sg139
g92
sg140
Nsg141
(lp413
I4
aI10
asg143
Nsg144
g411
sg145
(lp414
sg147
g58
sg148
Nsg149
Nsg150
Nsbag3
(g4
g5
NtRp415
(dp416
g8
g10
sg128
Nsg129
(dp417
sg131
Nsg25
g27
sg132
(lp418
I4
aI11
asg134
Nsg135
VMishnah Yevamot 4:11
p419
sg137
(lp420
sg139
g92
sg140
Nsg141
(lp421
I4
aI11
asg143
Nsg144
g419
sg145
(lp422
sg147
g58
sg148
Nsg149
Nsg150
Nsbag3
(g4
g5
NtRp423
(dp424
g8
g10
sg128
Nsg129
(dp425
sg131
Nsg25
g27
sg132
(lp426
I4
aI12
asg134
Nsg135
VMishnah Yevamot 4:12
p427
sg137
(lp428
sg139
g92
sg140
Nsg141
(lp429
I4
aI12
asg143
Nsg144
g427
sg145
(lp430
sg147
g58
sg148
Nsg149
Nsg150
Nsbag3
(g4
g5
NtRp431
(dp432
g8
g10
sg128
Nsg129
(dp433
sg131
Nsg25
g27
sg132
(lp434
I4
aI13
asg134
Nsg135
VMishnah Yevamot 4:13
p435
sg137
(lp436
sg139
g92
sg140
Nsg141
(lp437
I4
aI13
asg143
Nsg144
g435
sg145
(lp438
sg147
g58
sg148
Nsg149
Nsg150
Nsbag3
(g4
g5
NtRp439
(dp440
g8
g10
sg128
Nsg129
(dp441
sg131
Nsg25
g27
sg132
(lp442
I5
aI1
asg134
Nsg135
VMishnah Yevamot 5:1
p443
sg137
(lp444
sg139
g92
sg140
Nsg141
(lp445
I5
aI1
asg143
Nsg144
g443
sg145
(lp446
sg147
g58
sg148
Nsg149
Nsg150
Nsbag3
(g4
g5
NtRp447
(dp448
g8
g10
sg128
Nsg129
(dp449
sg131
Nsg25
g27
sg132
(lp450
I5
aI2
asg134
Nsg135
VMishnah Yevamot 5:2
p451
sg137
(lp452
sg139
g92
sg140
Nsg141
(lp453
I5
aI2
asg143
Nsg144
g451
sg145
(lp454
sg147
g58
sg148
Nsg149
Nsg150
Nsbag3
(g4
g5
NtRp455
(dp456
g8
g10
sg128
Nsg129
(dp457
sg131
Nsg25
g27
sg132
(lp458
I5
aI3
asg134
Nsg135
VMishnah Yevamot 5:3
p459
sg137
(lp460
sg139
g92
sg140
Nsg141
(lp461
I5
aI3
asg143
Nsg144
g459
sg145
(lp462
sg147
g58
sg148
Nsg149
Nsg150
Nsbag3
(g4
g5
NtRp463
(dp464
g8
g10
sg128
Nsg129
(dp465
sg131
Nsg25
g27
sg132
(lp466
I5
aI4
asg134
Nsg135
VMishnah Yevamot 5:4
p467
sg137
(lp468
sg139
g92
sg140
Nsg141
(lp469
I5
aI4
asg143
Nsg144
g467
sg145
(lp470
sg147
g58
sg148
Nsg149
Nsg150
Nsbag3
(g4
g5
NtRp471
(dp472
g8
g10
sg128
Nsg129
(dp473
sg131
Nsg25
g27
sg132
(lp474
I5
aI5
asg134
Nsg135
VMishnah Yevamot 5:5
p475
sg137
(lp476
sg139
g92
sg140
Nsg141
(lp477
I5
aI5
asg143
Nsg144
g475
sg145
(lp478
sg147
g58
sg148
Nsg149
Nsg150
Nsbag3
(g4
g5
NtRp479
(dp480
g8
g10
sg128
Nsg129
(dp481
sg131
Nsg25
g27
sg132
(lp482
I5
aI6
asg134
Nsg135
VMishnah Yevamot 5:6
p483
sg137
(lp484
sg139
g92
sg140
Nsg141
(lp485
I5
aI6
asg143
Nsg144
g483
sg145
(lp486
sg147
g58
sg148
Nsg149
Nsg150
Nsbag3
(g4
g5
NtRp487
(dp488
g8
g10
sg128
Nsg129
(dp489
sg131
Nsg25
g27
sg132
(lp490
I6
aI1
asg134
Nsg135
VMishnah Yevamot 6:1
p491
sg137
(lp492
sg139
g92
sg140
Nsg141
(lp493
I6
aI1
asg143
Nsg144
g491
sg145
(lp494
sg147
g58
sg148
Nsg149
Nsg150
Nsbag3
(g4
g5
NtRp495
(dp496
g8
g10
sg128
Nsg129
(dp497
sg131
Nsg25
g27
sg132
(lp498
I6
aI2
asg134
Nsg135
VMishnah Yevamot 6:2
p499
sg137
(lp500
sg139
g92
sg140
Nsg141
(lp501
I6
aI2
asg143
Nsg144
g499
sg145
(lp502
sg147
g58
sg148
Nsg149
Nsg150
Nsbag3
(g4
g5
NtRp503
(dp504
g8
g10
sg128
Nsg129
(dp505
sg131
Nsg25
g27
sg132
(lp506
I6
aI3
asg134
Nsg135
VMishnah Yevamot 6:3
p507
sg137
(lp508
sg139
g92
sg140
Nsg141
(lp509
I6
aI3
asg143
Nsg144
g507
sg145
(lp510
sg147
g58
sg148
Nsg149
Nsg150
Nsbag3
(g4
g5
NtRp511
(dp512
g8
g10
sg128
Nsg129
(dp513
sg131
Nsg25
g27
sg132
(lp514
I6
aI4
asg134
Nsg135
VMishnah Yevamot 6:4
p515
sg137
(lp516
sg139
g92
sg140
Nsg141
(lp517
I6
aI4
asg143
Nsg144
g515
sg145
(lp518
sg147
g58
sg148
Nsg149
Nsg150
Nsbag3
(g4
g5
NtRp519
(dp520
g8
g10
sg128
Nsg129
(dp521
sg131
Nsg25
g27
sg132
(lp522
I6
aI5
asg134
Nsg135
VMishnah Yevamot 6:5
p523
sg137
(lp524
sg139
g92
sg140
Nsg141
(lp525
I6
aI5
asg143
Nsg144
g523
sg145
(lp526
sg147
g58
sg148
Nsg149
Nsg150
Nsbag3
(g4
g5
NtRp527
(dp528
g8
g10
sg128
Nsg129
(dp529
sg131
Nsg25
g27
sg132
(lp530
I6
aI6
asg134
Nsg135
VMishnah Yevamot 6:6
p531
sg137
(lp532
sg139
g92
sg140
Nsg141
(lp533
I6
aI6
asg143
Nsg144
g531
sg145
(lp534
sg147
g58
sg148
Nsg149
Nsg150
Nsbag3
(g4
g5
NtRp535
(dp536
g8
g10
sg128
Nsg129
(dp537
sg131
Nsg25
g27
sg132
(lp538
I7
aI1
asg134
Nsg135
VMishnah Yevamot 7:1
p539
sg137
(lp540
sg139
g92
sg140
Nsg141
(lp541
I7
aI1
asg143
Nsg144
g539
sg145
(lp542
sg147
g58
sg148
Nsg149
Nsg150
Nsbag3
(g4
g5
NtRp543
(dp544
g8
g10
sg128
Nsg129
(dp545
sg131
Nsg25
g27
sg132
(lp546
I7
aI2
asg134
Nsg135
VMishnah Yevamot 7:2
p547
sg137
(lp548
sg139
g92
sg140
Nsg141
(lp549
I7
aI2
asg143
Nsg144
g547
sg145
(lp550
sg147
g58
sg148
Nsg149
Nsg150
Nsbag3
(g4
g5
NtRp551
(dp552
g8
g10
sg128
Nsg129
(dp553
sg131
Nsg25
g27
sg132
(lp554
I7
aI3
asg134
Nsg135
VMishnah Yevamot 7:3
p555
sg137
(lp556
sg139
g92
sg140
Nsg141
(lp557
I7
aI3
asg143
Nsg144
g555
sg145
(lp558
sg147
g58
sg148
Nsg149
Nsg150
Nsbag3
(g4
g5
NtRp559
(dp560
g8
g10
sg128
Nsg129
(dp561
sg131
Nsg25
g27
sg132
(lp562
I7
aI4
asg134
Nsg135
VMishnah Yevamot 7:4
p563
sg137
(lp564
sg139
g92
sg140
Nsg141
(lp565
I7
aI4
asg143
Nsg144
g563
sg145
(lp566
sg147
g58
sg148
Nsg149
Nsg150
Nsbag3
(g4
g5
NtRp567
(dp568
g8
g10
sg128
Nsg129
(dp569
sg131
Nsg25
g27
sg132
(lp570
I7
aI5
asg134
Nsg135
VMishnah Yevamot 7:5
p571
sg137
(lp572
sg139
g92
sg140
Nsg141
(lp573
I7
aI5
asg143
Nsg144
g571
sg145
(lp574
sg147
g58
sg148
Nsg149
Nsg150
Nsbag3
(g4
g5
NtRp575
(dp576
g8
g10
sg128
Nsg129
(dp577
sg131
Nsg25
g27
sg132
(lp578
I7
aI6
asg134
Nsg135
VMishnah Yevamot 7:6
p579
sg137
(lp580
sg139
g92
sg140
Nsg141
(lp581
I7
aI6
asg143
Nsg144
g579
sg145
(lp582
sg147
g58
sg148
Nsg149
Nsg150
Nsbag3
(g4
g5
NtRp583
(dp584
g8
g10
sg128
Nsg129
(dp585
sg131
Nsg25
g27
sg132
(lp586
I8
aI1
asg134
Nsg135
VMishnah Yevamot 8:1
p587
sg137
(lp588
sg139
g92
sg140
Nsg141
(lp589
I8
aI1
asg143
Nsg144
g587
sg145
(lp590
sg147
g58
sg148
Nsg149
Nsg150
Nsbag3
(g4
g5
NtRp591
(dp592
g8
g10
sg128
Nsg129
(dp593
sg131
Nsg25
g27
sg132
(lp594
I8
aI2
asg134
Nsg135
VMishnah Yevamot 8:2
p595
sg137
(lp596
sg139
g92
sg140
Nsg141
(lp597
I8
aI2
asg143
Nsg144
g595
sg145
(lp598
sg147
g58
sg148
Nsg149
Nsg150
Nsbag3
(g4
g5
NtRp599
(dp600
g8
g10
sg128
Nsg129
(dp601
sg131
Nsg25
g27
sg132
(lp602
I8
aI3
asg134
Nsg135
VMishnah Yevamot 8:3
p603
sg137
(lp604
sg139
g92
sg140
Nsg141
(lp605
I8
aI3
asg143
Nsg144
g603
sg145
(lp606
sg147
g58
sg148
Nsg149
Nsg150
Nsbag3
(g4
g5
NtRp607
(dp608
g8
g10
sg128
Nsg129
(dp609
sg131
Nsg25
g27
sg132
(lp610
I8
aI4
asg134
Nsg135
VMishnah Yevamot 8:4
p611
sg137
(lp612
sg139
g92
sg140
Nsg141
(lp613
I8
aI4
asg143
Nsg144
g611
sg145
(lp614
sg147
g58
sg148
Nsg149
Nsg150
Nsbag3
(g4
g5
NtRp615
(dp616
g8
g10
sg128
Nsg129
(dp617
sg131
Nsg25
g27
sg132
(lp618
I8
aI5
asg134
Nsg135
VMishnah Yevamot 8:5
p619
sg137
(lp620
sg139
g92
sg140
Nsg141
(lp621
I8
aI5
asg143
Nsg144
g619
sg145
(lp622
sg147
g58
sg148
Nsg149
Nsg150
Nsbag3
(g4
g5
NtRp623
(dp624
g8
g10
sg128
Nsg129
(dp625
sg131
Nsg25
g27
sg132
(lp626
I8
aI6
asg134
Nsg135
VMishnah Yevamot 8:6
p627
sg137
(lp628
sg139
g92
sg140
Nsg141
(lp629
I8
aI6
asg143
Nsg144
g627
sg145
(lp630
sg147
g58
sg148
Nsg149
Nsg150
Nsbag3
(g4
g5
NtRp631
(dp632
g8
g10
sg128
Nsg129
(dp633
sg131
Nsg25
g27
sg132
(lp634
I9
aI1
asg134
Nsg135
VMishnah Yevamot 9:1
p635
sg137
(lp636
sg139
g92
sg140
Nsg141
(lp637
I9
aI1
asg143
Nsg144
g635
sg145
(lp638
sg147
g58
sg148
Nsg149
Nsg150
Nsbag3
(g4
g5
NtRp639
(dp640
g8
g10
sg128
Nsg129
(dp641
sg131
Nsg25
g27
sg132
(lp642
I9
aI2
asg134
Nsg135
VMishnah Yevamot 9:2
p643
sg137
(lp644
sg139
g92
sg140
Nsg141
(lp645
I9
aI2
asg143
Nsg144
g643
sg145
(lp646
sg147
g58
sg148
Nsg149
Nsg150
Nsbag3
(g4
g5
NtRp647
(dp648
g8
g10
sg128
Nsg129
(dp649
sg131
Nsg25
g27
sg132
(lp650
I9
aI3
asg134
Nsg135
VMishnah Yevamot 9:3
p651
sg137
(lp652
sg139
g92
sg140
Nsg141
(lp653
I9
aI3
asg143
Nsg144
g651
sg145
(lp654
sg147
g58
sg148
Nsg149
Nsg150
Nsbag3
(g4
g5
NtRp655
(dp656
g8
g10
sg128
Nsg129
(dp657
sg131
Nsg25
g27
sg132
(lp658
I9
aI4
asg134
Nsg135
VMishnah Yevamot 9:4
p659
sg137
(lp660
sg139
g92
sg140
Nsg141
(lp661
I9
aI4
asg143
Nsg144
g659
sg145
(lp662
sg147
g58
sg148
Nsg149
Nsg150
Nsbag3
(g4
g5
NtRp663
(dp664
g8
g10
sg128
Nsg129
(dp665
sg131
Nsg25
g27
sg132
(lp666
I9
aI5
asg134
Nsg135
VMishnah Yevamot 9:5
p667
sg137
(lp668
sg139
g92
sg140
Nsg141
(lp669
I9
aI5
asg143
Nsg144
g667
sg145
(lp670
sg147
g58
sg148
Nsg149
Nsg150
Nsbag3
(g4
g5
NtRp671
(dp672
g8
g10
sg128
Nsg129
(dp673
sg131
Nsg25
g27
sg132
(lp674
I9
aI6
asg134
Nsg135
VMishnah Yevamot 9:6
p675
sg137
(lp676
sg139
g92
sg140
Nsg141
(lp677
I9
aI6
asg143
Nsg144
g675
sg145
(lp678
sg147
g58
sg148
Nsg149
Nsg150
Nsbag3
(g4
g5
NtRp679
(dp680
g8
g10
sg128
Nsg129
(dp681
sg131
Nsg25
g27
sg132
(lp682
I10
aI1
asg134
Nsg135
VMishnah Yevamot 10:1
p683
sg137
(lp684
sg139
g92
sg140
Nsg141
(lp685
I10
aI1
asg143
Nsg144
g683
sg145
(lp686
sg147
g58
sg148
Nsg149
Nsg150
Nsbag3
(g4
g5
NtRp687
(dp688
g8
g10
sg128
Nsg129
(dp689
sg131
Nsg25
g27
sg132
(lp690
I10
aI2
asg134
Nsg135
VMishnah Yevamot 10:2
p691
sg137
(lp692
sg139
g92
sg140
Nsg141
(lp693
I10
aI2
asg143
Nsg144
g691
sg145
(lp694
sg147
g58
sg148
Nsg149
Nsg150
Nsbag3
(g4
g5
NtRp695
(dp696
g8
g10
sg128
Nsg129
(dp697
sg131
Nsg25
g27
sg132
(lp698
I10
aI3
asg134
Nsg135
VMishnah Yevamot 10:3
p699
sg137
(lp700
sg139
g92
sg140
Nsg141
(lp701
I10
aI3
asg143
Nsg144
g699
sg145
(lp702
sg147
g58
sg148
Nsg149
Nsg150
Nsbag3
(g4
g5
NtRp703
(dp704
g8
g10
sg128
Nsg129
(dp705
sg131
Nsg25
g27
sg132
(lp706
I10
aI4
asg134
Nsg135
VMishnah Yevamot 10:4
p707
sg137
(lp708
sg139
g92
sg140
Nsg141
(lp709
I10
aI4
asg143
Nsg144
g707
sg145
(lp710
sg147
g58
sg148
Nsg149
Nsg150
Nsbag3
(g4
g5
NtRp711
(dp712
g8
g10
sg128
Nsg129
(dp713
sg131
Nsg25
g27
sg132
(lp714
I10
aI5
asg134
Nsg135
VMishnah Yevamot 10:5
p715
sg137
(lp716
sg139
g92
sg140
Nsg141
(lp717
I10
aI5
asg143
Nsg144
g715
sg145
(lp718
sg147
g58
sg148
Nsg149
Nsg150
Nsbag3
(g4
g5
NtRp719
(dp720
g8
g10
sg128
Nsg129
(dp721
sg131
Nsg25
g27
sg132
(lp722
I10
aI6
asg134
Nsg135
VMishnah Yevamot 10:6
p723
sg137
(lp724
sg139
g92
sg140
Nsg141
(lp725
I10
aI6
asg143
Nsg144
g723
sg145
(lp726
sg147
g58
sg148
Nsg149
Nsg150
Nsbag3
(g4
g5
NtRp727
(dp728
g8
g10
sg128
Nsg129
(dp729
sg131
Nsg25
g27
sg132
(lp730
I10
aI7
asg134
Nsg135
VMishnah Yevamot 10:7
p731
sg137
(lp732
sg139
g92
sg140
Nsg141
(lp733
I10
aI7
asg143
Nsg144
g731
sg145
(lp734
sg147
g58
sg148
Nsg149
Nsg150
Nsbag3
(g4
g5
NtRp735
(dp736
g8
g10
sg128
Nsg129
(dp737
sg131
Nsg25
g27
sg132
(lp738
I10
aI8
asg134
Nsg135
VMishnah Yevamot 10:8
p739
sg137
(lp740
sg139
g92
sg140
Nsg141
(lp741
I10
aI8
asg143
Nsg144
g739
sg145
(lp742
sg147
g58
sg148
Nsg149
Nsg150
Nsbag3
(g4
g5
NtRp743
(dp744
g8
g10
sg128
Nsg129
(dp745
sg131
Nsg25
g27
sg132
(lp746
I10
aI9
asg134
Nsg135
VMishnah Yevamot 10:9
p747
sg137
(lp748
sg139
g92
sg140
Nsg141
(lp749
I10
aI9
asg143
Nsg144
g747
sg145
(lp750
sg147
g58
sg148
Nsg149
Nsg150
Nsbag3
(g4
g5
NtRp751
(dp752
g8
g10
sg128
Nsg129
(dp753
sg131
Nsg25
g27
sg132
(lp754
I11
aI1
asg134
Nsg135
VMishnah Yevamot 11:1
p755
sg137
(lp756
sg139
g92
sg140
Nsg141
(lp757
I11
aI1
asg143
Nsg144
g755
sg145
(lp758
sg147
g58
sg148
Nsg149
Nsg150
Nsbag3
(g4
g5
NtRp759
(dp760
g8
g10
sg128
Nsg129
(dp761
sg131
Nsg25
g27
sg132
(lp762
I11
aI2
asg134
Nsg135
VMishnah Yevamot 11:2
p763
sg137
(lp764
sg139
g92
sg140
Nsg141
(lp765
I11
aI2
asg143
Nsg144
g763
sg145
(lp766
sg147
g58
sg148
Nsg149
Nsg150
Nsbag3
(g4
g5
NtRp767
(dp768
g8
g10
sg128
Nsg129
(dp769
sg131
Nsg25
g27
sg132
(lp770
I11
aI3
asg134
Nsg135
VMishnah Yevamot 11:3
p771
sg137
(lp772
sg139
g92
sg140
Nsg141
(lp773
I11
aI3
asg143
Nsg144
g771
sg145
(lp774
sg147
g58
sg148
Nsg149
Nsg150
Nsbag3
(g4
g5
NtRp775
(dp776
g8
g10
sg128
Nsg129
(dp777
sg131
Nsg25
g27
sg132
(lp778
I11
aI4
asg134
Nsg135
VMishnah Yevamot 11:4
p779
sg137
(lp780
sg139
g92
sg140
Nsg141
(lp781
I11
aI4
asg143
Nsg144
g779
sg145
(lp782
sg147
g58
sg148
Nsg149
Nsg150
Nsbag3
(g4
g5
NtRp783
(dp784
g8
g10
sg128
Nsg129
(dp785
sg131
Nsg25
g27
sg132
(lp786
I11
aI5
asg134
Nsg135
VMishnah Yevamot 11:5
p787
sg137
(lp788
sg139
g92
sg140
Nsg141
(lp789
I11
aI5
asg143
Nsg144
g787
sg145
(lp790
sg147
g58
sg148
Nsg149
Nsg150
Nsbag3
(g4
g5
NtRp791
(dp792
g8
g10
sg128
Nsg129
(dp793
sg131
Nsg25
g27
sg132
(lp794
I11
aI6
asg134
Nsg135
VMishnah Yevamot 11:6
p795
sg137
(lp796
sg139
g92
sg140
Nsg141
(lp797
I11
aI6
asg143
Nsg144
g795
sg145
(lp798
sg147
g58
sg148
Nsg149
Nsg150
Nsbag3
(g4
g5
NtRp799
(dp800
g8
g10
sg128
Nsg129
(dp801
sg131
Nsg25
g27
sg132
(lp802
I11
aI7
asg134
Nsg135
VMishnah Yevamot 11:7
p803
sg137
(lp804
sg139
g92
sg140
Nsg141
(lp805
I11
aI7
asg143
Nsg144
g803
sg145
(lp806
sg147
g58
sg148
Nsg149
Nsg150
Nsbag3
(g4
g5
NtRp807
(dp808
g8
g10
sg128
Nsg129
(dp809
sg131
Nsg25
g27
sg132
(lp810
I12
aI1
asg134
Nsg135
VMishnah Yevamot 12:1
p811
sg137
(lp812
sg139
g92
sg140
Nsg141
(lp813
I12
aI1
asg143
Nsg144
g811
sg145
(lp814
sg147
g58
sg148
Nsg149
Nsg150
Nsbag3
(g4
g5
NtRp815
(dp816
g8
g10
sg128
Nsg129
(dp817
sg131
Nsg25
g27
sg132
(lp818
I12
aI2
asg134
Nsg135
VMishnah Yevamot 12:2
p819
sg137
(lp820
sg139
g92
sg140
Nsg141
(lp821
I12
aI2
asg143
Nsg144
g819
sg145
(lp822
sg147
g58
sg148
Nsg149
Nsg150
Nsbag3
(g4
g5
NtRp823
(dp824
g8
g10
sg128
Nsg129
(dp825
sg131
Nsg25
g27
sg132
(lp826
I12
aI3
asg134
Nsg135
VMishnah Yevamot 12:3
p827
sg137
(lp828
sg139
g92
sg140
Nsg141
(lp829
I12
aI3
asg143
Nsg144
g827
sg145
(lp830
sg147
g58
sg148
Nsg149
Nsg150
Nsbag3
(g4
g5
NtRp831
(dp832
g8
g10
sg128
Nsg129
(dp833
sg131
Nsg25
g27
sg132
(lp834
I12
aI4
asg134
Nsg135
VMishnah Yevamot 12:4
p835
sg137
(lp836
sg139
g92
sg140
Nsg141
(lp837
I12
aI4
asg143
Nsg144
g835
sg145
(lp838
sg147
g58
sg148
Nsg149
Nsg150
Nsbag3
(g4
g5
NtRp839
(dp840
g8
g10
sg128
Nsg129
(dp841
sg131
Nsg25
g27
sg132
(lp842
I12
aI5
asg134
Nsg135
VMishnah Yevamot 12:5
p843
sg137
(lp844
sg139
g92
sg140
Nsg141
(lp845
I12
aI5
asg143
Nsg144
g843
sg145
(lp846
sg147
g58
sg148
Nsg149
Nsg150
Nsbag3
(g4
g5
NtRp847
(dp848
g8
g10
sg128
Nsg129
(dp849
sg131
Nsg25
g27
sg132
(lp850
I12
aI6
asg134
Nsg135
VMishnah Yevamot 12:6
p851
sg137
(lp852
sg139
g92
sg140
Nsg141
(lp853
I12
aI6
asg143
Nsg144
g851
sg145
(lp854
sg147
g58
sg148
Nsg149
Nsg150
Nsbag3
(g4
g5
NtRp855
(dp856
g8
g10
sg128
Nsg129
(dp857
sg131
Nsg25
g27
sg132
(lp858
I13
aI1
asg134
Nsg135
VMishnah Yevamot 13:1
p859
sg137
(lp860
sg139
g92
sg140
Nsg141
(lp861
I13
aI1
asg143
Nsg144
g859
sg145
(lp862
sg147
g58
sg148
Nsg149
Nsg150
Nsbag3
(g4
g5
NtRp863
(dp864
g8
g10
sg128
Nsg129
(dp865
sg131
Nsg25
g27
sg132
(lp866
I13
aI2
asg134
Nsg135
VMishnah Yevamot 13:2
p867
sg137
(lp868
sg139
g92
sg140
Nsg141
(lp869
I13
aI2
asg143
Nsg144
g867
sg145
(lp870
sg147
g58
sg148
Nsg149
Nsg150
Nsbag3
(g4
g5
NtRp871
(dp872
g8
g10
sg128
Nsg129
(dp873
sg131
Nsg25
g27
sg132
(lp874
I13
aI3
asg134
Nsg135
VMishnah Yevamot 13:3
p875
sg137
(lp876
sg139
g92
sg140
Nsg141
(lp877
I13
aI3
asg143
Nsg144
g875
sg145
(lp878
sg147
g58
sg148
Nsg149
Nsg150
Nsbag3
(g4
g5
NtRp879
(dp880
g8
g10
sg128
Nsg129
(dp881
sg131
Nsg25
g27
sg132
(lp882
I13
aI4
asg134
Nsg135
VMishnah Yevamot 13:4
p883
sg137
(lp884
sg139
g92
sg140
Nsg141
(lp885
I13
aI4
asg143
Nsg144
g883
sg145
(lp886
sg147
g58
sg148
Nsg149
Nsg150
Nsbag3
(g4
g5
NtRp887
(dp888
g8
g10
sg128
Nsg129
(dp889
sg131
Nsg25
g27
sg132
(lp890
I13
aI5
asg134
Nsg135
VMishnah Yevamot 13:5
p891
sg137
(lp892
sg139
g92
sg140
Nsg141
(lp893
I13
aI5
asg143
Nsg144
g891
sg145
(lp894
sg147
g58
sg148
Nsg149
Nsg150
Nsbag3
(g4
g5
NtRp895
(dp896
g8
g10
sg128
Nsg129
(dp897
sg131
Nsg25
g27
sg132
(lp898
I13
aI6
asg134
Nsg135
VMishnah Yevamot 13:6
p899
sg137
(lp900
sg139
g92
sg140
Nsg141
(lp901
I13
aI6
asg143
Nsg144
g899
sg145
(lp902
sg147
g58
sg148
Nsg149
Nsg150
Nsbag3
(g4
g5
NtRp903
(dp904
g8
g10
sg128
Nsg129
(dp905
sg131
Nsg25
g27
sg132
(lp906
I13
aI7
asg134
Nsg135
VMishnah Yevamot 13:7
p907
sg137
(lp908
sg139
g92
sg140
Nsg141
(lp909
I13
aI7
asg143
Nsg144
g907
sg145
(lp910
sg147
g58
sg148
Nsg149
Nsg150
Nsbag3
(g4
g5
NtRp911
(dp912
g8
g10
sg128
Nsg129
(dp913
sg131
Nsg25
g27
sg132
(lp914
I13
aI8
asg134
Nsg135
VMishnah Yevamot 13:8
p915
sg137
(lp916
sg139
g92
sg140
Nsg141
(lp917
I13
aI8
asg143
Nsg144
g915
sg145
(lp918
sg147
g58
sg148
Nsg149
Nsg150
Nsbag3
(g4
g5
NtRp919
(dp920
g8
g10
sg128
Nsg129
(dp921
sg131
Nsg25
g27
sg132
(lp922
I13
aI9
asg134
Nsg135
VMishnah Yevamot 13:9
p923
sg137
(lp924
sg139
g92
sg140
Nsg141
(lp925
I13
aI9
asg143
Nsg144
g923
sg145
(lp926
sg147
g58
sg148
Nsg149
Nsg150
Nsbag3
(g4
g5
NtRp927
(dp928
g8
g10
sg128
Nsg129
(dp929
sg131
Nsg25
g27
sg132
(lp930
I13
aI10
asg134
Nsg135
VMishnah Yevamot 13:10
p931
sg137
(lp932
sg139
g92
sg140
Nsg141
(lp933
I13
aI10
asg143
Nsg144
g931
sg145
(lp934
sg147
g58
sg148
Nsg149
Nsg150
Nsbag3
(g4
g5
NtRp935
(dp936
g8
g10
sg128
Nsg129
(dp937
sg131
Nsg25
g27
sg132
(lp938
I13
aI11
asg134
Nsg135
VMishnah Yevamot 13:11
p939
sg137
(lp940
sg139
g92
sg140
Nsg141
(lp941
I13
aI11
asg143
Nsg144
g939
sg145
(lp942
sg147
g58
sg148
Nsg149
Nsg150
Nsbag3
(g4
g5
NtRp943
(dp944
g8
g10
sg128
Nsg129
(dp945
sg131
Nsg25
g27
sg132
(lp946
I13
aI12
asg134
Nsg135
VMishnah Yevamot 13:12
p947
sg137
(lp948
sg139
g92
sg140
Nsg141
(lp949
I13
aI12
asg143
Nsg144
g947
sg145
(lp950
sg147
g58
sg148
Nsg149
Nsg150
Nsbag3
(g4
g5
NtRp951
(dp952
g8
g10
sg128
Nsg129
(dp953
sg131
Nsg25
g27
sg132
(lp954
I13
aI13
asg134
Nsg135
VMishnah Yevamot 13:13
p955
sg137
(lp956
sg139
g92
sg140
Nsg141
(lp957
I13
aI13
asg143
Nsg144
g955
sg145
(lp958
sg147
g58
sg148
Nsg149
Nsg150
Nsbag3
(g4
g5
NtRp959
(dp960
g8
g10
sg128
Nsg129
(dp961
sg131
Nsg25
g27
sg132
(lp962
I14
aI1
asg134
Nsg135
VMishnah Yevamot 14:1
p963
sg137
(lp964
sg139
g92
sg140
Nsg141
(lp965
I14
aI1
asg143
Nsg144
g963
sg145
(lp966
sg147
g58
sg148
Nsg149
Nsg150
Nsbag3
(g4
g5
NtRp967
(dp968
g8
g10
sg128
Nsg129
(dp969
sg131
Nsg25
g27
sg132
(lp970
I14
aI2
asg134
Nsg135
VMishnah Yevamot 14:2
p971
sg137
(lp972
sg139
g92
sg140
Nsg141
(lp973
I14
aI2
asg143
Nsg144
g971
sg145
(lp974
sg147
g58
sg148
Nsg149
Nsg150
Nsbag3
(g4
g5
NtRp975
(dp976
g8
g10
sg128
Nsg129
(dp977
sg131
Nsg25
g27
sg132
(lp978
I14
aI3
asg134
Nsg135
VMishnah Yevamot 14:3
p979
sg137
(lp980
sg139
g92
sg140
Nsg141
(lp981
I14
aI3
asg143
Nsg144
g979
sg145
(lp982
sg147
g58
sg148
Nsg149
Nsg150
Nsbag3
(g4
g5
NtRp983
(dp984
g8
g10
sg128
Nsg129
(dp985
sg131
Nsg25
g27
sg132
(lp986
I14
aI4
asg134
Nsg135
VMishnah Yevamot 14:4
p987
sg137
(lp988
sg139
g92
sg140
Nsg141
(lp989
I14
aI4
asg143
Nsg144
g987
sg145
(lp990
sg147
g58
sg148
Nsg149
Nsg150
Nsbag3
(g4
g5
NtRp991
(dp992
g8
g10
sg128
Nsg129
(dp993
sg131
Nsg25
g27
sg132
(lp994
I15
aI1
asg134
Nsg135
VMishnah Yevamot 15:1
p995
sg137
(lp996
sg139
g92
sg140
Nsg141
(lp997
I15
aI1
asg143
Nsg144
g995
sg145
(lp998
sg147
g58
sg148
Nsg149
Nsg150
Nsbag3
(g4
g5
NtRp999
(dp1000
g8
g10
sg128
Nsg129
(dp1001
sg131
Nsg25
g27
sg132
(lp1002
I15
aI2
asg134
Nsg135
VMishnah Yevamot 15:2
p1003
sg137
(lp1004
sg139
g92
sg140
Nsg141
(lp1005
I15
aI2
asg143
Nsg144
g1003
sg145
(lp1006
sg147
g58
sg148
Nsg149
Nsg150
Nsbag3
(g4
g5
NtRp1007
(dp1008
g8
g10
sg128
Nsg129
(dp1009
sg131
Nsg25
g27
sg132
(lp1010
I15
aI3
asg134
Nsg135
VMishnah Yevamot 15:3
p1011
sg137
(lp1012
sg139
g92
sg140
Nsg141
(lp1013
I15
aI3
asg143
Nsg144
g1011
sg145
(lp1014
sg147
g58
sg148
Nsg149
Nsg150
Nsbag3
(g4
g5
NtRp1015
(dp1016
g8
g10
sg128
Nsg129
(dp1017
sg131
Nsg25
g27
sg132
(lp1018
I15
aI4
asg134
Nsg135
VMishnah Yevamot 15:4
p1019
sg137
(lp1020
sg139
g92
sg140
Nsg141
(lp1021
I15
aI4
asg143
Nsg144
g1019
sg145
(lp1022
sg147
g58
sg148
Nsg149
Nsg150
Nsbag3
(g4
g5
NtRp1023
(dp1024
g8
g10
sg128
Nsg129
(dp1025
sg131
Nsg25
g27
sg132
(lp1026
I15
aI5
asg134
Nsg135
VMishnah Yevamot 15:5
p1027
sg137
(lp1028
sg139
g92
sg140
Nsg141
(lp1029
I15
aI5
asg143
Nsg144
g1027
sg145
(lp1030
sg147
g58
sg148
Nsg149
Nsg150
Nsbag3
(g4
g5
NtRp1031
(dp1032
g8
g10
sg128
Nsg129
(dp1033
sg131
Nsg25
g27
sg132
(lp1034
I15
aI6
asg134
Nsg135
VMishnah Yevamot 15:6
p1035
sg137
(lp1036
sg139
g92
sg140
Nsg141
(lp1037
I15
aI6
asg143
Nsg144
g1035
sg145
(lp1038
sg147
g58
sg148
Nsg149
Nsg150
Nsbag3
(g4
g5
NtRp1039
(dp1040
g8
g10
sg128
Nsg129
(dp1041
sg131
Nsg25
g27
sg132
(lp1042
I15
aI7
asg134
Nsg135
VMishnah Yevamot 15:7
p1043
sg137
(lp1044
sg139
g92
sg140
Nsg141
(lp1045
I15
aI7
asg143
Nsg144
g1043
sg145
(lp1046
sg147
g58
sg148
Nsg149
Nsg150
Nsbag3
(g4
g5
NtRp1047
(dp1048
g8
g10
sg128
Nsg129
(dp1049
sg131
Nsg25
g27
sg132
(lp1050
I15
aI8
asg134
Nsg135
VMishnah Yevamot 15:8
p1051
sg137
(lp1052
sg139
g92
sg140
Nsg141
(lp1053
I15
aI8
asg143
Nsg144
g1051
sg145
(lp1054
sg147
g58
sg148
Nsg149
Nsg150
Nsbag3
(g4
g5
NtRp1055
(dp1056
g8
g10
sg128
Nsg129
(dp1057
sg131
Nsg25
g27
sg132
(lp1058
I15
aI9
asg134
Nsg135
VMishnah Yevamot 15:9
p1059
sg137
(lp1060
sg139
g92
sg140
Nsg141
(lp1061
I15
aI9
asg143
Nsg144
g1059
sg145
(lp1062
sg147
g58
sg148
Nsg149
Nsg150
Nsbag3
(g4
g5
NtRp1063
(dp1064
g8
g10
sg128
Nsg129
(dp1065
sg131
Nsg25
g27
sg132
(lp1066
I15
aI10
asg134
Nsg135
VMishnah Yevamot 15:10
p1067
sg137
(lp1068
sg139
g92
sg140
Nsg141
(lp1069
I15
aI10
asg143
Nsg144
g1067
sg145
(lp1070
sg147
g58
sg148
Nsg149
Nsg150
Nsbag3
(g4
g5
NtRp1071
(dp1072
g8
g10
sg128
Nsg129
(dp1073
sg131
Nsg25
g27
sg132
(lp1074
I16
aI1
asg134
Nsg135
VMishnah Yevamot 16:1
p1075
sg137
(lp1076
sg139
g92
sg140
Nsg141
(lp1077
I16
aI1
asg143
Nsg144
g1075
sg145
(lp1078
sg147
g58
sg148
Nsg149
Nsg150
Nsbag3
(g4
g5
NtRp1079
(dp1080
g8
g10
sg128
Nsg129
(dp1081
sg131
Nsg25
g27
sg132
(lp1082
I16
aI2
asg134
Nsg135
VMishnah Yevamot 16:2
p1083
sg137
(lp1084
sg139
g92
sg140
Nsg141
(lp1085
I16
aI2
asg143
Nsg144
g1083
sg145
(lp1086
sg147
g58
sg148
Nsg149
Nsg150
Nsbag3
(g4
g5
NtRp1087
(dp1088
g8
g10
sg128
Nsg129
(dp1089
sg131
Nsg25
g27
sg132
(lp1090
I16
aI3
asg134
Nsg135
VMishnah Yevamot 16:3
p1091
sg137
(lp1092
sg139
g92
sg140
Nsg141
(lp1093
I16
aI3
asg143
Nsg144
g1091
sg145
(lp1094
sg147
g58
sg148
Nsg149
Nsg150
Nsbag3
(g4
g5
NtRp1095
(dp1096
g8
g10
sg128
Nsg129
(dp1097
sg131
Nsg25
g27
sg132
(lp1098
I16
aI4
asg134
Nsg135
VMishnah Yevamot 16:4
p1099
sg137
(lp1100
sg139
g92
sg140
Nsg141
(lp1101
I16
aI4
asg143
Nsg144
g1099
sg145
(lp1102
sg147
g58
sg148
Nsg149
Nsg150
Nsbag3
(g4
g5
NtRp1103
(dp1104
g8
g10
sg128
Nsg129
(dp1105
sg131
Nsg25
g27
sg132
(lp1106
I16
aI5
asg134
Nsg135
VMishnah Yevamot 16:5
p1107
sg137
(lp1108
sg139
g92
sg140
Nsg141
(lp1109
I16
aI5
asg143
Nsg144
g1107
sg145
(lp1110
sg147
g58
sg148
Nsg149
Nsg150
Nsbag3
(g4
g5
NtRp1111
(dp1112
g8
g10
sg128
Nsg129
(dp1113
sg131
Nsg25
g27
sg132
(lp1114
I16
aI6
asg134
Nsg135
VMishnah Yevamot 16:6
p1115
sg137
(lp1116
sg139
g92
sg140
Nsg141
(lp1117
I16
aI6
asg143
Nsg144
g1115
sg145
(lp1118
sg147
g58
sg148
Nsg149
Nsg150
Nsbag3
(g4
g5
NtRp1119
(dp1120
g8
g10
sg128
Nsg129
(dp1121
sg131
Nsg25
g27
sg132
(lp1122
I16
aI7
asg134
Nsg135
VMishnah Yevamot 16:7
p1123
sg137
(lp1124
sg139
g92
sg140
Nsg141
(lp1125
I16
aI7
asg143
Nsg144
g1123
sg145
(lp1126
sg147
g58
sg148
Nsg149
Nsg150
NsbaI6429
t.