((lp1
I0
aI46
aI75
aI109
aI124
aI164
aI197
aI260
aI278
aI305
aI361
aI422
aI465
aI545
aI570
aI615
aI642
aI684
aI726
aI751
aI764
aI820
aI881
aI924
aI967
aI1050
aI1098
aI1126
aI1176
aI1256
aI1303
aI1326
aI1410
aI1431
aI1472
aI1501
aI1529
aI1559
aI1607
aI1635
aI1680
aI1699
aI1769
aI1811
aI1840
aI1889
aI1908
a(lp2
ccopy_reg
_reconstructor
p3
(csefaria.model.text
Ref
p4
c__builtin__
object
p5
NtRp6
(dp7
S'index_node'
p8
g3
(csefaria.model.schema
JaggedArrayNode
p9
g5
NtRp10
(dp11
S'_address'
p12
(lp13
VMishnah Kiddushin
p14
asS'_full_titles'
p15
(dp16
sVnodeType
p17
VJaggedArrayNode
p18
sS'parent'
p19
NsVaddressTypes
p20
(lp21
VPerek
p22
aVMishnah
p23
asS'default'
p24
I00
sS'index'
p25
g3
(csefaria.model.text
Index
p26
g5
NtRp27
(dp28
S'_id'
p29
g3
(cbson.objectid
ObjectId
p30
g5
NtRp31
S'NJ\xb8\x8f\xed\xba\xb4X3\x00\x00D'
p32
bsS'pkeys_orig_values'
p33
(dp34
S'title'
p35
VMishnah Kiddushin
p36
ssS'pubDate'
p37
V1492
p38
sS'compDate'
p39
V210
p40
sS'pubPlace'
p41
VNaples
p42
sS'compPlace'
p43
VTalmudic Israel
p44
sS'enDesc'
p45
VThe Mishnah is the first major written redaction of the Jewish oral traditions known as the Oral Torah. The Mishnah was redacted by Rabbi Yehudah Ha-Nasi before his death around 217 CE, in a time when, according to the Talmud, the persecution of the Jews and the passage of time raised the possibility that the details of the oral traditions of the Pharisees from the Second Temple period (536 BCE \u2013 70 CE) would be forgotten. The majority of the Mishnah is written in Mishnaic Hebrew, while some parts are Aramaic. The Mishnah consists of six orders (sedarim, singular seder), each containing 7\u201312 tractates (masekhtot, singular masekhet), numbering 63 in total and further subdivided into chapters and paragraphs or verses. The word Mishnah can also indicate a single paragraph or a verse of the work itself, i.e. the smallest unit of structure in the Mishnah. For this reason the whole work is sometimes called by the plural, Mishnayot. Kiddushin (Documents) belongs to the third order, Nashim (Women) and discusses the initial stage of marriage \u2013 betrothal, as well as the laws of Jewish lineages. It has four chapters.
p46
sS'order'
p47
(lp48
I30
aI7
asS'era'
p49
VT
sS'struct_objs'
p50
(dp51
sS'nodes'
p52
g10
sS'errorMargin'
p53
V20
p54
sS'_title'
p55
g36
sS'categories'
p56
(lp57
VMishnah
p58
aVSeder Nashim
p59
asS'schema'
p60
(dp61
g17
g18
sg20
g21
sVlengths
p62
(lp63
I4
aI47
asVdepth
p64
I2
sVtitles
p65
(lp66
(dp67
Vlang
p68
Ven
p69
sVtext
p70
VM. Kiddushin
p71
sa(dp72
Vlang
p73
Ven
p74
sVtext
p75
VMishna Kiddushin
p76
sa(dp77
Vlang
p78
Ven
p79
sVtext
p80
VM Kiddushin
p81
sa(dp82
Vlang
p83
Vhe
p84
sVtext
p85
V\u05de\u05e9\u05e0\u05d4 \u05e7\u05d9\u05d3\u05d5\u05e9\u05d9\u05df
p86
sVprimary
p87
I01
sa(dp88
Vlang
p89
Ven
p90
sVtext
p91
VMishnah Kiddushin
p92
sVprimary
p93
I01
sasVkey
p94
g14
sVsectionNames
p95
(lp96
VChapter
p97
aVMishna
p98
assbsS'_primary_title'
p99
(dp100
sS'title_group'
p101
g3
(csefaria.model.schema
TitleGroup
p102
g5
NtRp103
(dp104
g99
(dp105
S'en'
p106
g92
ssS'titles'
p107
g66
sbsS'_addressTypes'
p108
(lp109
g3
(csefaria.model.schema
AddressPerek
p110
g5
NtRp111
(dp112
S'length'
p113
I4
sg47
I0
sbag3
(csefaria.model.schema
AddressMishnah
p114
g5
NtRp115
(dp116
g113
Nsg47
I1
sbasS'sharedTitle'
p117
Nsg62
g63
sg64
I2
sS'_full_title'
p118
(dp119
g106
g92
ssS'key'
p120
g14
sS'checkFirst'
p121
NsS'_regexes'
p122
(dp123
sS'_leaf_nodes'
p124
(lp125
sg95
g96
sS'children'
p126
(lp127
sbsS'_range_index'
p128
NsS'_context'
p129
(dp130
sS'_padded'
p131
Nsg25
g27
sS'sections'
p132
(lp133
I1
aI1
asS'_first_spanned_ref'
p134
NsS'tref'
p135
VMishnah Kiddushin 1:1
p136
sS'_spanned_refs'
p137
(lp138
sS'book'
p139
g92
sS'_range_depth'
p140
NsS'toSections'
p141
(lp142
I1
aI1
asS'_url'
p143
NsS'_normal'
p144
g136
sS'_ranged_refs'
p145
(lp146
sS'type'
p147
g58
sS'_prev'
p148
NsS'_he_normal'
p149
NsS'_next'
p150
Nsbag3
(g4
g5
NtRp151
(dp152
g8
g10
sg128
Nsg129
(dp153
sg131
Nsg25
g27
sg132
(lp154
I1
aI2
asg134
Nsg135
VMishnah Kiddushin 1:2
p155
sg137
(lp156
sg139
g92
sg140
Nsg141
(lp157
I1
aI2
asg143
Nsg144
g155
sg145
(lp158
sg147
g58
sg148
Nsg149
Nsg150
Nsbag3
(g4
g5
NtRp159
(dp160
g8
g10
sg128
Nsg129
(dp161
sg131
Nsg25
g27
sg132
(lp162
I1
aI3
asg134
Nsg135
VMishnah Kiddushin 1:3
p163
sg137
(lp164
sg139
g92
sg140
Nsg141
(lp165
I1
aI3
asg143
Nsg144
g163
sg145
(lp166
sg147
g58
sg148
Nsg149
Nsg150
Nsbag3
(g4
g5
NtRp167
(dp168
g8
g10
sg128
Nsg129
(dp169
sg131
Nsg25
g27
sg132
(lp170
I1
aI4
asg134
Nsg135
VMishnah Kiddushin 1:4
p171
sg137
(lp172
sg139
g92
sg140
Nsg141
(lp173
I1
aI4
asg143
Nsg144
g171
sg145
(lp174
sg147
g58
sg148
Nsg149
Nsg150
Nsbag3
(g4
g5
NtRp175
(dp176
g8
g10
sg128
Nsg129
(dp177
sg131
Nsg25
g27
sg132
(lp178
I1
aI5
asg134
Nsg135
VMishnah Kiddushin 1:5
p179
sg137
(lp180
sg139
g92
sg140
Nsg141
(lp181
I1
aI5
asg143
Nsg144
g179
sg145
(lp182
sg147
g58
sg148
Nsg149
Nsg150
Nsbag3
(g4
g5
NtRp183
(dp184
g8
g10
sg128
Nsg129
(dp185
sg131
Nsg25
g27
sg132
(lp186
I1
aI6
asg134
Nsg135
VMishnah Kiddushin 1:6
p187
sg137
(lp188
sg139
g92
sg140
Nsg141
(lp189
I1
aI6
asg143
Nsg144
g187
sg145
(lp190
sg147
g58
sg148
Nsg149
Nsg150
Nsbag3
(g4
g5
NtRp191
(dp192
g8
g10
sg128
Nsg129
(dp193
sg131
Nsg25
g27
sg132
(lp194
I1
aI7
asg134
Nsg135
VMishnah Kiddushin 1:7
p195
sg137
(lp196
sg139
g92
sg140
Nsg141
(lp197
I1
aI7
asg143
Nsg144
g195
sg145
(lp198
sg147
g58
sg148
Nsg149
Nsg150
Nsbag3
(g4
g5
NtRp199
(dp200
g8
g10
sg128
Nsg129
(dp201
sg131
Nsg25
g27
sg132
(lp202
I1
aI8
asg134
Nsg135
VMishnah Kiddushin 1:8
p203
sg137
(lp204
sg139
g92
sg140
Nsg141
(lp205
I1
aI8
asg143
Nsg144
g203
sg145
(lp206
sg147
g58
sg148
Nsg149
Nsg150
Nsbag3
(g4
g5
NtRp207
(dp208
g8
g10
sg128
Nsg129
(dp209
sg131
Nsg25
g27
sg132
(lp210
I1
aI9
asg134
Nsg135
VMishnah Kiddushin 1:9
p211
sg137
(lp212
sg139
g92
sg140
Nsg141
(lp213
I1
aI9
asg143
Nsg144
g211
sg145
(lp214
sg147
g58
sg148
Nsg149
Nsg150
Nsbag3
(g4
g5
NtRp215
(dp216
g8
g10
sg128
Nsg129
(dp217
sg131
Nsg25
g27
sg132
(lp218
I1
aI10
asg134
Nsg135
VMishnah Kiddushin 1:10
p219
sg137
(lp220
sg139
g92
sg140
Nsg141
(lp221
I1
aI10
asg143
Nsg144
g219
sg145
(lp222
sg147
g58
sg148
Nsg149
Nsg150
Nsbag3
(g4
g5
NtRp223
(dp224
g8
g10
sg128
Nsg129
(dp225
sg131
Nsg25
g27
sg132
(lp226
I2
aI1
asg134
Nsg135
VMishnah Kiddushin 2:1
p227
sg137
(lp228
sg139
g92
sg140
Nsg141
(lp229
I2
aI1
asg143
Nsg144
g227
sg145
(lp230
sg147
g58
sg148
Nsg149
Nsg150
Nsbag3
(g4
g5
NtRp231
(dp232
g8
g10
sg128
Nsg129
(dp233
sg131
Nsg25
g27
sg132
(lp234
I2
aI2
asg134
Nsg135
VMishnah Kiddushin 2:2
p235
sg137
(lp236
sg139
g92
sg140
Nsg141
(lp237
I2
aI2
asg143
Nsg144
g235
sg145
(lp238
sg147
g58
sg148
Nsg149
Nsg150
Nsbag3
(g4
g5
NtRp239
(dp240
g8
g10
sg128
Nsg129
(dp241
sg131
Nsg25
g27
sg132
(lp242
I2
aI3
asg134
Nsg135
VMishnah Kiddushin 2:3
p243
sg137
(lp244
sg139
g92
sg140
Nsg141
(lp245
I2
aI3
asg143
Nsg144
g243
sg145
(lp246
sg147
g58
sg148
Nsg149
Nsg150
Nsbag3
(g4
g5
NtRp247
(dp248
g8
g10
sg128
Nsg129
(dp249
sg131
Nsg25
g27
sg132
(lp250
I2
aI4
asg134
Nsg135
VMishnah Kiddushin 2:4
p251
sg137
(lp252
sg139
g92
sg140
Nsg141
(lp253
I2
aI4
asg143
Nsg144
g251
sg145
(lp254
sg147
g58
sg148
Nsg149
Nsg150
Nsbag3
(g4
g5
NtRp255
(dp256
g8
g10
sg128
Nsg129
(dp257
sg131
Nsg25
g27
sg132
(lp258
I2
aI5
asg134
Nsg135
VMishnah Kiddushin 2:5
p259
sg137
(lp260
sg139
g92
sg140
Nsg141
(lp261
I2
aI5
asg143
Nsg144
g259
sg145
(lp262
sg147
g58
sg148
Nsg149
Nsg150
Nsbag3
(g4
g5
NtRp263
(dp264
g8
g10
sg128
Nsg129
(dp265
sg131
Nsg25
g27
sg132
(lp266
I2
aI6
asg134
Nsg135
VMishnah Kiddushin 2:6
p267
sg137
(lp268
sg139
g92
sg140
Nsg141
(lp269
I2
aI6
asg143
Nsg144
g267
sg145
(lp270
sg147
g58
sg148
Nsg149
Nsg150
Nsbag3
(g4
g5
NtRp271
(dp272
g8
g10
sg128
Nsg129
(dp273
sg131
Nsg25
g27
sg132
(lp274
I2
aI7
asg134
Nsg135
VMishnah Kiddushin 2:7
p275
sg137
(lp276
sg139
g92
sg140
Nsg141
(lp277
I2
aI7
asg143
Nsg144
g275
sg145
(lp278
sg147
g58
sg148
Nsg149
Nsg150
Nsbag3
(g4
g5
NtRp279
(dp280
g8
g10
sg128
Nsg129
(dp281
sg131
Nsg25
g27
sg132
(lp282
I2
aI8
asg134
Nsg135
VMishnah Kiddushin 2:8
p283
sg137
(lp284
sg139
g92
sg140
Nsg141
(lp285
I2
aI8
asg143
Nsg144
g283
sg145
(lp286
sg147
g58
sg148
Nsg149
Nsg150
Nsbag3
(g4
g5
NtRp287
(dp288
g8
g10
sg128
Nsg129
(dp289
sg131
Nsg25
g27
sg132
(lp290
I2
aI9
asg134
Nsg135
VMishnah Kiddushin 2:9
p291
sg137
(lp292
sg139
g92
sg140
Nsg141
(lp293
I2
aI9
asg143
Nsg144
g291
sg145
(lp294
sg147
g58
sg148
Nsg149
Nsg150
Nsbag3
(g4
g5
NtRp295
(dp296
g8
g10
sg128
Nsg129
(dp297
sg131
Nsg25
g27
sg132
(lp298
I2
aI10
asg134
Nsg135
VMishnah Kiddushin 2:10
p299
sg137
(lp300
sg139
g92
sg140
Nsg141
(lp301
I2
aI10
asg143
Nsg144
g299
sg145
(lp302
sg147
g58
sg148
Nsg149
Nsg150
Nsbag3
(g4
g5
NtRp303
(dp304
g8
g10
sg128
Nsg129
(dp305
sg131
Nsg25
g27
sg132
(lp306
I3
aI1
asg134
Nsg135
VMishnah Kiddushin 3:1
p307
sg137
(lp308
sg139
g92
sg140
Nsg141
(lp309
I3
aI1
asg143
Nsg144
g307
sg145
(lp310
sg147
g58
sg148
Nsg149
Nsg150
Nsbag3
(g4
g5
NtRp311
(dp312
g8
g10
sg128
Nsg129
(dp313
sg131
Nsg25
g27
sg132
(lp314
I3
aI2
asg134
Nsg135
VMishnah Kiddushin 3:2
p315
sg137
(lp316
sg139
g92
sg140
Nsg141
(lp317
I3
aI2
asg143
Nsg144
g315
sg145
(lp318
sg147
g58
sg148
Nsg149
Nsg150
Nsbag3
(g4
g5
NtRp319
(dp320
g8
g10
sg128
Nsg129
(dp321
sg131
Nsg25
g27
sg132
(lp322
I3
aI3
asg134
Nsg135
VMishnah Kiddushin 3:3
p323
sg137
(lp324
sg139
g92
sg140
Nsg141
(lp325
I3
aI3
asg143
Nsg144
g323
sg145
(lp326
sg147
g58
sg148
Nsg149
Nsg150
Nsbag3
(g4
g5
NtRp327
(dp328
g8
g10
sg128
Nsg129
(dp329
sg131
Nsg25
g27
sg132
(lp330
I3
aI4
asg134
Nsg135
VMishnah Kiddushin 3:4
p331
sg137
(lp332
sg139
g92
sg140
Nsg141
(lp333
I3
aI4
asg143
Nsg144
g331
sg145
(lp334
sg147
g58
sg148
Nsg149
Nsg150
Nsbag3
(g4
g5
NtRp335
(dp336
g8
g10
sg128
Nsg129
(dp337
sg131
Nsg25
g27
sg132
(lp338
I3
aI5
asg134
Nsg135
VMishnah Kiddushin 3:5
p339
sg137
(lp340
sg139
g92
sg140
Nsg141
(lp341
I3
aI5
asg143
Nsg144
g339
sg145
(lp342
sg147
g58
sg148
Nsg149
Nsg150
Nsbag3
(g4
g5
NtRp343
(dp344
g8
g10
sg128
Nsg129
(dp345
sg131
Nsg25
g27
sg132
(lp346
I3
aI6
asg134
Nsg135
VMishnah Kiddushin 3:6
p347
sg137
(lp348
sg139
g92
sg140
Nsg141
(lp349
I3
aI6
asg143
Nsg144
g347
sg145
(lp350
sg147
g58
sg148
Nsg149
Nsg150
Nsbag3
(g4
g5
NtRp351
(dp352
g8
g10
sg128
Nsg129
(dp353
sg131
Nsg25
g27
sg132
(lp354
I3
aI7
asg134
Nsg135
VMishnah Kiddushin 3:7
p355
sg137
(lp356
sg139
g92
sg140
Nsg141
(lp357
I3
aI7
asg143
Nsg144
g355
sg145
(lp358
sg147
g58
sg148
Nsg149
Nsg150
Nsbag3
(g4
g5
NtRp359
(dp360
g8
g10
sg128
Nsg129
(dp361
sg131
Nsg25
g27
sg132
(lp362
I3
aI8
asg134
Nsg135
VMishnah Kiddushin 3:8
p363
sg137
(lp364
sg139
g92
sg140
Nsg141
(lp365
I3
aI8
asg143
Nsg144
g363
sg145
(lp366
sg147
g58
sg148
Nsg149
Nsg150
Nsbag3
(g4
g5
NtRp367
(dp368
g8
g10
sg128
Nsg129
(dp369
sg131
Nsg25
g27
sg132
(lp370
I3
aI9
asg134
Nsg135
VMishnah Kiddushin 3:9
p371
sg137
(lp372
sg139
g92
sg140
Nsg141
(lp373
I3
aI9
asg143
Nsg144
g371
sg145
(lp374
sg147
g58
sg148
Nsg149
Nsg150
Nsbag3
(g4
g5
NtRp375
(dp376
g8
g10
sg128
Nsg129
(dp377
sg131
Nsg25
g27
sg132
(lp378
I3
aI10
asg134
Nsg135
VMishnah Kiddushin 3:10
p379
sg137
(lp380
sg139
g92
sg140
Nsg141
(lp381
I3
aI10
asg143
Nsg144
g379
sg145
(lp382
sg147
g58
sg148
Nsg149
Nsg150
Nsbag3
(g4
g5
NtRp383
(dp384
g8
g10
sg128
Nsg129
(dp385
sg131
Nsg25
g27
sg132
(lp386
I3
aI11
asg134
Nsg135
VMishnah Kiddushin 3:11
p387
sg137
(lp388
sg139
g92
sg140
Nsg141
(lp389
I3
aI11
asg143
Nsg144
g387
sg145
(lp390
sg147
g58
sg148
Nsg149
Nsg150
Nsbag3
(g4
g5
NtRp391
(dp392
g8
g10
sg128
Nsg129
(dp393
sg131
Nsg25
g27
sg132
(lp394
I3
aI12
asg134
Nsg135
VMishnah Kiddushin 3:12
p395
sg137
(lp396
sg139
g92
sg140
Nsg141
(lp397
I3
aI12
asg143
Nsg144
g395
sg145
(lp398
sg147
g58
sg148
Nsg149
Nsg150
Nsbag3
(g4
g5
NtRp399
(dp400
g8
g10
sg128
Nsg129
(dp401
sg131
Nsg25
g27
sg132
(lp402
I3
aI13
asg134
Nsg135
VMishnah Kiddushin 3:13
p403
sg137
(lp404
sg139
g92
sg140
Nsg141
(lp405
I3
aI13
asg143
Nsg144
g403
sg145
(lp406
sg147
g58
sg148
Nsg149
Nsg150
Nsbag3
(g4
g5
NtRp407
(dp408
g8
g10
sg128
Nsg129
(dp409
sg131
Nsg25
g27
sg132
(lp410
I4
aI1
asg134
Nsg135
VMishnah Kiddushin 4:1
p411
sg137
(lp412
sg139
g92
sg140
Nsg141
(lp413
I4
aI1
asg143
Nsg144
g411
sg145
(lp414
sg147
g58
sg148
Nsg149
Nsg150
Nsbag3
(g4
g5
NtRp415
(dp416
g8
g10
sg128
Nsg129
(dp417
sg131
Nsg25
g27
sg132
(lp418
I4
aI2
asg134
Nsg135
VMishnah Kiddushin 4:2
p419
sg137
(lp420
sg139
g92
sg140
Nsg141
(lp421
I4
aI2
asg143
Nsg144
g419
sg145
(lp422
sg147
g58
sg148
Nsg149
Nsg150
Nsbag3
(g4
g5
NtRp423
(dp424
g8
g10
sg128
Nsg129
(dp425
sg131
Nsg25
g27
sg132
(lp426
I4
aI3
asg134
Nsg135
VMishnah Kiddushin 4:3
p427
sg137
(lp428
sg139
g92
sg140
Nsg141
(lp429
I4
aI3
asg143
Nsg144
g427
sg145
(lp430
sg147
g58
sg148
Nsg149
Nsg150
Nsbag3
(g4
g5
NtRp431
(dp432
g8
g10
sg128
Nsg129
(dp433
sg131
Nsg25
g27
sg132
(lp434
I4
aI4
asg134
Nsg135
VMishnah Kiddushin 4:4
p435
sg137
(lp436
sg139
g92
sg140
Nsg141
(lp437
I4
aI4
asg143
Nsg144
g435
sg145
(lp438
sg147
g58
sg148
Nsg149
Nsg150
Nsbag3
(g4
g5
NtRp439
(dp440
g8
g10
sg128
Nsg129
(dp441
sg131
Nsg25
g27
sg132
(lp442
I4
aI5
asg134
Nsg135
VMishnah Kiddushin 4:5
p443
sg137
(lp444
sg139
g92
sg140
Nsg141
(lp445
I4
aI5
asg143
Nsg144
g443
sg145
(lp446
sg147
g58
sg148
Nsg149
Nsg150
Nsbag3
(g4
g5
NtRp447
(dp448
g8
g10
sg128
Nsg129
(dp449
sg131
Nsg25
g27
sg132
(lp450
I4
aI6
asg134
Nsg135
VMishnah Kiddushin 4:6
p451
sg137
(lp452
sg139
g92
sg140
Nsg141
(lp453
I4
aI6
asg143
Nsg144
g451
sg145
(lp454
sg147
g58
sg148
Nsg149
Nsg150
Nsbag3
(g4
g5
NtRp455
(dp456
g8
g10
sg128
Nsg129
(dp457
sg131
Nsg25
g27
sg132
(lp458
I4
aI7
asg134
Nsg135
VMishnah Kiddushin 4:7
p459
sg137
(lp460
sg139
g92
sg140
Nsg141
(lp461
I4
aI7
asg143
Nsg144
g459
sg145
(lp462
sg147
g58
sg148
Nsg149
Nsg150
Nsbag3
(g4
g5
NtRp463
(dp464
g8
g10
sg128
Nsg129
(dp465
sg131
Nsg25
g27
sg132
(lp466
I4
aI8
asg134
Nsg135
VMishnah Kiddushin 4:8
p467
sg137
(lp468
sg139
g92
sg140
Nsg141
(lp469
I4
aI8
asg143
Nsg144
g467
sg145
(lp470
sg147
g58
sg148
Nsg149
Nsg150
Nsbag3
(g4
g5
NtRp471
(dp472
g8
g10
sg128
Nsg129
(dp473
sg131
Nsg25
g27
sg132
(lp474
I4
aI9
asg134
Nsg135
VMishnah Kiddushin 4:9
p475
sg137
(lp476
sg139
g92
sg140
Nsg141
(lp477
I4
aI9
asg143
Nsg144
g475
sg145
(lp478
sg147
g58
sg148
Nsg149
Nsg150
Nsbag3
(g4
g5
NtRp479
(dp480
g8
g10
sg128
Nsg129
(dp481
sg131
Nsg25
g27
sg132
(lp482
I4
aI10
asg134
Nsg135
VMishnah Kiddushin 4:10
p483
sg137
(lp484
sg139
g92
sg140
Nsg141
(lp485
I4
aI10
asg143
Nsg144
g483
sg145
(lp486
sg147
g58
sg148
Nsg149
Nsg150
Nsbag3
(g4
g5
NtRp487
(dp488
g8
g10
sg128
Nsg129
(dp489
sg131
Nsg25
g27
sg132
(lp490
I4
aI11
asg134
Nsg135
VMishnah Kiddushin 4:11
p491
sg137
(lp492
sg139
g92
sg140
Nsg141
(lp493
I4
aI11
asg143
Nsg144
g491
sg145
(lp494
sg147
g58
sg148
Nsg149
Nsg150
Nsbag3
(g4
g5
NtRp495
(dp496
g8
g10
sg128
Nsg129
(dp497
sg131
Nsg25
g27
sg132
(lp498
I4
aI12
asg134
Nsg135
VMishnah Kiddushin 4:12
p499
sg137
(lp500
sg139
g92
sg140
Nsg141
(lp501
I4
aI12
asg143
Nsg144
g499
sg145
(lp502
sg147
g58
sg148
Nsg149
Nsg150
Nsbag3
(g4
g5
NtRp503
(dp504
g8
g10
sg128
Nsg129
(dp505
sg131
Nsg25
g27
sg132
(lp506
I4
aI13
asg134
Nsg135
VMishnah Kiddushin 4:13
p507
sg137
(lp508
sg139
g92
sg140
Nsg141
(lp509
I4
aI13
asg143
Nsg144
g507
sg145
(lp510
sg147
g58
sg148
Nsg149
Nsg150
Nsbag3
(g4
g5
NtRp511
(dp512
g8
g10
sg128
Nsg129
(dp513
sg131
Nsg25
g27
sg132
(lp514
I4
aI14
asg134
Nsg135
VMishnah Kiddushin 4:14
p515
sg137
(lp516
sg139
g92
sg140
Nsg141
(lp517
I4
aI14
asg143
Nsg144
g515
sg145
(lp518
sg147
g58
sg148
Nsg149
Nsg150
NsbaI2157
t.