((lp1
I0
aI56
aI88
aI136
aI158
aI215
aI237
aI262
aI286
aI312
aI357
aI383
aI492
aI561
aI630
aI683
aI714
aI773
aI841
aI900
aI922
aI964
aI1010
aI1045
aI1101
aI1207
aI1240
aI1268
aI1293
aI1315
aI1351
aI1397
aI1416
aI1453
aI1511
aI1531
aI1574
aI1604
aI1651
aI1683
aI1698
aI1731
aI1792
aI1870
aI1926
aI1980
aI2015
aI2065
aI2086
aI2166
aI2253
aI2290
aI2320
aI2347
aI2489
aI2551
aI2588
aI2669
aI2970
aI3001
aI3020
aI3038
aI3056
aI3104
aI3138
aI3207
aI3226
aI3268
aI3303
aI3367
aI3408
aI3429
aI3456
aI3505
a(lp2
ccopy_reg
_reconstructor
p3
(csefaria.model.text
Ref
p4
c__builtin__
object
p5
NtRp6
(dp7
S'index_node'
p8
g3
(csefaria.model.schema
JaggedArrayNode
p9
g5
NtRp10
(dp11
S'_address'
p12
(lp13
VMishnah Eduyot
p14
asS'_full_titles'
p15
(dp16
sVnodeType
p17
VJaggedArrayNode
p18
sS'parent'
p19
NsVaddressTypes
p20
(lp21
VPerek
p22
aVMishnah
p23
asS'default'
p24
I00
sS'index'
p25
g3
(csefaria.model.text
Index
p26
g5
NtRp27
(dp28
S'_id'
p29
g3
(cbson.objectid
ObjectId
p30
g5
NtRp31
S'NJ\xb8\x8f\xed\xba\xb4X3\x00\x00K'
p32
bsS'pkeys_orig_values'
p33
(dp34
S'title'
p35
VMishnah Eduyot
p36
ssS'pubDate'
p37
V1492
p38
sS'compDate'
p39
V210
p40
sS'pubPlace'
p41
VNaples
p42
sS'compPlace'
p43
VTalmudic Israel
p44
sS'enDesc'
p45
VThe Mishnah is the first major written redaction of the Jewish oral traditions known as the Oral Torah. The Mishnah was redacted by Rabbi Yehudah Ha-Nasi before his death around 217 CE, in a time when, according to the Talmud, the persecution of the Jews and the passage of time raised the possibility that the details of the oral traditions of the Pharisees from the Second Temple period (536 BCE \u2013 70 CE) would be forgotten. The majority of the Mishnah is written in Mishnaic Hebrew, while some parts are Aramaic. The Mishnah consists of six orders (sedarim, singular seder), each containing 7\u201312 tractates (masekhtot, singular masekhet), numbering 63 in total and further subdivided into chapters and paragraphs or verses. The word Mishnah can also indicate a single paragraph or a verse of the work itself, i.e. the smallest unit of structure in the Mishnah. For this reason the whole work is sometimes called by the plural, Mishnayot. Eduyot (Testimonies) belongs to the fourth order, Nezikin (The Order of Damages) and presents case studies of legal disputes in Mishnaic times and the miscellaneous testimonies that illustrate various Sages and principles of halakha. It has eight chapters.
p46
sS'order'
p47
(lp48
I37
aI7
asS'era'
p49
VT
sS'struct_objs'
p50
(dp51
sS'nodes'
p52
g10
sS'errorMargin'
p53
V20
p54
sS'_title'
p55
g36
sS'categories'
p56
(lp57
VMishnah
p58
aVSeder Nezikin
p59
asS'schema'
p60
(dp61
g17
g18
sg20
g21
sVlengths
p62
(lp63
I8
aI74
asVdepth
p64
I2
sVtitles
p65
(lp66
(dp67
Vlang
p68
Ven
p69
sVtext
p70
VM. Eduyot
p71
sa(dp72
Vlang
p73
Ven
p74
sVtext
p75
VMishna Eduyot
p76
sa(dp77
Vlang
p78
Ven
p79
sVtext
p80
VM Eduyot
p81
sa(dp82
Vlang
p83
Ven
p84
sVtext
p85
VEduyot
p86
sa(dp87
Vlang
p88
Ven
p89
sVtext
p90
VEduyoth
p91
sa(dp92
Vlang
p93
Vhe
p94
sVtext
p95
V\u05de\u05e9\u05e0\u05d4 \u05e2\u05d3\u05d9\u05d5\u05ea
p96
sVprimary
p97
I01
sa(dp98
Vlang
p99
Vhe
p100
sVtext
p101
V\u05de\u05e9\u05e0\u05d4 \u05e2\u05d3\u05d5\u05d9\u05d5\u05ea
p102
sa(dp103
Vlang
p104
Vhe
p105
sVtext
p106
V\u05e2\u05d3\u05d9\u05d5\u05ea
p107
sa(dp108
Vlang
p109
Ven
p110
sVtext
p111
VMishnah Eduyot
p112
sVprimary
p113
I01
sasVkey
p114
g14
sVsectionNames
p115
(lp116
VChapter
p117
aVMishna
p118
assbsS'_primary_title'
p119
(dp120
sS'title_group'
p121
g3
(csefaria.model.schema
TitleGroup
p122
g5
NtRp123
(dp124
g119
(dp125
S'en'
p126
g112
ssS'titles'
p127
g66
sbsS'_addressTypes'
p128
(lp129
g3
(csefaria.model.schema
AddressPerek
p130
g5
NtRp131
(dp132
S'length'
p133
I8
sg47
I0
sbag3
(csefaria.model.schema
AddressMishnah
p134
g5
NtRp135
(dp136
g133
Nsg47
I1
sbasS'sharedTitle'
p137
Nsg62
g63
sg64
I2
sS'_full_title'
p138
(dp139
g126
g112
ssS'key'
p140
g14
sS'checkFirst'
p141
NsS'_regexes'
p142
(dp143
sS'_leaf_nodes'
p144
(lp145
sg115
g116
sS'children'
p146
(lp147
sbsS'_range_index'
p148
NsS'_context'
p149
(dp150
sS'_padded'
p151
Nsg25
g27
sS'sections'
p152
(lp153
I1
aI1
asS'_first_spanned_ref'
p154
NsS'tref'
p155
VMishnah Eduyot 1:1
p156
sS'_spanned_refs'
p157
(lp158
sS'book'
p159
g112
sS'_range_depth'
p160
NsS'toSections'
p161
(lp162
I1
aI1
asS'_url'
p163
NsS'_normal'
p164
g156
sS'_ranged_refs'
p165
(lp166
sS'type'
p167
g58
sS'_prev'
p168
NsS'_he_normal'
p169
NsS'_next'
p170
Nsbag3
(g4
g5
NtRp171
(dp172
g8
g10
sg148
Nsg149
(dp173
sg151
Nsg25
g27
sg152
(lp174
I1
aI2
asg154
Nsg155
VMishnah Eduyot 1:2
p175
sg157
(lp176
sg159
g112
sg160
Nsg161
(lp177
I1
aI2
asg163
Nsg164
g175
sg165
(lp178
sg167
g58
sg168
Nsg169
Nsg170
Nsbag3
(g4
g5
NtRp179
(dp180
g8
g10
sg148
Nsg149
(dp181
sg151
Nsg25
g27
sg152
(lp182
I1
aI3
asg154
Nsg155
VMishnah Eduyot 1:3
p183
sg157
(lp184
sg159
g112
sg160
Nsg161
(lp185
I1
aI3
asg163
Nsg164
g183
sg165
(lp186
sg167
g58
sg168
Nsg169
Nsg170
Nsbag3
(g4
g5
NtRp187
(dp188
g8
g10
sg148
Nsg149
(dp189
sg151
Nsg25
g27
sg152
(lp190
I1
aI4
asg154
Nsg155
VMishnah Eduyot 1:4
p191
sg157
(lp192
sg159
g112
sg160
Nsg161
(lp193
I1
aI4
asg163
Nsg164
g191
sg165
(lp194
sg167
g58
sg168
Nsg169
Nsg170
Nsbag3
(g4
g5
NtRp195
(dp196
g8
g10
sg148
Nsg149
(dp197
sg151
Nsg25
g27
sg152
(lp198
I1
aI5
asg154
Nsg155
VMishnah Eduyot 1:5
p199
sg157
(lp200
sg159
g112
sg160
Nsg161
(lp201
I1
aI5
asg163
Nsg164
g199
sg165
(lp202
sg167
g58
sg168
Nsg169
Nsg170
Nsbag3
(g4
g5
NtRp203
(dp204
g8
g10
sg148
Nsg149
(dp205
sg151
Nsg25
g27
sg152
(lp206
I1
aI6
asg154
Nsg155
VMishnah Eduyot 1:6
p207
sg157
(lp208
sg159
g112
sg160
Nsg161
(lp209
I1
aI6
asg163
Nsg164
g207
sg165
(lp210
sg167
g58
sg168
Nsg169
Nsg170
Nsbag3
(g4
g5
NtRp211
(dp212
g8
g10
sg148
Nsg149
(dp213
sg151
Nsg25
g27
sg152
(lp214
I1
aI7
asg154
Nsg155
VMishnah Eduyot 1:7
p215
sg157
(lp216
sg159
g112
sg160
Nsg161
(lp217
I1
aI7
asg163
Nsg164
g215
sg165
(lp218
sg167
g58
sg168
Nsg169
Nsg170
Nsbag3
(g4
g5
NtRp219
(dp220
g8
g10
sg148
Nsg149
(dp221
sg151
Nsg25
g27
sg152
(lp222
I1
aI8
asg154
Nsg155
VMishnah Eduyot 1:8
p223
sg157
(lp224
sg159
g112
sg160
Nsg161
(lp225
I1
aI8
asg163
Nsg164
g223
sg165
(lp226
sg167
g58
sg168
Nsg169
Nsg170
Nsbag3
(g4
g5
NtRp227
(dp228
g8
g10
sg148
Nsg149
(dp229
sg151
Nsg25
g27
sg152
(lp230
I1
aI9
asg154
Nsg155
VMishnah Eduyot 1:9
p231
sg157
(lp232
sg159
g112
sg160
Nsg161
(lp233
I1
aI9
asg163
Nsg164
g231
sg165
(lp234
sg167
g58
sg168
Nsg169
Nsg170
Nsbag3
(g4
g5
NtRp235
(dp236
g8
g10
sg148
Nsg149
(dp237
sg151
Nsg25
g27
sg152
(lp238
I1
aI10
asg154
Nsg155
VMishnah Eduyot 1:10
p239
sg157
(lp240
sg159
g112
sg160
Nsg161
(lp241
I1
aI10
asg163
Nsg164
g239
sg165
(lp242
sg167
g58
sg168
Nsg169
Nsg170
Nsbag3
(g4
g5
NtRp243
(dp244
g8
g10
sg148
Nsg149
(dp245
sg151
Nsg25
g27
sg152
(lp246
I1
aI11
asg154
Nsg155
VMishnah Eduyot 1:11
p247
sg157
(lp248
sg159
g112
sg160
Nsg161
(lp249
I1
aI11
asg163
Nsg164
g247
sg165
(lp250
sg167
g58
sg168
Nsg169
Nsg170
Nsbag3
(g4
g5
NtRp251
(dp252
g8
g10
sg148
Nsg149
(dp253
sg151
Nsg25
g27
sg152
(lp254
I1
aI12
asg154
Nsg155
VMishnah Eduyot 1:12
p255
sg157
(lp256
sg159
g112
sg160
Nsg161
(lp257
I1
aI12
asg163
Nsg164
g255
sg165
(lp258
sg167
g58
sg168
Nsg169
Nsg170
Nsbag3
(g4
g5
NtRp259
(dp260
g8
g10
sg148
Nsg149
(dp261
sg151
Nsg25
g27
sg152
(lp262
I1
aI13
asg154
Nsg155
VMishnah Eduyot 1:13
p263
sg157
(lp264
sg159
g112
sg160
Nsg161
(lp265
I1
aI13
asg163
Nsg164
g263
sg165
(lp266
sg167
g58
sg168
Nsg169
Nsg170
Nsbag3
(g4
g5
NtRp267
(dp268
g8
g10
sg148
Nsg149
(dp269
sg151
Nsg25
g27
sg152
(lp270
I1
aI14
asg154
Nsg155
VMishnah Eduyot 1:14
p271
sg157
(lp272
sg159
g112
sg160
Nsg161
(lp273
I1
aI14
asg163
Nsg164
g271
sg165
(lp274
sg167
g58
sg168
Nsg169
Nsg170
Nsbag3
(g4
g5
NtRp275
(dp276
g8
g10
sg148
Nsg149
(dp277
sg151
Nsg25
g27
sg152
(lp278
I2
aI1
asg154
Nsg155
VMishnah Eduyot 2:1
p279
sg157
(lp280
sg159
g112
sg160
Nsg161
(lp281
I2
aI1
asg163
Nsg164
g279
sg165
(lp282
sg167
g58
sg168
Nsg169
Nsg170
Nsbag3
(g4
g5
NtRp283
(dp284
g8
g10
sg148
Nsg149
(dp285
sg151
Nsg25
g27
sg152
(lp286
I2
aI2
asg154
Nsg155
VMishnah Eduyot 2:2
p287
sg157
(lp288
sg159
g112
sg160
Nsg161
(lp289
I2
aI2
asg163
Nsg164
g287
sg165
(lp290
sg167
g58
sg168
Nsg169
Nsg170
Nsbag3
(g4
g5
NtRp291
(dp292
g8
g10
sg148
Nsg149
(dp293
sg151
Nsg25
g27
sg152
(lp294
I2
aI3
asg154
Nsg155
VMishnah Eduyot 2:3
p295
sg157
(lp296
sg159
g112
sg160
Nsg161
(lp297
I2
aI3
asg163
Nsg164
g295
sg165
(lp298
sg167
g58
sg168
Nsg169
Nsg170
Nsbag3
(g4
g5
NtRp299
(dp300
g8
g10
sg148
Nsg149
(dp301
sg151
Nsg25
g27
sg152
(lp302
I2
aI4
asg154
Nsg155
VMishnah Eduyot 2:4
p303
sg157
(lp304
sg159
g112
sg160
Nsg161
(lp305
I2
aI4
asg163
Nsg164
g303
sg165
(lp306
sg167
g58
sg168
Nsg169
Nsg170
Nsbag3
(g4
g5
NtRp307
(dp308
g8
g10
sg148
Nsg149
(dp309
sg151
Nsg25
g27
sg152
(lp310
I2
aI5
asg154
Nsg155
VMishnah Eduyot 2:5
p311
sg157
(lp312
sg159
g112
sg160
Nsg161
(lp313
I2
aI5
asg163
Nsg164
g311
sg165
(lp314
sg167
g58
sg168
Nsg169
Nsg170
Nsbag3
(g4
g5
NtRp315
(dp316
g8
g10
sg148
Nsg149
(dp317
sg151
Nsg25
g27
sg152
(lp318
I2
aI6
asg154
Nsg155
VMishnah Eduyot 2:6
p319
sg157
(lp320
sg159
g112
sg160
Nsg161
(lp321
I2
aI6
asg163
Nsg164
g319
sg165
(lp322
sg167
g58
sg168
Nsg169
Nsg170
Nsbag3
(g4
g5
NtRp323
(dp324
g8
g10
sg148
Nsg149
(dp325
sg151
Nsg25
g27
sg152
(lp326
I2
aI7
asg154
Nsg155
VMishnah Eduyot 2:7
p327
sg157
(lp328
sg159
g112
sg160
Nsg161
(lp329
I2
aI7
asg163
Nsg164
g327
sg165
(lp330
sg167
g58
sg168
Nsg169
Nsg170
Nsbag3
(g4
g5
NtRp331
(dp332
g8
g10
sg148
Nsg149
(dp333
sg151
Nsg25
g27
sg152
(lp334
I2
aI8
asg154
Nsg155
VMishnah Eduyot 2:8
p335
sg157
(lp336
sg159
g112
sg160
Nsg161
(lp337
I2
aI8
asg163
Nsg164
g335
sg165
(lp338
sg167
g58
sg168
Nsg169
Nsg170
Nsbag3
(g4
g5
NtRp339
(dp340
g8
g10
sg148
Nsg149
(dp341
sg151
Nsg25
g27
sg152
(lp342
I2
aI9
asg154
Nsg155
VMishnah Eduyot 2:9
p343
sg157
(lp344
sg159
g112
sg160
Nsg161
(lp345
I2
aI9
asg163
Nsg164
g343
sg165
(lp346
sg167
g58
sg168
Nsg169
Nsg170
Nsbag3
(g4
g5
NtRp347
(dp348
g8
g10
sg148
Nsg149
(dp349
sg151
Nsg25
g27
sg152
(lp350
I2
aI10
asg154
Nsg155
VMishnah Eduyot 2:10
p351
sg157
(lp352
sg159
g112
sg160
Nsg161
(lp353
I2
aI10
asg163
Nsg164
g351
sg165
(lp354
sg167
g58
sg168
Nsg169
Nsg170
Nsbag3
(g4
g5
NtRp355
(dp356
g8
g10
sg148
Nsg149
(dp357
sg151
Nsg25
g27
sg152
(lp358
I3
aI1
asg154
Nsg155
VMishnah Eduyot 3:1
p359
sg157
(lp360
sg159
g112
sg160
Nsg161
(lp361
I3
aI1
asg163
Nsg164
g359
sg165
(lp362
sg167
g58
sg168
Nsg169
Nsg170
Nsbag3
(g4
g5
NtRp363
(dp364
g8
g10
sg148
Nsg149
(dp365
sg151
Nsg25
g27
sg152
(lp366
I3
aI2
asg154
Nsg155
VMishnah Eduyot 3:2
p367
sg157
(lp368
sg159
g112
sg160
Nsg161
(lp369
I3
aI2
asg163
Nsg164
g367
sg165
(lp370
sg167
g58
sg168
Nsg169
Nsg170
Nsbag3
(g4
g5
NtRp371
(dp372
g8
g10
sg148
Nsg149
(dp373
sg151
Nsg25
g27
sg152
(lp374
I3
aI3
asg154
Nsg155
VMishnah Eduyot 3:3
p375
sg157
(lp376
sg159
g112
sg160
Nsg161
(lp377
I3
aI3
asg163
Nsg164
g375
sg165
(lp378
sg167
g58
sg168
Nsg169
Nsg170
Nsbag3
(g4
g5
NtRp379
(dp380
g8
g10
sg148
Nsg149
(dp381
sg151
Nsg25
g27
sg152
(lp382
I3
aI4
asg154
Nsg155
VMishnah Eduyot 3:4
p383
sg157
(lp384
sg159
g112
sg160
Nsg161
(lp385
I3
aI4
asg163
Nsg164
g383
sg165
(lp386
sg167
g58
sg168
Nsg169
Nsg170
Nsbag3
(g4
g5
NtRp387
(dp388
g8
g10
sg148
Nsg149
(dp389
sg151
Nsg25
g27
sg152
(lp390
I3
aI5
asg154
Nsg155
VMishnah Eduyot 3:5
p391
sg157
(lp392
sg159
g112
sg160
Nsg161
(lp393
I3
aI5
asg163
Nsg164
g391
sg165
(lp394
sg167
g58
sg168
Nsg169
Nsg170
Nsbag3
(g4
g5
NtRp395
(dp396
g8
g10
sg148
Nsg149
(dp397
sg151
Nsg25
g27
sg152
(lp398
I3
aI6
asg154
Nsg155
VMishnah Eduyot 3:6
p399
sg157
(lp400
sg159
g112
sg160
Nsg161
(lp401
I3
aI6
asg163
Nsg164
g399
sg165
(lp402
sg167
g58
sg168
Nsg169
Nsg170
Nsbag3
(g4
g5
NtRp403
(dp404
g8
g10
sg148
Nsg149
(dp405
sg151
Nsg25
g27
sg152
(lp406
I3
aI7
asg154
Nsg155
VMishnah Eduyot 3:7
p407
sg157
(lp408
sg159
g112
sg160
Nsg161
(lp409
I3
aI7
asg163
Nsg164
g407
sg165
(lp410
sg167
g58
sg168
Nsg169
Nsg170
Nsbag3
(g4
g5
NtRp411
(dp412
g8
g10
sg148
Nsg149
(dp413
sg151
Nsg25
g27
sg152
(lp414
I3
aI8
asg154
Nsg155
VMishnah Eduyot 3:8
p415
sg157
(lp416
sg159
g112
sg160
Nsg161
(lp417
I3
aI8
asg163
Nsg164
g415
sg165
(lp418
sg167
g58
sg168
Nsg169
Nsg170
Nsbag3
(g4
g5
NtRp419
(dp420
g8
g10
sg148
Nsg149
(dp421
sg151
Nsg25
g27
sg152
(lp422
I3
aI9
asg154
Nsg155
VMishnah Eduyot 3:9
p423
sg157
(lp424
sg159
g112
sg160
Nsg161
(lp425
I3
aI9
asg163
Nsg164
g423
sg165
(lp426
sg167
g58
sg168
Nsg169
Nsg170
Nsbag3
(g4
g5
NtRp427
(dp428
g8
g10
sg148
Nsg149
(dp429
sg151
Nsg25
g27
sg152
(lp430
I3
aI10
asg154
Nsg155
VMishnah Eduyot 3:10
p431
sg157
(lp432
sg159
g112
sg160
Nsg161
(lp433
I3
aI10
asg163
Nsg164
g431
sg165
(lp434
sg167
g58
sg168
Nsg169
Nsg170
Nsbag3
(g4
g5
NtRp435
(dp436
g8
g10
sg148
Nsg149
(dp437
sg151
Nsg25
g27
sg152
(lp438
I3
aI11
asg154
Nsg155
VMishnah Eduyot 3:11
p439
sg157
(lp440
sg159
g112
sg160
Nsg161
(lp441
I3
aI11
asg163
Nsg164
g439
sg165
(lp442
sg167
g58
sg168
Nsg169
Nsg170
Nsbag3
(g4
g5
NtRp443
(dp444
g8
g10
sg148
Nsg149
(dp445
sg151
Nsg25
g27
sg152
(lp446
I3
aI12
asg154
Nsg155
VMishnah Eduyot 3:12
p447
sg157
(lp448
sg159
g112
sg160
Nsg161
(lp449
I3
aI12
asg163
Nsg164
g447
sg165
(lp450
sg167
g58
sg168
Nsg169
Nsg170
Nsbag3
(g4
g5
NtRp451
(dp452
g8
g10
sg148
Nsg149
(dp453
sg151
Nsg25
g27
sg152
(lp454
I4
aI1
asg154
Nsg155
VMishnah Eduyot 4:1
p455
sg157
(lp456
sg159
g112
sg160
Nsg161
(lp457
I4
aI1
asg163
Nsg164
g455
sg165
(lp458
sg167
g58
sg168
Nsg169
Nsg170
Nsbag3
(g4
g5
NtRp459
(dp460
g8
g10
sg148
Nsg149
(dp461
sg151
Nsg25
g27
sg152
(lp462
I4
aI2
asg154
Nsg155
VMishnah Eduyot 4:2
p463
sg157
(lp464
sg159
g112
sg160
Nsg161
(lp465
I4
aI2
asg163
Nsg164
g463
sg165
(lp466
sg167
g58
sg168
Nsg169
Nsg170
Nsbag3
(g4
g5
NtRp467
(dp468
g8
g10
sg148
Nsg149
(dp469
sg151
Nsg25
g27
sg152
(lp470
I4
aI3
asg154
Nsg155
VMishnah Eduyot 4:3
p471
sg157
(lp472
sg159
g112
sg160
Nsg161
(lp473
I4
aI3
asg163
Nsg164
g471
sg165
(lp474
sg167
g58
sg168
Nsg169
Nsg170
Nsbag3
(g4
g5
NtRp475
(dp476
g8
g10
sg148
Nsg149
(dp477
sg151
Nsg25
g27
sg152
(lp478
I4
aI4
asg154
Nsg155
VMishnah Eduyot 4:4
p479
sg157
(lp480
sg159
g112
sg160
Nsg161
(lp481
I4
aI4
asg163
Nsg164
g479
sg165
(lp482
sg167
g58
sg168
Nsg169
Nsg170
Nsbag3
(g4
g5
NtRp483
(dp484
g8
g10
sg148
Nsg149
(dp485
sg151
Nsg25
g27
sg152
(lp486
I4
aI5
asg154
Nsg155
VMishnah Eduyot 4:5
p487
sg157
(lp488
sg159
g112
sg160
Nsg161
(lp489
I4
aI5
asg163
Nsg164
g487
sg165
(lp490
sg167
g58
sg168
Nsg169
Nsg170
Nsbag3
(g4
g5
NtRp491
(dp492
g8
g10
sg148
Nsg149
(dp493
sg151
Nsg25
g27
sg152
(lp494
I4
aI6
asg154
Nsg155
VMishnah Eduyot 4:6
p495
sg157
(lp496
sg159
g112
sg160
Nsg161
(lp497
I4
aI6
asg163
Nsg164
g495
sg165
(lp498
sg167
g58
sg168
Nsg169
Nsg170
Nsbag3
(g4
g5
NtRp499
(dp500
g8
g10
sg148
Nsg149
(dp501
sg151
Nsg25
g27
sg152
(lp502
I4
aI7
asg154
Nsg155
VMishnah Eduyot 4:7
p503
sg157
(lp504
sg159
g112
sg160
Nsg161
(lp505
I4
aI7
asg163
Nsg164
g503
sg165
(lp506
sg167
g58
sg168
Nsg169
Nsg170
Nsbag3
(g4
g5
NtRp507
(dp508
g8
g10
sg148
Nsg149
(dp509
sg151
Nsg25
g27
sg152
(lp510
I4
aI8
asg154
Nsg155
VMishnah Eduyot 4:8
p511
sg157
(lp512
sg159
g112
sg160
Nsg161
(lp513
I4
aI8
asg163
Nsg164
g511
sg165
(lp514
sg167
g58
sg168
Nsg169
Nsg170
Nsbag3
(g4
g5
NtRp515
(dp516
g8
g10
sg148
Nsg149
(dp517
sg151
Nsg25
g27
sg152
(lp518
I4
aI9
asg154
Nsg155
VMishnah Eduyot 4:9
p519
sg157
(lp520
sg159
g112
sg160
Nsg161
(lp521
I4
aI9
asg163
Nsg164
g519
sg165
(lp522
sg167
g58
sg168
Nsg169
Nsg170
Nsbag3
(g4
g5
NtRp523
(dp524
g8
g10
sg148
Nsg149
(dp525
sg151
Nsg25
g27
sg152
(lp526
I4
aI10
asg154
Nsg155
VMishnah Eduyot 4:10
p527
sg157
(lp528
sg159
g112
sg160
Nsg161
(lp529
I4
aI10
asg163
Nsg164
g527
sg165
(lp530
sg167
g58
sg168
Nsg169
Nsg170
Nsbag3
(g4
g5
NtRp531
(dp532
g8
g10
sg148
Nsg149
(dp533
sg151
Nsg25
g27
sg152
(lp534
I4
aI11
asg154
Nsg155
VMishnah Eduyot 4:11
p535
sg157
(lp536
sg159
g112
sg160
Nsg161
(lp537
I4
aI11
asg163
Nsg164
g535
sg165
(lp538
sg167
g58
sg168
Nsg169
Nsg170
Nsbag3
(g4
g5
NtRp539
(dp540
g8
g10
sg148
Nsg149
(dp541
sg151
Nsg25
g27
sg152
(lp542
I4
aI12
asg154
Nsg155
VMishnah Eduyot 4:12
p543
sg157
(lp544
sg159
g112
sg160
Nsg161
(lp545
I4
aI12
asg163
Nsg164
g543
sg165
(lp546
sg167
g58
sg168
Nsg169
Nsg170
Nsbag3
(g4
g5
NtRp547
(dp548
g8
g10
sg148
Nsg149
(dp549
sg151
Nsg25
g27
sg152
(lp550
I5
aI1
asg154
Nsg155
VMishnah Eduyot 5:1
p551
sg157
(lp552
sg159
g112
sg160
Nsg161
(lp553
I5
aI1
asg163
Nsg164
g551
sg165
(lp554
sg167
g58
sg168
Nsg169
Nsg170
Nsbag3
(g4
g5
NtRp555
(dp556
g8
g10
sg148
Nsg149
(dp557
sg151
Nsg25
g27
sg152
(lp558
I5
aI2
asg154
Nsg155
VMishnah Eduyot 5:2
p559
sg157
(lp560
sg159
g112
sg160
Nsg161
(lp561
I5
aI2
asg163
Nsg164
g559
sg165
(lp562
sg167
g58
sg168
Nsg169
Nsg170
Nsbag3
(g4
g5
NtRp563
(dp564
g8
g10
sg148
Nsg149
(dp565
sg151
Nsg25
g27
sg152
(lp566
I5
aI3
asg154
Nsg155
VMishnah Eduyot 5:3
p567
sg157
(lp568
sg159
g112
sg160
Nsg161
(lp569
I5
aI3
asg163
Nsg164
g567
sg165
(lp570
sg167
g58
sg168
Nsg169
Nsg170
Nsbag3
(g4
g5
NtRp571
(dp572
g8
g10
sg148
Nsg149
(dp573
sg151
Nsg25
g27
sg152
(lp574
I5
aI4
asg154
Nsg155
VMishnah Eduyot 5:4
p575
sg157
(lp576
sg159
g112
sg160
Nsg161
(lp577
I5
aI4
asg163
Nsg164
g575
sg165
(lp578
sg167
g58
sg168
Nsg169
Nsg170
Nsbag3
(g4
g5
NtRp579
(dp580
g8
g10
sg148
Nsg149
(dp581
sg151
Nsg25
g27
sg152
(lp582
I5
aI5
asg154
Nsg155
VMishnah Eduyot 5:5
p583
sg157
(lp584
sg159
g112
sg160
Nsg161
(lp585
I5
aI5
asg163
Nsg164
g583
sg165
(lp586
sg167
g58
sg168
Nsg169
Nsg170
Nsbag3
(g4
g5
NtRp587
(dp588
g8
g10
sg148
Nsg149
(dp589
sg151
Nsg25
g27
sg152
(lp590
I5
aI6
asg154
Nsg155
VMishnah Eduyot 5:6
p591
sg157
(lp592
sg159
g112
sg160
Nsg161
(lp593
I5
aI6
asg163
Nsg164
g591
sg165
(lp594
sg167
g58
sg168
Nsg169
Nsg170
Nsbag3
(g4
g5
NtRp595
(dp596
g8
g10
sg148
Nsg149
(dp597
sg151
Nsg25
g27
sg152
(lp598
I5
aI7
asg154
Nsg155
VMishnah Eduyot 5:7
p599
sg157
(lp600
sg159
g112
sg160
Nsg161
(lp601
I5
aI7
asg163
Nsg164
g599
sg165
(lp602
sg167
g58
sg168
Nsg169
Nsg170
Nsbag3
(g4
g5
NtRp603
(dp604
g8
g10
sg148
Nsg149
(dp605
sg151
Nsg25
g27
sg152
(lp606
I6
aI1
asg154
Nsg155
VMishnah Eduyot 6:1
p607
sg157
(lp608
sg159
g112
sg160
Nsg161
(lp609
I6
aI1
asg163
Nsg164
g607
sg165
(lp610
sg167
g58
sg168
Nsg169
Nsg170
Nsbag3
(g4
g5
NtRp611
(dp612
g8
g10
sg148
Nsg149
(dp613
sg151
Nsg25
g27
sg152
(lp614
I6
aI2
asg154
Nsg155
VMishnah Eduyot 6:2
p615
sg157
(lp616
sg159
g112
sg160
Nsg161
(lp617
I6
aI2
asg163
Nsg164
g615
sg165
(lp618
sg167
g58
sg168
Nsg169
Nsg170
Nsbag3
(g4
g5
NtRp619
(dp620
g8
g10
sg148
Nsg149
(dp621
sg151
Nsg25
g27
sg152
(lp622
I6
aI3
asg154
Nsg155
VMishnah Eduyot 6:3
p623
sg157
(lp624
sg159
g112
sg160
Nsg161
(lp625
I6
aI3
asg163
Nsg164
g623
sg165
(lp626
sg167
g58
sg168
Nsg169
Nsg170
Nsbag3
(g4
g5
NtRp627
(dp628
g8
g10
sg148
Nsg149
(dp629
sg151
Nsg25
g27
sg152
(lp630
I7
aI1
asg154
Nsg155
VMishnah Eduyot 7:1
p631
sg157
(lp632
sg159
g112
sg160
Nsg161
(lp633
I7
aI1
asg163
Nsg164
g631
sg165
(lp634
sg167
g58
sg168
Nsg169
Nsg170
Nsbag3
(g4
g5
NtRp635
(dp636
g8
g10
sg148
Nsg149
(dp637
sg151
Nsg25
g27
sg152
(lp638
I7
aI2
asg154
Nsg155
VMishnah Eduyot 7:2
p639
sg157
(lp640
sg159
g112
sg160
Nsg161
(lp641
I7
aI2
asg163
Nsg164
g639
sg165
(lp642
sg167
g58
sg168
Nsg169
Nsg170
Nsbag3
(g4
g5
NtRp643
(dp644
g8
g10
sg148
Nsg149
(dp645
sg151
Nsg25
g27
sg152
(lp646
I7
aI3
asg154
Nsg155
VMishnah Eduyot 7:3
p647
sg157
(lp648
sg159
g112
sg160
Nsg161
(lp649
I7
aI3
asg163
Nsg164
g647
sg165
(lp650
sg167
g58
sg168
Nsg169
Nsg170
Nsbag3
(g4
g5
NtRp651
(dp652
g8
g10
sg148
Nsg149
(dp653
sg151
Nsg25
g27
sg152
(lp654
I7
aI4
asg154
Nsg155
VMishnah Eduyot 7:4
p655
sg157
(lp656
sg159
g112
sg160
Nsg161
(lp657
I7
aI4
asg163
Nsg164
g655
sg165
(lp658
sg167
g58
sg168
Nsg169
Nsg170
Nsbag3
(g4
g5
NtRp659
(dp660
g8
g10
sg148
Nsg149
(dp661
sg151
Nsg25
g27
sg152
(lp662
I7
aI5
asg154
Nsg155
VMishnah Eduyot 7:5
p663
sg157
(lp664
sg159
g112
sg160
Nsg161
(lp665
I7
aI5
asg163
Nsg164
g663
sg165
(lp666
sg167
g58
sg168
Nsg169
Nsg170
Nsbag3
(g4
g5
NtRp667
(dp668
g8
g10
sg148
Nsg149
(dp669
sg151
Nsg25
g27
sg152
(lp670
I7
aI6
asg154
Nsg155
VMishnah Eduyot 7:6
p671
sg157
(lp672
sg159
g112
sg160
Nsg161
(lp673
I7
aI6
asg163
Nsg164
g671
sg165
(lp674
sg167
g58
sg168
Nsg169
Nsg170
Nsbag3
(g4
g5
NtRp675
(dp676
g8
g10
sg148
Nsg149
(dp677
sg151
Nsg25
g27
sg152
(lp678
I7
aI7
asg154
Nsg155
VMishnah Eduyot 7:7
p679
sg157
(lp680
sg159
g112
sg160
Nsg161
(lp681
I7
aI7
asg163
Nsg164
g679
sg165
(lp682
sg167
g58
sg168
Nsg169
Nsg170
Nsbag3
(g4
g5
NtRp683
(dp684
g8
g10
sg148
Nsg149
(dp685
sg151
Nsg25
g27
sg152
(lp686
I7
aI8
asg154
Nsg155
VMishnah Eduyot 7:8
p687
sg157
(lp688
sg159
g112
sg160
Nsg161
(lp689
I7
aI8
asg163
Nsg164
g687
sg165
(lp690
sg167
g58
sg168
Nsg169
Nsg170
Nsbag3
(g4
g5
NtRp691
(dp692
g8
g10
sg148
Nsg149
(dp693
sg151
Nsg25
g27
sg152
(lp694
I7
aI9
asg154
Nsg155
VMishnah Eduyot 7:9
p695
sg157
(lp696
sg159
g112
sg160
Nsg161
(lp697
I7
aI9
asg163
Nsg164
g695
sg165
(lp698
sg167
g58
sg168
Nsg169
Nsg170
Nsbag3
(g4
g5
NtRp699
(dp700
g8
g10
sg148
Nsg149
(dp701
sg151
Nsg25
g27
sg152
(lp702
I8
aI1
asg154
Nsg155
VMishnah Eduyot 8:1
p703
sg157
(lp704
sg159
g112
sg160
Nsg161
(lp705
I8
aI1
asg163
Nsg164
g703
sg165
(lp706
sg167
g58
sg168
Nsg169
Nsg170
Nsbag3
(g4
g5
NtRp707
(dp708
g8
g10
sg148
Nsg149
(dp709
sg151
Nsg25
g27
sg152
(lp710
I8
aI2
asg154
Nsg155
VMishnah Eduyot 8:2
p711
sg157
(lp712
sg159
g112
sg160
Nsg161
(lp713
I8
aI2
asg163
Nsg164
g711
sg165
(lp714
sg167
g58
sg168
Nsg169
Nsg170
Nsbag3
(g4
g5
NtRp715
(dp716
g8
g10
sg148
Nsg149
(dp717
sg151
Nsg25
g27
sg152
(lp718
I8
aI3
asg154
Nsg155
VMishnah Eduyot 8:3
p719
sg157
(lp720
sg159
g112
sg160
Nsg161
(lp721
I8
aI3
asg163
Nsg164
g719
sg165
(lp722
sg167
g58
sg168
Nsg169
Nsg170
Nsbag3
(g4
g5
NtRp723
(dp724
g8
g10
sg148
Nsg149
(dp725
sg151
Nsg25
g27
sg152
(lp726
I8
aI4
asg154
Nsg155
VMishnah Eduyot 8:4
p727
sg157
(lp728
sg159
g112
sg160
Nsg161
(lp729
I8
aI4
asg163
Nsg164
g727
sg165
(lp730
sg167
g58
sg168
Nsg169
Nsg170
Nsbag3
(g4
g5
NtRp731
(dp732
g8
g10
sg148
Nsg149
(dp733
sg151
Nsg25
g27
sg152
(lp734
I8
aI5
asg154
Nsg155
VMishnah Eduyot 8:5
p735
sg157
(lp736
sg159
g112
sg160
Nsg161
(lp737
I8
aI5
asg163
Nsg164
g735
sg165
(lp738
sg167
g58
sg168
Nsg169
Nsg170
Nsbag3
(g4
g5
NtRp739
(dp740
g8
g10
sg148
Nsg149
(dp741
sg151
Nsg25
g27
sg152
(lp742
I8
aI6
asg154
Nsg155
VMishnah Eduyot 8:6
p743
sg157
(lp744
sg159
g112
sg160
Nsg161
(lp745
I8
aI6
asg163
Nsg164
g743
sg165
(lp746
sg167
g58
sg168
Nsg169
Nsg170
Nsbag3
(g4
g5
NtRp747
(dp748
g8
g10
sg148
Nsg149
(dp749
sg151
Nsg25
g27
sg152
(lp750
I8
aI7
asg154
Nsg155
VMishnah Eduyot 8:7
p751
sg157
(lp752
sg159
g112
sg160
Nsg161
(lp753
I8
aI7
asg163
Nsg164
g751
sg165
(lp754
sg167
g58
sg168
Nsg169
Nsg170
NsbaI3593
t.