((lp1
I0
aI46
aI64
aI94
aI118
aI184
aI226
aI303
aI324
aI358
aI412
aI457
aI506
aI536
aI559
aI607
aI635
aI710
aI728
aI872
aI936
aI997
aI1030
aI1056
aI1086
aI1128
aI1178
aI1234
aI1292
aI1328
aI1391
aI1467
aI1487
aI1537
aI1587
aI1662
aI1714
aI1789
aI1848
aI1888
aI1939
aI1990
aI2087
aI2140
aI2196
aI2250
aI2297
aI2329
aI2377
aI2424
a(lp2
ccopy_reg
_reconstructor
p3
(csefaria.model.text
Ref
p4
c__builtin__
object
p5
NtRp6
(dp7
S'index_node'
p8
g3
(csefaria.model.schema
JaggedArrayNode
p9
g5
NtRp10
(dp11
S'_address'
p12
(lp13
VMishnah Arakhin
p14
asS'_full_titles'
p15
(dp16
sVnodeType
p17
VJaggedArrayNode
p18
sS'parent'
p19
NsVaddressTypes
p20
(lp21
VPerek
p22
aVMishnah
p23
asS'default'
p24
I00
sS'index'
p25
g3
(csefaria.model.text
Index
p26
g5
NtRp27
(dp28
S'_id'
p29
g3
(cbson.objectid
ObjectId
p30
g5
NtRp31
S'NJ\xb8\x8f\xed\xba\xb4X3\x00\x00S'
p32
bsS'pkeys_orig_values'
p33
(dp34
S'title'
p35
VMishnah Arakhin
p36
ssS'pubDate'
p37
V1492
p38
sS'compDate'
p39
V210
p40
sS'pubPlace'
p41
VNaples
p42
sS'compPlace'
p43
VTalmudic Israel
p44
sS'enDesc'
p45
VThe Mishnah is the first major written redaction of the Jewish oral traditions known as the Oral Torah. The Mishnah was redacted by Rabbi Yehudah Ha-Nasi before his death around 217 CE, in a time when, according to the Talmud, the persecution of the Jews and the passage of time raised the possibility that the details of the oral traditions of the Pharisees from the Second Temple period (536 BCE \u2013 70 CE) would be forgotten. The majority of the Mishnah is written in Mishnaic Hebrew, while some parts are Aramaic. The Mishnah consists of six orders (sedarim, singular seder), each containing 7\u201312 tractates (masekhtot, singular masekhet), numbering 63 in total and further subdivided into chapters and paragraphs or verses. The word Mishnah can also indicate a single paragraph or a verse of the work itself, i.e. the smallest unit of structure in the Mishnah. For this reason the whole work is sometimes called by the plural, Mishnayot. Arakhin (Dedications) belongs to the fifth order, Kodshim (Holy things) and discusses a person dedicating their value to the Temple or dedicating a field. It has nine chapters.
p46
sS'order'
p47
(lp48
I45
aI5
asS'era'
p49
VT
sS'struct_objs'
p50
(dp51
sS'nodes'
p52
g10
sS'errorMargin'
p53
V20
p54
sS'_title'
p55
g36
sS'categories'
p56
(lp57
VMishnah
p58
aVSeder Kodashim
p59
asS'schema'
p60
(dp61
g17
g18
sg20
g21
sVlengths
p62
(lp63
I9
aI50
asVdepth
p64
I2
sVtitles
p65
(lp66
(dp67
Vlang
p68
Ven
p69
sVtext
p70
VMishna Arakhin
p71
sa(dp72
Vlang
p73
Ven
p74
sVtext
p75
VM Arakhin
p76
sa(dp77
Vlang
p78
Ven
p79
sVtext
p80
VM. Arakhin
p81
sa(dp82
Vlang
p83
Vhe
p84
sVtext
p85
V\u05de\u05e9\u05e0\u05d4 \u05e2\u05e8\u05db\u05d9\u05df
p86
sVprimary
p87
I01
sa(dp88
Vlang
p89
Ven
p90
sVtext
p91
VMishnah Arakhin
p92
sVprimary
p93
I01
sasVkey
p94
g14
sVsectionNames
p95
(lp96
VChapter
p97
aVMishna
p98
assbsS'_primary_title'
p99
(dp100
sS'title_group'
p101
g3
(csefaria.model.schema
TitleGroup
p102
g5
NtRp103
(dp104
g99
(dp105
S'en'
p106
g92
ssS'titles'
p107
g66
sbsS'_addressTypes'
p108
(lp109
g3
(csefaria.model.schema
AddressPerek
p110
g5
NtRp111
(dp112
S'length'
p113
I9
sg47
I0
sbag3
(csefaria.model.schema
AddressMishnah
p114
g5
NtRp115
(dp116
g113
Nsg47
I1
sbasS'sharedTitle'
p117
Nsg62
g63
sg64
I2
sS'_full_title'
p118
(dp119
g106
g92
ssS'key'
p120
g14
sS'checkFirst'
p121
NsS'_regexes'
p122
(dp123
sS'_leaf_nodes'
p124
(lp125
sg95
g96
sS'children'
p126
(lp127
sbsS'_range_index'
p128
NsS'_context'
p129
(dp130
sS'_padded'
p131
Nsg25
g27
sS'sections'
p132
(lp133
I1
aI1
asS'_first_spanned_ref'
p134
NsS'tref'
p135
VMishnah Arakhin 1:1
p136
sS'_spanned_refs'
p137
(lp138
sS'book'
p139
g92
sS'_range_depth'
p140
NsS'toSections'
p141
(lp142
I1
aI1
asS'_url'
p143
NsS'_normal'
p144
g136
sS'_ranged_refs'
p145
(lp146
sS'type'
p147
g58
sS'_prev'
p148
NsS'_he_normal'
p149
NsS'_next'
p150
Nsbag3
(g4
g5
NtRp151
(dp152
g8
g10
sg128
Nsg129
(dp153
sg131
Nsg25
g27
sg132
(lp154
I1
aI2
asg134
Nsg135
VMishnah Arakhin 1:2
p155
sg137
(lp156
sg139
g92
sg140
Nsg141
(lp157
I1
aI2
asg143
Nsg144
g155
sg145
(lp158
sg147
g58
sg148
Nsg149
Nsg150
Nsbag3
(g4
g5
NtRp159
(dp160
g8
g10
sg128
Nsg129
(dp161
sg131
Nsg25
g27
sg132
(lp162
I1
aI3
asg134
Nsg135
VMishnah Arakhin 1:3
p163
sg137
(lp164
sg139
g92
sg140
Nsg141
(lp165
I1
aI3
asg143
Nsg144
g163
sg145
(lp166
sg147
g58
sg148
Nsg149
Nsg150
Nsbag3
(g4
g5
NtRp167
(dp168
g8
g10
sg128
Nsg129
(dp169
sg131
Nsg25
g27
sg132
(lp170
I1
aI4
asg134
Nsg135
VMishnah Arakhin 1:4
p171
sg137
(lp172
sg139
g92
sg140
Nsg141
(lp173
I1
aI4
asg143
Nsg144
g171
sg145
(lp174
sg147
g58
sg148
Nsg149
Nsg150
Nsbag3
(g4
g5
NtRp175
(dp176
g8
g10
sg128
Nsg129
(dp177
sg131
Nsg25
g27
sg132
(lp178
I2
aI1
asg134
Nsg135
VMishnah Arakhin 2:1
p179
sg137
(lp180
sg139
g92
sg140
Nsg141
(lp181
I2
aI1
asg143
Nsg144
g179
sg145
(lp182
sg147
g58
sg148
Nsg149
Nsg150
Nsbag3
(g4
g5
NtRp183
(dp184
g8
g10
sg128
Nsg129
(dp185
sg131
Nsg25
g27
sg132
(lp186
I2
aI2
asg134
Nsg135
VMishnah Arakhin 2:2
p187
sg137
(lp188
sg139
g92
sg140
Nsg141
(lp189
I2
aI2
asg143
Nsg144
g187
sg145
(lp190
sg147
g58
sg148
Nsg149
Nsg150
Nsbag3
(g4
g5
NtRp191
(dp192
g8
g10
sg128
Nsg129
(dp193
sg131
Nsg25
g27
sg132
(lp194
I2
aI3
asg134
Nsg135
VMishnah Arakhin 2:3
p195
sg137
(lp196
sg139
g92
sg140
Nsg141
(lp197
I2
aI3
asg143
Nsg144
g195
sg145
(lp198
sg147
g58
sg148
Nsg149
Nsg150
Nsbag3
(g4
g5
NtRp199
(dp200
g8
g10
sg128
Nsg129
(dp201
sg131
Nsg25
g27
sg132
(lp202
I2
aI4
asg134
Nsg135
VMishnah Arakhin 2:4
p203
sg137
(lp204
sg139
g92
sg140
Nsg141
(lp205
I2
aI4
asg143
Nsg144
g203
sg145
(lp206
sg147
g58
sg148
Nsg149
Nsg150
Nsbag3
(g4
g5
NtRp207
(dp208
g8
g10
sg128
Nsg129
(dp209
sg131
Nsg25
g27
sg132
(lp210
I2
aI5
asg134
Nsg135
VMishnah Arakhin 2:5
p211
sg137
(lp212
sg139
g92
sg140
Nsg141
(lp213
I2
aI5
asg143
Nsg144
g211
sg145
(lp214
sg147
g58
sg148
Nsg149
Nsg150
Nsbag3
(g4
g5
NtRp215
(dp216
g8
g10
sg128
Nsg129
(dp217
sg131
Nsg25
g27
sg132
(lp218
I2
aI6
asg134
Nsg135
VMishnah Arakhin 2:6
p219
sg137
(lp220
sg139
g92
sg140
Nsg141
(lp221
I2
aI6
asg143
Nsg144
g219
sg145
(lp222
sg147
g58
sg148
Nsg149
Nsg150
Nsbag3
(g4
g5
NtRp223
(dp224
g8
g10
sg128
Nsg129
(dp225
sg131
Nsg25
g27
sg132
(lp226
I3
aI1
asg134
Nsg135
VMishnah Arakhin 3:1
p227
sg137
(lp228
sg139
g92
sg140
Nsg141
(lp229
I3
aI1
asg143
Nsg144
g227
sg145
(lp230
sg147
g58
sg148
Nsg149
Nsg150
Nsbag3
(g4
g5
NtRp231
(dp232
g8
g10
sg128
Nsg129
(dp233
sg131
Nsg25
g27
sg132
(lp234
I3
aI2
asg134
Nsg135
VMishnah Arakhin 3:2
p235
sg137
(lp236
sg139
g92
sg140
Nsg141
(lp237
I3
aI2
asg143
Nsg144
g235
sg145
(lp238
sg147
g58
sg148
Nsg149
Nsg150
Nsbag3
(g4
g5
NtRp239
(dp240
g8
g10
sg128
Nsg129
(dp241
sg131
Nsg25
g27
sg132
(lp242
I3
aI3
asg134
Nsg135
VMishnah Arakhin 3:3
p243
sg137
(lp244
sg139
g92
sg140
Nsg141
(lp245
I3
aI3
asg143
Nsg144
g243
sg145
(lp246
sg147
g58
sg148
Nsg149
Nsg150
Nsbag3
(g4
g5
NtRp247
(dp248
g8
g10
sg128
Nsg129
(dp249
sg131
Nsg25
g27
sg132
(lp250
I3
aI4
asg134
Nsg135
VMishnah Arakhin 3:4
p251
sg137
(lp252
sg139
g92
sg140
Nsg141
(lp253
I3
aI4
asg143
Nsg144
g251
sg145
(lp254
sg147
g58
sg148
Nsg149
Nsg150
Nsbag3
(g4
g5
NtRp255
(dp256
g8
g10
sg128
Nsg129
(dp257
sg131
Nsg25
g27
sg132
(lp258
I3
aI5
asg134
Nsg135
VMishnah Arakhin 3:5
p259
sg137
(lp260
sg139
g92
sg140
Nsg141
(lp261
I3
aI5
asg143
Nsg144
g259
sg145
(lp262
sg147
g58
sg148
Nsg149
Nsg150
Nsbag3
(g4
g5
NtRp263
(dp264
g8
g10
sg128
Nsg129
(dp265
sg131
Nsg25
g27
sg132
(lp266
I4
aI1
asg134
Nsg135
VMishnah Arakhin 4:1
p267
sg137
(lp268
sg139
g92
sg140
Nsg141
(lp269
I4
aI1
asg143
Nsg144
g267
sg145
(lp270
sg147
g58
sg148
Nsg149
Nsg150
Nsbag3
(g4
g5
NtRp271
(dp272
g8
g10
sg128
Nsg129
(dp273
sg131
Nsg25
g27
sg132
(lp274
I4
aI2
asg134
Nsg135
VMishnah Arakhin 4:2
p275
sg137
(lp276
sg139
g92
sg140
Nsg141
(lp277
I4
aI2
asg143
Nsg144
g275
sg145
(lp278
sg147
g58
sg148
Nsg149
Nsg150
Nsbag3
(g4
g5
NtRp279
(dp280
g8
g10
sg128
Nsg129
(dp281
sg131
Nsg25
g27
sg132
(lp282
I4
aI3
asg134
Nsg135
VMishnah Arakhin 4:3
p283
sg137
(lp284
sg139
g92
sg140
Nsg141
(lp285
I4
aI3
asg143
Nsg144
g283
sg145
(lp286
sg147
g58
sg148
Nsg149
Nsg150
Nsbag3
(g4
g5
NtRp287
(dp288
g8
g10
sg128
Nsg129
(dp289
sg131
Nsg25
g27
sg132
(lp290
I4
aI4
asg134
Nsg135
VMishnah Arakhin 4:4
p291
sg137
(lp292
sg139
g92
sg140
Nsg141
(lp293
I4
aI4
asg143
Nsg144
g291
sg145
(lp294
sg147
g58
sg148
Nsg149
Nsg150
Nsbag3
(g4
g5
NtRp295
(dp296
g8
g10
sg128
Nsg129
(dp297
sg131
Nsg25
g27
sg132
(lp298
I5
aI1
asg134
Nsg135
VMishnah Arakhin 5:1
p299
sg137
(lp300
sg139
g92
sg140
Nsg141
(lp301
I5
aI1
asg143
Nsg144
g299
sg145
(lp302
sg147
g58
sg148
Nsg149
Nsg150
Nsbag3
(g4
g5
NtRp303
(dp304
g8
g10
sg128
Nsg129
(dp305
sg131
Nsg25
g27
sg132
(lp306
I5
aI2
asg134
Nsg135
VMishnah Arakhin 5:2
p307
sg137
(lp308
sg139
g92
sg140
Nsg141
(lp309
I5
aI2
asg143
Nsg144
g307
sg145
(lp310
sg147
g58
sg148
Nsg149
Nsg150
Nsbag3
(g4
g5
NtRp311
(dp312
g8
g10
sg128
Nsg129
(dp313
sg131
Nsg25
g27
sg132
(lp314
I5
aI3
asg134
Nsg135
VMishnah Arakhin 5:3
p315
sg137
(lp316
sg139
g92
sg140
Nsg141
(lp317
I5
aI3
asg143
Nsg144
g315
sg145
(lp318
sg147
g58
sg148
Nsg149
Nsg150
Nsbag3
(g4
g5
NtRp319
(dp320
g8
g10
sg128
Nsg129
(dp321
sg131
Nsg25
g27
sg132
(lp322
I5
aI4
asg134
Nsg135
VMishnah Arakhin 5:4
p323
sg137
(lp324
sg139
g92
sg140
Nsg141
(lp325
I5
aI4
asg143
Nsg144
g323
sg145
(lp326
sg147
g58
sg148
Nsg149
Nsg150
Nsbag3
(g4
g5
NtRp327
(dp328
g8
g10
sg128
Nsg129
(dp329
sg131
Nsg25
g27
sg132
(lp330
I5
aI5
asg134
Nsg135
VMishnah Arakhin 5:5
p331
sg137
(lp332
sg139
g92
sg140
Nsg141
(lp333
I5
aI5
asg143
Nsg144
g331
sg145
(lp334
sg147
g58
sg148
Nsg149
Nsg150
Nsbag3
(g4
g5
NtRp335
(dp336
g8
g10
sg128
Nsg129
(dp337
sg131
Nsg25
g27
sg132
(lp338
I5
aI6
asg134
Nsg135
VMishnah Arakhin 5:6
p339
sg137
(lp340
sg139
g92
sg140
Nsg141
(lp341
I5
aI6
asg143
Nsg144
g339
sg145
(lp342
sg147
g58
sg148
Nsg149
Nsg150
Nsbag3
(g4
g5
NtRp343
(dp344
g8
g10
sg128
Nsg129
(dp345
sg131
Nsg25
g27
sg132
(lp346
I6
aI1
asg134
Nsg135
VMishnah Arakhin 6:1
p347
sg137
(lp348
sg139
g92
sg140
Nsg141
(lp349
I6
aI1
asg143
Nsg144
g347
sg145
(lp350
sg147
g58
sg148
Nsg149
Nsg150
Nsbag3
(g4
g5
NtRp351
(dp352
g8
g10
sg128
Nsg129
(dp353
sg131
Nsg25
g27
sg132
(lp354
I6
aI2
asg134
Nsg135
VMishnah Arakhin 6:2
p355
sg137
(lp356
sg139
g92
sg140
Nsg141
(lp357
I6
aI2
asg143
Nsg144
g355
sg145
(lp358
sg147
g58
sg148
Nsg149
Nsg150
Nsbag3
(g4
g5
NtRp359
(dp360
g8
g10
sg128
Nsg129
(dp361
sg131
Nsg25
g27
sg132
(lp362
I6
aI3
asg134
Nsg135
VMishnah Arakhin 6:3
p363
sg137
(lp364
sg139
g92
sg140
Nsg141
(lp365
I6
aI3
asg143
Nsg144
g363
sg145
(lp366
sg147
g58
sg148
Nsg149
Nsg150
Nsbag3
(g4
g5
NtRp367
(dp368
g8
g10
sg128
Nsg129
(dp369
sg131
Nsg25
g27
sg132
(lp370
I6
aI4
asg134
Nsg135
VMishnah Arakhin 6:4
p371
sg137
(lp372
sg139
g92
sg140
Nsg141
(lp373
I6
aI4
asg143
Nsg144
g371
sg145
(lp374
sg147
g58
sg148
Nsg149
Nsg150
Nsbag3
(g4
g5
NtRp375
(dp376
g8
g10
sg128
Nsg129
(dp377
sg131
Nsg25
g27
sg132
(lp378
I6
aI5
asg134
Nsg135
VMishnah Arakhin 6:5
p379
sg137
(lp380
sg139
g92
sg140
Nsg141
(lp381
I6
aI5
asg143
Nsg144
g379
sg145
(lp382
sg147
g58
sg148
Nsg149
Nsg150
Nsbag3
(g4
g5
NtRp383
(dp384
g8
g10
sg128
Nsg129
(dp385
sg131
Nsg25
g27
sg132
(lp386
I7
aI1
asg134
Nsg135
VMishnah Arakhin 7:1
p387
sg137
(lp388
sg139
g92
sg140
Nsg141
(lp389
I7
aI1
asg143
Nsg144
g387
sg145
(lp390
sg147
g58
sg148
Nsg149
Nsg150
Nsbag3
(g4
g5
NtRp391
(dp392
g8
g10
sg128
Nsg129
(dp393
sg131
Nsg25
g27
sg132
(lp394
I7
aI2
asg134
Nsg135
VMishnah Arakhin 7:2
p395
sg137
(lp396
sg139
g92
sg140
Nsg141
(lp397
I7
aI2
asg143
Nsg144
g395
sg145
(lp398
sg147
g58
sg148
Nsg149
Nsg150
Nsbag3
(g4
g5
NtRp399
(dp400
g8
g10
sg128
Nsg129
(dp401
sg131
Nsg25
g27
sg132
(lp402
I7
aI3
asg134
Nsg135
VMishnah Arakhin 7:3
p403
sg137
(lp404
sg139
g92
sg140
Nsg141
(lp405
I7
aI3
asg143
Nsg144
g403
sg145
(lp406
sg147
g58
sg148
Nsg149
Nsg150
Nsbag3
(g4
g5
NtRp407
(dp408
g8
g10
sg128
Nsg129
(dp409
sg131
Nsg25
g27
sg132
(lp410
I7
aI4
asg134
Nsg135
VMishnah Arakhin 7:4
p411
sg137
(lp412
sg139
g92
sg140
Nsg141
(lp413
I7
aI4
asg143
Nsg144
g411
sg145
(lp414
sg147
g58
sg148
Nsg149
Nsg150
Nsbag3
(g4
g5
NtRp415
(dp416
g8
g10
sg128
Nsg129
(dp417
sg131
Nsg25
g27
sg132
(lp418
I7
aI5
asg134
Nsg135
VMishnah Arakhin 7:5
p419
sg137
(lp420
sg139
g92
sg140
Nsg141
(lp421
I7
aI5
asg143
Nsg144
g419
sg145
(lp422
sg147
g58
sg148
Nsg149
Nsg150
Nsbag3
(g4
g5
NtRp423
(dp424
g8
g10
sg128
Nsg129
(dp425
sg131
Nsg25
g27
sg132
(lp426
I8
aI1
asg134
Nsg135
VMishnah Arakhin 8:1
p427
sg137
(lp428
sg139
g92
sg140
Nsg141
(lp429
I8
aI1
asg143
Nsg144
g427
sg145
(lp430
sg147
g58
sg148
Nsg149
Nsg150
Nsbag3
(g4
g5
NtRp431
(dp432
g8
g10
sg128
Nsg129
(dp433
sg131
Nsg25
g27
sg132
(lp434
I8
aI2
asg134
Nsg135
VMishnah Arakhin 8:2
p435
sg137
(lp436
sg139
g92
sg140
Nsg141
(lp437
I8
aI2
asg143
Nsg144
g435
sg145
(lp438
sg147
g58
sg148
Nsg149
Nsg150
Nsbag3
(g4
g5
NtRp439
(dp440
g8
g10
sg128
Nsg129
(dp441
sg131
Nsg25
g27
sg132
(lp442
I8
aI3
asg134
Nsg135
VMishnah Arakhin 8:3
p443
sg137
(lp444
sg139
g92
sg140
Nsg141
(lp445
I8
aI3
asg143
Nsg144
g443
sg145
(lp446
sg147
g58
sg148
Nsg149
Nsg150
Nsbag3
(g4
g5
NtRp447
(dp448
g8
g10
sg128
Nsg129
(dp449
sg131
Nsg25
g27
sg132
(lp450
I8
aI4
asg134
Nsg135
VMishnah Arakhin 8:4
p451
sg137
(lp452
sg139
g92
sg140
Nsg141
(lp453
I8
aI4
asg143
Nsg144
g451
sg145
(lp454
sg147
g58
sg148
Nsg149
Nsg150
Nsbag3
(g4
g5
NtRp455
(dp456
g8
g10
sg128
Nsg129
(dp457
sg131
Nsg25
g27
sg132
(lp458
I8
aI5
asg134
Nsg135
VMishnah Arakhin 8:5
p459
sg137
(lp460
sg139
g92
sg140
Nsg141
(lp461
I8
aI5
asg143
Nsg144
g459
sg145
(lp462
sg147
g58
sg148
Nsg149
Nsg150
Nsbag3
(g4
g5
NtRp463
(dp464
g8
g10
sg128
Nsg129
(dp465
sg131
Nsg25
g27
sg132
(lp466
I8
aI6
asg134
Nsg135
VMishnah Arakhin 8:6
p467
sg137
(lp468
sg139
g92
sg140
Nsg141
(lp469
I8
aI6
asg143
Nsg144
g467
sg145
(lp470
sg147
g58
sg148
Nsg149
Nsg150
Nsbag3
(g4
g5
NtRp471
(dp472
g8
g10
sg128
Nsg129
(dp473
sg131
Nsg25
g27
sg132
(lp474
I8
aI7
asg134
Nsg135
VMishnah Arakhin 8:7
p475
sg137
(lp476
sg139
g92
sg140
Nsg141
(lp477
I8
aI7
asg143
Nsg144
g475
sg145
(lp478
sg147
g58
sg148
Nsg149
Nsg150
Nsbag3
(g4
g5
NtRp479
(dp480
g8
g10
sg128
Nsg129
(dp481
sg131
Nsg25
g27
sg132
(lp482
I9
aI1
asg134
Nsg135
VMishnah Arakhin 9:1
p483
sg137
(lp484
sg139
g92
sg140
Nsg141
(lp485
I9
aI1
asg143
Nsg144
g483
sg145
(lp486
sg147
g58
sg148
Nsg149
Nsg150
Nsbag3
(g4
g5
NtRp487
(dp488
g8
g10
sg128
Nsg129
(dp489
sg131
Nsg25
g27
sg132
(lp490
I9
aI2
asg134
Nsg135
VMishnah Arakhin 9:2
p491
sg137
(lp492
sg139
g92
sg140
Nsg141
(lp493
I9
aI2
asg143
Nsg144
g491
sg145
(lp494
sg147
g58
sg148
Nsg149
Nsg150
Nsbag3
(g4
g5
NtRp495
(dp496
g8
g10
sg128
Nsg129
(dp497
sg131
Nsg25
g27
sg132
(lp498
I9
aI3
asg134
Nsg135
VMishnah Arakhin 9:3
p499
sg137
(lp500
sg139
g92
sg140
Nsg141
(lp501
I9
aI3
asg143
Nsg144
g499
sg145
(lp502
sg147
g58
sg148
Nsg149
Nsg150
Nsbag3
(g4
g5
NtRp503
(dp504
g8
g10
sg128
Nsg129
(dp505
sg131
Nsg25
g27
sg132
(lp506
I9
aI4
asg134
Nsg135
VMishnah Arakhin 9:4
p507
sg137
(lp508
sg139
g92
sg140
Nsg141
(lp509
I9
aI4
asg143
Nsg144
g507
sg145
(lp510
sg147
g58
sg148
Nsg149
Nsg150
Nsbag3
(g4
g5
NtRp511
(dp512
g8
g10
sg128
Nsg129
(dp513
sg131
Nsg25
g27
sg132
(lp514
I9
aI5
asg134
Nsg135
VMishnah Arakhin 9:5
p515
sg137
(lp516
sg139
g92
sg140
Nsg141
(lp517
I9
aI5
asg143
Nsg144
g515
sg145
(lp518
sg147
g58
sg148
Nsg149
Nsg150
Nsbag3
(g4
g5
NtRp519
(dp520
g8
g10
sg128
Nsg129
(dp521
sg131
Nsg25
g27
sg132
(lp522
I9
aI6
asg134
Nsg135
VMishnah Arakhin 9:6
p523
sg137
(lp524
sg139
g92
sg140
Nsg141
(lp525
I9
aI6
asg143
Nsg144
g523
sg145
(lp526
sg147
g58
sg148
Nsg149
Nsg150
Nsbag3
(g4
g5
NtRp527
(dp528
g8
g10
sg128
Nsg129
(dp529
sg131
Nsg25
g27
sg132
(lp530
I9
aI7
asg134
Nsg135
VMishnah Arakhin 9:7
p531
sg137
(lp532
sg139
g92
sg140
Nsg141
(lp533
I9
aI7
asg143
Nsg144
g531
sg145
(lp534
sg147
g58
sg148
Nsg149
Nsg150
Nsbag3
(g4
g5
NtRp535
(dp536
g8
g10
sg128
Nsg129
(dp537
sg131
Nsg25
g27
sg132
(lp538
I9
aI8
asg134
Nsg135
VMishnah Arakhin 9:8
p539
sg137
(lp540
sg139
g92
sg140
Nsg141
(lp541
I9
aI8
asg143
Nsg144
g539
sg145
(lp542
sg147
g58
sg148
Nsg149
Nsg150
NsbaI2514
t.