((lp1
I0
aI1447
aI2501
aI5419
aI6422
aI9360
aI11018
aI12198
aI13771
aI14607
aI18267
aI21194
aI24115
aI25789
aI30696
aI35610
aI37568
aI39391
aI40787
aI41147
aI42995
aI47927
aI49643
aI53384
aI54020
aI55492
aI57940
aI59284
aI60549
aI63025
aI63996
aI67274
aI68128
aI73163
aI73943
aI74964
aI75958
aI76849
aI77078
aI77508
aI80664
aI81843
aI84256
aI86678
aI88674
aI89130
aI90133
a(lp2
ccopy_reg
_reconstructor
p3
(csefaria.model.text
Ref
p4
c__builtin__
object
p5
NtRp6
(dp7
S'index_node'
p8
g3
(csefaria.model.schema
JaggedArrayNode
p9
g5
NtRp10
(dp11
S'_address'
p12
(lp13
VPesikta Rabbati
p14
asS'_full_titles'
p15
(dp16
sVnodeType
p17
VJaggedArrayNode
p18
sS'parent'
p19
NsVaddressTypes
p20
(lp21
VInteger
p22
aVInteger
p23
asS'default'
p24
I00
sS'index'
p25
g3
(csefaria.model.text
Index
p26
g5
NtRp27
(dp28
S'_id'
p29
g3
(cbson.objectid
ObjectId
p30
g5
NtRp31
S'V\x9d\t\xe3\xd6\xe4\xa9y\xb4\n\x11\xf6'
p32
bsS'pkeys_orig_values'
p33
(dp34
S'title'
p35
VPesikta Rabbati
p36
ssS'compDate'
p37
V750
p38
sS'struct_objs'
p39
(dp40
sS'compPlace'
p41
VTalmudic Israel
p42
sS'authors'
p43
(lp44
sS'nodes'
p45
g10
sS'errorMargin'
p46
V150
p47
sS'_title'
p48
g36
sS'categories'
p49
(lp50
VMidrash
p51
aVAggadic Midrash
p52
asS'schema'
p53
(dp54
g17
g18
sg20
g21
sVdepth
p55
I2
sVtitles
p56
(lp57
(dp58
Vlang
p59
Vhe
p60
sVtext
p61
V\u05e4\u05e1\u05d9\u05e7\u05ea\u05d0 \u05e8\u05d1\u05ea\u05d9
p62
sVprimary
p63
I01
sa(dp64
Vlang
p65
Ven
p66
sVtext
p67
VPesikta Rabbati
p68
sVprimary
p69
I01
sasVkey
p70
g14
sVsectionNames
p71
(lp72
VChapter
p73
aVSection
p74
assbsS'_primary_title'
p75
(dp76
sS'title_group'
p77
g3
(csefaria.model.schema
TitleGroup
p78
g5
NtRp79
(dp80
g75
(dp81
S'en'
p82
g68
ssS'titles'
p83
g57
sbsS'_addressTypes'
p84
(lp85
g3
(csefaria.model.schema
AddressInteger
p86
g5
NtRp87
(dp88
S'length'
p89
NsS'order'
p90
I0
sbag3
(g86
g5
NtRp91
(dp92
g89
Nsg90
I1
sbasS'sharedTitle'
p93
Nsg55
I2
sS'_full_title'
p94
(dp95
g82
g68
ssS'key'
p96
g14
sS'checkFirst'
p97
NsS'_regexes'
p98
(dp99
sS'_leaf_nodes'
p100
(lp101
sg71
g72
sS'children'
p102
(lp103
sbsS'_range_index'
p104
NsS'_context'
p105
(dp106
sS'_padded'
p107
Nsg25
g27
sS'sections'
p108
(lp109
I1
aI1
asS'_first_spanned_ref'
p110
NsS'tref'
p111
VPesikta Rabbati 1:1
p112
sS'_spanned_refs'
p113
(lp114
sS'book'
p115
g68
sS'_range_depth'
p116
NsS'toSections'
p117
(lp118
I1
aI1
asS'_url'
p119
NsS'_normal'
p120
g112
sS'_ranged_refs'
p121
(lp122
sS'type'
p123
g51
sS'_prev'
p124
NsS'_he_normal'
p125
NsS'_next'
p126
Nsbag3
(g4
g5
NtRp127
(dp128
g8
g10
sg104
Nsg105
(dp129
sg107
Nsg25
g27
sg108
(lp130
I2
aI1
asg110
Nsg111
VPesikta Rabbati 2:1
p131
sg113
(lp132
sg115
g68
sg116
Nsg117
(lp133
I2
aI1
asg119
Nsg120
g131
sg121
(lp134
sg123
g51
sg124
Nsg125
Nsg126
Nsbag3
(g4
g5
NtRp135
(dp136
g8
g10
sg104
Nsg105
(dp137
sg107
Nsg25
g27
sg108
(lp138
I3
aI1
asg110
Nsg111
VPesikta Rabbati 3:1
p139
sg113
(lp140
sg115
g68
sg116
Nsg117
(lp141
I3
aI1
asg119
Nsg120
g139
sg121
(lp142
sg123
g51
sg124
Nsg125
Nsg126
Nsbag3
(g4
g5
NtRp143
(dp144
g8
g10
sg104
Nsg105
(dp145
sg107
Nsg25
g27
sg108
(lp146
I4
aI1
asg110
Nsg111
VPesikta Rabbati 4:1
p147
sg113
(lp148
sg115
g68
sg116
Nsg117
(lp149
I4
aI1
asg119
Nsg120
g147
sg121
(lp150
sg123
g51
sg124
Nsg125
Nsg126
Nsbag3
(g4
g5
NtRp151
(dp152
g8
g10
sg104
Nsg105
(dp153
sg107
Nsg25
g27
sg108
(lp154
I5
aI1
asg110
Nsg111
VPesikta Rabbati 5:1
p155
sg113
(lp156
sg115
g68
sg116
Nsg117
(lp157
I5
aI1
asg119
Nsg120
g155
sg121
(lp158
sg123
g51
sg124
Nsg125
Nsg126
Nsbag3
(g4
g5
NtRp159
(dp160
g8
g10
sg104
Nsg105
(dp161
sg107
Nsg25
g27
sg108
(lp162
I6
aI1
asg110
Nsg111
VPesikta Rabbati 6:1
p163
sg113
(lp164
sg115
g68
sg116
Nsg117
(lp165
I6
aI1
asg119
Nsg120
g163
sg121
(lp166
sg123
g51
sg124
Nsg125
Nsg126
Nsbag3
(g4
g5
NtRp167
(dp168
g8
g10
sg104
Nsg105
(dp169
sg107
Nsg25
g27
sg108
(lp170
I7
aI1
asg110
Nsg111
VPesikta Rabbati 7:1
p171
sg113
(lp172
sg115
g68
sg116
Nsg117
(lp173
I7
aI1
asg119
Nsg120
g171
sg121
(lp174
sg123
g51
sg124
Nsg125
Nsg126
Nsbag3
(g4
g5
NtRp175
(dp176
g8
g10
sg104
Nsg105
(dp177
sg107
Nsg25
g27
sg108
(lp178
I8
aI1
asg110
Nsg111
VPesikta Rabbati 8:1
p179
sg113
(lp180
sg115
g68
sg116
Nsg117
(lp181
I8
aI1
asg119
Nsg120
g179
sg121
(lp182
sg123
g51
sg124
Nsg125
Nsg126
Nsbag3
(g4
g5
NtRp183
(dp184
g8
g10
sg104
Nsg105
(dp185
sg107
Nsg25
g27
sg108
(lp186
I9
aI1
asg110
Nsg111
VPesikta Rabbati 9:1
p187
sg113
(lp188
sg115
g68
sg116
Nsg117
(lp189
I9
aI1
asg119
Nsg120
g187
sg121
(lp190
sg123
g51
sg124
Nsg125
Nsg126
Nsbag3
(g4
g5
NtRp191
(dp192
g8
g10
sg104
Nsg105
(dp193
sg107
Nsg25
g27
sg108
(lp194
I10
aI1
asg110
Nsg111
VPesikta Rabbati 10:1
p195
sg113
(lp196
sg115
g68
sg116
Nsg117
(lp197
I10
aI1
asg119
Nsg120
g195
sg121
(lp198
sg123
g51
sg124
Nsg125
Nsg126
Nsbag3
(g4
g5
NtRp199
(dp200
g8
g10
sg104
Nsg105
(dp201
sg107
Nsg25
g27
sg108
(lp202
I11
aI1
asg110
Nsg111
VPesikta Rabbati 11:1
p203
sg113
(lp204
sg115
g68
sg116
Nsg117
(lp205
I11
aI1
asg119
Nsg120
g203
sg121
(lp206
sg123
g51
sg124
Nsg125
Nsg126
Nsbag3
(g4
g5
NtRp207
(dp208
g8
g10
sg104
Nsg105
(dp209
sg107
Nsg25
g27
sg108
(lp210
I12
aI1
asg110
Nsg111
VPesikta Rabbati 12:1
p211
sg113
(lp212
sg115
g68
sg116
Nsg117
(lp213
I12
aI1
asg119
Nsg120
g211
sg121
(lp214
sg123
g51
sg124
Nsg125
Nsg126
Nsbag3
(g4
g5
NtRp215
(dp216
g8
g10
sg104
Nsg105
(dp217
sg107
Nsg25
g27
sg108
(lp218
I13
aI1
asg110
Nsg111
VPesikta Rabbati 13:1
p219
sg113
(lp220
sg115
g68
sg116
Nsg117
(lp221
I13
aI1
asg119
Nsg120
g219
sg121
(lp222
sg123
g51
sg124
Nsg125
Nsg126
Nsbag3
(g4
g5
NtRp223
(dp224
g8
g10
sg104
Nsg105
(dp225
sg107
Nsg25
g27
sg108
(lp226
I14
aI1
asg110
Nsg111
VPesikta Rabbati 14:1
p227
sg113
(lp228
sg115
g68
sg116
Nsg117
(lp229
I14
aI1
asg119
Nsg120
g227
sg121
(lp230
sg123
g51
sg124
Nsg125
Nsg126
Nsbag3
(g4
g5
NtRp231
(dp232
g8
g10
sg104
Nsg105
(dp233
sg107
Nsg25
g27
sg108
(lp234
I15
aI1
asg110
Nsg111
VPesikta Rabbati 15:1
p235
sg113
(lp236
sg115
g68
sg116
Nsg117
(lp237
I15
aI1
asg119
Nsg120
g235
sg121
(lp238
sg123
g51
sg124
Nsg125
Nsg126
Nsbag3
(g4
g5
NtRp239
(dp240
g8
g10
sg104
Nsg105
(dp241
sg107
Nsg25
g27
sg108
(lp242
I16
aI1
asg110
Nsg111
VPesikta Rabbati 16:1
p243
sg113
(lp244
sg115
g68
sg116
Nsg117
(lp245
I16
aI1
asg119
Nsg120
g243
sg121
(lp246
sg123
g51
sg124
Nsg125
Nsg126
Nsbag3
(g4
g5
NtRp247
(dp248
g8
g10
sg104
Nsg105
(dp249
sg107
Nsg25
g27
sg108
(lp250
I17
aI1
asg110
Nsg111
VPesikta Rabbati 17:1
p251
sg113
(lp252
sg115
g68
sg116
Nsg117
(lp253
I17
aI1
asg119
Nsg120
g251
sg121
(lp254
sg123
g51
sg124
Nsg125
Nsg126
Nsbag3
(g4
g5
NtRp255
(dp256
g8
g10
sg104
Nsg105
(dp257
sg107
Nsg25
g27
sg108
(lp258
I18
aI1
asg110
Nsg111
VPesikta Rabbati 18:1
p259
sg113
(lp260
sg115
g68
sg116
Nsg117
(lp261
I18
aI1
asg119
Nsg120
g259
sg121
(lp262
sg123
g51
sg124
Nsg125
Nsg126
Nsbag3
(g4
g5
NtRp263
(dp264
g8
g10
sg104
Nsg105
(dp265
sg107
Nsg25
g27
sg108
(lp266
I19
aI1
asg110
Nsg111
VPesikta Rabbati 19:1
p267
sg113
(lp268
sg115
g68
sg116
Nsg117
(lp269
I19
aI1
asg119
Nsg120
g267
sg121
(lp270
sg123
g51
sg124
Nsg125
Nsg126
Nsbag3
(g4
g5
NtRp271
(dp272
g8
g10
sg104
Nsg105
(dp273
sg107
Nsg25
g27
sg108
(lp274
I20
aI1
asg110
Nsg111
VPesikta Rabbati 20:1
p275
sg113
(lp276
sg115
g68
sg116
Nsg117
(lp277
I20
aI1
asg119
Nsg120
g275
sg121
(lp278
sg123
g51
sg124
Nsg125
Nsg126
Nsbag3
(g4
g5
NtRp279
(dp280
g8
g10
sg104
Nsg105
(dp281
sg107
Nsg25
g27
sg108
(lp282
I21
aI1
asg110
Nsg111
VPesikta Rabbati 21:1
p283
sg113
(lp284
sg115
g68
sg116
Nsg117
(lp285
I21
aI1
asg119
Nsg120
g283
sg121
(lp286
sg123
g51
sg124
Nsg125
Nsg126
Nsbag3
(g4
g5
NtRp287
(dp288
g8
g10
sg104
Nsg105
(dp289
sg107
Nsg25
g27
sg108
(lp290
I22
aI1
asg110
Nsg111
VPesikta Rabbati 22:1
p291
sg113
(lp292
sg115
g68
sg116
Nsg117
(lp293
I22
aI1
asg119
Nsg120
g291
sg121
(lp294
sg123
g51
sg124
Nsg125
Nsg126
Nsbag3
(g4
g5
NtRp295
(dp296
g8
g10
sg104
Nsg105
(dp297
sg107
Nsg25
g27
sg108
(lp298
I23
aI1
asg110
Nsg111
VPesikta Rabbati 23:1
p299
sg113
(lp300
sg115
g68
sg116
Nsg117
(lp301
I23
aI1
asg119
Nsg120
g299
sg121
(lp302
sg123
g51
sg124
Nsg125
Nsg126
Nsbag3
(g4
g5
NtRp303
(dp304
g8
g10
sg104
Nsg105
(dp305
sg107
Nsg25
g27
sg108
(lp306
I24
aI1
asg110
Nsg111
VPesikta Rabbati 24:1
p307
sg113
(lp308
sg115
g68
sg116
Nsg117
(lp309
I24
aI1
asg119
Nsg120
g307
sg121
(lp310
sg123
g51
sg124
Nsg125
Nsg126
Nsbag3
(g4
g5
NtRp311
(dp312
g8
g10
sg104
Nsg105
(dp313
sg107
Nsg25
g27
sg108
(lp314
I25
aI1
asg110
Nsg111
VPesikta Rabbati 25:1
p315
sg113
(lp316
sg115
g68
sg116
Nsg117
(lp317
I25
aI1
asg119
Nsg120
g315
sg121
(lp318
sg123
g51
sg124
Nsg125
Nsg126
Nsbag3
(g4
g5
NtRp319
(dp320
g8
g10
sg104
Nsg105
(dp321
sg107
Nsg25
g27
sg108
(lp322
I26
aI1
asg110
Nsg111
VPesikta Rabbati 26:1
p323
sg113
(lp324
sg115
g68
sg116
Nsg117
(lp325
I26
aI1
asg119
Nsg120
g323
sg121
(lp326
sg123
g51
sg124
Nsg125
Nsg126
Nsbag3
(g4
g5
NtRp327
(dp328
g8
g10
sg104
Nsg105
(dp329
sg107
Nsg25
g27
sg108
(lp330
I27
aI1
asg110
Nsg111
VPesikta Rabbati 27:1
p331
sg113
(lp332
sg115
g68
sg116
Nsg117
(lp333
I27
aI1
asg119
Nsg120
g331
sg121
(lp334
sg123
g51
sg124
Nsg125
Nsg126
Nsbag3
(g4
g5
NtRp335
(dp336
g8
g10
sg104
Nsg105
(dp337
sg107
Nsg25
g27
sg108
(lp338
I28
aI1
asg110
Nsg111
VPesikta Rabbati 28:1
p339
sg113
(lp340
sg115
g68
sg116
Nsg117
(lp341
I28
aI1
asg119
Nsg120
g339
sg121
(lp342
sg123
g51
sg124
Nsg125
Nsg126
Nsbag3
(g4
g5
NtRp343
(dp344
g8
g10
sg104
Nsg105
(dp345
sg107
Nsg25
g27
sg108
(lp346
I29
aI1
asg110
Nsg111
VPesikta Rabbati 29:1
p347
sg113
(lp348
sg115
g68
sg116
Nsg117
(lp349
I29
aI1
asg119
Nsg120
g347
sg121
(lp350
sg123
g51
sg124
Nsg125
Nsg126
Nsbag3
(g4
g5
NtRp351
(dp352
g8
g10
sg104
Nsg105
(dp353
sg107
Nsg25
g27
sg108
(lp354
I30
aI1
asg110
Nsg111
VPesikta Rabbati 30:1
p355
sg113
(lp356
sg115
g68
sg116
Nsg117
(lp357
I30
aI1
asg119
Nsg120
g355
sg121
(lp358
sg123
g51
sg124
Nsg125
Nsg126
Nsbag3
(g4
g5
NtRp359
(dp360
g8
g10
sg104
Nsg105
(dp361
sg107
Nsg25
g27
sg108
(lp362
I31
aI1
asg110
Nsg111
VPesikta Rabbati 31:1
p363
sg113
(lp364
sg115
g68
sg116
Nsg117
(lp365
I31
aI1
asg119
Nsg120
g363
sg121
(lp366
sg123
g51
sg124
Nsg125
Nsg126
Nsbag3
(g4
g5
NtRp367
(dp368
g8
g10
sg104
Nsg105
(dp369
sg107
Nsg25
g27
sg108
(lp370
I32
aI1
asg110
Nsg111
VPesikta Rabbati 32:1
p371
sg113
(lp372
sg115
g68
sg116
Nsg117
(lp373
I32
aI1
asg119
Nsg120
g371
sg121
(lp374
sg123
g51
sg124
Nsg125
Nsg126
Nsbag3
(g4
g5
NtRp375
(dp376
g8
g10
sg104
Nsg105
(dp377
sg107
Nsg25
g27
sg108
(lp378
I33
aI1
asg110
Nsg111
VPesikta Rabbati 33:1
p379
sg113
(lp380
sg115
g68
sg116
Nsg117
(lp381
I33
aI1
asg119
Nsg120
g379
sg121
(lp382
sg123
g51
sg124
Nsg125
Nsg126
Nsbag3
(g4
g5
NtRp383
(dp384
g8
g10
sg104
Nsg105
(dp385
sg107
Nsg25
g27
sg108
(lp386
I34
aI1
asg110
Nsg111
VPesikta Rabbati 34:1
p387
sg113
(lp388
sg115
g68
sg116
Nsg117
(lp389
I34
aI1
asg119
Nsg120
g387
sg121
(lp390
sg123
g51
sg124
Nsg125
Nsg126
Nsbag3
(g4
g5
NtRp391
(dp392
g8
g10
sg104
Nsg105
(dp393
sg107
Nsg25
g27
sg108
(lp394
I35
aI1
asg110
Nsg111
VPesikta Rabbati 35:1
p395
sg113
(lp396
sg115
g68
sg116
Nsg117
(lp397
I35
aI1
asg119
Nsg120
g395
sg121
(lp398
sg123
g51
sg124
Nsg125
Nsg126
Nsbag3
(g4
g5
NtRp399
(dp400
g8
g10
sg104
Nsg105
(dp401
sg107
Nsg25
g27
sg108
(lp402
I36
aI1
asg110
Nsg111
VPesikta Rabbati 36:1
p403
sg113
(lp404
sg115
g68
sg116
Nsg117
(lp405
I36
aI1
asg119
Nsg120
g403
sg121
(lp406
sg123
g51
sg124
Nsg125
Nsg126
Nsbag3
(g4
g5
NtRp407
(dp408
g8
g10
sg104
Nsg105
(dp409
sg107
Nsg25
g27
sg108
(lp410
I37
aI1
asg110
Nsg111
VPesikta Rabbati 37:1
p411
sg113
(lp412
sg115
g68
sg116
Nsg117
(lp413
I37
aI1
asg119
Nsg120
g411
sg121
(lp414
sg123
g51
sg124
Nsg125
Nsg126
Nsbag3
(g4
g5
NtRp415
(dp416
g8
g10
sg104
Nsg105
(dp417
sg107
Nsg25
g27
sg108
(lp418
I38
aI1
asg110
Nsg111
VPesikta Rabbati 38:1
p419
sg113
(lp420
sg115
g68
sg116
Nsg117
(lp421
I38
aI1
asg119
Nsg120
g419
sg121
(lp422
sg123
g51
sg124
Nsg125
Nsg126
Nsbag3
(g4
g5
NtRp423
(dp424
g8
g10
sg104
Nsg105
(dp425
sg107
Nsg25
g27
sg108
(lp426
I39
aI1
asg110
Nsg111
VPesikta Rabbati 39:1
p427
sg113
(lp428
sg115
g68
sg116
Nsg117
(lp429
I39
aI1
asg119
Nsg120
g427
sg121
(lp430
sg123
g51
sg124
Nsg125
Nsg126
Nsbag3
(g4
g5
NtRp431
(dp432
g8
g10
sg104
Nsg105
(dp433
sg107
Nsg25
g27
sg108
(lp434
I40
aI1
asg110
Nsg111
VPesikta Rabbati 40:1
p435
sg113
(lp436
sg115
g68
sg116
Nsg117
(lp437
I40
aI1
asg119
Nsg120
g435
sg121
(lp438
sg123
g51
sg124
Nsg125
Nsg126
Nsbag3
(g4
g5
NtRp439
(dp440
g8
g10
sg104
Nsg105
(dp441
sg107
Nsg25
g27
sg108
(lp442
I41
aI1
asg110
Nsg111
VPesikta Rabbati 41:1
p443
sg113
(lp444
sg115
g68
sg116
Nsg117
(lp445
I41
aI1
asg119
Nsg120
g443
sg121
(lp446
sg123
g51
sg124
Nsg125
Nsg126
Nsbag3
(g4
g5
NtRp447
(dp448
g8
g10
sg104
Nsg105
(dp449
sg107
Nsg25
g27
sg108
(lp450
I42
aI1
asg110
Nsg111
VPesikta Rabbati 42:1
p451
sg113
(lp452
sg115
g68
sg116
Nsg117
(lp453
I42
aI1
asg119
Nsg120
g451
sg121
(lp454
sg123
g51
sg124
Nsg125
Nsg126
Nsbag3
(g4
g5
NtRp455
(dp456
g8
g10
sg104
Nsg105
(dp457
sg107
Nsg25
g27
sg108
(lp458
I43
aI1
asg110
Nsg111
VPesikta Rabbati 43:1
p459
sg113
(lp460
sg115
g68
sg116
Nsg117
(lp461
I43
aI1
asg119
Nsg120
g459
sg121
(lp462
sg123
g51
sg124
Nsg125
Nsg126
Nsbag3
(g4
g5
NtRp463
(dp464
g8
g10
sg104
Nsg105
(dp465
sg107
Nsg25
g27
sg108
(lp466
I44
aI1
asg110
Nsg111
VPesikta Rabbati 44:1
p467
sg113
(lp468
sg115
g68
sg116
Nsg117
(lp469
I44
aI1
asg119
Nsg120
g467
sg121
(lp470
sg123
g51
sg124
Nsg125
Nsg126
Nsbag3
(g4
g5
NtRp471
(dp472
g8
g10
sg104
Nsg105
(dp473
sg107
Nsg25
g27
sg108
(lp474
I45
aI1
asg110
Nsg111
VPesikta Rabbati 45:1
p475
sg113
(lp476
sg115
g68
sg116
Nsg117
(lp477
I45
aI1
asg119
Nsg120
g475
sg121
(lp478
sg123
g51
sg124
Nsg125
Nsg126
Nsbag3
(g4
g5
NtRp479
(dp480
g8
g10
sg104
Nsg105
(dp481
sg107
Nsg25
g27
sg108
(lp482
I46
aI1
asg110
Nsg111
VPesikta Rabbati 46:1
p483
sg113
(lp484
sg115
g68
sg116
Nsg117
(lp485
I46
aI1
asg119
Nsg120
g483
sg121
(lp486
sg123
g51
sg124
Nsg125
Nsg126
Nsbag3
(g4
g5
NtRp487
(dp488
g8
g10
sg104
Nsg105
(dp489
sg107
Nsg25
g27
sg108
(lp490
I47
aI1
asg110
Nsg111
VPesikta Rabbati 47:1
p491
sg113
(lp492
sg115
g68
sg116
Nsg117
(lp493
I47
aI1
asg119
Nsg120
g491
sg121
(lp494
sg123
g51
sg124
Nsg125
Nsg126
NsbaI92000
t.