((lp1
I0
aI28
aI49
aI83
aI115
aI159
aI183
aI196
aI230
aI246
aI261
aI283
aI302
aI319
aI336
aI353
aI367
aI392
aI414
aI472
aI522
aI542
aI596
aI624
aI641
aI694
aI823
aI938
aI984
aI998
aI1019
aI1057
aI1081
aI1095
aI1131
aI1181
aI1270
aI1321
aI1338
aI1367
aI1430
aI1474
aI1529
aI1565
aI1612
aI1651
aI1665
aI1685
aI1748
aI1759
aI1805
aI1940
aI1956
aI2016
aI2039
aI2064
aI2096
aI2148
aI2167
aI2188
aI2208
aI2227
aI2259
aI2301
aI2320
aI2348
aI2368
aI2397
aI2413
aI2440
aI2467
aI2486
aI2561
aI2573
aI2660
aI2692
aI2735
aI2752
aI2790
aI2859
aI2898
aI2944
aI3011
aI3074
aI3106
aI3133
aI3162
aI3193
aI3218
aI3251
aI3282
aI3313
aI3368
aI3457
aI3496
aI3550
aI3573
aI3580
aI3671
aI3747
aI3858
aI3892
aI3921
aI4078
aI4172
aI4258
aI4402
aI4539
a(lp2
ccopy_reg
_reconstructor
p3
(csefaria.model.text
Ref
p4
c__builtin__
object
p5
NtRp6
(dp7
S'index_node'
p8
g3
(csefaria.model.schema
JaggedArrayNode
p9
g5
NtRp10
(dp11
S'_address'
p12
(lp13
VPirkei Avot
p14
asS'_full_titles'
p15
(dp16
sVnodeType
p17
VJaggedArrayNode
p18
sS'parent'
p19
NsVaddressTypes
p20
(lp21
VPerek
p22
aVMishnah
p23
asS'default'
p24
I00
sS'index'
p25
g3
(csefaria.model.text
Index
p26
g5
NtRp27
(dp28
S'_id'
p29
g3
(cbson.objectid
ObjectId
p30
g5
NtRp31
S'NJ\xb8\x8f\xed\xba\xb4X3\x00\x00M'
p32
bsS'pkeys_orig_values'
p33
(dp34
S'title'
p35
VPirkei Avot
p36
ssS'pubDate'
p37
V1492
p38
sS'compDate'
p39
V210
p40
sS'pubPlace'
p41
VNaples
p42
sS'compPlace'
p43
VTalmudic Israel
p44
sS'enDesc'
p45
VThe Mishnah is the first major written redaction of the Jewish oral traditions known as the Oral Torah. The Mishnah was redacted by Rabbi Yehudah Ha-Nasi before his death around 217 CE, in a time when, according to the Talmud, the persecution of the Jews and the passage of time raised the possibility that the details of the oral traditions of the Pharisees from the Second Temple period (536 BCE \u2013 70 CE) would be forgotten. The majority of the Mishnah is written in Mishnaic Hebrew, while some parts are Aramaic. The Mishnah consists of six orders (sedarim, singular seder), each containing 7\u201312 tractates (masekhtot, singular masekhet), numbering 63 in total and further subdivided into chapters and paragraphs or verses. The word Mishnah can also indicate a single paragraph or a verse of the work itself, i.e. the smallest unit of structure in the Mishnah. For this reason the whole work is sometimes called by the plural, Mishnayot. Avot (Fathers) belongs to the fourth order, Nezikin (The Order of Damages) and presents the laws of interactions between Jews and Gentiles and/or idolaters (from a Jewish perspective). It has five chapters.
p46
sS'order'
p47
(lp48
I39
aI9
asS'era'
p49
VT
sS'struct_objs'
p50
(dp51
sS'nodes'
p52
g10
sS'errorMargin'
p53
V20
p54
sS'_title'
p55
g36
sS'categories'
p56
(lp57
VMishnah
p58
aVSeder Nezikin
p59
asS'schema'
p60
(dp61
g17
g18
sg20
g21
sVlengths
p62
(lp63
I6
aI108
asVdepth
p64
I2
sVtitles
p65
(lp66
(dp67
Vlang
p68
Ven
p69
sVtext
p70
VAvot
p71
sa(dp72
Vlang
p73
Ven
p74
sVtext
p75
VM Avot
p76
sa(dp77
Vlang
p78
Ven
p79
sVtext
p80
VMishna Avot
p81
sa(dp82
Vlang
p83
Ven
p84
sVtext
p85
VM. Avot
p86
sa(dp87
Vlang
p88
Ven
p89
sVtext
p90
VAvoth
p91
sa(dp92
Vlang
p93
Ven
p94
sVtext
p95
VPerkei Avot
p96
sa(dp97
Vlang
p98
Ven
p99
sVtext
p100
VMishnah Avot
p101
sa(dp102
Vlang
p103
Vhe
p104
sVtext
p105
V\u05de\u05e9\u05e0\u05d4 \u05d0\u05d1\u05d5\u05ea
p106
sVprimary
p107
I01
sa(dp108
Vlang
p109
Vhe
p110
sVtext
p111
V\u05d0\u05d1\u05d5\u05ea
p112
sa(dp113
Vlang
p114
Ven
p115
sVtext
p116
VPirkei Avot
p117
sVprimary
p118
I01
sasVkey
p119
g14
sVsectionNames
p120
(lp121
VChapter
p122
aVMishna
p123
assbsS'_primary_title'
p124
(dp125
sS'title_group'
p126
g3
(csefaria.model.schema
TitleGroup
p127
g5
NtRp128
(dp129
g124
(dp130
S'en'
p131
g117
ssS'titles'
p132
g66
sbsS'_addressTypes'
p133
(lp134
g3
(csefaria.model.schema
AddressPerek
p135
g5
NtRp136
(dp137
S'length'
p138
I6
sg47
I0
sbag3
(csefaria.model.schema
AddressMishnah
p139
g5
NtRp140
(dp141
g138
Nsg47
I1
sbasS'sharedTitle'
p142
Nsg62
g63
sg64
I2
sS'_full_title'
p143
(dp144
g131
g117
ssS'key'
p145
g14
sS'checkFirst'
p146
NsS'_regexes'
p147
(dp148
sS'_leaf_nodes'
p149
(lp150
sg120
g121
sS'children'
p151
(lp152
sbsS'_range_index'
p153
NsS'_context'
p154
(dp155
sS'_padded'
p156
Nsg25
g27
sS'sections'
p157
(lp158
I1
aI1
asS'_first_spanned_ref'
p159
NsS'tref'
p160
VPirkei Avot 1:1
p161
sS'_spanned_refs'
p162
(lp163
sS'book'
p164
g117
sS'_range_depth'
p165
NsS'toSections'
p166
(lp167
I1
aI1
asS'_url'
p168
NsS'_normal'
p169
g161
sS'_ranged_refs'
p170
(lp171
sS'type'
p172
g58
sS'_prev'
p173
NsS'_he_normal'
p174
NsS'_next'
p175
Nsbag3
(g4
g5
NtRp176
(dp177
g8
g10
sg153
Nsg154
(dp178
sg156
Nsg25
g27
sg157
(lp179
I1
aI2
asg159
Nsg160
VPirkei Avot 1:2
p180
sg162
(lp181
sg164
g117
sg165
Nsg166
(lp182
I1
aI2
asg168
Nsg169
g180
sg170
(lp183
sg172
g58
sg173
Nsg174
Nsg175
Nsbag3
(g4
g5
NtRp184
(dp185
g8
g10
sg153
Nsg154
(dp186
sg156
Nsg25
g27
sg157
(lp187
I1
aI3
asg159
Nsg160
VPirkei Avot 1:3
p188
sg162
(lp189
sg164
g117
sg165
Nsg166
(lp190
I1
aI3
asg168
Nsg169
g188
sg170
(lp191
sg172
g58
sg173
Nsg174
Nsg175
Nsbag3
(g4
g5
NtRp192
(dp193
g8
g10
sg153
Nsg154
(dp194
sg156
Nsg25
g27
sg157
(lp195
I1
aI4
asg159
Nsg160
VPirkei Avot 1:4
p196
sg162
(lp197
sg164
g117
sg165
Nsg166
(lp198
I1
aI4
asg168
Nsg169
g196
sg170
(lp199
sg172
g58
sg173
Nsg174
Nsg175
Nsbag3
(g4
g5
NtRp200
(dp201
g8
g10
sg153
Nsg154
(dp202
sg156
Nsg25
g27
sg157
(lp203
I1
aI5
asg159
Nsg160
VPirkei Avot 1:5
p204
sg162
(lp205
sg164
g117
sg165
Nsg166
(lp206
I1
aI5
asg168
Nsg169
g204
sg170
(lp207
sg172
g58
sg173
Nsg174
Nsg175
Nsbag3
(g4
g5
NtRp208
(dp209
g8
g10
sg153
Nsg154
(dp210
sg156
Nsg25
g27
sg157
(lp211
I1
aI6
asg159
Nsg160
VPirkei Avot 1:6
p212
sg162
(lp213
sg164
g117
sg165
Nsg166
(lp214
I1
aI6
asg168
Nsg169
g212
sg170
(lp215
sg172
g58
sg173
Nsg174
Nsg175
Nsbag3
(g4
g5
NtRp216
(dp217
g8
g10
sg153
Nsg154
(dp218
sg156
Nsg25
g27
sg157
(lp219
I1
aI7
asg159
Nsg160
VPirkei Avot 1:7
p220
sg162
(lp221
sg164
g117
sg165
Nsg166
(lp222
I1
aI7
asg168
Nsg169
g220
sg170
(lp223
sg172
g58
sg173
Nsg174
Nsg175
Nsbag3
(g4
g5
NtRp224
(dp225
g8
g10
sg153
Nsg154
(dp226
sg156
Nsg25
g27
sg157
(lp227
I1
aI8
asg159
Nsg160
VPirkei Avot 1:8
p228
sg162
(lp229
sg164
g117
sg165
Nsg166
(lp230
I1
aI8
asg168
Nsg169
g228
sg170
(lp231
sg172
g58
sg173
Nsg174
Nsg175
Nsbag3
(g4
g5
NtRp232
(dp233
g8
g10
sg153
Nsg154
(dp234
sg156
Nsg25
g27
sg157
(lp235
I1
aI9
asg159
Nsg160
VPirkei Avot 1:9
p236
sg162
(lp237
sg164
g117
sg165
Nsg166
(lp238
I1
aI9
asg168
Nsg169
g236
sg170
(lp239
sg172
g58
sg173
Nsg174
Nsg175
Nsbag3
(g4
g5
NtRp240
(dp241
g8
g10
sg153
Nsg154
(dp242
sg156
Nsg25
g27
sg157
(lp243
I1
aI10
asg159
Nsg160
VPirkei Avot 1:10
p244
sg162
(lp245
sg164
g117
sg165
Nsg166
(lp246
I1
aI10
asg168
Nsg169
g244
sg170
(lp247
sg172
g58
sg173
Nsg174
Nsg175
Nsbag3
(g4
g5
NtRp248
(dp249
g8
g10
sg153
Nsg154
(dp250
sg156
Nsg25
g27
sg157
(lp251
I1
aI11
asg159
Nsg160
VPirkei Avot 1:11
p252
sg162
(lp253
sg164
g117
sg165
Nsg166
(lp254
I1
aI11
asg168
Nsg169
g252
sg170
(lp255
sg172
g58
sg173
Nsg174
Nsg175
Nsbag3
(g4
g5
NtRp256
(dp257
g8
g10
sg153
Nsg154
(dp258
sg156
Nsg25
g27
sg157
(lp259
I1
aI12
asg159
Nsg160
VPirkei Avot 1:12
p260
sg162
(lp261
sg164
g117
sg165
Nsg166
(lp262
I1
aI12
asg168
Nsg169
g260
sg170
(lp263
sg172
g58
sg173
Nsg174
Nsg175
Nsbag3
(g4
g5
NtRp264
(dp265
g8
g10
sg153
Nsg154
(dp266
sg156
Nsg25
g27
sg157
(lp267
I1
aI13
asg159
Nsg160
VPirkei Avot 1:13
p268
sg162
(lp269
sg164
g117
sg165
Nsg166
(lp270
I1
aI13
asg168
Nsg169
g268
sg170
(lp271
sg172
g58
sg173
Nsg174
Nsg175
Nsbag3
(g4
g5
NtRp272
(dp273
g8
g10
sg153
Nsg154
(dp274
sg156
Nsg25
g27
sg157
(lp275
I1
aI14
asg159
Nsg160
VPirkei Avot 1:14
p276
sg162
(lp277
sg164
g117
sg165
Nsg166
(lp278
I1
aI14
asg168
Nsg169
g276
sg170
(lp279
sg172
g58
sg173
Nsg174
Nsg175
Nsbag3
(g4
g5
NtRp280
(dp281
g8
g10
sg153
Nsg154
(dp282
sg156
Nsg25
g27
sg157
(lp283
I1
aI15
asg159
Nsg160
VPirkei Avot 1:15
p284
sg162
(lp285
sg164
g117
sg165
Nsg166
(lp286
I1
aI15
asg168
Nsg169
g284
sg170
(lp287
sg172
g58
sg173
Nsg174
Nsg175
Nsbag3
(g4
g5
NtRp288
(dp289
g8
g10
sg153
Nsg154
(dp290
sg156
Nsg25
g27
sg157
(lp291
I1
aI16
asg159
Nsg160
VPirkei Avot 1:16
p292
sg162
(lp293
sg164
g117
sg165
Nsg166
(lp294
I1
aI16
asg168
Nsg169
g292
sg170
(lp295
sg172
g58
sg173
Nsg174
Nsg175
Nsbag3
(g4
g5
NtRp296
(dp297
g8
g10
sg153
Nsg154
(dp298
sg156
Nsg25
g27
sg157
(lp299
I1
aI17
asg159
Nsg160
VPirkei Avot 1:17
p300
sg162
(lp301
sg164
g117
sg165
Nsg166
(lp302
I1
aI17
asg168
Nsg169
g300
sg170
(lp303
sg172
g58
sg173
Nsg174
Nsg175
Nsbag3
(g4
g5
NtRp304
(dp305
g8
g10
sg153
Nsg154
(dp306
sg156
Nsg25
g27
sg157
(lp307
I1
aI18
asg159
Nsg160
VPirkei Avot 1:18
p308
sg162
(lp309
sg164
g117
sg165
Nsg166
(lp310
I1
aI18
asg168
Nsg169
g308
sg170
(lp311
sg172
g58
sg173
Nsg174
Nsg175
Nsbag3
(g4
g5
NtRp312
(dp313
g8
g10
sg153
Nsg154
(dp314
sg156
Nsg25
g27
sg157
(lp315
I2
aI1
asg159
Nsg160
VPirkei Avot 2:1
p316
sg162
(lp317
sg164
g117
sg165
Nsg166
(lp318
I2
aI1
asg168
Nsg169
g316
sg170
(lp319
sg172
g58
sg173
Nsg174
Nsg175
Nsbag3
(g4
g5
NtRp320
(dp321
g8
g10
sg153
Nsg154
(dp322
sg156
Nsg25
g27
sg157
(lp323
I2
aI2
asg159
Nsg160
VPirkei Avot 2:2
p324
sg162
(lp325
sg164
g117
sg165
Nsg166
(lp326
I2
aI2
asg168
Nsg169
g324
sg170
(lp327
sg172
g58
sg173
Nsg174
Nsg175
Nsbag3
(g4
g5
NtRp328
(dp329
g8
g10
sg153
Nsg154
(dp330
sg156
Nsg25
g27
sg157
(lp331
I2
aI3
asg159
Nsg160
VPirkei Avot 2:3
p332
sg162
(lp333
sg164
g117
sg165
Nsg166
(lp334
I2
aI3
asg168
Nsg169
g332
sg170
(lp335
sg172
g58
sg173
Nsg174
Nsg175
Nsbag3
(g4
g5
NtRp336
(dp337
g8
g10
sg153
Nsg154
(dp338
sg156
Nsg25
g27
sg157
(lp339
I2
aI4
asg159
Nsg160
VPirkei Avot 2:4
p340
sg162
(lp341
sg164
g117
sg165
Nsg166
(lp342
I2
aI4
asg168
Nsg169
g340
sg170
(lp343
sg172
g58
sg173
Nsg174
Nsg175
Nsbag3
(g4
g5
NtRp344
(dp345
g8
g10
sg153
Nsg154
(dp346
sg156
Nsg25
g27
sg157
(lp347
I2
aI5
asg159
Nsg160
VPirkei Avot 2:5
p348
sg162
(lp349
sg164
g117
sg165
Nsg166
(lp350
I2
aI5
asg168
Nsg169
g348
sg170
(lp351
sg172
g58
sg173
Nsg174
Nsg175
Nsbag3
(g4
g5
NtRp352
(dp353
g8
g10
sg153
Nsg154
(dp354
sg156
Nsg25
g27
sg157
(lp355
I2
aI6
asg159
Nsg160
VPirkei Avot 2:6
p356
sg162
(lp357
sg164
g117
sg165
Nsg166
(lp358
I2
aI6
asg168
Nsg169
g356
sg170
(lp359
sg172
g58
sg173
Nsg174
Nsg175
Nsbag3
(g4
g5
NtRp360
(dp361
g8
g10
sg153
Nsg154
(dp362
sg156
Nsg25
g27
sg157
(lp363
I2
aI7
asg159
Nsg160
VPirkei Avot 2:7
p364
sg162
(lp365
sg164
g117
sg165
Nsg166
(lp366
I2
aI7
asg168
Nsg169
g364
sg170
(lp367
sg172
g58
sg173
Nsg174
Nsg175
Nsbag3
(g4
g5
NtRp368
(dp369
g8
g10
sg153
Nsg154
(dp370
sg156
Nsg25
g27
sg157
(lp371
I2
aI8
asg159
Nsg160
VPirkei Avot 2:8
p372
sg162
(lp373
sg164
g117
sg165
Nsg166
(lp374
I2
aI8
asg168
Nsg169
g372
sg170
(lp375
sg172
g58
sg173
Nsg174
Nsg175
Nsbag3
(g4
g5
NtRp376
(dp377
g8
g10
sg153
Nsg154
(dp378
sg156
Nsg25
g27
sg157
(lp379
I2
aI9
asg159
Nsg160
VPirkei Avot 2:9
p380
sg162
(lp381
sg164
g117
sg165
Nsg166
(lp382
I2
aI9
asg168
Nsg169
g380
sg170
(lp383
sg172
g58
sg173
Nsg174
Nsg175
Nsbag3
(g4
g5
NtRp384
(dp385
g8
g10
sg153
Nsg154
(dp386
sg156
Nsg25
g27
sg157
(lp387
I2
aI10
asg159
Nsg160
VPirkei Avot 2:10
p388
sg162
(lp389
sg164
g117
sg165
Nsg166
(lp390
I2
aI10
asg168
Nsg169
g388
sg170
(lp391
sg172
g58
sg173
Nsg174
Nsg175
Nsbag3
(g4
g5
NtRp392
(dp393
g8
g10
sg153
Nsg154
(dp394
sg156
Nsg25
g27
sg157
(lp395
I2
aI11
asg159
Nsg160
VPirkei Avot 2:11
p396
sg162
(lp397
sg164
g117
sg165
Nsg166
(lp398
I2
aI11
asg168
Nsg169
g396
sg170
(lp399
sg172
g58
sg173
Nsg174
Nsg175
Nsbag3
(g4
g5
NtRp400
(dp401
g8
g10
sg153
Nsg154
(dp402
sg156
Nsg25
g27
sg157
(lp403
I2
aI12
asg159
Nsg160
VPirkei Avot 2:12
p404
sg162
(lp405
sg164
g117
sg165
Nsg166
(lp406
I2
aI12
asg168
Nsg169
g404
sg170
(lp407
sg172
g58
sg173
Nsg174
Nsg175
Nsbag3
(g4
g5
NtRp408
(dp409
g8
g10
sg153
Nsg154
(dp410
sg156
Nsg25
g27
sg157
(lp411
I2
aI13
asg159
Nsg160
VPirkei Avot 2:13
p412
sg162
(lp413
sg164
g117
sg165
Nsg166
(lp414
I2
aI13
asg168
Nsg169
g412
sg170
(lp415
sg172
g58
sg173
Nsg174
Nsg175
Nsbag3
(g4
g5
NtRp416
(dp417
g8
g10
sg153
Nsg154
(dp418
sg156
Nsg25
g27
sg157
(lp419
I2
aI14
asg159
Nsg160
VPirkei Avot 2:14
p420
sg162
(lp421
sg164
g117
sg165
Nsg166
(lp422
I2
aI14
asg168
Nsg169
g420
sg170
(lp423
sg172
g58
sg173
Nsg174
Nsg175
Nsbag3
(g4
g5
NtRp424
(dp425
g8
g10
sg153
Nsg154
(dp426
sg156
Nsg25
g27
sg157
(lp427
I2
aI15
asg159
Nsg160
VPirkei Avot 2:15
p428
sg162
(lp429
sg164
g117
sg165
Nsg166
(lp430
I2
aI15
asg168
Nsg169
g428
sg170
(lp431
sg172
g58
sg173
Nsg174
Nsg175
Nsbag3
(g4
g5
NtRp432
(dp433
g8
g10
sg153
Nsg154
(dp434
sg156
Nsg25
g27
sg157
(lp435
I2
aI16
asg159
Nsg160
VPirkei Avot 2:16
p436
sg162
(lp437
sg164
g117
sg165
Nsg166
(lp438
I2
aI16
asg168
Nsg169
g436
sg170
(lp439
sg172
g58
sg173
Nsg174
Nsg175
Nsbag3
(g4
g5
NtRp440
(dp441
g8
g10
sg153
Nsg154
(dp442
sg156
Nsg25
g27
sg157
(lp443
I3
aI1
asg159
Nsg160
VPirkei Avot 3:1
p444
sg162
(lp445
sg164
g117
sg165
Nsg166
(lp446
I3
aI1
asg168
Nsg169
g444
sg170
(lp447
sg172
g58
sg173
Nsg174
Nsg175
Nsbag3
(g4
g5
NtRp448
(dp449
g8
g10
sg153
Nsg154
(dp450
sg156
Nsg25
g27
sg157
(lp451
I3
aI2
asg159
Nsg160
VPirkei Avot 3:2
p452
sg162
(lp453
sg164
g117
sg165
Nsg166
(lp454
I3
aI2
asg168
Nsg169
g452
sg170
(lp455
sg172
g58
sg173
Nsg174
Nsg175
Nsbag3
(g4
g5
NtRp456
(dp457
g8
g10
sg153
Nsg154
(dp458
sg156
Nsg25
g27
sg157
(lp459
I3
aI3
asg159
Nsg160
VPirkei Avot 3:3
p460
sg162
(lp461
sg164
g117
sg165
Nsg166
(lp462
I3
aI3
asg168
Nsg169
g460
sg170
(lp463
sg172
g58
sg173
Nsg174
Nsg175
Nsbag3
(g4
g5
NtRp464
(dp465
g8
g10
sg153
Nsg154
(dp466
sg156
Nsg25
g27
sg157
(lp467
I3
aI4
asg159
Nsg160
VPirkei Avot 3:4
p468
sg162
(lp469
sg164
g117
sg165
Nsg166
(lp470
I3
aI4
asg168
Nsg169
g468
sg170
(lp471
sg172
g58
sg173
Nsg174
Nsg175
Nsbag3
(g4
g5
NtRp472
(dp473
g8
g10
sg153
Nsg154
(dp474
sg156
Nsg25
g27
sg157
(lp475
I3
aI5
asg159
Nsg160
VPirkei Avot 3:5
p476
sg162
(lp477
sg164
g117
sg165
Nsg166
(lp478
I3
aI5
asg168
Nsg169
g476
sg170
(lp479
sg172
g58
sg173
Nsg174
Nsg175
Nsbag3
(g4
g5
NtRp480
(dp481
g8
g10
sg153
Nsg154
(dp482
sg156
Nsg25
g27
sg157
(lp483
I3
aI6
asg159
Nsg160
VPirkei Avot 3:6
p484
sg162
(lp485
sg164
g117
sg165
Nsg166
(lp486
I3
aI6
asg168
Nsg169
g484
sg170
(lp487
sg172
g58
sg173
Nsg174
Nsg175
Nsbag3
(g4
g5
NtRp488
(dp489
g8
g10
sg153
Nsg154
(dp490
sg156
Nsg25
g27
sg157
(lp491
I3
aI7
asg159
Nsg160
VPirkei Avot 3:7
p492
sg162
(lp493
sg164
g117
sg165
Nsg166
(lp494
I3
aI7
asg168
Nsg169
g492
sg170
(lp495
sg172
g58
sg173
Nsg174
Nsg175
Nsbag3
(g4
g5
NtRp496
(dp497
g8
g10
sg153
Nsg154
(dp498
sg156
Nsg25
g27
sg157
(lp499
I3
aI8
asg159
Nsg160
VPirkei Avot 3:8
p500
sg162
(lp501
sg164
g117
sg165
Nsg166
(lp502
I3
aI8
asg168
Nsg169
g500
sg170
(lp503
sg172
g58
sg173
Nsg174
Nsg175
Nsbag3
(g4
g5
NtRp504
(dp505
g8
g10
sg153
Nsg154
(dp506
sg156
Nsg25
g27
sg157
(lp507
I3
aI9
asg159
Nsg160
VPirkei Avot 3:9
p508
sg162
(lp509
sg164
g117
sg165
Nsg166
(lp510
I3
aI9
asg168
Nsg169
g508
sg170
(lp511
sg172
g58
sg173
Nsg174
Nsg175
Nsbag3
(g4
g5
NtRp512
(dp513
g8
g10
sg153
Nsg154
(dp514
sg156
Nsg25
g27
sg157
(lp515
I3
aI10
asg159
Nsg160
VPirkei Avot 3:10
p516
sg162
(lp517
sg164
g117
sg165
Nsg166
(lp518
I3
aI10
asg168
Nsg169
g516
sg170
(lp519
sg172
g58
sg173
Nsg174
Nsg175
Nsbag3
(g4
g5
NtRp520
(dp521
g8
g10
sg153
Nsg154
(dp522
sg156
Nsg25
g27
sg157
(lp523
I3
aI11
asg159
Nsg160
VPirkei Avot 3:11
p524
sg162
(lp525
sg164
g117
sg165
Nsg166
(lp526
I3
aI11
asg168
Nsg169
g524
sg170
(lp527
sg172
g58
sg173
Nsg174
Nsg175
Nsbag3
(g4
g5
NtRp528
(dp529
g8
g10
sg153
Nsg154
(dp530
sg156
Nsg25
g27
sg157
(lp531
I3
aI12
asg159
Nsg160
VPirkei Avot 3:12
p532
sg162
(lp533
sg164
g117
sg165
Nsg166
(lp534
I3
aI12
asg168
Nsg169
g532
sg170
(lp535
sg172
g58
sg173
Nsg174
Nsg175
Nsbag3
(g4
g5
NtRp536
(dp537
g8
g10
sg153
Nsg154
(dp538
sg156
Nsg25
g27
sg157
(lp539
I3
aI13
asg159
Nsg160
VPirkei Avot 3:13
p540
sg162
(lp541
sg164
g117
sg165
Nsg166
(lp542
I3
aI13
asg168
Nsg169
g540
sg170
(lp543
sg172
g58
sg173
Nsg174
Nsg175
Nsbag3
(g4
g5
NtRp544
(dp545
g8
g10
sg153
Nsg154
(dp546
sg156
Nsg25
g27
sg157
(lp547
I3
aI14
asg159
Nsg160
VPirkei Avot 3:14
p548
sg162
(lp549
sg164
g117
sg165
Nsg166
(lp550
I3
aI14
asg168
Nsg169
g548
sg170
(lp551
sg172
g58
sg173
Nsg174
Nsg175
Nsbag3
(g4
g5
NtRp552
(dp553
g8
g10
sg153
Nsg154
(dp554
sg156
Nsg25
g27
sg157
(lp555
I3
aI15
asg159
Nsg160
VPirkei Avot 3:15
p556
sg162
(lp557
sg164
g117
sg165
Nsg166
(lp558
I3
aI15
asg168
Nsg169
g556
sg170
(lp559
sg172
g58
sg173
Nsg174
Nsg175
Nsbag3
(g4
g5
NtRp560
(dp561
g8
g10
sg153
Nsg154
(dp562
sg156
Nsg25
g27
sg157
(lp563
I3
aI16
asg159
Nsg160
VPirkei Avot 3:16
p564
sg162
(lp565
sg164
g117
sg165
Nsg166
(lp566
I3
aI16
asg168
Nsg169
g564
sg170
(lp567
sg172
g58
sg173
Nsg174
Nsg175
Nsbag3
(g4
g5
NtRp568
(dp569
g8
g10
sg153
Nsg154
(dp570
sg156
Nsg25
g27
sg157
(lp571
I3
aI17
asg159
Nsg160
VPirkei Avot 3:17
p572
sg162
(lp573
sg164
g117
sg165
Nsg166
(lp574
I3
aI17
asg168
Nsg169
g572
sg170
(lp575
sg172
g58
sg173
Nsg174
Nsg175
Nsbag3
(g4
g5
NtRp576
(dp577
g8
g10
sg153
Nsg154
(dp578
sg156
Nsg25
g27
sg157
(lp579
I3
aI18
asg159
Nsg160
VPirkei Avot 3:18
p580
sg162
(lp581
sg164
g117
sg165
Nsg166
(lp582
I3
aI18
asg168
Nsg169
g580
sg170
(lp583
sg172
g58
sg173
Nsg174
Nsg175
Nsbag3
(g4
g5
NtRp584
(dp585
g8
g10
sg153
Nsg154
(dp586
sg156
Nsg25
g27
sg157
(lp587
I4
aI1
asg159
Nsg160
VPirkei Avot 4:1
p588
sg162
(lp589
sg164
g117
sg165
Nsg166
(lp590
I4
aI1
asg168
Nsg169
g588
sg170
(lp591
sg172
g58
sg173
Nsg174
Nsg175
Nsbag3
(g4
g5
NtRp592
(dp593
g8
g10
sg153
Nsg154
(dp594
sg156
Nsg25
g27
sg157
(lp595
I4
aI2
asg159
Nsg160
VPirkei Avot 4:2
p596
sg162
(lp597
sg164
g117
sg165
Nsg166
(lp598
I4
aI2
asg168
Nsg169
g596
sg170
(lp599
sg172
g58
sg173
Nsg174
Nsg175
Nsbag3
(g4
g5
NtRp600
(dp601
g8
g10
sg153
Nsg154
(dp602
sg156
Nsg25
g27
sg157
(lp603
I4
aI3
asg159
Nsg160
VPirkei Avot 4:3
p604
sg162
(lp605
sg164
g117
sg165
Nsg166
(lp606
I4
aI3
asg168
Nsg169
g604
sg170
(lp607
sg172
g58
sg173
Nsg174
Nsg175
Nsbag3
(g4
g5
NtRp608
(dp609
g8
g10
sg153
Nsg154
(dp610
sg156
Nsg25
g27
sg157
(lp611
I4
aI4
asg159
Nsg160
VPirkei Avot 4:4
p612
sg162
(lp613
sg164
g117
sg165
Nsg166
(lp614
I4
aI4
asg168
Nsg169
g612
sg170
(lp615
sg172
g58
sg173
Nsg174
Nsg175
Nsbag3
(g4
g5
NtRp616
(dp617
g8
g10
sg153
Nsg154
(dp618
sg156
Nsg25
g27
sg157
(lp619
I4
aI5
asg159
Nsg160
VPirkei Avot 4:5
p620
sg162
(lp621
sg164
g117
sg165
Nsg166
(lp622
I4
aI5
asg168
Nsg169
g620
sg170
(lp623
sg172
g58
sg173
Nsg174
Nsg175
Nsbag3
(g4
g5
NtRp624
(dp625
g8
g10
sg153
Nsg154
(dp626
sg156
Nsg25
g27
sg157
(lp627
I4
aI6
asg159
Nsg160
VPirkei Avot 4:6
p628
sg162
(lp629
sg164
g117
sg165
Nsg166
(lp630
I4
aI6
asg168
Nsg169
g628
sg170
(lp631
sg172
g58
sg173
Nsg174
Nsg175
Nsbag3
(g4
g5
NtRp632
(dp633
g8
g10
sg153
Nsg154
(dp634
sg156
Nsg25
g27
sg157
(lp635
I4
aI7
asg159
Nsg160
VPirkei Avot 4:7
p636
sg162
(lp637
sg164
g117
sg165
Nsg166
(lp638
I4
aI7
asg168
Nsg169
g636
sg170
(lp639
sg172
g58
sg173
Nsg174
Nsg175
Nsbag3
(g4
g5
NtRp640
(dp641
g8
g10
sg153
Nsg154
(dp642
sg156
Nsg25
g27
sg157
(lp643
I4
aI8
asg159
Nsg160
VPirkei Avot 4:8
p644
sg162
(lp645
sg164
g117
sg165
Nsg166
(lp646
I4
aI8
asg168
Nsg169
g644
sg170
(lp647
sg172
g58
sg173
Nsg174
Nsg175
Nsbag3
(g4
g5
NtRp648
(dp649
g8
g10
sg153
Nsg154
(dp650
sg156
Nsg25
g27
sg157
(lp651
I4
aI9
asg159
Nsg160
VPirkei Avot 4:9
p652
sg162
(lp653
sg164
g117
sg165
Nsg166
(lp654
I4
aI9
asg168
Nsg169
g652
sg170
(lp655
sg172
g58
sg173
Nsg174
Nsg175
Nsbag3
(g4
g5
NtRp656
(dp657
g8
g10
sg153
Nsg154
(dp658
sg156
Nsg25
g27
sg157
(lp659
I4
aI10
asg159
Nsg160
VPirkei Avot 4:10
p660
sg162
(lp661
sg164
g117
sg165
Nsg166
(lp662
I4
aI10
asg168
Nsg169
g660
sg170
(lp663
sg172
g58
sg173
Nsg174
Nsg175
Nsbag3
(g4
g5
NtRp664
(dp665
g8
g10
sg153
Nsg154
(dp666
sg156
Nsg25
g27
sg157
(lp667
I4
aI11
asg159
Nsg160
VPirkei Avot 4:11
p668
sg162
(lp669
sg164
g117
sg165
Nsg166
(lp670
I4
aI11
asg168
Nsg169
g668
sg170
(lp671
sg172
g58
sg173
Nsg174
Nsg175
Nsbag3
(g4
g5
NtRp672
(dp673
g8
g10
sg153
Nsg154
(dp674
sg156
Nsg25
g27
sg157
(lp675
I4
aI12
asg159
Nsg160
VPirkei Avot 4:12
p676
sg162
(lp677
sg164
g117
sg165
Nsg166
(lp678
I4
aI12
asg168
Nsg169
g676
sg170
(lp679
sg172
g58
sg173
Nsg174
Nsg175
Nsbag3
(g4
g5
NtRp680
(dp681
g8
g10
sg153
Nsg154
(dp682
sg156
Nsg25
g27
sg157
(lp683
I4
aI13
asg159
Nsg160
VPirkei Avot 4:13
p684
sg162
(lp685
sg164
g117
sg165
Nsg166
(lp686
I4
aI13
asg168
Nsg169
g684
sg170
(lp687
sg172
g58
sg173
Nsg174
Nsg175
Nsbag3
(g4
g5
NtRp688
(dp689
g8
g10
sg153
Nsg154
(dp690
sg156
Nsg25
g27
sg157
(lp691
I4
aI14
asg159
Nsg160
VPirkei Avot 4:14
p692
sg162
(lp693
sg164
g117
sg165
Nsg166
(lp694
I4
aI14
asg168
Nsg169
g692
sg170
(lp695
sg172
g58
sg173
Nsg174
Nsg175
Nsbag3
(g4
g5
NtRp696
(dp697
g8
g10
sg153
Nsg154
(dp698
sg156
Nsg25
g27
sg157
(lp699
I4
aI15
asg159
Nsg160
VPirkei Avot 4:15
p700
sg162
(lp701
sg164
g117
sg165
Nsg166
(lp702
I4
aI15
asg168
Nsg169
g700
sg170
(lp703
sg172
g58
sg173
Nsg174
Nsg175
Nsbag3
(g4
g5
NtRp704
(dp705
g8
g10
sg153
Nsg154
(dp706
sg156
Nsg25
g27
sg157
(lp707
I4
aI16
asg159
Nsg160
VPirkei Avot 4:16
p708
sg162
(lp709
sg164
g117
sg165
Nsg166
(lp710
I4
aI16
asg168
Nsg169
g708
sg170
(lp711
sg172
g58
sg173
Nsg174
Nsg175
Nsbag3
(g4
g5
NtRp712
(dp713
g8
g10
sg153
Nsg154
(dp714
sg156
Nsg25
g27
sg157
(lp715
I4
aI17
asg159
Nsg160
VPirkei Avot 4:17
p716
sg162
(lp717
sg164
g117
sg165
Nsg166
(lp718
I4
aI17
asg168
Nsg169
g716
sg170
(lp719
sg172
g58
sg173
Nsg174
Nsg175
Nsbag3
(g4
g5
NtRp720
(dp721
g8
g10
sg153
Nsg154
(dp722
sg156
Nsg25
g27
sg157
(lp723
I4
aI18
asg159
Nsg160
VPirkei Avot 4:18
p724
sg162
(lp725
sg164
g117
sg165
Nsg166
(lp726
I4
aI18
asg168
Nsg169
g724
sg170
(lp727
sg172
g58
sg173
Nsg174
Nsg175
Nsbag3
(g4
g5
NtRp728
(dp729
g8
g10
sg153
Nsg154
(dp730
sg156
Nsg25
g27
sg157
(lp731
I4
aI19
asg159
Nsg160
VPirkei Avot 4:19
p732
sg162
(lp733
sg164
g117
sg165
Nsg166
(lp734
I4
aI19
asg168
Nsg169
g732
sg170
(lp735
sg172
g58
sg173
Nsg174
Nsg175
Nsbag3
(g4
g5
NtRp736
(dp737
g8
g10
sg153
Nsg154
(dp738
sg156
Nsg25
g27
sg157
(lp739
I4
aI20
asg159
Nsg160
VPirkei Avot 4:20
p740
sg162
(lp741
sg164
g117
sg165
Nsg166
(lp742
I4
aI20
asg168
Nsg169
g740
sg170
(lp743
sg172
g58
sg173
Nsg174
Nsg175
Nsbag3
(g4
g5
NtRp744
(dp745
g8
g10
sg153
Nsg154
(dp746
sg156
Nsg25
g27
sg157
(lp747
I4
aI21
asg159
Nsg160
VPirkei Avot 4:21
p748
sg162
(lp749
sg164
g117
sg165
Nsg166
(lp750
I4
aI21
asg168
Nsg169
g748
sg170
(lp751
sg172
g58
sg173
Nsg174
Nsg175
Nsbag3
(g4
g5
NtRp752
(dp753
g8
g10
sg153
Nsg154
(dp754
sg156
Nsg25
g27
sg157
(lp755
I4
aI22
asg159
Nsg160
VPirkei Avot 4:22
p756
sg162
(lp757
sg164
g117
sg165
Nsg166
(lp758
I4
aI22
asg168
Nsg169
g756
sg170
(lp759
sg172
g58
sg173
Nsg174
Nsg175
Nsbag3
(g4
g5
NtRp760
(dp761
g8
g10
sg153
Nsg154
(dp762
sg156
Nsg25
g27
sg157
(lp763
I5
aI1
asg159
Nsg160
VPirkei Avot 5:1
p764
sg162
(lp765
sg164
g117
sg165
Nsg166
(lp766
I5
aI1
asg168
Nsg169
g764
sg170
(lp767
sg172
g58
sg173
Nsg174
Nsg175
Nsbag3
(g4
g5
NtRp768
(dp769
g8
g10
sg153
Nsg154
(dp770
sg156
Nsg25
g27
sg157
(lp771
I5
aI2
asg159
Nsg160
VPirkei Avot 5:2
p772
sg162
(lp773
sg164
g117
sg165
Nsg166
(lp774
I5
aI2
asg168
Nsg169
g772
sg170
(lp775
sg172
g58
sg173
Nsg174
Nsg175
Nsbag3
(g4
g5
NtRp776
(dp777
g8
g10
sg153
Nsg154
(dp778
sg156
Nsg25
g27
sg157
(lp779
I5
aI3
asg159
Nsg160
VPirkei Avot 5:3
p780
sg162
(lp781
sg164
g117
sg165
Nsg166
(lp782
I5
aI3
asg168
Nsg169
g780
sg170
(lp783
sg172
g58
sg173
Nsg174
Nsg175
Nsbag3
(g4
g5
NtRp784
(dp785
g8
g10
sg153
Nsg154
(dp786
sg156
Nsg25
g27
sg157
(lp787
I5
aI4
asg159
Nsg160
VPirkei Avot 5:4
p788
sg162
(lp789
sg164
g117
sg165
Nsg166
(lp790
I5
aI4
asg168
Nsg169
g788
sg170
(lp791
sg172
g58
sg173
Nsg174
Nsg175
Nsbag3
(g4
g5
NtRp792
(dp793
g8
g10
sg153
Nsg154
(dp794
sg156
Nsg25
g27
sg157
(lp795
I5
aI5
asg159
Nsg160
VPirkei Avot 5:5
p796
sg162
(lp797
sg164
g117
sg165
Nsg166
(lp798
I5
aI5
asg168
Nsg169
g796
sg170
(lp799
sg172
g58
sg173
Nsg174
Nsg175
Nsbag3
(g4
g5
NtRp800
(dp801
g8
g10
sg153
Nsg154
(dp802
sg156
Nsg25
g27
sg157
(lp803
I5
aI6
asg159
Nsg160
VPirkei Avot 5:6
p804
sg162
(lp805
sg164
g117
sg165
Nsg166
(lp806
I5
aI6
asg168
Nsg169
g804
sg170
(lp807
sg172
g58
sg173
Nsg174
Nsg175
Nsbag3
(g4
g5
NtRp808
(dp809
g8
g10
sg153
Nsg154
(dp810
sg156
Nsg25
g27
sg157
(lp811
I5
aI7
asg159
Nsg160
VPirkei Avot 5:7
p812
sg162
(lp813
sg164
g117
sg165
Nsg166
(lp814
I5
aI7
asg168
Nsg169
g812
sg170
(lp815
sg172
g58
sg173
Nsg174
Nsg175
Nsbag3
(g4
g5
NtRp816
(dp817
g8
g10
sg153
Nsg154
(dp818
sg156
Nsg25
g27
sg157
(lp819
I5
aI8
asg159
Nsg160
VPirkei Avot 5:8
p820
sg162
(lp821
sg164
g117
sg165
Nsg166
(lp822
I5
aI8
asg168
Nsg169
g820
sg170
(lp823
sg172
g58
sg173
Nsg174
Nsg175
Nsbag3
(g4
g5
NtRp824
(dp825
g8
g10
sg153
Nsg154
(dp826
sg156
Nsg25
g27
sg157
(lp827
I5
aI9
asg159
Nsg160
VPirkei Avot 5:9
p828
sg162
(lp829
sg164
g117
sg165
Nsg166
(lp830
I5
aI9
asg168
Nsg169
g828
sg170
(lp831
sg172
g58
sg173
Nsg174
Nsg175
Nsbag3
(g4
g5
NtRp832
(dp833
g8
g10
sg153
Nsg154
(dp834
sg156
Nsg25
g27
sg157
(lp835
I5
aI10
asg159
Nsg160
VPirkei Avot 5:10
p836
sg162
(lp837
sg164
g117
sg165
Nsg166
(lp838
I5
aI10
asg168
Nsg169
g836
sg170
(lp839
sg172
g58
sg173
Nsg174
Nsg175
Nsbag3
(g4
g5
NtRp840
(dp841
g8
g10
sg153
Nsg154
(dp842
sg156
Nsg25
g27
sg157
(lp843
I5
aI11
asg159
Nsg160
VPirkei Avot 5:11
p844
sg162
(lp845
sg164
g117
sg165
Nsg166
(lp846
I5
aI11
asg168
Nsg169
g844
sg170
(lp847
sg172
g58
sg173
Nsg174
Nsg175
Nsbag3
(g4
g5
NtRp848
(dp849
g8
g10
sg153
Nsg154
(dp850
sg156
Nsg25
g27
sg157
(lp851
I5
aI12
asg159
Nsg160
VPirkei Avot 5:12
p852
sg162
(lp853
sg164
g117
sg165
Nsg166
(lp854
I5
aI12
asg168
Nsg169
g852
sg170
(lp855
sg172
g58
sg173
Nsg174
Nsg175
Nsbag3
(g4
g5
NtRp856
(dp857
g8
g10
sg153
Nsg154
(dp858
sg156
Nsg25
g27
sg157
(lp859
I5
aI13
asg159
Nsg160
VPirkei Avot 5:13
p860
sg162
(lp861
sg164
g117
sg165
Nsg166
(lp862
I5
aI13
asg168
Nsg169
g860
sg170
(lp863
sg172
g58
sg173
Nsg174
Nsg175
Nsbag3
(g4
g5
NtRp864
(dp865
g8
g10
sg153
Nsg154
(dp866
sg156
Nsg25
g27
sg157
(lp867
I5
aI14
asg159
Nsg160
VPirkei Avot 5:14
p868
sg162
(lp869
sg164
g117
sg165
Nsg166
(lp870
I5
aI14
asg168
Nsg169
g868
sg170
(lp871
sg172
g58
sg173
Nsg174
Nsg175
Nsbag3
(g4
g5
NtRp872
(dp873
g8
g10
sg153
Nsg154
(dp874
sg156
Nsg25
g27
sg157
(lp875
I5
aI15
asg159
Nsg160
VPirkei Avot 5:15
p876
sg162
(lp877
sg164
g117
sg165
Nsg166
(lp878
I5
aI15
asg168
Nsg169
g876
sg170
(lp879
sg172
g58
sg173
Nsg174
Nsg175
Nsbag3
(g4
g5
NtRp880
(dp881
g8
g10
sg153
Nsg154
(dp882
sg156
Nsg25
g27
sg157
(lp883
I5
aI16
asg159
Nsg160
VPirkei Avot 5:16
p884
sg162
(lp885
sg164
g117
sg165
Nsg166
(lp886
I5
aI16
asg168
Nsg169
g884
sg170
(lp887
sg172
g58
sg173
Nsg174
Nsg175
Nsbag3
(g4
g5
NtRp888
(dp889
g8
g10
sg153
Nsg154
(dp890
sg156
Nsg25
g27
sg157
(lp891
I5
aI17
asg159
Nsg160
VPirkei Avot 5:17
p892
sg162
(lp893
sg164
g117
sg165
Nsg166
(lp894
I5
aI17
asg168
Nsg169
g892
sg170
(lp895
sg172
g58
sg173
Nsg174
Nsg175
Nsbag3
(g4
g5
NtRp896
(dp897
g8
g10
sg153
Nsg154
(dp898
sg156
Nsg25
g27
sg157
(lp899
I5
aI18
asg159
Nsg160
VPirkei Avot 5:18
p900
sg162
(lp901
sg164
g117
sg165
Nsg166
(lp902
I5
aI18
asg168
Nsg169
g900
sg170
(lp903
sg172
g58
sg173
Nsg174
Nsg175
Nsbag3
(g4
g5
NtRp904
(dp905
g8
g10
sg153
Nsg154
(dp906
sg156
Nsg25
g27
sg157
(lp907
I5
aI19
asg159
Nsg160
VPirkei Avot 5:19
p908
sg162
(lp909
sg164
g117
sg165
Nsg166
(lp910
I5
aI19
asg168
Nsg169
g908
sg170
(lp911
sg172
g58
sg173
Nsg174
Nsg175
Nsbag3
(g4
g5
NtRp912
(dp913
g8
g10
sg153
Nsg154
(dp914
sg156
Nsg25
g27
sg157
(lp915
I5
aI20
asg159
Nsg160
VPirkei Avot 5:20
p916
sg162
(lp917
sg164
g117
sg165
Nsg166
(lp918
I5
aI20
asg168
Nsg169
g916
sg170
(lp919
sg172
g58
sg173
Nsg174
Nsg175
Nsbag3
(g4
g5
NtRp920
(dp921
g8
g10
sg153
Nsg154
(dp922
sg156
Nsg25
g27
sg157
(lp923
I5
aI21
asg159
Nsg160
VPirkei Avot 5:21
p924
sg162
(lp925
sg164
g117
sg165
Nsg166
(lp926
I5
aI21
asg168
Nsg169
g924
sg170
(lp927
sg172
g58
sg173
Nsg174
Nsg175
Nsbag3
(g4
g5
NtRp928
(dp929
g8
g10
sg153
Nsg154
(dp930
sg156
Nsg25
g27
sg157
(lp931
I5
aI22
asg159
Nsg160
VPirkei Avot 5:22
p932
sg162
(lp933
sg164
g117
sg165
Nsg166
(lp934
I5
aI22
asg168
Nsg169
g932
sg170
(lp935
sg172
g58
sg173
Nsg174
Nsg175
Nsbag3
(g4
g5
NtRp936
(dp937
g8
g10
sg153
Nsg154
(dp938
sg156
Nsg25
g27
sg157
(lp939
I5
aI23
asg159
Nsg160
VPirkei Avot 5:23
p940
sg162
(lp941
sg164
g117
sg165
Nsg166
(lp942
I5
aI23
asg168
Nsg169
g940
sg170
(lp943
sg172
g58
sg173
Nsg174
Nsg175
Nsbag3
(g4
g5
NtRp944
(dp945
g8
g10
sg153
Nsg154
(dp946
sg156
Nsg25
g27
sg157
(lp947
I6
aI1
asg159
Nsg160
VPirkei Avot 6:1
p948
sg162
(lp949
sg164
g117
sg165
Nsg166
(lp950
I6
aI1
asg168
Nsg169
g948
sg170
(lp951
sg172
g58
sg173
Nsg174
Nsg175
Nsbag3
(g4
g5
NtRp952
(dp953
g8
g10
sg153
Nsg154
(dp954
sg156
Nsg25
g27
sg157
(lp955
I6
aI2
asg159
Nsg160
VPirkei Avot 6:2
p956
sg162
(lp957
sg164
g117
sg165
Nsg166
(lp958
I6
aI2
asg168
Nsg169
g956
sg170
(lp959
sg172
g58
sg173
Nsg174
Nsg175
Nsbag3
(g4
g5
NtRp960
(dp961
g8
g10
sg153
Nsg154
(dp962
sg156
Nsg25
g27
sg157
(lp963
I6
aI3
asg159
Nsg160
VPirkei Avot 6:3
p964
sg162
(lp965
sg164
g117
sg165
Nsg166
(lp966
I6
aI3
asg168
Nsg169
g964
sg170
(lp967
sg172
g58
sg173
Nsg174
Nsg175
Nsbag3
(g4
g5
NtRp968
(dp969
g8
g10
sg153
Nsg154
(dp970
sg156
Nsg25
g27
sg157
(lp971
I6
aI4
asg159
Nsg160
VPirkei Avot 6:4
p972
sg162
(lp973
sg164
g117
sg165
Nsg166
(lp974
I6
aI4
asg168
Nsg169
g972
sg170
(lp975
sg172
g58
sg173
Nsg174
Nsg175
Nsbag3
(g4
g5
NtRp976
(dp977
g8
g10
sg153
Nsg154
(dp978
sg156
Nsg25
g27
sg157
(lp979
I6
aI5
asg159
Nsg160
VPirkei Avot 6:5
p980
sg162
(lp981
sg164
g117
sg165
Nsg166
(lp982
I6
aI5
asg168
Nsg169
g980
sg170
(lp983
sg172
g58
sg173
Nsg174
Nsg175
Nsbag3
(g4
g5
NtRp984
(dp985
g8
g10
sg153
Nsg154
(dp986
sg156
Nsg25
g27
sg157
(lp987
I6
aI6
asg159
Nsg160
VPirkei Avot 6:6
p988
sg162
(lp989
sg164
g117
sg165
Nsg166
(lp990
I6
aI6
asg168
Nsg169
g988
sg170
(lp991
sg172
g58
sg173
Nsg174
Nsg175
Nsbag3
(g4
g5
NtRp992
(dp993
g8
g10
sg153
Nsg154
(dp994
sg156
Nsg25
g27
sg157
(lp995
I6
aI7
asg159
Nsg160
VPirkei Avot 6:7
p996
sg162
(lp997
sg164
g117
sg165
Nsg166
(lp998
I6
aI7
asg168
Nsg169
g996
sg170
(lp999
sg172
g58
sg173
Nsg174
Nsg175
Nsbag3
(g4
g5
NtRp1000
(dp1001
g8
g10
sg153
Nsg154
(dp1002
sg156
Nsg25
g27
sg157
(lp1003
I6
aI8
asg159
Nsg160
VPirkei Avot 6:8
p1004
sg162
(lp1005
sg164
g117
sg165
Nsg166
(lp1006
I6
aI8
asg168
Nsg169
g1004
sg170
(lp1007
sg172
g58
sg173
Nsg174
Nsg175
Nsbag3
(g4
g5
NtRp1008
(dp1009
g8
g10
sg153
Nsg154
(dp1010
sg156
Nsg25
g27
sg157
(lp1011
I6
aI9
asg159
Nsg160
VPirkei Avot 6:9
p1012
sg162
(lp1013
sg164
g117
sg165
Nsg166
(lp1014
I6
aI9
asg168
Nsg169
g1012
sg170
(lp1015
sg172
g58
sg173
Nsg174
Nsg175
Nsbag3
(g4
g5
NtRp1016
(dp1017
g8
g10
sg153
Nsg154
(dp1018
sg156
Nsg25
g27
sg157
(lp1019
I6
aI10
asg159
Nsg160
VPirkei Avot 6:10
p1020
sg162
(lp1021
sg164
g117
sg165
Nsg166
(lp1022
I6
aI10
asg168
Nsg169
g1020
sg170
(lp1023
sg172
g58
sg173
Nsg174
Nsg175
Nsbag3
(g4
g5
NtRp1024
(dp1025
g8
g10
sg153
Nsg154
(dp1026
sg156
Nsg25
g27
sg157
(lp1027
I6
aI11
asg159
Nsg160
VPirkei Avot 6:11
p1028
sg162
(lp1029
sg164
g117
sg165
Nsg166
(lp1030
I6
aI11
asg168
Nsg169
g1028
sg170
(lp1031
sg172
g58
sg173
Nsg174
Nsg175
NsbaI4564
t.