((lp1
I0
aI319
aI654
aI1239
aI1496
aI1621
aI2020
aI2209
aI2373
aI3158
aI4169
aI4835
aI4944
aI5003
aI5077
aI5214
aI6066
aI6951
aI7451
aI7980
aI8302
aI8456
aI8875
aI9544
aI10503
aI11003
aI11172
aI11940
aI12469
aI13056
aI13442
aI13650
aI14224
aI14780
aI15558
aI16035
aI16376
aI16945
aI18141
aI19053
aI19886
aI20704
aI22073
aI22935
aI23681
aI25247
aI25833
aI27539
aI28353
aI29035
aI30095
aI30985
aI31810
aI32532
aI33430
aI33668
aI33845
aI34075
aI34335
aI34974
aI36330
aI37156
aI38957
aI39736
aI40507
aI41087
a(lp2
ccopy_reg
_reconstructor
p3
(csefaria.model.text
Ref
p4
c__builtin__
object
p5
NtRp6
(dp7
S'index_node'
p8
g3
(csefaria.model.schema
JaggedArrayNode
p9
g5
NtRp10
(dp11
S'_address'
p12
(lp13
VPirkei DeRabbi Eliezer
p14
asS'_full_titles'
p15
(dp16
sVnodeType
p17
VJaggedArrayNode
p18
sS'parent'
p19
NsVaddressTypes
p20
(lp21
VInteger
p22
aVInteger
p23
asS'default'
p24
I00
sS'index'
p25
g3
(csefaria.model.text
Index
p26
g5
NtRp27
(dp28
S'struct_objs'
p29
(dp30
sS'_id'
p31
g3
(cbson.objectid
ObjectId
p32
g5
NtRp33
S'Tjv\xe1\xfb\xfb\xa2\x01\x86Q\x18I'
p34
bsS'pkeys_orig_values'
p35
(dp36
S'title'
p37
VPirkei DeRabbi Eliezer
p38
ssS'pubDate'
p39
V1514
p40
sS'compDate'
p41
V830
p42
sS'pubPlace'
p43
VIstanbul
p44
sS'compPlace'
p45
VTalmudic Israel/Babylon
p46
sS'enDesc'
p47
VPirke de-Rabbi Eliezer (Chapters of Rabbi Eliezer) is an aggadic-midrashic work on the Torah containing exegesis and retellings of biblical stories. The composition enjoyed widespread circulation and recognition throughout Jewish history, and continues to do so in the present. Traditionally, it has been understood to be a tannaitic composition which originated with the tanna Rabbi Eliezer ben Hyrcanus, - a disciple of Rabbi Yohanan ben Zakai and teacher of Rabbi Akiva - and his disciples. However, modern scholarship has shown the book in fact a a medieval work from the 8th Century. The work is divided into 54 chapters, which may be divided into seven groups. Pirke De-Rabbi Eliezer comprises exegesis, legends and folklore, as well as astronomical discussions related to the story of the Creation. The author dwells longest on the description of the second day of Creation, in which the Ma'aseh ha-Merkavah (Ezek. i.) is described in various forms.
p48
sS'era'
p49
VGN
p50
sS'authors'
p51
(lp52
sS'nodes'
p53
g10
sS'errorMargin'
p54
V200
p55
sS'_title'
p56
g38
sS'categories'
p57
(lp58
VMidrash
p59
aVAggadic Midrash
p60
asS'schema'
p61
(dp62
g17
g18
sg20
g21
sVdepth
p63
I2
sVtitles
p64
(lp65
(dp66
Vlang
p67
Ven
p68
sVtext
p69
VBaraita de-Rabbi Eliezer
p70
sa(dp71
Vlang
p72
Ven
p73
sVtext
p74
VPirkei Derabbi Eliezer
p75
sa(dp76
Vlang
p77
Ven
p78
sVtext
p79
VPirkei D'Rabbi Eliezer
p80
sa(dp81
Vlang
p82
Ven
p83
sVtext
p84
VPirke de-Rabbi Eliezer
p85
sa(dp86
Vlang
p87
Ven
p88
sVtext
p89
VPirke Rabbi Eliezer ben Hyrcanus
p90
sa(dp91
Vlang
p92
Ven
p93
sVtext
p94
VHaggadah de-Rabbi Eliezer ben Hyrcanus
p95
sa(dp96
Vlang
p97
Ven
p98
sVtext
p99
VPirke Rabbi Eliezer ha-Gadol
p100
sa(dp101
Vlang
p102
Ven
p103
sVtext
p104
VPirkei Derabi Eliezer
p105
sa(dp106
Vlang
p107
Vhe
p108
sVtext
p109
V\u05e4\u05e8\u05e7\u05d9 \u05d3\u05e8\u05d1\u05d9 \u05d0\u05dc\u05d9\u05e2\u05d6\u05e8
p110
sVprimary
p111
I01
sa(dp112
Vlang
p113
Ven
p114
sVtext
p115
VPirkei DeRabbi Eliezer
p116
sVprimary
p117
I01
sasVkey
p118
g14
sVsectionNames
p119
(lp120
VPerek
p121
aVParagraph
p122
assbsS'_primary_title'
p123
(dp124
sS'title_group'
p125
g3
(csefaria.model.schema
TitleGroup
p126
g5
NtRp127
(dp128
g123
(dp129
S'en'
p130
g116
ssS'titles'
p131
g65
sbsS'_addressTypes'
p132
(lp133
g3
(csefaria.model.schema
AddressInteger
p134
g5
NtRp135
(dp136
S'length'
p137
NsS'order'
p138
I0
sbag3
(g134
g5
NtRp139
(dp140
g137
Nsg138
I1
sbasS'sharedTitle'
p141
Nsg63
I2
sS'_full_title'
p142
(dp143
g130
g116
ssS'key'
p144
g14
sS'checkFirst'
p145
NsS'_regexes'
p146
(dp147
sS'_leaf_nodes'
p148
(lp149
sg119
g120
sS'children'
p150
(lp151
sbsS'_range_index'
p152
NsS'_context'
p153
(dp154
sS'_padded'
p155
Nsg25
g27
sS'sections'
p156
(lp157
I1
aI1
asS'_first_spanned_ref'
p158
NsS'tref'
p159
VPirkei DeRabbi Eliezer 1:1
p160
sS'_spanned_refs'
p161
(lp162
sS'book'
p163
g116
sS'_range_depth'
p164
NsS'toSections'
p165
(lp166
I1
aI1
asS'_url'
p167
NsS'_normal'
p168
g160
sS'_ranged_refs'
p169
(lp170
sS'type'
p171
g59
sS'_prev'
p172
NsS'_he_normal'
p173
NsS'_next'
p174
Nsbag3
(g4
g5
NtRp175
(dp176
g8
g10
sg152
Nsg153
(dp177
sg155
Nsg25
g27
sg156
(lp178
I2
aI1
asg158
Nsg159
VPirkei DeRabbi Eliezer 2:1
p179
sg161
(lp180
sg163
g116
sg164
Nsg165
(lp181
I2
aI1
asg167
Nsg168
g179
sg169
(lp182
sg171
g59
sg172
Nsg173
Nsg174
Nsbag3
(g4
g5
NtRp183
(dp184
g8
g10
sg152
Nsg153
(dp185
sg155
Nsg25
g27
sg156
(lp186
I3
aI1
asg158
Nsg159
VPirkei DeRabbi Eliezer 3:1
p187
sg161
(lp188
sg163
g116
sg164
Nsg165
(lp189
I3
aI1
asg167
Nsg168
g187
sg169
(lp190
sg171
g59
sg172
Nsg173
Nsg174
Nsbag3
(g4
g5
NtRp191
(dp192
g8
g10
sg152
Nsg153
(dp193
sg155
Nsg25
g27
sg156
(lp194
I3
aI2
asg158
Nsg159
VPirkei DeRabbi Eliezer 3:2
p195
sg161
(lp196
sg163
g116
sg164
Nsg165
(lp197
I3
aI2
asg167
Nsg168
g195
sg169
(lp198
sg171
g59
sg172
Nsg173
Nsg174
Nsbag3
(g4
g5
NtRp199
(dp200
g8
g10
sg152
Nsg153
(dp201
sg155
Nsg25
g27
sg156
(lp202
I4
aI1
asg158
Nsg159
VPirkei DeRabbi Eliezer 4:1
p203
sg161
(lp204
sg163
g116
sg164
Nsg165
(lp205
I4
aI1
asg167
Nsg168
g203
sg169
(lp206
sg171
g59
sg172
Nsg173
Nsg174
Nsbag3
(g4
g5
NtRp207
(dp208
g8
g10
sg152
Nsg153
(dp209
sg155
Nsg25
g27
sg156
(lp210
I4
aI2
asg158
Nsg159
VPirkei DeRabbi Eliezer 4:2
p211
sg161
(lp212
sg163
g116
sg164
Nsg165
(lp213
I4
aI2
asg167
Nsg168
g211
sg169
(lp214
sg171
g59
sg172
Nsg173
Nsg174
Nsbag3
(g4
g5
NtRp215
(dp216
g8
g10
sg152
Nsg153
(dp217
sg155
Nsg25
g27
sg156
(lp218
I5
aI1
asg158
Nsg159
VPirkei DeRabbi Eliezer 5:1
p219
sg161
(lp220
sg163
g116
sg164
Nsg165
(lp221
I5
aI1
asg167
Nsg168
g219
sg169
(lp222
sg171
g59
sg172
Nsg173
Nsg174
Nsbag3
(g4
g5
NtRp223
(dp224
g8
g10
sg152
Nsg153
(dp225
sg155
Nsg25
g27
sg156
(lp226
I5
aI2
asg158
Nsg159
VPirkei DeRabbi Eliezer 5:2
p227
sg161
(lp228
sg163
g116
sg164
Nsg165
(lp229
I5
aI2
asg167
Nsg168
g227
sg169
(lp230
sg171
g59
sg172
Nsg173
Nsg174
Nsbag3
(g4
g5
NtRp231
(dp232
g8
g10
sg152
Nsg153
(dp233
sg155
Nsg25
g27
sg156
(lp234
I6
aI1
asg158
Nsg159
VPirkei DeRabbi Eliezer 6:1
p235
sg161
(lp236
sg163
g116
sg164
Nsg165
(lp237
I6
aI1
asg167
Nsg168
g235
sg169
(lp238
sg171
g59
sg172
Nsg173
Nsg174
Nsbag3
(g4
g5
NtRp239
(dp240
g8
g10
sg152
Nsg153
(dp241
sg155
Nsg25
g27
sg156
(lp242
I7
aI1
asg158
Nsg159
VPirkei DeRabbi Eliezer 7:1
p243
sg161
(lp244
sg163
g116
sg164
Nsg165
(lp245
I7
aI1
asg167
Nsg168
g243
sg169
(lp246
sg171
g59
sg172
Nsg173
Nsg174
Nsbag3
(g4
g5
NtRp247
(dp248
g8
g10
sg152
Nsg153
(dp249
sg155
Nsg25
g27
sg156
(lp250
I8
aI1
asg158
Nsg159
VPirkei DeRabbi Eliezer 8:1
p251
sg161
(lp252
sg163
g116
sg164
Nsg165
(lp253
I8
aI1
asg167
Nsg168
g251
sg169
(lp254
sg171
g59
sg172
Nsg173
Nsg174
Nsbag3
(g4
g5
NtRp255
(dp256
g8
g10
sg152
Nsg153
(dp257
sg155
Nsg25
g27
sg156
(lp258
I9
aI1
asg158
Nsg159
VPirkei DeRabbi Eliezer 9:1
p259
sg161
(lp260
sg163
g116
sg164
Nsg165
(lp261
I9
aI1
asg167
Nsg168
g259
sg169
(lp262
sg171
g59
sg172
Nsg173
Nsg174
Nsbag3
(g4
g5
NtRp263
(dp264
g8
g10
sg152
Nsg153
(dp265
sg155
Nsg25
g27
sg156
(lp266
I9
aI2
asg158
Nsg159
VPirkei DeRabbi Eliezer 9:2
p267
sg161
(lp268
sg163
g116
sg164
Nsg165
(lp269
I9
aI2
asg167
Nsg168
g267
sg169
(lp270
sg171
g59
sg172
Nsg173
Nsg174
Nsbag3
(g4
g5
NtRp271
(dp272
g8
g10
sg152
Nsg153
(dp273
sg155
Nsg25
g27
sg156
(lp274
I9
aI3
asg158
Nsg159
VPirkei DeRabbi Eliezer 9:3
p275
sg161
(lp276
sg163
g116
sg164
Nsg165
(lp277
I9
aI3
asg167
Nsg168
g275
sg169
(lp278
sg171
g59
sg172
Nsg173
Nsg174
Nsbag3
(g4
g5
NtRp279
(dp280
g8
g10
sg152
Nsg153
(dp281
sg155
Nsg25
g27
sg156
(lp282
I9
aI4
asg158
Nsg159
VPirkei DeRabbi Eliezer 9:4
p283
sg161
(lp284
sg163
g116
sg164
Nsg165
(lp285
I9
aI4
asg167
Nsg168
g283
sg169
(lp286
sg171
g59
sg172
Nsg173
Nsg174
Nsbag3
(g4
g5
NtRp287
(dp288
g8
g10
sg152
Nsg153
(dp289
sg155
Nsg25
g27
sg156
(lp290
I10
aI1
asg158
Nsg159
VPirkei DeRabbi Eliezer 10:1
p291
sg161
(lp292
sg163
g116
sg164
Nsg165
(lp293
I10
aI1
asg167
Nsg168
g291
sg169
(lp294
sg171
g59
sg172
Nsg173
Nsg174
Nsbag3
(g4
g5
NtRp295
(dp296
g8
g10
sg152
Nsg153
(dp297
sg155
Nsg25
g27
sg156
(lp298
I11
aI1
asg158
Nsg159
VPirkei DeRabbi Eliezer 11:1
p299
sg161
(lp300
sg163
g116
sg164
Nsg165
(lp301
I11
aI1
asg167
Nsg168
g299
sg169
(lp302
sg171
g59
sg172
Nsg173
Nsg174
Nsbag3
(g4
g5
NtRp303
(dp304
g8
g10
sg152
Nsg153
(dp305
sg155
Nsg25
g27
sg156
(lp306
I12
aI1
asg158
Nsg159
VPirkei DeRabbi Eliezer 12:1
p307
sg161
(lp308
sg163
g116
sg164
Nsg165
(lp309
I12
aI1
asg167
Nsg168
g307
sg169
(lp310
sg171
g59
sg172
Nsg173
Nsg174
Nsbag3
(g4
g5
NtRp311
(dp312
g8
g10
sg152
Nsg153
(dp313
sg155
Nsg25
g27
sg156
(lp314
I13
aI1
asg158
Nsg159
VPirkei DeRabbi Eliezer 13:1
p315
sg161
(lp316
sg163
g116
sg164
Nsg165
(lp317
I13
aI1
asg167
Nsg168
g315
sg169
(lp318
sg171
g59
sg172
Nsg173
Nsg174
Nsbag3
(g4
g5
NtRp319
(dp320
g8
g10
sg152
Nsg153
(dp321
sg155
Nsg25
g27
sg156
(lp322
I14
aI1
asg158
Nsg159
VPirkei DeRabbi Eliezer 14:1
p323
sg161
(lp324
sg163
g116
sg164
Nsg165
(lp325
I14
aI1
asg167
Nsg168
g323
sg169
(lp326
sg171
g59
sg172
Nsg173
Nsg174
Nsbag3
(g4
g5
NtRp327
(dp328
g8
g10
sg152
Nsg153
(dp329
sg155
Nsg25
g27
sg156
(lp330
I14
aI2
asg158
Nsg159
VPirkei DeRabbi Eliezer 14:2
p331
sg161
(lp332
sg163
g116
sg164
Nsg165
(lp333
I14
aI2
asg167
Nsg168
g331
sg169
(lp334
sg171
g59
sg172
Nsg173
Nsg174
Nsbag3
(g4
g5
NtRp335
(dp336
g8
g10
sg152
Nsg153
(dp337
sg155
Nsg25
g27
sg156
(lp338
I15
aI1
asg158
Nsg159
VPirkei DeRabbi Eliezer 15:1
p339
sg161
(lp340
sg163
g116
sg164
Nsg165
(lp341
I15
aI1
asg167
Nsg168
g339
sg169
(lp342
sg171
g59
sg172
Nsg173
Nsg174
Nsbag3
(g4
g5
NtRp343
(dp344
g8
g10
sg152
Nsg153
(dp345
sg155
Nsg25
g27
sg156
(lp346
I16
aI1
asg158
Nsg159
VPirkei DeRabbi Eliezer 16:1
p347
sg161
(lp348
sg163
g116
sg164
Nsg165
(lp349
I16
aI1
asg167
Nsg168
g347
sg169
(lp350
sg171
g59
sg172
Nsg173
Nsg174
Nsbag3
(g4
g5
NtRp351
(dp352
g8
g10
sg152
Nsg153
(dp353
sg155
Nsg25
g27
sg156
(lp354
I17
aI1
asg158
Nsg159
VPirkei DeRabbi Eliezer 17:1
p355
sg161
(lp356
sg163
g116
sg164
Nsg165
(lp357
I17
aI1
asg167
Nsg168
g355
sg169
(lp358
sg171
g59
sg172
Nsg173
Nsg174
Nsbag3
(g4
g5
NtRp359
(dp360
g8
g10
sg152
Nsg153
(dp361
sg155
Nsg25
g27
sg156
(lp362
I18
aI1
asg158
Nsg159
VPirkei DeRabbi Eliezer 18:1
p363
sg161
(lp364
sg163
g116
sg164
Nsg165
(lp365
I18
aI1
asg167
Nsg168
g363
sg169
(lp366
sg171
g59
sg172
Nsg173
Nsg174
Nsbag3
(g4
g5
NtRp367
(dp368
g8
g10
sg152
Nsg153
(dp369
sg155
Nsg25
g27
sg156
(lp370
I18
aI2
asg158
Nsg159
VPirkei DeRabbi Eliezer 18:2
p371
sg161
(lp372
sg163
g116
sg164
Nsg165
(lp373
I18
aI2
asg167
Nsg168
g371
sg169
(lp374
sg171
g59
sg172
Nsg173
Nsg174
Nsbag3
(g4
g5
NtRp375
(dp376
g8
g10
sg152
Nsg153
(dp377
sg155
Nsg25
g27
sg156
(lp378
I19
aI1
asg158
Nsg159
VPirkei DeRabbi Eliezer 19:1
p379
sg161
(lp380
sg163
g116
sg164
Nsg165
(lp381
I19
aI1
asg167
Nsg168
g379
sg169
(lp382
sg171
g59
sg172
Nsg173
Nsg174
Nsbag3
(g4
g5
NtRp383
(dp384
g8
g10
sg152
Nsg153
(dp385
sg155
Nsg25
g27
sg156
(lp386
I20
aI1
asg158
Nsg159
VPirkei DeRabbi Eliezer 20:1
p387
sg161
(lp388
sg163
g116
sg164
Nsg165
(lp389
I20
aI1
asg167
Nsg168
g387
sg169
(lp390
sg171
g59
sg172
Nsg173
Nsg174
Nsbag3
(g4
g5
NtRp391
(dp392
g8
g10
sg152
Nsg153
(dp393
sg155
Nsg25
g27
sg156
(lp394
I21
aI1
asg158
Nsg159
VPirkei DeRabbi Eliezer 21:1
p395
sg161
(lp396
sg163
g116
sg164
Nsg165
(lp397
I21
aI1
asg167
Nsg168
g395
sg169
(lp398
sg171
g59
sg172
Nsg173
Nsg174
Nsbag3
(g4
g5
NtRp399
(dp400
g8
g10
sg152
Nsg153
(dp401
sg155
Nsg25
g27
sg156
(lp402
I22
aI1
asg158
Nsg159
VPirkei DeRabbi Eliezer 22:1
p403
sg161
(lp404
sg163
g116
sg164
Nsg165
(lp405
I22
aI1
asg167
Nsg168
g403
sg169
(lp406
sg171
g59
sg172
Nsg173
Nsg174
Nsbag3
(g4
g5
NtRp407
(dp408
g8
g10
sg152
Nsg153
(dp409
sg155
Nsg25
g27
sg156
(lp410
I23
aI1
asg158
Nsg159
VPirkei DeRabbi Eliezer 23:1
p411
sg161
(lp412
sg163
g116
sg164
Nsg165
(lp413
I23
aI1
asg167
Nsg168
g411
sg169
(lp414
sg171
g59
sg172
Nsg173
Nsg174
Nsbag3
(g4
g5
NtRp415
(dp416
g8
g10
sg152
Nsg153
(dp417
sg155
Nsg25
g27
sg156
(lp418
I23
aI2
asg158
Nsg159
VPirkei DeRabbi Eliezer 23:2
p419
sg161
(lp420
sg163
g116
sg164
Nsg165
(lp421
I23
aI2
asg167
Nsg168
g419
sg169
(lp422
sg171
g59
sg172
Nsg173
Nsg174
Nsbag3
(g4
g5
NtRp423
(dp424
g8
g10
sg152
Nsg153
(dp425
sg155
Nsg25
g27
sg156
(lp426
I24
aI1
asg158
Nsg159
VPirkei DeRabbi Eliezer 24:1
p427
sg161
(lp428
sg163
g116
sg164
Nsg165
(lp429
I24
aI1
asg167
Nsg168
g427
sg169
(lp430
sg171
g59
sg172
Nsg173
Nsg174
Nsbag3
(g4
g5
NtRp431
(dp432
g8
g10
sg152
Nsg153
(dp433
sg155
Nsg25
g27
sg156
(lp434
I25
aI1
asg158
Nsg159
VPirkei DeRabbi Eliezer 25:1
p435
sg161
(lp436
sg163
g116
sg164
Nsg165
(lp437
I25
aI1
asg167
Nsg168
g435
sg169
(lp438
sg171
g59
sg172
Nsg173
Nsg174
Nsbag3
(g4
g5
NtRp439
(dp440
g8
g10
sg152
Nsg153
(dp441
sg155
Nsg25
g27
sg156
(lp442
I26
aI1
asg158
Nsg159
VPirkei DeRabbi Eliezer 26:1
p443
sg161
(lp444
sg163
g116
sg164
Nsg165
(lp445
I26
aI1
asg167
Nsg168
g443
sg169
(lp446
sg171
g59
sg172
Nsg173
Nsg174
Nsbag3
(g4
g5
NtRp447
(dp448
g8
g10
sg152
Nsg153
(dp449
sg155
Nsg25
g27
sg156
(lp450
I27
aI1
asg158
Nsg159
VPirkei DeRabbi Eliezer 27:1
p451
sg161
(lp452
sg163
g116
sg164
Nsg165
(lp453
I27
aI1
asg167
Nsg168
g451
sg169
(lp454
sg171
g59
sg172
Nsg173
Nsg174
Nsbag3
(g4
g5
NtRp455
(dp456
g8
g10
sg152
Nsg153
(dp457
sg155
Nsg25
g27
sg156
(lp458
I28
aI1
asg158
Nsg159
VPirkei DeRabbi Eliezer 28:1
p459
sg161
(lp460
sg163
g116
sg164
Nsg165
(lp461
I28
aI1
asg167
Nsg168
g459
sg169
(lp462
sg171
g59
sg172
Nsg173
Nsg174
Nsbag3
(g4
g5
NtRp463
(dp464
g8
g10
sg152
Nsg153
(dp465
sg155
Nsg25
g27
sg156
(lp466
I29
aI1
asg158
Nsg159
VPirkei DeRabbi Eliezer 29:1
p467
sg161
(lp468
sg163
g116
sg164
Nsg165
(lp469
I29
aI1
asg167
Nsg168
g467
sg169
(lp470
sg171
g59
sg172
Nsg173
Nsg174
Nsbag3
(g4
g5
NtRp471
(dp472
g8
g10
sg152
Nsg153
(dp473
sg155
Nsg25
g27
sg156
(lp474
I30
aI1
asg158
Nsg159
VPirkei DeRabbi Eliezer 30:1
p475
sg161
(lp476
sg163
g116
sg164
Nsg165
(lp477
I30
aI1
asg167
Nsg168
g475
sg169
(lp478
sg171
g59
sg172
Nsg173
Nsg174
Nsbag3
(g4
g5
NtRp479
(dp480
g8
g10
sg152
Nsg153
(dp481
sg155
Nsg25
g27
sg156
(lp482
I31
aI1
asg158
Nsg159
VPirkei DeRabbi Eliezer 31:1
p483
sg161
(lp484
sg163
g116
sg164
Nsg165
(lp485
I31
aI1
asg167
Nsg168
g483
sg169
(lp486
sg171
g59
sg172
Nsg173
Nsg174
Nsbag3
(g4
g5
NtRp487
(dp488
g8
g10
sg152
Nsg153
(dp489
sg155
Nsg25
g27
sg156
(lp490
I32
aI1
asg158
Nsg159
VPirkei DeRabbi Eliezer 32:1
p491
sg161
(lp492
sg163
g116
sg164
Nsg165
(lp493
I32
aI1
asg167
Nsg168
g491
sg169
(lp494
sg171
g59
sg172
Nsg173
Nsg174
Nsbag3
(g4
g5
NtRp495
(dp496
g8
g10
sg152
Nsg153
(dp497
sg155
Nsg25
g27
sg156
(lp498
I33
aI1
asg158
Nsg159
VPirkei DeRabbi Eliezer 33:1
p499
sg161
(lp500
sg163
g116
sg164
Nsg165
(lp501
I33
aI1
asg167
Nsg168
g499
sg169
(lp502
sg171
g59
sg172
Nsg173
Nsg174
Nsbag3
(g4
g5
NtRp503
(dp504
g8
g10
sg152
Nsg153
(dp505
sg155
Nsg25
g27
sg156
(lp506
I34
aI1
asg158
Nsg159
VPirkei DeRabbi Eliezer 34:1
p507
sg161
(lp508
sg163
g116
sg164
Nsg165
(lp509
I34
aI1
asg167
Nsg168
g507
sg169
(lp510
sg171
g59
sg172
Nsg173
Nsg174
Nsbag3
(g4
g5
NtRp511
(dp512
g8
g10
sg152
Nsg153
(dp513
sg155
Nsg25
g27
sg156
(lp514
I35
aI1
asg158
Nsg159
VPirkei DeRabbi Eliezer 35:1
p515
sg161
(lp516
sg163
g116
sg164
Nsg165
(lp517
I35
aI1
asg167
Nsg168
g515
sg169
(lp518
sg171
g59
sg172
Nsg173
Nsg174
Nsbag3
(g4
g5
NtRp519
(dp520
g8
g10
sg152
Nsg153
(dp521
sg155
Nsg25
g27
sg156
(lp522
I36
aI1
asg158
Nsg159
VPirkei DeRabbi Eliezer 36:1
p523
sg161
(lp524
sg163
g116
sg164
Nsg165
(lp525
I36
aI1
asg167
Nsg168
g523
sg169
(lp526
sg171
g59
sg172
Nsg173
Nsg174
Nsbag3
(g4
g5
NtRp527
(dp528
g8
g10
sg152
Nsg153
(dp529
sg155
Nsg25
g27
sg156
(lp530
I37
aI1
asg158
Nsg159
VPirkei DeRabbi Eliezer 37:1
p531
sg161
(lp532
sg163
g116
sg164
Nsg165
(lp533
I37
aI1
asg167
Nsg168
g531
sg169
(lp534
sg171
g59
sg172
Nsg173
Nsg174
Nsbag3
(g4
g5
NtRp535
(dp536
g8
g10
sg152
Nsg153
(dp537
sg155
Nsg25
g27
sg156
(lp538
I38
aI1
asg158
Nsg159
VPirkei DeRabbi Eliezer 38:1
p539
sg161
(lp540
sg163
g116
sg164
Nsg165
(lp541
I38
aI1
asg167
Nsg168
g539
sg169
(lp542
sg171
g59
sg172
Nsg173
Nsg174
Nsbag3
(g4
g5
NtRp543
(dp544
g8
g10
sg152
Nsg153
(dp545
sg155
Nsg25
g27
sg156
(lp546
I39
aI1
asg158
Nsg159
VPirkei DeRabbi Eliezer 39:1
p547
sg161
(lp548
sg163
g116
sg164
Nsg165
(lp549
I39
aI1
asg167
Nsg168
g547
sg169
(lp550
sg171
g59
sg172
Nsg173
Nsg174
Nsbag3
(g4
g5
NtRp551
(dp552
g8
g10
sg152
Nsg153
(dp553
sg155
Nsg25
g27
sg156
(lp554
I40
aI1
asg158
Nsg159
VPirkei DeRabbi Eliezer 40:1
p555
sg161
(lp556
sg163
g116
sg164
Nsg165
(lp557
I40
aI1
asg167
Nsg168
g555
sg169
(lp558
sg171
g59
sg172
Nsg173
Nsg174
Nsbag3
(g4
g5
NtRp559
(dp560
g8
g10
sg152
Nsg153
(dp561
sg155
Nsg25
g27
sg156
(lp562
I41
aI1
asg158
Nsg159
VPirkei DeRabbi Eliezer 41:1
p563
sg161
(lp564
sg163
g116
sg164
Nsg165
(lp565
I41
aI1
asg167
Nsg168
g563
sg169
(lp566
sg171
g59
sg172
Nsg173
Nsg174
Nsbag3
(g4
g5
NtRp567
(dp568
g8
g10
sg152
Nsg153
(dp569
sg155
Nsg25
g27
sg156
(lp570
I42
aI1
asg158
Nsg159
VPirkei DeRabbi Eliezer 42:1
p571
sg161
(lp572
sg163
g116
sg164
Nsg165
(lp573
I42
aI1
asg167
Nsg168
g571
sg169
(lp574
sg171
g59
sg172
Nsg173
Nsg174
Nsbag3
(g4
g5
NtRp575
(dp576
g8
g10
sg152
Nsg153
(dp577
sg155
Nsg25
g27
sg156
(lp578
I43
aI1
asg158
Nsg159
VPirkei DeRabbi Eliezer 43:1
p579
sg161
(lp580
sg163
g116
sg164
Nsg165
(lp581
I43
aI1
asg167
Nsg168
g579
sg169
(lp582
sg171
g59
sg172
Nsg173
Nsg174
Nsbag3
(g4
g5
NtRp583
(dp584
g8
g10
sg152
Nsg153
(dp585
sg155
Nsg25
g27
sg156
(lp586
I44
aI1
asg158
Nsg159
VPirkei DeRabbi Eliezer 44:1
p587
sg161
(lp588
sg163
g116
sg164
Nsg165
(lp589
I44
aI1
asg167
Nsg168
g587
sg169
(lp590
sg171
g59
sg172
Nsg173
Nsg174
Nsbag3
(g4
g5
NtRp591
(dp592
g8
g10
sg152
Nsg153
(dp593
sg155
Nsg25
g27
sg156
(lp594
I45
aI1
asg158
Nsg159
VPirkei DeRabbi Eliezer 45:1
p595
sg161
(lp596
sg163
g116
sg164
Nsg165
(lp597
I45
aI1
asg167
Nsg168
g595
sg169
(lp598
sg171
g59
sg172
Nsg173
Nsg174
Nsbag3
(g4
g5
NtRp599
(dp600
g8
g10
sg152
Nsg153
(dp601
sg155
Nsg25
g27
sg156
(lp602
I46
aI1
asg158
Nsg159
VPirkei DeRabbi Eliezer 46:1
p603
sg161
(lp604
sg163
g116
sg164
Nsg165
(lp605
I46
aI1
asg167
Nsg168
g603
sg169
(lp606
sg171
g59
sg172
Nsg173
Nsg174
Nsbag3
(g4
g5
NtRp607
(dp608
g8
g10
sg152
Nsg153
(dp609
sg155
Nsg25
g27
sg156
(lp610
I46
aI2
asg158
Nsg159
VPirkei DeRabbi Eliezer 46:2
p611
sg161
(lp612
sg163
g116
sg164
Nsg165
(lp613
I46
aI2
asg167
Nsg168
g611
sg169
(lp614
sg171
g59
sg172
Nsg173
Nsg174
Nsbag3
(g4
g5
NtRp615
(dp616
g8
g10
sg152
Nsg153
(dp617
sg155
Nsg25
g27
sg156
(lp618
I46
aI3
asg158
Nsg159
VPirkei DeRabbi Eliezer 46:3
p619
sg161
(lp620
sg163
g116
sg164
Nsg165
(lp621
I46
aI3
asg167
Nsg168
g619
sg169
(lp622
sg171
g59
sg172
Nsg173
Nsg174
Nsbag3
(g4
g5
NtRp623
(dp624
g8
g10
sg152
Nsg153
(dp625
sg155
Nsg25
g27
sg156
(lp626
I46
aI4
asg158
Nsg159
VPirkei DeRabbi Eliezer 46:4
p627
sg161
(lp628
sg163
g116
sg164
Nsg165
(lp629
I46
aI4
asg167
Nsg168
g627
sg169
(lp630
sg171
g59
sg172
Nsg173
Nsg174
Nsbag3
(g4
g5
NtRp631
(dp632
g8
g10
sg152
Nsg153
(dp633
sg155
Nsg25
g27
sg156
(lp634
I47
aI1
asg158
Nsg159
VPirkei DeRabbi Eliezer 47:1
p635
sg161
(lp636
sg163
g116
sg164
Nsg165
(lp637
I47
aI1
asg167
Nsg168
g635
sg169
(lp638
sg171
g59
sg172
Nsg173
Nsg174
Nsbag3
(g4
g5
NtRp639
(dp640
g8
g10
sg152
Nsg153
(dp641
sg155
Nsg25
g27
sg156
(lp642
I48
aI1
asg158
Nsg159
VPirkei DeRabbi Eliezer 48:1
p643
sg161
(lp644
sg163
g116
sg164
Nsg165
(lp645
I48
aI1
asg167
Nsg168
g643
sg169
(lp646
sg171
g59
sg172
Nsg173
Nsg174
Nsbag3
(g4
g5
NtRp647
(dp648
g8
g10
sg152
Nsg153
(dp649
sg155
Nsg25
g27
sg156
(lp650
I49
aI1
asg158
Nsg159
VPirkei DeRabbi Eliezer 49:1
p651
sg161
(lp652
sg163
g116
sg164
Nsg165
(lp653
I49
aI1
asg167
Nsg168
g651
sg169
(lp654
sg171
g59
sg172
Nsg173
Nsg174
Nsbag3
(g4
g5
NtRp655
(dp656
g8
g10
sg152
Nsg153
(dp657
sg155
Nsg25
g27
sg156
(lp658
I50
aI1
asg158
Nsg159
VPirkei DeRabbi Eliezer 50:1
p659
sg161
(lp660
sg163
g116
sg164
Nsg165
(lp661
I50
aI1
asg167
Nsg168
g659
sg169
(lp662
sg171
g59
sg172
Nsg173
Nsg174
Nsbag3
(g4
g5
NtRp663
(dp664
g8
g10
sg152
Nsg153
(dp665
sg155
Nsg25
g27
sg156
(lp666
I51
aI1
asg158
Nsg159
VPirkei DeRabbi Eliezer 51:1
p667
sg161
(lp668
sg163
g116
sg164
Nsg165
(lp669
I51
aI1
asg167
Nsg168
g667
sg169
(lp670
sg171
g59
sg172
Nsg173
Nsg174
Nsbag3
(g4
g5
NtRp671
(dp672
g8
g10
sg152
Nsg153
(dp673
sg155
Nsg25
g27
sg156
(lp674
I52
aI1
asg158
Nsg159
VPirkei DeRabbi Eliezer 52:1
p675
sg161
(lp676
sg163
g116
sg164
Nsg165
(lp677
I52
aI1
asg167
Nsg168
g675
sg169
(lp678
sg171
g59
sg172
Nsg173
Nsg174
Nsbag3
(g4
g5
NtRp679
(dp680
g8
g10
sg152
Nsg153
(dp681
sg155
Nsg25
g27
sg156
(lp682
I53
aI1
asg158
Nsg159
VPirkei DeRabbi Eliezer 53:1
p683
sg161
(lp684
sg163
g116
sg164
Nsg165
(lp685
I53
aI1
asg167
Nsg168
g683
sg169
(lp686
sg171
g59
sg172
Nsg173
Nsg174
Nsbag3
(g4
g5
NtRp687
(dp688
g8
g10
sg152
Nsg153
(dp689
sg155
Nsg25
g27
sg156
(lp690
I54
aI1
asg158
Nsg159
VPirkei DeRabbi Eliezer 54:1
p691
sg161
(lp692
sg163
g116
sg164
Nsg165
(lp693
I54
aI1
asg167
Nsg168
g691
sg169
(lp694
sg171
g59
sg172
Nsg173
Nsg174
NsbaI41528
t.