((lp1
I0
aI44
aI358
aI445
aI895
aI993
aI1301
aI1572
aI1764
aI1837
aI1933
aI1964
aI2020
aI2102
aI2201
aI2507
aI2597
aI2743
aI2804
aI2844
aI2917
aI2985
aI3038
aI3095
aI3164
aI3262
aI3336
aI3427
aI3459
aI3513
aI3696
aI4177
aI4436
aI4670
aI4693
aI4861
aI4932
aI5165
aI5212
aI5372
aI5435
aI5811
aI6096
aI6109
aI6155
aI6235
aI6485
aI6498
aI6569
aI6685
aI6732
aI7607
aI7633
aI7651
aI7904
aI7946
aI8005
aI8164
aI8192
aI8272
aI8380
aI8679
aI8785
aI8832
aI9753
aI9818
aI9980
aI10004
aI10035
aI10125
aI10149
aI10270
aI10320
aI10374
aI10432
aI10674
aI10909
aI10998
aI11087
aI11148
aI11196
a(lp2
ccopy_reg
_reconstructor
p3
(csefaria.model.text
Ref
p4
c__builtin__
object
p5
NtRp6
(dp7
S'index_node'
p8
g3
(csefaria.model.schema
JaggedArrayNode
p9
g5
NtRp10
(dp11
S'_address'
p12
(lp13
VRuth Rabbah
p14
asS'_full_titles'
p15
(dp16
sVnodeType
p17
VJaggedArrayNode
p18
sS'parent'
p19
NsVaddressTypes
p20
(lp21
VInteger
p22
aVInteger
p23
asS'default'
p24
I00
sS'index'
p25
g3
(csefaria.model.text
Index
p26
g5
NtRp27
(dp28
S'struct_objs'
p29
(dp30
sS'_id'
p31
g3
(cbson.objectid
ObjectId
p32
g5
NtRp33
S'Q7\x8e\xae\xed\xba\xb4l\xb3\xd4kI'
p34
bsS'pkeys_orig_values'
p35
(dp36
S'title'
p37
VRuth Rabbah
p38
ssS'pubDate'
p39
V
sS'compDate'
p40
V
sS'pubPlace'
p41
V
sS'compPlace'
p42
V
sS'enDesc'
p43
V
sS'order'
p44
(lp45
F7
asS'era'
p46
NsS'authors'
p47
(lp48
sS'nodes'
p49
g10
sS'errorMargin'
p50
V
sS'_title'
p51
g38
sS'categories'
p52
(lp53
VMidrash
p54
aVAggadic Midrash
p55
aVMidrash Rabbah
p56
asS'schema'
p57
(dp58
g17
g18
sg20
g21
sVdepth
p59
I2
sVtitles
p60
(lp61
(dp62
Vlang
p63
Ven
p64
sVtext
p65
VRut Rabbah
p66
sa(dp67
Vlang
p68
Ven
p69
sVtext
p70
VRuth Rabba
p71
sa(dp72
Vlang
p73
Ven
p74
sVtext
p75
VRut Rabba
p76
sa(dp77
Vlang
p78
Vhe
p79
sVtext
p80
V\u05e8\u05d5\u05ea \u05e8\u05d1\u05d4
p81
sVprimary
p82
I01
sa(dp83
Vlang
p84
Ven
p85
sVtext
p86
VRuth Rabbah
p87
sVprimary
p88
I01
sasVkey
p89
g14
sVsectionNames
p90
(lp91
VChapter
p92
aVMidrash
p93
assbsS'_primary_title'
p94
(dp95
sS'title_group'
p96
g3
(csefaria.model.schema
TitleGroup
p97
g5
NtRp98
(dp99
g94
(dp100
S'en'
p101
g87
ssS'titles'
p102
g61
sbsS'_addressTypes'
p103
(lp104
g3
(csefaria.model.schema
AddressInteger
p105
g5
NtRp106
(dp107
S'length'
p108
Nsg44
I0
sbag3
(g105
g5
NtRp109
(dp110
g108
Nsg44
I1
sbasS'sharedTitle'
p111
Nsg59
I2
sS'_full_title'
p112
(dp113
g101
g87
ssS'key'
p114
g14
sS'checkFirst'
p115
NsS'_regexes'
p116
(dp117
sS'_leaf_nodes'
p118
(lp119
sg90
g91
sS'children'
p120
(lp121
sbsS'_range_index'
p122
NsS'_context'
p123
(dp124
sS'_padded'
p125
Nsg25
g27
sS'sections'
p126
(lp127
I1
aI1
asS'_first_spanned_ref'
p128
NsS'tref'
p129
VRuth Rabbah 1:1
p130
sS'_spanned_refs'
p131
(lp132
sS'book'
p133
g87
sS'_range_depth'
p134
NsS'toSections'
p135
(lp136
I1
aI1
asS'_url'
p137
NsS'_normal'
p138
g130
sS'_ranged_refs'
p139
(lp140
sS'type'
p141
g54
sS'_prev'
p142
NsS'_he_normal'
p143
NsS'_next'
p144
Nsbag3
(g4
g5
NtRp145
(dp146
g8
g10
sg122
Nsg123
(dp147
sg125
Nsg25
g27
sg126
(lp148
I1
aI2
asg128
Nsg129
VRuth Rabbah 1:2
p149
sg131
(lp150
sg133
g87
sg134
Nsg135
(lp151
I1
aI2
asg137
Nsg138
g149
sg139
(lp152
sg141
g54
sg142
Nsg143
Nsg144
Nsbag3
(g4
g5
NtRp153
(dp154
g8
g10
sg122
Nsg123
(dp155
sg125
Nsg25
g27
sg126
(lp156
I1
aI3
asg128
Nsg129
VRuth Rabbah 1:3
p157
sg131
(lp158
sg133
g87
sg134
Nsg135
(lp159
I1
aI3
asg137
Nsg138
g157
sg139
(lp160
sg141
g54
sg142
Nsg143
Nsg144
Nsbag3
(g4
g5
NtRp161
(dp162
g8
g10
sg122
Nsg123
(dp163
sg125
Nsg25
g27
sg126
(lp164
I1
aI4
asg128
Nsg129
VRuth Rabbah 1:4
p165
sg131
(lp166
sg133
g87
sg134
Nsg135
(lp167
I1
aI4
asg137
Nsg138
g165
sg139
(lp168
sg141
g54
sg142
Nsg143
Nsg144
Nsbag3
(g4
g5
NtRp169
(dp170
g8
g10
sg122
Nsg123
(dp171
sg125
Nsg25
g27
sg126
(lp172
I1
aI5
asg128
Nsg129
VRuth Rabbah 1:5
p173
sg131
(lp174
sg133
g87
sg134
Nsg135
(lp175
I1
aI5
asg137
Nsg138
g173
sg139
(lp176
sg141
g54
sg142
Nsg143
Nsg144
Nsbag3
(g4
g5
NtRp177
(dp178
g8
g10
sg122
Nsg123
(dp179
sg125
Nsg25
g27
sg126
(lp180
I2
aI1
asg128
Nsg129
VRuth Rabbah 2:1
p181
sg131
(lp182
sg133
g87
sg134
Nsg135
(lp183
I2
aI1
asg137
Nsg138
g181
sg139
(lp184
sg141
g54
sg142
Nsg143
Nsg144
Nsbag3
(g4
g5
NtRp185
(dp186
g8
g10
sg122
Nsg123
(dp187
sg125
Nsg25
g27
sg126
(lp188
I2
aI2
asg128
Nsg129
VRuth Rabbah 2:2
p189
sg131
(lp190
sg133
g87
sg134
Nsg135
(lp191
I2
aI2
asg137
Nsg138
g189
sg139
(lp192
sg141
g54
sg142
Nsg143
Nsg144
Nsbag3
(g4
g5
NtRp193
(dp194
g8
g10
sg122
Nsg123
(dp195
sg125
Nsg25
g27
sg126
(lp196
I2
aI3
asg128
Nsg129
VRuth Rabbah 2:3
p197
sg131
(lp198
sg133
g87
sg134
Nsg135
(lp199
I2
aI3
asg137
Nsg138
g197
sg139
(lp200
sg141
g54
sg142
Nsg143
Nsg144
Nsbag3
(g4
g5
NtRp201
(dp202
g8
g10
sg122
Nsg123
(dp203
sg125
Nsg25
g27
sg126
(lp204
I2
aI4
asg128
Nsg129
VRuth Rabbah 2:4
p205
sg131
(lp206
sg133
g87
sg134
Nsg135
(lp207
I2
aI4
asg137
Nsg138
g205
sg139
(lp208
sg141
g54
sg142
Nsg143
Nsg144
Nsbag3
(g4
g5
NtRp209
(dp210
g8
g10
sg122
Nsg123
(dp211
sg125
Nsg25
g27
sg126
(lp212
I2
aI5
asg128
Nsg129
VRuth Rabbah 2:5
p213
sg131
(lp214
sg133
g87
sg134
Nsg135
(lp215
I2
aI5
asg137
Nsg138
g213
sg139
(lp216
sg141
g54
sg142
Nsg143
Nsg144
Nsbag3
(g4
g5
NtRp217
(dp218
g8
g10
sg122
Nsg123
(dp219
sg125
Nsg25
g27
sg126
(lp220
I2
aI6
asg128
Nsg129
VRuth Rabbah 2:6
p221
sg131
(lp222
sg133
g87
sg134
Nsg135
(lp223
I2
aI6
asg137
Nsg138
g221
sg139
(lp224
sg141
g54
sg142
Nsg143
Nsg144
Nsbag3
(g4
g5
NtRp225
(dp226
g8
g10
sg122
Nsg123
(dp227
sg125
Nsg25
g27
sg126
(lp228
I2
aI7
asg128
Nsg129
VRuth Rabbah 2:7
p229
sg131
(lp230
sg133
g87
sg134
Nsg135
(lp231
I2
aI7
asg137
Nsg138
g229
sg139
(lp232
sg141
g54
sg142
Nsg143
Nsg144
Nsbag3
(g4
g5
NtRp233
(dp234
g8
g10
sg122
Nsg123
(dp235
sg125
Nsg25
g27
sg126
(lp236
I2
aI8
asg128
Nsg129
VRuth Rabbah 2:8
p237
sg131
(lp238
sg133
g87
sg134
Nsg135
(lp239
I2
aI8
asg137
Nsg138
g237
sg139
(lp240
sg141
g54
sg142
Nsg143
Nsg144
Nsbag3
(g4
g5
NtRp241
(dp242
g8
g10
sg122
Nsg123
(dp243
sg125
Nsg25
g27
sg126
(lp244
I2
aI9
asg128
Nsg129
VRuth Rabbah 2:9
p245
sg131
(lp246
sg133
g87
sg134
Nsg135
(lp247
I2
aI9
asg137
Nsg138
g245
sg139
(lp248
sg141
g54
sg142
Nsg143
Nsg144
Nsbag3
(g4
g5
NtRp249
(dp250
g8
g10
sg122
Nsg123
(dp251
sg125
Nsg25
g27
sg126
(lp252
I2
aI10
asg128
Nsg129
VRuth Rabbah 2:10
p253
sg131
(lp254
sg133
g87
sg134
Nsg135
(lp255
I2
aI10
asg137
Nsg138
g253
sg139
(lp256
sg141
g54
sg142
Nsg143
Nsg144
Nsbag3
(g4
g5
NtRp257
(dp258
g8
g10
sg122
Nsg123
(dp259
sg125
Nsg25
g27
sg126
(lp260
I2
aI11
asg128
Nsg129
VRuth Rabbah 2:11
p261
sg131
(lp262
sg133
g87
sg134
Nsg135
(lp263
I2
aI11
asg137
Nsg138
g261
sg139
(lp264
sg141
g54
sg142
Nsg143
Nsg144
Nsbag3
(g4
g5
NtRp265
(dp266
g8
g10
sg122
Nsg123
(dp267
sg125
Nsg25
g27
sg126
(lp268
I2
aI12
asg128
Nsg129
VRuth Rabbah 2:12
p269
sg131
(lp270
sg133
g87
sg134
Nsg135
(lp271
I2
aI12
asg137
Nsg138
g269
sg139
(lp272
sg141
g54
sg142
Nsg143
Nsg144
Nsbag3
(g4
g5
NtRp273
(dp274
g8
g10
sg122
Nsg123
(dp275
sg125
Nsg25
g27
sg126
(lp276
I2
aI13
asg128
Nsg129
VRuth Rabbah 2:13
p277
sg131
(lp278
sg133
g87
sg134
Nsg135
(lp279
I2
aI13
asg137
Nsg138
g277
sg139
(lp280
sg141
g54
sg142
Nsg143
Nsg144
Nsbag3
(g4
g5
NtRp281
(dp282
g8
g10
sg122
Nsg123
(dp283
sg125
Nsg25
g27
sg126
(lp284
I2
aI14
asg128
Nsg129
VRuth Rabbah 2:14
p285
sg131
(lp286
sg133
g87
sg134
Nsg135
(lp287
I2
aI14
asg137
Nsg138
g285
sg139
(lp288
sg141
g54
sg142
Nsg143
Nsg144
Nsbag3
(g4
g5
NtRp289
(dp290
g8
g10
sg122
Nsg123
(dp291
sg125
Nsg25
g27
sg126
(lp292
I2
aI15
asg128
Nsg129
VRuth Rabbah 2:15
p293
sg131
(lp294
sg133
g87
sg134
Nsg135
(lp295
I2
aI15
asg137
Nsg138
g293
sg139
(lp296
sg141
g54
sg142
Nsg143
Nsg144
Nsbag3
(g4
g5
NtRp297
(dp298
g8
g10
sg122
Nsg123
(dp299
sg125
Nsg25
g27
sg126
(lp300
I2
aI16
asg128
Nsg129
VRuth Rabbah 2:16
p301
sg131
(lp302
sg133
g87
sg134
Nsg135
(lp303
I2
aI16
asg137
Nsg138
g301
sg139
(lp304
sg141
g54
sg142
Nsg143
Nsg144
Nsbag3
(g4
g5
NtRp305
(dp306
g8
g10
sg122
Nsg123
(dp307
sg125
Nsg25
g27
sg126
(lp308
I2
aI17
asg128
Nsg129
VRuth Rabbah 2:17
p309
sg131
(lp310
sg133
g87
sg134
Nsg135
(lp311
I2
aI17
asg137
Nsg138
g309
sg139
(lp312
sg141
g54
sg142
Nsg143
Nsg144
Nsbag3
(g4
g5
NtRp313
(dp314
g8
g10
sg122
Nsg123
(dp315
sg125
Nsg25
g27
sg126
(lp316
I2
aI18
asg128
Nsg129
VRuth Rabbah 2:18
p317
sg131
(lp318
sg133
g87
sg134
Nsg135
(lp319
I2
aI18
asg137
Nsg138
g317
sg139
(lp320
sg141
g54
sg142
Nsg143
Nsg144
Nsbag3
(g4
g5
NtRp321
(dp322
g8
g10
sg122
Nsg123
(dp323
sg125
Nsg25
g27
sg126
(lp324
I2
aI19
asg128
Nsg129
VRuth Rabbah 2:19
p325
sg131
(lp326
sg133
g87
sg134
Nsg135
(lp327
I2
aI19
asg137
Nsg138
g325
sg139
(lp328
sg141
g54
sg142
Nsg143
Nsg144
Nsbag3
(g4
g5
NtRp329
(dp330
g8
g10
sg122
Nsg123
(dp331
sg125
Nsg25
g27
sg126
(lp332
I2
aI20
asg128
Nsg129
VRuth Rabbah 2:20
p333
sg131
(lp334
sg133
g87
sg134
Nsg135
(lp335
I2
aI20
asg137
Nsg138
g333
sg139
(lp336
sg141
g54
sg142
Nsg143
Nsg144
Nsbag3
(g4
g5
NtRp337
(dp338
g8
g10
sg122
Nsg123
(dp339
sg125
Nsg25
g27
sg126
(lp340
I2
aI21
asg128
Nsg129
VRuth Rabbah 2:21
p341
sg131
(lp342
sg133
g87
sg134
Nsg135
(lp343
I2
aI21
asg137
Nsg138
g341
sg139
(lp344
sg141
g54
sg142
Nsg143
Nsg144
Nsbag3
(g4
g5
NtRp345
(dp346
g8
g10
sg122
Nsg123
(dp347
sg125
Nsg25
g27
sg126
(lp348
I2
aI22
asg128
Nsg129
VRuth Rabbah 2:22
p349
sg131
(lp350
sg133
g87
sg134
Nsg135
(lp351
I2
aI22
asg137
Nsg138
g349
sg139
(lp352
sg141
g54
sg142
Nsg143
Nsg144
Nsbag3
(g4
g5
NtRp353
(dp354
g8
g10
sg122
Nsg123
(dp355
sg125
Nsg25
g27
sg126
(lp356
I2
aI23
asg128
Nsg129
VRuth Rabbah 2:23
p357
sg131
(lp358
sg133
g87
sg134
Nsg135
(lp359
I2
aI23
asg137
Nsg138
g357
sg139
(lp360
sg141
g54
sg142
Nsg143
Nsg144
Nsbag3
(g4
g5
NtRp361
(dp362
g8
g10
sg122
Nsg123
(dp363
sg125
Nsg25
g27
sg126
(lp364
I2
aI24
asg128
Nsg129
VRuth Rabbah 2:24
p365
sg131
(lp366
sg133
g87
sg134
Nsg135
(lp367
I2
aI24
asg137
Nsg138
g365
sg139
(lp368
sg141
g54
sg142
Nsg143
Nsg144
Nsbag3
(g4
g5
NtRp369
(dp370
g8
g10
sg122
Nsg123
(dp371
sg125
Nsg25
g27
sg126
(lp372
I3
aI1
asg128
Nsg129
VRuth Rabbah 3:1
p373
sg131
(lp374
sg133
g87
sg134
Nsg135
(lp375
I3
aI1
asg137
Nsg138
g373
sg139
(lp376
sg141
g54
sg142
Nsg143
Nsg144
Nsbag3
(g4
g5
NtRp377
(dp378
g8
g10
sg122
Nsg123
(dp379
sg125
Nsg25
g27
sg126
(lp380
I3
aI2
asg128
Nsg129
VRuth Rabbah 3:2
p381
sg131
(lp382
sg133
g87
sg134
Nsg135
(lp383
I3
aI2
asg137
Nsg138
g381
sg139
(lp384
sg141
g54
sg142
Nsg143
Nsg144
Nsbag3
(g4
g5
NtRp385
(dp386
g8
g10
sg122
Nsg123
(dp387
sg125
Nsg25
g27
sg126
(lp388
I3
aI3
asg128
Nsg129
VRuth Rabbah 3:3
p389
sg131
(lp390
sg133
g87
sg134
Nsg135
(lp391
I3
aI3
asg137
Nsg138
g389
sg139
(lp392
sg141
g54
sg142
Nsg143
Nsg144
Nsbag3
(g4
g5
NtRp393
(dp394
g8
g10
sg122
Nsg123
(dp395
sg125
Nsg25
g27
sg126
(lp396
I3
aI4
asg128
Nsg129
VRuth Rabbah 3:4
p397
sg131
(lp398
sg133
g87
sg134
Nsg135
(lp399
I3
aI4
asg137
Nsg138
g397
sg139
(lp400
sg141
g54
sg142
Nsg143
Nsg144
Nsbag3
(g4
g5
NtRp401
(dp402
g8
g10
sg122
Nsg123
(dp403
sg125
Nsg25
g27
sg126
(lp404
I3
aI5
asg128
Nsg129
VRuth Rabbah 3:5
p405
sg131
(lp406
sg133
g87
sg134
Nsg135
(lp407
I3
aI5
asg137
Nsg138
g405
sg139
(lp408
sg141
g54
sg142
Nsg143
Nsg144
Nsbag3
(g4
g5
NtRp409
(dp410
g8
g10
sg122
Nsg123
(dp411
sg125
Nsg25
g27
sg126
(lp412
I3
aI6
asg128
Nsg129
VRuth Rabbah 3:6
p413
sg131
(lp414
sg133
g87
sg134
Nsg135
(lp415
I3
aI6
asg137
Nsg138
g413
sg139
(lp416
sg141
g54
sg142
Nsg143
Nsg144
Nsbag3
(g4
g5
NtRp417
(dp418
g8
g10
sg122
Nsg123
(dp419
sg125
Nsg25
g27
sg126
(lp420
I3
aI7
asg128
Nsg129
VRuth Rabbah 3:7
p421
sg131
(lp422
sg133
g87
sg134
Nsg135
(lp423
I3
aI7
asg137
Nsg138
g421
sg139
(lp424
sg141
g54
sg142
Nsg143
Nsg144
Nsbag3
(g4
g5
NtRp425
(dp426
g8
g10
sg122
Nsg123
(dp427
sg125
Nsg25
g27
sg126
(lp428
I4
aI1
asg128
Nsg129
VRuth Rabbah 4:1
p429
sg131
(lp430
sg133
g87
sg134
Nsg135
(lp431
I4
aI1
asg137
Nsg138
g429
sg139
(lp432
sg141
g54
sg142
Nsg143
Nsg144
Nsbag3
(g4
g5
NtRp433
(dp434
g8
g10
sg122
Nsg123
(dp435
sg125
Nsg25
g27
sg126
(lp436
I4
aI2
asg128
Nsg129
VRuth Rabbah 4:2
p437
sg131
(lp438
sg133
g87
sg134
Nsg135
(lp439
I4
aI2
asg137
Nsg138
g437
sg139
(lp440
sg141
g54
sg142
Nsg143
Nsg144
Nsbag3
(g4
g5
NtRp441
(dp442
g8
g10
sg122
Nsg123
(dp443
sg125
Nsg25
g27
sg126
(lp444
I4
aI3
asg128
Nsg129
VRuth Rabbah 4:3
p445
sg131
(lp446
sg133
g87
sg134
Nsg135
(lp447
I4
aI3
asg137
Nsg138
g445
sg139
(lp448
sg141
g54
sg142
Nsg143
Nsg144
Nsbag3
(g4
g5
NtRp449
(dp450
g8
g10
sg122
Nsg123
(dp451
sg125
Nsg25
g27
sg126
(lp452
I4
aI4
asg128
Nsg129
VRuth Rabbah 4:4
p453
sg131
(lp454
sg133
g87
sg134
Nsg135
(lp455
I4
aI4
asg137
Nsg138
g453
sg139
(lp456
sg141
g54
sg142
Nsg143
Nsg144
Nsbag3
(g4
g5
NtRp457
(dp458
g8
g10
sg122
Nsg123
(dp459
sg125
Nsg25
g27
sg126
(lp460
I4
aI5
asg128
Nsg129
VRuth Rabbah 4:5
p461
sg131
(lp462
sg133
g87
sg134
Nsg135
(lp463
I4
aI5
asg137
Nsg138
g461
sg139
(lp464
sg141
g54
sg142
Nsg143
Nsg144
Nsbag3
(g4
g5
NtRp465
(dp466
g8
g10
sg122
Nsg123
(dp467
sg125
Nsg25
g27
sg126
(lp468
I4
aI6
asg128
Nsg129
VRuth Rabbah 4:6
p469
sg131
(lp470
sg133
g87
sg134
Nsg135
(lp471
I4
aI6
asg137
Nsg138
g469
sg139
(lp472
sg141
g54
sg142
Nsg143
Nsg144
Nsbag3
(g4
g5
NtRp473
(dp474
g8
g10
sg122
Nsg123
(dp475
sg125
Nsg25
g27
sg126
(lp476
I4
aI7
asg128
Nsg129
VRuth Rabbah 4:7
p477
sg131
(lp478
sg133
g87
sg134
Nsg135
(lp479
I4
aI7
asg137
Nsg138
g477
sg139
(lp480
sg141
g54
sg142
Nsg143
Nsg144
Nsbag3
(g4
g5
NtRp481
(dp482
g8
g10
sg122
Nsg123
(dp483
sg125
Nsg25
g27
sg126
(lp484
I4
aI8
asg128
Nsg129
VRuth Rabbah 4:8
p485
sg131
(lp486
sg133
g87
sg134
Nsg135
(lp487
I4
aI8
asg137
Nsg138
g485
sg139
(lp488
sg141
g54
sg142
Nsg143
Nsg144
Nsbag3
(g4
g5
NtRp489
(dp490
g8
g10
sg122
Nsg123
(dp491
sg125
Nsg25
g27
sg126
(lp492
I4
aI9
asg128
Nsg129
VRuth Rabbah 4:9
p493
sg131
(lp494
sg133
g87
sg134
Nsg135
(lp495
I4
aI9
asg137
Nsg138
g493
sg139
(lp496
sg141
g54
sg142
Nsg143
Nsg144
Nsbag3
(g4
g5
NtRp497
(dp498
g8
g10
sg122
Nsg123
(dp499
sg125
Nsg25
g27
sg126
(lp500
I5
aI1
asg128
Nsg129
VRuth Rabbah 5:1
p501
sg131
(lp502
sg133
g87
sg134
Nsg135
(lp503
I5
aI1
asg137
Nsg138
g501
sg139
(lp504
sg141
g54
sg142
Nsg143
Nsg144
Nsbag3
(g4
g5
NtRp505
(dp506
g8
g10
sg122
Nsg123
(dp507
sg125
Nsg25
g27
sg126
(lp508
I5
aI2
asg128
Nsg129
VRuth Rabbah 5:2
p509
sg131
(lp510
sg133
g87
sg134
Nsg135
(lp511
I5
aI2
asg137
Nsg138
g509
sg139
(lp512
sg141
g54
sg142
Nsg143
Nsg144
Nsbag3
(g4
g5
NtRp513
(dp514
g8
g10
sg122
Nsg123
(dp515
sg125
Nsg25
g27
sg126
(lp516
I5
aI3
asg128
Nsg129
VRuth Rabbah 5:3
p517
sg131
(lp518
sg133
g87
sg134
Nsg135
(lp519
I5
aI3
asg137
Nsg138
g517
sg139
(lp520
sg141
g54
sg142
Nsg143
Nsg144
Nsbag3
(g4
g5
NtRp521
(dp522
g8
g10
sg122
Nsg123
(dp523
sg125
Nsg25
g27
sg126
(lp524
I5
aI4
asg128
Nsg129
VRuth Rabbah 5:4
p525
sg131
(lp526
sg133
g87
sg134
Nsg135
(lp527
I5
aI4
asg137
Nsg138
g525
sg139
(lp528
sg141
g54
sg142
Nsg143
Nsg144
Nsbag3
(g4
g5
NtRp529
(dp530
g8
g10
sg122
Nsg123
(dp531
sg125
Nsg25
g27
sg126
(lp532
I5
aI5
asg128
Nsg129
VRuth Rabbah 5:5
p533
sg131
(lp534
sg133
g87
sg134
Nsg135
(lp535
I5
aI5
asg137
Nsg138
g533
sg139
(lp536
sg141
g54
sg142
Nsg143
Nsg144
Nsbag3
(g4
g5
NtRp537
(dp538
g8
g10
sg122
Nsg123
(dp539
sg125
Nsg25
g27
sg126
(lp540
I5
aI6
asg128
Nsg129
VRuth Rabbah 5:6
p541
sg131
(lp542
sg133
g87
sg134
Nsg135
(lp543
I5
aI6
asg137
Nsg138
g541
sg139
(lp544
sg141
g54
sg142
Nsg143
Nsg144
Nsbag3
(g4
g5
NtRp545
(dp546
g8
g10
sg122
Nsg123
(dp547
sg125
Nsg25
g27
sg126
(lp548
I5
aI7
asg128
Nsg129
VRuth Rabbah 5:7
p549
sg131
(lp550
sg133
g87
sg134
Nsg135
(lp551
I5
aI7
asg137
Nsg138
g549
sg139
(lp552
sg141
g54
sg142
Nsg143
Nsg144
Nsbag3
(g4
g5
NtRp553
(dp554
g8
g10
sg122
Nsg123
(dp555
sg125
Nsg25
g27
sg126
(lp556
I5
aI8
asg128
Nsg129
VRuth Rabbah 5:8
p557
sg131
(lp558
sg133
g87
sg134
Nsg135
(lp559
I5
aI8
asg137
Nsg138
g557
sg139
(lp560
sg141
g54
sg142
Nsg143
Nsg144
Nsbag3
(g4
g5
NtRp561
(dp562
g8
g10
sg122
Nsg123
(dp563
sg125
Nsg25
g27
sg126
(lp564
I5
aI9
asg128
Nsg129
VRuth Rabbah 5:9
p565
sg131
(lp566
sg133
g87
sg134
Nsg135
(lp567
I5
aI9
asg137
Nsg138
g565
sg139
(lp568
sg141
g54
sg142
Nsg143
Nsg144
Nsbag3
(g4
g5
NtRp569
(dp570
g8
g10
sg122
Nsg123
(dp571
sg125
Nsg25
g27
sg126
(lp572
I5
aI10
asg128
Nsg129
VRuth Rabbah 5:10
p573
sg131
(lp574
sg133
g87
sg134
Nsg135
(lp575
I5
aI10
asg137
Nsg138
g573
sg139
(lp576
sg141
g54
sg142
Nsg143
Nsg144
Nsbag3
(g4
g5
NtRp577
(dp578
g8
g10
sg122
Nsg123
(dp579
sg125
Nsg25
g27
sg126
(lp580
I5
aI11
asg128
Nsg129
VRuth Rabbah 5:11
p581
sg131
(lp582
sg133
g87
sg134
Nsg135
(lp583
I5
aI11
asg137
Nsg138
g581
sg139
(lp584
sg141
g54
sg142
Nsg143
Nsg144
Nsbag3
(g4
g5
NtRp585
(dp586
g8
g10
sg122
Nsg123
(dp587
sg125
Nsg25
g27
sg126
(lp588
I5
aI12
asg128
Nsg129
VRuth Rabbah 5:12
p589
sg131
(lp590
sg133
g87
sg134
Nsg135
(lp591
I5
aI12
asg137
Nsg138
g589
sg139
(lp592
sg141
g54
sg142
Nsg143
Nsg144
Nsbag3
(g4
g5
NtRp593
(dp594
g8
g10
sg122
Nsg123
(dp595
sg125
Nsg25
g27
sg126
(lp596
I5
aI13
asg128
Nsg129
VRuth Rabbah 5:13
p597
sg131
(lp598
sg133
g87
sg134
Nsg135
(lp599
I5
aI13
asg137
Nsg138
g597
sg139
(lp600
sg141
g54
sg142
Nsg143
Nsg144
Nsbag3
(g4
g5
NtRp601
(dp602
g8
g10
sg122
Nsg123
(dp603
sg125
Nsg25
g27
sg126
(lp604
I5
aI14
asg128
Nsg129
VRuth Rabbah 5:14
p605
sg131
(lp606
sg133
g87
sg134
Nsg135
(lp607
I5
aI14
asg137
Nsg138
g605
sg139
(lp608
sg141
g54
sg142
Nsg143
Nsg144
Nsbag3
(g4
g5
NtRp609
(dp610
g8
g10
sg122
Nsg123
(dp611
sg125
Nsg25
g27
sg126
(lp612
I5
aI15
asg128
Nsg129
VRuth Rabbah 5:15
p613
sg131
(lp614
sg133
g87
sg134
Nsg135
(lp615
I5
aI15
asg137
Nsg138
g613
sg139
(lp616
sg141
g54
sg142
Nsg143
Nsg144
Nsbag3
(g4
g5
NtRp617
(dp618
g8
g10
sg122
Nsg123
(dp619
sg125
Nsg25
g27
sg126
(lp620
I6
aI1
asg128
Nsg129
VRuth Rabbah 6:1
p621
sg131
(lp622
sg133
g87
sg134
Nsg135
(lp623
I6
aI1
asg137
Nsg138
g621
sg139
(lp624
sg141
g54
sg142
Nsg143
Nsg144
Nsbag3
(g4
g5
NtRp625
(dp626
g8
g10
sg122
Nsg123
(dp627
sg125
Nsg25
g27
sg126
(lp628
I6
aI2
asg128
Nsg129
VRuth Rabbah 6:2
p629
sg131
(lp630
sg133
g87
sg134
Nsg135
(lp631
I6
aI2
asg137
Nsg138
g629
sg139
(lp632
sg141
g54
sg142
Nsg143
Nsg144
Nsbag3
(g4
g5
NtRp633
(dp634
g8
g10
sg122
Nsg123
(dp635
sg125
Nsg25
g27
sg126
(lp636
I6
aI3
asg128
Nsg129
VRuth Rabbah 6:3
p637
sg131
(lp638
sg133
g87
sg134
Nsg135
(lp639
I6
aI3
asg137
Nsg138
g637
sg139
(lp640
sg141
g54
sg142
Nsg143
Nsg144
Nsbag3
(g4
g5
NtRp641
(dp642
g8
g10
sg122
Nsg123
(dp643
sg125
Nsg25
g27
sg126
(lp644
I6
aI4
asg128
Nsg129
VRuth Rabbah 6:4
p645
sg131
(lp646
sg133
g87
sg134
Nsg135
(lp647
I6
aI4
asg137
Nsg138
g645
sg139
(lp648
sg141
g54
sg142
Nsg143
Nsg144
Nsbag3
(g4
g5
NtRp649
(dp650
g8
g10
sg122
Nsg123
(dp651
sg125
Nsg25
g27
sg126
(lp652
I7
aI1
asg128
Nsg129
VRuth Rabbah 7:1
p653
sg131
(lp654
sg133
g87
sg134
Nsg135
(lp655
I7
aI1
asg137
Nsg138
g653
sg139
(lp656
sg141
g54
sg142
Nsg143
Nsg144
Nsbag3
(g4
g5
NtRp657
(dp658
g8
g10
sg122
Nsg123
(dp659
sg125
Nsg25
g27
sg126
(lp660
I7
aI2
asg128
Nsg129
VRuth Rabbah 7:2
p661
sg131
(lp662
sg133
g87
sg134
Nsg135
(lp663
I7
aI2
asg137
Nsg138
g661
sg139
(lp664
sg141
g54
sg142
Nsg143
Nsg144
Nsbag3
(g4
g5
NtRp665
(dp666
g8
g10
sg122
Nsg123
(dp667
sg125
Nsg25
g27
sg126
(lp668
I7
aI3
asg128
Nsg129
VRuth Rabbah 7:3
p669
sg131
(lp670
sg133
g87
sg134
Nsg135
(lp671
I7
aI3
asg137
Nsg138
g669
sg139
(lp672
sg141
g54
sg142
Nsg143
Nsg144
Nsbag3
(g4
g5
NtRp673
(dp674
g8
g10
sg122
Nsg123
(dp675
sg125
Nsg25
g27
sg126
(lp676
I7
aI4
asg128
Nsg129
VRuth Rabbah 7:4
p677
sg131
(lp678
sg133
g87
sg134
Nsg135
(lp679
I7
aI4
asg137
Nsg138
g677
sg139
(lp680
sg141
g54
sg142
Nsg143
Nsg144
Nsbag3
(g4
g5
NtRp681
(dp682
g8
g10
sg122
Nsg123
(dp683
sg125
Nsg25
g27
sg126
(lp684
I7
aI5
asg128
Nsg129
VRuth Rabbah 7:5
p685
sg131
(lp686
sg133
g87
sg134
Nsg135
(lp687
I7
aI5
asg137
Nsg138
g685
sg139
(lp688
sg141
g54
sg142
Nsg143
Nsg144
Nsbag3
(g4
g5
NtRp689
(dp690
g8
g10
sg122
Nsg123
(dp691
sg125
Nsg25
g27
sg126
(lp692
I7
aI6
asg128
Nsg129
VRuth Rabbah 7:6
p693
sg131
(lp694
sg133
g87
sg134
Nsg135
(lp695
I7
aI6
asg137
Nsg138
g693
sg139
(lp696
sg141
g54
sg142
Nsg143
Nsg144
Nsbag3
(g4
g5
NtRp697
(dp698
g8
g10
sg122
Nsg123
(dp699
sg125
Nsg25
g27
sg126
(lp700
I7
aI7
asg128
Nsg129
VRuth Rabbah 7:7
p701
sg131
(lp702
sg133
g87
sg134
Nsg135
(lp703
I7
aI7
asg137
Nsg138
g701
sg139
(lp704
sg141
g54
sg142
Nsg143
Nsg144
Nsbag3
(g4
g5
NtRp705
(dp706
g8
g10
sg122
Nsg123
(dp707
sg125
Nsg25
g27
sg126
(lp708
I7
aI8
asg128
Nsg129
VRuth Rabbah 7:8
p709
sg131
(lp710
sg133
g87
sg134
Nsg135
(lp711
I7
aI8
asg137
Nsg138
g709
sg139
(lp712
sg141
g54
sg142
Nsg143
Nsg144
Nsbag3
(g4
g5
NtRp713
(dp714
g8
g10
sg122
Nsg123
(dp715
sg125
Nsg25
g27
sg126
(lp716
I7
aI9
asg128
Nsg129
VRuth Rabbah 7:9
p717
sg131
(lp718
sg133
g87
sg134
Nsg135
(lp719
I7
aI9
asg137
Nsg138
g717
sg139
(lp720
sg141
g54
sg142
Nsg143
Nsg144
Nsbag3
(g4
g5
NtRp721
(dp722
g8
g10
sg122
Nsg123
(dp723
sg125
Nsg25
g27
sg126
(lp724
I7
aI10
asg128
Nsg129
VRuth Rabbah 7:10
p725
sg131
(lp726
sg133
g87
sg134
Nsg135
(lp727
I7
aI10
asg137
Nsg138
g725
sg139
(lp728
sg141
g54
sg142
Nsg143
Nsg144
Nsbag3
(g4
g5
NtRp729
(dp730
g8
g10
sg122
Nsg123
(dp731
sg125
Nsg25
g27
sg126
(lp732
I7
aI11
asg128
Nsg129
VRuth Rabbah 7:11
p733
sg131
(lp734
sg133
g87
sg134
Nsg135
(lp735
I7
aI11
asg137
Nsg138
g733
sg139
(lp736
sg141
g54
sg142
Nsg143
Nsg144
Nsbag3
(g4
g5
NtRp737
(dp738
g8
g10
sg122
Nsg123
(dp739
sg125
Nsg25
g27
sg126
(lp740
I7
aI12
asg128
Nsg129
VRuth Rabbah 7:12
p741
sg131
(lp742
sg133
g87
sg134
Nsg135
(lp743
I7
aI12
asg137
Nsg138
g741
sg139
(lp744
sg141
g54
sg142
Nsg143
Nsg144
Nsbag3
(g4
g5
NtRp745
(dp746
g8
g10
sg122
Nsg123
(dp747
sg125
Nsg25
g27
sg126
(lp748
I7
aI13
asg128
Nsg129
VRuth Rabbah 7:13
p749
sg131
(lp750
sg133
g87
sg134
Nsg135
(lp751
I7
aI13
asg137
Nsg138
g749
sg139
(lp752
sg141
g54
sg142
Nsg143
Nsg144
Nsbag3
(g4
g5
NtRp753
(dp754
g8
g10
sg122
Nsg123
(dp755
sg125
Nsg25
g27
sg126
(lp756
I7
aI14
asg128
Nsg129
VRuth Rabbah 7:14
p757
sg131
(lp758
sg133
g87
sg134
Nsg135
(lp759
I7
aI14
asg137
Nsg138
g757
sg139
(lp760
sg141
g54
sg142
Nsg143
Nsg144
Nsbag3
(g4
g5
NtRp761
(dp762
g8
g10
sg122
Nsg123
(dp763
sg125
Nsg25
g27
sg126
(lp764
I7
aI15
asg128
Nsg129
VRuth Rabbah 7:15
p765
sg131
(lp766
sg133
g87
sg134
Nsg135
(lp767
I7
aI15
asg137
Nsg138
g765
sg139
(lp768
sg141
g54
sg142
Nsg143
Nsg144
Nsbag3
(g4
g5
NtRp769
(dp770
g8
g10
sg122
Nsg123
(dp771
sg125
Nsg25
g27
sg126
(lp772
I7
aI16
asg128
Nsg129
VRuth Rabbah 7:16
p773
sg131
(lp774
sg133
g87
sg134
Nsg135
(lp775
I7
aI16
asg137
Nsg138
g773
sg139
(lp776
sg141
g54
sg142
Nsg143
Nsg144
Nsbag3
(g4
g5
NtRp777
(dp778
g8
g10
sg122
Nsg123
(dp779
sg125
Nsg25
g27
sg126
(lp780
I8
aI1
asg128
Nsg129
VRuth Rabbah 8:1
p781
sg131
(lp782
sg133
g87
sg134
Nsg135
(lp783
I8
aI1
asg137
Nsg138
g781
sg139
(lp784
sg141
g54
sg142
Nsg143
Nsg144
NsbaI11541
t.