((lp1
I0
aI2
aI448
aI450
aI955
aI957
aI1420
aI1422
aI1899
aI1901
aI2454
aI2456
aI2765
aI2767
aI3102
aI3104
aI3398
aI3400
aI3705
aI3707
aI4073
aI4077
aI4079
aI4495
aI4497
aI4828
aI4830
aI5183
aI5185
aI5479
aI5481
aI5832
aI5834
aI6237
aI6239
aI6605
aI6607
aI6775
aI6777
aI7157
aI7159
aI7758
aI7762
aI7764
aI8200
aI8202
aI8794
aI8796
aI9254
aI9256
aI9674
aI9676
aI10121
aI10123
aI10802
aI10804
aI11219
aI11221
aI11800
aI11802
aI12127
aI12129
aI12828
a(lp2
ccopy_reg
_reconstructor
p3
(csefaria.model.text
Ref
p4
c__builtin__
object
p5
NtRp6
(dp7
S'index_node'
p8
g3
(csefaria.model.schema
JaggedArrayNode
p9
g5
NtRp10
(dp11
S'_address'
p12
(lp13
VSeder Olam Rabbah
p14
aVdefault
p15
asS'_full_titles'
p16
(dp17
sVnodeType
p18
VJaggedArrayNode
p19
sS'parent'
p20
g3
(csefaria.model.schema
SchemaNode
p21
g5
NtRp22
(dp23
g12
(lp24
g14
asg16
(dp25
sg20
NsS'index'
p26
g3
(csefaria.model.text
Index
p27
g5
NtRp28
(dp29
S'_id'
p30
g3
(cbson.objectid
ObjectId
p31
g5
NtRp32
S'UZJK\xfb\xfb\xa2H\x85>\xe9\x1c'
p33
bsS'pkeys_orig_values'
p34
(dp35
S'title'
p36
VSeder Olam Rabbah
p37
ssS'pubDate'
p38
V1513
p39
sS'compDate'
p40
V350
p41
sS'pubPlace'
p42
VMantua
p43
sS'compPlace'
p44
VTalmudic Israel/Babylon
p45
sS'enDesc'
p46
VSeder Olam Rabbah (The Great Order of the World) is a 2nd-century CE Hebrew language chronology detailing the dates of biblical events from the Creation to Alexander the Great's conquest of Persia. Originally Seder Olam was a more extensive work dealing with the post-Alexandrian period. Instead the period from Alexander to Hadrian is condensed into the end of chapter 30. It adds no stories beyond what is in the biblical text, and addresses such questions as the age of Isaac at the binding and the number of years that Joshua led the Israelites. In its present form the Seder Olam Rabbah consists of 30 chapters, each 10 chapters forming a section, or gate. Tradition considers it to have been written about 160 CE by Yose ben Halafta, which is not unreasonable, but it was probably also supplemented and edited at a later period.
p47
sS'era'
p48
VT
sS'struct_objs'
p49
(dp50
sS'nodes'
p51
g22
sS'errorMargin'
p52
V150
p53
sS'_title'
p54
g37
sS'categories'
p55
(lp56
VMidrash
p57
aVAggadic Midrash
p58
asS'schema'
p59
(dp60
Vnodes
p61
(lp62
(dp63
VnodeType
p64
VJaggedArrayNode
p65
sVaddressTypes
p66
(lp67
VInteger
p68
asVdepth
p69
I1
sVtitles
p70
(lp71
(dp72
Vlang
p73
Ven
p74
sVtext
p75
VIntroduction
p76
sVprimary
p77
I01
sa(dp78
Vlang
p79
Vhe
p80
sVtext
p81
V\u05d4\u05e7\u05d3\u05de\u05d4
p82
sVprimary
p83
I01
sasVkey
p84
VIntroduction
p85
sVsectionNames
p86
(lp87
VParagraph
p88
asa(dp89
g18
g19
sVaddressTypes
p90
(lp91
VInteger
p92
aVInteger
p93
asVdefault
p94
I01
sVdepth
p95
I2
sVkey
p96
g15
sVsectionNames
p97
(lp98
VChapter
p99
aVParagraph
p100
asasVtitles
p101
(lp102
(dp103
Vlang
p104
Ven
p105
sVtext
p106
VSeder Olam
p107
sa(dp108
Vlang
p109
Ven
p110
sVtext
p111
VOlam Rabbah
p112
sa(dp113
Vlang
p114
Vhe
p115
sVtext
p116
V\u05e1\u05d3\u05e8 \u05e2\u05d5\u05dc\u05dd \u05e8\u05d1\u05d4
p117
sVprimary
p118
I01
sa(dp119
Vlang
p120
Vhe
p121
sVtext
p122
V\u05e1\u05d3\u05e8 \u05e2\u05d5\u05dc\u05dd
p123
sa(dp124
Vlang
p125
Ven
p126
sVtext
p127
VSeder Olam Rabbah
p128
sVprimary
p129
I01
sasVkey
p130
g14
ssbsS'default'
p131
I00
sS'_primary_title'
p132
(dp133
sS'title_group'
p134
g3
(csefaria.model.schema
TitleGroup
p135
g5
NtRp136
(dp137
g132
(dp138
S'en'
p139
g128
ssS'titles'
p140
g102
sbsS'sharedTitle'
p141
NsS'_full_title'
p142
(dp143
g139
g128
ssS'key'
p144
g14
sS'checkFirst'
p145
NsS'_leaf_nodes'
p146
(lp147
sS'children'
p148
(lp149
g3
(g9
g5
NtRp150
(dp151
g12
(lp152
g14
ag85
asg16
(dp153
sg64
g65
sg20
g22
sg66
g67
sg131
I00
sg26
g28
sg132
(dp154
sg134
g3
(g135
g5
NtRp155
(dp156
g132
(dp157
g139
g76
ssg140
g71
sbsS'_addressTypes'
p158
(lp159
g3
(csefaria.model.schema
AddressInteger
p160
g5
NtRp161
(dp162
S'length'
p163
NsS'order'
p164
I0
sbasg141
Nsg69
I1
sg142
(dp165
g139
VSeder Olam Rabbah, Introduction
p166
ssg144
g85
sg145
NsS'_regexes'
p167
(dp168
sg146
(lp169
sg86
g87
sg148
(lp170
sbag10
asbsg90
g91
sg131
I01
sg26
g28
sg132
(dp171
sg134
g3
(g135
g5
NtRp172
(dp173
g132
(dp174
g139
S''
ssg140
(lp175
sbsg158
(lp176
g3
(g160
g5
NtRp177
(dp178
g163
Nsg164
I0
sbag3
(g160
g5
NtRp179
(dp180
g163
Nsg164
I1
sbasg141
Nsg95
I2
sg142
(dp181
g139
g128
ssg144
g15
sg145
Nsg167
(dp182
sg146
(lp183
sg97
g98
sg148
(lp184
sbsS'_range_index'
p185
NsS'_context'
p186
(dp187
sS'_padded'
p188
Nsg26
g28
sS'sections'
p189
(lp190
I1
aI1
asS'_first_spanned_ref'
p191
NsS'tref'
p192
VSeder Olam Rabbah 1:1
p193
sS'_spanned_refs'
p194
(lp195
sS'book'
p196
g128
sS'_range_depth'
p197
NsS'toSections'
p198
(lp199
I1
aI1
asS'_url'
p200
NsS'_normal'
p201
g193
sS'_ranged_refs'
p202
(lp203
sS'type'
p204
g57
sS'_prev'
p205
NsS'_he_normal'
p206
NsS'_next'
p207
Nsbag3
(g4
g5
NtRp208
(dp209
g8
g10
sg185
Nsg186
(dp210
sg188
Nsg26
g28
sg189
(lp211
I1
aI2
asg191
Nsg192
VSeder Olam Rabbah 1:2
p212
sg194
(lp213
sg196
g128
sg197
Nsg198
(lp214
I1
aI2
asg200
Nsg201
g212
sg202
(lp215
sg204
g57
sg205
Nsg206
Nsg207
Nsbag3
(g4
g5
NtRp216
(dp217
g8
g10
sg185
Nsg186
(dp218
sg188
Nsg26
g28
sg189
(lp219
I2
aI1
asg191
Nsg192
VSeder Olam Rabbah 2:1
p220
sg194
(lp221
sg196
g128
sg197
Nsg198
(lp222
I2
aI1
asg200
Nsg201
g220
sg202
(lp223
sg204
g57
sg205
Nsg206
Nsg207
Nsbag3
(g4
g5
NtRp224
(dp225
g8
g10
sg185
Nsg186
(dp226
sg188
Nsg26
g28
sg189
(lp227
I2
aI2
asg191
Nsg192
VSeder Olam Rabbah 2:2
p228
sg194
(lp229
sg196
g128
sg197
Nsg198
(lp230
I2
aI2
asg200
Nsg201
g228
sg202
(lp231
sg204
g57
sg205
Nsg206
Nsg207
Nsbag3
(g4
g5
NtRp232
(dp233
g8
g10
sg185
Nsg186
(dp234
sg188
Nsg26
g28
sg189
(lp235
I3
aI1
asg191
Nsg192
VSeder Olam Rabbah 3:1
p236
sg194
(lp237
sg196
g128
sg197
Nsg198
(lp238
I3
aI1
asg200
Nsg201
g236
sg202
(lp239
sg204
g57
sg205
Nsg206
Nsg207
Nsbag3
(g4
g5
NtRp240
(dp241
g8
g10
sg185
Nsg186
(dp242
sg188
Nsg26
g28
sg189
(lp243
I3
aI2
asg191
Nsg192
VSeder Olam Rabbah 3:2
p244
sg194
(lp245
sg196
g128
sg197
Nsg198
(lp246
I3
aI2
asg200
Nsg201
g244
sg202
(lp247
sg204
g57
sg205
Nsg206
Nsg207
Nsbag3
(g4
g5
NtRp248
(dp249
g8
g10
sg185
Nsg186
(dp250
sg188
Nsg26
g28
sg189
(lp251
I4
aI1
asg191
Nsg192
VSeder Olam Rabbah 4:1
p252
sg194
(lp253
sg196
g128
sg197
Nsg198
(lp254
I4
aI1
asg200
Nsg201
g252
sg202
(lp255
sg204
g57
sg205
Nsg206
Nsg207
Nsbag3
(g4
g5
NtRp256
(dp257
g8
g10
sg185
Nsg186
(dp258
sg188
Nsg26
g28
sg189
(lp259
I4
aI2
asg191
Nsg192
VSeder Olam Rabbah 4:2
p260
sg194
(lp261
sg196
g128
sg197
Nsg198
(lp262
I4
aI2
asg200
Nsg201
g260
sg202
(lp263
sg204
g57
sg205
Nsg206
Nsg207
Nsbag3
(g4
g5
NtRp264
(dp265
g8
g10
sg185
Nsg186
(dp266
sg188
Nsg26
g28
sg189
(lp267
I5
aI1
asg191
Nsg192
VSeder Olam Rabbah 5:1
p268
sg194
(lp269
sg196
g128
sg197
Nsg198
(lp270
I5
aI1
asg200
Nsg201
g268
sg202
(lp271
sg204
g57
sg205
Nsg206
Nsg207
Nsbag3
(g4
g5
NtRp272
(dp273
g8
g10
sg185
Nsg186
(dp274
sg188
Nsg26
g28
sg189
(lp275
I5
aI2
asg191
Nsg192
VSeder Olam Rabbah 5:2
p276
sg194
(lp277
sg196
g128
sg197
Nsg198
(lp278
I5
aI2
asg200
Nsg201
g276
sg202
(lp279
sg204
g57
sg205
Nsg206
Nsg207
Nsbag3
(g4
g5
NtRp280
(dp281
g8
g10
sg185
Nsg186
(dp282
sg188
Nsg26
g28
sg189
(lp283
I6
aI1
asg191
Nsg192
VSeder Olam Rabbah 6:1
p284
sg194
(lp285
sg196
g128
sg197
Nsg198
(lp286
I6
aI1
asg200
Nsg201
g284
sg202
(lp287
sg204
g57
sg205
Nsg206
Nsg207
Nsbag3
(g4
g5
NtRp288
(dp289
g8
g10
sg185
Nsg186
(dp290
sg188
Nsg26
g28
sg189
(lp291
I6
aI2
asg191
Nsg192
VSeder Olam Rabbah 6:2
p292
sg194
(lp293
sg196
g128
sg197
Nsg198
(lp294
I6
aI2
asg200
Nsg201
g292
sg202
(lp295
sg204
g57
sg205
Nsg206
Nsg207
Nsbag3
(g4
g5
NtRp296
(dp297
g8
g10
sg185
Nsg186
(dp298
sg188
Nsg26
g28
sg189
(lp299
I7
aI1
asg191
Nsg192
VSeder Olam Rabbah 7:1
p300
sg194
(lp301
sg196
g128
sg197
Nsg198
(lp302
I7
aI1
asg200
Nsg201
g300
sg202
(lp303
sg204
g57
sg205
Nsg206
Nsg207
Nsbag3
(g4
g5
NtRp304
(dp305
g8
g10
sg185
Nsg186
(dp306
sg188
Nsg26
g28
sg189
(lp307
I7
aI2
asg191
Nsg192
VSeder Olam Rabbah 7:2
p308
sg194
(lp309
sg196
g128
sg197
Nsg198
(lp310
I7
aI2
asg200
Nsg201
g308
sg202
(lp311
sg204
g57
sg205
Nsg206
Nsg207
Nsbag3
(g4
g5
NtRp312
(dp313
g8
g10
sg185
Nsg186
(dp314
sg188
Nsg26
g28
sg189
(lp315
I8
aI1
asg191
Nsg192
VSeder Olam Rabbah 8:1
p316
sg194
(lp317
sg196
g128
sg197
Nsg198
(lp318
I8
aI1
asg200
Nsg201
g316
sg202
(lp319
sg204
g57
sg205
Nsg206
Nsg207
Nsbag3
(g4
g5
NtRp320
(dp321
g8
g10
sg185
Nsg186
(dp322
sg188
Nsg26
g28
sg189
(lp323
I8
aI2
asg191
Nsg192
VSeder Olam Rabbah 8:2
p324
sg194
(lp325
sg196
g128
sg197
Nsg198
(lp326
I8
aI2
asg200
Nsg201
g324
sg202
(lp327
sg204
g57
sg205
Nsg206
Nsg207
Nsbag3
(g4
g5
NtRp328
(dp329
g8
g10
sg185
Nsg186
(dp330
sg188
Nsg26
g28
sg189
(lp331
I9
aI1
asg191
Nsg192
VSeder Olam Rabbah 9:1
p332
sg194
(lp333
sg196
g128
sg197
Nsg198
(lp334
I9
aI1
asg200
Nsg201
g332
sg202
(lp335
sg204
g57
sg205
Nsg206
Nsg207
Nsbag3
(g4
g5
NtRp336
(dp337
g8
g10
sg185
Nsg186
(dp338
sg188
Nsg26
g28
sg189
(lp339
I9
aI2
asg191
Nsg192
VSeder Olam Rabbah 9:2
p340
sg194
(lp341
sg196
g128
sg197
Nsg198
(lp342
I9
aI2
asg200
Nsg201
g340
sg202
(lp343
sg204
g57
sg205
Nsg206
Nsg207
Nsbag3
(g4
g5
NtRp344
(dp345
g8
g10
sg185
Nsg186
(dp346
sg188
Nsg26
g28
sg189
(lp347
I10
aI1
asg191
Nsg192
VSeder Olam Rabbah 10:1
p348
sg194
(lp349
sg196
g128
sg197
Nsg198
(lp350
I10
aI1
asg200
Nsg201
g348
sg202
(lp351
sg204
g57
sg205
Nsg206
Nsg207
Nsbag3
(g4
g5
NtRp352
(dp353
g8
g10
sg185
Nsg186
(dp354
sg188
Nsg26
g28
sg189
(lp355
I10
aI2
asg191
Nsg192
VSeder Olam Rabbah 10:2
p356
sg194
(lp357
sg196
g128
sg197
Nsg198
(lp358
I10
aI2
asg200
Nsg201
g356
sg202
(lp359
sg204
g57
sg205
Nsg206
Nsg207
Nsbag3
(g4
g5
NtRp360
(dp361
g8
g10
sg185
Nsg186
(dp362
sg188
Nsg26
g28
sg189
(lp363
I10
aI3
asg191
Nsg192
VSeder Olam Rabbah 10:3
p364
sg194
(lp365
sg196
g128
sg197
Nsg198
(lp366
I10
aI3
asg200
Nsg201
g364
sg202
(lp367
sg204
g57
sg205
Nsg206
Nsg207
Nsbag3
(g4
g5
NtRp368
(dp369
g8
g10
sg185
Nsg186
(dp370
sg188
Nsg26
g28
sg189
(lp371
I11
aI1
asg191
Nsg192
VSeder Olam Rabbah 11:1
p372
sg194
(lp373
sg196
g128
sg197
Nsg198
(lp374
I11
aI1
asg200
Nsg201
g372
sg202
(lp375
sg204
g57
sg205
Nsg206
Nsg207
Nsbag3
(g4
g5
NtRp376
(dp377
g8
g10
sg185
Nsg186
(dp378
sg188
Nsg26
g28
sg189
(lp379
I11
aI2
asg191
Nsg192
VSeder Olam Rabbah 11:2
p380
sg194
(lp381
sg196
g128
sg197
Nsg198
(lp382
I11
aI2
asg200
Nsg201
g380
sg202
(lp383
sg204
g57
sg205
Nsg206
Nsg207
Nsbag3
(g4
g5
NtRp384
(dp385
g8
g10
sg185
Nsg186
(dp386
sg188
Nsg26
g28
sg189
(lp387
I12
aI1
asg191
Nsg192
VSeder Olam Rabbah 12:1
p388
sg194
(lp389
sg196
g128
sg197
Nsg198
(lp390
I12
aI1
asg200
Nsg201
g388
sg202
(lp391
sg204
g57
sg205
Nsg206
Nsg207
Nsbag3
(g4
g5
NtRp392
(dp393
g8
g10
sg185
Nsg186
(dp394
sg188
Nsg26
g28
sg189
(lp395
I12
aI2
asg191
Nsg192
VSeder Olam Rabbah 12:2
p396
sg194
(lp397
sg196
g128
sg197
Nsg198
(lp398
I12
aI2
asg200
Nsg201
g396
sg202
(lp399
sg204
g57
sg205
Nsg206
Nsg207
Nsbag3
(g4
g5
NtRp400
(dp401
g8
g10
sg185
Nsg186
(dp402
sg188
Nsg26
g28
sg189
(lp403
I13
aI1
asg191
Nsg192
VSeder Olam Rabbah 13:1
p404
sg194
(lp405
sg196
g128
sg197
Nsg198
(lp406
I13
aI1
asg200
Nsg201
g404
sg202
(lp407
sg204
g57
sg205
Nsg206
Nsg207
Nsbag3
(g4
g5
NtRp408
(dp409
g8
g10
sg185
Nsg186
(dp410
sg188
Nsg26
g28
sg189
(lp411
I13
aI2
asg191
Nsg192
VSeder Olam Rabbah 13:2
p412
sg194
(lp413
sg196
g128
sg197
Nsg198
(lp414
I13
aI2
asg200
Nsg201
g412
sg202
(lp415
sg204
g57
sg205
Nsg206
Nsg207
Nsbag3
(g4
g5
NtRp416
(dp417
g8
g10
sg185
Nsg186
(dp418
sg188
Nsg26
g28
sg189
(lp419
I14
aI1
asg191
Nsg192
VSeder Olam Rabbah 14:1
p420
sg194
(lp421
sg196
g128
sg197
Nsg198
(lp422
I14
aI1
asg200
Nsg201
g420
sg202
(lp423
sg204
g57
sg205
Nsg206
Nsg207
Nsbag3
(g4
g5
NtRp424
(dp425
g8
g10
sg185
Nsg186
(dp426
sg188
Nsg26
g28
sg189
(lp427
I14
aI2
asg191
Nsg192
VSeder Olam Rabbah 14:2
p428
sg194
(lp429
sg196
g128
sg197
Nsg198
(lp430
I14
aI2
asg200
Nsg201
g428
sg202
(lp431
sg204
g57
sg205
Nsg206
Nsg207
Nsbag3
(g4
g5
NtRp432
(dp433
g8
g10
sg185
Nsg186
(dp434
sg188
Nsg26
g28
sg189
(lp435
I15
aI1
asg191
Nsg192
VSeder Olam Rabbah 15:1
p436
sg194
(lp437
sg196
g128
sg197
Nsg198
(lp438
I15
aI1
asg200
Nsg201
g436
sg202
(lp439
sg204
g57
sg205
Nsg206
Nsg207
Nsbag3
(g4
g5
NtRp440
(dp441
g8
g10
sg185
Nsg186
(dp442
sg188
Nsg26
g28
sg189
(lp443
I15
aI2
asg191
Nsg192
VSeder Olam Rabbah 15:2
p444
sg194
(lp445
sg196
g128
sg197
Nsg198
(lp446
I15
aI2
asg200
Nsg201
g444
sg202
(lp447
sg204
g57
sg205
Nsg206
Nsg207
Nsbag3
(g4
g5
NtRp448
(dp449
g8
g10
sg185
Nsg186
(dp450
sg188
Nsg26
g28
sg189
(lp451
I16
aI1
asg191
Nsg192
VSeder Olam Rabbah 16:1
p452
sg194
(lp453
sg196
g128
sg197
Nsg198
(lp454
I16
aI1
asg200
Nsg201
g452
sg202
(lp455
sg204
g57
sg205
Nsg206
Nsg207
Nsbag3
(g4
g5
NtRp456
(dp457
g8
g10
sg185
Nsg186
(dp458
sg188
Nsg26
g28
sg189
(lp459
I16
aI2
asg191
Nsg192
VSeder Olam Rabbah 16:2
p460
sg194
(lp461
sg196
g128
sg197
Nsg198
(lp462
I16
aI2
asg200
Nsg201
g460
sg202
(lp463
sg204
g57
sg205
Nsg206
Nsg207
Nsbag3
(g4
g5
NtRp464
(dp465
g8
g10
sg185
Nsg186
(dp466
sg188
Nsg26
g28
sg189
(lp467
I17
aI1
asg191
Nsg192
VSeder Olam Rabbah 17:1
p468
sg194
(lp469
sg196
g128
sg197
Nsg198
(lp470
I17
aI1
asg200
Nsg201
g468
sg202
(lp471
sg204
g57
sg205
Nsg206
Nsg207
Nsbag3
(g4
g5
NtRp472
(dp473
g8
g10
sg185
Nsg186
(dp474
sg188
Nsg26
g28
sg189
(lp475
I17
aI2
asg191
Nsg192
VSeder Olam Rabbah 17:2
p476
sg194
(lp477
sg196
g128
sg197
Nsg198
(lp478
I17
aI2
asg200
Nsg201
g476
sg202
(lp479
sg204
g57
sg205
Nsg206
Nsg207
Nsbag3
(g4
g5
NtRp480
(dp481
g8
g10
sg185
Nsg186
(dp482
sg188
Nsg26
g28
sg189
(lp483
I18
aI1
asg191
Nsg192
VSeder Olam Rabbah 18:1
p484
sg194
(lp485
sg196
g128
sg197
Nsg198
(lp486
I18
aI1
asg200
Nsg201
g484
sg202
(lp487
sg204
g57
sg205
Nsg206
Nsg207
Nsbag3
(g4
g5
NtRp488
(dp489
g8
g10
sg185
Nsg186
(dp490
sg188
Nsg26
g28
sg189
(lp491
I18
aI2
asg191
Nsg192
VSeder Olam Rabbah 18:2
p492
sg194
(lp493
sg196
g128
sg197
Nsg198
(lp494
I18
aI2
asg200
Nsg201
g492
sg202
(lp495
sg204
g57
sg205
Nsg206
Nsg207
Nsbag3
(g4
g5
NtRp496
(dp497
g8
g10
sg185
Nsg186
(dp498
sg188
Nsg26
g28
sg189
(lp499
I19
aI1
asg191
Nsg192
VSeder Olam Rabbah 19:1
p500
sg194
(lp501
sg196
g128
sg197
Nsg198
(lp502
I19
aI1
asg200
Nsg201
g500
sg202
(lp503
sg204
g57
sg205
Nsg206
Nsg207
Nsbag3
(g4
g5
NtRp504
(dp505
g8
g10
sg185
Nsg186
(dp506
sg188
Nsg26
g28
sg189
(lp507
I19
aI2
asg191
Nsg192
VSeder Olam Rabbah 19:2
p508
sg194
(lp509
sg196
g128
sg197
Nsg198
(lp510
I19
aI2
asg200
Nsg201
g508
sg202
(lp511
sg204
g57
sg205
Nsg206
Nsg207
Nsbag3
(g4
g5
NtRp512
(dp513
g8
g10
sg185
Nsg186
(dp514
sg188
Nsg26
g28
sg189
(lp515
I20
aI1
asg191
Nsg192
VSeder Olam Rabbah 20:1
p516
sg194
(lp517
sg196
g128
sg197
Nsg198
(lp518
I20
aI1
asg200
Nsg201
g516
sg202
(lp519
sg204
g57
sg205
Nsg206
Nsg207
Nsbag3
(g4
g5
NtRp520
(dp521
g8
g10
sg185
Nsg186
(dp522
sg188
Nsg26
g28
sg189
(lp523
I20
aI2
asg191
Nsg192
VSeder Olam Rabbah 20:2
p524
sg194
(lp525
sg196
g128
sg197
Nsg198
(lp526
I20
aI2
asg200
Nsg201
g524
sg202
(lp527
sg204
g57
sg205
Nsg206
Nsg207
Nsbag3
(g4
g5
NtRp528
(dp529
g8
g10
sg185
Nsg186
(dp530
sg188
Nsg26
g28
sg189
(lp531
I20
aI3
asg191
Nsg192
VSeder Olam Rabbah 20:3
p532
sg194
(lp533
sg196
g128
sg197
Nsg198
(lp534
I20
aI3
asg200
Nsg201
g532
sg202
(lp535
sg204
g57
sg205
Nsg206
Nsg207
Nsbag3
(g4
g5
NtRp536
(dp537
g8
g10
sg185
Nsg186
(dp538
sg188
Nsg26
g28
sg189
(lp539
I21
aI1
asg191
Nsg192
VSeder Olam Rabbah 21:1
p540
sg194
(lp541
sg196
g128
sg197
Nsg198
(lp542
I21
aI1
asg200
Nsg201
g540
sg202
(lp543
sg204
g57
sg205
Nsg206
Nsg207
Nsbag3
(g4
g5
NtRp544
(dp545
g8
g10
sg185
Nsg186
(dp546
sg188
Nsg26
g28
sg189
(lp547
I21
aI2
asg191
Nsg192
VSeder Olam Rabbah 21:2
p548
sg194
(lp549
sg196
g128
sg197
Nsg198
(lp550
I21
aI2
asg200
Nsg201
g548
sg202
(lp551
sg204
g57
sg205
Nsg206
Nsg207
Nsbag3
(g4
g5
NtRp552
(dp553
g8
g10
sg185
Nsg186
(dp554
sg188
Nsg26
g28
sg189
(lp555
I22
aI1
asg191
Nsg192
VSeder Olam Rabbah 22:1
p556
sg194
(lp557
sg196
g128
sg197
Nsg198
(lp558
I22
aI1
asg200
Nsg201
g556
sg202
(lp559
sg204
g57
sg205
Nsg206
Nsg207
Nsbag3
(g4
g5
NtRp560
(dp561
g8
g10
sg185
Nsg186
(dp562
sg188
Nsg26
g28
sg189
(lp563
I22
aI2
asg191
Nsg192
VSeder Olam Rabbah 22:2
p564
sg194
(lp565
sg196
g128
sg197
Nsg198
(lp566
I22
aI2
asg200
Nsg201
g564
sg202
(lp567
sg204
g57
sg205
Nsg206
Nsg207
Nsbag3
(g4
g5
NtRp568
(dp569
g8
g10
sg185
Nsg186
(dp570
sg188
Nsg26
g28
sg189
(lp571
I23
aI1
asg191
Nsg192
VSeder Olam Rabbah 23:1
p572
sg194
(lp573
sg196
g128
sg197
Nsg198
(lp574
I23
aI1
asg200
Nsg201
g572
sg202
(lp575
sg204
g57
sg205
Nsg206
Nsg207
Nsbag3
(g4
g5
NtRp576
(dp577
g8
g10
sg185
Nsg186
(dp578
sg188
Nsg26
g28
sg189
(lp579
I23
aI2
asg191
Nsg192
VSeder Olam Rabbah 23:2
p580
sg194
(lp581
sg196
g128
sg197
Nsg198
(lp582
I23
aI2
asg200
Nsg201
g580
sg202
(lp583
sg204
g57
sg205
Nsg206
Nsg207
Nsbag3
(g4
g5
NtRp584
(dp585
g8
g10
sg185
Nsg186
(dp586
sg188
Nsg26
g28
sg189
(lp587
I24
aI1
asg191
Nsg192
VSeder Olam Rabbah 24:1
p588
sg194
(lp589
sg196
g128
sg197
Nsg198
(lp590
I24
aI1
asg200
Nsg201
g588
sg202
(lp591
sg204
g57
sg205
Nsg206
Nsg207
Nsbag3
(g4
g5
NtRp592
(dp593
g8
g10
sg185
Nsg186
(dp594
sg188
Nsg26
g28
sg189
(lp595
I24
aI2
asg191
Nsg192
VSeder Olam Rabbah 24:2
p596
sg194
(lp597
sg196
g128
sg197
Nsg198
(lp598
I24
aI2
asg200
Nsg201
g596
sg202
(lp599
sg204
g57
sg205
Nsg206
Nsg207
Nsbag3
(g4
g5
NtRp600
(dp601
g8
g10
sg185
Nsg186
(dp602
sg188
Nsg26
g28
sg189
(lp603
I25
aI1
asg191
Nsg192
VSeder Olam Rabbah 25:1
p604
sg194
(lp605
sg196
g128
sg197
Nsg198
(lp606
I25
aI1
asg200
Nsg201
g604
sg202
(lp607
sg204
g57
sg205
Nsg206
Nsg207
Nsbag3
(g4
g5
NtRp608
(dp609
g8
g10
sg185
Nsg186
(dp610
sg188
Nsg26
g28
sg189
(lp611
I25
aI2
asg191
Nsg192
VSeder Olam Rabbah 25:2
p612
sg194
(lp613
sg196
g128
sg197
Nsg198
(lp614
I25
aI2
asg200
Nsg201
g612
sg202
(lp615
sg204
g57
sg205
Nsg206
Nsg207
Nsbag3
(g4
g5
NtRp616
(dp617
g8
g10
sg185
Nsg186
(dp618
sg188
Nsg26
g28
sg189
(lp619
I26
aI1
asg191
Nsg192
VSeder Olam Rabbah 26:1
p620
sg194
(lp621
sg196
g128
sg197
Nsg198
(lp622
I26
aI1
asg200
Nsg201
g620
sg202
(lp623
sg204
g57
sg205
Nsg206
Nsg207
Nsbag3
(g4
g5
NtRp624
(dp625
g8
g10
sg185
Nsg186
(dp626
sg188
Nsg26
g28
sg189
(lp627
I26
aI2
asg191
Nsg192
VSeder Olam Rabbah 26:2
p628
sg194
(lp629
sg196
g128
sg197
Nsg198
(lp630
I26
aI2
asg200
Nsg201
g628
sg202
(lp631
sg204
g57
sg205
Nsg206
Nsg207
Nsbag3
(g4
g5
NtRp632
(dp633
g8
g10
sg185
Nsg186
(dp634
sg188
Nsg26
g28
sg189
(lp635
I27
aI1
asg191
Nsg192
VSeder Olam Rabbah 27:1
p636
sg194
(lp637
sg196
g128
sg197
Nsg198
(lp638
I27
aI1
asg200
Nsg201
g636
sg202
(lp639
sg204
g57
sg205
Nsg206
Nsg207
Nsbag3
(g4
g5
NtRp640
(dp641
g8
g10
sg185
Nsg186
(dp642
sg188
Nsg26
g28
sg189
(lp643
I27
aI2
asg191
Nsg192
VSeder Olam Rabbah 27:2
p644
sg194
(lp645
sg196
g128
sg197
Nsg198
(lp646
I27
aI2
asg200
Nsg201
g644
sg202
(lp647
sg204
g57
sg205
Nsg206
Nsg207
Nsbag3
(g4
g5
NtRp648
(dp649
g8
g10
sg185
Nsg186
(dp650
sg188
Nsg26
g28
sg189
(lp651
I28
aI1
asg191
Nsg192
VSeder Olam Rabbah 28:1
p652
sg194
(lp653
sg196
g128
sg197
Nsg198
(lp654
I28
aI1
asg200
Nsg201
g652
sg202
(lp655
sg204
g57
sg205
Nsg206
Nsg207
Nsbag3
(g4
g5
NtRp656
(dp657
g8
g10
sg185
Nsg186
(dp658
sg188
Nsg26
g28
sg189
(lp659
I28
aI2
asg191
Nsg192
VSeder Olam Rabbah 28:2
p660
sg194
(lp661
sg196
g128
sg197
Nsg198
(lp662
I28
aI2
asg200
Nsg201
g660
sg202
(lp663
sg204
g57
sg205
Nsg206
Nsg207
Nsbag3
(g4
g5
NtRp664
(dp665
g8
g10
sg185
Nsg186
(dp666
sg188
Nsg26
g28
sg189
(lp667
I29
aI1
asg191
Nsg192
VSeder Olam Rabbah 29:1
p668
sg194
(lp669
sg196
g128
sg197
Nsg198
(lp670
I29
aI1
asg200
Nsg201
g668
sg202
(lp671
sg204
g57
sg205
Nsg206
Nsg207
Nsbag3
(g4
g5
NtRp672
(dp673
g8
g10
sg185
Nsg186
(dp674
sg188
Nsg26
g28
sg189
(lp675
I29
aI2
asg191
Nsg192
VSeder Olam Rabbah 29:2
p676
sg194
(lp677
sg196
g128
sg197
Nsg198
(lp678
I29
aI2
asg200
Nsg201
g676
sg202
(lp679
sg204
g57
sg205
Nsg206
Nsg207
Nsbag3
(g4
g5
NtRp680
(dp681
g8
g10
sg185
Nsg186
(dp682
sg188
Nsg26
g28
sg189
(lp683
I30
aI1
asg191
Nsg192
VSeder Olam Rabbah 30:1
p684
sg194
(lp685
sg196
g128
sg197
Nsg198
(lp686
I30
aI1
asg200
Nsg201
g684
sg202
(lp687
sg204
g57
sg205
Nsg206
Nsg207
Nsbag3
(g4
g5
NtRp688
(dp689
g8
g10
sg185
Nsg186
(dp690
sg188
Nsg26
g28
sg189
(lp691
I30
aI2
asg191
Nsg192
VSeder Olam Rabbah 30:2
p692
sg194
(lp693
sg196
g128
sg197
Nsg198
(lp694
I30
aI2
asg200
Nsg201
g692
sg202
(lp695
sg204
g57
sg205
Nsg206
Nsg207
Nsbag3
(g4
g5
NtRp696
(dp697
g8
g10
sg185
Nsg186
(dp698
sg188
Nsg26
g28
sg189
(lp699
I30
aI3
asg191
Nsg192
VSeder Olam Rabbah 30:3
p700
sg194
(lp701
sg196
g128
sg197
Nsg198
(lp702
I30
aI3
asg200
Nsg201
g700
sg202
(lp703
sg204
g57
sg205
Nsg206
Nsg207
NsbaI12834
t.