((lp1
I0
aI755
aI794
aI851
aI908
aI1120
aI1201
aI1247
aI1592
aI1819
aI1926
aI2038
aI2221
aI2615
aI2831
aI3126
aI3323
aI3697
aI3873
aI3964
aI4094
aI4180
aI4315
aI4458
aI4764
aI4934
aI5176
aI5349
aI5602
aI5837
aI5980
aI6136
aI6618
aI6762
aI6921
aI7019
aI7250
aI7383
aI7757
aI7884
aI8251
aI8938
aI9271
aI9574
aI9914
aI10010
aI10329
aI10391
aI10689
aI10796
aI11222
aI11285
aI11316
aI11396
aI11724
aI12013
aI12110
aI12204
aI12374
aI12554
aI12708
aI12962
aI13109
aI13247
aI13456
aI13508
aI13538
aI13626
aI13673
aI13748
aI13821
aI13958
aI14594
aI14870
aI14906
aI15151
aI15294
aI15951
aI16009
aI16050
aI16136
aI16272
aI16372
aI16490
aI16614
aI16835
aI16873
aI17384
aI17577
aI17667
aI17941
aI18007
aI18158
aI18255
aI18375
aI18565
aI18635
aI19085
aI19548
aI19634
aI19986
aI20057
aI20153
aI20195
aI20275
aI20361
aI20677
aI20793
aI20913
aI21017
aI21363
aI21441
aI21578
aI21727
aI21985
aI22089
aI22191
aI22247
aI22496
aI22748
aI22912
aI23056
aI23321
aI23424
aI23647
aI23792
aI24011
aI24305
aI24417
aI24478
aI24626
aI24897
aI24948
aI25084
aI25180
aI25276
aI25372
aI25435
aI25536
aI25672
aI26078
aI26384
aI26499
aI26585
aI26803
aI26947
aI27565
aI27985
aI28079
aI28138
aI28450
aI28606
aI28865
aI28941
aI29142
aI29626
aI29888
aI30238
aI30359
aI30498
aI30734
aI31036
aI32120
aI32395
aI32591
aI32693
aI33132
aI33630
aI33831
aI33998
aI34074
aI34142
aI34288
aI35061
aI35178
aI35438
aI35690
aI35887
aI35970
aI36121
aI36310
aI36705
aI36835
aI36932
aI36994
aI37720
aI37886
aI37986
aI38050
aI38122
aI38318
aI38411
aI38545
aI38863
aI39038
aI39176
aI39707
aI40009
aI40198
aI40392
aI40519
aI41276
aI41466
aI41603
aI41652
aI41898
aI42067
aI42252
aI42314
aI42466
aI42699
aI42988
aI43100
aI43173
aI43326
aI43393
aI43484
aI43569
aI43683
aI44009
aI44335
aI44470
aI44699
aI44968
aI45607
aI45884
aI46114
aI46360
aI46440
aI46576
aI46648
aI46973
aI47144
aI47418
aI47523
aI47630
aI47833
aI48022
aI48352
aI48491
aI48723
aI48914
aI49149
aI49353
aI49419
aI49524
aI49652
aI49928
aI50479
aI50655
aI50872
aI51116
aI51289
aI51437
aI51731
aI51912
aI52127
aI52461
aI52717
aI53451
aI53570
aI53708
aI53799
aI54081
aI54189
aI54627
aI54776
aI54973
aI55116
aI55218
aI55344
aI55416
aI55647
aI55712
aI55764
aI56279
aI56453
aI56605
aI56740
aI56887
aI56951
aI57211
aI57321
aI57426
aI57477
aI57650
aI57757
aI57816
aI57927
aI57967
aI58549
aI58926
aI58993
aI59384
aI59445
aI59701
aI59794
aI59900
aI60029
aI60449
aI60537
aI60814
aI60921
aI61198
aI61300
aI61542
aI61811
aI62046
aI62151
aI62320
aI62449
aI62616
aI62715
aI62783
aI63751
aI63898
aI63988
aI64381
aI64576
aI64786
aI65007
aI65191
aI65365
aI65522
aI65850
aI65954
aI66136
aI66484
aI66768
aI67225
aI67378
aI68163
aI68352
aI68704
aI68795
aI68957
aI69155
aI69228
aI69427
aI69512
aI69655
aI69888
aI69985
aI70058
aI70323
aI70834
aI70911
aI71110
aI71308
aI71580
aI71741
aI71858
aI72266
aI72315
aI72376
aI72445
aI72748
aI72855
aI73238
aI73377
aI73633
aI73788
aI74048
aI74237
aI74288
aI74426
aI74499
aI74592
aI74797
aI75297
aI75377
aI75581
aI75662
aI75868
aI75958
aI76015
aI76354
aI76481
aI76686
aI77166
aI77601
aI77804
aI78071
aI78264
aI78463
aI78603
aI79152
aI79502
aI79647
aI79925
aI80083
aI80332
aI80437
aI80610
aI80994
aI81180
aI81507
aI81606
aI81855
aI82151
aI82244
aI82426
aI82642
aI82920
aI83076
aI83279
aI83434
aI83503
aI83680
aI83746
aI83815
aI83892
aI83971
aI84281
aI84494
aI84688
aI85080
aI85246
aI85414
aI85724
aI85901
aI86148
aI86159
aI86195
aI86213
aI86332
aI86527
aI87224
aI87422
aI87564
aI87626
aI87897
aI87971
aI88260
aI88390
aI88600
aI88696
aI88943
aI89187
aI89396
aI89557
aI89828
aI89904
aI90024
aI90126
aI90332
aI90469
aI90629
aI90794
aI90928
aI91082
aI91233
aI91375
aI91430
aI91617
aI91813
aI92045
aI92285
aI92660
aI92756
aI92952
aI93441
aI93579
a(lp2
ccopy_reg
_reconstructor
p3
(csefaria.model.text
Ref
p4
c__builtin__
object
p5
NtRp6
(dp7
S'index_node'
p8
g3
(csefaria.model.schema
JaggedArrayNode
p9
g5
NtRp10
(dp11
S'_address'
p12
(lp13
VShemot Rabbah
p14
asS'_full_titles'
p15
(dp16
sVnodeType
p17
VJaggedArrayNode
p18
sS'parent'
p19
NsVaddressTypes
p20
(lp21
VInteger
p22
aVInteger
p23
asS'default'
p24
I00
sS'index'
p25
g3
(csefaria.model.text
Index
p26
g5
NtRp27
(dp28
S'pkeys_orig_values'
p29
(dp30
S'title'
p31
VShemot Rabbah
p32
ssS'pubDate'
p33
V1512
p34
sS'compDate'
p35
V1200
p36
sS'pubPlace'
p37
VIstanbul
p38
sS'compPlace'
p39
VTalmudic Israel/Babylon
p40
sS'enDesc'
p41
VShemot Rabbah (The Great Exodus) is the midrash to the book of Shemot, containing in the printed editions 52 parashiyyot. It is not uniform in its composition. In parashiyyot 1-14 the proems are almost invariably followed by the running commentary on the entire seder or other Scriptural division. The author includes sources Tanhuma as well as others. Zunz ascribes the composition of the entire work to the 11th or 12th century
p42
sS'order'
p43
(lp44
F2
asS'era'
p45
VRI
p46
sS'struct_objs'
p47
(dp48
sS'nodes'
p49
g10
sS'_id'
p50
g3
(cbson.objectid
ObjectId
p51
g5
NtRp52
S'P\xeb\x9bq\xed\xba\xb46\xcb\xb6\xcde'
p53
bsS'_title'
p54
g32
sS'categories'
p55
(lp56
VMidrash
p57
aVAggadic Midrash
p58
aVMidrash Rabbah
p59
asS'schema'
p60
(dp61
g17
g18
sg20
g21
sVdepth
p62
I2
sVtitles
p63
(lp64
(dp65
Vlang
p66
Ven
p67
sVtext
p68
VExodus Rabbah
p69
sa(dp70
Vlang
p71
Ven
p72
sVtext
p73
VShemoth Rabbah
p74
sa(dp75
Vlang
p76
Ven
p77
sVtext
p78
VShmot Rabbah
p79
sa(dp80
Vlang
p81
Ven
p82
sVtext
p83
VExodus Rabba
p84
sa(dp85
Vlang
p86
Ven
p87
sVtext
p88
VShemoth Rabba
p89
sa(dp90
Vlang
p91
Ven
p92
sVtext
p93
VShmot Rabba
p94
sa(dp95
Vlang
p96
Ven
p97
sVtext
p98
VShemot Rabba
p99
sa(dp100
Vlang
p101
Ven
p102
sVtext
p103
VMidrash Rabbah Shemot
p104
sa(dp105
Vlang
p106
Vhe
p107
sVtext
p108
V\u05e9\u05de\u05d5\u05ea \u05e8\u05d1\u05d4
p109
sVprimary
p110
I01
sa(dp111
Vlang
p112
Ven
p113
sVtext
p114
VShemot Rabbah
p115
sVprimary
p116
I01
sasVkey
p117
g14
sVsectionNames
p118
(lp119
VChapter
p120
aVParagraph
p121
assbsS'_primary_title'
p122
(dp123
sS'title_group'
p124
g3
(csefaria.model.schema
TitleGroup
p125
g5
NtRp126
(dp127
g122
(dp128
S'en'
p129
g115
ssS'titles'
p130
g64
sbsS'_addressTypes'
p131
(lp132
g3
(csefaria.model.schema
AddressInteger
p133
g5
NtRp134
(dp135
S'length'
p136
Nsg43
I0
sbag3
(g133
g5
NtRp137
(dp138
g136
Nsg43
I1
sbasS'sharedTitle'
p139
Nsg62
I2
sS'_full_title'
p140
(dp141
g129
g115
ssS'key'
p142
g14
sS'checkFirst'
p143
NsS'_regexes'
p144
(dp145
sS'_leaf_nodes'
p146
(lp147
sg118
g119
sS'children'
p148
(lp149
sbsS'_range_index'
p150
NsS'_context'
p151
(dp152
sS'_padded'
p153
Nsg25
g27
sS'sections'
p154
(lp155
I1
aI1
asS'_first_spanned_ref'
p156
NsS'tref'
p157
VShemot Rabbah 1:1
p158
sS'_spanned_refs'
p159
(lp160
sS'book'
p161
g115
sS'_range_depth'
p162
NsS'toSections'
p163
(lp164
I1
aI1
asS'_url'
p165
NsS'_normal'
p166
g158
sS'_ranged_refs'
p167
(lp168
sS'type'
p169
g57
sS'_prev'
p170
NsS'_he_normal'
p171
NsS'_next'
p172
Nsbag3
(g4
g5
NtRp173
(dp174
g8
g10
sg150
Nsg151
(dp175
sg153
Nsg25
g27
sg154
(lp176
I1
aI2
asg156
Nsg157
VShemot Rabbah 1:2
p177
sg159
(lp178
sg161
g115
sg162
Nsg163
(lp179
I1
aI2
asg165
Nsg166
g177
sg167
(lp180
sg169
g57
sg170
Nsg171
Nsg172
Nsbag3
(g4
g5
NtRp181
(dp182
g8
g10
sg150
Nsg151
(dp183
sg153
Nsg25
g27
sg154
(lp184
I1
aI3
asg156
Nsg157
VShemot Rabbah 1:3
p185
sg159
(lp186
sg161
g115
sg162
Nsg163
(lp187
I1
aI3
asg165
Nsg166
g185
sg167
(lp188
sg169
g57
sg170
Nsg171
Nsg172
Nsbag3
(g4
g5
NtRp189
(dp190
g8
g10
sg150
Nsg151
(dp191
sg153
Nsg25
g27
sg154
(lp192
I1
aI4
asg156
Nsg157
VShemot Rabbah 1:4
p193
sg159
(lp194
sg161
g115
sg162
Nsg163
(lp195
I1
aI4
asg165
Nsg166
g193
sg167
(lp196
sg169
g57
sg170
Nsg171
Nsg172
Nsbag3
(g4
g5
NtRp197
(dp198
g8
g10
sg150
Nsg151
(dp199
sg153
Nsg25
g27
sg154
(lp200
I1
aI5
asg156
Nsg157
VShemot Rabbah 1:5
p201
sg159
(lp202
sg161
g115
sg162
Nsg163
(lp203
I1
aI5
asg165
Nsg166
g201
sg167
(lp204
sg169
g57
sg170
Nsg171
Nsg172
Nsbag3
(g4
g5
NtRp205
(dp206
g8
g10
sg150
Nsg151
(dp207
sg153
Nsg25
g27
sg154
(lp208
I1
aI6
asg156
Nsg157
VShemot Rabbah 1:6
p209
sg159
(lp210
sg161
g115
sg162
Nsg163
(lp211
I1
aI6
asg165
Nsg166
g209
sg167
(lp212
sg169
g57
sg170
Nsg171
Nsg172
Nsbag3
(g4
g5
NtRp213
(dp214
g8
g10
sg150
Nsg151
(dp215
sg153
Nsg25
g27
sg154
(lp216
I1
aI7
asg156
Nsg157
VShemot Rabbah 1:7
p217
sg159
(lp218
sg161
g115
sg162
Nsg163
(lp219
I1
aI7
asg165
Nsg166
g217
sg167
(lp220
sg169
g57
sg170
Nsg171
Nsg172
Nsbag3
(g4
g5
NtRp221
(dp222
g8
g10
sg150
Nsg151
(dp223
sg153
Nsg25
g27
sg154
(lp224
I1
aI8
asg156
Nsg157
VShemot Rabbah 1:8
p225
sg159
(lp226
sg161
g115
sg162
Nsg163
(lp227
I1
aI8
asg165
Nsg166
g225
sg167
(lp228
sg169
g57
sg170
Nsg171
Nsg172
Nsbag3
(g4
g5
NtRp229
(dp230
g8
g10
sg150
Nsg151
(dp231
sg153
Nsg25
g27
sg154
(lp232
I1
aI9
asg156
Nsg157
VShemot Rabbah 1:9
p233
sg159
(lp234
sg161
g115
sg162
Nsg163
(lp235
I1
aI9
asg165
Nsg166
g233
sg167
(lp236
sg169
g57
sg170
Nsg171
Nsg172
Nsbag3
(g4
g5
NtRp237
(dp238
g8
g10
sg150
Nsg151
(dp239
sg153
Nsg25
g27
sg154
(lp240
I1
aI10
asg156
Nsg157
VShemot Rabbah 1:10
p241
sg159
(lp242
sg161
g115
sg162
Nsg163
(lp243
I1
aI10
asg165
Nsg166
g241
sg167
(lp244
sg169
g57
sg170
Nsg171
Nsg172
Nsbag3
(g4
g5
NtRp245
(dp246
g8
g10
sg150
Nsg151
(dp247
sg153
Nsg25
g27
sg154
(lp248
I1
aI11
asg156
Nsg157
VShemot Rabbah 1:11
p249
sg159
(lp250
sg161
g115
sg162
Nsg163
(lp251
I1
aI11
asg165
Nsg166
g249
sg167
(lp252
sg169
g57
sg170
Nsg171
Nsg172
Nsbag3
(g4
g5
NtRp253
(dp254
g8
g10
sg150
Nsg151
(dp255
sg153
Nsg25
g27
sg154
(lp256
I1
aI12
asg156
Nsg157
VShemot Rabbah 1:12
p257
sg159
(lp258
sg161
g115
sg162
Nsg163
(lp259
I1
aI12
asg165
Nsg166
g257
sg167
(lp260
sg169
g57
sg170
Nsg171
Nsg172
Nsbag3
(g4
g5
NtRp261
(dp262
g8
g10
sg150
Nsg151
(dp263
sg153
Nsg25
g27
sg154
(lp264
I1
aI13
asg156
Nsg157
VShemot Rabbah 1:13
p265
sg159
(lp266
sg161
g115
sg162
Nsg163
(lp267
I1
aI13
asg165
Nsg166
g265
sg167
(lp268
sg169
g57
sg170
Nsg171
Nsg172
Nsbag3
(g4
g5
NtRp269
(dp270
g8
g10
sg150
Nsg151
(dp271
sg153
Nsg25
g27
sg154
(lp272
I1
aI14
asg156
Nsg157
VShemot Rabbah 1:14
p273
sg159
(lp274
sg161
g115
sg162
Nsg163
(lp275
I1
aI14
asg165
Nsg166
g273
sg167
(lp276
sg169
g57
sg170
Nsg171
Nsg172
Nsbag3
(g4
g5
NtRp277
(dp278
g8
g10
sg150
Nsg151
(dp279
sg153
Nsg25
g27
sg154
(lp280
I1
aI15
asg156
Nsg157
VShemot Rabbah 1:15
p281
sg159
(lp282
sg161
g115
sg162
Nsg163
(lp283
I1
aI15
asg165
Nsg166
g281
sg167
(lp284
sg169
g57
sg170
Nsg171
Nsg172
Nsbag3
(g4
g5
NtRp285
(dp286
g8
g10
sg150
Nsg151
(dp287
sg153
Nsg25
g27
sg154
(lp288
I1
aI16
asg156
Nsg157
VShemot Rabbah 1:16
p289
sg159
(lp290
sg161
g115
sg162
Nsg163
(lp291
I1
aI16
asg165
Nsg166
g289
sg167
(lp292
sg169
g57
sg170
Nsg171
Nsg172
Nsbag3
(g4
g5
NtRp293
(dp294
g8
g10
sg150
Nsg151
(dp295
sg153
Nsg25
g27
sg154
(lp296
I1
aI17
asg156
Nsg157
VShemot Rabbah 1:17
p297
sg159
(lp298
sg161
g115
sg162
Nsg163
(lp299
I1
aI17
asg165
Nsg166
g297
sg167
(lp300
sg169
g57
sg170
Nsg171
Nsg172
Nsbag3
(g4
g5
NtRp301
(dp302
g8
g10
sg150
Nsg151
(dp303
sg153
Nsg25
g27
sg154
(lp304
I1
aI18
asg156
Nsg157
VShemot Rabbah 1:18
p305
sg159
(lp306
sg161
g115
sg162
Nsg163
(lp307
I1
aI18
asg165
Nsg166
g305
sg167
(lp308
sg169
g57
sg170
Nsg171
Nsg172
Nsbag3
(g4
g5
NtRp309
(dp310
g8
g10
sg150
Nsg151
(dp311
sg153
Nsg25
g27
sg154
(lp312
I1
aI19
asg156
Nsg157
VShemot Rabbah 1:19
p313
sg159
(lp314
sg161
g115
sg162
Nsg163
(lp315
I1
aI19
asg165
Nsg166
g313
sg167
(lp316
sg169
g57
sg170
Nsg171
Nsg172
Nsbag3
(g4
g5
NtRp317
(dp318
g8
g10
sg150
Nsg151
(dp319
sg153
Nsg25
g27
sg154
(lp320
I1
aI20
asg156
Nsg157
VShemot Rabbah 1:20
p321
sg159
(lp322
sg161
g115
sg162
Nsg163
(lp323
I1
aI20
asg165
Nsg166
g321
sg167
(lp324
sg169
g57
sg170
Nsg171
Nsg172
Nsbag3
(g4
g5
NtRp325
(dp326
g8
g10
sg150
Nsg151
(dp327
sg153
Nsg25
g27
sg154
(lp328
I1
aI21
asg156
Nsg157
VShemot Rabbah 1:21
p329
sg159
(lp330
sg161
g115
sg162
Nsg163
(lp331
I1
aI21
asg165
Nsg166
g329
sg167
(lp332
sg169
g57
sg170
Nsg171
Nsg172
Nsbag3
(g4
g5
NtRp333
(dp334
g8
g10
sg150
Nsg151
(dp335
sg153
Nsg25
g27
sg154
(lp336
I1
aI22
asg156
Nsg157
VShemot Rabbah 1:22
p337
sg159
(lp338
sg161
g115
sg162
Nsg163
(lp339
I1
aI22
asg165
Nsg166
g337
sg167
(lp340
sg169
g57
sg170
Nsg171
Nsg172
Nsbag3
(g4
g5
NtRp341
(dp342
g8
g10
sg150
Nsg151
(dp343
sg153
Nsg25
g27
sg154
(lp344
I1
aI23
asg156
Nsg157
VShemot Rabbah 1:23
p345
sg159
(lp346
sg161
g115
sg162
Nsg163
(lp347
I1
aI23
asg165
Nsg166
g345
sg167
(lp348
sg169
g57
sg170
Nsg171
Nsg172
Nsbag3
(g4
g5
NtRp349
(dp350
g8
g10
sg150
Nsg151
(dp351
sg153
Nsg25
g27
sg154
(lp352
I1
aI24
asg156
Nsg157
VShemot Rabbah 1:24
p353
sg159
(lp354
sg161
g115
sg162
Nsg163
(lp355
I1
aI24
asg165
Nsg166
g353
sg167
(lp356
sg169
g57
sg170
Nsg171
Nsg172
Nsbag3
(g4
g5
NtRp357
(dp358
g8
g10
sg150
Nsg151
(dp359
sg153
Nsg25
g27
sg154
(lp360
I1
aI25
asg156
Nsg157
VShemot Rabbah 1:25
p361
sg159
(lp362
sg161
g115
sg162
Nsg163
(lp363
I1
aI25
asg165
Nsg166
g361
sg167
(lp364
sg169
g57
sg170
Nsg171
Nsg172
Nsbag3
(g4
g5
NtRp365
(dp366
g8
g10
sg150
Nsg151
(dp367
sg153
Nsg25
g27
sg154
(lp368
I1
aI26
asg156
Nsg157
VShemot Rabbah 1:26
p369
sg159
(lp370
sg161
g115
sg162
Nsg163
(lp371
I1
aI26
asg165
Nsg166
g369
sg167
(lp372
sg169
g57
sg170
Nsg171
Nsg172
Nsbag3
(g4
g5
NtRp373
(dp374
g8
g10
sg150
Nsg151
(dp375
sg153
Nsg25
g27
sg154
(lp376
I1
aI27
asg156
Nsg157
VShemot Rabbah 1:27
p377
sg159
(lp378
sg161
g115
sg162
Nsg163
(lp379
I1
aI27
asg165
Nsg166
g377
sg167
(lp380
sg169
g57
sg170
Nsg171
Nsg172
Nsbag3
(g4
g5
NtRp381
(dp382
g8
g10
sg150
Nsg151
(dp383
sg153
Nsg25
g27
sg154
(lp384
I1
aI28
asg156
Nsg157
VShemot Rabbah 1:28
p385
sg159
(lp386
sg161
g115
sg162
Nsg163
(lp387
I1
aI28
asg165
Nsg166
g385
sg167
(lp388
sg169
g57
sg170
Nsg171
Nsg172
Nsbag3
(g4
g5
NtRp389
(dp390
g8
g10
sg150
Nsg151
(dp391
sg153
Nsg25
g27
sg154
(lp392
I1
aI29
asg156
Nsg157
VShemot Rabbah 1:29
p393
sg159
(lp394
sg161
g115
sg162
Nsg163
(lp395
I1
aI29
asg165
Nsg166
g393
sg167
(lp396
sg169
g57
sg170
Nsg171
Nsg172
Nsbag3
(g4
g5
NtRp397
(dp398
g8
g10
sg150
Nsg151
(dp399
sg153
Nsg25
g27
sg154
(lp400
I1
aI30
asg156
Nsg157
VShemot Rabbah 1:30
p401
sg159
(lp402
sg161
g115
sg162
Nsg163
(lp403
I1
aI30
asg165
Nsg166
g401
sg167
(lp404
sg169
g57
sg170
Nsg171
Nsg172
Nsbag3
(g4
g5
NtRp405
(dp406
g8
g10
sg150
Nsg151
(dp407
sg153
Nsg25
g27
sg154
(lp408
I1
aI31
asg156
Nsg157
VShemot Rabbah 1:31
p409
sg159
(lp410
sg161
g115
sg162
Nsg163
(lp411
I1
aI31
asg165
Nsg166
g409
sg167
(lp412
sg169
g57
sg170
Nsg171
Nsg172
Nsbag3
(g4
g5
NtRp413
(dp414
g8
g10
sg150
Nsg151
(dp415
sg153
Nsg25
g27
sg154
(lp416
I1
aI32
asg156
Nsg157
VShemot Rabbah 1:32
p417
sg159
(lp418
sg161
g115
sg162
Nsg163
(lp419
I1
aI32
asg165
Nsg166
g417
sg167
(lp420
sg169
g57
sg170
Nsg171
Nsg172
Nsbag3
(g4
g5
NtRp421
(dp422
g8
g10
sg150
Nsg151
(dp423
sg153
Nsg25
g27
sg154
(lp424
I1
aI33
asg156
Nsg157
VShemot Rabbah 1:33
p425
sg159
(lp426
sg161
g115
sg162
Nsg163
(lp427
I1
aI33
asg165
Nsg166
g425
sg167
(lp428
sg169
g57
sg170
Nsg171
Nsg172
Nsbag3
(g4
g5
NtRp429
(dp430
g8
g10
sg150
Nsg151
(dp431
sg153
Nsg25
g27
sg154
(lp432
I1
aI34
asg156
Nsg157
VShemot Rabbah 1:34
p433
sg159
(lp434
sg161
g115
sg162
Nsg163
(lp435
I1
aI34
asg165
Nsg166
g433
sg167
(lp436
sg169
g57
sg170
Nsg171
Nsg172
Nsbag3
(g4
g5
NtRp437
(dp438
g8
g10
sg150
Nsg151
(dp439
sg153
Nsg25
g27
sg154
(lp440
I1
aI35
asg156
Nsg157
VShemot Rabbah 1:35
p441
sg159
(lp442
sg161
g115
sg162
Nsg163
(lp443
I1
aI35
asg165
Nsg166
g441
sg167
(lp444
sg169
g57
sg170
Nsg171
Nsg172
Nsbag3
(g4
g5
NtRp445
(dp446
g8
g10
sg150
Nsg151
(dp447
sg153
Nsg25
g27
sg154
(lp448
I1
aI36
asg156
Nsg157
VShemot Rabbah 1:36
p449
sg159
(lp450
sg161
g115
sg162
Nsg163
(lp451
I1
aI36
asg165
Nsg166
g449
sg167
(lp452
sg169
g57
sg170
Nsg171
Nsg172
Nsbag3
(g4
g5
NtRp453
(dp454
g8
g10
sg150
Nsg151
(dp455
sg153
Nsg25
g27
sg154
(lp456
I2
aI1
asg156
Nsg157
VShemot Rabbah 2:1
p457
sg159
(lp458
sg161
g115
sg162
Nsg163
(lp459
I2
aI1
asg165
Nsg166
g457
sg167
(lp460
sg169
g57
sg170
Nsg171
Nsg172
Nsbag3
(g4
g5
NtRp461
(dp462
g8
g10
sg150
Nsg151
(dp463
sg153
Nsg25
g27
sg154
(lp464
I2
aI2
asg156
Nsg157
VShemot Rabbah 2:2
p465
sg159
(lp466
sg161
g115
sg162
Nsg163
(lp467
I2
aI2
asg165
Nsg166
g465
sg167
(lp468
sg169
g57
sg170
Nsg171
Nsg172
Nsbag3
(g4
g5
NtRp469
(dp470
g8
g10
sg150
Nsg151
(dp471
sg153
Nsg25
g27
sg154
(lp472
I2
aI3
asg156
Nsg157
VShemot Rabbah 2:3
p473
sg159
(lp474
sg161
g115
sg162
Nsg163
(lp475
I2
aI3
asg165
Nsg166
g473
sg167
(lp476
sg169
g57
sg170
Nsg171
Nsg172
Nsbag3
(g4
g5
NtRp477
(dp478
g8
g10
sg150
Nsg151
(dp479
sg153
Nsg25
g27
sg154
(lp480
I2
aI4
asg156
Nsg157
VShemot Rabbah 2:4
p481
sg159
(lp482
sg161
g115
sg162
Nsg163
(lp483
I2
aI4
asg165
Nsg166
g481
sg167
(lp484
sg169
g57
sg170
Nsg171
Nsg172
Nsbag3
(g4
g5
NtRp485
(dp486
g8
g10
sg150
Nsg151
(dp487
sg153
Nsg25
g27
sg154
(lp488
I2
aI5
asg156
Nsg157
VShemot Rabbah 2:5
p489
sg159
(lp490
sg161
g115
sg162
Nsg163
(lp491
I2
aI5
asg165
Nsg166
g489
sg167
(lp492
sg169
g57
sg170
Nsg171
Nsg172
Nsbag3
(g4
g5
NtRp493
(dp494
g8
g10
sg150
Nsg151
(dp495
sg153
Nsg25
g27
sg154
(lp496
I2
aI6
asg156
Nsg157
VShemot Rabbah 2:6
p497
sg159
(lp498
sg161
g115
sg162
Nsg163
(lp499
I2
aI6
asg165
Nsg166
g497
sg167
(lp500
sg169
g57
sg170
Nsg171
Nsg172
Nsbag3
(g4
g5
NtRp501
(dp502
g8
g10
sg150
Nsg151
(dp503
sg153
Nsg25
g27
sg154
(lp504
I3
aI1
asg156
Nsg157
VShemot Rabbah 3:1
p505
sg159
(lp506
sg161
g115
sg162
Nsg163
(lp507
I3
aI1
asg165
Nsg166
g505
sg167
(lp508
sg169
g57
sg170
Nsg171
Nsg172
Nsbag3
(g4
g5
NtRp509
(dp510
g8
g10
sg150
Nsg151
(dp511
sg153
Nsg25
g27
sg154
(lp512
I3
aI2
asg156
Nsg157
VShemot Rabbah 3:2
p513
sg159
(lp514
sg161
g115
sg162
Nsg163
(lp515
I3
aI2
asg165
Nsg166
g513
sg167
(lp516
sg169
g57
sg170
Nsg171
Nsg172
Nsbag3
(g4
g5
NtRp517
(dp518
g8
g10
sg150
Nsg151
(dp519
sg153
Nsg25
g27
sg154
(lp520
I3
aI3
asg156
Nsg157
VShemot Rabbah 3:3
p521
sg159
(lp522
sg161
g115
sg162
Nsg163
(lp523
I3
aI3
asg165
Nsg166
g521
sg167
(lp524
sg169
g57
sg170
Nsg171
Nsg172
Nsbag3
(g4
g5
NtRp525
(dp526
g8
g10
sg150
Nsg151
(dp527
sg153
Nsg25
g27
sg154
(lp528
I3
aI4
asg156
Nsg157
VShemot Rabbah 3:4
p529
sg159
(lp530
sg161
g115
sg162
Nsg163
(lp531
I3
aI4
asg165
Nsg166
g529
sg167
(lp532
sg169
g57
sg170
Nsg171
Nsg172
Nsbag3
(g4
g5
NtRp533
(dp534
g8
g10
sg150
Nsg151
(dp535
sg153
Nsg25
g27
sg154
(lp536
I3
aI5
asg156
Nsg157
VShemot Rabbah 3:5
p537
sg159
(lp538
sg161
g115
sg162
Nsg163
(lp539
I3
aI5
asg165
Nsg166
g537
sg167
(lp540
sg169
g57
sg170
Nsg171
Nsg172
Nsbag3
(g4
g5
NtRp541
(dp542
g8
g10
sg150
Nsg151
(dp543
sg153
Nsg25
g27
sg154
(lp544
I3
aI6
asg156
Nsg157
VShemot Rabbah 3:6
p545
sg159
(lp546
sg161
g115
sg162
Nsg163
(lp547
I3
aI6
asg165
Nsg166
g545
sg167
(lp548
sg169
g57
sg170
Nsg171
Nsg172
Nsbag3
(g4
g5
NtRp549
(dp550
g8
g10
sg150
Nsg151
(dp551
sg153
Nsg25
g27
sg154
(lp552
I3
aI7
asg156
Nsg157
VShemot Rabbah 3:7
p553
sg159
(lp554
sg161
g115
sg162
Nsg163
(lp555
I3
aI7
asg165
Nsg166
g553
sg167
(lp556
sg169
g57
sg170
Nsg171
Nsg172
Nsbag3
(g4
g5
NtRp557
(dp558
g8
g10
sg150
Nsg151
(dp559
sg153
Nsg25
g27
sg154
(lp560
I3
aI8
asg156
Nsg157
VShemot Rabbah 3:8
p561
sg159
(lp562
sg161
g115
sg162
Nsg163
(lp563
I3
aI8
asg165
Nsg166
g561
sg167
(lp564
sg169
g57
sg170
Nsg171
Nsg172
Nsbag3
(g4
g5
NtRp565
(dp566
g8
g10
sg150
Nsg151
(dp567
sg153
Nsg25
g27
sg154
(lp568
I3
aI9
asg156
Nsg157
VShemot Rabbah 3:9
p569
sg159
(lp570
sg161
g115
sg162
Nsg163
(lp571
I3
aI9
asg165
Nsg166
g569
sg167
(lp572
sg169
g57
sg170
Nsg171
Nsg172
Nsbag3
(g4
g5
NtRp573
(dp574
g8
g10
sg150
Nsg151
(dp575
sg153
Nsg25
g27
sg154
(lp576
I3
aI10
asg156
Nsg157
VShemot Rabbah 3:10
p577
sg159
(lp578
sg161
g115
sg162
Nsg163
(lp579
I3
aI10
asg165
Nsg166
g577
sg167
(lp580
sg169
g57
sg170
Nsg171
Nsg172
Nsbag3
(g4
g5
NtRp581
(dp582
g8
g10
sg150
Nsg151
(dp583
sg153
Nsg25
g27
sg154
(lp584
I3
aI11
asg156
Nsg157
VShemot Rabbah 3:11
p585
sg159
(lp586
sg161
g115
sg162
Nsg163
(lp587
I3
aI11
asg165
Nsg166
g585
sg167
(lp588
sg169
g57
sg170
Nsg171
Nsg172
Nsbag3
(g4
g5
NtRp589
(dp590
g8
g10
sg150
Nsg151
(dp591
sg153
Nsg25
g27
sg154
(lp592
I3
aI12
asg156
Nsg157
VShemot Rabbah 3:12
p593
sg159
(lp594
sg161
g115
sg162
Nsg163
(lp595
I3
aI12
asg165
Nsg166
g593
sg167
(lp596
sg169
g57
sg170
Nsg171
Nsg172
Nsbag3
(g4
g5
NtRp597
(dp598
g8
g10
sg150
Nsg151
(dp599
sg153
Nsg25
g27
sg154
(lp600
I3
aI13
asg156
Nsg157
VShemot Rabbah 3:13
p601
sg159
(lp602
sg161
g115
sg162
Nsg163
(lp603
I3
aI13
asg165
Nsg166
g601
sg167
(lp604
sg169
g57
sg170
Nsg171
Nsg172
Nsbag3
(g4
g5
NtRp605
(dp606
g8
g10
sg150
Nsg151
(dp607
sg153
Nsg25
g27
sg154
(lp608
I3
aI14
asg156
Nsg157
VShemot Rabbah 3:14
p609
sg159
(lp610
sg161
g115
sg162
Nsg163
(lp611
I3
aI14
asg165
Nsg166
g609
sg167
(lp612
sg169
g57
sg170
Nsg171
Nsg172
Nsbag3
(g4
g5
NtRp613
(dp614
g8
g10
sg150
Nsg151
(dp615
sg153
Nsg25
g27
sg154
(lp616
I3
aI15
asg156
Nsg157
VShemot Rabbah 3:15
p617
sg159
(lp618
sg161
g115
sg162
Nsg163
(lp619
I3
aI15
asg165
Nsg166
g617
sg167
(lp620
sg169
g57
sg170
Nsg171
Nsg172
Nsbag3
(g4
g5
NtRp621
(dp622
g8
g10
sg150
Nsg151
(dp623
sg153
Nsg25
g27
sg154
(lp624
I3
aI16
asg156
Nsg157
VShemot Rabbah 3:16
p625
sg159
(lp626
sg161
g115
sg162
Nsg163
(lp627
I3
aI16
asg165
Nsg166
g625
sg167
(lp628
sg169
g57
sg170
Nsg171
Nsg172
Nsbag3
(g4
g5
NtRp629
(dp630
g8
g10
sg150
Nsg151
(dp631
sg153
Nsg25
g27
sg154
(lp632
I3
aI17
asg156
Nsg157
VShemot Rabbah 3:17
p633
sg159
(lp634
sg161
g115
sg162
Nsg163
(lp635
I3
aI17
asg165
Nsg166
g633
sg167
(lp636
sg169
g57
sg170
Nsg171
Nsg172
Nsbag3
(g4
g5
NtRp637
(dp638
g8
g10
sg150
Nsg151
(dp639
sg153
Nsg25
g27
sg154
(lp640
I4
aI1
asg156
Nsg157
VShemot Rabbah 4:1
p641
sg159
(lp642
sg161
g115
sg162
Nsg163
(lp643
I4
aI1
asg165
Nsg166
g641
sg167
(lp644
sg169
g57
sg170
Nsg171
Nsg172
Nsbag3
(g4
g5
NtRp645
(dp646
g8
g10
sg150
Nsg151
(dp647
sg153
Nsg25
g27
sg154
(lp648
I4
aI2
asg156
Nsg157
VShemot Rabbah 4:2
p649
sg159
(lp650
sg161
g115
sg162
Nsg163
(lp651
I4
aI2
asg165
Nsg166
g649
sg167
(lp652
sg169
g57
sg170
Nsg171
Nsg172
Nsbag3
(g4
g5
NtRp653
(dp654
g8
g10
sg150
Nsg151
(dp655
sg153
Nsg25
g27
sg154
(lp656
I4
aI3
asg156
Nsg157
VShemot Rabbah 4:3
p657
sg159
(lp658
sg161
g115
sg162
Nsg163
(lp659
I4
aI3
asg165
Nsg166
g657
sg167
(lp660
sg169
g57
sg170
Nsg171
Nsg172
Nsbag3
(g4
g5
NtRp661
(dp662
g8
g10
sg150
Nsg151
(dp663
sg153
Nsg25
g27
sg154
(lp664
I4
aI4
asg156
Nsg157
VShemot Rabbah 4:4
p665
sg159
(lp666
sg161
g115
sg162
Nsg163
(lp667
I4
aI4
asg165
Nsg166
g665
sg167
(lp668
sg169
g57
sg170
Nsg171
Nsg172
Nsbag3
(g4
g5
NtRp669
(dp670
g8
g10
sg150
Nsg151
(dp671
sg153
Nsg25
g27
sg154
(lp672
I5
aI1
asg156
Nsg157
VShemot Rabbah 5:1
p673
sg159
(lp674
sg161
g115
sg162
Nsg163
(lp675
I5
aI1
asg165
Nsg166
g673
sg167
(lp676
sg169
g57
sg170
Nsg171
Nsg172
Nsbag3
(g4
g5
NtRp677
(dp678
g8
g10
sg150
Nsg151
(dp679
sg153
Nsg25
g27
sg154
(lp680
I5
aI2
asg156
Nsg157
VShemot Rabbah 5:2
p681
sg159
(lp682
sg161
g115
sg162
Nsg163
(lp683
I5
aI2
asg165
Nsg166
g681
sg167
(lp684
sg169
g57
sg170
Nsg171
Nsg172
Nsbag3
(g4
g5
NtRp685
(dp686
g8
g10
sg150
Nsg151
(dp687
sg153
Nsg25
g27
sg154
(lp688
I5
aI3
asg156
Nsg157
VShemot Rabbah 5:3
p689
sg159
(lp690
sg161
g115
sg162
Nsg163
(lp691
I5
aI3
asg165
Nsg166
g689
sg167
(lp692
sg169
g57
sg170
Nsg171
Nsg172
Nsbag3
(g4
g5
NtRp693
(dp694
g8
g10
sg150
Nsg151
(dp695
sg153
Nsg25
g27
sg154
(lp696
I5
aI4
asg156
Nsg157
VShemot Rabbah 5:4
p697
sg159
(lp698
sg161
g115
sg162
Nsg163
(lp699
I5
aI4
asg165
Nsg166
g697
sg167
(lp700
sg169
g57
sg170
Nsg171
Nsg172
Nsbag3
(g4
g5
NtRp701
(dp702
g8
g10
sg150
Nsg151
(dp703
sg153
Nsg25
g27
sg154
(lp704
I5
aI5
asg156
Nsg157
VShemot Rabbah 5:5
p705
sg159
(lp706
sg161
g115
sg162
Nsg163
(lp707
I5
aI5
asg165
Nsg166
g705
sg167
(lp708
sg169
g57
sg170
Nsg171
Nsg172
Nsbag3
(g4
g5
NtRp709
(dp710
g8
g10
sg150
Nsg151
(dp711
sg153
Nsg25
g27
sg154
(lp712
I5
aI6
asg156
Nsg157
VShemot Rabbah 5:6
p713
sg159
(lp714
sg161
g115
sg162
Nsg163
(lp715
I5
aI6
asg165
Nsg166
g713
sg167
(lp716
sg169
g57
sg170
Nsg171
Nsg172
Nsbag3
(g4
g5
NtRp717
(dp718
g8
g10
sg150
Nsg151
(dp719
sg153
Nsg25
g27
sg154
(lp720
I5
aI7
asg156
Nsg157
VShemot Rabbah 5:7
p721
sg159
(lp722
sg161
g115
sg162
Nsg163
(lp723
I5
aI7
asg165
Nsg166
g721
sg167
(lp724
sg169
g57
sg170
Nsg171
Nsg172
Nsbag3
(g4
g5
NtRp725
(dp726
g8
g10
sg150
Nsg151
(dp727
sg153
Nsg25
g27
sg154
(lp728
I5
aI8
asg156
Nsg157
VShemot Rabbah 5:8
p729
sg159
(lp730
sg161
g115
sg162
Nsg163
(lp731
I5
aI8
asg165
Nsg166
g729
sg167
(lp732
sg169
g57
sg170
Nsg171
Nsg172
Nsbag3
(g4
g5
NtRp733
(dp734
g8
g10
sg150
Nsg151
(dp735
sg153
Nsg25
g27
sg154
(lp736
I5
aI9
asg156
Nsg157
VShemot Rabbah 5:9
p737
sg159
(lp738
sg161
g115
sg162
Nsg163
(lp739
I5
aI9
asg165
Nsg166
g737
sg167
(lp740
sg169
g57
sg170
Nsg171
Nsg172
Nsbag3
(g4
g5
NtRp741
(dp742
g8
g10
sg150
Nsg151
(dp743
sg153
Nsg25
g27
sg154
(lp744
I5
aI10
asg156
Nsg157
VShemot Rabbah 5:10
p745
sg159
(lp746
sg161
g115
sg162
Nsg163
(lp747
I5
aI10
asg165
Nsg166
g745
sg167
(lp748
sg169
g57
sg170
Nsg171
Nsg172
Nsbag3
(g4
g5
NtRp749
(dp750
g8
g10
sg150
Nsg151
(dp751
sg153
Nsg25
g27
sg154
(lp752
I5
aI11
asg156
Nsg157
VShemot Rabbah 5:11
p753
sg159
(lp754
sg161
g115
sg162
Nsg163
(lp755
I5
aI11
asg165
Nsg166
g753
sg167
(lp756
sg169
g57
sg170
Nsg171
Nsg172
Nsbag3
(g4
g5
NtRp757
(dp758
g8
g10
sg150
Nsg151
(dp759
sg153
Nsg25
g27
sg154
(lp760
I5
aI12
asg156
Nsg157
VShemot Rabbah 5:12
p761
sg159
(lp762
sg161
g115
sg162
Nsg163
(lp763
I5
aI12
asg165
Nsg166
g761
sg167
(lp764
sg169
g57
sg170
Nsg171
Nsg172
Nsbag3
(g4
g5
NtRp765
(dp766
g8
g10
sg150
Nsg151
(dp767
sg153
Nsg25
g27
sg154
(lp768
I5
aI13
asg156
Nsg157
VShemot Rabbah 5:13
p769
sg159
(lp770
sg161
g115
sg162
Nsg163
(lp771
I5
aI13
asg165
Nsg166
g769
sg167
(lp772
sg169
g57
sg170
Nsg171
Nsg172
Nsbag3
(g4
g5
NtRp773
(dp774
g8
g10
sg150
Nsg151
(dp775
sg153
Nsg25
g27
sg154
(lp776
I5
aI14
asg156
Nsg157
VShemot Rabbah 5:14
p777
sg159
(lp778
sg161
g115
sg162
Nsg163
(lp779
I5
aI14
asg165
Nsg166
g777
sg167
(lp780
sg169
g57
sg170
Nsg171
Nsg172
Nsbag3
(g4
g5
NtRp781
(dp782
g8
g10
sg150
Nsg151
(dp783
sg153
Nsg25
g27
sg154
(lp784
I5
aI15
asg156
Nsg157
VShemot Rabbah 5:15
p785
sg159
(lp786
sg161
g115
sg162
Nsg163
(lp787
I5
aI15
asg165
Nsg166
g785
sg167
(lp788
sg169
g57
sg170
Nsg171
Nsg172
Nsbag3
(g4
g5
NtRp789
(dp790
g8
g10
sg150
Nsg151
(dp791
sg153
Nsg25
g27
sg154
(lp792
I5
aI16
asg156
Nsg157
VShemot Rabbah 5:16
p793
sg159
(lp794
sg161
g115
sg162
Nsg163
(lp795
I5
aI16
asg165
Nsg166
g793
sg167
(lp796
sg169
g57
sg170
Nsg171
Nsg172
Nsbag3
(g4
g5
NtRp797
(dp798
g8
g10
sg150
Nsg151
(dp799
sg153
Nsg25
g27
sg154
(lp800
I5
aI17
asg156
Nsg157
VShemot Rabbah 5:17
p801
sg159
(lp802
sg161
g115
sg162
Nsg163
(lp803
I5
aI17
asg165
Nsg166
g801
sg167
(lp804
sg169
g57
sg170
Nsg171
Nsg172
Nsbag3
(g4
g5
NtRp805
(dp806
g8
g10
sg150
Nsg151
(dp807
sg153
Nsg25
g27
sg154
(lp808
I5
aI18
asg156
Nsg157
VShemot Rabbah 5:18
p809
sg159
(lp810
sg161
g115
sg162
Nsg163
(lp811
I5
aI18
asg165
Nsg166
g809
sg167
(lp812
sg169
g57
sg170
Nsg171
Nsg172
Nsbag3
(g4
g5
NtRp813
(dp814
g8
g10
sg150
Nsg151
(dp815
sg153
Nsg25
g27
sg154
(lp816
I5
aI19
asg156
Nsg157
VShemot Rabbah 5:19
p817
sg159
(lp818
sg161
g115
sg162
Nsg163
(lp819
I5
aI19
asg165
Nsg166
g817
sg167
(lp820
sg169
g57
sg170
Nsg171
Nsg172
Nsbag3
(g4
g5
NtRp821
(dp822
g8
g10
sg150
Nsg151
(dp823
sg153
Nsg25
g27
sg154
(lp824
I5
aI20
asg156
Nsg157
VShemot Rabbah 5:20
p825
sg159
(lp826
sg161
g115
sg162
Nsg163
(lp827
I5
aI20
asg165
Nsg166
g825
sg167
(lp828
sg169
g57
sg170
Nsg171
Nsg172
Nsbag3
(g4
g5
NtRp829
(dp830
g8
g10
sg150
Nsg151
(dp831
sg153
Nsg25
g27
sg154
(lp832
I5
aI21
asg156
Nsg157
VShemot Rabbah 5:21
p833
sg159
(lp834
sg161
g115
sg162
Nsg163
(lp835
I5
aI21
asg165
Nsg166
g833
sg167
(lp836
sg169
g57
sg170
Nsg171
Nsg172
Nsbag3
(g4
g5
NtRp837
(dp838
g8
g10
sg150
Nsg151
(dp839
sg153
Nsg25
g27
sg154
(lp840
I5
aI22
asg156
Nsg157
VShemot Rabbah 5:22
p841
sg159
(lp842
sg161
g115
sg162
Nsg163
(lp843
I5
aI22
asg165
Nsg166
g841
sg167
(lp844
sg169
g57
sg170
Nsg171
Nsg172
Nsbag3
(g4
g5
NtRp845
(dp846
g8
g10
sg150
Nsg151
(dp847
sg153
Nsg25
g27
sg154
(lp848
I5
aI23
asg156
Nsg157
VShemot Rabbah 5:23
p849
sg159
(lp850
sg161
g115
sg162
Nsg163
(lp851
I5
aI23
asg165
Nsg166
g849
sg167
(lp852
sg169
g57
sg170
Nsg171
Nsg172
Nsbag3
(g4
g5
NtRp853
(dp854
g8
g10
sg150
Nsg151
(dp855
sg153
Nsg25
g27
sg154
(lp856
I6
aI1
asg156
Nsg157
VShemot Rabbah 6:1
p857
sg159
(lp858
sg161
g115
sg162
Nsg163
(lp859
I6
aI1
asg165
Nsg166
g857
sg167
(lp860
sg169
g57
sg170
Nsg171
Nsg172
Nsbag3
(g4
g5
NtRp861
(dp862
g8
g10
sg150
Nsg151
(dp863
sg153
Nsg25
g27
sg154
(lp864
I6
aI2
asg156
Nsg157
VShemot Rabbah 6:2
p865
sg159
(lp866
sg161
g115
sg162
Nsg163
(lp867
I6
aI2
asg165
Nsg166
g865
sg167
(lp868
sg169
g57
sg170
Nsg171
Nsg172
Nsbag3
(g4
g5
NtRp869
(dp870
g8
g10
sg150
Nsg151
(dp871
sg153
Nsg25
g27
sg154
(lp872
I6
aI3
asg156
Nsg157
VShemot Rabbah 6:3
p873
sg159
(lp874
sg161
g115
sg162
Nsg163
(lp875
I6
aI3
asg165
Nsg166
g873
sg167
(lp876
sg169
g57
sg170
Nsg171
Nsg172
Nsbag3
(g4
g5
NtRp877
(dp878
g8
g10
sg150
Nsg151
(dp879
sg153
Nsg25
g27
sg154
(lp880
I6
aI4
asg156
Nsg157
VShemot Rabbah 6:4
p881
sg159
(lp882
sg161
g115
sg162
Nsg163
(lp883
I6
aI4
asg165
Nsg166
g881
sg167
(lp884
sg169
g57
sg170
Nsg171
Nsg172
Nsbag3
(g4
g5
NtRp885
(dp886
g8
g10
sg150
Nsg151
(dp887
sg153
Nsg25
g27
sg154
(lp888
I6
aI5
asg156
Nsg157
VShemot Rabbah 6:5
p889
sg159
(lp890
sg161
g115
sg162
Nsg163
(lp891
I6
aI5
asg165
Nsg166
g889
sg167
(lp892
sg169
g57
sg170
Nsg171
Nsg172
Nsbag3
(g4
g5
NtRp893
(dp894
g8
g10
sg150
Nsg151
(dp895
sg153
Nsg25
g27
sg154
(lp896
I7
aI1
asg156
Nsg157
VShemot Rabbah 7:1
p897
sg159
(lp898
sg161
g115
sg162
Nsg163
(lp899
I7
aI1
asg165
Nsg166
g897
sg167
(lp900
sg169
g57
sg170
Nsg171
Nsg172
Nsbag3
(g4
g5
NtRp901
(dp902
g8
g10
sg150
Nsg151
(dp903
sg153
Nsg25
g27
sg154
(lp904
I7
aI2
asg156
Nsg157
VShemot Rabbah 7:2
p905
sg159
(lp906
sg161
g115
sg162
Nsg163
(lp907
I7
aI2
asg165
Nsg166
g905
sg167
(lp908
sg169
g57
sg170
Nsg171
Nsg172
Nsbag3
(g4
g5
NtRp909
(dp910
g8
g10
sg150
Nsg151
(dp911
sg153
Nsg25
g27
sg154
(lp912
I7
aI3
asg156
Nsg157
VShemot Rabbah 7:3
p913
sg159
(lp914
sg161
g115
sg162
Nsg163
(lp915
I7
aI3
asg165
Nsg166
g913
sg167
(lp916
sg169
g57
sg170
Nsg171
Nsg172
Nsbag3
(g4
g5
NtRp917
(dp918
g8
g10
sg150
Nsg151
(dp919
sg153
Nsg25
g27
sg154
(lp920
I7
aI4
asg156
Nsg157
VShemot Rabbah 7:4
p921
sg159
(lp922
sg161
g115
sg162
Nsg163
(lp923
I7
aI4
asg165
Nsg166
g921
sg167
(lp924
sg169
g57
sg170
Nsg171
Nsg172
Nsbag3
(g4
g5
NtRp925
(dp926
g8
g10
sg150
Nsg151
(dp927
sg153
Nsg25
g27
sg154
(lp928
I7
aI5
asg156
Nsg157
VShemot Rabbah 7:5
p929
sg159
(lp930
sg161
g115
sg162
Nsg163
(lp931
I7
aI5
asg165
Nsg166
g929
sg167
(lp932
sg169
g57
sg170
Nsg171
Nsg172
Nsbag3
(g4
g5
NtRp933
(dp934
g8
g10
sg150
Nsg151
(dp935
sg153
Nsg25
g27
sg154
(lp936
I8
aI1
asg156
Nsg157
VShemot Rabbah 8:1
p937
sg159
(lp938
sg161
g115
sg162
Nsg163
(lp939
I8
aI1
asg165
Nsg166
g937
sg167
(lp940
sg169
g57
sg170
Nsg171
Nsg172
Nsbag3
(g4
g5
NtRp941
(dp942
g8
g10
sg150
Nsg151
(dp943
sg153
Nsg25
g27
sg154
(lp944
I8
aI2
asg156
Nsg157
VShemot Rabbah 8:2
p945
sg159
(lp946
sg161
g115
sg162
Nsg163
(lp947
I8
aI2
asg165
Nsg166
g945
sg167
(lp948
sg169
g57
sg170
Nsg171
Nsg172
Nsbag3
(g4
g5
NtRp949
(dp950
g8
g10
sg150
Nsg151
(dp951
sg153
Nsg25
g27
sg154
(lp952
I8
aI3
asg156
Nsg157
VShemot Rabbah 8:3
p953
sg159
(lp954
sg161
g115
sg162
Nsg163
(lp955
I8
aI3
asg165
Nsg166
g953
sg167
(lp956
sg169
g57
sg170
Nsg171
Nsg172
Nsbag3
(g4
g5
NtRp957
(dp958
g8
g10
sg150
Nsg151
(dp959
sg153
Nsg25
g27
sg154
(lp960
I9
aI1
asg156
Nsg157
VShemot Rabbah 9:1
p961
sg159
(lp962
sg161
g115
sg162
Nsg163
(lp963
I9
aI1
asg165
Nsg166
g961
sg167
(lp964
sg169
g57
sg170
Nsg171
Nsg172
Nsbag3
(g4
g5
NtRp965
(dp966
g8
g10
sg150
Nsg151
(dp967
sg153
Nsg25
g27
sg154
(lp968
I9
aI2
asg156
Nsg157
VShemot Rabbah 9:2
p969
sg159
(lp970
sg161
g115
sg162
Nsg163
(lp971
I9
aI2
asg165
Nsg166
g969
sg167
(lp972
sg169
g57
sg170
Nsg171
Nsg172
Nsbag3
(g4
g5
NtRp973
(dp974
g8
g10
sg150
Nsg151
(dp975
sg153
Nsg25
g27
sg154
(lp976
I9
aI3
asg156
Nsg157
VShemot Rabbah 9:3
p977
sg159
(lp978
sg161
g115
sg162
Nsg163
(lp979
I9
aI3
asg165
Nsg166
g977
sg167
(lp980
sg169
g57
sg170
Nsg171
Nsg172
Nsbag3
(g4
g5
NtRp981
(dp982
g8
g10
sg150
Nsg151
(dp983
sg153
Nsg25
g27
sg154
(lp984
I9
aI4
asg156
Nsg157
VShemot Rabbah 9:4
p985
sg159
(lp986
sg161
g115
sg162
Nsg163
(lp987
I9
aI4
asg165
Nsg166
g985
sg167
(lp988
sg169
g57
sg170
Nsg171
Nsg172
Nsbag3
(g4
g5
NtRp989
(dp990
g8
g10
sg150
Nsg151
(dp991
sg153
Nsg25
g27
sg154
(lp992
I9
aI5
asg156
Nsg157
VShemot Rabbah 9:5
p993
sg159
(lp994
sg161
g115
sg162
Nsg163
(lp995
I9
aI5
asg165
Nsg166
g993
sg167
(lp996
sg169
g57
sg170
Nsg171
Nsg172
Nsbag3
(g4
g5
NtRp997
(dp998
g8
g10
sg150
Nsg151
(dp999
sg153
Nsg25
g27
sg154
(lp1000
I9
aI6
asg156
Nsg157
VShemot Rabbah 9:6
p1001
sg159
(lp1002
sg161
g115
sg162
Nsg163
(lp1003
I9
aI6
asg165
Nsg166
g1001
sg167
(lp1004
sg169
g57
sg170
Nsg171
Nsg172
Nsbag3
(g4
g5
NtRp1005
(dp1006
g8
g10
sg150
Nsg151
(dp1007
sg153
Nsg25
g27
sg154
(lp1008
I9
aI7
asg156
Nsg157
VShemot Rabbah 9:7
p1009
sg159
(lp1010
sg161
g115
sg162
Nsg163
(lp1011
I9
aI7
asg165
Nsg166
g1009
sg167
(lp1012
sg169
g57
sg170
Nsg171
Nsg172
Nsbag3
(g4
g5
NtRp1013
(dp1014
g8
g10
sg150
Nsg151
(dp1015
sg153
Nsg25
g27
sg154
(lp1016
I9
aI8
asg156
Nsg157
VShemot Rabbah 9:8
p1017
sg159
(lp1018
sg161
g115
sg162
Nsg163
(lp1019
I9
aI8
asg165
Nsg166
g1017
sg167
(lp1020
sg169
g57
sg170
Nsg171
Nsg172
Nsbag3
(g4
g5
NtRp1021
(dp1022
g8
g10
sg150
Nsg151
(dp1023
sg153
Nsg25
g27
sg154
(lp1024
I9
aI9
asg156
Nsg157
VShemot Rabbah 9:9
p1025
sg159
(lp1026
sg161
g115
sg162
Nsg163
(lp1027
I9
aI9
asg165
Nsg166
g1025
sg167
(lp1028
sg169
g57
sg170
Nsg171
Nsg172
Nsbag3
(g4
g5
NtRp1029
(dp1030
g8
g10
sg150
Nsg151
(dp1031
sg153
Nsg25
g27
sg154
(lp1032
I9
aI10
asg156
Nsg157
VShemot Rabbah 9:10
p1033
sg159
(lp1034
sg161
g115
sg162
Nsg163
(lp1035
I9
aI10
asg165
Nsg166
g1033
sg167
(lp1036
sg169
g57
sg170
Nsg171
Nsg172
Nsbag3
(g4
g5
NtRp1037
(dp1038
g8
g10
sg150
Nsg151
(dp1039
sg153
Nsg25
g27
sg154
(lp1040
I9
aI11
asg156
Nsg157
VShemot Rabbah 9:11
p1041
sg159
(lp1042
sg161
g115
sg162
Nsg163
(lp1043
I9
aI11
asg165
Nsg166
g1041
sg167
(lp1044
sg169
g57
sg170
Nsg171
Nsg172
Nsbag3
(g4
g5
NtRp1045
(dp1046
g8
g10
sg150
Nsg151
(dp1047
sg153
Nsg25
g27
sg154
(lp1048
I9
aI12
asg156
Nsg157
VShemot Rabbah 9:12
p1049
sg159
(lp1050
sg161
g115
sg162
Nsg163
(lp1051
I9
aI12
asg165
Nsg166
g1049
sg167
(lp1052
sg169
g57
sg170
Nsg171
Nsg172
Nsbag3
(g4
g5
NtRp1053
(dp1054
g8
g10
sg150
Nsg151
(dp1055
sg153
Nsg25
g27
sg154
(lp1056
I9
aI13
asg156
Nsg157
VShemot Rabbah 9:13
p1057
sg159
(lp1058
sg161
g115
sg162
Nsg163
(lp1059
I9
aI13
asg165
Nsg166
g1057
sg167
(lp1060
sg169
g57
sg170
Nsg171
Nsg172
Nsbag3
(g4
g5
NtRp1061
(dp1062
g8
g10
sg150
Nsg151
(dp1063
sg153
Nsg25
g27
sg154
(lp1064
I10
aI1
asg156
Nsg157
VShemot Rabbah 10:1
p1065
sg159
(lp1066
sg161
g115
sg162
Nsg163
(lp1067
I10
aI1
asg165
Nsg166
g1065
sg167
(lp1068
sg169
g57
sg170
Nsg171
Nsg172
Nsbag3
(g4
g5
NtRp1069
(dp1070
g8
g10
sg150
Nsg151
(dp1071
sg153
Nsg25
g27
sg154
(lp1072
I10
aI2
asg156
Nsg157
VShemot Rabbah 10:2
p1073
sg159
(lp1074
sg161
g115
sg162
Nsg163
(lp1075
I10
aI2
asg165
Nsg166
g1073
sg167
(lp1076
sg169
g57
sg170
Nsg171
Nsg172
Nsbag3
(g4
g5
NtRp1077
(dp1078
g8
g10
sg150
Nsg151
(dp1079
sg153
Nsg25
g27
sg154
(lp1080
I10
aI3
asg156
Nsg157
VShemot Rabbah 10:3
p1081
sg159
(lp1082
sg161
g115
sg162
Nsg163
(lp1083
I10
aI3
asg165
Nsg166
g1081
sg167
(lp1084
sg169
g57
sg170
Nsg171
Nsg172
Nsbag3
(g4
g5
NtRp1085
(dp1086
g8
g10
sg150
Nsg151
(dp1087
sg153
Nsg25
g27
sg154
(lp1088
I10
aI4
asg156
Nsg157
VShemot Rabbah 10:4
p1089
sg159
(lp1090
sg161
g115
sg162
Nsg163
(lp1091
I10
aI4
asg165
Nsg166
g1089
sg167
(lp1092
sg169
g57
sg170
Nsg171
Nsg172
Nsbag3
(g4
g5
NtRp1093
(dp1094
g8
g10
sg150
Nsg151
(dp1095
sg153
Nsg25
g27
sg154
(lp1096
I10
aI5
asg156
Nsg157
VShemot Rabbah 10:5
p1097
sg159
(lp1098
sg161
g115
sg162
Nsg163
(lp1099
I10
aI5
asg165
Nsg166
g1097
sg167
(lp1100
sg169
g57
sg170
Nsg171
Nsg172
Nsbag3
(g4
g5
NtRp1101
(dp1102
g8
g10
sg150
Nsg151
(dp1103
sg153
Nsg25
g27
sg154
(lp1104
I10
aI6
asg156
Nsg157
VShemot Rabbah 10:6
p1105
sg159
(lp1106
sg161
g115
sg162
Nsg163
(lp1107
I10
aI6
asg165
Nsg166
g1105
sg167
(lp1108
sg169
g57
sg170
Nsg171
Nsg172
Nsbag3
(g4
g5
NtRp1109
(dp1110
g8
g10
sg150
Nsg151
(dp1111
sg153
Nsg25
g27
sg154
(lp1112
I11
aI1
asg156
Nsg157
VShemot Rabbah 11:1
p1113
sg159
(lp1114
sg161
g115
sg162
Nsg163
(lp1115
I11
aI1
asg165
Nsg166
g1113
sg167
(lp1116
sg169
g57
sg170
Nsg171
Nsg172
Nsbag3
(g4
g5
NtRp1117
(dp1118
g8
g10
sg150
Nsg151
(dp1119
sg153
Nsg25
g27
sg154
(lp1120
I11
aI2
asg156
Nsg157
VShemot Rabbah 11:2
p1121
sg159
(lp1122
sg161
g115
sg162
Nsg163
(lp1123
I11
aI2
asg165
Nsg166
g1121
sg167
(lp1124
sg169
g57
sg170
Nsg171
Nsg172
Nsbag3
(g4
g5
NtRp1125
(dp1126
g8
g10
sg150
Nsg151
(dp1127
sg153
Nsg25
g27
sg154
(lp1128
I11
aI3
asg156
Nsg157
VShemot Rabbah 11:3
p1129
sg159
(lp1130
sg161
g115
sg162
Nsg163
(lp1131
I11
aI3
asg165
Nsg166
g1129
sg167
(lp1132
sg169
g57
sg170
Nsg171
Nsg172
Nsbag3
(g4
g5
NtRp1133
(dp1134
g8
g10
sg150
Nsg151
(dp1135
sg153
Nsg25
g27
sg154
(lp1136
I11
aI4
asg156
Nsg157
VShemot Rabbah 11:4
p1137
sg159
(lp1138
sg161
g115
sg162
Nsg163
(lp1139
I11
aI4
asg165
Nsg166
g1137
sg167
(lp1140
sg169
g57
sg170
Nsg171
Nsg172
Nsbag3
(g4
g5
NtRp1141
(dp1142
g8
g10
sg150
Nsg151
(dp1143
sg153
Nsg25
g27
sg154
(lp1144
I11
aI5
asg156
Nsg157
VShemot Rabbah 11:5
p1145
sg159
(lp1146
sg161
g115
sg162
Nsg163
(lp1147
I11
aI5
asg165
Nsg166
g1145
sg167
(lp1148
sg169
g57
sg170
Nsg171
Nsg172
Nsbag3
(g4
g5
NtRp1149
(dp1150
g8
g10
sg150
Nsg151
(dp1151
sg153
Nsg25
g27
sg154
(lp1152
I12
aI1
asg156
Nsg157
VShemot Rabbah 12:1
p1153
sg159
(lp1154
sg161
g115
sg162
Nsg163
(lp1155
I12
aI1
asg165
Nsg166
g1153
sg167
(lp1156
sg169
g57
sg170
Nsg171
Nsg172
Nsbag3
(g4
g5
NtRp1157
(dp1158
g8
g10
sg150
Nsg151
(dp1159
sg153
Nsg25
g27
sg154
(lp1160
I12
aI2
asg156
Nsg157
VShemot Rabbah 12:2
p1161
sg159
(lp1162
sg161
g115
sg162
Nsg163
(lp1163
I12
aI2
asg165
Nsg166
g1161
sg167
(lp1164
sg169
g57
sg170
Nsg171
Nsg172
Nsbag3
(g4
g5
NtRp1165
(dp1166
g8
g10
sg150
Nsg151
(dp1167
sg153
Nsg25
g27
sg154
(lp1168
I12
aI3
asg156
Nsg157
VShemot Rabbah 12:3
p1169
sg159
(lp1170
sg161
g115
sg162
Nsg163
(lp1171
I12
aI3
asg165
Nsg166
g1169
sg167
(lp1172
sg169
g57
sg170
Nsg171
Nsg172
Nsbag3
(g4
g5
NtRp1173
(dp1174
g8
g10
sg150
Nsg151
(dp1175
sg153
Nsg25
g27
sg154
(lp1176
I12
aI4
asg156
Nsg157
VShemot Rabbah 12:4
p1177
sg159
(lp1178
sg161
g115
sg162
Nsg163
(lp1179
I12
aI4
asg165
Nsg166
g1177
sg167
(lp1180
sg169
g57
sg170
Nsg171
Nsg172
Nsbag3
(g4
g5
NtRp1181
(dp1182
g8
g10
sg150
Nsg151
(dp1183
sg153
Nsg25
g27
sg154
(lp1184
I12
aI5
asg156
Nsg157
VShemot Rabbah 12:5
p1185
sg159
(lp1186
sg161
g115
sg162
Nsg163
(lp1187
I12
aI5
asg165
Nsg166
g1185
sg167
(lp1188
sg169
g57
sg170
Nsg171
Nsg172
Nsbag3
(g4
g5
NtRp1189
(dp1190
g8
g10
sg150
Nsg151
(dp1191
sg153
Nsg25
g27
sg154
(lp1192
I12
aI6
asg156
Nsg157
VShemot Rabbah 12:6
p1193
sg159
(lp1194
sg161
g115
sg162
Nsg163
(lp1195
I12
aI6
asg165
Nsg166
g1193
sg167
(lp1196
sg169
g57
sg170
Nsg171
Nsg172
Nsbag3
(g4
g5
NtRp1197
(dp1198
g8
g10
sg150
Nsg151
(dp1199
sg153
Nsg25
g27
sg154
(lp1200
I12
aI7
asg156
Nsg157
VShemot Rabbah 12:7
p1201
sg159
(lp1202
sg161
g115
sg162
Nsg163
(lp1203
I12
aI7
asg165
Nsg166
g1201
sg167
(lp1204
sg169
g57
sg170
Nsg171
Nsg172
Nsbag3
(g4
g5
NtRp1205
(dp1206
g8
g10
sg150
Nsg151
(dp1207
sg153
Nsg25
g27
sg154
(lp1208
I13
aI1
asg156
Nsg157
VShemot Rabbah 13:1
p1209
sg159
(lp1210
sg161
g115
sg162
Nsg163
(lp1211
I13
aI1
asg165
Nsg166
g1209
sg167
(lp1212
sg169
g57
sg170
Nsg171
Nsg172
Nsbag3
(g4
g5
NtRp1213
(dp1214
g8
g10
sg150
Nsg151
(dp1215
sg153
Nsg25
g27
sg154
(lp1216
I13
aI2
asg156
Nsg157
VShemot Rabbah 13:2
p1217
sg159
(lp1218
sg161
g115
sg162
Nsg163
(lp1219
I13
aI2
asg165
Nsg166
g1217
sg167
(lp1220
sg169
g57
sg170
Nsg171
Nsg172
Nsbag3
(g4
g5
NtRp1221
(dp1222
g8
g10
sg150
Nsg151
(dp1223
sg153
Nsg25
g27
sg154
(lp1224
I13
aI3
asg156
Nsg157
VShemot Rabbah 13:3
p1225
sg159
(lp1226
sg161
g115
sg162
Nsg163
(lp1227
I13
aI3
asg165
Nsg166
g1225
sg167
(lp1228
sg169
g57
sg170
Nsg171
Nsg172
Nsbag3
(g4
g5
NtRp1229
(dp1230
g8
g10
sg150
Nsg151
(dp1231
sg153
Nsg25
g27
sg154
(lp1232
I13
aI4
asg156
Nsg157
VShemot Rabbah 13:4
p1233
sg159
(lp1234
sg161
g115
sg162
Nsg163
(lp1235
I13
aI4
asg165
Nsg166
g1233
sg167
(lp1236
sg169
g57
sg170
Nsg171
Nsg172
Nsbag3
(g4
g5
NtRp1237
(dp1238
g8
g10
sg150
Nsg151
(dp1239
sg153
Nsg25
g27
sg154
(lp1240
I13
aI5
asg156
Nsg157
VShemot Rabbah 13:5
p1241
sg159
(lp1242
sg161
g115
sg162
Nsg163
(lp1243
I13
aI5
asg165
Nsg166
g1241
sg167
(lp1244
sg169
g57
sg170
Nsg171
Nsg172
Nsbag3
(g4
g5
NtRp1245
(dp1246
g8
g10
sg150
Nsg151
(dp1247
sg153
Nsg25
g27
sg154
(lp1248
I13
aI6
asg156
Nsg157
VShemot Rabbah 13:6
p1249
sg159
(lp1250
sg161
g115
sg162
Nsg163
(lp1251
I13
aI6
asg165
Nsg166
g1249
sg167
(lp1252
sg169
g57
sg170
Nsg171
Nsg172
Nsbag3
(g4
g5
NtRp1253
(dp1254
g8
g10
sg150
Nsg151
(dp1255
sg153
Nsg25
g27
sg154
(lp1256
I13
aI7
asg156
Nsg157
VShemot Rabbah 13:7
p1257
sg159
(lp1258
sg161
g115
sg162
Nsg163
(lp1259
I13
aI7
asg165
Nsg166
g1257
sg167
(lp1260
sg169
g57
sg170
Nsg171
Nsg172
Nsbag3
(g4
g5
NtRp1261
(dp1262
g8
g10
sg150
Nsg151
(dp1263
sg153
Nsg25
g27
sg154
(lp1264
I14
aI1
asg156
Nsg157
VShemot Rabbah 14:1
p1265
sg159
(lp1266
sg161
g115
sg162
Nsg163
(lp1267
I14
aI1
asg165
Nsg166
g1265
sg167
(lp1268
sg169
g57
sg170
Nsg171
Nsg172
Nsbag3
(g4
g5
NtRp1269
(dp1270
g8
g10
sg150
Nsg151
(dp1271
sg153
Nsg25
g27
sg154
(lp1272
I14
aI2
asg156
Nsg157
VShemot Rabbah 14:2
p1273
sg159
(lp1274
sg161
g115
sg162
Nsg163
(lp1275
I14
aI2
asg165
Nsg166
g1273
sg167
(lp1276
sg169
g57
sg170
Nsg171
Nsg172
Nsbag3
(g4
g5
NtRp1277
(dp1278
g8
g10
sg150
Nsg151
(dp1279
sg153
Nsg25
g27
sg154
(lp1280
I14
aI3
asg156
Nsg157
VShemot Rabbah 14:3
p1281
sg159
(lp1282
sg161
g115
sg162
Nsg163
(lp1283
I14
aI3
asg165
Nsg166
g1281
sg167
(lp1284
sg169
g57
sg170
Nsg171
Nsg172
Nsbag3
(g4
g5
NtRp1285
(dp1286
g8
g10
sg150
Nsg151
(dp1287
sg153
Nsg25
g27
sg154
(lp1288
I15
aI1
asg156
Nsg157
VShemot Rabbah 15:1
p1289
sg159
(lp1290
sg161
g115
sg162
Nsg163
(lp1291
I15
aI1
asg165
Nsg166
g1289
sg167
(lp1292
sg169
g57
sg170
Nsg171
Nsg172
Nsbag3
(g4
g5
NtRp1293
(dp1294
g8
g10
sg150
Nsg151
(dp1295
sg153
Nsg25
g27
sg154
(lp1296
I15
aI2
asg156
Nsg157
VShemot Rabbah 15:2
p1297
sg159
(lp1298
sg161
g115
sg162
Nsg163
(lp1299
I15
aI2
asg165
Nsg166
g1297
sg167
(lp1300
sg169
g57
sg170
Nsg171
Nsg172
Nsbag3
(g4
g5
NtRp1301
(dp1302
g8
g10
sg150
Nsg151
(dp1303
sg153
Nsg25
g27
sg154
(lp1304
I15
aI3
asg156
Nsg157
VShemot Rabbah 15:3
p1305
sg159
(lp1306
sg161
g115
sg162
Nsg163
(lp1307
I15
aI3
asg165
Nsg166
g1305
sg167
(lp1308
sg169
g57
sg170
Nsg171
Nsg172
Nsbag3
(g4
g5
NtRp1309
(dp1310
g8
g10
sg150
Nsg151
(dp1311
sg153
Nsg25
g27
sg154
(lp1312
I15
aI4
asg156
Nsg157
VShemot Rabbah 15:4
p1313
sg159
(lp1314
sg161
g115
sg162
Nsg163
(lp1315
I15
aI4
asg165
Nsg166
g1313
sg167
(lp1316
sg169
g57
sg170
Nsg171
Nsg172
Nsbag3
(g4
g5
NtRp1317
(dp1318
g8
g10
sg150
Nsg151
(dp1319
sg153
Nsg25
g27
sg154
(lp1320
I15
aI5
asg156
Nsg157
VShemot Rabbah 15:5
p1321
sg159
(lp1322
sg161
g115
sg162
Nsg163
(lp1323
I15
aI5
asg165
Nsg166
g1321
sg167
(lp1324
sg169
g57
sg170
Nsg171
Nsg172
Nsbag3
(g4
g5
NtRp1325
(dp1326
g8
g10
sg150
Nsg151
(dp1327
sg153
Nsg25
g27
sg154
(lp1328
I15
aI6
asg156
Nsg157
VShemot Rabbah 15:6
p1329
sg159
(lp1330
sg161
g115
sg162
Nsg163
(lp1331
I15
aI6
asg165
Nsg166
g1329
sg167
(lp1332
sg169
g57
sg170
Nsg171
Nsg172
Nsbag3
(g4
g5
NtRp1333
(dp1334
g8
g10
sg150
Nsg151
(dp1335
sg153
Nsg25
g27
sg154
(lp1336
I15
aI7
asg156
Nsg157
VShemot Rabbah 15:7
p1337
sg159
(lp1338
sg161
g115
sg162
Nsg163
(lp1339
I15
aI7
asg165
Nsg166
g1337
sg167
(lp1340
sg169
g57
sg170
Nsg171
Nsg172
Nsbag3
(g4
g5
NtRp1341
(dp1342
g8
g10
sg150
Nsg151
(dp1343
sg153
Nsg25
g27
sg154
(lp1344
I15
aI8
asg156
Nsg157
VShemot Rabbah 15:8
p1345
sg159
(lp1346
sg161
g115
sg162
Nsg163
(lp1347
I15
aI8
asg165
Nsg166
g1345
sg167
(lp1348
sg169
g57
sg170
Nsg171
Nsg172
Nsbag3
(g4
g5
NtRp1349
(dp1350
g8
g10
sg150
Nsg151
(dp1351
sg153
Nsg25
g27
sg154
(lp1352
I15
aI9
asg156
Nsg157
VShemot Rabbah 15:9
p1353
sg159
(lp1354
sg161
g115
sg162
Nsg163
(lp1355
I15
aI9
asg165
Nsg166
g1353
sg167
(lp1356
sg169
g57
sg170
Nsg171
Nsg172
Nsbag3
(g4
g5
NtRp1357
(dp1358
g8
g10
sg150
Nsg151
(dp1359
sg153
Nsg25
g27
sg154
(lp1360
I15
aI10
asg156
Nsg157
VShemot Rabbah 15:10
p1361
sg159
(lp1362
sg161
g115
sg162
Nsg163
(lp1363
I15
aI10
asg165
Nsg166
g1361
sg167
(lp1364
sg169
g57
sg170
Nsg171
Nsg172
Nsbag3
(g4
g5
NtRp1365
(dp1366
g8
g10
sg150
Nsg151
(dp1367
sg153
Nsg25
g27
sg154
(lp1368
I15
aI11
asg156
Nsg157
VShemot Rabbah 15:11
p1369
sg159
(lp1370
sg161
g115
sg162
Nsg163
(lp1371
I15
aI11
asg165
Nsg166
g1369
sg167
(lp1372
sg169
g57
sg170
Nsg171
Nsg172
Nsbag3
(g4
g5
NtRp1373
(dp1374
g8
g10
sg150
Nsg151
(dp1375
sg153
Nsg25
g27
sg154
(lp1376
I15
aI12
asg156
Nsg157
VShemot Rabbah 15:12
p1377
sg159
(lp1378
sg161
g115
sg162
Nsg163
(lp1379
I15
aI12
asg165
Nsg166
g1377
sg167
(lp1380
sg169
g57
sg170
Nsg171
Nsg172
Nsbag3
(g4
g5
NtRp1381
(dp1382
g8
g10
sg150
Nsg151
(dp1383
sg153
Nsg25
g27
sg154
(lp1384
I15
aI13
asg156
Nsg157
VShemot Rabbah 15:13
p1385
sg159
(lp1386
sg161
g115
sg162
Nsg163
(lp1387
I15
aI13
asg165
Nsg166
g1385
sg167
(lp1388
sg169
g57
sg170
Nsg171
Nsg172
Nsbag3
(g4
g5
NtRp1389
(dp1390
g8
g10
sg150
Nsg151
(dp1391
sg153
Nsg25
g27
sg154
(lp1392
I15
aI14
asg156
Nsg157
VShemot Rabbah 15:14
p1393
sg159
(lp1394
sg161
g115
sg162
Nsg163
(lp1395
I15
aI14
asg165
Nsg166
g1393
sg167
(lp1396
sg169
g57
sg170
Nsg171
Nsg172
Nsbag3
(g4
g5
NtRp1397
(dp1398
g8
g10
sg150
Nsg151
(dp1399
sg153
Nsg25
g27
sg154
(lp1400
I15
aI15
asg156
Nsg157
VShemot Rabbah 15:15
p1401
sg159
(lp1402
sg161
g115
sg162
Nsg163
(lp1403
I15
aI15
asg165
Nsg166
g1401
sg167
(lp1404
sg169
g57
sg170
Nsg171
Nsg172
Nsbag3
(g4
g5
NtRp1405
(dp1406
g8
g10
sg150
Nsg151
(dp1407
sg153
Nsg25
g27
sg154
(lp1408
I15
aI16
asg156
Nsg157
VShemot Rabbah 15:16
p1409
sg159
(lp1410
sg161
g115
sg162
Nsg163
(lp1411
I15
aI16
asg165
Nsg166
g1409
sg167
(lp1412
sg169
g57
sg170
Nsg171
Nsg172
Nsbag3
(g4
g5
NtRp1413
(dp1414
g8
g10
sg150
Nsg151
(dp1415
sg153
Nsg25
g27
sg154
(lp1416
I15
aI17
asg156
Nsg157
VShemot Rabbah 15:17
p1417
sg159
(lp1418
sg161
g115
sg162
Nsg163
(lp1419
I15
aI17
asg165
Nsg166
g1417
sg167
(lp1420
sg169
g57
sg170
Nsg171
Nsg172
Nsbag3
(g4
g5
NtRp1421
(dp1422
g8
g10
sg150
Nsg151
(dp1423
sg153
Nsg25
g27
sg154
(lp1424
I15
aI18
asg156
Nsg157
VShemot Rabbah 15:18
p1425
sg159
(lp1426
sg161
g115
sg162
Nsg163
(lp1427
I15
aI18
asg165
Nsg166
g1425
sg167
(lp1428
sg169
g57
sg170
Nsg171
Nsg172
Nsbag3
(g4
g5
NtRp1429
(dp1430
g8
g10
sg150
Nsg151
(dp1431
sg153
Nsg25
g27
sg154
(lp1432
I15
aI19
asg156
Nsg157
VShemot Rabbah 15:19
p1433
sg159
(lp1434
sg161
g115
sg162
Nsg163
(lp1435
I15
aI19
asg165
Nsg166
g1433
sg167
(lp1436
sg169
g57
sg170
Nsg171
Nsg172
Nsbag3
(g4
g5
NtRp1437
(dp1438
g8
g10
sg150
Nsg151
(dp1439
sg153
Nsg25
g27
sg154
(lp1440
I15
aI20
asg156
Nsg157
VShemot Rabbah 15:20
p1441
sg159
(lp1442
sg161
g115
sg162
Nsg163
(lp1443
I15
aI20
asg165
Nsg166
g1441
sg167
(lp1444
sg169
g57
sg170
Nsg171
Nsg172
Nsbag3
(g4
g5
NtRp1445
(dp1446
g8
g10
sg150
Nsg151
(dp1447
sg153
Nsg25
g27
sg154
(lp1448
I15
aI21
asg156
Nsg157
VShemot Rabbah 15:21
p1449
sg159
(lp1450
sg161
g115
sg162
Nsg163
(lp1451
I15
aI21
asg165
Nsg166
g1449
sg167
(lp1452
sg169
g57
sg170
Nsg171
Nsg172
Nsbag3
(g4
g5
NtRp1453
(dp1454
g8
g10
sg150
Nsg151
(dp1455
sg153
Nsg25
g27
sg154
(lp1456
I15
aI22
asg156
Nsg157
VShemot Rabbah 15:22
p1457
sg159
(lp1458
sg161
g115
sg162
Nsg163
(lp1459
I15
aI22
asg165
Nsg166
g1457
sg167
(lp1460
sg169
g57
sg170
Nsg171
Nsg172
Nsbag3
(g4
g5
NtRp1461
(dp1462
g8
g10
sg150
Nsg151
(dp1463
sg153
Nsg25
g27
sg154
(lp1464
I15
aI23
asg156
Nsg157
VShemot Rabbah 15:23
p1465
sg159
(lp1466
sg161
g115
sg162
Nsg163
(lp1467
I15
aI23
asg165
Nsg166
g1465
sg167
(lp1468
sg169
g57
sg170
Nsg171
Nsg172
Nsbag3
(g4
g5
NtRp1469
(dp1470
g8
g10
sg150
Nsg151
(dp1471
sg153
Nsg25
g27
sg154
(lp1472
I15
aI24
asg156
Nsg157
VShemot Rabbah 15:24
p1473
sg159
(lp1474
sg161
g115
sg162
Nsg163
(lp1475
I15
aI24
asg165
Nsg166
g1473
sg167
(lp1476
sg169
g57
sg170
Nsg171
Nsg172
Nsbag3
(g4
g5
NtRp1477
(dp1478
g8
g10
sg150
Nsg151
(dp1479
sg153
Nsg25
g27
sg154
(lp1480
I15
aI25
asg156
Nsg157
VShemot Rabbah 15:25
p1481
sg159
(lp1482
sg161
g115
sg162
Nsg163
(lp1483
I15
aI25
asg165
Nsg166
g1481
sg167
(lp1484
sg169
g57
sg170
Nsg171
Nsg172
Nsbag3
(g4
g5
NtRp1485
(dp1486
g8
g10
sg150
Nsg151
(dp1487
sg153
Nsg25
g27
sg154
(lp1488
I15
aI26
asg156
Nsg157
VShemot Rabbah 15:26
p1489
sg159
(lp1490
sg161
g115
sg162
Nsg163
(lp1491
I15
aI26
asg165
Nsg166
g1489
sg167
(lp1492
sg169
g57
sg170
Nsg171
Nsg172
Nsbag3
(g4
g5
NtRp1493
(dp1494
g8
g10
sg150
Nsg151
(dp1495
sg153
Nsg25
g27
sg154
(lp1496
I15
aI27
asg156
Nsg157
VShemot Rabbah 15:27
p1497
sg159
(lp1498
sg161
g115
sg162
Nsg163
(lp1499
I15
aI27
asg165
Nsg166
g1497
sg167
(lp1500
sg169
g57
sg170
Nsg171
Nsg172
Nsbag3
(g4
g5
NtRp1501
(dp1502
g8
g10
sg150
Nsg151
(dp1503
sg153
Nsg25
g27
sg154
(lp1504
I15
aI28
asg156
Nsg157
VShemot Rabbah 15:28
p1505
sg159
(lp1506
sg161
g115
sg162
Nsg163
(lp1507
I15
aI28
asg165
Nsg166
g1505
sg167
(lp1508
sg169
g57
sg170
Nsg171
Nsg172
Nsbag3
(g4
g5
NtRp1509
(dp1510
g8
g10
sg150
Nsg151
(dp1511
sg153
Nsg25
g27
sg154
(lp1512
I15
aI29
asg156
Nsg157
VShemot Rabbah 15:29
p1513
sg159
(lp1514
sg161
g115
sg162
Nsg163
(lp1515
I15
aI29
asg165
Nsg166
g1513
sg167
(lp1516
sg169
g57
sg170
Nsg171
Nsg172
Nsbag3
(g4
g5
NtRp1517
(dp1518
g8
g10
sg150
Nsg151
(dp1519
sg153
Nsg25
g27
sg154
(lp1520
I15
aI30
asg156
Nsg157
VShemot Rabbah 15:30
p1521
sg159
(lp1522
sg161
g115
sg162
Nsg163
(lp1523
I15
aI30
asg165
Nsg166
g1521
sg167
(lp1524
sg169
g57
sg170
Nsg171
Nsg172
Nsbag3
(g4
g5
NtRp1525
(dp1526
g8
g10
sg150
Nsg151
(dp1527
sg153
Nsg25
g27
sg154
(lp1528
I15
aI31
asg156
Nsg157
VShemot Rabbah 15:31
p1529
sg159
(lp1530
sg161
g115
sg162
Nsg163
(lp1531
I15
aI31
asg165
Nsg166
g1529
sg167
(lp1532
sg169
g57
sg170
Nsg171
Nsg172
Nsbag3
(g4
g5
NtRp1533
(dp1534
g8
g10
sg150
Nsg151
(dp1535
sg153
Nsg25
g27
sg154
(lp1536
I16
aI1
asg156
Nsg157
VShemot Rabbah 16:1
p1537
sg159
(lp1538
sg161
g115
sg162
Nsg163
(lp1539
I16
aI1
asg165
Nsg166
g1537
sg167
(lp1540
sg169
g57
sg170
Nsg171
Nsg172
Nsbag3
(g4
g5
NtRp1541
(dp1542
g8
g10
sg150
Nsg151
(dp1543
sg153
Nsg25
g27
sg154
(lp1544
I16
aI2
asg156
Nsg157
VShemot Rabbah 16:2
p1545
sg159
(lp1546
sg161
g115
sg162
Nsg163
(lp1547
I16
aI2
asg165
Nsg166
g1545
sg167
(lp1548
sg169
g57
sg170
Nsg171
Nsg172
Nsbag3
(g4
g5
NtRp1549
(dp1550
g8
g10
sg150
Nsg151
(dp1551
sg153
Nsg25
g27
sg154
(lp1552
I16
aI3
asg156
Nsg157
VShemot Rabbah 16:3
p1553
sg159
(lp1554
sg161
g115
sg162
Nsg163
(lp1555
I16
aI3
asg165
Nsg166
g1553
sg167
(lp1556
sg169
g57
sg170
Nsg171
Nsg172
Nsbag3
(g4
g5
NtRp1557
(dp1558
g8
g10
sg150
Nsg151
(dp1559
sg153
Nsg25
g27
sg154
(lp1560
I16
aI4
asg156
Nsg157
VShemot Rabbah 16:4
p1561
sg159
(lp1562
sg161
g115
sg162
Nsg163
(lp1563
I16
aI4
asg165
Nsg166
g1561
sg167
(lp1564
sg169
g57
sg170
Nsg171
Nsg172
Nsbag3
(g4
g5
NtRp1565
(dp1566
g8
g10
sg150
Nsg151
(dp1567
sg153
Nsg25
g27
sg154
(lp1568
I17
aI1
asg156
Nsg157
VShemot Rabbah 17:1
p1569
sg159
(lp1570
sg161
g115
sg162
Nsg163
(lp1571
I17
aI1
asg165
Nsg166
g1569
sg167
(lp1572
sg169
g57
sg170
Nsg171
Nsg172
Nsbag3
(g4
g5
NtRp1573
(dp1574
g8
g10
sg150
Nsg151
(dp1575
sg153
Nsg25
g27
sg154
(lp1576
I17
aI2
asg156
Nsg157
VShemot Rabbah 17:2
p1577
sg159
(lp1578
sg161
g115
sg162
Nsg163
(lp1579
I17
aI2
asg165
Nsg166
g1577
sg167
(lp1580
sg169
g57
sg170
Nsg171
Nsg172
Nsbag3
(g4
g5
NtRp1581
(dp1582
g8
g10
sg150
Nsg151
(dp1583
sg153
Nsg25
g27
sg154
(lp1584
I17
aI3
asg156
Nsg157
VShemot Rabbah 17:3
p1585
sg159
(lp1586
sg161
g115
sg162
Nsg163
(lp1587
I17
aI3
asg165
Nsg166
g1585
sg167
(lp1588
sg169
g57
sg170
Nsg171
Nsg172
Nsbag3
(g4
g5
NtRp1589
(dp1590
g8
g10
sg150
Nsg151
(dp1591
sg153
Nsg25
g27
sg154
(lp1592
I17
aI4
asg156
Nsg157
VShemot Rabbah 17:4
p1593
sg159
(lp1594
sg161
g115
sg162
Nsg163
(lp1595
I17
aI4
asg165
Nsg166
g1593
sg167
(lp1596
sg169
g57
sg170
Nsg171
Nsg172
Nsbag3
(g4
g5
NtRp1597
(dp1598
g8
g10
sg150
Nsg151
(dp1599
sg153
Nsg25
g27
sg154
(lp1600
I17
aI5
asg156
Nsg157
VShemot Rabbah 17:5
p1601
sg159
(lp1602
sg161
g115
sg162
Nsg163
(lp1603
I17
aI5
asg165
Nsg166
g1601
sg167
(lp1604
sg169
g57
sg170
Nsg171
Nsg172
Nsbag3
(g4
g5
NtRp1605
(dp1606
g8
g10
sg150
Nsg151
(dp1607
sg153
Nsg25
g27
sg154
(lp1608
I18
aI1
asg156
Nsg157
VShemot Rabbah 18:1
p1609
sg159
(lp1610
sg161
g115
sg162
Nsg163
(lp1611
I18
aI1
asg165
Nsg166
g1609
sg167
(lp1612
sg169
g57
sg170
Nsg171
Nsg172
Nsbag3
(g4
g5
NtRp1613
(dp1614
g8
g10
sg150
Nsg151
(dp1615
sg153
Nsg25
g27
sg154
(lp1616
I18
aI2
asg156
Nsg157
VShemot Rabbah 18:2
p1617
sg159
(lp1618
sg161
g115
sg162
Nsg163
(lp1619
I18
aI2
asg165
Nsg166
g1617
sg167
(lp1620
sg169
g57
sg170
Nsg171
Nsg172
Nsbag3
(g4
g5
NtRp1621
(dp1622
g8
g10
sg150
Nsg151
(dp1623
sg153
Nsg25
g27
sg154
(lp1624
I18
aI3
asg156
Nsg157
VShemot Rabbah 18:3
p1625
sg159
(lp1626
sg161
g115
sg162
Nsg163
(lp1627
I18
aI3
asg165
Nsg166
g1625
sg167
(lp1628
sg169
g57
sg170
Nsg171
Nsg172
Nsbag3
(g4
g5
NtRp1629
(dp1630
g8
g10
sg150
Nsg151
(dp1631
sg153
Nsg25
g27
sg154
(lp1632
I18
aI4
asg156
Nsg157
VShemot Rabbah 18:4
p1633
sg159
(lp1634
sg161
g115
sg162
Nsg163
(lp1635
I18
aI4
asg165
Nsg166
g1633
sg167
(lp1636
sg169
g57
sg170
Nsg171
Nsg172
Nsbag3
(g4
g5
NtRp1637
(dp1638
g8
g10
sg150
Nsg151
(dp1639
sg153
Nsg25
g27
sg154
(lp1640
I18
aI5
asg156
Nsg157
VShemot Rabbah 18:5
p1641
sg159
(lp1642
sg161
g115
sg162
Nsg163
(lp1643
I18
aI5
asg165
Nsg166
g1641
sg167
(lp1644
sg169
g57
sg170
Nsg171
Nsg172
Nsbag3
(g4
g5
NtRp1645
(dp1646
g8
g10
sg150
Nsg151
(dp1647
sg153
Nsg25
g27
sg154
(lp1648
I18
aI6
asg156
Nsg157
VShemot Rabbah 18:6
p1649
sg159
(lp1650
sg161
g115
sg162
Nsg163
(lp1651
I18
aI6
asg165
Nsg166
g1649
sg167
(lp1652
sg169
g57
sg170
Nsg171
Nsg172
Nsbag3
(g4
g5
NtRp1653
(dp1654
g8
g10
sg150
Nsg151
(dp1655
sg153
Nsg25
g27
sg154
(lp1656
I18
aI7
asg156
Nsg157
VShemot Rabbah 18:7
p1657
sg159
(lp1658
sg161
g115
sg162
Nsg163
(lp1659
I18
aI7
asg165
Nsg166
g1657
sg167
(lp1660
sg169
g57
sg170
Nsg171
Nsg172
Nsbag3
(g4
g5
NtRp1661
(dp1662
g8
g10
sg150
Nsg151
(dp1663
sg153
Nsg25
g27
sg154
(lp1664
I18
aI8
asg156
Nsg157
VShemot Rabbah 18:8
p1665
sg159
(lp1666
sg161
g115
sg162
Nsg163
(lp1667
I18
aI8
asg165
Nsg166
g1665
sg167
(lp1668
sg169
g57
sg170
Nsg171
Nsg172
Nsbag3
(g4
g5
NtRp1669
(dp1670
g8
g10
sg150
Nsg151
(dp1671
sg153
Nsg25
g27
sg154
(lp1672
I18
aI9
asg156
Nsg157
VShemot Rabbah 18:9
p1673
sg159
(lp1674
sg161
g115
sg162
Nsg163
(lp1675
I18
aI9
asg165
Nsg166
g1673
sg167
(lp1676
sg169
g57
sg170
Nsg171
Nsg172
Nsbag3
(g4
g5
NtRp1677
(dp1678
g8
g10
sg150
Nsg151
(dp1679
sg153
Nsg25
g27
sg154
(lp1680
I18
aI10
asg156
Nsg157
VShemot Rabbah 18:10
p1681
sg159
(lp1682
sg161
g115
sg162
Nsg163
(lp1683
I18
aI10
asg165
Nsg166
g1681
sg167
(lp1684
sg169
g57
sg170
Nsg171
Nsg172
Nsbag3
(g4
g5
NtRp1685
(dp1686
g8
g10
sg150
Nsg151
(dp1687
sg153
Nsg25
g27
sg154
(lp1688
I18
aI11
asg156
Nsg157
VShemot Rabbah 18:11
p1689
sg159
(lp1690
sg161
g115
sg162
Nsg163
(lp1691
I18
aI11
asg165
Nsg166
g1689
sg167
(lp1692
sg169
g57
sg170
Nsg171
Nsg172
Nsbag3
(g4
g5
NtRp1693
(dp1694
g8
g10
sg150
Nsg151
(dp1695
sg153
Nsg25
g27
sg154
(lp1696
I18
aI12
asg156
Nsg157
VShemot Rabbah 18:12
p1697
sg159
(lp1698
sg161
g115
sg162
Nsg163
(lp1699
I18
aI12
asg165
Nsg166
g1697
sg167
(lp1700
sg169
g57
sg170
Nsg171
Nsg172
Nsbag3
(g4
g5
NtRp1701
(dp1702
g8
g10
sg150
Nsg151
(dp1703
sg153
Nsg25
g27
sg154
(lp1704
I19
aI1
asg156
Nsg157
VShemot Rabbah 19:1
p1705
sg159
(lp1706
sg161
g115
sg162
Nsg163
(lp1707
I19
aI1
asg165
Nsg166
g1705
sg167
(lp1708
sg169
g57
sg170
Nsg171
Nsg172
Nsbag3
(g4
g5
NtRp1709
(dp1710
g8
g10
sg150
Nsg151
(dp1711
sg153
Nsg25
g27
sg154
(lp1712
I19
aI2
asg156
Nsg157
VShemot Rabbah 19:2
p1713
sg159
(lp1714
sg161
g115
sg162
Nsg163
(lp1715
I19
aI2
asg165
Nsg166
g1713
sg167
(lp1716
sg169
g57
sg170
Nsg171
Nsg172
Nsbag3
(g4
g5
NtRp1717
(dp1718
g8
g10
sg150
Nsg151
(dp1719
sg153
Nsg25
g27
sg154
(lp1720
I19
aI3
asg156
Nsg157
VShemot Rabbah 19:3
p1721
sg159
(lp1722
sg161
g115
sg162
Nsg163
(lp1723
I19
aI3
asg165
Nsg166
g1721
sg167
(lp1724
sg169
g57
sg170
Nsg171
Nsg172
Nsbag3
(g4
g5
NtRp1725
(dp1726
g8
g10
sg150
Nsg151
(dp1727
sg153
Nsg25
g27
sg154
(lp1728
I19
aI4
asg156
Nsg157
VShemot Rabbah 19:4
p1729
sg159
(lp1730
sg161
g115
sg162
Nsg163
(lp1731
I19
aI4
asg165
Nsg166
g1729
sg167
(lp1732
sg169
g57
sg170
Nsg171
Nsg172
Nsbag3
(g4
g5
NtRp1733
(dp1734
g8
g10
sg150
Nsg151
(dp1735
sg153
Nsg25
g27
sg154
(lp1736
I19
aI5
asg156
Nsg157
VShemot Rabbah 19:5
p1737
sg159
(lp1738
sg161
g115
sg162
Nsg163
(lp1739
I19
aI5
asg165
Nsg166
g1737
sg167
(lp1740
sg169
g57
sg170
Nsg171
Nsg172
Nsbag3
(g4
g5
NtRp1741
(dp1742
g8
g10
sg150
Nsg151
(dp1743
sg153
Nsg25
g27
sg154
(lp1744
I19
aI6
asg156
Nsg157
VShemot Rabbah 19:6
p1745
sg159
(lp1746
sg161
g115
sg162
Nsg163
(lp1747
I19
aI6
asg165
Nsg166
g1745
sg167
(lp1748
sg169
g57
sg170
Nsg171
Nsg172
Nsbag3
(g4
g5
NtRp1749
(dp1750
g8
g10
sg150
Nsg151
(dp1751
sg153
Nsg25
g27
sg154
(lp1752
I19
aI7
asg156
Nsg157
VShemot Rabbah 19:7
p1753
sg159
(lp1754
sg161
g115
sg162
Nsg163
(lp1755
I19
aI7
asg165
Nsg166
g1753
sg167
(lp1756
sg169
g57
sg170
Nsg171
Nsg172
Nsbag3
(g4
g5
NtRp1757
(dp1758
g8
g10
sg150
Nsg151
(dp1759
sg153
Nsg25
g27
sg154
(lp1760
I19
aI8
asg156
Nsg157
VShemot Rabbah 19:8
p1761
sg159
(lp1762
sg161
g115
sg162
Nsg163
(lp1763
I19
aI8
asg165
Nsg166
g1761
sg167
(lp1764
sg169
g57
sg170
Nsg171
Nsg172
Nsbag3
(g4
g5
NtRp1765
(dp1766
g8
g10
sg150
Nsg151
(dp1767
sg153
Nsg25
g27
sg154
(lp1768
I20
aI1
asg156
Nsg157
VShemot Rabbah 20:1
p1769
sg159
(lp1770
sg161
g115
sg162
Nsg163
(lp1771
I20
aI1
asg165
Nsg166
g1769
sg167
(lp1772
sg169
g57
sg170
Nsg171
Nsg172
Nsbag3
(g4
g5
NtRp1773
(dp1774
g8
g10
sg150
Nsg151
(dp1775
sg153
Nsg25
g27
sg154
(lp1776
I20
aI2
asg156
Nsg157
VShemot Rabbah 20:2
p1777
sg159
(lp1778
sg161
g115
sg162
Nsg163
(lp1779
I20
aI2
asg165
Nsg166
g1777
sg167
(lp1780
sg169
g57
sg170
Nsg171
Nsg172
Nsbag3
(g4
g5
NtRp1781
(dp1782
g8
g10
sg150
Nsg151
(dp1783
sg153
Nsg25
g27
sg154
(lp1784
I20
aI3
asg156
Nsg157
VShemot Rabbah 20:3
p1785
sg159
(lp1786
sg161
g115
sg162
Nsg163
(lp1787
I20
aI3
asg165
Nsg166
g1785
sg167
(lp1788
sg169
g57
sg170
Nsg171
Nsg172
Nsbag3
(g4
g5
NtRp1789
(dp1790
g8
g10
sg150
Nsg151
(dp1791
sg153
Nsg25
g27
sg154
(lp1792
I20
aI4
asg156
Nsg157
VShemot Rabbah 20:4
p1793
sg159
(lp1794
sg161
g115
sg162
Nsg163
(lp1795
I20
aI4
asg165
Nsg166
g1793
sg167
(lp1796
sg169
g57
sg170
Nsg171
Nsg172
Nsbag3
(g4
g5
NtRp1797
(dp1798
g8
g10
sg150
Nsg151
(dp1799
sg153
Nsg25
g27
sg154
(lp1800
I20
aI5
asg156
Nsg157
VShemot Rabbah 20:5
p1801
sg159
(lp1802
sg161
g115
sg162
Nsg163
(lp1803
I20
aI5
asg165
Nsg166
g1801
sg167
(lp1804
sg169
g57
sg170
Nsg171
Nsg172
Nsbag3
(g4
g5
NtRp1805
(dp1806
g8
g10
sg150
Nsg151
(dp1807
sg153
Nsg25
g27
sg154
(lp1808
I20
aI6
asg156
Nsg157
VShemot Rabbah 20:6
p1809
sg159
(lp1810
sg161
g115
sg162
Nsg163
(lp1811
I20
aI6
asg165
Nsg166
g1809
sg167
(lp1812
sg169
g57
sg170
Nsg171
Nsg172
Nsbag3
(g4
g5
NtRp1813
(dp1814
g8
g10
sg150
Nsg151
(dp1815
sg153
Nsg25
g27
sg154
(lp1816
I20
aI7
asg156
Nsg157
VShemot Rabbah 20:7
p1817
sg159
(lp1818
sg161
g115
sg162
Nsg163
(lp1819
I20
aI7
asg165
Nsg166
g1817
sg167
(lp1820
sg169
g57
sg170
Nsg171
Nsg172
Nsbag3
(g4
g5
NtRp1821
(dp1822
g8
g10
sg150
Nsg151
(dp1823
sg153
Nsg25
g27
sg154
(lp1824
I20
aI8
asg156
Nsg157
VShemot Rabbah 20:8
p1825
sg159
(lp1826
sg161
g115
sg162
Nsg163
(lp1827
I20
aI8
asg165
Nsg166
g1825
sg167
(lp1828
sg169
g57
sg170
Nsg171
Nsg172
Nsbag3
(g4
g5
NtRp1829
(dp1830
g8
g10
sg150
Nsg151
(dp1831
sg153
Nsg25
g27
sg154
(lp1832
I20
aI9
asg156
Nsg157
VShemot Rabbah 20:9
p1833
sg159
(lp1834
sg161
g115
sg162
Nsg163
(lp1835
I20
aI9
asg165
Nsg166
g1833
sg167
(lp1836
sg169
g57
sg170
Nsg171
Nsg172
Nsbag3
(g4
g5
NtRp1837
(dp1838
g8
g10
sg150
Nsg151
(dp1839
sg153
Nsg25
g27
sg154
(lp1840
I20
aI10
asg156
Nsg157
VShemot Rabbah 20:10
p1841
sg159
(lp1842
sg161
g115
sg162
Nsg163
(lp1843
I20
aI10
asg165
Nsg166
g1841
sg167
(lp1844
sg169
g57
sg170
Nsg171
Nsg172
Nsbag3
(g4
g5
NtRp1845
(dp1846
g8
g10
sg150
Nsg151
(dp1847
sg153
Nsg25
g27
sg154
(lp1848
I20
aI11
asg156
Nsg157
VShemot Rabbah 20:11
p1849
sg159
(lp1850
sg161
g115
sg162
Nsg163
(lp1851
I20
aI11
asg165
Nsg166
g1849
sg167
(lp1852
sg169
g57
sg170
Nsg171
Nsg172
Nsbag3
(g4
g5
NtRp1853
(dp1854
g8
g10
sg150
Nsg151
(dp1855
sg153
Nsg25
g27
sg154
(lp1856
I20
aI12
asg156
Nsg157
VShemot Rabbah 20:12
p1857
sg159
(lp1858
sg161
g115
sg162
Nsg163
(lp1859
I20
aI12
asg165
Nsg166
g1857
sg167
(lp1860
sg169
g57
sg170
Nsg171
Nsg172
Nsbag3
(g4
g5
NtRp1861
(dp1862
g8
g10
sg150
Nsg151
(dp1863
sg153
Nsg25
g27
sg154
(lp1864
I20
aI13
asg156
Nsg157
VShemot Rabbah 20:13
p1865
sg159
(lp1866
sg161
g115
sg162
Nsg163
(lp1867
I20
aI13
asg165
Nsg166
g1865
sg167
(lp1868
sg169
g57
sg170
Nsg171
Nsg172
Nsbag3
(g4
g5
NtRp1869
(dp1870
g8
g10
sg150
Nsg151
(dp1871
sg153
Nsg25
g27
sg154
(lp1872
I20
aI14
asg156
Nsg157
VShemot Rabbah 20:14
p1873
sg159
(lp1874
sg161
g115
sg162
Nsg163
(lp1875
I20
aI14
asg165
Nsg166
g1873
sg167
(lp1876
sg169
g57
sg170
Nsg171
Nsg172
Nsbag3
(g4
g5
NtRp1877
(dp1878
g8
g10
sg150
Nsg151
(dp1879
sg153
Nsg25
g27
sg154
(lp1880
I20
aI15
asg156
Nsg157
VShemot Rabbah 20:15
p1881
sg159
(lp1882
sg161
g115
sg162
Nsg163
(lp1883
I20
aI15
asg165
Nsg166
g1881
sg167
(lp1884
sg169
g57
sg170
Nsg171
Nsg172
Nsbag3
(g4
g5
NtRp1885
(dp1886
g8
g10
sg150
Nsg151
(dp1887
sg153
Nsg25
g27
sg154
(lp1888
I20
aI16
asg156
Nsg157
VShemot Rabbah 20:16
p1889
sg159
(lp1890
sg161
g115
sg162
Nsg163
(lp1891
I20
aI16
asg165
Nsg166
g1889
sg167
(lp1892
sg169
g57
sg170
Nsg171
Nsg172
Nsbag3
(g4
g5
NtRp1893
(dp1894
g8
g10
sg150
Nsg151
(dp1895
sg153
Nsg25
g27
sg154
(lp1896
I20
aI17
asg156
Nsg157
VShemot Rabbah 20:17
p1897
sg159
(lp1898
sg161
g115
sg162
Nsg163
(lp1899
I20
aI17
asg165
Nsg166
g1897
sg167
(lp1900
sg169
g57
sg170
Nsg171
Nsg172
Nsbag3
(g4
g5
NtRp1901
(dp1902
g8
g10
sg150
Nsg151
(dp1903
sg153
Nsg25
g27
sg154
(lp1904
I20
aI18
asg156
Nsg157
VShemot Rabbah 20:18
p1905
sg159
(lp1906
sg161
g115
sg162
Nsg163
(lp1907
I20
aI18
asg165
Nsg166
g1905
sg167
(lp1908
sg169
g57
sg170
Nsg171
Nsg172
Nsbag3
(g4
g5
NtRp1909
(dp1910
g8
g10
sg150
Nsg151
(dp1911
sg153
Nsg25
g27
sg154
(lp1912
I20
aI19
asg156
Nsg157
VShemot Rabbah 20:19
p1913
sg159
(lp1914
sg161
g115
sg162
Nsg163
(lp1915
I20
aI19
asg165
Nsg166
g1913
sg167
(lp1916
sg169
g57
sg170
Nsg171
Nsg172
Nsbag3
(g4
g5
NtRp1917
(dp1918
g8
g10
sg150
Nsg151
(dp1919
sg153
Nsg25
g27
sg154
(lp1920
I21
aI1
asg156
Nsg157
VShemot Rabbah 21:1
p1921
sg159
(lp1922
sg161
g115
sg162
Nsg163
(lp1923
I21
aI1
asg165
Nsg166
g1921
sg167
(lp1924
sg169
g57
sg170
Nsg171
Nsg172
Nsbag3
(g4
g5
NtRp1925
(dp1926
g8
g10
sg150
Nsg151
(dp1927
sg153
Nsg25
g27
sg154
(lp1928
I21
aI2
asg156
Nsg157
VShemot Rabbah 21:2
p1929
sg159
(lp1930
sg161
g115
sg162
Nsg163
(lp1931
I21
aI2
asg165
Nsg166
g1929
sg167
(lp1932
sg169
g57
sg170
Nsg171
Nsg172
Nsbag3
(g4
g5
NtRp1933
(dp1934
g8
g10
sg150
Nsg151
(dp1935
sg153
Nsg25
g27
sg154
(lp1936
I21
aI3
asg156
Nsg157
VShemot Rabbah 21:3
p1937
sg159
(lp1938
sg161
g115
sg162
Nsg163
(lp1939
I21
aI3
asg165
Nsg166
g1937
sg167
(lp1940
sg169
g57
sg170
Nsg171
Nsg172
Nsbag3
(g4
g5
NtRp1941
(dp1942
g8
g10
sg150
Nsg151
(dp1943
sg153
Nsg25
g27
sg154
(lp1944
I21
aI4
asg156
Nsg157
VShemot Rabbah 21:4
p1945
sg159
(lp1946
sg161
g115
sg162
Nsg163
(lp1947
I21
aI4
asg165
Nsg166
g1945
sg167
(lp1948
sg169
g57
sg170
Nsg171
Nsg172
Nsbag3
(g4
g5
NtRp1949
(dp1950
g8
g10
sg150
Nsg151
(dp1951
sg153
Nsg25
g27
sg154
(lp1952
I21
aI5
asg156
Nsg157
VShemot Rabbah 21:5
p1953
sg159
(lp1954
sg161
g115
sg162
Nsg163
(lp1955
I21
aI5
asg165
Nsg166
g1953
sg167
(lp1956
sg169
g57
sg170
Nsg171
Nsg172
Nsbag3
(g4
g5
NtRp1957
(dp1958
g8
g10
sg150
Nsg151
(dp1959
sg153
Nsg25
g27
sg154
(lp1960
I21
aI6
asg156
Nsg157
VShemot Rabbah 21:6
p1961
sg159
(lp1962
sg161
g115
sg162
Nsg163
(lp1963
I21
aI6
asg165
Nsg166
g1961
sg167
(lp1964
sg169
g57
sg170
Nsg171
Nsg172
Nsbag3
(g4
g5
NtRp1965
(dp1966
g8
g10
sg150
Nsg151
(dp1967
sg153
Nsg25
g27
sg154
(lp1968
I21
aI7
asg156
Nsg157
VShemot Rabbah 21:7
p1969
sg159
(lp1970
sg161
g115
sg162
Nsg163
(lp1971
I21
aI7
asg165
Nsg166
g1969
sg167
(lp1972
sg169
g57
sg170
Nsg171
Nsg172
Nsbag3
(g4
g5
NtRp1973
(dp1974
g8
g10
sg150
Nsg151
(dp1975
sg153
Nsg25
g27
sg154
(lp1976
I21
aI8
asg156
Nsg157
VShemot Rabbah 21:8
p1977
sg159
(lp1978
sg161
g115
sg162
Nsg163
(lp1979
I21
aI8
asg165
Nsg166
g1977
sg167
(lp1980
sg169
g57
sg170
Nsg171
Nsg172
Nsbag3
(g4
g5
NtRp1981
(dp1982
g8
g10
sg150
Nsg151
(dp1983
sg153
Nsg25
g27
sg154
(lp1984
I21
aI9
asg156
Nsg157
VShemot Rabbah 21:9
p1985
sg159
(lp1986
sg161
g115
sg162
Nsg163
(lp1987
I21
aI9
asg165
Nsg166
g1985
sg167
(lp1988
sg169
g57
sg170
Nsg171
Nsg172
Nsbag3
(g4
g5
NtRp1989
(dp1990
g8
g10
sg150
Nsg151
(dp1991
sg153
Nsg25
g27
sg154
(lp1992
I21
aI10
asg156
Nsg157
VShemot Rabbah 21:10
p1993
sg159
(lp1994
sg161
g115
sg162
Nsg163
(lp1995
I21
aI10
asg165
Nsg166
g1993
sg167
(lp1996
sg169
g57
sg170
Nsg171
Nsg172
Nsbag3
(g4
g5
NtRp1997
(dp1998
g8
g10
sg150
Nsg151
(dp1999
sg153
Nsg25
g27
sg154
(lp2000
I21
aI11
asg156
Nsg157
VShemot Rabbah 21:11
p2001
sg159
(lp2002
sg161
g115
sg162
Nsg163
(lp2003
I21
aI11
asg165
Nsg166
g2001
sg167
(lp2004
sg169
g57
sg170
Nsg171
Nsg172
Nsbag3
(g4
g5
NtRp2005
(dp2006
g8
g10
sg150
Nsg151
(dp2007
sg153
Nsg25
g27
sg154
(lp2008
I22
aI1
asg156
Nsg157
VShemot Rabbah 22:1
p2009
sg159
(lp2010
sg161
g115
sg162
Nsg163
(lp2011
I22
aI1
asg165
Nsg166
g2009
sg167
(lp2012
sg169
g57
sg170
Nsg171
Nsg172
Nsbag3
(g4
g5
NtRp2013
(dp2014
g8
g10
sg150
Nsg151
(dp2015
sg153
Nsg25
g27
sg154
(lp2016
I22
aI2
asg156
Nsg157
VShemot Rabbah 22:2
p2017
sg159
(lp2018
sg161
g115
sg162
Nsg163
(lp2019
I22
aI2
asg165
Nsg166
g2017
sg167
(lp2020
sg169
g57
sg170
Nsg171
Nsg172
Nsbag3
(g4
g5
NtRp2021
(dp2022
g8
g10
sg150
Nsg151
(dp2023
sg153
Nsg25
g27
sg154
(lp2024
I22
aI3
asg156
Nsg157
VShemot Rabbah 22:3
p2025
sg159
(lp2026
sg161
g115
sg162
Nsg163
(lp2027
I22
aI3
asg165
Nsg166
g2025
sg167
(lp2028
sg169
g57
sg170
Nsg171
Nsg172
Nsbag3
(g4
g5
NtRp2029
(dp2030
g8
g10
sg150
Nsg151
(dp2031
sg153
Nsg25
g27
sg154
(lp2032
I23
aI1
asg156
Nsg157
VShemot Rabbah 23:1
p2033
sg159
(lp2034
sg161
g115
sg162
Nsg163
(lp2035
I23
aI1
asg165
Nsg166
g2033
sg167
(lp2036
sg169
g57
sg170
Nsg171
Nsg172
Nsbag3
(g4
g5
NtRp2037
(dp2038
g8
g10
sg150
Nsg151
(dp2039
sg153
Nsg25
g27
sg154
(lp2040
I23
aI2
asg156
Nsg157
VShemot Rabbah 23:2
p2041
sg159
(lp2042
sg161
g115
sg162
Nsg163
(lp2043
I23
aI2
asg165
Nsg166
g2041
sg167
(lp2044
sg169
g57
sg170
Nsg171
Nsg172
Nsbag3
(g4
g5
NtRp2045
(dp2046
g8
g10
sg150
Nsg151
(dp2047
sg153
Nsg25
g27
sg154
(lp2048
I23
aI3
asg156
Nsg157
VShemot Rabbah 23:3
p2049
sg159
(lp2050
sg161
g115
sg162
Nsg163
(lp2051
I23
aI3
asg165
Nsg166
g2049
sg167
(lp2052
sg169
g57
sg170
Nsg171
Nsg172
Nsbag3
(g4
g5
NtRp2053
(dp2054
g8
g10
sg150
Nsg151
(dp2055
sg153
Nsg25
g27
sg154
(lp2056
I23
aI4
asg156
Nsg157
VShemot Rabbah 23:4
p2057
sg159
(lp2058
sg161
g115
sg162
Nsg163
(lp2059
I23
aI4
asg165
Nsg166
g2057
sg167
(lp2060
sg169
g57
sg170
Nsg171
Nsg172
Nsbag3
(g4
g5
NtRp2061
(dp2062
g8
g10
sg150
Nsg151
(dp2063
sg153
Nsg25
g27
sg154
(lp2064
I23
aI5
asg156
Nsg157
VShemot Rabbah 23:5
p2065
sg159
(lp2066
sg161
g115
sg162
Nsg163
(lp2067
I23
aI5
asg165
Nsg166
g2065
sg167
(lp2068
sg169
g57
sg170
Nsg171
Nsg172
Nsbag3
(g4
g5
NtRp2069
(dp2070
g8
g10
sg150
Nsg151
(dp2071
sg153
Nsg25
g27
sg154
(lp2072
I23
aI6
asg156
Nsg157
VShemot Rabbah 23:6
p2073
sg159
(lp2074
sg161
g115
sg162
Nsg163
(lp2075
I23
aI6
asg165
Nsg166
g2073
sg167
(lp2076
sg169
g57
sg170
Nsg171
Nsg172
Nsbag3
(g4
g5
NtRp2077
(dp2078
g8
g10
sg150
Nsg151
(dp2079
sg153
Nsg25
g27
sg154
(lp2080
I23
aI7
asg156
Nsg157
VShemot Rabbah 23:7
p2081
sg159
(lp2082
sg161
g115
sg162
Nsg163
(lp2083
I23
aI7
asg165
Nsg166
g2081
sg167
(lp2084
sg169
g57
sg170
Nsg171
Nsg172
Nsbag3
(g4
g5
NtRp2085
(dp2086
g8
g10
sg150
Nsg151
(dp2087
sg153
Nsg25
g27
sg154
(lp2088
I23
aI8
asg156
Nsg157
VShemot Rabbah 23:8
p2089
sg159
(lp2090
sg161
g115
sg162
Nsg163
(lp2091
I23
aI8
asg165
Nsg166
g2089
sg167
(lp2092
sg169
g57
sg170
Nsg171
Nsg172
Nsbag3
(g4
g5
NtRp2093
(dp2094
g8
g10
sg150
Nsg151
(dp2095
sg153
Nsg25
g27
sg154
(lp2096
I23
aI9
asg156
Nsg157
VShemot Rabbah 23:9
p2097
sg159
(lp2098
sg161
g115
sg162
Nsg163
(lp2099
I23
aI9
asg165
Nsg166
g2097
sg167
(lp2100
sg169
g57
sg170
Nsg171
Nsg172
Nsbag3
(g4
g5
NtRp2101
(dp2102
g8
g10
sg150
Nsg151
(dp2103
sg153
Nsg25
g27
sg154
(lp2104
I23
aI10
asg156
Nsg157
VShemot Rabbah 23:10
p2105
sg159
(lp2106
sg161
g115
sg162
Nsg163
(lp2107
I23
aI10
asg165
Nsg166
g2105
sg167
(lp2108
sg169
g57
sg170
Nsg171
Nsg172
Nsbag3
(g4
g5
NtRp2109
(dp2110
g8
g10
sg150
Nsg151
(dp2111
sg153
Nsg25
g27
sg154
(lp2112
I23
aI11
asg156
Nsg157
VShemot Rabbah 23:11
p2113
sg159
(lp2114
sg161
g115
sg162
Nsg163
(lp2115
I23
aI11
asg165
Nsg166
g2113
sg167
(lp2116
sg169
g57
sg170
Nsg171
Nsg172
Nsbag3
(g4
g5
NtRp2117
(dp2118
g8
g10
sg150
Nsg151
(dp2119
sg153
Nsg25
g27
sg154
(lp2120
I23
aI12
asg156
Nsg157
VShemot Rabbah 23:12
p2121
sg159
(lp2122
sg161
g115
sg162
Nsg163
(lp2123
I23
aI12
asg165
Nsg166
g2121
sg167
(lp2124
sg169
g57
sg170
Nsg171
Nsg172
Nsbag3
(g4
g5
NtRp2125
(dp2126
g8
g10
sg150
Nsg151
(dp2127
sg153
Nsg25
g27
sg154
(lp2128
I23
aI13
asg156
Nsg157
VShemot Rabbah 23:13
p2129
sg159
(lp2130
sg161
g115
sg162
Nsg163
(lp2131
I23
aI13
asg165
Nsg166
g2129
sg167
(lp2132
sg169
g57
sg170
Nsg171
Nsg172
Nsbag3
(g4
g5
NtRp2133
(dp2134
g8
g10
sg150
Nsg151
(dp2135
sg153
Nsg25
g27
sg154
(lp2136
I23
aI14
asg156
Nsg157
VShemot Rabbah 23:14
p2137
sg159
(lp2138
sg161
g115
sg162
Nsg163
(lp2139
I23
aI14
asg165
Nsg166
g2137
sg167
(lp2140
sg169
g57
sg170
Nsg171
Nsg172
Nsbag3
(g4
g5
NtRp2141
(dp2142
g8
g10
sg150
Nsg151
(dp2143
sg153
Nsg25
g27
sg154
(lp2144
I24
aI1
asg156
Nsg157
VShemot Rabbah 24:1
p2145
sg159
(lp2146
sg161
g115
sg162
Nsg163
(lp2147
I24
aI1
asg165
Nsg166
g2145
sg167
(lp2148
sg169
g57
sg170
Nsg171
Nsg172
Nsbag3
(g4
g5
NtRp2149
(dp2150
g8
g10
sg150
Nsg151
(dp2151
sg153
Nsg25
g27
sg154
(lp2152
I24
aI2
asg156
Nsg157
VShemot Rabbah 24:2
p2153
sg159
(lp2154
sg161
g115
sg162
Nsg163
(lp2155
I24
aI2
asg165
Nsg166
g2153
sg167
(lp2156
sg169
g57
sg170
Nsg171
Nsg172
Nsbag3
(g4
g5
NtRp2157
(dp2158
g8
g10
sg150
Nsg151
(dp2159
sg153
Nsg25
g27
sg154
(lp2160
I24
aI3
asg156
Nsg157
VShemot Rabbah 24:3
p2161
sg159
(lp2162
sg161
g115
sg162
Nsg163
(lp2163
I24
aI3
asg165
Nsg166
g2161
sg167
(lp2164
sg169
g57
sg170
Nsg171
Nsg172
Nsbag3
(g4
g5
NtRp2165
(dp2166
g8
g10
sg150
Nsg151
(dp2167
sg153
Nsg25
g27
sg154
(lp2168
I24
aI4
asg156
Nsg157
VShemot Rabbah 24:4
p2169
sg159
(lp2170
sg161
g115
sg162
Nsg163
(lp2171
I24
aI4
asg165
Nsg166
g2169
sg167
(lp2172
sg169
g57
sg170
Nsg171
Nsg172
Nsbag3
(g4
g5
NtRp2173
(dp2174
g8
g10
sg150
Nsg151
(dp2175
sg153
Nsg25
g27
sg154
(lp2176
I25
aI1
asg156
Nsg157
VShemot Rabbah 25:1
p2177
sg159
(lp2178
sg161
g115
sg162
Nsg163
(lp2179
I25
aI1
asg165
Nsg166
g2177
sg167
(lp2180
sg169
g57
sg170
Nsg171
Nsg172
Nsbag3
(g4
g5
NtRp2181
(dp2182
g8
g10
sg150
Nsg151
(dp2183
sg153
Nsg25
g27
sg154
(lp2184
I25
aI2
asg156
Nsg157
VShemot Rabbah 25:2
p2185
sg159
(lp2186
sg161
g115
sg162
Nsg163
(lp2187
I25
aI2
asg165
Nsg166
g2185
sg167
(lp2188
sg169
g57
sg170
Nsg171
Nsg172
Nsbag3
(g4
g5
NtRp2189
(dp2190
g8
g10
sg150
Nsg151
(dp2191
sg153
Nsg25
g27
sg154
(lp2192
I25
aI3
asg156
Nsg157
VShemot Rabbah 25:3
p2193
sg159
(lp2194
sg161
g115
sg162
Nsg163
(lp2195
I25
aI3
asg165
Nsg166
g2193
sg167
(lp2196
sg169
g57
sg170
Nsg171
Nsg172
Nsbag3
(g4
g5
NtRp2197
(dp2198
g8
g10
sg150
Nsg151
(dp2199
sg153
Nsg25
g27
sg154
(lp2200
I25
aI4
asg156
Nsg157
VShemot Rabbah 25:4
p2201
sg159
(lp2202
sg161
g115
sg162
Nsg163
(lp2203
I25
aI4
asg165
Nsg166
g2201
sg167
(lp2204
sg169
g57
sg170
Nsg171
Nsg172
Nsbag3
(g4
g5
NtRp2205
(dp2206
g8
g10
sg150
Nsg151
(dp2207
sg153
Nsg25
g27
sg154
(lp2208
I25
aI5
asg156
Nsg157
VShemot Rabbah 25:5
p2209
sg159
(lp2210
sg161
g115
sg162
Nsg163
(lp2211
I25
aI5
asg165
Nsg166
g2209
sg167
(lp2212
sg169
g57
sg170
Nsg171
Nsg172
Nsbag3
(g4
g5
NtRp2213
(dp2214
g8
g10
sg150
Nsg151
(dp2215
sg153
Nsg25
g27
sg154
(lp2216
I25
aI6
asg156
Nsg157
VShemot Rabbah 25:6
p2217
sg159
(lp2218
sg161
g115
sg162
Nsg163
(lp2219
I25
aI6
asg165
Nsg166
g2217
sg167
(lp2220
sg169
g57
sg170
Nsg171
Nsg172
Nsbag3
(g4
g5
NtRp2221
(dp2222
g8
g10
sg150
Nsg151
(dp2223
sg153
Nsg25
g27
sg154
(lp2224
I25
aI7
asg156
Nsg157
VShemot Rabbah 25:7
p2225
sg159
(lp2226
sg161
g115
sg162
Nsg163
(lp2227
I25
aI7
asg165
Nsg166
g2225
sg167
(lp2228
sg169
g57
sg170
Nsg171
Nsg172
Nsbag3
(g4
g5
NtRp2229
(dp2230
g8
g10
sg150
Nsg151
(dp2231
sg153
Nsg25
g27
sg154
(lp2232
I25
aI8
asg156
Nsg157
VShemot Rabbah 25:8
p2233
sg159
(lp2234
sg161
g115
sg162
Nsg163
(lp2235
I25
aI8
asg165
Nsg166
g2233
sg167
(lp2236
sg169
g57
sg170
Nsg171
Nsg172
Nsbag3
(g4
g5
NtRp2237
(dp2238
g8
g10
sg150
Nsg151
(dp2239
sg153
Nsg25
g27
sg154
(lp2240
I25
aI9
asg156
Nsg157
VShemot Rabbah 25:9
p2241
sg159
(lp2242
sg161
g115
sg162
Nsg163
(lp2243
I25
aI9
asg165
Nsg166
g2241
sg167
(lp2244
sg169
g57
sg170
Nsg171
Nsg172
Nsbag3
(g4
g5
NtRp2245
(dp2246
g8
g10
sg150
Nsg151
(dp2247
sg153
Nsg25
g27
sg154
(lp2248
I25
aI10
asg156
Nsg157
VShemot Rabbah 25:10
p2249
sg159
(lp2250
sg161
g115
sg162
Nsg163
(lp2251
I25
aI10
asg165
Nsg166
g2249
sg167
(lp2252
sg169
g57
sg170
Nsg171
Nsg172
Nsbag3
(g4
g5
NtRp2253
(dp2254
g8
g10
sg150
Nsg151
(dp2255
sg153
Nsg25
g27
sg154
(lp2256
I25
aI11
asg156
Nsg157
VShemot Rabbah 25:11
p2257
sg159
(lp2258
sg161
g115
sg162
Nsg163
(lp2259
I25
aI11
asg165
Nsg166
g2257
sg167
(lp2260
sg169
g57
sg170
Nsg171
Nsg172
Nsbag3
(g4
g5
NtRp2261
(dp2262
g8
g10
sg150
Nsg151
(dp2263
sg153
Nsg25
g27
sg154
(lp2264
I25
aI12
asg156
Nsg157
VShemot Rabbah 25:12
p2265
sg159
(lp2266
sg161
g115
sg162
Nsg163
(lp2267
I25
aI12
asg165
Nsg166
g2265
sg167
(lp2268
sg169
g57
sg170
Nsg171
Nsg172
Nsbag3
(g4
g5
NtRp2269
(dp2270
g8
g10
sg150
Nsg151
(dp2271
sg153
Nsg25
g27
sg154
(lp2272
I26
aI1
asg156
Nsg157
VShemot Rabbah 26:1
p2273
sg159
(lp2274
sg161
g115
sg162
Nsg163
(lp2275
I26
aI1
asg165
Nsg166
g2273
sg167
(lp2276
sg169
g57
sg170
Nsg171
Nsg172
Nsbag3
(g4
g5
NtRp2277
(dp2278
g8
g10
sg150
Nsg151
(dp2279
sg153
Nsg25
g27
sg154
(lp2280
I26
aI2
asg156
Nsg157
VShemot Rabbah 26:2
p2281
sg159
(lp2282
sg161
g115
sg162
Nsg163
(lp2283
I26
aI2
asg165
Nsg166
g2281
sg167
(lp2284
sg169
g57
sg170
Nsg171
Nsg172
Nsbag3
(g4
g5
NtRp2285
(dp2286
g8
g10
sg150
Nsg151
(dp2287
sg153
Nsg25
g27
sg154
(lp2288
I26
aI3
asg156
Nsg157
VShemot Rabbah 26:3
p2289
sg159
(lp2290
sg161
g115
sg162
Nsg163
(lp2291
I26
aI3
asg165
Nsg166
g2289
sg167
(lp2292
sg169
g57
sg170
Nsg171
Nsg172
Nsbag3
(g4
g5
NtRp2293
(dp2294
g8
g10
sg150
Nsg151
(dp2295
sg153
Nsg25
g27
sg154
(lp2296
I27
aI1
asg156
Nsg157
VShemot Rabbah 27:1
p2297
sg159
(lp2298
sg161
g115
sg162
Nsg163
(lp2299
I27
aI1
asg165
Nsg166
g2297
sg167
(lp2300
sg169
g57
sg170
Nsg171
Nsg172
Nsbag3
(g4
g5
NtRp2301
(dp2302
g8
g10
sg150
Nsg151
(dp2303
sg153
Nsg25
g27
sg154
(lp2304
I27
aI2
asg156
Nsg157
VShemot Rabbah 27:2
p2305
sg159
(lp2306
sg161
g115
sg162
Nsg163
(lp2307
I27
aI2
asg165
Nsg166
g2305
sg167
(lp2308
sg169
g57
sg170
Nsg171
Nsg172
Nsbag3
(g4
g5
NtRp2309
(dp2310
g8
g10
sg150
Nsg151
(dp2311
sg153
Nsg25
g27
sg154
(lp2312
I27
aI3
asg156
Nsg157
VShemot Rabbah 27:3
p2313
sg159
(lp2314
sg161
g115
sg162
Nsg163
(lp2315
I27
aI3
asg165
Nsg166
g2313
sg167
(lp2316
sg169
g57
sg170
Nsg171
Nsg172
Nsbag3
(g4
g5
NtRp2317
(dp2318
g8
g10
sg150
Nsg151
(dp2319
sg153
Nsg25
g27
sg154
(lp2320
I27
aI4
asg156
Nsg157
VShemot Rabbah 27:4
p2321
sg159
(lp2322
sg161
g115
sg162
Nsg163
(lp2323
I27
aI4
asg165
Nsg166
g2321
sg167
(lp2324
sg169
g57
sg170
Nsg171
Nsg172
Nsbag3
(g4
g5
NtRp2325
(dp2326
g8
g10
sg150
Nsg151
(dp2327
sg153
Nsg25
g27
sg154
(lp2328
I27
aI5
asg156
Nsg157
VShemot Rabbah 27:5
p2329
sg159
(lp2330
sg161
g115
sg162
Nsg163
(lp2331
I27
aI5
asg165
Nsg166
g2329
sg167
(lp2332
sg169
g57
sg170
Nsg171
Nsg172
Nsbag3
(g4
g5
NtRp2333
(dp2334
g8
g10
sg150
Nsg151
(dp2335
sg153
Nsg25
g27
sg154
(lp2336
I27
aI6
asg156
Nsg157
VShemot Rabbah 27:6
p2337
sg159
(lp2338
sg161
g115
sg162
Nsg163
(lp2339
I27
aI6
asg165
Nsg166
g2337
sg167
(lp2340
sg169
g57
sg170
Nsg171
Nsg172
Nsbag3
(g4
g5
NtRp2341
(dp2342
g8
g10
sg150
Nsg151
(dp2343
sg153
Nsg25
g27
sg154
(lp2344
I27
aI7
asg156
Nsg157
VShemot Rabbah 27:7
p2345
sg159
(lp2346
sg161
g115
sg162
Nsg163
(lp2347
I27
aI7
asg165
Nsg166
g2345
sg167
(lp2348
sg169
g57
sg170
Nsg171
Nsg172
Nsbag3
(g4
g5
NtRp2349
(dp2350
g8
g10
sg150
Nsg151
(dp2351
sg153
Nsg25
g27
sg154
(lp2352
I27
aI8
asg156
Nsg157
VShemot Rabbah 27:8
p2353
sg159
(lp2354
sg161
g115
sg162
Nsg163
(lp2355
I27
aI8
asg165
Nsg166
g2353
sg167
(lp2356
sg169
g57
sg170
Nsg171
Nsg172
Nsbag3
(g4
g5
NtRp2357
(dp2358
g8
g10
sg150
Nsg151
(dp2359
sg153
Nsg25
g27
sg154
(lp2360
I27
aI9
asg156
Nsg157
VShemot Rabbah 27:9
p2361
sg159
(lp2362
sg161
g115
sg162
Nsg163
(lp2363
I27
aI9
asg165
Nsg166
g2361
sg167
(lp2364
sg169
g57
sg170
Nsg171
Nsg172
Nsbag3
(g4
g5
NtRp2365
(dp2366
g8
g10
sg150
Nsg151
(dp2367
sg153
Nsg25
g27
sg154
(lp2368
I28
aI1
asg156
Nsg157
VShemot Rabbah 28:1
p2369
sg159
(lp2370
sg161
g115
sg162
Nsg163
(lp2371
I28
aI1
asg165
Nsg166
g2369
sg167
(lp2372
sg169
g57
sg170
Nsg171
Nsg172
Nsbag3
(g4
g5
NtRp2373
(dp2374
g8
g10
sg150
Nsg151
(dp2375
sg153
Nsg25
g27
sg154
(lp2376
I28
aI2
asg156
Nsg157
VShemot Rabbah 28:2
p2377
sg159
(lp2378
sg161
g115
sg162
Nsg163
(lp2379
I28
aI2
asg165
Nsg166
g2377
sg167
(lp2380
sg169
g57
sg170
Nsg171
Nsg172
Nsbag3
(g4
g5
NtRp2381
(dp2382
g8
g10
sg150
Nsg151
(dp2383
sg153
Nsg25
g27
sg154
(lp2384
I28
aI3
asg156
Nsg157
VShemot Rabbah 28:3
p2385
sg159
(lp2386
sg161
g115
sg162
Nsg163
(lp2387
I28
aI3
asg165
Nsg166
g2385
sg167
(lp2388
sg169
g57
sg170
Nsg171
Nsg172
Nsbag3
(g4
g5
NtRp2389
(dp2390
g8
g10
sg150
Nsg151
(dp2391
sg153
Nsg25
g27
sg154
(lp2392
I28
aI4
asg156
Nsg157
VShemot Rabbah 28:4
p2393
sg159
(lp2394
sg161
g115
sg162
Nsg163
(lp2395
I28
aI4
asg165
Nsg166
g2393
sg167
(lp2396
sg169
g57
sg170
Nsg171
Nsg172
Nsbag3
(g4
g5
NtRp2397
(dp2398
g8
g10
sg150
Nsg151
(dp2399
sg153
Nsg25
g27
sg154
(lp2400
I28
aI5
asg156
Nsg157
VShemot Rabbah 28:5
p2401
sg159
(lp2402
sg161
g115
sg162
Nsg163
(lp2403
I28
aI5
asg165
Nsg166
g2401
sg167
(lp2404
sg169
g57
sg170
Nsg171
Nsg172
Nsbag3
(g4
g5
NtRp2405
(dp2406
g8
g10
sg150
Nsg151
(dp2407
sg153
Nsg25
g27
sg154
(lp2408
I28
aI6
asg156
Nsg157
VShemot Rabbah 28:6
p2409
sg159
(lp2410
sg161
g115
sg162
Nsg163
(lp2411
I28
aI6
asg165
Nsg166
g2409
sg167
(lp2412
sg169
g57
sg170
Nsg171
Nsg172
Nsbag3
(g4
g5
NtRp2413
(dp2414
g8
g10
sg150
Nsg151
(dp2415
sg153
Nsg25
g27
sg154
(lp2416
I29
aI1
asg156
Nsg157
VShemot Rabbah 29:1
p2417
sg159
(lp2418
sg161
g115
sg162
Nsg163
(lp2419
I29
aI1
asg165
Nsg166
g2417
sg167
(lp2420
sg169
g57
sg170
Nsg171
Nsg172
Nsbag3
(g4
g5
NtRp2421
(dp2422
g8
g10
sg150
Nsg151
(dp2423
sg153
Nsg25
g27
sg154
(lp2424
I29
aI2
asg156
Nsg157
VShemot Rabbah 29:2
p2425
sg159
(lp2426
sg161
g115
sg162
Nsg163
(lp2427
I29
aI2
asg165
Nsg166
g2425
sg167
(lp2428
sg169
g57
sg170
Nsg171
Nsg172
Nsbag3
(g4
g5
NtRp2429
(dp2430
g8
g10
sg150
Nsg151
(dp2431
sg153
Nsg25
g27
sg154
(lp2432
I29
aI3
asg156
Nsg157
VShemot Rabbah 29:3
p2433
sg159
(lp2434
sg161
g115
sg162
Nsg163
(lp2435
I29
aI3
asg165
Nsg166
g2433
sg167
(lp2436
sg169
g57
sg170
Nsg171
Nsg172
Nsbag3
(g4
g5
NtRp2437
(dp2438
g8
g10
sg150
Nsg151
(dp2439
sg153
Nsg25
g27
sg154
(lp2440
I29
aI4
asg156
Nsg157
VShemot Rabbah 29:4
p2441
sg159
(lp2442
sg161
g115
sg162
Nsg163
(lp2443
I29
aI4
asg165
Nsg166
g2441
sg167
(lp2444
sg169
g57
sg170
Nsg171
Nsg172
Nsbag3
(g4
g5
NtRp2445
(dp2446
g8
g10
sg150
Nsg151
(dp2447
sg153
Nsg25
g27
sg154
(lp2448
I29
aI5
asg156
Nsg157
VShemot Rabbah 29:5
p2449
sg159
(lp2450
sg161
g115
sg162
Nsg163
(lp2451
I29
aI5
asg165
Nsg166
g2449
sg167
(lp2452
sg169
g57
sg170
Nsg171
Nsg172
Nsbag3
(g4
g5
NtRp2453
(dp2454
g8
g10
sg150
Nsg151
(dp2455
sg153
Nsg25
g27
sg154
(lp2456
I29
aI6
asg156
Nsg157
VShemot Rabbah 29:6
p2457
sg159
(lp2458
sg161
g115
sg162
Nsg163
(lp2459
I29
aI6
asg165
Nsg166
g2457
sg167
(lp2460
sg169
g57
sg170
Nsg171
Nsg172
Nsbag3
(g4
g5
NtRp2461
(dp2462
g8
g10
sg150
Nsg151
(dp2463
sg153
Nsg25
g27
sg154
(lp2464
I29
aI7
asg156
Nsg157
VShemot Rabbah 29:7
p2465
sg159
(lp2466
sg161
g115
sg162
Nsg163
(lp2467
I29
aI7
asg165
Nsg166
g2465
sg167
(lp2468
sg169
g57
sg170
Nsg171
Nsg172
Nsbag3
(g4
g5
NtRp2469
(dp2470
g8
g10
sg150
Nsg151
(dp2471
sg153
Nsg25
g27
sg154
(lp2472
I29
aI8
asg156
Nsg157
VShemot Rabbah 29:8
p2473
sg159
(lp2474
sg161
g115
sg162
Nsg163
(lp2475
I29
aI8
asg165
Nsg166
g2473
sg167
(lp2476
sg169
g57
sg170
Nsg171
Nsg172
Nsbag3
(g4
g5
NtRp2477
(dp2478
g8
g10
sg150
Nsg151
(dp2479
sg153
Nsg25
g27
sg154
(lp2480
I29
aI9
asg156
Nsg157
VShemot Rabbah 29:9
p2481
sg159
(lp2482
sg161
g115
sg162
Nsg163
(lp2483
I29
aI9
asg165
Nsg166
g2481
sg167
(lp2484
sg169
g57
sg170
Nsg171
Nsg172
Nsbag3
(g4
g5
NtRp2485
(dp2486
g8
g10
sg150
Nsg151
(dp2487
sg153
Nsg25
g27
sg154
(lp2488
I30
aI1
asg156
Nsg157
VShemot Rabbah 30:1
p2489
sg159
(lp2490
sg161
g115
sg162
Nsg163
(lp2491
I30
aI1
asg165
Nsg166
g2489
sg167
(lp2492
sg169
g57
sg170
Nsg171
Nsg172
Nsbag3
(g4
g5
NtRp2493
(dp2494
g8
g10
sg150
Nsg151
(dp2495
sg153
Nsg25
g27
sg154
(lp2496
I30
aI2
asg156
Nsg157
VShemot Rabbah 30:2
p2497
sg159
(lp2498
sg161
g115
sg162
Nsg163
(lp2499
I30
aI2
asg165
Nsg166
g2497
sg167
(lp2500
sg169
g57
sg170
Nsg171
Nsg172
Nsbag3
(g4
g5
NtRp2501
(dp2502
g8
g10
sg150
Nsg151
(dp2503
sg153
Nsg25
g27
sg154
(lp2504
I30
aI3
asg156
Nsg157
VShemot Rabbah 30:3
p2505
sg159
(lp2506
sg161
g115
sg162
Nsg163
(lp2507
I30
aI3
asg165
Nsg166
g2505
sg167
(lp2508
sg169
g57
sg170
Nsg171
Nsg172
Nsbag3
(g4
g5
NtRp2509
(dp2510
g8
g10
sg150
Nsg151
(dp2511
sg153
Nsg25
g27
sg154
(lp2512
I30
aI4
asg156
Nsg157
VShemot Rabbah 30:4
p2513
sg159
(lp2514
sg161
g115
sg162
Nsg163
(lp2515
I30
aI4
asg165
Nsg166
g2513
sg167
(lp2516
sg169
g57
sg170
Nsg171
Nsg172
Nsbag3
(g4
g5
NtRp2517
(dp2518
g8
g10
sg150
Nsg151
(dp2519
sg153
Nsg25
g27
sg154
(lp2520
I30
aI5
asg156
Nsg157
VShemot Rabbah 30:5
p2521
sg159
(lp2522
sg161
g115
sg162
Nsg163
(lp2523
I30
aI5
asg165
Nsg166
g2521
sg167
(lp2524
sg169
g57
sg170
Nsg171
Nsg172
Nsbag3
(g4
g5
NtRp2525
(dp2526
g8
g10
sg150
Nsg151
(dp2527
sg153
Nsg25
g27
sg154
(lp2528
I30
aI6
asg156
Nsg157
VShemot Rabbah 30:6
p2529
sg159
(lp2530
sg161
g115
sg162
Nsg163
(lp2531
I30
aI6
asg165
Nsg166
g2529
sg167
(lp2532
sg169
g57
sg170
Nsg171
Nsg172
Nsbag3
(g4
g5
NtRp2533
(dp2534
g8
g10
sg150
Nsg151
(dp2535
sg153
Nsg25
g27
sg154
(lp2536
I30
aI7
asg156
Nsg157
VShemot Rabbah 30:7
p2537
sg159
(lp2538
sg161
g115
sg162
Nsg163
(lp2539
I30
aI7
asg165
Nsg166
g2537
sg167
(lp2540
sg169
g57
sg170
Nsg171
Nsg172
Nsbag3
(g4
g5
NtRp2541
(dp2542
g8
g10
sg150
Nsg151
(dp2543
sg153
Nsg25
g27
sg154
(lp2544
I30
aI8
asg156
Nsg157
VShemot Rabbah 30:8
p2545
sg159
(lp2546
sg161
g115
sg162
Nsg163
(lp2547
I30
aI8
asg165
Nsg166
g2545
sg167
(lp2548
sg169
g57
sg170
Nsg171
Nsg172
Nsbag3
(g4
g5
NtRp2549
(dp2550
g8
g10
sg150
Nsg151
(dp2551
sg153
Nsg25
g27
sg154
(lp2552
I30
aI9
asg156
Nsg157
VShemot Rabbah 30:9
p2553
sg159
(lp2554
sg161
g115
sg162
Nsg163
(lp2555
I30
aI9
asg165
Nsg166
g2553
sg167
(lp2556
sg169
g57
sg170
Nsg171
Nsg172
Nsbag3
(g4
g5
NtRp2557
(dp2558
g8
g10
sg150
Nsg151
(dp2559
sg153
Nsg25
g27
sg154
(lp2560
I30
aI10
asg156
Nsg157
VShemot Rabbah 30:10
p2561
sg159
(lp2562
sg161
g115
sg162
Nsg163
(lp2563
I30
aI10
asg165
Nsg166
g2561
sg167
(lp2564
sg169
g57
sg170
Nsg171
Nsg172
Nsbag3
(g4
g5
NtRp2565
(dp2566
g8
g10
sg150
Nsg151
(dp2567
sg153
Nsg25
g27
sg154
(lp2568
I30
aI11
asg156
Nsg157
VShemot Rabbah 30:11
p2569
sg159
(lp2570
sg161
g115
sg162
Nsg163
(lp2571
I30
aI11
asg165
Nsg166
g2569
sg167
(lp2572
sg169
g57
sg170
Nsg171
Nsg172
Nsbag3
(g4
g5
NtRp2573
(dp2574
g8
g10
sg150
Nsg151
(dp2575
sg153
Nsg25
g27
sg154
(lp2576
I30
aI12
asg156
Nsg157
VShemot Rabbah 30:12
p2577
sg159
(lp2578
sg161
g115
sg162
Nsg163
(lp2579
I30
aI12
asg165
Nsg166
g2577
sg167
(lp2580
sg169
g57
sg170
Nsg171
Nsg172
Nsbag3
(g4
g5
NtRp2581
(dp2582
g8
g10
sg150
Nsg151
(dp2583
sg153
Nsg25
g27
sg154
(lp2584
I30
aI13
asg156
Nsg157
VShemot Rabbah 30:13
p2585
sg159
(lp2586
sg161
g115
sg162
Nsg163
(lp2587
I30
aI13
asg165
Nsg166
g2585
sg167
(lp2588
sg169
g57
sg170
Nsg171
Nsg172
Nsbag3
(g4
g5
NtRp2589
(dp2590
g8
g10
sg150
Nsg151
(dp2591
sg153
Nsg25
g27
sg154
(lp2592
I30
aI14
asg156
Nsg157
VShemot Rabbah 30:14
p2593
sg159
(lp2594
sg161
g115
sg162
Nsg163
(lp2595
I30
aI14
asg165
Nsg166
g2593
sg167
(lp2596
sg169
g57
sg170
Nsg171
Nsg172
Nsbag3
(g4
g5
NtRp2597
(dp2598
g8
g10
sg150
Nsg151
(dp2599
sg153
Nsg25
g27
sg154
(lp2600
I30
aI15
asg156
Nsg157
VShemot Rabbah 30:15
p2601
sg159
(lp2602
sg161
g115
sg162
Nsg163
(lp2603
I30
aI15
asg165
Nsg166
g2601
sg167
(lp2604
sg169
g57
sg170
Nsg171
Nsg172
Nsbag3
(g4
g5
NtRp2605
(dp2606
g8
g10
sg150
Nsg151
(dp2607
sg153
Nsg25
g27
sg154
(lp2608
I30
aI16
asg156
Nsg157
VShemot Rabbah 30:16
p2609
sg159
(lp2610
sg161
g115
sg162
Nsg163
(lp2611
I30
aI16
asg165
Nsg166
g2609
sg167
(lp2612
sg169
g57
sg170
Nsg171
Nsg172
Nsbag3
(g4
g5
NtRp2613
(dp2614
g8
g10
sg150
Nsg151
(dp2615
sg153
Nsg25
g27
sg154
(lp2616
I30
aI17
asg156
Nsg157
VShemot Rabbah 30:17
p2617
sg159
(lp2618
sg161
g115
sg162
Nsg163
(lp2619
I30
aI17
asg165
Nsg166
g2617
sg167
(lp2620
sg169
g57
sg170
Nsg171
Nsg172
Nsbag3
(g4
g5
NtRp2621
(dp2622
g8
g10
sg150
Nsg151
(dp2623
sg153
Nsg25
g27
sg154
(lp2624
I30
aI18
asg156
Nsg157
VShemot Rabbah 30:18
p2625
sg159
(lp2626
sg161
g115
sg162
Nsg163
(lp2627
I30
aI18
asg165
Nsg166
g2625
sg167
(lp2628
sg169
g57
sg170
Nsg171
Nsg172
Nsbag3
(g4
g5
NtRp2629
(dp2630
g8
g10
sg150
Nsg151
(dp2631
sg153
Nsg25
g27
sg154
(lp2632
I30
aI19
asg156
Nsg157
VShemot Rabbah 30:19
p2633
sg159
(lp2634
sg161
g115
sg162
Nsg163
(lp2635
I30
aI19
asg165
Nsg166
g2633
sg167
(lp2636
sg169
g57
sg170
Nsg171
Nsg172
Nsbag3
(g4
g5
NtRp2637
(dp2638
g8
g10
sg150
Nsg151
(dp2639
sg153
Nsg25
g27
sg154
(lp2640
I30
aI20
asg156
Nsg157
VShemot Rabbah 30:20
p2641
sg159
(lp2642
sg161
g115
sg162
Nsg163
(lp2643
I30
aI20
asg165
Nsg166
g2641
sg167
(lp2644
sg169
g57
sg170
Nsg171
Nsg172
Nsbag3
(g4
g5
NtRp2645
(dp2646
g8
g10
sg150
Nsg151
(dp2647
sg153
Nsg25
g27
sg154
(lp2648
I30
aI21
asg156
Nsg157
VShemot Rabbah 30:21
p2649
sg159
(lp2650
sg161
g115
sg162
Nsg163
(lp2651
I30
aI21
asg165
Nsg166
g2649
sg167
(lp2652
sg169
g57
sg170
Nsg171
Nsg172
Nsbag3
(g4
g5
NtRp2653
(dp2654
g8
g10
sg150
Nsg151
(dp2655
sg153
Nsg25
g27
sg154
(lp2656
I30
aI22
asg156
Nsg157
VShemot Rabbah 30:22
p2657
sg159
(lp2658
sg161
g115
sg162
Nsg163
(lp2659
I30
aI22
asg165
Nsg166
g2657
sg167
(lp2660
sg169
g57
sg170
Nsg171
Nsg172
Nsbag3
(g4
g5
NtRp2661
(dp2662
g8
g10
sg150
Nsg151
(dp2663
sg153
Nsg25
g27
sg154
(lp2664
I30
aI23
asg156
Nsg157
VShemot Rabbah 30:23
p2665
sg159
(lp2666
sg161
g115
sg162
Nsg163
(lp2667
I30
aI23
asg165
Nsg166
g2665
sg167
(lp2668
sg169
g57
sg170
Nsg171
Nsg172
Nsbag3
(g4
g5
NtRp2669
(dp2670
g8
g10
sg150
Nsg151
(dp2671
sg153
Nsg25
g27
sg154
(lp2672
I30
aI24
asg156
Nsg157
VShemot Rabbah 30:24
p2673
sg159
(lp2674
sg161
g115
sg162
Nsg163
(lp2675
I30
aI24
asg165
Nsg166
g2673
sg167
(lp2676
sg169
g57
sg170
Nsg171
Nsg172
Nsbag3
(g4
g5
NtRp2677
(dp2678
g8
g10
sg150
Nsg151
(dp2679
sg153
Nsg25
g27
sg154
(lp2680
I31
aI1
asg156
Nsg157
VShemot Rabbah 31:1
p2681
sg159
(lp2682
sg161
g115
sg162
Nsg163
(lp2683
I31
aI1
asg165
Nsg166
g2681
sg167
(lp2684
sg169
g57
sg170
Nsg171
Nsg172
Nsbag3
(g4
g5
NtRp2685
(dp2686
g8
g10
sg150
Nsg151
(dp2687
sg153
Nsg25
g27
sg154
(lp2688
I31
aI2
asg156
Nsg157
VShemot Rabbah 31:2
p2689
sg159
(lp2690
sg161
g115
sg162
Nsg163
(lp2691
I31
aI2
asg165
Nsg166
g2689
sg167
(lp2692
sg169
g57
sg170
Nsg171
Nsg172
Nsbag3
(g4
g5
NtRp2693
(dp2694
g8
g10
sg150
Nsg151
(dp2695
sg153
Nsg25
g27
sg154
(lp2696
I31
aI3
asg156
Nsg157
VShemot Rabbah 31:3
p2697
sg159
(lp2698
sg161
g115
sg162
Nsg163
(lp2699
I31
aI3
asg165
Nsg166
g2697
sg167
(lp2700
sg169
g57
sg170
Nsg171
Nsg172
Nsbag3
(g4
g5
NtRp2701
(dp2702
g8
g10
sg150
Nsg151
(dp2703
sg153
Nsg25
g27
sg154
(lp2704
I31
aI4
asg156
Nsg157
VShemot Rabbah 31:4
p2705
sg159
(lp2706
sg161
g115
sg162
Nsg163
(lp2707
I31
aI4
asg165
Nsg166
g2705
sg167
(lp2708
sg169
g57
sg170
Nsg171
Nsg172
Nsbag3
(g4
g5
NtRp2709
(dp2710
g8
g10
sg150
Nsg151
(dp2711
sg153
Nsg25
g27
sg154
(lp2712
I31
aI5
asg156
Nsg157
VShemot Rabbah 31:5
p2713
sg159
(lp2714
sg161
g115
sg162
Nsg163
(lp2715
I31
aI5
asg165
Nsg166
g2713
sg167
(lp2716
sg169
g57
sg170
Nsg171
Nsg172
Nsbag3
(g4
g5
NtRp2717
(dp2718
g8
g10
sg150
Nsg151
(dp2719
sg153
Nsg25
g27
sg154
(lp2720
I31
aI6
asg156
Nsg157
VShemot Rabbah 31:6
p2721
sg159
(lp2722
sg161
g115
sg162
Nsg163
(lp2723
I31
aI6
asg165
Nsg166
g2721
sg167
(lp2724
sg169
g57
sg170
Nsg171
Nsg172
Nsbag3
(g4
g5
NtRp2725
(dp2726
g8
g10
sg150
Nsg151
(dp2727
sg153
Nsg25
g27
sg154
(lp2728
I31
aI7
asg156
Nsg157
VShemot Rabbah 31:7
p2729
sg159
(lp2730
sg161
g115
sg162
Nsg163
(lp2731
I31
aI7
asg165
Nsg166
g2729
sg167
(lp2732
sg169
g57
sg170
Nsg171
Nsg172
Nsbag3
(g4
g5
NtRp2733
(dp2734
g8
g10
sg150
Nsg151
(dp2735
sg153
Nsg25
g27
sg154
(lp2736
I31
aI8
asg156
Nsg157
VShemot Rabbah 31:8
p2737
sg159
(lp2738
sg161
g115
sg162
Nsg163
(lp2739
I31
aI8
asg165
Nsg166
g2737
sg167
(lp2740
sg169
g57
sg170
Nsg171
Nsg172
Nsbag3
(g4
g5
NtRp2741
(dp2742
g8
g10
sg150
Nsg151
(dp2743
sg153
Nsg25
g27
sg154
(lp2744
I31
aI9
asg156
Nsg157
VShemot Rabbah 31:9
p2745
sg159
(lp2746
sg161
g115
sg162
Nsg163
(lp2747
I31
aI9
asg165
Nsg166
g2745
sg167
(lp2748
sg169
g57
sg170
Nsg171
Nsg172
Nsbag3
(g4
g5
NtRp2749
(dp2750
g8
g10
sg150
Nsg151
(dp2751
sg153
Nsg25
g27
sg154
(lp2752
I31
aI10
asg156
Nsg157
VShemot Rabbah 31:10
p2753
sg159
(lp2754
sg161
g115
sg162
Nsg163
(lp2755
I31
aI10
asg165
Nsg166
g2753
sg167
(lp2756
sg169
g57
sg170
Nsg171
Nsg172
Nsbag3
(g4
g5
NtRp2757
(dp2758
g8
g10
sg150
Nsg151
(dp2759
sg153
Nsg25
g27
sg154
(lp2760
I31
aI11
asg156
Nsg157
VShemot Rabbah 31:11
p2761
sg159
(lp2762
sg161
g115
sg162
Nsg163
(lp2763
I31
aI11
asg165
Nsg166
g2761
sg167
(lp2764
sg169
g57
sg170
Nsg171
Nsg172
Nsbag3
(g4
g5
NtRp2765
(dp2766
g8
g10
sg150
Nsg151
(dp2767
sg153
Nsg25
g27
sg154
(lp2768
I31
aI12
asg156
Nsg157
VShemot Rabbah 31:12
p2769
sg159
(lp2770
sg161
g115
sg162
Nsg163
(lp2771
I31
aI12
asg165
Nsg166
g2769
sg167
(lp2772
sg169
g57
sg170
Nsg171
Nsg172
Nsbag3
(g4
g5
NtRp2773
(dp2774
g8
g10
sg150
Nsg151
(dp2775
sg153
Nsg25
g27
sg154
(lp2776
I31
aI13
asg156
Nsg157
VShemot Rabbah 31:13
p2777
sg159
(lp2778
sg161
g115
sg162
Nsg163
(lp2779
I31
aI13
asg165
Nsg166
g2777
sg167
(lp2780
sg169
g57
sg170
Nsg171
Nsg172
Nsbag3
(g4
g5
NtRp2781
(dp2782
g8
g10
sg150
Nsg151
(dp2783
sg153
Nsg25
g27
sg154
(lp2784
I31
aI14
asg156
Nsg157
VShemot Rabbah 31:14
p2785
sg159
(lp2786
sg161
g115
sg162
Nsg163
(lp2787
I31
aI14
asg165
Nsg166
g2785
sg167
(lp2788
sg169
g57
sg170
Nsg171
Nsg172
Nsbag3
(g4
g5
NtRp2789
(dp2790
g8
g10
sg150
Nsg151
(dp2791
sg153
Nsg25
g27
sg154
(lp2792
I31
aI15
asg156
Nsg157
VShemot Rabbah 31:15
p2793
sg159
(lp2794
sg161
g115
sg162
Nsg163
(lp2795
I31
aI15
asg165
Nsg166
g2793
sg167
(lp2796
sg169
g57
sg170
Nsg171
Nsg172
Nsbag3
(g4
g5
NtRp2797
(dp2798
g8
g10
sg150
Nsg151
(dp2799
sg153
Nsg25
g27
sg154
(lp2800
I31
aI16
asg156
Nsg157
VShemot Rabbah 31:16
p2801
sg159
(lp2802
sg161
g115
sg162
Nsg163
(lp2803
I31
aI16
asg165
Nsg166
g2801
sg167
(lp2804
sg169
g57
sg170
Nsg171
Nsg172
Nsbag3
(g4
g5
NtRp2805
(dp2806
g8
g10
sg150
Nsg151
(dp2807
sg153
Nsg25
g27
sg154
(lp2808
I31
aI17
asg156
Nsg157
VShemot Rabbah 31:17
p2809
sg159
(lp2810
sg161
g115
sg162
Nsg163
(lp2811
I31
aI17
asg165
Nsg166
g2809
sg167
(lp2812
sg169
g57
sg170
Nsg171
Nsg172
Nsbag3
(g4
g5
NtRp2813
(dp2814
g8
g10
sg150
Nsg151
(dp2815
sg153
Nsg25
g27
sg154
(lp2816
I32
aI1
asg156
Nsg157
VShemot Rabbah 32:1
p2817
sg159
(lp2818
sg161
g115
sg162
Nsg163
(lp2819
I32
aI1
asg165
Nsg166
g2817
sg167
(lp2820
sg169
g57
sg170
Nsg171
Nsg172
Nsbag3
(g4
g5
NtRp2821
(dp2822
g8
g10
sg150
Nsg151
(dp2823
sg153
Nsg25
g27
sg154
(lp2824
I32
aI2
asg156
Nsg157
VShemot Rabbah 32:2
p2825
sg159
(lp2826
sg161
g115
sg162
Nsg163
(lp2827
I32
aI2
asg165
Nsg166
g2825
sg167
(lp2828
sg169
g57
sg170
Nsg171
Nsg172
Nsbag3
(g4
g5
NtRp2829
(dp2830
g8
g10
sg150
Nsg151
(dp2831
sg153
Nsg25
g27
sg154
(lp2832
I32
aI3
asg156
Nsg157
VShemot Rabbah 32:3
p2833
sg159
(lp2834
sg161
g115
sg162
Nsg163
(lp2835
I32
aI3
asg165
Nsg166
g2833
sg167
(lp2836
sg169
g57
sg170
Nsg171
Nsg172
Nsbag3
(g4
g5
NtRp2837
(dp2838
g8
g10
sg150
Nsg151
(dp2839
sg153
Nsg25
g27
sg154
(lp2840
I32
aI4
asg156
Nsg157
VShemot Rabbah 32:4
p2841
sg159
(lp2842
sg161
g115
sg162
Nsg163
(lp2843
I32
aI4
asg165
Nsg166
g2841
sg167
(lp2844
sg169
g57
sg170
Nsg171
Nsg172
Nsbag3
(g4
g5
NtRp2845
(dp2846
g8
g10
sg150
Nsg151
(dp2847
sg153
Nsg25
g27
sg154
(lp2848
I32
aI5
asg156
Nsg157
VShemot Rabbah 32:5
p2849
sg159
(lp2850
sg161
g115
sg162
Nsg163
(lp2851
I32
aI5
asg165
Nsg166
g2849
sg167
(lp2852
sg169
g57
sg170
Nsg171
Nsg172
Nsbag3
(g4
g5
NtRp2853
(dp2854
g8
g10
sg150
Nsg151
(dp2855
sg153
Nsg25
g27
sg154
(lp2856
I32
aI6
asg156
Nsg157
VShemot Rabbah 32:6
p2857
sg159
(lp2858
sg161
g115
sg162
Nsg163
(lp2859
I32
aI6
asg165
Nsg166
g2857
sg167
(lp2860
sg169
g57
sg170
Nsg171
Nsg172
Nsbag3
(g4
g5
NtRp2861
(dp2862
g8
g10
sg150
Nsg151
(dp2863
sg153
Nsg25
g27
sg154
(lp2864
I32
aI7
asg156
Nsg157
VShemot Rabbah 32:7
p2865
sg159
(lp2866
sg161
g115
sg162
Nsg163
(lp2867
I32
aI7
asg165
Nsg166
g2865
sg167
(lp2868
sg169
g57
sg170
Nsg171
Nsg172
Nsbag3
(g4
g5
NtRp2869
(dp2870
g8
g10
sg150
Nsg151
(dp2871
sg153
Nsg25
g27
sg154
(lp2872
I32
aI8
asg156
Nsg157
VShemot Rabbah 32:8
p2873
sg159
(lp2874
sg161
g115
sg162
Nsg163
(lp2875
I32
aI8
asg165
Nsg166
g2873
sg167
(lp2876
sg169
g57
sg170
Nsg171
Nsg172
Nsbag3
(g4
g5
NtRp2877
(dp2878
g8
g10
sg150
Nsg151
(dp2879
sg153
Nsg25
g27
sg154
(lp2880
I32
aI9
asg156
Nsg157
VShemot Rabbah 32:9
p2881
sg159
(lp2882
sg161
g115
sg162
Nsg163
(lp2883
I32
aI9
asg165
Nsg166
g2881
sg167
(lp2884
sg169
g57
sg170
Nsg171
Nsg172
Nsbag3
(g4
g5
NtRp2885
(dp2886
g8
g10
sg150
Nsg151
(dp2887
sg153
Nsg25
g27
sg154
(lp2888
I33
aI1
asg156
Nsg157
VShemot Rabbah 33:1
p2889
sg159
(lp2890
sg161
g115
sg162
Nsg163
(lp2891
I33
aI1
asg165
Nsg166
g2889
sg167
(lp2892
sg169
g57
sg170
Nsg171
Nsg172
Nsbag3
(g4
g5
NtRp2893
(dp2894
g8
g10
sg150
Nsg151
(dp2895
sg153
Nsg25
g27
sg154
(lp2896
I33
aI2
asg156
Nsg157
VShemot Rabbah 33:2
p2897
sg159
(lp2898
sg161
g115
sg162
Nsg163
(lp2899
I33
aI2
asg165
Nsg166
g2897
sg167
(lp2900
sg169
g57
sg170
Nsg171
Nsg172
Nsbag3
(g4
g5
NtRp2901
(dp2902
g8
g10
sg150
Nsg151
(dp2903
sg153
Nsg25
g27
sg154
(lp2904
I33
aI3
asg156
Nsg157
VShemot Rabbah 33:3
p2905
sg159
(lp2906
sg161
g115
sg162
Nsg163
(lp2907
I33
aI3
asg165
Nsg166
g2905
sg167
(lp2908
sg169
g57
sg170
Nsg171
Nsg172
Nsbag3
(g4
g5
NtRp2909
(dp2910
g8
g10
sg150
Nsg151
(dp2911
sg153
Nsg25
g27
sg154
(lp2912
I33
aI4
asg156
Nsg157
VShemot Rabbah 33:4
p2913
sg159
(lp2914
sg161
g115
sg162
Nsg163
(lp2915
I33
aI4
asg165
Nsg166
g2913
sg167
(lp2916
sg169
g57
sg170
Nsg171
Nsg172
Nsbag3
(g4
g5
NtRp2917
(dp2918
g8
g10
sg150
Nsg151
(dp2919
sg153
Nsg25
g27
sg154
(lp2920
I33
aI5
asg156
Nsg157
VShemot Rabbah 33:5
p2921
sg159
(lp2922
sg161
g115
sg162
Nsg163
(lp2923
I33
aI5
asg165
Nsg166
g2921
sg167
(lp2924
sg169
g57
sg170
Nsg171
Nsg172
Nsbag3
(g4
g5
NtRp2925
(dp2926
g8
g10
sg150
Nsg151
(dp2927
sg153
Nsg25
g27
sg154
(lp2928
I33
aI6
asg156
Nsg157
VShemot Rabbah 33:6
p2929
sg159
(lp2930
sg161
g115
sg162
Nsg163
(lp2931
I33
aI6
asg165
Nsg166
g2929
sg167
(lp2932
sg169
g57
sg170
Nsg171
Nsg172
Nsbag3
(g4
g5
NtRp2933
(dp2934
g8
g10
sg150
Nsg151
(dp2935
sg153
Nsg25
g27
sg154
(lp2936
I33
aI7
asg156
Nsg157
VShemot Rabbah 33:7
p2937
sg159
(lp2938
sg161
g115
sg162
Nsg163
(lp2939
I33
aI7
asg165
Nsg166
g2937
sg167
(lp2940
sg169
g57
sg170
Nsg171
Nsg172
Nsbag3
(g4
g5
NtRp2941
(dp2942
g8
g10
sg150
Nsg151
(dp2943
sg153
Nsg25
g27
sg154
(lp2944
I33
aI8
asg156
Nsg157
VShemot Rabbah 33:8
p2945
sg159
(lp2946
sg161
g115
sg162
Nsg163
(lp2947
I33
aI8
asg165
Nsg166
g2945
sg167
(lp2948
sg169
g57
sg170
Nsg171
Nsg172
Nsbag3
(g4
g5
NtRp2949
(dp2950
g8
g10
sg150
Nsg151
(dp2951
sg153
Nsg25
g27
sg154
(lp2952
I34
aI1
asg156
Nsg157
VShemot Rabbah 34:1
p2953
sg159
(lp2954
sg161
g115
sg162
Nsg163
(lp2955
I34
aI1
asg165
Nsg166
g2953
sg167
(lp2956
sg169
g57
sg170
Nsg171
Nsg172
Nsbag3
(g4
g5
NtRp2957
(dp2958
g8
g10
sg150
Nsg151
(dp2959
sg153
Nsg25
g27
sg154
(lp2960
I34
aI2
asg156
Nsg157
VShemot Rabbah 34:2
p2961
sg159
(lp2962
sg161
g115
sg162
Nsg163
(lp2963
I34
aI2
asg165
Nsg166
g2961
sg167
(lp2964
sg169
g57
sg170
Nsg171
Nsg172
Nsbag3
(g4
g5
NtRp2965
(dp2966
g8
g10
sg150
Nsg151
(dp2967
sg153
Nsg25
g27
sg154
(lp2968
I34
aI3
asg156
Nsg157
VShemot Rabbah 34:3
p2969
sg159
(lp2970
sg161
g115
sg162
Nsg163
(lp2971
I34
aI3
asg165
Nsg166
g2969
sg167
(lp2972
sg169
g57
sg170
Nsg171
Nsg172
Nsbag3
(g4
g5
NtRp2973
(dp2974
g8
g10
sg150
Nsg151
(dp2975
sg153
Nsg25
g27
sg154
(lp2976
I35
aI1
asg156
Nsg157
VShemot Rabbah 35:1
p2977
sg159
(lp2978
sg161
g115
sg162
Nsg163
(lp2979
I35
aI1
asg165
Nsg166
g2977
sg167
(lp2980
sg169
g57
sg170
Nsg171
Nsg172
Nsbag3
(g4
g5
NtRp2981
(dp2982
g8
g10
sg150
Nsg151
(dp2983
sg153
Nsg25
g27
sg154
(lp2984
I35
aI2
asg156
Nsg157
VShemot Rabbah 35:2
p2985
sg159
(lp2986
sg161
g115
sg162
Nsg163
(lp2987
I35
aI2
asg165
Nsg166
g2985
sg167
(lp2988
sg169
g57
sg170
Nsg171
Nsg172
Nsbag3
(g4
g5
NtRp2989
(dp2990
g8
g10
sg150
Nsg151
(dp2991
sg153
Nsg25
g27
sg154
(lp2992
I35
aI3
asg156
Nsg157
VShemot Rabbah 35:3
p2993
sg159
(lp2994
sg161
g115
sg162
Nsg163
(lp2995
I35
aI3
asg165
Nsg166
g2993
sg167
(lp2996
sg169
g57
sg170
Nsg171
Nsg172
Nsbag3
(g4
g5
NtRp2997
(dp2998
g8
g10
sg150
Nsg151
(dp2999
sg153
Nsg25
g27
sg154
(lp3000
I35
aI4
asg156
Nsg157
VShemot Rabbah 35:4
p3001
sg159
(lp3002
sg161
g115
sg162
Nsg163
(lp3003
I35
aI4
asg165
Nsg166
g3001
sg167
(lp3004
sg169
g57
sg170
Nsg171
Nsg172
Nsbag3
(g4
g5
NtRp3005
(dp3006
g8
g10
sg150
Nsg151
(dp3007
sg153
Nsg25
g27
sg154
(lp3008
I35
aI5
asg156
Nsg157
VShemot Rabbah 35:5
p3009
sg159
(lp3010
sg161
g115
sg162
Nsg163
(lp3011
I35
aI5
asg165
Nsg166
g3009
sg167
(lp3012
sg169
g57
sg170
Nsg171
Nsg172
Nsbag3
(g4
g5
NtRp3013
(dp3014
g8
g10
sg150
Nsg151
(dp3015
sg153
Nsg25
g27
sg154
(lp3016
I35
aI6
asg156
Nsg157
VShemot Rabbah 35:6
p3017
sg159
(lp3018
sg161
g115
sg162
Nsg163
(lp3019
I35
aI6
asg165
Nsg166
g3017
sg167
(lp3020
sg169
g57
sg170
Nsg171
Nsg172
Nsbag3
(g4
g5
NtRp3021
(dp3022
g8
g10
sg150
Nsg151
(dp3023
sg153
Nsg25
g27
sg154
(lp3024
I36
aI1
asg156
Nsg157
VShemot Rabbah 36:1
p3025
sg159
(lp3026
sg161
g115
sg162
Nsg163
(lp3027
I36
aI1
asg165
Nsg166
g3025
sg167
(lp3028
sg169
g57
sg170
Nsg171
Nsg172
Nsbag3
(g4
g5
NtRp3029
(dp3030
g8
g10
sg150
Nsg151
(dp3031
sg153
Nsg25
g27
sg154
(lp3032
I36
aI2
asg156
Nsg157
VShemot Rabbah 36:2
p3033
sg159
(lp3034
sg161
g115
sg162
Nsg163
(lp3035
I36
aI2
asg165
Nsg166
g3033
sg167
(lp3036
sg169
g57
sg170
Nsg171
Nsg172
Nsbag3
(g4
g5
NtRp3037
(dp3038
g8
g10
sg150
Nsg151
(dp3039
sg153
Nsg25
g27
sg154
(lp3040
I36
aI3
asg156
Nsg157
VShemot Rabbah 36:3
p3041
sg159
(lp3042
sg161
g115
sg162
Nsg163
(lp3043
I36
aI3
asg165
Nsg166
g3041
sg167
(lp3044
sg169
g57
sg170
Nsg171
Nsg172
Nsbag3
(g4
g5
NtRp3045
(dp3046
g8
g10
sg150
Nsg151
(dp3047
sg153
Nsg25
g27
sg154
(lp3048
I36
aI4
asg156
Nsg157
VShemot Rabbah 36:4
p3049
sg159
(lp3050
sg161
g115
sg162
Nsg163
(lp3051
I36
aI4
asg165
Nsg166
g3049
sg167
(lp3052
sg169
g57
sg170
Nsg171
Nsg172
Nsbag3
(g4
g5
NtRp3053
(dp3054
g8
g10
sg150
Nsg151
(dp3055
sg153
Nsg25
g27
sg154
(lp3056
I37
aI1
asg156
Nsg157
VShemot Rabbah 37:1
p3057
sg159
(lp3058
sg161
g115
sg162
Nsg163
(lp3059
I37
aI1
asg165
Nsg166
g3057
sg167
(lp3060
sg169
g57
sg170
Nsg171
Nsg172
Nsbag3
(g4
g5
NtRp3061
(dp3062
g8
g10
sg150
Nsg151
(dp3063
sg153
Nsg25
g27
sg154
(lp3064
I37
aI2
asg156
Nsg157
VShemot Rabbah 37:2
p3065
sg159
(lp3066
sg161
g115
sg162
Nsg163
(lp3067
I37
aI2
asg165
Nsg166
g3065
sg167
(lp3068
sg169
g57
sg170
Nsg171
Nsg172
Nsbag3
(g4
g5
NtRp3069
(dp3070
g8
g10
sg150
Nsg151
(dp3071
sg153
Nsg25
g27
sg154
(lp3072
I37
aI3
asg156
Nsg157
VShemot Rabbah 37:3
p3073
sg159
(lp3074
sg161
g115
sg162
Nsg163
(lp3075
I37
aI3
asg165
Nsg166
g3073
sg167
(lp3076
sg169
g57
sg170
Nsg171
Nsg172
Nsbag3
(g4
g5
NtRp3077
(dp3078
g8
g10
sg150
Nsg151
(dp3079
sg153
Nsg25
g27
sg154
(lp3080
I37
aI4
asg156
Nsg157
VShemot Rabbah 37:4
p3081
sg159
(lp3082
sg161
g115
sg162
Nsg163
(lp3083
I37
aI4
asg165
Nsg166
g3081
sg167
(lp3084
sg169
g57
sg170
Nsg171
Nsg172
Nsbag3
(g4
g5
NtRp3085
(dp3086
g8
g10
sg150
Nsg151
(dp3087
sg153
Nsg25
g27
sg154
(lp3088
I38
aI1
asg156
Nsg157
VShemot Rabbah 38:1
p3089
sg159
(lp3090
sg161
g115
sg162
Nsg163
(lp3091
I38
aI1
asg165
Nsg166
g3089
sg167
(lp3092
sg169
g57
sg170
Nsg171
Nsg172
Nsbag3
(g4
g5
NtRp3093
(dp3094
g8
g10
sg150
Nsg151
(dp3095
sg153
Nsg25
g27
sg154
(lp3096
I38
aI2
asg156
Nsg157
VShemot Rabbah 38:2
p3097
sg159
(lp3098
sg161
g115
sg162
Nsg163
(lp3099
I38
aI2
asg165
Nsg166
g3097
sg167
(lp3100
sg169
g57
sg170
Nsg171
Nsg172
Nsbag3
(g4
g5
NtRp3101
(dp3102
g8
g10
sg150
Nsg151
(dp3103
sg153
Nsg25
g27
sg154
(lp3104
I38
aI3
asg156
Nsg157
VShemot Rabbah 38:3
p3105
sg159
(lp3106
sg161
g115
sg162
Nsg163
(lp3107
I38
aI3
asg165
Nsg166
g3105
sg167
(lp3108
sg169
g57
sg170
Nsg171
Nsg172
Nsbag3
(g4
g5
NtRp3109
(dp3110
g8
g10
sg150
Nsg151
(dp3111
sg153
Nsg25
g27
sg154
(lp3112
I38
aI4
asg156
Nsg157
VShemot Rabbah 38:4
p3113
sg159
(lp3114
sg161
g115
sg162
Nsg163
(lp3115
I38
aI4
asg165
Nsg166
g3113
sg167
(lp3116
sg169
g57
sg170
Nsg171
Nsg172
Nsbag3
(g4
g5
NtRp3117
(dp3118
g8
g10
sg150
Nsg151
(dp3119
sg153
Nsg25
g27
sg154
(lp3120
I38
aI5
asg156
Nsg157
VShemot Rabbah 38:5
p3121
sg159
(lp3122
sg161
g115
sg162
Nsg163
(lp3123
I38
aI5
asg165
Nsg166
g3121
sg167
(lp3124
sg169
g57
sg170
Nsg171
Nsg172
Nsbag3
(g4
g5
NtRp3125
(dp3126
g8
g10
sg150
Nsg151
(dp3127
sg153
Nsg25
g27
sg154
(lp3128
I38
aI6
asg156
Nsg157
VShemot Rabbah 38:6
p3129
sg159
(lp3130
sg161
g115
sg162
Nsg163
(lp3131
I38
aI6
asg165
Nsg166
g3129
sg167
(lp3132
sg169
g57
sg170
Nsg171
Nsg172
Nsbag3
(g4
g5
NtRp3133
(dp3134
g8
g10
sg150
Nsg151
(dp3135
sg153
Nsg25
g27
sg154
(lp3136
I38
aI7
asg156
Nsg157
VShemot Rabbah 38:7
p3137
sg159
(lp3138
sg161
g115
sg162
Nsg163
(lp3139
I38
aI7
asg165
Nsg166
g3137
sg167
(lp3140
sg169
g57
sg170
Nsg171
Nsg172
Nsbag3
(g4
g5
NtRp3141
(dp3142
g8
g10
sg150
Nsg151
(dp3143
sg153
Nsg25
g27
sg154
(lp3144
I38
aI8
asg156
Nsg157
VShemot Rabbah 38:8
p3145
sg159
(lp3146
sg161
g115
sg162
Nsg163
(lp3147
I38
aI8
asg165
Nsg166
g3145
sg167
(lp3148
sg169
g57
sg170
Nsg171
Nsg172
Nsbag3
(g4
g5
NtRp3149
(dp3150
g8
g10
sg150
Nsg151
(dp3151
sg153
Nsg25
g27
sg154
(lp3152
I38
aI9
asg156
Nsg157
VShemot Rabbah 38:9
p3153
sg159
(lp3154
sg161
g115
sg162
Nsg163
(lp3155
I38
aI9
asg165
Nsg166
g3153
sg167
(lp3156
sg169
g57
sg170
Nsg171
Nsg172
Nsbag3
(g4
g5
NtRp3157
(dp3158
g8
g10
sg150
Nsg151
(dp3159
sg153
Nsg25
g27
sg154
(lp3160
I39
aI1
asg156
Nsg157
VShemot Rabbah 39:1
p3161
sg159
(lp3162
sg161
g115
sg162
Nsg163
(lp3163
I39
aI1
asg165
Nsg166
g3161
sg167
(lp3164
sg169
g57
sg170
Nsg171
Nsg172
Nsbag3
(g4
g5
NtRp3165
(dp3166
g8
g10
sg150
Nsg151
(dp3167
sg153
Nsg25
g27
sg154
(lp3168
I40
aI1
asg156
Nsg157
VShemot Rabbah 40:1
p3169
sg159
(lp3170
sg161
g115
sg162
Nsg163
(lp3171
I40
aI1
asg165
Nsg166
g3169
sg167
(lp3172
sg169
g57
sg170
Nsg171
Nsg172
Nsbag3
(g4
g5
NtRp3173
(dp3174
g8
g10
sg150
Nsg151
(dp3175
sg153
Nsg25
g27
sg154
(lp3176
I40
aI2
asg156
Nsg157
VShemot Rabbah 40:2
p3177
sg159
(lp3178
sg161
g115
sg162
Nsg163
(lp3179
I40
aI2
asg165
Nsg166
g3177
sg167
(lp3180
sg169
g57
sg170
Nsg171
Nsg172
Nsbag3
(g4
g5
NtRp3181
(dp3182
g8
g10
sg150
Nsg151
(dp3183
sg153
Nsg25
g27
sg154
(lp3184
I40
aI3
asg156
Nsg157
VShemot Rabbah 40:3
p3185
sg159
(lp3186
sg161
g115
sg162
Nsg163
(lp3187
I40
aI3
asg165
Nsg166
g3185
sg167
(lp3188
sg169
g57
sg170
Nsg171
Nsg172
Nsbag3
(g4
g5
NtRp3189
(dp3190
g8
g10
sg150
Nsg151
(dp3191
sg153
Nsg25
g27
sg154
(lp3192
I40
aI4
asg156
Nsg157
VShemot Rabbah 40:4
p3193
sg159
(lp3194
sg161
g115
sg162
Nsg163
(lp3195
I40
aI4
asg165
Nsg166
g3193
sg167
(lp3196
sg169
g57
sg170
Nsg171
Nsg172
Nsbag3
(g4
g5
NtRp3197
(dp3198
g8
g10
sg150
Nsg151
(dp3199
sg153
Nsg25
g27
sg154
(lp3200
I41
aI1
asg156
Nsg157
VShemot Rabbah 41:1
p3201
sg159
(lp3202
sg161
g115
sg162
Nsg163
(lp3203
I41
aI1
asg165
Nsg166
g3201
sg167
(lp3204
sg169
g57
sg170
Nsg171
Nsg172
Nsbag3
(g4
g5
NtRp3205
(dp3206
g8
g10
sg150
Nsg151
(dp3207
sg153
Nsg25
g27
sg154
(lp3208
I41
aI2
asg156
Nsg157
VShemot Rabbah 41:2
p3209
sg159
(lp3210
sg161
g115
sg162
Nsg163
(lp3211
I41
aI2
asg165
Nsg166
g3209
sg167
(lp3212
sg169
g57
sg170
Nsg171
Nsg172
Nsbag3
(g4
g5
NtRp3213
(dp3214
g8
g10
sg150
Nsg151
(dp3215
sg153
Nsg25
g27
sg154
(lp3216
I41
aI3
asg156
Nsg157
VShemot Rabbah 41:3
p3217
sg159
(lp3218
sg161
g115
sg162
Nsg163
(lp3219
I41
aI3
asg165
Nsg166
g3217
sg167
(lp3220
sg169
g57
sg170
Nsg171
Nsg172
Nsbag3
(g4
g5
NtRp3221
(dp3222
g8
g10
sg150
Nsg151
(dp3223
sg153
Nsg25
g27
sg154
(lp3224
I41
aI4
asg156
Nsg157
VShemot Rabbah 41:4
p3225
sg159
(lp3226
sg161
g115
sg162
Nsg163
(lp3227
I41
aI4
asg165
Nsg166
g3225
sg167
(lp3228
sg169
g57
sg170
Nsg171
Nsg172
Nsbag3
(g4
g5
NtRp3229
(dp3230
g8
g10
sg150
Nsg151
(dp3231
sg153
Nsg25
g27
sg154
(lp3232
I41
aI5
asg156
Nsg157
VShemot Rabbah 41:5
p3233
sg159
(lp3234
sg161
g115
sg162
Nsg163
(lp3235
I41
aI5
asg165
Nsg166
g3233
sg167
(lp3236
sg169
g57
sg170
Nsg171
Nsg172
Nsbag3
(g4
g5
NtRp3237
(dp3238
g8
g10
sg150
Nsg151
(dp3239
sg153
Nsg25
g27
sg154
(lp3240
I41
aI6
asg156
Nsg157
VShemot Rabbah 41:6
p3241
sg159
(lp3242
sg161
g115
sg162
Nsg163
(lp3243
I41
aI6
asg165
Nsg166
g3241
sg167
(lp3244
sg169
g57
sg170
Nsg171
Nsg172
Nsbag3
(g4
g5
NtRp3245
(dp3246
g8
g10
sg150
Nsg151
(dp3247
sg153
Nsg25
g27
sg154
(lp3248
I41
aI7
asg156
Nsg157
VShemot Rabbah 41:7
p3249
sg159
(lp3250
sg161
g115
sg162
Nsg163
(lp3251
I41
aI7
asg165
Nsg166
g3249
sg167
(lp3252
sg169
g57
sg170
Nsg171
Nsg172
Nsbag3
(g4
g5
NtRp3253
(dp3254
g8
g10
sg150
Nsg151
(dp3255
sg153
Nsg25
g27
sg154
(lp3256
I42
aI1
asg156
Nsg157
VShemot Rabbah 42:1
p3257
sg159
(lp3258
sg161
g115
sg162
Nsg163
(lp3259
I42
aI1
asg165
Nsg166
g3257
sg167
(lp3260
sg169
g57
sg170
Nsg171
Nsg172
Nsbag3
(g4
g5
NtRp3261
(dp3262
g8
g10
sg150
Nsg151
(dp3263
sg153
Nsg25
g27
sg154
(lp3264
I42
aI2
asg156
Nsg157
VShemot Rabbah 42:2
p3265
sg159
(lp3266
sg161
g115
sg162
Nsg163
(lp3267
I42
aI2
asg165
Nsg166
g3265
sg167
(lp3268
sg169
g57
sg170
Nsg171
Nsg172
Nsbag3
(g4
g5
NtRp3269
(dp3270
g8
g10
sg150
Nsg151
(dp3271
sg153
Nsg25
g27
sg154
(lp3272
I42
aI3
asg156
Nsg157
VShemot Rabbah 42:3
p3273
sg159
(lp3274
sg161
g115
sg162
Nsg163
(lp3275
I42
aI3
asg165
Nsg166
g3273
sg167
(lp3276
sg169
g57
sg170
Nsg171
Nsg172
Nsbag3
(g4
g5
NtRp3277
(dp3278
g8
g10
sg150
Nsg151
(dp3279
sg153
Nsg25
g27
sg154
(lp3280
I42
aI4
asg156
Nsg157
VShemot Rabbah 42:4
p3281
sg159
(lp3282
sg161
g115
sg162
Nsg163
(lp3283
I42
aI4
asg165
Nsg166
g3281
sg167
(lp3284
sg169
g57
sg170
Nsg171
Nsg172
Nsbag3
(g4
g5
NtRp3285
(dp3286
g8
g10
sg150
Nsg151
(dp3287
sg153
Nsg25
g27
sg154
(lp3288
I42
aI5
asg156
Nsg157
VShemot Rabbah 42:5
p3289
sg159
(lp3290
sg161
g115
sg162
Nsg163
(lp3291
I42
aI5
asg165
Nsg166
g3289
sg167
(lp3292
sg169
g57
sg170
Nsg171
Nsg172
Nsbag3
(g4
g5
NtRp3293
(dp3294
g8
g10
sg150
Nsg151
(dp3295
sg153
Nsg25
g27
sg154
(lp3296
I42
aI6
asg156
Nsg157
VShemot Rabbah 42:6
p3297
sg159
(lp3298
sg161
g115
sg162
Nsg163
(lp3299
I42
aI6
asg165
Nsg166
g3297
sg167
(lp3300
sg169
g57
sg170
Nsg171
Nsg172
Nsbag3
(g4
g5
NtRp3301
(dp3302
g8
g10
sg150
Nsg151
(dp3303
sg153
Nsg25
g27
sg154
(lp3304
I42
aI7
asg156
Nsg157
VShemot Rabbah 42:7
p3305
sg159
(lp3306
sg161
g115
sg162
Nsg163
(lp3307
I42
aI7
asg165
Nsg166
g3305
sg167
(lp3308
sg169
g57
sg170
Nsg171
Nsg172
Nsbag3
(g4
g5
NtRp3309
(dp3310
g8
g10
sg150
Nsg151
(dp3311
sg153
Nsg25
g27
sg154
(lp3312
I42
aI8
asg156
Nsg157
VShemot Rabbah 42:8
p3313
sg159
(lp3314
sg161
g115
sg162
Nsg163
(lp3315
I42
aI8
asg165
Nsg166
g3313
sg167
(lp3316
sg169
g57
sg170
Nsg171
Nsg172
Nsbag3
(g4
g5
NtRp3317
(dp3318
g8
g10
sg150
Nsg151
(dp3319
sg153
Nsg25
g27
sg154
(lp3320
I42
aI9
asg156
Nsg157
VShemot Rabbah 42:9
p3321
sg159
(lp3322
sg161
g115
sg162
Nsg163
(lp3323
I42
aI9
asg165
Nsg166
g3321
sg167
(lp3324
sg169
g57
sg170
Nsg171
Nsg172
Nsbag3
(g4
g5
NtRp3325
(dp3326
g8
g10
sg150
Nsg151
(dp3327
sg153
Nsg25
g27
sg154
(lp3328
I43
aI1
asg156
Nsg157
VShemot Rabbah 43:1
p3329
sg159
(lp3330
sg161
g115
sg162
Nsg163
(lp3331
I43
aI1
asg165
Nsg166
g3329
sg167
(lp3332
sg169
g57
sg170
Nsg171
Nsg172
Nsbag3
(g4
g5
NtRp3333
(dp3334
g8
g10
sg150
Nsg151
(dp3335
sg153
Nsg25
g27
sg154
(lp3336
I43
aI2
asg156
Nsg157
VShemot Rabbah 43:2
p3337
sg159
(lp3338
sg161
g115
sg162
Nsg163
(lp3339
I43
aI2
asg165
Nsg166
g3337
sg167
(lp3340
sg169
g57
sg170
Nsg171
Nsg172
Nsbag3
(g4
g5
NtRp3341
(dp3342
g8
g10
sg150
Nsg151
(dp3343
sg153
Nsg25
g27
sg154
(lp3344
I43
aI3
asg156
Nsg157
VShemot Rabbah 43:3
p3345
sg159
(lp3346
sg161
g115
sg162
Nsg163
(lp3347
I43
aI3
asg165
Nsg166
g3345
sg167
(lp3348
sg169
g57
sg170
Nsg171
Nsg172
Nsbag3
(g4
g5
NtRp3349
(dp3350
g8
g10
sg150
Nsg151
(dp3351
sg153
Nsg25
g27
sg154
(lp3352
I43
aI4
asg156
Nsg157
VShemot Rabbah 43:4
p3353
sg159
(lp3354
sg161
g115
sg162
Nsg163
(lp3355
I43
aI4
asg165
Nsg166
g3353
sg167
(lp3356
sg169
g57
sg170
Nsg171
Nsg172
Nsbag3
(g4
g5
NtRp3357
(dp3358
g8
g10
sg150
Nsg151
(dp3359
sg153
Nsg25
g27
sg154
(lp3360
I43
aI5
asg156
Nsg157
VShemot Rabbah 43:5
p3361
sg159
(lp3362
sg161
g115
sg162
Nsg163
(lp3363
I43
aI5
asg165
Nsg166
g3361
sg167
(lp3364
sg169
g57
sg170
Nsg171
Nsg172
Nsbag3
(g4
g5
NtRp3365
(dp3366
g8
g10
sg150
Nsg151
(dp3367
sg153
Nsg25
g27
sg154
(lp3368
I43
aI6
asg156
Nsg157
VShemot Rabbah 43:6
p3369
sg159
(lp3370
sg161
g115
sg162
Nsg163
(lp3371
I43
aI6
asg165
Nsg166
g3369
sg167
(lp3372
sg169
g57
sg170
Nsg171
Nsg172
Nsbag3
(g4
g5
NtRp3373
(dp3374
g8
g10
sg150
Nsg151
(dp3375
sg153
Nsg25
g27
sg154
(lp3376
I43
aI7
asg156
Nsg157
VShemot Rabbah 43:7
p3377
sg159
(lp3378
sg161
g115
sg162
Nsg163
(lp3379
I43
aI7
asg165
Nsg166
g3377
sg167
(lp3380
sg169
g57
sg170
Nsg171
Nsg172
Nsbag3
(g4
g5
NtRp3381
(dp3382
g8
g10
sg150
Nsg151
(dp3383
sg153
Nsg25
g27
sg154
(lp3384
I43
aI8
asg156
Nsg157
VShemot Rabbah 43:8
p3385
sg159
(lp3386
sg161
g115
sg162
Nsg163
(lp3387
I43
aI8
asg165
Nsg166
g3385
sg167
(lp3388
sg169
g57
sg170
Nsg171
Nsg172
Nsbag3
(g4
g5
NtRp3389
(dp3390
g8
g10
sg150
Nsg151
(dp3391
sg153
Nsg25
g27
sg154
(lp3392
I43
aI9
asg156
Nsg157
VShemot Rabbah 43:9
p3393
sg159
(lp3394
sg161
g115
sg162
Nsg163
(lp3395
I43
aI9
asg165
Nsg166
g3393
sg167
(lp3396
sg169
g57
sg170
Nsg171
Nsg172
Nsbag3
(g4
g5
NtRp3397
(dp3398
g8
g10
sg150
Nsg151
(dp3399
sg153
Nsg25
g27
sg154
(lp3400
I44
aI1
asg156
Nsg157
VShemot Rabbah 44:1
p3401
sg159
(lp3402
sg161
g115
sg162
Nsg163
(lp3403
I44
aI1
asg165
Nsg166
g3401
sg167
(lp3404
sg169
g57
sg170
Nsg171
Nsg172
Nsbag3
(g4
g5
NtRp3405
(dp3406
g8
g10
sg150
Nsg151
(dp3407
sg153
Nsg25
g27
sg154
(lp3408
I44
aI2
asg156
Nsg157
VShemot Rabbah 44:2
p3409
sg159
(lp3410
sg161
g115
sg162
Nsg163
(lp3411
I44
aI2
asg165
Nsg166
g3409
sg167
(lp3412
sg169
g57
sg170
Nsg171
Nsg172
Nsbag3
(g4
g5
NtRp3413
(dp3414
g8
g10
sg150
Nsg151
(dp3415
sg153
Nsg25
g27
sg154
(lp3416
I44
aI3
asg156
Nsg157
VShemot Rabbah 44:3
p3417
sg159
(lp3418
sg161
g115
sg162
Nsg163
(lp3419
I44
aI3
asg165
Nsg166
g3417
sg167
(lp3420
sg169
g57
sg170
Nsg171
Nsg172
Nsbag3
(g4
g5
NtRp3421
(dp3422
g8
g10
sg150
Nsg151
(dp3423
sg153
Nsg25
g27
sg154
(lp3424
I44
aI4
asg156
Nsg157
VShemot Rabbah 44:4
p3425
sg159
(lp3426
sg161
g115
sg162
Nsg163
(lp3427
I44
aI4
asg165
Nsg166
g3425
sg167
(lp3428
sg169
g57
sg170
Nsg171
Nsg172
Nsbag3
(g4
g5
NtRp3429
(dp3430
g8
g10
sg150
Nsg151
(dp3431
sg153
Nsg25
g27
sg154
(lp3432
I44
aI5
asg156
Nsg157
VShemot Rabbah 44:5
p3433
sg159
(lp3434
sg161
g115
sg162
Nsg163
(lp3435
I44
aI5
asg165
Nsg166
g3433
sg167
(lp3436
sg169
g57
sg170
Nsg171
Nsg172
Nsbag3
(g4
g5
NtRp3437
(dp3438
g8
g10
sg150
Nsg151
(dp3439
sg153
Nsg25
g27
sg154
(lp3440
I44
aI6
asg156
Nsg157
VShemot Rabbah 44:6
p3441
sg159
(lp3442
sg161
g115
sg162
Nsg163
(lp3443
I44
aI6
asg165
Nsg166
g3441
sg167
(lp3444
sg169
g57
sg170
Nsg171
Nsg172
Nsbag3
(g4
g5
NtRp3445
(dp3446
g8
g10
sg150
Nsg151
(dp3447
sg153
Nsg25
g27
sg154
(lp3448
I44
aI7
asg156
Nsg157
VShemot Rabbah 44:7
p3449
sg159
(lp3450
sg161
g115
sg162
Nsg163
(lp3451
I44
aI7
asg165
Nsg166
g3449
sg167
(lp3452
sg169
g57
sg170
Nsg171
Nsg172
Nsbag3
(g4
g5
NtRp3453
(dp3454
g8
g10
sg150
Nsg151
(dp3455
sg153
Nsg25
g27
sg154
(lp3456
I44
aI8
asg156
Nsg157
VShemot Rabbah 44:8
p3457
sg159
(lp3458
sg161
g115
sg162
Nsg163
(lp3459
I44
aI8
asg165
Nsg166
g3457
sg167
(lp3460
sg169
g57
sg170
Nsg171
Nsg172
Nsbag3
(g4
g5
NtRp3461
(dp3462
g8
g10
sg150
Nsg151
(dp3463
sg153
Nsg25
g27
sg154
(lp3464
I44
aI9
asg156
Nsg157
VShemot Rabbah 44:9
p3465
sg159
(lp3466
sg161
g115
sg162
Nsg163
(lp3467
I44
aI9
asg165
Nsg166
g3465
sg167
(lp3468
sg169
g57
sg170
Nsg171
Nsg172
Nsbag3
(g4
g5
NtRp3469
(dp3470
g8
g10
sg150
Nsg151
(dp3471
sg153
Nsg25
g27
sg154
(lp3472
I44
aI10
asg156
Nsg157
VShemot Rabbah 44:10
p3473
sg159
(lp3474
sg161
g115
sg162
Nsg163
(lp3475
I44
aI10
asg165
Nsg166
g3473
sg167
(lp3476
sg169
g57
sg170
Nsg171
Nsg172
Nsbag3
(g4
g5
NtRp3477
(dp3478
g8
g10
sg150
Nsg151
(dp3479
sg153
Nsg25
g27
sg154
(lp3480
I45
aI1
asg156
Nsg157
VShemot Rabbah 45:1
p3481
sg159
(lp3482
sg161
g115
sg162
Nsg163
(lp3483
I45
aI1
asg165
Nsg166
g3481
sg167
(lp3484
sg169
g57
sg170
Nsg171
Nsg172
Nsbag3
(g4
g5
NtRp3485
(dp3486
g8
g10
sg150
Nsg151
(dp3487
sg153
Nsg25
g27
sg154
(lp3488
I45
aI2
asg156
Nsg157
VShemot Rabbah 45:2
p3489
sg159
(lp3490
sg161
g115
sg162
Nsg163
(lp3491
I45
aI2
asg165
Nsg166
g3489
sg167
(lp3492
sg169
g57
sg170
Nsg171
Nsg172
Nsbag3
(g4
g5
NtRp3493
(dp3494
g8
g10
sg150
Nsg151
(dp3495
sg153
Nsg25
g27
sg154
(lp3496
I45
aI3
asg156
Nsg157
VShemot Rabbah 45:3
p3497
sg159
(lp3498
sg161
g115
sg162
Nsg163
(lp3499
I45
aI3
asg165
Nsg166
g3497
sg167
(lp3500
sg169
g57
sg170
Nsg171
Nsg172
Nsbag3
(g4
g5
NtRp3501
(dp3502
g8
g10
sg150
Nsg151
(dp3503
sg153
Nsg25
g27
sg154
(lp3504
I45
aI4
asg156
Nsg157
VShemot Rabbah 45:4
p3505
sg159
(lp3506
sg161
g115
sg162
Nsg163
(lp3507
I45
aI4
asg165
Nsg166
g3505
sg167
(lp3508
sg169
g57
sg170
Nsg171
Nsg172
Nsbag3
(g4
g5
NtRp3509
(dp3510
g8
g10
sg150
Nsg151
(dp3511
sg153
Nsg25
g27
sg154
(lp3512
I45
aI5
asg156
Nsg157
VShemot Rabbah 45:5
p3513
sg159
(lp3514
sg161
g115
sg162
Nsg163
(lp3515
I45
aI5
asg165
Nsg166
g3513
sg167
(lp3516
sg169
g57
sg170
Nsg171
Nsg172
Nsbag3
(g4
g5
NtRp3517
(dp3518
g8
g10
sg150
Nsg151
(dp3519
sg153
Nsg25
g27
sg154
(lp3520
I45
aI6
asg156
Nsg157
VShemot Rabbah 45:6
p3521
sg159
(lp3522
sg161
g115
sg162
Nsg163
(lp3523
I45
aI6
asg165
Nsg166
g3521
sg167
(lp3524
sg169
g57
sg170
Nsg171
Nsg172
Nsbag3
(g4
g5
NtRp3525
(dp3526
g8
g10
sg150
Nsg151
(dp3527
sg153
Nsg25
g27
sg154
(lp3528
I46
aI1
asg156
Nsg157
VShemot Rabbah 46:1
p3529
sg159
(lp3530
sg161
g115
sg162
Nsg163
(lp3531
I46
aI1
asg165
Nsg166
g3529
sg167
(lp3532
sg169
g57
sg170
Nsg171
Nsg172
Nsbag3
(g4
g5
NtRp3533
(dp3534
g8
g10
sg150
Nsg151
(dp3535
sg153
Nsg25
g27
sg154
(lp3536
I46
aI2
asg156
Nsg157
VShemot Rabbah 46:2
p3537
sg159
(lp3538
sg161
g115
sg162
Nsg163
(lp3539
I46
aI2
asg165
Nsg166
g3537
sg167
(lp3540
sg169
g57
sg170
Nsg171
Nsg172
Nsbag3
(g4
g5
NtRp3541
(dp3542
g8
g10
sg150
Nsg151
(dp3543
sg153
Nsg25
g27
sg154
(lp3544
I46
aI3
asg156
Nsg157
VShemot Rabbah 46:3
p3545
sg159
(lp3546
sg161
g115
sg162
Nsg163
(lp3547
I46
aI3
asg165
Nsg166
g3545
sg167
(lp3548
sg169
g57
sg170
Nsg171
Nsg172
Nsbag3
(g4
g5
NtRp3549
(dp3550
g8
g10
sg150
Nsg151
(dp3551
sg153
Nsg25
g27
sg154
(lp3552
I46
aI4
asg156
Nsg157
VShemot Rabbah 46:4
p3553
sg159
(lp3554
sg161
g115
sg162
Nsg163
(lp3555
I46
aI4
asg165
Nsg166
g3553
sg167
(lp3556
sg169
g57
sg170
Nsg171
Nsg172
Nsbag3
(g4
g5
NtRp3557
(dp3558
g8
g10
sg150
Nsg151
(dp3559
sg153
Nsg25
g27
sg154
(lp3560
I46
aI5
asg156
Nsg157
VShemot Rabbah 46:5
p3561
sg159
(lp3562
sg161
g115
sg162
Nsg163
(lp3563
I46
aI5
asg165
Nsg166
g3561
sg167
(lp3564
sg169
g57
sg170
Nsg171
Nsg172
Nsbag3
(g4
g5
NtRp3565
(dp3566
g8
g10
sg150
Nsg151
(dp3567
sg153
Nsg25
g27
sg154
(lp3568
I46
aI6
asg156
Nsg157
VShemot Rabbah 46:6
p3569
sg159
(lp3570
sg161
g115
sg162
Nsg163
(lp3571
I46
aI6
asg165
Nsg166
g3569
sg167
(lp3572
sg169
g57
sg170
Nsg171
Nsg172
Nsbag3
(g4
g5
NtRp3573
(dp3574
g8
g10
sg150
Nsg151
(dp3575
sg153
Nsg25
g27
sg154
(lp3576
I46
aI7
asg156
Nsg157
VShemot Rabbah 46:7
p3577
sg159
(lp3578
sg161
g115
sg162
Nsg163
(lp3579
I46
aI7
asg165
Nsg166
g3577
sg167
(lp3580
sg169
g57
sg170
Nsg171
Nsg172
Nsbag3
(g4
g5
NtRp3581
(dp3582
g8
g10
sg150
Nsg151
(dp3583
sg153
Nsg25
g27
sg154
(lp3584
I46
aI8
asg156
Nsg157
VShemot Rabbah 46:8
p3585
sg159
(lp3586
sg161
g115
sg162
Nsg163
(lp3587
I46
aI8
asg165
Nsg166
g3585
sg167
(lp3588
sg169
g57
sg170
Nsg171
Nsg172
Nsbag3
(g4
g5
NtRp3589
(dp3590
g8
g10
sg150
Nsg151
(dp3591
sg153
Nsg25
g27
sg154
(lp3592
I47
aI1
asg156
Nsg157
VShemot Rabbah 47:1
p3593
sg159
(lp3594
sg161
g115
sg162
Nsg163
(lp3595
I47
aI1
asg165
Nsg166
g3593
sg167
(lp3596
sg169
g57
sg170
Nsg171
Nsg172
Nsbag3
(g4
g5
NtRp3597
(dp3598
g8
g10
sg150
Nsg151
(dp3599
sg153
Nsg25
g27
sg154
(lp3600
I47
aI2
asg156
Nsg157
VShemot Rabbah 47:2
p3601
sg159
(lp3602
sg161
g115
sg162
Nsg163
(lp3603
I47
aI2
asg165
Nsg166
g3601
sg167
(lp3604
sg169
g57
sg170
Nsg171
Nsg172
Nsbag3
(g4
g5
NtRp3605
(dp3606
g8
g10
sg150
Nsg151
(dp3607
sg153
Nsg25
g27
sg154
(lp3608
I47
aI3
asg156
Nsg157
VShemot Rabbah 47:3
p3609
sg159
(lp3610
sg161
g115
sg162
Nsg163
(lp3611
I47
aI3
asg165
Nsg166
g3609
sg167
(lp3612
sg169
g57
sg170
Nsg171
Nsg172
Nsbag3
(g4
g5
NtRp3613
(dp3614
g8
g10
sg150
Nsg151
(dp3615
sg153
Nsg25
g27
sg154
(lp3616
I47
aI4
asg156
Nsg157
VShemot Rabbah 47:4
p3617
sg159
(lp3618
sg161
g115
sg162
Nsg163
(lp3619
I47
aI4
asg165
Nsg166
g3617
sg167
(lp3620
sg169
g57
sg170
Nsg171
Nsg172
Nsbag3
(g4
g5
NtRp3621
(dp3622
g8
g10
sg150
Nsg151
(dp3623
sg153
Nsg25
g27
sg154
(lp3624
I47
aI5
asg156
Nsg157
VShemot Rabbah 47:5
p3625
sg159
(lp3626
sg161
g115
sg162
Nsg163
(lp3627
I47
aI5
asg165
Nsg166
g3625
sg167
(lp3628
sg169
g57
sg170
Nsg171
Nsg172
Nsbag3
(g4
g5
NtRp3629
(dp3630
g8
g10
sg150
Nsg151
(dp3631
sg153
Nsg25
g27
sg154
(lp3632
I47
aI6
asg156
Nsg157
VShemot Rabbah 47:6
p3633
sg159
(lp3634
sg161
g115
sg162
Nsg163
(lp3635
I47
aI6
asg165
Nsg166
g3633
sg167
(lp3636
sg169
g57
sg170
Nsg171
Nsg172
Nsbag3
(g4
g5
NtRp3637
(dp3638
g8
g10
sg150
Nsg151
(dp3639
sg153
Nsg25
g27
sg154
(lp3640
I47
aI7
asg156
Nsg157
VShemot Rabbah 47:7
p3641
sg159
(lp3642
sg161
g115
sg162
Nsg163
(lp3643
I47
aI7
asg165
Nsg166
g3641
sg167
(lp3644
sg169
g57
sg170
Nsg171
Nsg172
Nsbag3
(g4
g5
NtRp3645
(dp3646
g8
g10
sg150
Nsg151
(dp3647
sg153
Nsg25
g27
sg154
(lp3648
I47
aI8
asg156
Nsg157
VShemot Rabbah 47:8
p3649
sg159
(lp3650
sg161
g115
sg162
Nsg163
(lp3651
I47
aI8
asg165
Nsg166
g3649
sg167
(lp3652
sg169
g57
sg170
Nsg171
Nsg172
Nsbag3
(g4
g5
NtRp3653
(dp3654
g8
g10
sg150
Nsg151
(dp3655
sg153
Nsg25
g27
sg154
(lp3656
I47
aI9
asg156
Nsg157
VShemot Rabbah 47:9
p3657
sg159
(lp3658
sg161
g115
sg162
Nsg163
(lp3659
I47
aI9
asg165
Nsg166
g3657
sg167
(lp3660
sg169
g57
sg170
Nsg171
Nsg172
Nsbag3
(g4
g5
NtRp3661
(dp3662
g8
g10
sg150
Nsg151
(dp3663
sg153
Nsg25
g27
sg154
(lp3664
I48
aI1
asg156
Nsg157
VShemot Rabbah 48:1
p3665
sg159
(lp3666
sg161
g115
sg162
Nsg163
(lp3667
I48
aI1
asg165
Nsg166
g3665
sg167
(lp3668
sg169
g57
sg170
Nsg171
Nsg172
Nsbag3
(g4
g5
NtRp3669
(dp3670
g8
g10
sg150
Nsg151
(dp3671
sg153
Nsg25
g27
sg154
(lp3672
I48
aI2
asg156
Nsg157
VShemot Rabbah 48:2
p3673
sg159
(lp3674
sg161
g115
sg162
Nsg163
(lp3675
I48
aI2
asg165
Nsg166
g3673
sg167
(lp3676
sg169
g57
sg170
Nsg171
Nsg172
Nsbag3
(g4
g5
NtRp3677
(dp3678
g8
g10
sg150
Nsg151
(dp3679
sg153
Nsg25
g27
sg154
(lp3680
I48
aI3
asg156
Nsg157
VShemot Rabbah 48:3
p3681
sg159
(lp3682
sg161
g115
sg162
Nsg163
(lp3683
I48
aI3
asg165
Nsg166
g3681
sg167
(lp3684
sg169
g57
sg170
Nsg171
Nsg172
Nsbag3
(g4
g5
NtRp3685
(dp3686
g8
g10
sg150
Nsg151
(dp3687
sg153
Nsg25
g27
sg154
(lp3688
I48
aI4
asg156
Nsg157
VShemot Rabbah 48:4
p3689
sg159
(lp3690
sg161
g115
sg162
Nsg163
(lp3691
I48
aI4
asg165
Nsg166
g3689
sg167
(lp3692
sg169
g57
sg170
Nsg171
Nsg172
Nsbag3
(g4
g5
NtRp3693
(dp3694
g8
g10
sg150
Nsg151
(dp3695
sg153
Nsg25
g27
sg154
(lp3696
I48
aI5
asg156
Nsg157
VShemot Rabbah 48:5
p3697
sg159
(lp3698
sg161
g115
sg162
Nsg163
(lp3699
I48
aI5
asg165
Nsg166
g3697
sg167
(lp3700
sg169
g57
sg170
Nsg171
Nsg172
Nsbag3
(g4
g5
NtRp3701
(dp3702
g8
g10
sg150
Nsg151
(dp3703
sg153
Nsg25
g27
sg154
(lp3704
I48
aI6
asg156
Nsg157
VShemot Rabbah 48:6
p3705
sg159
(lp3706
sg161
g115
sg162
Nsg163
(lp3707
I48
aI6
asg165
Nsg166
g3705
sg167
(lp3708
sg169
g57
sg170
Nsg171
Nsg172
Nsbag3
(g4
g5
NtRp3709
(dp3710
g8
g10
sg150
Nsg151
(dp3711
sg153
Nsg25
g27
sg154
(lp3712
I49
aI1
asg156
Nsg157
VShemot Rabbah 49:1
p3713
sg159
(lp3714
sg161
g115
sg162
Nsg163
(lp3715
I49
aI1
asg165
Nsg166
g3713
sg167
(lp3716
sg169
g57
sg170
Nsg171
Nsg172
Nsbag3
(g4
g5
NtRp3717
(dp3718
g8
g10
sg150
Nsg151
(dp3719
sg153
Nsg25
g27
sg154
(lp3720
I49
aI2
asg156
Nsg157
VShemot Rabbah 49:2
p3721
sg159
(lp3722
sg161
g115
sg162
Nsg163
(lp3723
I49
aI2
asg165
Nsg166
g3721
sg167
(lp3724
sg169
g57
sg170
Nsg171
Nsg172
Nsbag3
(g4
g5
NtRp3725
(dp3726
g8
g10
sg150
Nsg151
(dp3727
sg153
Nsg25
g27
sg154
(lp3728
I50
aI1
asg156
Nsg157
VShemot Rabbah 50:1
p3729
sg159
(lp3730
sg161
g115
sg162
Nsg163
(lp3731
I50
aI1
asg165
Nsg166
g3729
sg167
(lp3732
sg169
g57
sg170
Nsg171
Nsg172
Nsbag3
(g4
g5
NtRp3733
(dp3734
g8
g10
sg150
Nsg151
(dp3735
sg153
Nsg25
g27
sg154
(lp3736
I50
aI2
asg156
Nsg157
VShemot Rabbah 50:2
p3737
sg159
(lp3738
sg161
g115
sg162
Nsg163
(lp3739
I50
aI2
asg165
Nsg166
g3737
sg167
(lp3740
sg169
g57
sg170
Nsg171
Nsg172
Nsbag3
(g4
g5
NtRp3741
(dp3742
g8
g10
sg150
Nsg151
(dp3743
sg153
Nsg25
g27
sg154
(lp3744
I50
aI3
asg156
Nsg157
VShemot Rabbah 50:3
p3745
sg159
(lp3746
sg161
g115
sg162
Nsg163
(lp3747
I50
aI3
asg165
Nsg166
g3745
sg167
(lp3748
sg169
g57
sg170
Nsg171
Nsg172
Nsbag3
(g4
g5
NtRp3749
(dp3750
g8
g10
sg150
Nsg151
(dp3751
sg153
Nsg25
g27
sg154
(lp3752
I50
aI4
asg156
Nsg157
VShemot Rabbah 50:4
p3753
sg159
(lp3754
sg161
g115
sg162
Nsg163
(lp3755
I50
aI4
asg165
Nsg166
g3753
sg167
(lp3756
sg169
g57
sg170
Nsg171
Nsg172
Nsbag3
(g4
g5
NtRp3757
(dp3758
g8
g10
sg150
Nsg151
(dp3759
sg153
Nsg25
g27
sg154
(lp3760
I50
aI5
asg156
Nsg157
VShemot Rabbah 50:5
p3761
sg159
(lp3762
sg161
g115
sg162
Nsg163
(lp3763
I50
aI5
asg165
Nsg166
g3761
sg167
(lp3764
sg169
g57
sg170
Nsg171
Nsg172
Nsbag3
(g4
g5
NtRp3765
(dp3766
g8
g10
sg150
Nsg151
(dp3767
sg153
Nsg25
g27
sg154
(lp3768
I51
aI1
asg156
Nsg157
VShemot Rabbah 51:1
p3769
sg159
(lp3770
sg161
g115
sg162
Nsg163
(lp3771
I51
aI1
asg165
Nsg166
g3769
sg167
(lp3772
sg169
g57
sg170
Nsg171
Nsg172
Nsbag3
(g4
g5
NtRp3773
(dp3774
g8
g10
sg150
Nsg151
(dp3775
sg153
Nsg25
g27
sg154
(lp3776
I51
aI2
asg156
Nsg157
VShemot Rabbah 51:2
p3777
sg159
(lp3778
sg161
g115
sg162
Nsg163
(lp3779
I51
aI2
asg165
Nsg166
g3777
sg167
(lp3780
sg169
g57
sg170
Nsg171
Nsg172
Nsbag3
(g4
g5
NtRp3781
(dp3782
g8
g10
sg150
Nsg151
(dp3783
sg153
Nsg25
g27
sg154
(lp3784
I51
aI3
asg156
Nsg157
VShemot Rabbah 51:3
p3785
sg159
(lp3786
sg161
g115
sg162
Nsg163
(lp3787
I51
aI3
asg165
Nsg166
g3785
sg167
(lp3788
sg169
g57
sg170
Nsg171
Nsg172
Nsbag3
(g4
g5
NtRp3789
(dp3790
g8
g10
sg150
Nsg151
(dp3791
sg153
Nsg25
g27
sg154
(lp3792
I51
aI4
asg156
Nsg157
VShemot Rabbah 51:4
p3793
sg159
(lp3794
sg161
g115
sg162
Nsg163
(lp3795
I51
aI4
asg165
Nsg166
g3793
sg167
(lp3796
sg169
g57
sg170
Nsg171
Nsg172
Nsbag3
(g4
g5
NtRp3797
(dp3798
g8
g10
sg150
Nsg151
(dp3799
sg153
Nsg25
g27
sg154
(lp3800
I51
aI5
asg156
Nsg157
VShemot Rabbah 51:5
p3801
sg159
(lp3802
sg161
g115
sg162
Nsg163
(lp3803
I51
aI5
asg165
Nsg166
g3801
sg167
(lp3804
sg169
g57
sg170
Nsg171
Nsg172
Nsbag3
(g4
g5
NtRp3805
(dp3806
g8
g10
sg150
Nsg151
(dp3807
sg153
Nsg25
g27
sg154
(lp3808
I51
aI6
asg156
Nsg157
VShemot Rabbah 51:6
p3809
sg159
(lp3810
sg161
g115
sg162
Nsg163
(lp3811
I51
aI6
asg165
Nsg166
g3809
sg167
(lp3812
sg169
g57
sg170
Nsg171
Nsg172
Nsbag3
(g4
g5
NtRp3813
(dp3814
g8
g10
sg150
Nsg151
(dp3815
sg153
Nsg25
g27
sg154
(lp3816
I51
aI7
asg156
Nsg157
VShemot Rabbah 51:7
p3817
sg159
(lp3818
sg161
g115
sg162
Nsg163
(lp3819
I51
aI7
asg165
Nsg166
g3817
sg167
(lp3820
sg169
g57
sg170
Nsg171
Nsg172
Nsbag3
(g4
g5
NtRp3821
(dp3822
g8
g10
sg150
Nsg151
(dp3823
sg153
Nsg25
g27
sg154
(lp3824
I51
aI8
asg156
Nsg157
VShemot Rabbah 51:8
p3825
sg159
(lp3826
sg161
g115
sg162
Nsg163
(lp3827
I51
aI8
asg165
Nsg166
g3825
sg167
(lp3828
sg169
g57
sg170
Nsg171
Nsg172
Nsbag3
(g4
g5
NtRp3829
(dp3830
g8
g10
sg150
Nsg151
(dp3831
sg153
Nsg25
g27
sg154
(lp3832
I52
aI1
asg156
Nsg157
VShemot Rabbah 52:1
p3833
sg159
(lp3834
sg161
g115
sg162
Nsg163
(lp3835
I52
aI1
asg165
Nsg166
g3833
sg167
(lp3836
sg169
g57
sg170
Nsg171
Nsg172
Nsbag3
(g4
g5
NtRp3837
(dp3838
g8
g10
sg150
Nsg151
(dp3839
sg153
Nsg25
g27
sg154
(lp3840
I52
aI2
asg156
Nsg157
VShemot Rabbah 52:2
p3841
sg159
(lp3842
sg161
g115
sg162
Nsg163
(lp3843
I52
aI2
asg165
Nsg166
g3841
sg167
(lp3844
sg169
g57
sg170
Nsg171
Nsg172
Nsbag3
(g4
g5
NtRp3845
(dp3846
g8
g10
sg150
Nsg151
(dp3847
sg153
Nsg25
g27
sg154
(lp3848
I52
aI3
asg156
Nsg157
VShemot Rabbah 52:3
p3849
sg159
(lp3850
sg161
g115
sg162
Nsg163
(lp3851
I52
aI3
asg165
Nsg166
g3849
sg167
(lp3852
sg169
g57
sg170
Nsg171
Nsg172
Nsbag3
(g4
g5
NtRp3853
(dp3854
g8
g10
sg150
Nsg151
(dp3855
sg153
Nsg25
g27
sg154
(lp3856
I52
aI4
asg156
Nsg157
VShemot Rabbah 52:4
p3857
sg159
(lp3858
sg161
g115
sg162
Nsg163
(lp3859
I52
aI4
asg165
Nsg166
g3857
sg167
(lp3860
sg169
g57
sg170
Nsg171
Nsg172
Nsbag3
(g4
g5
NtRp3861
(dp3862
g8
g10
sg150
Nsg151
(dp3863
sg153
Nsg25
g27
sg154
(lp3864
I52
aI5
asg156
Nsg157
VShemot Rabbah 52:5
p3865
sg159
(lp3866
sg161
g115
sg162
Nsg163
(lp3867
I52
aI5
asg165
Nsg166
g3865
sg167
(lp3868
sg169
g57
sg170
Nsg171
Nsg172
NsbaI93967
t.