((lp1
I0
aI113
aI186
aI234
aI391
aI676
aI1160
aI1390
aI1756
aI2252
aI3039
aI3436
aI3652
aI4231
aI4448
aI4616
aI5178
aI5443
aI5684
aI6347
aI6563
aI6788
aI7278
aI7567
aI7711
aI7930
aI8175
aI8264
aI8357
aI8446
aI8539
aI8628
aI8943
aI8997
aI9038
aI9303
aI9400
aI9642
aI9836
aI10157
aI10228
aI10473
aI10923
aI11013
aI11178
aI11363
aI11685
aI11925
aI11980
aI12048
aI12442
aI12528
aI12759
aI13014
aI13215
aI13440
aI13652
aI13988
aI14171
aI14405
aI14497
aI14595
aI14666
aI15082
aI15175
aI15461
aI15523
aI15671
aI15742
aI15833
aI15993
aI16027
aI16117
aI16307
aI16402
aI16741
aI16816
aI16979
aI17116
aI17299
aI17421
aI17597
aI17676
aI17869
aI17987
aI18019
aI18090
aI18239
aI18553
aI18737
aI18829
aI19884
aI20023
aI20547
aI20679
aI20877
aI21020
aI21244
aI21451
aI21509
aI21587
aI21631
aI21748
aI21792
aI21942
aI22105
aI22517
aI22764
aI23072
aI23124
aI23208
aI23273
aI23456
aI23504
aI23663
aI23917
aI24107
aI24289
aI24649
aI24932
aI25133
aI25229
aI25247
aI25264
aI25284
aI25314
aI26607
aI26677
aI26947
aI27412
aI27798
aI28043
aI28099
aI28172
aI28282
aI28411
aI28581
aI28723
aI28984
aI29173
aI29294
aI29490
aI29904
aI30106
aI30500
aI30913
aI31317
aI31413
aI31912
aI32109
aI32153
aI32839
aI33233
aI33558
aI34523
aI34670
aI34731
aI34854
aI35501
aI35787
aI35948
aI36166
aI36190
aI36725
aI36974
aI37189
aI37613
aI37809
aI37974
aI38299
aI38564
aI39203
aI39836
aI39972
aI40033
aI40358
aI40842
aI40922
aI41173
aI41370
aI41649
aI41710
aI41834
aI41854
aI41985
aI42163
aI42463
aI42562
aI42697
aI42784
aI42813
aI42885
aI42945
aI43020
aI43157
aI43286
aI43604
aI43962
aI44022
aI44190
aI44471
aI44695
aI44794
aI44976
aI45063
aI45116
aI45216
aI45347
aI45437
aI45476
aI45568
aI45731
aI46316
aI46473
aI46586
aI46628
aI46719
aI47192
aI47569
aI48158
aI48501
aI48708
aI48995
aI49478
aI49734
aI49834
aI50363
aI50626
aI50687
aI50971
aI51234
aI51295
aI51579
aI51766
aI51935
aI52809
aI53397
aI53505
aI53605
aI53632
aI53676
aI53995
aI54127
aI54200
aI54202
aI54204
aI54508
aI54861
aI55027
aI55242
aI55513
aI55669
aI55778
aI56618
aI57290
aI57587
aI57746
aI57802
a(lp2
ccopy_reg
_reconstructor
p3
(csefaria.model.text
Ref
p4
c__builtin__
object
p5
NtRp6
(dp7
S'index_node'
p8
g3
(csefaria.model.schema
JaggedArrayNode
p9
g5
NtRp10
(dp11
S'_address'
p12
(lp13
VShir HaShirim Rabbah
p14
asS'_full_titles'
p15
(dp16
sVnodeType
p17
VJaggedArrayNode
p18
sS'parent'
p19
NsVaddressTypes
p20
(lp21
VInteger
p22
aVInteger
p23
aVInteger
p24
asS'default'
p25
I00
sS'index'
p26
g3
(csefaria.model.text
Index
p27
g5
NtRp28
(dp29
S'_id'
p30
g3
(cbson.objectid
ObjectId
p31
g5
NtRp32
S'Q\x17<\xb9\xed\xba\xb4V\x9a\x85Qu'
p33
bsS'pkeys_orig_values'
p34
(dp35
S'title'
p36
VShir HaShirim Rabbah
p37
ssS'pubDate'
p38
V1519
p39
sS'compDate'
p40
V890
p41
sS'pubPlace'
p42
VIstanbul
p43
sS'compPlace'
p44
VTalmudic Israel/Babylon
p45
sS'enDesc'
p46
VShir ha-Shirim Rabbah (The Great Song of Songs) is a haggadic midrash on the Song of Songs, quoted by Rashi. Simon Duran, in quoting this midrash claims it is from Israel. The sources which it uses are from the Jerusalem Talmud, Pesi\u1e33ta de-Rab Kahana, Genesis Rabbah, Leviticus Rabbah and other no longer extant sources. No direct borrowing from the Babylonian Talmud . It was probably written in the 9th Century.
p47
sS'order'
p48
(lp49
F6
asS'era'
p50
VGN
p51
sS'struct_objs'
p52
(dp53
sS'nodes'
p54
g10
sS'errorMargin'
p55
V10
p56
sS'_title'
p57
g37
sS'categories'
p58
(lp59
VMidrash
p60
aVAggadic Midrash
p61
aVMidrash Rabbah
p62
asS'schema'
p63
(dp64
g17
g18
sg20
g21
sVdepth
p65
I3
sVtitles
p66
(lp67
(dp68
Vlang
p69
Ven
p70
sVtext
p71
VShir Hashirim Rabba
p72
sa(dp73
Vlang
p74
Ven
p75
sVtext
p76
VShir HaShirim Rabba
p77
sa(dp78
Vlang
p79
Ven
p80
sVtext
p81
VShir Hashirim Rabbah
p82
sa(dp83
Vlang
p84
Vhe
p85
sVtext
p86
V\u05e9\u05d9\u05e8 \u05d4\u05e9\u05d9\u05e8\u05d9\u05dd \u05e8\u05d1\u05d4
p87
sVprimary
p88
I01
sa(dp89
Vlang
p90
Ven
p91
sVtext
p92
VShir HaShirim Rabbah
p93
sVprimary
p94
I01
sasVkey
p95
g14
sVsectionNames
p96
(lp97
VParasha
p98
aVPerek
p99
aVMidrash
p100
assbsS'_primary_title'
p101
(dp102
sS'title_group'
p103
g3
(csefaria.model.schema
TitleGroup
p104
g5
NtRp105
(dp106
g101
(dp107
S'en'
p108
g93
ssS'titles'
p109
g67
sbsS'_addressTypes'
p110
(lp111
g3
(csefaria.model.schema
AddressInteger
p112
g5
NtRp113
(dp114
S'length'
p115
Nsg48
I0
sbag3
(g112
g5
NtRp116
(dp117
g115
Nsg48
I1
sbag3
(g112
g5
NtRp118
(dp119
g115
Nsg48
I2
sbasS'sharedTitle'
p120
Nsg65
I3
sS'_full_title'
p121
(dp122
g108
g93
ssS'key'
p123
g14
sS'checkFirst'
p124
NsS'_regexes'
p125
(dp126
sS'_leaf_nodes'
p127
(lp128
sg96
g97
sS'children'
p129
(lp130
sbsS'_range_index'
p131
NsS'_context'
p132
(dp133
sS'_padded'
p134
Nsg26
g28
sS'sections'
p135
(lp136
I1
aI1
aI1
asS'_first_spanned_ref'
p137
NsS'tref'
p138
VShir HaShirim Rabbah 1:1:1
p139
sS'_spanned_refs'
p140
(lp141
sS'book'
p142
g93
sS'_range_depth'
p143
NsS'toSections'
p144
(lp145
I1
aI1
aI1
asS'_url'
p146
NsS'_normal'
p147
g139
sS'_ranged_refs'
p148
(lp149
sS'type'
p150
g60
sS'_prev'
p151
NsS'_he_normal'
p152
NsS'_next'
p153
Nsbag3
(g4
g5
NtRp154
(dp155
g8
g10
sg131
Nsg132
(dp156
sg134
Nsg26
g28
sg135
(lp157
I1
aI1
aI2
asg137
Nsg138
VShir HaShirim Rabbah 1:1:2
p158
sg140
(lp159
sg142
g93
sg143
Nsg144
(lp160
I1
aI1
aI2
asg146
Nsg147
g158
sg148
(lp161
sg150
g60
sg151
Nsg152
Nsg153
Nsbag3
(g4
g5
NtRp162
(dp163
g8
g10
sg131
Nsg132
(dp164
sg134
Nsg26
g28
sg135
(lp165
I1
aI1
aI3
asg137
Nsg138
VShir HaShirim Rabbah 1:1:3
p166
sg140
(lp167
sg142
g93
sg143
Nsg144
(lp168
I1
aI1
aI3
asg146
Nsg147
g166
sg148
(lp169
sg150
g60
sg151
Nsg152
Nsg153
Nsbag3
(g4
g5
NtRp170
(dp171
g8
g10
sg131
Nsg132
(dp172
sg134
Nsg26
g28
sg135
(lp173
I1
aI1
aI4
asg137
Nsg138
VShir HaShirim Rabbah 1:1:4
p174
sg140
(lp175
sg142
g93
sg143
Nsg144
(lp176
I1
aI1
aI4
asg146
Nsg147
g174
sg148
(lp177
sg150
g60
sg151
Nsg152
Nsg153
Nsbag3
(g4
g5
NtRp178
(dp179
g8
g10
sg131
Nsg132
(dp180
sg134
Nsg26
g28
sg135
(lp181
I1
aI1
aI5
asg137
Nsg138
VShir HaShirim Rabbah 1:1:5
p182
sg140
(lp183
sg142
g93
sg143
Nsg144
(lp184
I1
aI1
aI5
asg146
Nsg147
g182
sg148
(lp185
sg150
g60
sg151
Nsg152
Nsg153
Nsbag3
(g4
g5
NtRp186
(dp187
g8
g10
sg131
Nsg132
(dp188
sg134
Nsg26
g28
sg135
(lp189
I1
aI1
aI6
asg137
Nsg138
VShir HaShirim Rabbah 1:1:6
p190
sg140
(lp191
sg142
g93
sg143
Nsg144
(lp192
I1
aI1
aI6
asg146
Nsg147
g190
sg148
(lp193
sg150
g60
sg151
Nsg152
Nsg153
Nsbag3
(g4
g5
NtRp194
(dp195
g8
g10
sg131
Nsg132
(dp196
sg134
Nsg26
g28
sg135
(lp197
I1
aI1
aI7
asg137
Nsg138
VShir HaShirim Rabbah 1:1:7
p198
sg140
(lp199
sg142
g93
sg143
Nsg144
(lp200
I1
aI1
aI7
asg146
Nsg147
g198
sg148
(lp201
sg150
g60
sg151
Nsg152
Nsg153
Nsbag3
(g4
g5
NtRp202
(dp203
g8
g10
sg131
Nsg132
(dp204
sg134
Nsg26
g28
sg135
(lp205
I1
aI1
aI8
asg137
Nsg138
VShir HaShirim Rabbah 1:1:8
p206
sg140
(lp207
sg142
g93
sg143
Nsg144
(lp208
I1
aI1
aI8
asg146
Nsg147
g206
sg148
(lp209
sg150
g60
sg151
Nsg152
Nsg153
Nsbag3
(g4
g5
NtRp210
(dp211
g8
g10
sg131
Nsg132
(dp212
sg134
Nsg26
g28
sg135
(lp213
I1
aI1
aI9
asg137
Nsg138
VShir HaShirim Rabbah 1:1:9
p214
sg140
(lp215
sg142
g93
sg143
Nsg144
(lp216
I1
aI1
aI9
asg146
Nsg147
g214
sg148
(lp217
sg150
g60
sg151
Nsg152
Nsg153
Nsbag3
(g4
g5
NtRp218
(dp219
g8
g10
sg131
Nsg132
(dp220
sg134
Nsg26
g28
sg135
(lp221
I1
aI1
aI10
asg137
Nsg138
VShir HaShirim Rabbah 1:1:10
p222
sg140
(lp223
sg142
g93
sg143
Nsg144
(lp224
I1
aI1
aI10
asg146
Nsg147
g222
sg148
(lp225
sg150
g60
sg151
Nsg152
Nsg153
Nsbag3
(g4
g5
NtRp226
(dp227
g8
g10
sg131
Nsg132
(dp228
sg134
Nsg26
g28
sg135
(lp229
I1
aI1
aI11
asg137
Nsg138
VShir HaShirim Rabbah 1:1:11
p230
sg140
(lp231
sg142
g93
sg143
Nsg144
(lp232
I1
aI1
aI11
asg146
Nsg147
g230
sg148
(lp233
sg150
g60
sg151
Nsg152
Nsg153
Nsbag3
(g4
g5
NtRp234
(dp235
g8
g10
sg131
Nsg132
(dp236
sg134
Nsg26
g28
sg135
(lp237
I1
aI2
aI1
asg137
Nsg138
VShir HaShirim Rabbah 1:2:1
p238
sg140
(lp239
sg142
g93
sg143
Nsg144
(lp240
I1
aI2
aI1
asg146
Nsg147
g238
sg148
(lp241
sg150
g60
sg151
Nsg152
Nsg153
Nsbag3
(g4
g5
NtRp242
(dp243
g8
g10
sg131
Nsg132
(dp244
sg134
Nsg26
g28
sg135
(lp245
I1
aI2
aI2
asg137
Nsg138
VShir HaShirim Rabbah 1:2:2
p246
sg140
(lp247
sg142
g93
sg143
Nsg144
(lp248
I1
aI2
aI2
asg146
Nsg147
g246
sg148
(lp249
sg150
g60
sg151
Nsg152
Nsg153
Nsbag3
(g4
g5
NtRp250
(dp251
g8
g10
sg131
Nsg132
(dp252
sg134
Nsg26
g28
sg135
(lp253
I1
aI2
aI3
asg137
Nsg138
VShir HaShirim Rabbah 1:2:3
p254
sg140
(lp255
sg142
g93
sg143
Nsg144
(lp256
I1
aI2
aI3
asg146
Nsg147
g254
sg148
(lp257
sg150
g60
sg151
Nsg152
Nsg153
Nsbag3
(g4
g5
NtRp258
(dp259
g8
g10
sg131
Nsg132
(dp260
sg134
Nsg26
g28
sg135
(lp261
I1
aI2
aI4
asg137
Nsg138
VShir HaShirim Rabbah 1:2:4
p262
sg140
(lp263
sg142
g93
sg143
Nsg144
(lp264
I1
aI2
aI4
asg146
Nsg147
g262
sg148
(lp265
sg150
g60
sg151
Nsg152
Nsg153
Nsbag3
(g4
g5
NtRp266
(dp267
g8
g10
sg131
Nsg132
(dp268
sg134
Nsg26
g28
sg135
(lp269
I1
aI2
aI5
asg137
Nsg138
VShir HaShirim Rabbah 1:2:5
p270
sg140
(lp271
sg142
g93
sg143
Nsg144
(lp272
I1
aI2
aI5
asg146
Nsg147
g270
sg148
(lp273
sg150
g60
sg151
Nsg152
Nsg153
Nsbag3
(g4
g5
NtRp274
(dp275
g8
g10
sg131
Nsg132
(dp276
sg134
Nsg26
g28
sg135
(lp277
I1
aI2
aI6
asg137
Nsg138
VShir HaShirim Rabbah 1:2:6
p278
sg140
(lp279
sg142
g93
sg143
Nsg144
(lp280
I1
aI2
aI6
asg146
Nsg147
g278
sg148
(lp281
sg150
g60
sg151
Nsg152
Nsg153
Nsbag3
(g4
g5
NtRp282
(dp283
g8
g10
sg131
Nsg132
(dp284
sg134
Nsg26
g28
sg135
(lp285
I1
aI2
aI7
asg137
Nsg138
VShir HaShirim Rabbah 1:2:7
p286
sg140
(lp287
sg142
g93
sg143
Nsg144
(lp288
I1
aI2
aI7
asg146
Nsg147
g286
sg148
(lp289
sg150
g60
sg151
Nsg152
Nsg153
Nsbag3
(g4
g5
NtRp290
(dp291
g8
g10
sg131
Nsg132
(dp292
sg134
Nsg26
g28
sg135
(lp293
I1
aI2
aI8
asg137
Nsg138
VShir HaShirim Rabbah 1:2:8
p294
sg140
(lp295
sg142
g93
sg143
Nsg144
(lp296
I1
aI2
aI8
asg146
Nsg147
g294
sg148
(lp297
sg150
g60
sg151
Nsg152
Nsg153
Nsbag3
(g4
g5
NtRp298
(dp299
g8
g10
sg131
Nsg132
(dp300
sg134
Nsg26
g28
sg135
(lp301
I1
aI3
aI1
asg137
Nsg138
VShir HaShirim Rabbah 1:3:1
p302
sg140
(lp303
sg142
g93
sg143
Nsg144
(lp304
I1
aI3
aI1
asg146
Nsg147
g302
sg148
(lp305
sg150
g60
sg151
Nsg152
Nsg153
Nsbag3
(g4
g5
NtRp306
(dp307
g8
g10
sg131
Nsg132
(dp308
sg134
Nsg26
g28
sg135
(lp309
I1
aI3
aI2
asg137
Nsg138
VShir HaShirim Rabbah 1:3:2
p310
sg140
(lp311
sg142
g93
sg143
Nsg144
(lp312
I1
aI3
aI2
asg146
Nsg147
g310
sg148
(lp313
sg150
g60
sg151
Nsg152
Nsg153
Nsbag3
(g4
g5
NtRp314
(dp315
g8
g10
sg131
Nsg132
(dp316
sg134
Nsg26
g28
sg135
(lp317
I1
aI3
aI3
asg137
Nsg138
VShir HaShirim Rabbah 1:3:3
p318
sg140
(lp319
sg142
g93
sg143
Nsg144
(lp320
I1
aI3
aI3
asg146
Nsg147
g318
sg148
(lp321
sg150
g60
sg151
Nsg152
Nsg153
Nsbag3
(g4
g5
NtRp322
(dp323
g8
g10
sg131
Nsg132
(dp324
sg134
Nsg26
g28
sg135
(lp325
I1
aI4
aI1
asg137
Nsg138
VShir HaShirim Rabbah 1:4:1
p326
sg140
(lp327
sg142
g93
sg143
Nsg144
(lp328
I1
aI4
aI1
asg146
Nsg147
g326
sg148
(lp329
sg150
g60
sg151
Nsg152
Nsg153
Nsbag3
(g4
g5
NtRp330
(dp331
g8
g10
sg131
Nsg132
(dp332
sg134
Nsg26
g28
sg135
(lp333
I1
aI4
aI2
asg137
Nsg138
VShir HaShirim Rabbah 1:4:2
p334
sg140
(lp335
sg142
g93
sg143
Nsg144
(lp336
I1
aI4
aI2
asg146
Nsg147
g334
sg148
(lp337
sg150
g60
sg151
Nsg152
Nsg153
Nsbag3
(g4
g5
NtRp338
(dp339
g8
g10
sg131
Nsg132
(dp340
sg134
Nsg26
g28
sg135
(lp341
I1
aI4
aI3
asg137
Nsg138
VShir HaShirim Rabbah 1:4:3
p342
sg140
(lp343
sg142
g93
sg143
Nsg144
(lp344
I1
aI4
aI3
asg146
Nsg147
g342
sg148
(lp345
sg150
g60
sg151
Nsg152
Nsg153
Nsbag3
(g4
g5
NtRp346
(dp347
g8
g10
sg131
Nsg132
(dp348
sg134
Nsg26
g28
sg135
(lp349
I1
aI4
aI4
asg137
Nsg138
VShir HaShirim Rabbah 1:4:4
p350
sg140
(lp351
sg142
g93
sg143
Nsg144
(lp352
I1
aI4
aI4
asg146
Nsg147
g350
sg148
(lp353
sg150
g60
sg151
Nsg152
Nsg153
Nsbag3
(g4
g5
NtRp354
(dp355
g8
g10
sg131
Nsg132
(dp356
sg134
Nsg26
g28
sg135
(lp357
I1
aI4
aI5
asg137
Nsg138
VShir HaShirim Rabbah 1:4:5
p358
sg140
(lp359
sg142
g93
sg143
Nsg144
(lp360
I1
aI4
aI5
asg146
Nsg147
g358
sg148
(lp361
sg150
g60
sg151
Nsg152
Nsg153
Nsbag3
(g4
g5
NtRp362
(dp363
g8
g10
sg131
Nsg132
(dp364
sg134
Nsg26
g28
sg135
(lp365
I1
aI4
aI6
asg137
Nsg138
VShir HaShirim Rabbah 1:4:6
p366
sg140
(lp367
sg142
g93
sg143
Nsg144
(lp368
I1
aI4
aI6
asg146
Nsg147
g366
sg148
(lp369
sg150
g60
sg151
Nsg152
Nsg153
Nsbag3
(g4
g5
NtRp370
(dp371
g8
g10
sg131
Nsg132
(dp372
sg134
Nsg26
g28
sg135
(lp373
I1
aI4
aI7
asg137
Nsg138
VShir HaShirim Rabbah 1:4:7
p374
sg140
(lp375
sg142
g93
sg143
Nsg144
(lp376
I1
aI4
aI7
asg146
Nsg147
g374
sg148
(lp377
sg150
g60
sg151
Nsg152
Nsg153
Nsbag3
(g4
g5
NtRp378
(dp379
g8
g10
sg131
Nsg132
(dp380
sg134
Nsg26
g28
sg135
(lp381
I1
aI4
aI8
asg137
Nsg138
VShir HaShirim Rabbah 1:4:8
p382
sg140
(lp383
sg142
g93
sg143
Nsg144
(lp384
I1
aI4
aI8
asg146
Nsg147
g382
sg148
(lp385
sg150
g60
sg151
Nsg152
Nsg153
Nsbag3
(g4
g5
NtRp386
(dp387
g8
g10
sg131
Nsg132
(dp388
sg134
Nsg26
g28
sg135
(lp389
I1
aI4
aI9
asg137
Nsg138
VShir HaShirim Rabbah 1:4:9
p390
sg140
(lp391
sg142
g93
sg143
Nsg144
(lp392
I1
aI4
aI9
asg146
Nsg147
g390
sg148
(lp393
sg150
g60
sg151
Nsg152
Nsg153
Nsbag3
(g4
g5
NtRp394
(dp395
g8
g10
sg131
Nsg132
(dp396
sg134
Nsg26
g28
sg135
(lp397
I1
aI4
aI10
asg137
Nsg138
VShir HaShirim Rabbah 1:4:10
p398
sg140
(lp399
sg142
g93
sg143
Nsg144
(lp400
I1
aI4
aI10
asg146
Nsg147
g398
sg148
(lp401
sg150
g60
sg151
Nsg152
Nsg153
Nsbag3
(g4
g5
NtRp402
(dp403
g8
g10
sg131
Nsg132
(dp404
sg134
Nsg26
g28
sg135
(lp405
I1
aI4
aI11
asg137
Nsg138
VShir HaShirim Rabbah 1:4:11
p406
sg140
(lp407
sg142
g93
sg143
Nsg144
(lp408
I1
aI4
aI11
asg146
Nsg147
g406
sg148
(lp409
sg150
g60
sg151
Nsg152
Nsg153
Nsbag3
(g4
g5
NtRp410
(dp411
g8
g10
sg131
Nsg132
(dp412
sg134
Nsg26
g28
sg135
(lp413
I1
aI4
aI12
asg137
Nsg138
VShir HaShirim Rabbah 1:4:12
p414
sg140
(lp415
sg142
g93
sg143
Nsg144
(lp416
I1
aI4
aI12
asg146
Nsg147
g414
sg148
(lp417
sg150
g60
sg151
Nsg152
Nsg153
Nsbag3
(g4
g5
NtRp418
(dp419
g8
g10
sg131
Nsg132
(dp420
sg134
Nsg26
g28
sg135
(lp421
I1
aI5
aI1
asg137
Nsg138
VShir HaShirim Rabbah 1:5:1
p422
sg140
(lp423
sg142
g93
sg143
Nsg144
(lp424
I1
aI5
aI1
asg146
Nsg147
g422
sg148
(lp425
sg150
g60
sg151
Nsg152
Nsg153
Nsbag3
(g4
g5
NtRp426
(dp427
g8
g10
sg131
Nsg132
(dp428
sg134
Nsg26
g28
sg135
(lp429
I1
aI5
aI2
asg137
Nsg138
VShir HaShirim Rabbah 1:5:2
p430
sg140
(lp431
sg142
g93
sg143
Nsg144
(lp432
I1
aI5
aI2
asg146
Nsg147
g430
sg148
(lp433
sg150
g60
sg151
Nsg152
Nsg153
Nsbag3
(g4
g5
NtRp434
(dp435
g8
g10
sg131
Nsg132
(dp436
sg134
Nsg26
g28
sg135
(lp437
I1
aI5
aI3
asg137
Nsg138
VShir HaShirim Rabbah 1:5:3
p438
sg140
(lp439
sg142
g93
sg143
Nsg144
(lp440
I1
aI5
aI3
asg146
Nsg147
g438
sg148
(lp441
sg150
g60
sg151
Nsg152
Nsg153
Nsbag3
(g4
g5
NtRp442
(dp443
g8
g10
sg131
Nsg132
(dp444
sg134
Nsg26
g28
sg135
(lp445
I1
aI5
aI4
asg137
Nsg138
VShir HaShirim Rabbah 1:5:4
p446
sg140
(lp447
sg142
g93
sg143
Nsg144
(lp448
I1
aI5
aI4
asg146
Nsg147
g446
sg148
(lp449
sg150
g60
sg151
Nsg152
Nsg153
Nsbag3
(g4
g5
NtRp450
(dp451
g8
g10
sg131
Nsg132
(dp452
sg134
Nsg26
g28
sg135
(lp453
I1
aI6
aI1
asg137
Nsg138
VShir HaShirim Rabbah 1:6:1
p454
sg140
(lp455
sg142
g93
sg143
Nsg144
(lp456
I1
aI6
aI1
asg146
Nsg147
g454
sg148
(lp457
sg150
g60
sg151
Nsg152
Nsg153
Nsbag3
(g4
g5
NtRp458
(dp459
g8
g10
sg131
Nsg132
(dp460
sg134
Nsg26
g28
sg135
(lp461
I1
aI6
aI2
asg137
Nsg138
VShir HaShirim Rabbah 1:6:2
p462
sg140
(lp463
sg142
g93
sg143
Nsg144
(lp464
I1
aI6
aI2
asg146
Nsg147
g462
sg148
(lp465
sg150
g60
sg151
Nsg152
Nsg153
Nsbag3
(g4
g5
NtRp466
(dp467
g8
g10
sg131
Nsg132
(dp468
sg134
Nsg26
g28
sg135
(lp469
I1
aI6
aI3
asg137
Nsg138
VShir HaShirim Rabbah 1:6:3
p470
sg140
(lp471
sg142
g93
sg143
Nsg144
(lp472
I1
aI6
aI3
asg146
Nsg147
g470
sg148
(lp473
sg150
g60
sg151
Nsg152
Nsg153
Nsbag3
(g4
g5
NtRp474
(dp475
g8
g10
sg131
Nsg132
(dp476
sg134
Nsg26
g28
sg135
(lp477
I1
aI6
aI4
asg137
Nsg138
VShir HaShirim Rabbah 1:6:4
p478
sg140
(lp479
sg142
g93
sg143
Nsg144
(lp480
I1
aI6
aI4
asg146
Nsg147
g478
sg148
(lp481
sg150
g60
sg151
Nsg152
Nsg153
Nsbag3
(g4
g5
NtRp482
(dp483
g8
g10
sg131
Nsg132
(dp484
sg134
Nsg26
g28
sg135
(lp485
I1
aI6
aI5
asg137
Nsg138
VShir HaShirim Rabbah 1:6:5
p486
sg140
(lp487
sg142
g93
sg143
Nsg144
(lp488
I1
aI6
aI5
asg146
Nsg147
g486
sg148
(lp489
sg150
g60
sg151
Nsg152
Nsg153
Nsbag3
(g4
g5
NtRp490
(dp491
g8
g10
sg131
Nsg132
(dp492
sg134
Nsg26
g28
sg135
(lp493
I1
aI7
aI1
asg137
Nsg138
VShir HaShirim Rabbah 1:7:1
p494
sg140
(lp495
sg142
g93
sg143
Nsg144
(lp496
I1
aI7
aI1
asg146
Nsg147
g494
sg148
(lp497
sg150
g60
sg151
Nsg152
Nsg153
Nsbag3
(g4
g5
NtRp498
(dp499
g8
g10
sg131
Nsg132
(dp500
sg134
Nsg26
g28
sg135
(lp501
I1
aI7
aI2
asg137
Nsg138
VShir HaShirim Rabbah 1:7:2
p502
sg140
(lp503
sg142
g93
sg143
Nsg144
(lp504
I1
aI7
aI2
asg146
Nsg147
g502
sg148
(lp505
sg150
g60
sg151
Nsg152
Nsg153
Nsbag3
(g4
g5
NtRp506
(dp507
g8
g10
sg131
Nsg132
(dp508
sg134
Nsg26
g28
sg135
(lp509
I1
aI8
aI1
asg137
Nsg138
VShir HaShirim Rabbah 1:8:1
p510
sg140
(lp511
sg142
g93
sg143
Nsg144
(lp512
I1
aI8
aI1
asg146
Nsg147
g510
sg148
(lp513
sg150
g60
sg151
Nsg152
Nsg153
Nsbag3
(g4
g5
NtRp514
(dp515
g8
g10
sg131
Nsg132
(dp516
sg134
Nsg26
g28
sg135
(lp517
I1
aI9
aI1
asg137
Nsg138
VShir HaShirim Rabbah 1:9:1
p518
sg140
(lp519
sg142
g93
sg143
Nsg144
(lp520
I1
aI9
aI1
asg146
Nsg147
g518
sg148
(lp521
sg150
g60
sg151
Nsg152
Nsg153
Nsbag3
(g4
g5
NtRp522
(dp523
g8
g10
sg131
Nsg132
(dp524
sg134
Nsg26
g28
sg135
(lp525
I1
aI9
aI2
asg137
Nsg138
VShir HaShirim Rabbah 1:9:2
p526
sg140
(lp527
sg142
g93
sg143
Nsg144
(lp528
I1
aI9
aI2
asg146
Nsg147
g526
sg148
(lp529
sg150
g60
sg151
Nsg152
Nsg153
Nsbag3
(g4
g5
NtRp530
(dp531
g8
g10
sg131
Nsg132
(dp532
sg134
Nsg26
g28
sg135
(lp533
I1
aI9
aI3
asg137
Nsg138
VShir HaShirim Rabbah 1:9:3
p534
sg140
(lp535
sg142
g93
sg143
Nsg144
(lp536
I1
aI9
aI3
asg146
Nsg147
g534
sg148
(lp537
sg150
g60
sg151
Nsg152
Nsg153
Nsbag3
(g4
g5
NtRp538
(dp539
g8
g10
sg131
Nsg132
(dp540
sg134
Nsg26
g28
sg135
(lp541
I1
aI9
aI4
asg137
Nsg138
VShir HaShirim Rabbah 1:9:4
p542
sg140
(lp543
sg142
g93
sg143
Nsg144
(lp544
I1
aI9
aI4
asg146
Nsg147
g542
sg148
(lp545
sg150
g60
sg151
Nsg152
Nsg153
Nsbag3
(g4
g5
NtRp546
(dp547
g8
g10
sg131
Nsg132
(dp548
sg134
Nsg26
g28
sg135
(lp549
I1
aI9
aI5
asg137
Nsg138
VShir HaShirim Rabbah 1:9:5
p550
sg140
(lp551
sg142
g93
sg143
Nsg144
(lp552
I1
aI9
aI5
asg146
Nsg147
g550
sg148
(lp553
sg150
g60
sg151
Nsg152
Nsg153
Nsbag3
(g4
g5
NtRp554
(dp555
g8
g10
sg131
Nsg132
(dp556
sg134
Nsg26
g28
sg135
(lp557
I1
aI9
aI6
asg137
Nsg138
VShir HaShirim Rabbah 1:9:6
p558
sg140
(lp559
sg142
g93
sg143
Nsg144
(lp560
I1
aI9
aI6
asg146
Nsg147
g558
sg148
(lp561
sg150
g60
sg151
Nsg152
Nsg153
Nsbag3
(g4
g5
NtRp562
(dp563
g8
g10
sg131
Nsg132
(dp564
sg134
Nsg26
g28
sg135
(lp565
I1
aI10
aI1
asg137
Nsg138
VShir HaShirim Rabbah 1:10:1
p566
sg140
(lp567
sg142
g93
sg143
Nsg144
(lp568
I1
aI10
aI1
asg146
Nsg147
g566
sg148
(lp569
sg150
g60
sg151
Nsg152
Nsg153
Nsbag3
(g4
g5
NtRp570
(dp571
g8
g10
sg131
Nsg132
(dp572
sg134
Nsg26
g28
sg135
(lp573
I1
aI10
aI2
asg137
Nsg138
VShir HaShirim Rabbah 1:10:2
p574
sg140
(lp575
sg142
g93
sg143
Nsg144
(lp576
I1
aI10
aI2
asg146
Nsg147
g574
sg148
(lp577
sg150
g60
sg151
Nsg152
Nsg153
Nsbag3
(g4
g5
NtRp578
(dp579
g8
g10
sg131
Nsg132
(dp580
sg134
Nsg26
g28
sg135
(lp581
I1
aI10
aI3
asg137
Nsg138
VShir HaShirim Rabbah 1:10:3
p582
sg140
(lp583
sg142
g93
sg143
Nsg144
(lp584
I1
aI10
aI3
asg146
Nsg147
g582
sg148
(lp585
sg150
g60
sg151
Nsg152
Nsg153
Nsbag3
(g4
g5
NtRp586
(dp587
g8
g10
sg131
Nsg132
(dp588
sg134
Nsg26
g28
sg135
(lp589
I1
aI11
aI1
asg137
Nsg138
VShir HaShirim Rabbah 1:11:1
p590
sg140
(lp591
sg142
g93
sg143
Nsg144
(lp592
I1
aI11
aI1
asg146
Nsg147
g590
sg148
(lp593
sg150
g60
sg151
Nsg152
Nsg153
Nsbag3
(g4
g5
NtRp594
(dp595
g8
g10
sg131
Nsg132
(dp596
sg134
Nsg26
g28
sg135
(lp597
I1
aI12
aI1
asg137
Nsg138
VShir HaShirim Rabbah 1:12:1
p598
sg140
(lp599
sg142
g93
sg143
Nsg144
(lp600
I1
aI12
aI1
asg146
Nsg147
g598
sg148
(lp601
sg150
g60
sg151
Nsg152
Nsg153
Nsbag3
(g4
g5
NtRp602
(dp603
g8
g10
sg131
Nsg132
(dp604
sg134
Nsg26
g28
sg135
(lp605
I1
aI12
aI2
asg137
Nsg138
VShir HaShirim Rabbah 1:12:2
p606
sg140
(lp607
sg142
g93
sg143
Nsg144
(lp608
I1
aI12
aI2
asg146
Nsg147
g606
sg148
(lp609
sg150
g60
sg151
Nsg152
Nsg153
Nsbag3
(g4
g5
NtRp610
(dp611
g8
g10
sg131
Nsg132
(dp612
sg134
Nsg26
g28
sg135
(lp613
I1
aI12
aI3
asg137
Nsg138
VShir HaShirim Rabbah 1:12:3
p614
sg140
(lp615
sg142
g93
sg143
Nsg144
(lp616
I1
aI12
aI3
asg146
Nsg147
g614
sg148
(lp617
sg150
g60
sg151
Nsg152
Nsg153
Nsbag3
(g4
g5
NtRp618
(dp619
g8
g10
sg131
Nsg132
(dp620
sg134
Nsg26
g28
sg135
(lp621
I1
aI13
aI1
asg137
Nsg138
VShir HaShirim Rabbah 1:13:1
p622
sg140
(lp623
sg142
g93
sg143
Nsg144
(lp624
I1
aI13
aI1
asg146
Nsg147
g622
sg148
(lp625
sg150
g60
sg151
Nsg152
Nsg153
Nsbag3
(g4
g5
NtRp626
(dp627
g8
g10
sg131
Nsg132
(dp628
sg134
Nsg26
g28
sg135
(lp629
I1
aI14
aI1
asg137
Nsg138
VShir HaShirim Rabbah 1:14:1
p630
sg140
(lp631
sg142
g93
sg143
Nsg144
(lp632
I1
aI14
aI1
asg146
Nsg147
g630
sg148
(lp633
sg150
g60
sg151
Nsg152
Nsg153
Nsbag3
(g4
g5
NtRp634
(dp635
g8
g10
sg131
Nsg132
(dp636
sg134
Nsg26
g28
sg135
(lp637
I1
aI14
aI2
asg137
Nsg138
VShir HaShirim Rabbah 1:14:2
p638
sg140
(lp639
sg142
g93
sg143
Nsg144
(lp640
I1
aI14
aI2
asg146
Nsg147
g638
sg148
(lp641
sg150
g60
sg151
Nsg152
Nsg153
Nsbag3
(g4
g5
NtRp642
(dp643
g8
g10
sg131
Nsg132
(dp644
sg134
Nsg26
g28
sg135
(lp645
I1
aI14
aI3
asg137
Nsg138
VShir HaShirim Rabbah 1:14:3
p646
sg140
(lp647
sg142
g93
sg143
Nsg144
(lp648
I1
aI14
aI3
asg146
Nsg147
g646
sg148
(lp649
sg150
g60
sg151
Nsg152
Nsg153
Nsbag3
(g4
g5
NtRp650
(dp651
g8
g10
sg131
Nsg132
(dp652
sg134
Nsg26
g28
sg135
(lp653
I1
aI15
aI1
asg137
Nsg138
VShir HaShirim Rabbah 1:15:1
p654
sg140
(lp655
sg142
g93
sg143
Nsg144
(lp656
I1
aI15
aI1
asg146
Nsg147
g654
sg148
(lp657
sg150
g60
sg151
Nsg152
Nsg153
Nsbag3
(g4
g5
NtRp658
(dp659
g8
g10
sg131
Nsg132
(dp660
sg134
Nsg26
g28
sg135
(lp661
I1
aI15
aI2
asg137
Nsg138
VShir HaShirim Rabbah 1:15:2
p662
sg140
(lp663
sg142
g93
sg143
Nsg144
(lp664
I1
aI15
aI2
asg146
Nsg147
g662
sg148
(lp665
sg150
g60
sg151
Nsg152
Nsg153
Nsbag3
(g4
g5
NtRp666
(dp667
g8
g10
sg131
Nsg132
(dp668
sg134
Nsg26
g28
sg135
(lp669
I1
aI15
aI3
asg137
Nsg138
VShir HaShirim Rabbah 1:15:3
p670
sg140
(lp671
sg142
g93
sg143
Nsg144
(lp672
I1
aI15
aI3
asg146
Nsg147
g670
sg148
(lp673
sg150
g60
sg151
Nsg152
Nsg153
Nsbag3
(g4
g5
NtRp674
(dp675
g8
g10
sg131
Nsg132
(dp676
sg134
Nsg26
g28
sg135
(lp677
I1
aI15
aI4
asg137
Nsg138
VShir HaShirim Rabbah 1:15:4
p678
sg140
(lp679
sg142
g93
sg143
Nsg144
(lp680
I1
aI15
aI4
asg146
Nsg147
g678
sg148
(lp681
sg150
g60
sg151
Nsg152
Nsg153
Nsbag3
(g4
g5
NtRp682
(dp683
g8
g10
sg131
Nsg132
(dp684
sg134
Nsg26
g28
sg135
(lp685
I1
aI16
aI1
asg137
Nsg138
VShir HaShirim Rabbah 1:16:1
p686
sg140
(lp687
sg142
g93
sg143
Nsg144
(lp688
I1
aI16
aI1
asg146
Nsg147
g686
sg148
(lp689
sg150
g60
sg151
Nsg152
Nsg153
Nsbag3
(g4
g5
NtRp690
(dp691
g8
g10
sg131
Nsg132
(dp692
sg134
Nsg26
g28
sg135
(lp693
I1
aI16
aI2
asg137
Nsg138
VShir HaShirim Rabbah 1:16:2
p694
sg140
(lp695
sg142
g93
sg143
Nsg144
(lp696
I1
aI16
aI2
asg146
Nsg147
g694
sg148
(lp697
sg150
g60
sg151
Nsg152
Nsg153
Nsbag3
(g4
g5
NtRp698
(dp699
g8
g10
sg131
Nsg132
(dp700
sg134
Nsg26
g28
sg135
(lp701
I1
aI16
aI3
asg137
Nsg138
VShir HaShirim Rabbah 1:16:3
p702
sg140
(lp703
sg142
g93
sg143
Nsg144
(lp704
I1
aI16
aI3
asg146
Nsg147
g702
sg148
(lp705
sg150
g60
sg151
Nsg152
Nsg153
Nsbag3
(g4
g5
NtRp706
(dp707
g8
g10
sg131
Nsg132
(dp708
sg134
Nsg26
g28
sg135
(lp709
I1
aI17
aI1
asg137
Nsg138
VShir HaShirim Rabbah 1:17:1
p710
sg140
(lp711
sg142
g93
sg143
Nsg144
(lp712
I1
aI17
aI1
asg146
Nsg147
g710
sg148
(lp713
sg150
g60
sg151
Nsg152
Nsg153
Nsbag3
(g4
g5
NtRp714
(dp715
g8
g10
sg131
Nsg132
(dp716
sg134
Nsg26
g28
sg135
(lp717
I1
aI17
aI2
asg137
Nsg138
VShir HaShirim Rabbah 1:17:2
p718
sg140
(lp719
sg142
g93
sg143
Nsg144
(lp720
I1
aI17
aI2
asg146
Nsg147
g718
sg148
(lp721
sg150
g60
sg151
Nsg152
Nsg153
Nsbag3
(g4
g5
NtRp722
(dp723
g8
g10
sg131
Nsg132
(dp724
sg134
Nsg26
g28
sg135
(lp725
I2
aI1
aI1
asg137
Nsg138
VShir HaShirim Rabbah 2:1:1
p726
sg140
(lp727
sg142
g93
sg143
Nsg144
(lp728
I2
aI1
aI1
asg146
Nsg147
g726
sg148
(lp729
sg150
g60
sg151
Nsg152
Nsg153
Nsbag3
(g4
g5
NtRp730
(dp731
g8
g10
sg131
Nsg132
(dp732
sg134
Nsg26
g28
sg135
(lp733
I2
aI1
aI2
asg137
Nsg138
VShir HaShirim Rabbah 2:1:2
p734
sg140
(lp735
sg142
g93
sg143
Nsg144
(lp736
I2
aI1
aI2
asg146
Nsg147
g734
sg148
(lp737
sg150
g60
sg151
Nsg152
Nsg153
Nsbag3
(g4
g5
NtRp738
(dp739
g8
g10
sg131
Nsg132
(dp740
sg134
Nsg26
g28
sg135
(lp741
I2
aI1
aI3
asg137
Nsg138
VShir HaShirim Rabbah 2:1:3
p742
sg140
(lp743
sg142
g93
sg143
Nsg144
(lp744
I2
aI1
aI3
asg146
Nsg147
g742
sg148
(lp745
sg150
g60
sg151
Nsg152
Nsg153
Nsbag3
(g4
g5
NtRp746
(dp747
g8
g10
sg131
Nsg132
(dp748
sg134
Nsg26
g28
sg135
(lp749
I2
aI2
aI1
asg137
Nsg138
VShir HaShirim Rabbah 2:2:1
p750
sg140
(lp751
sg142
g93
sg143
Nsg144
(lp752
I2
aI2
aI1
asg146
Nsg147
g750
sg148
(lp753
sg150
g60
sg151
Nsg152
Nsg153
Nsbag3
(g4
g5
NtRp754
(dp755
g8
g10
sg131
Nsg132
(dp756
sg134
Nsg26
g28
sg135
(lp757
I2
aI2
aI2
asg137
Nsg138
VShir HaShirim Rabbah 2:2:2
p758
sg140
(lp759
sg142
g93
sg143
Nsg144
(lp760
I2
aI2
aI2
asg146
Nsg147
g758
sg148
(lp761
sg150
g60
sg151
Nsg152
Nsg153
Nsbag3
(g4
g5
NtRp762
(dp763
g8
g10
sg131
Nsg132
(dp764
sg134
Nsg26
g28
sg135
(lp765
I2
aI2
aI3
asg137
Nsg138
VShir HaShirim Rabbah 2:2:3
p766
sg140
(lp767
sg142
g93
sg143
Nsg144
(lp768
I2
aI2
aI3
asg146
Nsg147
g766
sg148
(lp769
sg150
g60
sg151
Nsg152
Nsg153
Nsbag3
(g4
g5
NtRp770
(dp771
g8
g10
sg131
Nsg132
(dp772
sg134
Nsg26
g28
sg135
(lp773
I2
aI2
aI4
asg137
Nsg138
VShir HaShirim Rabbah 2:2:4
p774
sg140
(lp775
sg142
g93
sg143
Nsg144
(lp776
I2
aI2
aI4
asg146
Nsg147
g774
sg148
(lp777
sg150
g60
sg151
Nsg152
Nsg153
Nsbag3
(g4
g5
NtRp778
(dp779
g8
g10
sg131
Nsg132
(dp780
sg134
Nsg26
g28
sg135
(lp781
I2
aI2
aI5
asg137
Nsg138
VShir HaShirim Rabbah 2:2:5
p782
sg140
(lp783
sg142
g93
sg143
Nsg144
(lp784
I2
aI2
aI5
asg146
Nsg147
g782
sg148
(lp785
sg150
g60
sg151
Nsg152
Nsg153
Nsbag3
(g4
g5
NtRp786
(dp787
g8
g10
sg131
Nsg132
(dp788
sg134
Nsg26
g28
sg135
(lp789
I2
aI2
aI6
asg137
Nsg138
VShir HaShirim Rabbah 2:2:6
p790
sg140
(lp791
sg142
g93
sg143
Nsg144
(lp792
I2
aI2
aI6
asg146
Nsg147
g790
sg148
(lp793
sg150
g60
sg151
Nsg152
Nsg153
Nsbag3
(g4
g5
NtRp794
(dp795
g8
g10
sg131
Nsg132
(dp796
sg134
Nsg26
g28
sg135
(lp797
I2
aI3
aI1
asg137
Nsg138
VShir HaShirim Rabbah 2:3:1
p798
sg140
(lp799
sg142
g93
sg143
Nsg144
(lp800
I2
aI3
aI1
asg146
Nsg147
g798
sg148
(lp801
sg150
g60
sg151
Nsg152
Nsg153
Nsbag3
(g4
g5
NtRp802
(dp803
g8
g10
sg131
Nsg132
(dp804
sg134
Nsg26
g28
sg135
(lp805
I2
aI3
aI2
asg137
Nsg138
VShir HaShirim Rabbah 2:3:2
p806
sg140
(lp807
sg142
g93
sg143
Nsg144
(lp808
I2
aI3
aI2
asg146
Nsg147
g806
sg148
(lp809
sg150
g60
sg151
Nsg152
Nsg153
Nsbag3
(g4
g5
NtRp810
(dp811
g8
g10
sg131
Nsg132
(dp812
sg134
Nsg26
g28
sg135
(lp813
I2
aI3
aI3
asg137
Nsg138
VShir HaShirim Rabbah 2:3:3
p814
sg140
(lp815
sg142
g93
sg143
Nsg144
(lp816
I2
aI3
aI3
asg146
Nsg147
g814
sg148
(lp817
sg150
g60
sg151
Nsg152
Nsg153
Nsbag3
(g4
g5
NtRp818
(dp819
g8
g10
sg131
Nsg132
(dp820
sg134
Nsg26
g28
sg135
(lp821
I2
aI3
aI4
asg137
Nsg138
VShir HaShirim Rabbah 2:3:4
p822
sg140
(lp823
sg142
g93
sg143
Nsg144
(lp824
I2
aI3
aI4
asg146
Nsg147
g822
sg148
(lp825
sg150
g60
sg151
Nsg152
Nsg153
Nsbag3
(g4
g5
NtRp826
(dp827
g8
g10
sg131
Nsg132
(dp828
sg134
Nsg26
g28
sg135
(lp829
I2
aI3
aI5
asg137
Nsg138
VShir HaShirim Rabbah 2:3:5
p830
sg140
(lp831
sg142
g93
sg143
Nsg144
(lp832
I2
aI3
aI5
asg146
Nsg147
g830
sg148
(lp833
sg150
g60
sg151
Nsg152
Nsg153
Nsbag3
(g4
g5
NtRp834
(dp835
g8
g10
sg131
Nsg132
(dp836
sg134
Nsg26
g28
sg135
(lp837
I2
aI3
aI6
asg137
Nsg138
VShir HaShirim Rabbah 2:3:6
p838
sg140
(lp839
sg142
g93
sg143
Nsg144
(lp840
I2
aI3
aI6
asg146
Nsg147
g838
sg148
(lp841
sg150
g60
sg151
Nsg152
Nsg153
Nsbag3
(g4
g5
NtRp842
(dp843
g8
g10
sg131
Nsg132
(dp844
sg134
Nsg26
g28
sg135
(lp845
I2
aI4
aI1
asg137
Nsg138
VShir HaShirim Rabbah 2:4:1
p846
sg140
(lp847
sg142
g93
sg143
Nsg144
(lp848
I2
aI4
aI1
asg146
Nsg147
g846
sg148
(lp849
sg150
g60
sg151
Nsg152
Nsg153
Nsbag3
(g4
g5
NtRp850
(dp851
g8
g10
sg131
Nsg132
(dp852
sg134
Nsg26
g28
sg135
(lp853
I2
aI5
aI1
asg137
Nsg138
VShir HaShirim Rabbah 2:5:1
p854
sg140
(lp855
sg142
g93
sg143
Nsg144
(lp856
I2
aI5
aI1
asg146
Nsg147
g854
sg148
(lp857
sg150
g60
sg151
Nsg152
Nsg153
Nsbag3
(g4
g5
NtRp858
(dp859
g8
g10
sg131
Nsg132
(dp860
sg134
Nsg26
g28
sg135
(lp861
I2
aI5
aI2
asg137
Nsg138
VShir HaShirim Rabbah 2:5:2
p862
sg140
(lp863
sg142
g93
sg143
Nsg144
(lp864
I2
aI5
aI2
asg146
Nsg147
g862
sg148
(lp865
sg150
g60
sg151
Nsg152
Nsg153
Nsbag3
(g4
g5
NtRp866
(dp867
g8
g10
sg131
Nsg132
(dp868
sg134
Nsg26
g28
sg135
(lp869
I2
aI5
aI3
asg137
Nsg138
VShir HaShirim Rabbah 2:5:3
p870
sg140
(lp871
sg142
g93
sg143
Nsg144
(lp872
I2
aI5
aI3
asg146
Nsg147
g870
sg148
(lp873
sg150
g60
sg151
Nsg152
Nsg153
Nsbag3
(g4
g5
NtRp874
(dp875
g8
g10
sg131
Nsg132
(dp876
sg134
Nsg26
g28
sg135
(lp877
I2
aI6
aI1
asg137
Nsg138
VShir HaShirim Rabbah 2:6:1
p878
sg140
(lp879
sg142
g93
sg143
Nsg144
(lp880
I2
aI6
aI1
asg146
Nsg147
g878
sg148
(lp881
sg150
g60
sg151
Nsg152
Nsg153
Nsbag3
(g4
g5
NtRp882
(dp883
g8
g10
sg131
Nsg132
(dp884
sg134
Nsg26
g28
sg135
(lp885
I2
aI7
aI1
asg137
Nsg138
VShir HaShirim Rabbah 2:7:1
p886
sg140
(lp887
sg142
g93
sg143
Nsg144
(lp888
I2
aI7
aI1
asg146
Nsg147
g886
sg148
(lp889
sg150
g60
sg151
Nsg152
Nsg153
Nsbag3
(g4
g5
NtRp890
(dp891
g8
g10
sg131
Nsg132
(dp892
sg134
Nsg26
g28
sg135
(lp893
I2
aI8
aI1
asg137
Nsg138
VShir HaShirim Rabbah 2:8:1
p894
sg140
(lp895
sg142
g93
sg143
Nsg144
(lp896
I2
aI8
aI1
asg146
Nsg147
g894
sg148
(lp897
sg150
g60
sg151
Nsg152
Nsg153
Nsbag3
(g4
g5
NtRp898
(dp899
g8
g10
sg131
Nsg132
(dp900
sg134
Nsg26
g28
sg135
(lp901
I2
aI8
aI2
asg137
Nsg138
VShir HaShirim Rabbah 2:8:2
p902
sg140
(lp903
sg142
g93
sg143
Nsg144
(lp904
I2
aI8
aI2
asg146
Nsg147
g902
sg148
(lp905
sg150
g60
sg151
Nsg152
Nsg153
Nsbag3
(g4
g5
NtRp906
(dp907
g8
g10
sg131
Nsg132
(dp908
sg134
Nsg26
g28
sg135
(lp909
I2
aI9
aI1
asg137
Nsg138
VShir HaShirim Rabbah 2:9:1
p910
sg140
(lp911
sg142
g93
sg143
Nsg144
(lp912
I2
aI9
aI1
asg146
Nsg147
g910
sg148
(lp913
sg150
g60
sg151
Nsg152
Nsg153
Nsbag3
(g4
g5
NtRp914
(dp915
g8
g10
sg131
Nsg132
(dp916
sg134
Nsg26
g28
sg135
(lp917
I2
aI9
aI2
asg137
Nsg138
VShir HaShirim Rabbah 2:9:2
p918
sg140
(lp919
sg142
g93
sg143
Nsg144
(lp920
I2
aI9
aI2
asg146
Nsg147
g918
sg148
(lp921
sg150
g60
sg151
Nsg152
Nsg153
Nsbag3
(g4
g5
NtRp922
(dp923
g8
g10
sg131
Nsg132
(dp924
sg134
Nsg26
g28
sg135
(lp925
I2
aI9
aI3
asg137
Nsg138
VShir HaShirim Rabbah 2:9:3
p926
sg140
(lp927
sg142
g93
sg143
Nsg144
(lp928
I2
aI9
aI3
asg146
Nsg147
g926
sg148
(lp929
sg150
g60
sg151
Nsg152
Nsg153
Nsbag3
(g4
g5
NtRp930
(dp931
g8
g10
sg131
Nsg132
(dp932
sg134
Nsg26
g28
sg135
(lp933
I2
aI9
aI4
asg137
Nsg138
VShir HaShirim Rabbah 2:9:4
p934
sg140
(lp935
sg142
g93
sg143
Nsg144
(lp936
I2
aI9
aI4
asg146
Nsg147
g934
sg148
(lp937
sg150
g60
sg151
Nsg152
Nsg153
Nsbag3
(g4
g5
NtRp938
(dp939
g8
g10
sg131
Nsg132
(dp940
sg134
Nsg26
g28
sg135
(lp941
I2
aI9
aI5
asg137
Nsg138
VShir HaShirim Rabbah 2:9:5
p942
sg140
(lp943
sg142
g93
sg143
Nsg144
(lp944
I2
aI9
aI5
asg146
Nsg147
g942
sg148
(lp945
sg150
g60
sg151
Nsg152
Nsg153
Nsbag3
(g4
g5
NtRp946
(dp947
g8
g10
sg131
Nsg132
(dp948
sg134
Nsg26
g28
sg135
(lp949
I2
aI11
aI1
asg137
Nsg138
VShir HaShirim Rabbah 2:11:1
p950
sg140
(lp951
sg142
g93
sg143
Nsg144
(lp952
I2
aI11
aI1
asg146
Nsg147
g950
sg148
(lp953
sg150
g60
sg151
Nsg152
Nsg153
Nsbag3
(g4
g5
NtRp954
(dp955
g8
g10
sg131
Nsg132
(dp956
sg134
Nsg26
g28
sg135
(lp957
I2
aI12
aI1
asg137
Nsg138
VShir HaShirim Rabbah 2:12:1
p958
sg140
(lp959
sg142
g93
sg143
Nsg144
(lp960
I2
aI12
aI1
asg146
Nsg147
g958
sg148
(lp961
sg150
g60
sg151
Nsg152
Nsg153
Nsbag3
(g4
g5
NtRp962
(dp963
g8
g10
sg131
Nsg132
(dp964
sg134
Nsg26
g28
sg135
(lp965
I2
aI13
aI1
asg137
Nsg138
VShir HaShirim Rabbah 2:13:1
p966
sg140
(lp967
sg142
g93
sg143
Nsg144
(lp968
I2
aI13
aI1
asg146
Nsg147
g966
sg148
(lp969
sg150
g60
sg151
Nsg152
Nsg153
Nsbag3
(g4
g5
NtRp970
(dp971
g8
g10
sg131
Nsg132
(dp972
sg134
Nsg26
g28
sg135
(lp973
I2
aI13
aI2
asg137
Nsg138
VShir HaShirim Rabbah 2:13:2
p974
sg140
(lp975
sg142
g93
sg143
Nsg144
(lp976
I2
aI13
aI2
asg146
Nsg147
g974
sg148
(lp977
sg150
g60
sg151
Nsg152
Nsg153
Nsbag3
(g4
g5
NtRp978
(dp979
g8
g10
sg131
Nsg132
(dp980
sg134
Nsg26
g28
sg135
(lp981
I2
aI13
aI3
asg137
Nsg138
VShir HaShirim Rabbah 2:13:3
p982
sg140
(lp983
sg142
g93
sg143
Nsg144
(lp984
I2
aI13
aI3
asg146
Nsg147
g982
sg148
(lp985
sg150
g60
sg151
Nsg152
Nsg153
Nsbag3
(g4
g5
NtRp986
(dp987
g8
g10
sg131
Nsg132
(dp988
sg134
Nsg26
g28
sg135
(lp989
I2
aI13
aI4
asg137
Nsg138
VShir HaShirim Rabbah 2:13:4
p990
sg140
(lp991
sg142
g93
sg143
Nsg144
(lp992
I2
aI13
aI4
asg146
Nsg147
g990
sg148
(lp993
sg150
g60
sg151
Nsg152
Nsg153
Nsbag3
(g4
g5
NtRp994
(dp995
g8
g10
sg131
Nsg132
(dp996
sg134
Nsg26
g28
sg135
(lp997
I2
aI14
aI1
asg137
Nsg138
VShir HaShirim Rabbah 2:14:1
p998
sg140
(lp999
sg142
g93
sg143
Nsg144
(lp1000
I2
aI14
aI1
asg146
Nsg147
g998
sg148
(lp1001
sg150
g60
sg151
Nsg152
Nsg153
Nsbag3
(g4
g5
NtRp1002
(dp1003
g8
g10
sg131
Nsg132
(dp1004
sg134
Nsg26
g28
sg135
(lp1005
I2
aI14
aI2
asg137
Nsg138
VShir HaShirim Rabbah 2:14:2
p1006
sg140
(lp1007
sg142
g93
sg143
Nsg144
(lp1008
I2
aI14
aI2
asg146
Nsg147
g1006
sg148
(lp1009
sg150
g60
sg151
Nsg152
Nsg153
Nsbag3
(g4
g5
NtRp1010
(dp1011
g8
g10
sg131
Nsg132
(dp1012
sg134
Nsg26
g28
sg135
(lp1013
I2
aI14
aI3
asg137
Nsg138
VShir HaShirim Rabbah 2:14:3
p1014
sg140
(lp1015
sg142
g93
sg143
Nsg144
(lp1016
I2
aI14
aI3
asg146
Nsg147
g1014
sg148
(lp1017
sg150
g60
sg151
Nsg152
Nsg153
Nsbag3
(g4
g5
NtRp1018
(dp1019
g8
g10
sg131
Nsg132
(dp1020
sg134
Nsg26
g28
sg135
(lp1021
I2
aI14
aI4
asg137
Nsg138
VShir HaShirim Rabbah 2:14:4
p1022
sg140
(lp1023
sg142
g93
sg143
Nsg144
(lp1024
I2
aI14
aI4
asg146
Nsg147
g1022
sg148
(lp1025
sg150
g60
sg151
Nsg152
Nsg153
Nsbag3
(g4
g5
NtRp1026
(dp1027
g8
g10
sg131
Nsg132
(dp1028
sg134
Nsg26
g28
sg135
(lp1029
I2
aI14
aI5
asg137
Nsg138
VShir HaShirim Rabbah 2:14:5
p1030
sg140
(lp1031
sg142
g93
sg143
Nsg144
(lp1032
I2
aI14
aI5
asg146
Nsg147
g1030
sg148
(lp1033
sg150
g60
sg151
Nsg152
Nsg153
Nsbag3
(g4
g5
NtRp1034
(dp1035
g8
g10
sg131
Nsg132
(dp1036
sg134
Nsg26
g28
sg135
(lp1037
I2
aI14
aI6
asg137
Nsg138
VShir HaShirim Rabbah 2:14:6
p1038
sg140
(lp1039
sg142
g93
sg143
Nsg144
(lp1040
I2
aI14
aI6
asg146
Nsg147
g1038
sg148
(lp1041
sg150
g60
sg151
Nsg152
Nsg153
Nsbag3
(g4
g5
NtRp1042
(dp1043
g8
g10
sg131
Nsg132
(dp1044
sg134
Nsg26
g28
sg135
(lp1045
I2
aI14
aI7
asg137
Nsg138
VShir HaShirim Rabbah 2:14:7
p1046
sg140
(lp1047
sg142
g93
sg143
Nsg144
(lp1048
I2
aI14
aI7
asg146
Nsg147
g1046
sg148
(lp1049
sg150
g60
sg151
Nsg152
Nsg153
Nsbag3
(g4
g5
NtRp1050
(dp1051
g8
g10
sg131
Nsg132
(dp1052
sg134
Nsg26
g28
sg135
(lp1053
I2
aI14
aI8
asg137
Nsg138
VShir HaShirim Rabbah 2:14:8
p1054
sg140
(lp1055
sg142
g93
sg143
Nsg144
(lp1056
I2
aI14
aI8
asg146
Nsg147
g1054
sg148
(lp1057
sg150
g60
sg151
Nsg152
Nsg153
Nsbag3
(g4
g5
NtRp1058
(dp1059
g8
g10
sg131
Nsg132
(dp1060
sg134
Nsg26
g28
sg135
(lp1061
I2
aI15
aI1
asg137
Nsg138
VShir HaShirim Rabbah 2:15:1
p1062
sg140
(lp1063
sg142
g93
sg143
Nsg144
(lp1064
I2
aI15
aI1
asg146
Nsg147
g1062
sg148
(lp1065
sg150
g60
sg151
Nsg152
Nsg153
Nsbag3
(g4
g5
NtRp1066
(dp1067
g8
g10
sg131
Nsg132
(dp1068
sg134
Nsg26
g28
sg135
(lp1069
I2
aI15
aI2
asg137
Nsg138
VShir HaShirim Rabbah 2:15:2
p1070
sg140
(lp1071
sg142
g93
sg143
Nsg144
(lp1072
I2
aI15
aI2
asg146
Nsg147
g1070
sg148
(lp1073
sg150
g60
sg151
Nsg152
Nsg153
Nsbag3
(g4
g5
NtRp1074
(dp1075
g8
g10
sg131
Nsg132
(dp1076
sg134
Nsg26
g28
sg135
(lp1077
I2
aI15
aI3
asg137
Nsg138
VShir HaShirim Rabbah 2:15:3
p1078
sg140
(lp1079
sg142
g93
sg143
Nsg144
(lp1080
I2
aI15
aI3
asg146
Nsg147
g1078
sg148
(lp1081
sg150
g60
sg151
Nsg152
Nsg153
Nsbag3
(g4
g5
NtRp1082
(dp1083
g8
g10
sg131
Nsg132
(dp1084
sg134
Nsg26
g28
sg135
(lp1085
I2
aI16
aI1
asg137
Nsg138
VShir HaShirim Rabbah 2:16:1
p1086
sg140
(lp1087
sg142
g93
sg143
Nsg144
(lp1088
I2
aI16
aI1
asg146
Nsg147
g1086
sg148
(lp1089
sg150
g60
sg151
Nsg152
Nsg153
Nsbag3
(g4
g5
NtRp1090
(dp1091
g8
g10
sg131
Nsg132
(dp1092
sg134
Nsg26
g28
sg135
(lp1093
I2
aI16
aI2
asg137
Nsg138
VShir HaShirim Rabbah 2:16:2
p1094
sg140
(lp1095
sg142
g93
sg143
Nsg144
(lp1096
I2
aI16
aI2
asg146
Nsg147
g1094
sg148
(lp1097
sg150
g60
sg151
Nsg152
Nsg153
Nsbag3
(g4
g5
NtRp1098
(dp1099
g8
g10
sg131
Nsg132
(dp1100
sg134
Nsg26
g28
sg135
(lp1101
I2
aI17
aI1
asg137
Nsg138
VShir HaShirim Rabbah 2:17:1
p1102
sg140
(lp1103
sg142
g93
sg143
Nsg144
(lp1104
I2
aI17
aI1
asg146
Nsg147
g1102
sg148
(lp1105
sg150
g60
sg151
Nsg152
Nsg153
Nsbag3
(g4
g5
NtRp1106
(dp1107
g8
g10
sg131
Nsg132
(dp1108
sg134
Nsg26
g28
sg135
(lp1109
I3
aI1
aI1
asg137
Nsg138
VShir HaShirim Rabbah 3:1:1
p1110
sg140
(lp1111
sg142
g93
sg143
Nsg144
(lp1112
I3
aI1
aI1
asg146
Nsg147
g1110
sg148
(lp1113
sg150
g60
sg151
Nsg152
Nsg153
Nsbag3
(g4
g5
NtRp1114
(dp1115
g8
g10
sg131
Nsg132
(dp1116
sg134
Nsg26
g28
sg135
(lp1117
I3
aI1
aI2
asg137
Nsg138
VShir HaShirim Rabbah 3:1:2
p1118
sg140
(lp1119
sg142
g93
sg143
Nsg144
(lp1120
I3
aI1
aI2
asg146
Nsg147
g1118
sg148
(lp1121
sg150
g60
sg151
Nsg152
Nsg153
Nsbag3
(g4
g5
NtRp1122
(dp1123
g8
g10
sg131
Nsg132
(dp1124
sg134
Nsg26
g28
sg135
(lp1125
I3
aI2
aI1
asg137
Nsg138
VShir HaShirim Rabbah 3:2:1
p1126
sg140
(lp1127
sg142
g93
sg143
Nsg144
(lp1128
I3
aI2
aI1
asg146
Nsg147
g1126
sg148
(lp1129
sg150
g60
sg151
Nsg152
Nsg153
Nsbag3
(g4
g5
NtRp1130
(dp1131
g8
g10
sg131
Nsg132
(dp1132
sg134
Nsg26
g28
sg135
(lp1133
I3
aI3
aI1
asg137
Nsg138
VShir HaShirim Rabbah 3:3:1
p1134
sg140
(lp1135
sg142
g93
sg143
Nsg144
(lp1136
I3
aI3
aI1
asg146
Nsg147
g1134
sg148
(lp1137
sg150
g60
sg151
Nsg152
Nsg153
Nsbag3
(g4
g5
NtRp1138
(dp1139
g8
g10
sg131
Nsg132
(dp1140
sg134
Nsg26
g28
sg135
(lp1141
I3
aI4
aI1
asg137
Nsg138
VShir HaShirim Rabbah 3:4:1
p1142
sg140
(lp1143
sg142
g93
sg143
Nsg144
(lp1144
I3
aI4
aI1
asg146
Nsg147
g1142
sg148
(lp1145
sg150
g60
sg151
Nsg152
Nsg153
Nsbag3
(g4
g5
NtRp1146
(dp1147
g8
g10
sg131
Nsg132
(dp1148
sg134
Nsg26
g28
sg135
(lp1149
I3
aI4
aI2
asg137
Nsg138
VShir HaShirim Rabbah 3:4:2
p1150
sg140
(lp1151
sg142
g93
sg143
Nsg144
(lp1152
I3
aI4
aI2
asg146
Nsg147
g1150
sg148
(lp1153
sg150
g60
sg151
Nsg152
Nsg153
Nsbag3
(g4
g5
NtRp1154
(dp1155
g8
g10
sg131
Nsg132
(dp1156
sg134
Nsg26
g28
sg135
(lp1157
I3
aI6
aI1
asg137
Nsg138
VShir HaShirim Rabbah 3:6:1
p1158
sg140
(lp1159
sg142
g93
sg143
Nsg144
(lp1160
I3
aI6
aI1
asg146
Nsg147
g1158
sg148
(lp1161
sg150
g60
sg151
Nsg152
Nsg153
Nsbag3
(g4
g5
NtRp1162
(dp1163
g8
g10
sg131
Nsg132
(dp1164
sg134
Nsg26
g28
sg135
(lp1165
I3
aI6
aI2
asg137
Nsg138
VShir HaShirim Rabbah 3:6:2
p1166
sg140
(lp1167
sg142
g93
sg143
Nsg144
(lp1168
I3
aI6
aI2
asg146
Nsg147
g1166
sg148
(lp1169
sg150
g60
sg151
Nsg152
Nsg153
Nsbag3
(g4
g5
NtRp1170
(dp1171
g8
g10
sg131
Nsg132
(dp1172
sg134
Nsg26
g28
sg135
(lp1173
I3
aI6
aI3
asg137
Nsg138
VShir HaShirim Rabbah 3:6:3
p1174
sg140
(lp1175
sg142
g93
sg143
Nsg144
(lp1176
I3
aI6
aI3
asg146
Nsg147
g1174
sg148
(lp1177
sg150
g60
sg151
Nsg152
Nsg153
Nsbag3
(g4
g5
NtRp1178
(dp1179
g8
g10
sg131
Nsg132
(dp1180
sg134
Nsg26
g28
sg135
(lp1181
I3
aI6
aI4
asg137
Nsg138
VShir HaShirim Rabbah 3:6:4
p1182
sg140
(lp1183
sg142
g93
sg143
Nsg144
(lp1184
I3
aI6
aI4
asg146
Nsg147
g1182
sg148
(lp1185
sg150
g60
sg151
Nsg152
Nsg153
Nsbag3
(g4
g5
NtRp1186
(dp1187
g8
g10
sg131
Nsg132
(dp1188
sg134
Nsg26
g28
sg135
(lp1189
I3
aI6
aI5
asg137
Nsg138
VShir HaShirim Rabbah 3:6:5
p1190
sg140
(lp1191
sg142
g93
sg143
Nsg144
(lp1192
I3
aI6
aI5
asg146
Nsg147
g1190
sg148
(lp1193
sg150
g60
sg151
Nsg152
Nsg153
Nsbag3
(g4
g5
NtRp1194
(dp1195
g8
g10
sg131
Nsg132
(dp1196
sg134
Nsg26
g28
sg135
(lp1197
I3
aI6
aI6
asg137
Nsg138
VShir HaShirim Rabbah 3:6:6
p1198
sg140
(lp1199
sg142
g93
sg143
Nsg144
(lp1200
I3
aI6
aI6
asg146
Nsg147
g1198
sg148
(lp1201
sg150
g60
sg151
Nsg152
Nsg153
Nsbag3
(g4
g5
NtRp1202
(dp1203
g8
g10
sg131
Nsg132
(dp1204
sg134
Nsg26
g28
sg135
(lp1205
I3
aI6
aI7
asg137
Nsg138
VShir HaShirim Rabbah 3:6:7
p1206
sg140
(lp1207
sg142
g93
sg143
Nsg144
(lp1208
I3
aI6
aI7
asg146
Nsg147
g1206
sg148
(lp1209
sg150
g60
sg151
Nsg152
Nsg153
Nsbag3
(g4
g5
NtRp1210
(dp1211
g8
g10
sg131
Nsg132
(dp1212
sg134
Nsg26
g28
sg135
(lp1213
I3
aI7
aI1
asg137
Nsg138
VShir HaShirim Rabbah 3:7:1
p1214
sg140
(lp1215
sg142
g93
sg143
Nsg144
(lp1216
I3
aI7
aI1
asg146
Nsg147
g1214
sg148
(lp1217
sg150
g60
sg151
Nsg152
Nsg153
Nsbag3
(g4
g5
NtRp1218
(dp1219
g8
g10
sg131
Nsg132
(dp1220
sg134
Nsg26
g28
sg135
(lp1221
I3
aI7
aI2
asg137
Nsg138
VShir HaShirim Rabbah 3:7:2
p1222
sg140
(lp1223
sg142
g93
sg143
Nsg144
(lp1224
I3
aI7
aI2
asg146
Nsg147
g1222
sg148
(lp1225
sg150
g60
sg151
Nsg152
Nsg153
Nsbag3
(g4
g5
NtRp1226
(dp1227
g8
g10
sg131
Nsg132
(dp1228
sg134
Nsg26
g28
sg135
(lp1229
I3
aI7
aI3
asg137
Nsg138
VShir HaShirim Rabbah 3:7:3
p1230
sg140
(lp1231
sg142
g93
sg143
Nsg144
(lp1232
I3
aI7
aI3
asg146
Nsg147
g1230
sg148
(lp1233
sg150
g60
sg151
Nsg152
Nsg153
Nsbag3
(g4
g5
NtRp1234
(dp1235
g8
g10
sg131
Nsg132
(dp1236
sg134
Nsg26
g28
sg135
(lp1237
I3
aI7
aI4
asg137
Nsg138
VShir HaShirim Rabbah 3:7:4
p1238
sg140
(lp1239
sg142
g93
sg143
Nsg144
(lp1240
I3
aI7
aI4
asg146
Nsg147
g1238
sg148
(lp1241
sg150
g60
sg151
Nsg152
Nsg153
Nsbag3
(g4
g5
NtRp1242
(dp1243
g8
g10
sg131
Nsg132
(dp1244
sg134
Nsg26
g28
sg135
(lp1245
I3
aI7
aI5
asg137
Nsg138
VShir HaShirim Rabbah 3:7:5
p1246
sg140
(lp1247
sg142
g93
sg143
Nsg144
(lp1248
I3
aI7
aI5
asg146
Nsg147
g1246
sg148
(lp1249
sg150
g60
sg151
Nsg152
Nsg153
Nsbag3
(g4
g5
NtRp1250
(dp1251
g8
g10
sg131
Nsg132
(dp1252
sg134
Nsg26
g28
sg135
(lp1253
I3
aI9
aI1
asg137
Nsg138
VShir HaShirim Rabbah 3:9:1
p1254
sg140
(lp1255
sg142
g93
sg143
Nsg144
(lp1256
I3
aI9
aI1
asg146
Nsg147
g1254
sg148
(lp1257
sg150
g60
sg151
Nsg152
Nsg153
Nsbag3
(g4
g5
NtRp1258
(dp1259
g8
g10
sg131
Nsg132
(dp1260
sg134
Nsg26
g28
sg135
(lp1261
I3
aI10
aI1
asg137
Nsg138
VShir HaShirim Rabbah 3:10:1
p1262
sg140
(lp1263
sg142
g93
sg143
Nsg144
(lp1264
I3
aI10
aI1
asg146
Nsg147
g1262
sg148
(lp1265
sg150
g60
sg151
Nsg152
Nsg153
Nsbag3
(g4
g5
NtRp1266
(dp1267
g8
g10
sg131
Nsg132
(dp1268
sg134
Nsg26
g28
sg135
(lp1269
I3
aI10
aI2
asg137
Nsg138
VShir HaShirim Rabbah 3:10:2
p1270
sg140
(lp1271
sg142
g93
sg143
Nsg144
(lp1272
I3
aI10
aI2
asg146
Nsg147
g1270
sg148
(lp1273
sg150
g60
sg151
Nsg152
Nsg153
Nsbag3
(g4
g5
NtRp1274
(dp1275
g8
g10
sg131
Nsg132
(dp1276
sg134
Nsg26
g28
sg135
(lp1277
I3
aI10
aI3
asg137
Nsg138
VShir HaShirim Rabbah 3:10:3
p1278
sg140
(lp1279
sg142
g93
sg143
Nsg144
(lp1280
I3
aI10
aI3
asg146
Nsg147
g1278
sg148
(lp1281
sg150
g60
sg151
Nsg152
Nsg153
Nsbag3
(g4
g5
NtRp1282
(dp1283
g8
g10
sg131
Nsg132
(dp1284
sg134
Nsg26
g28
sg135
(lp1285
I3
aI10
aI4
asg137
Nsg138
VShir HaShirim Rabbah 3:10:4
p1286
sg140
(lp1287
sg142
g93
sg143
Nsg144
(lp1288
I3
aI10
aI4
asg146
Nsg147
g1286
sg148
(lp1289
sg150
g60
sg151
Nsg152
Nsg153
Nsbag3
(g4
g5
NtRp1290
(dp1291
g8
g10
sg131
Nsg132
(dp1292
sg134
Nsg26
g28
sg135
(lp1293
I3
aI10
aI5
asg137
Nsg138
VShir HaShirim Rabbah 3:10:5
p1294
sg140
(lp1295
sg142
g93
sg143
Nsg144
(lp1296
I3
aI10
aI5
asg146
Nsg147
g1294
sg148
(lp1297
sg150
g60
sg151
Nsg152
Nsg153
Nsbag3
(g4
g5
NtRp1298
(dp1299
g8
g10
sg131
Nsg132
(dp1300
sg134
Nsg26
g28
sg135
(lp1301
I3
aI11
aI1
asg137
Nsg138
VShir HaShirim Rabbah 3:11:1
p1302
sg140
(lp1303
sg142
g93
sg143
Nsg144
(lp1304
I3
aI11
aI1
asg146
Nsg147
g1302
sg148
(lp1305
sg150
g60
sg151
Nsg152
Nsg153
Nsbag3
(g4
g5
NtRp1306
(dp1307
g8
g10
sg131
Nsg132
(dp1308
sg134
Nsg26
g28
sg135
(lp1309
I3
aI11
aI2
asg137
Nsg138
VShir HaShirim Rabbah 3:11:2
p1310
sg140
(lp1311
sg142
g93
sg143
Nsg144
(lp1312
I3
aI11
aI2
asg146
Nsg147
g1310
sg148
(lp1313
sg150
g60
sg151
Nsg152
Nsg153
Nsbag3
(g4
g5
NtRp1314
(dp1315
g8
g10
sg131
Nsg132
(dp1316
sg134
Nsg26
g28
sg135
(lp1317
I4
aI1
aI1
asg137
Nsg138
VShir HaShirim Rabbah 4:1:1
p1318
sg140
(lp1319
sg142
g93
sg143
Nsg144
(lp1320
I4
aI1
aI1
asg146
Nsg147
g1318
sg148
(lp1321
sg150
g60
sg151
Nsg152
Nsg153
Nsbag3
(g4
g5
NtRp1322
(dp1323
g8
g10
sg131
Nsg132
(dp1324
sg134
Nsg26
g28
sg135
(lp1325
I4
aI1
aI2
asg137
Nsg138
VShir HaShirim Rabbah 4:1:2
p1326
sg140
(lp1327
sg142
g93
sg143
Nsg144
(lp1328
I4
aI1
aI2
asg146
Nsg147
g1326
sg148
(lp1329
sg150
g60
sg151
Nsg152
Nsg153
Nsbag3
(g4
g5
NtRp1330
(dp1331
g8
g10
sg131
Nsg132
(dp1332
sg134
Nsg26
g28
sg135
(lp1333
I4
aI1
aI3
asg137
Nsg138
VShir HaShirim Rabbah 4:1:3
p1334
sg140
(lp1335
sg142
g93
sg143
Nsg144
(lp1336
I4
aI1
aI3
asg146
Nsg147
g1334
sg148
(lp1337
sg150
g60
sg151
Nsg152
Nsg153
Nsbag3
(g4
g5
NtRp1338
(dp1339
g8
g10
sg131
Nsg132
(dp1340
sg134
Nsg26
g28
sg135
(lp1341
I4
aI3
aI1
asg137
Nsg138
VShir HaShirim Rabbah 4:3:1
p1342
sg140
(lp1343
sg142
g93
sg143
Nsg144
(lp1344
I4
aI3
aI1
asg146
Nsg147
g1342
sg148
(lp1345
sg150
g60
sg151
Nsg152
Nsg153
Nsbag3
(g4
g5
NtRp1346
(dp1347
g8
g10
sg131
Nsg132
(dp1348
sg134
Nsg26
g28
sg135
(lp1349
I4
aI4
aI1
asg137
Nsg138
VShir HaShirim Rabbah 4:4:1
p1350
sg140
(lp1351
sg142
g93
sg143
Nsg144
(lp1352
I4
aI4
aI1
asg146
Nsg147
g1350
sg148
(lp1353
sg150
g60
sg151
Nsg152
Nsg153
Nsbag3
(g4
g5
NtRp1354
(dp1355
g8
g10
sg131
Nsg132
(dp1356
sg134
Nsg26
g28
sg135
(lp1357
I4
aI4
aI2
asg137
Nsg138
VShir HaShirim Rabbah 4:4:2
p1358
sg140
(lp1359
sg142
g93
sg143
Nsg144
(lp1360
I4
aI4
aI2
asg146
Nsg147
g1358
sg148
(lp1361
sg150
g60
sg151
Nsg152
Nsg153
Nsbag3
(g4
g5
NtRp1362
(dp1363
g8
g10
sg131
Nsg132
(dp1364
sg134
Nsg26
g28
sg135
(lp1365
I4
aI4
aI3
asg137
Nsg138
VShir HaShirim Rabbah 4:4:3
p1366
sg140
(lp1367
sg142
g93
sg143
Nsg144
(lp1368
I4
aI4
aI3
asg146
Nsg147
g1366
sg148
(lp1369
sg150
g60
sg151
Nsg152
Nsg153
Nsbag3
(g4
g5
NtRp1370
(dp1371
g8
g10
sg131
Nsg132
(dp1372
sg134
Nsg26
g28
sg135
(lp1373
I4
aI4
aI4
asg137
Nsg138
VShir HaShirim Rabbah 4:4:4
p1374
sg140
(lp1375
sg142
g93
sg143
Nsg144
(lp1376
I4
aI4
aI4
asg146
Nsg147
g1374
sg148
(lp1377
sg150
g60
sg151
Nsg152
Nsg153
Nsbag3
(g4
g5
NtRp1378
(dp1379
g8
g10
sg131
Nsg132
(dp1380
sg134
Nsg26
g28
sg135
(lp1381
I4
aI4
aI5
asg137
Nsg138
VShir HaShirim Rabbah 4:4:5
p1382
sg140
(lp1383
sg142
g93
sg143
Nsg144
(lp1384
I4
aI4
aI5
asg146
Nsg147
g1382
sg148
(lp1385
sg150
g60
sg151
Nsg152
Nsg153
Nsbag3
(g4
g5
NtRp1386
(dp1387
g8
g10
sg131
Nsg132
(dp1388
sg134
Nsg26
g28
sg135
(lp1389
I4
aI4
aI6
asg137
Nsg138
VShir HaShirim Rabbah 4:4:6
p1390
sg140
(lp1391
sg142
g93
sg143
Nsg144
(lp1392
I4
aI4
aI6
asg146
Nsg147
g1390
sg148
(lp1393
sg150
g60
sg151
Nsg152
Nsg153
Nsbag3
(g4
g5
NtRp1394
(dp1395
g8
g10
sg131
Nsg132
(dp1396
sg134
Nsg26
g28
sg135
(lp1397
I4
aI4
aI7
asg137
Nsg138
VShir HaShirim Rabbah 4:4:7
p1398
sg140
(lp1399
sg142
g93
sg143
Nsg144
(lp1400
I4
aI4
aI7
asg146
Nsg147
g1398
sg148
(lp1401
sg150
g60
sg151
Nsg152
Nsg153
Nsbag3
(g4
g5
NtRp1402
(dp1403
g8
g10
sg131
Nsg132
(dp1404
sg134
Nsg26
g28
sg135
(lp1405
I4
aI4
aI8
asg137
Nsg138
VShir HaShirim Rabbah 4:4:8
p1406
sg140
(lp1407
sg142
g93
sg143
Nsg144
(lp1408
I4
aI4
aI8
asg146
Nsg147
g1406
sg148
(lp1409
sg150
g60
sg151
Nsg152
Nsg153
Nsbag3
(g4
g5
NtRp1410
(dp1411
g8
g10
sg131
Nsg132
(dp1412
sg134
Nsg26
g28
sg135
(lp1413
I4
aI5
aI1
asg137
Nsg138
VShir HaShirim Rabbah 4:5:1
p1414
sg140
(lp1415
sg142
g93
sg143
Nsg144
(lp1416
I4
aI5
aI1
asg146
Nsg147
g1414
sg148
(lp1417
sg150
g60
sg151
Nsg152
Nsg153
Nsbag3
(g4
g5
NtRp1418
(dp1419
g8
g10
sg131
Nsg132
(dp1420
sg134
Nsg26
g28
sg135
(lp1421
I4
aI5
aI2
asg137
Nsg138
VShir HaShirim Rabbah 4:5:2
p1422
sg140
(lp1423
sg142
g93
sg143
Nsg144
(lp1424
I4
aI5
aI2
asg146
Nsg147
g1422
sg148
(lp1425
sg150
g60
sg151
Nsg152
Nsg153
Nsbag3
(g4
g5
NtRp1426
(dp1427
g8
g10
sg131
Nsg132
(dp1428
sg134
Nsg26
g28
sg135
(lp1429
I4
aI6
aI1
asg137
Nsg138
VShir HaShirim Rabbah 4:6:1
p1430
sg140
(lp1431
sg142
g93
sg143
Nsg144
(lp1432
I4
aI6
aI1
asg146
Nsg147
g1430
sg148
(lp1433
sg150
g60
sg151
Nsg152
Nsg153
Nsbag3
(g4
g5
NtRp1434
(dp1435
g8
g10
sg131
Nsg132
(dp1436
sg134
Nsg26
g28
sg135
(lp1437
I4
aI6
aI2
asg137
Nsg138
VShir HaShirim Rabbah 4:6:2
p1438
sg140
(lp1439
sg142
g93
sg143
Nsg144
(lp1440
I4
aI6
aI2
asg146
Nsg147
g1438
sg148
(lp1441
sg150
g60
sg151
Nsg152
Nsg153
Nsbag3
(g4
g5
NtRp1442
(dp1443
g8
g10
sg131
Nsg132
(dp1444
sg134
Nsg26
g28
sg135
(lp1445
I4
aI7
aI1
asg137
Nsg138
VShir HaShirim Rabbah 4:7:1
p1446
sg140
(lp1447
sg142
g93
sg143
Nsg144
(lp1448
I4
aI7
aI1
asg146
Nsg147
g1446
sg148
(lp1449
sg150
g60
sg151
Nsg152
Nsg153
Nsbag3
(g4
g5
NtRp1450
(dp1451
g8
g10
sg131
Nsg132
(dp1452
sg134
Nsg26
g28
sg135
(lp1453
I4
aI8
aI1
asg137
Nsg138
VShir HaShirim Rabbah 4:8:1
p1454
sg140
(lp1455
sg142
g93
sg143
Nsg144
(lp1456
I4
aI8
aI1
asg146
Nsg147
g1454
sg148
(lp1457
sg150
g60
sg151
Nsg152
Nsg153
Nsbag3
(g4
g5
NtRp1458
(dp1459
g8
g10
sg131
Nsg132
(dp1460
sg134
Nsg26
g28
sg135
(lp1461
I4
aI8
aI2
asg137
Nsg138
VShir HaShirim Rabbah 4:8:2
p1462
sg140
(lp1463
sg142
g93
sg143
Nsg144
(lp1464
I4
aI8
aI2
asg146
Nsg147
g1462
sg148
(lp1465
sg150
g60
sg151
Nsg152
Nsg153
Nsbag3
(g4
g5
NtRp1466
(dp1467
g8
g10
sg131
Nsg132
(dp1468
sg134
Nsg26
g28
sg135
(lp1469
I4
aI8
aI3
asg137
Nsg138
VShir HaShirim Rabbah 4:8:3
p1470
sg140
(lp1471
sg142
g93
sg143
Nsg144
(lp1472
I4
aI8
aI3
asg146
Nsg147
g1470
sg148
(lp1473
sg150
g60
sg151
Nsg152
Nsg153
Nsbag3
(g4
g5
NtRp1474
(dp1475
g8
g10
sg131
Nsg132
(dp1476
sg134
Nsg26
g28
sg135
(lp1477
I4
aI9
aI1
asg137
Nsg138
VShir HaShirim Rabbah 4:9:1
p1478
sg140
(lp1479
sg142
g93
sg143
Nsg144
(lp1480
I4
aI9
aI1
asg146
Nsg147
g1478
sg148
(lp1481
sg150
g60
sg151
Nsg152
Nsg153
Nsbag3
(g4
g5
NtRp1482
(dp1483
g8
g10
sg131
Nsg132
(dp1484
sg134
Nsg26
g28
sg135
(lp1485
I4
aI10
aI1
asg137
Nsg138
VShir HaShirim Rabbah 4:10:1
p1486
sg140
(lp1487
sg142
g93
sg143
Nsg144
(lp1488
I4
aI10
aI1
asg146
Nsg147
g1486
sg148
(lp1489
sg150
g60
sg151
Nsg152
Nsg153
Nsbag3
(g4
g5
NtRp1490
(dp1491
g8
g10
sg131
Nsg132
(dp1492
sg134
Nsg26
g28
sg135
(lp1493
I4
aI11
aI1
asg137
Nsg138
VShir HaShirim Rabbah 4:11:1
p1494
sg140
(lp1495
sg142
g93
sg143
Nsg144
(lp1496
I4
aI11
aI1
asg146
Nsg147
g1494
sg148
(lp1497
sg150
g60
sg151
Nsg152
Nsg153
Nsbag3
(g4
g5
NtRp1498
(dp1499
g8
g10
sg131
Nsg132
(dp1500
sg134
Nsg26
g28
sg135
(lp1501
I4
aI11
aI2
asg137
Nsg138
VShir HaShirim Rabbah 4:11:2
p1502
sg140
(lp1503
sg142
g93
sg143
Nsg144
(lp1504
I4
aI11
aI2
asg146
Nsg147
g1502
sg148
(lp1505
sg150
g60
sg151
Nsg152
Nsg153
Nsbag3
(g4
g5
NtRp1506
(dp1507
g8
g10
sg131
Nsg132
(dp1508
sg134
Nsg26
g28
sg135
(lp1509
I4
aI12
aI1
asg137
Nsg138
VShir HaShirim Rabbah 4:12:1
p1510
sg140
(lp1511
sg142
g93
sg143
Nsg144
(lp1512
I4
aI12
aI1
asg146
Nsg147
g1510
sg148
(lp1513
sg150
g60
sg151
Nsg152
Nsg153
Nsbag3
(g4
g5
NtRp1514
(dp1515
g8
g10
sg131
Nsg132
(dp1516
sg134
Nsg26
g28
sg135
(lp1517
I4
aI12
aI2
asg137
Nsg138
VShir HaShirim Rabbah 4:12:2
p1518
sg140
(lp1519
sg142
g93
sg143
Nsg144
(lp1520
I4
aI12
aI2
asg146
Nsg147
g1518
sg148
(lp1521
sg150
g60
sg151
Nsg152
Nsg153
Nsbag3
(g4
g5
NtRp1522
(dp1523
g8
g10
sg131
Nsg132
(dp1524
sg134
Nsg26
g28
sg135
(lp1525
I4
aI14
aI1
asg137
Nsg138
VShir HaShirim Rabbah 4:14:1
p1526
sg140
(lp1527
sg142
g93
sg143
Nsg144
(lp1528
I4
aI14
aI1
asg146
Nsg147
g1526
sg148
(lp1529
sg150
g60
sg151
Nsg152
Nsg153
Nsbag3
(g4
g5
NtRp1530
(dp1531
g8
g10
sg131
Nsg132
(dp1532
sg134
Nsg26
g28
sg135
(lp1533
I4
aI15
aI1
asg137
Nsg138
VShir HaShirim Rabbah 4:15:1
p1534
sg140
(lp1535
sg142
g93
sg143
Nsg144
(lp1536
I4
aI15
aI1
asg146
Nsg147
g1534
sg148
(lp1537
sg150
g60
sg151
Nsg152
Nsg153
Nsbag3
(g4
g5
NtRp1538
(dp1539
g8
g10
sg131
Nsg132
(dp1540
sg134
Nsg26
g28
sg135
(lp1541
I4
aI16
aI1
asg137
Nsg138
VShir HaShirim Rabbah 4:16:1
p1542
sg140
(lp1543
sg142
g93
sg143
Nsg144
(lp1544
I4
aI16
aI1
asg146
Nsg147
g1542
sg148
(lp1545
sg150
g60
sg151
Nsg152
Nsg153
Nsbag3
(g4
g5
NtRp1546
(dp1547
g8
g10
sg131
Nsg132
(dp1548
sg134
Nsg26
g28
sg135
(lp1549
I5
aI1
aI1
asg137
Nsg138
VShir HaShirim Rabbah 5:1:1
p1550
sg140
(lp1551
sg142
g93
sg143
Nsg144
(lp1552
I5
aI1
aI1
asg146
Nsg147
g1550
sg148
(lp1553
sg150
g60
sg151
Nsg152
Nsg153
Nsbag3
(g4
g5
NtRp1554
(dp1555
g8
g10
sg131
Nsg132
(dp1556
sg134
Nsg26
g28
sg135
(lp1557
I5
aI2
aI1
asg137
Nsg138
VShir HaShirim Rabbah 5:2:1
p1558
sg140
(lp1559
sg142
g93
sg143
Nsg144
(lp1560
I5
aI2
aI1
asg146
Nsg147
g1558
sg148
(lp1561
sg150
g60
sg151
Nsg152
Nsg153
Nsbag3
(g4
g5
NtRp1562
(dp1563
g8
g10
sg131
Nsg132
(dp1564
sg134
Nsg26
g28
sg135
(lp1565
I5
aI2
aI2
asg137
Nsg138
VShir HaShirim Rabbah 5:2:2
p1566
sg140
(lp1567
sg142
g93
sg143
Nsg144
(lp1568
I5
aI2
aI2
asg146
Nsg147
g1566
sg148
(lp1569
sg150
g60
sg151
Nsg152
Nsg153
Nsbag3
(g4
g5
NtRp1570
(dp1571
g8
g10
sg131
Nsg132
(dp1572
sg134
Nsg26
g28
sg135
(lp1573
I5
aI3
aI1
asg137
Nsg138
VShir HaShirim Rabbah 5:3:1
p1574
sg140
(lp1575
sg142
g93
sg143
Nsg144
(lp1576
I5
aI3
aI1
asg146
Nsg147
g1574
sg148
(lp1577
sg150
g60
sg151
Nsg152
Nsg153
Nsbag3
(g4
g5
NtRp1578
(dp1579
g8
g10
sg131
Nsg132
(dp1580
sg134
Nsg26
g28
sg135
(lp1581
I5
aI5
aI1
asg137
Nsg138
VShir HaShirim Rabbah 5:5:1
p1582
sg140
(lp1583
sg142
g93
sg143
Nsg144
(lp1584
I5
aI5
aI1
asg146
Nsg147
g1582
sg148
(lp1585
sg150
g60
sg151
Nsg152
Nsg153
Nsbag3
(g4
g5
NtRp1586
(dp1587
g8
g10
sg131
Nsg132
(dp1588
sg134
Nsg26
g28
sg135
(lp1589
I5
aI6
aI1
asg137
Nsg138
VShir HaShirim Rabbah 5:6:1
p1590
sg140
(lp1591
sg142
g93
sg143
Nsg144
(lp1592
I5
aI6
aI1
asg146
Nsg147
g1590
sg148
(lp1593
sg150
g60
sg151
Nsg152
Nsg153
Nsbag3
(g4
g5
NtRp1594
(dp1595
g8
g10
sg131
Nsg132
(dp1596
sg134
Nsg26
g28
sg135
(lp1597
I5
aI7
aI1
asg137
Nsg138
VShir HaShirim Rabbah 5:7:1
p1598
sg140
(lp1599
sg142
g93
sg143
Nsg144
(lp1600
I5
aI7
aI1
asg146
Nsg147
g1598
sg148
(lp1601
sg150
g60
sg151
Nsg152
Nsg153
Nsbag3
(g4
g5
NtRp1602
(dp1603
g8
g10
sg131
Nsg132
(dp1604
sg134
Nsg26
g28
sg135
(lp1605
I5
aI8
aI1
asg137
Nsg138
VShir HaShirim Rabbah 5:8:1
p1606
sg140
(lp1607
sg142
g93
sg143
Nsg144
(lp1608
I5
aI8
aI1
asg146
Nsg147
g1606
sg148
(lp1609
sg150
g60
sg151
Nsg152
Nsg153
Nsbag3
(g4
g5
NtRp1610
(dp1611
g8
g10
sg131
Nsg132
(dp1612
sg134
Nsg26
g28
sg135
(lp1613
I5
aI9
aI1
asg137
Nsg138
VShir HaShirim Rabbah 5:9:1
p1614
sg140
(lp1615
sg142
g93
sg143
Nsg144
(lp1616
I5
aI9
aI1
asg146
Nsg147
g1614
sg148
(lp1617
sg150
g60
sg151
Nsg152
Nsg153
Nsbag3
(g4
g5
NtRp1618
(dp1619
g8
g10
sg131
Nsg132
(dp1620
sg134
Nsg26
g28
sg135
(lp1621
I5
aI11
aI1
asg137
Nsg138
VShir HaShirim Rabbah 5:11:1
p1622
sg140
(lp1623
sg142
g93
sg143
Nsg144
(lp1624
I5
aI11
aI1
asg146
Nsg147
g1622
sg148
(lp1625
sg150
g60
sg151
Nsg152
Nsg153
Nsbag3
(g4
g5
NtRp1626
(dp1627
g8
g10
sg131
Nsg132
(dp1628
sg134
Nsg26
g28
sg135
(lp1629
I5
aI11
aI2
asg137
Nsg138
VShir HaShirim Rabbah 5:11:2
p1630
sg140
(lp1631
sg142
g93
sg143
Nsg144
(lp1632
I5
aI11
aI2
asg146
Nsg147
g1630
sg148
(lp1633
sg150
g60
sg151
Nsg152
Nsg153
Nsbag3
(g4
g5
NtRp1634
(dp1635
g8
g10
sg131
Nsg132
(dp1636
sg134
Nsg26
g28
sg135
(lp1637
I5
aI11
aI3
asg137
Nsg138
VShir HaShirim Rabbah 5:11:3
p1638
sg140
(lp1639
sg142
g93
sg143
Nsg144
(lp1640
I5
aI11
aI3
asg146
Nsg147
g1638
sg148
(lp1641
sg150
g60
sg151
Nsg152
Nsg153
Nsbag3
(g4
g5
NtRp1642
(dp1643
g8
g10
sg131
Nsg132
(dp1644
sg134
Nsg26
g28
sg135
(lp1645
I5
aI11
aI4
asg137
Nsg138
VShir HaShirim Rabbah 5:11:4
p1646
sg140
(lp1647
sg142
g93
sg143
Nsg144
(lp1648
I5
aI11
aI4
asg146
Nsg147
g1646
sg148
(lp1649
sg150
g60
sg151
Nsg152
Nsg153
Nsbag3
(g4
g5
NtRp1650
(dp1651
g8
g10
sg131
Nsg132
(dp1652
sg134
Nsg26
g28
sg135
(lp1653
I5
aI11
aI5
asg137
Nsg138
VShir HaShirim Rabbah 5:11:5
p1654
sg140
(lp1655
sg142
g93
sg143
Nsg144
(lp1656
I5
aI11
aI5
asg146
Nsg147
g1654
sg148
(lp1657
sg150
g60
sg151
Nsg152
Nsg153
Nsbag3
(g4
g5
NtRp1658
(dp1659
g8
g10
sg131
Nsg132
(dp1660
sg134
Nsg26
g28
sg135
(lp1661
I5
aI11
aI6
asg137
Nsg138
VShir HaShirim Rabbah 5:11:6
p1662
sg140
(lp1663
sg142
g93
sg143
Nsg144
(lp1664
I5
aI11
aI6
asg146
Nsg147
g1662
sg148
(lp1665
sg150
g60
sg151
Nsg152
Nsg153
Nsbag3
(g4
g5
NtRp1666
(dp1667
g8
g10
sg131
Nsg132
(dp1668
sg134
Nsg26
g28
sg135
(lp1669
I5
aI12
aI1
asg137
Nsg138
VShir HaShirim Rabbah 5:12:1
p1670
sg140
(lp1671
sg142
g93
sg143
Nsg144
(lp1672
I5
aI12
aI1
asg146
Nsg147
g1670
sg148
(lp1673
sg150
g60
sg151
Nsg152
Nsg153
Nsbag3
(g4
g5
NtRp1674
(dp1675
g8
g10
sg131
Nsg132
(dp1676
sg134
Nsg26
g28
sg135
(lp1677
I5
aI12
aI2
asg137
Nsg138
VShir HaShirim Rabbah 5:12:2
p1678
sg140
(lp1679
sg142
g93
sg143
Nsg144
(lp1680
I5
aI12
aI2
asg146
Nsg147
g1678
sg148
(lp1681
sg150
g60
sg151
Nsg152
Nsg153
Nsbag3
(g4
g5
NtRp1682
(dp1683
g8
g10
sg131
Nsg132
(dp1684
sg134
Nsg26
g28
sg135
(lp1685
I5
aI13
aI1
asg137
Nsg138
VShir HaShirim Rabbah 5:13:1
p1686
sg140
(lp1687
sg142
g93
sg143
Nsg144
(lp1688
I5
aI13
aI1
asg146
Nsg147
g1686
sg148
(lp1689
sg150
g60
sg151
Nsg152
Nsg153
Nsbag3
(g4
g5
NtRp1690
(dp1691
g8
g10
sg131
Nsg132
(dp1692
sg134
Nsg26
g28
sg135
(lp1693
I5
aI14
aI1
asg137
Nsg138
VShir HaShirim Rabbah 5:14:1
p1694
sg140
(lp1695
sg142
g93
sg143
Nsg144
(lp1696
I5
aI14
aI1
asg146
Nsg147
g1694
sg148
(lp1697
sg150
g60
sg151
Nsg152
Nsg153
Nsbag3
(g4
g5
NtRp1698
(dp1699
g8
g10
sg131
Nsg132
(dp1700
sg134
Nsg26
g28
sg135
(lp1701
I5
aI14
aI2
asg137
Nsg138
VShir HaShirim Rabbah 5:14:2
p1702
sg140
(lp1703
sg142
g93
sg143
Nsg144
(lp1704
I5
aI14
aI2
asg146
Nsg147
g1702
sg148
(lp1705
sg150
g60
sg151
Nsg152
Nsg153
Nsbag3
(g4
g5
NtRp1706
(dp1707
g8
g10
sg131
Nsg132
(dp1708
sg134
Nsg26
g28
sg135
(lp1709
I5
aI14
aI3
asg137
Nsg138
VShir HaShirim Rabbah 5:14:3
p1710
sg140
(lp1711
sg142
g93
sg143
Nsg144
(lp1712
I5
aI14
aI3
asg146
Nsg147
g1710
sg148
(lp1713
sg150
g60
sg151
Nsg152
Nsg153
Nsbag3
(g4
g5
NtRp1714
(dp1715
g8
g10
sg131
Nsg132
(dp1716
sg134
Nsg26
g28
sg135
(lp1717
I5
aI15
aI1
asg137
Nsg138
VShir HaShirim Rabbah 5:15:1
p1718
sg140
(lp1719
sg142
g93
sg143
Nsg144
(lp1720
I5
aI15
aI1
asg146
Nsg147
g1718
sg148
(lp1721
sg150
g60
sg151
Nsg152
Nsg153
Nsbag3
(g4
g5
NtRp1722
(dp1723
g8
g10
sg131
Nsg132
(dp1724
sg134
Nsg26
g28
sg135
(lp1725
I5
aI15
aI2
asg137
Nsg138
VShir HaShirim Rabbah 5:15:2
p1726
sg140
(lp1727
sg142
g93
sg143
Nsg144
(lp1728
I5
aI15
aI2
asg146
Nsg147
g1726
sg148
(lp1729
sg150
g60
sg151
Nsg152
Nsg153
Nsbag3
(g4
g5
NtRp1730
(dp1731
g8
g10
sg131
Nsg132
(dp1732
sg134
Nsg26
g28
sg135
(lp1733
I5
aI16
aI1
asg137
Nsg138
VShir HaShirim Rabbah 5:16:1
p1734
sg140
(lp1735
sg142
g93
sg143
Nsg144
(lp1736
I5
aI16
aI1
asg146
Nsg147
g1734
sg148
(lp1737
sg150
g60
sg151
Nsg152
Nsg153
Nsbag3
(g4
g5
NtRp1738
(dp1739
g8
g10
sg131
Nsg132
(dp1740
sg134
Nsg26
g28
sg135
(lp1741
I5
aI16
aI2
asg137
Nsg138
VShir HaShirim Rabbah 5:16:2
p1742
sg140
(lp1743
sg142
g93
sg143
Nsg144
(lp1744
I5
aI16
aI2
asg146
Nsg147
g1742
sg148
(lp1745
sg150
g60
sg151
Nsg152
Nsg153
Nsbag3
(g4
g5
NtRp1746
(dp1747
g8
g10
sg131
Nsg132
(dp1748
sg134
Nsg26
g28
sg135
(lp1749
I5
aI16
aI3
asg137
Nsg138
VShir HaShirim Rabbah 5:16:3
p1750
sg140
(lp1751
sg142
g93
sg143
Nsg144
(lp1752
I5
aI16
aI3
asg146
Nsg147
g1750
sg148
(lp1753
sg150
g60
sg151
Nsg152
Nsg153
Nsbag3
(g4
g5
NtRp1754
(dp1755
g8
g10
sg131
Nsg132
(dp1756
sg134
Nsg26
g28
sg135
(lp1757
I5
aI16
aI4
asg137
Nsg138
VShir HaShirim Rabbah 5:16:4
p1758
sg140
(lp1759
sg142
g93
sg143
Nsg144
(lp1760
I5
aI16
aI4
asg146
Nsg147
g1758
sg148
(lp1761
sg150
g60
sg151
Nsg152
Nsg153
Nsbag3
(g4
g5
NtRp1762
(dp1763
g8
g10
sg131
Nsg132
(dp1764
sg134
Nsg26
g28
sg135
(lp1765
I5
aI16
aI5
asg137
Nsg138
VShir HaShirim Rabbah 5:16:5
p1766
sg140
(lp1767
sg142
g93
sg143
Nsg144
(lp1768
I5
aI16
aI5
asg146
Nsg147
g1766
sg148
(lp1769
sg150
g60
sg151
Nsg152
Nsg153
Nsbag3
(g4
g5
NtRp1770
(dp1771
g8
g10
sg131
Nsg132
(dp1772
sg134
Nsg26
g28
sg135
(lp1773
I5
aI16
aI6
asg137
Nsg138
VShir HaShirim Rabbah 5:16:6
p1774
sg140
(lp1775
sg142
g93
sg143
Nsg144
(lp1776
I5
aI16
aI6
asg146
Nsg147
g1774
sg148
(lp1777
sg150
g60
sg151
Nsg152
Nsg153
Nsbag3
(g4
g5
NtRp1778
(dp1779
g8
g10
sg131
Nsg132
(dp1780
sg134
Nsg26
g28
sg135
(lp1781
I6
aI1
aI1
asg137
Nsg138
VShir HaShirim Rabbah 6:1:1
p1782
sg140
(lp1783
sg142
g93
sg143
Nsg144
(lp1784
I6
aI1
aI1
asg146
Nsg147
g1782
sg148
(lp1785
sg150
g60
sg151
Nsg152
Nsg153
Nsbag3
(g4
g5
NtRp1786
(dp1787
g8
g10
sg131
Nsg132
(dp1788
sg134
Nsg26
g28
sg135
(lp1789
I6
aI2
aI1
asg137
Nsg138
VShir HaShirim Rabbah 6:2:1
p1790
sg140
(lp1791
sg142
g93
sg143
Nsg144
(lp1792
I6
aI2
aI1
asg146
Nsg147
g1790
sg148
(lp1793
sg150
g60
sg151
Nsg152
Nsg153
Nsbag3
(g4
g5
NtRp1794
(dp1795
g8
g10
sg131
Nsg132
(dp1796
sg134
Nsg26
g28
sg135
(lp1797
I6
aI2
aI2
asg137
Nsg138
VShir HaShirim Rabbah 6:2:2
p1798
sg140
(lp1799
sg142
g93
sg143
Nsg144
(lp1800
I6
aI2
aI2
asg146
Nsg147
g1798
sg148
(lp1801
sg150
g60
sg151
Nsg152
Nsg153
Nsbag3
(g4
g5
NtRp1802
(dp1803
g8
g10
sg131
Nsg132
(dp1804
sg134
Nsg26
g28
sg135
(lp1805
I6
aI2
aI3
asg137
Nsg138
VShir HaShirim Rabbah 6:2:3
p1806
sg140
(lp1807
sg142
g93
sg143
Nsg144
(lp1808
I6
aI2
aI3
asg146
Nsg147
g1806
sg148
(lp1809
sg150
g60
sg151
Nsg152
Nsg153
Nsbag3
(g4
g5
NtRp1810
(dp1811
g8
g10
sg131
Nsg132
(dp1812
sg134
Nsg26
g28
sg135
(lp1813
I6
aI2
aI4
asg137
Nsg138
VShir HaShirim Rabbah 6:2:4
p1814
sg140
(lp1815
sg142
g93
sg143
Nsg144
(lp1816
I6
aI2
aI4
asg146
Nsg147
g1814
sg148
(lp1817
sg150
g60
sg151
Nsg152
Nsg153
Nsbag3
(g4
g5
NtRp1818
(dp1819
g8
g10
sg131
Nsg132
(dp1820
sg134
Nsg26
g28
sg135
(lp1821
I6
aI2
aI5
asg137
Nsg138
VShir HaShirim Rabbah 6:2:5
p1822
sg140
(lp1823
sg142
g93
sg143
Nsg144
(lp1824
I6
aI2
aI5
asg146
Nsg147
g1822
sg148
(lp1825
sg150
g60
sg151
Nsg152
Nsg153
Nsbag3
(g4
g5
NtRp1826
(dp1827
g8
g10
sg131
Nsg132
(dp1828
sg134
Nsg26
g28
sg135
(lp1829
I6
aI2
aI6
asg137
Nsg138
VShir HaShirim Rabbah 6:2:6
p1830
sg140
(lp1831
sg142
g93
sg143
Nsg144
(lp1832
I6
aI2
aI6
asg146
Nsg147
g1830
sg148
(lp1833
sg150
g60
sg151
Nsg152
Nsg153
Nsbag3
(g4
g5
NtRp1834
(dp1835
g8
g10
sg131
Nsg132
(dp1836
sg134
Nsg26
g28
sg135
(lp1837
I6
aI4
aI1
asg137
Nsg138
VShir HaShirim Rabbah 6:4:1
p1838
sg140
(lp1839
sg142
g93
sg143
Nsg144
(lp1840
I6
aI4
aI1
asg146
Nsg147
g1838
sg148
(lp1841
sg150
g60
sg151
Nsg152
Nsg153
Nsbag3
(g4
g5
NtRp1842
(dp1843
g8
g10
sg131
Nsg132
(dp1844
sg134
Nsg26
g28
sg135
(lp1845
I6
aI5
aI1
asg137
Nsg138
VShir HaShirim Rabbah 6:5:1
p1846
sg140
(lp1847
sg142
g93
sg143
Nsg144
(lp1848
I6
aI5
aI1
asg146
Nsg147
g1846
sg148
(lp1849
sg150
g60
sg151
Nsg152
Nsg153
Nsbag3
(g4
g5
NtRp1850
(dp1851
g8
g10
sg131
Nsg132
(dp1852
sg134
Nsg26
g28
sg135
(lp1853
I6
aI6
aI1
asg137
Nsg138
VShir HaShirim Rabbah 6:6:1
p1854
sg140
(lp1855
sg142
g93
sg143
Nsg144
(lp1856
I6
aI6
aI1
asg146
Nsg147
g1854
sg148
(lp1857
sg150
g60
sg151
Nsg152
Nsg153
Nsbag3
(g4
g5
NtRp1858
(dp1859
g8
g10
sg131
Nsg132
(dp1860
sg134
Nsg26
g28
sg135
(lp1861
I6
aI7
aI1
asg137
Nsg138
VShir HaShirim Rabbah 6:7:1
p1862
sg140
(lp1863
sg142
g93
sg143
Nsg144
(lp1864
I6
aI7
aI1
asg146
Nsg147
g1862
sg148
(lp1865
sg150
g60
sg151
Nsg152
Nsg153
Nsbag3
(g4
g5
NtRp1866
(dp1867
g8
g10
sg131
Nsg132
(dp1868
sg134
Nsg26
g28
sg135
(lp1869
I6
aI8
aI1
asg137
Nsg138
VShir HaShirim Rabbah 6:8:1
p1870
sg140
(lp1871
sg142
g93
sg143
Nsg144
(lp1872
I6
aI8
aI1
asg146
Nsg147
g1870
sg148
(lp1873
sg150
g60
sg151
Nsg152
Nsg153
Nsbag3
(g4
g5
NtRp1874
(dp1875
g8
g10
sg131
Nsg132
(dp1876
sg134
Nsg26
g28
sg135
(lp1877
I6
aI9
aI1
asg137
Nsg138
VShir HaShirim Rabbah 6:9:1
p1878
sg140
(lp1879
sg142
g93
sg143
Nsg144
(lp1880
I6
aI9
aI1
asg146
Nsg147
g1878
sg148
(lp1881
sg150
g60
sg151
Nsg152
Nsg153
Nsbag3
(g4
g5
NtRp1882
(dp1883
g8
g10
sg131
Nsg132
(dp1884
sg134
Nsg26
g28
sg135
(lp1885
I6
aI10
aI1
asg137
Nsg138
VShir HaShirim Rabbah 6:10:1
p1886
sg140
(lp1887
sg142
g93
sg143
Nsg144
(lp1888
I6
aI10
aI1
asg146
Nsg147
g1886
sg148
(lp1889
sg150
g60
sg151
Nsg152
Nsg153
Nsbag3
(g4
g5
NtRp1890
(dp1891
g8
g10
sg131
Nsg132
(dp1892
sg134
Nsg26
g28
sg135
(lp1893
I6
aI11
aI1
asg137
Nsg138
VShir HaShirim Rabbah 6:11:1
p1894
sg140
(lp1895
sg142
g93
sg143
Nsg144
(lp1896
I6
aI11
aI1
asg146
Nsg147
g1894
sg148
(lp1897
sg150
g60
sg151
Nsg152
Nsg153
Nsbag3
(g4
g5
NtRp1898
(dp1899
g8
g10
sg131
Nsg132
(dp1900
sg134
Nsg26
g28
sg135
(lp1901
I6
aI12
aI1
asg137
Nsg138
VShir HaShirim Rabbah 6:12:1
p1902
sg140
(lp1903
sg142
g93
sg143
Nsg144
(lp1904
I6
aI12
aI1
asg146
Nsg147
g1902
sg148
(lp1905
sg150
g60
sg151
Nsg152
Nsg153
Nsbag3
(g4
g5
NtRp1906
(dp1907
g8
g10
sg131
Nsg132
(dp1908
sg134
Nsg26
g28
sg135
(lp1909
I7
aI1
aI1
asg137
Nsg138
VShir HaShirim Rabbah 7:1:1
p1910
sg140
(lp1911
sg142
g93
sg143
Nsg144
(lp1912
I7
aI1
aI1
asg146
Nsg147
g1910
sg148
(lp1913
sg150
g60
sg151
Nsg152
Nsg153
Nsbag3
(g4
g5
NtRp1914
(dp1915
g8
g10
sg131
Nsg132
(dp1916
sg134
Nsg26
g28
sg135
(lp1917
I7
aI1
aI2
asg137
Nsg138
VShir HaShirim Rabbah 7:1:2
p1918
sg140
(lp1919
sg142
g93
sg143
Nsg144
(lp1920
I7
aI1
aI2
asg146
Nsg147
g1918
sg148
(lp1921
sg150
g60
sg151
Nsg152
Nsg153
Nsbag3
(g4
g5
NtRp1922
(dp1923
g8
g10
sg131
Nsg132
(dp1924
sg134
Nsg26
g28
sg135
(lp1925
I7
aI2
aI1
asg137
Nsg138
VShir HaShirim Rabbah 7:2:1
p1926
sg140
(lp1927
sg142
g93
sg143
Nsg144
(lp1928
I7
aI2
aI1
asg146
Nsg147
g1926
sg148
(lp1929
sg150
g60
sg151
Nsg152
Nsg153
Nsbag3
(g4
g5
NtRp1930
(dp1931
g8
g10
sg131
Nsg132
(dp1932
sg134
Nsg26
g28
sg135
(lp1933
I7
aI2
aI2
asg137
Nsg138
VShir HaShirim Rabbah 7:2:2
p1934
sg140
(lp1935
sg142
g93
sg143
Nsg144
(lp1936
I7
aI2
aI2
asg146
Nsg147
g1934
sg148
(lp1937
sg150
g60
sg151
Nsg152
Nsg153
Nsbag3
(g4
g5
NtRp1938
(dp1939
g8
g10
sg131
Nsg132
(dp1940
sg134
Nsg26
g28
sg135
(lp1941
I7
aI3
aI1
asg137
Nsg138
VShir HaShirim Rabbah 7:3:1
p1942
sg140
(lp1943
sg142
g93
sg143
Nsg144
(lp1944
I7
aI3
aI1
asg146
Nsg147
g1942
sg148
(lp1945
sg150
g60
sg151
Nsg152
Nsg153
Nsbag3
(g4
g5
NtRp1946
(dp1947
g8
g10
sg131
Nsg132
(dp1948
sg134
Nsg26
g28
sg135
(lp1949
I7
aI3
aI2
asg137
Nsg138
VShir HaShirim Rabbah 7:3:2
p1950
sg140
(lp1951
sg142
g93
sg143
Nsg144
(lp1952
I7
aI3
aI2
asg146
Nsg147
g1950
sg148
(lp1953
sg150
g60
sg151
Nsg152
Nsg153
Nsbag3
(g4
g5
NtRp1954
(dp1955
g8
g10
sg131
Nsg132
(dp1956
sg134
Nsg26
g28
sg135
(lp1957
I7
aI4
aI1
asg137
Nsg138
VShir HaShirim Rabbah 7:4:1
p1958
sg140
(lp1959
sg142
g93
sg143
Nsg144
(lp1960
I7
aI4
aI1
asg146
Nsg147
g1958
sg148
(lp1961
sg150
g60
sg151
Nsg152
Nsg153
Nsbag3
(g4
g5
NtRp1962
(dp1963
g8
g10
sg131
Nsg132
(dp1964
sg134
Nsg26
g28
sg135
(lp1965
I7
aI4
aI2
asg137
Nsg138
VShir HaShirim Rabbah 7:4:2
p1966
sg140
(lp1967
sg142
g93
sg143
Nsg144
(lp1968
I7
aI4
aI2
asg146
Nsg147
g1966
sg148
(lp1969
sg150
g60
sg151
Nsg152
Nsg153
Nsbag3
(g4
g5
NtRp1970
(dp1971
g8
g10
sg131
Nsg132
(dp1972
sg134
Nsg26
g28
sg135
(lp1973
I7
aI4
aI3
asg137
Nsg138
VShir HaShirim Rabbah 7:4:3
p1974
sg140
(lp1975
sg142
g93
sg143
Nsg144
(lp1976
I7
aI4
aI3
asg146
Nsg147
g1974
sg148
(lp1977
sg150
g60
sg151
Nsg152
Nsg153
Nsbag3
(g4
g5
NtRp1978
(dp1979
g8
g10
sg131
Nsg132
(dp1980
sg134
Nsg26
g28
sg135
(lp1981
I7
aI5
aI1
asg137
Nsg138
VShir HaShirim Rabbah 7:5:1
p1982
sg140
(lp1983
sg142
g93
sg143
Nsg144
(lp1984
I7
aI5
aI1
asg146
Nsg147
g1982
sg148
(lp1985
sg150
g60
sg151
Nsg152
Nsg153
Nsbag3
(g4
g5
NtRp1986
(dp1987
g8
g10
sg131
Nsg132
(dp1988
sg134
Nsg26
g28
sg135
(lp1989
I7
aI5
aI2
asg137
Nsg138
VShir HaShirim Rabbah 7:5:2
p1990
sg140
(lp1991
sg142
g93
sg143
Nsg144
(lp1992
I7
aI5
aI2
asg146
Nsg147
g1990
sg148
(lp1993
sg150
g60
sg151
Nsg152
Nsg153
Nsbag3
(g4
g5
NtRp1994
(dp1995
g8
g10
sg131
Nsg132
(dp1996
sg134
Nsg26
g28
sg135
(lp1997
I7
aI5
aI3
asg137
Nsg138
VShir HaShirim Rabbah 7:5:3
p1998
sg140
(lp1999
sg142
g93
sg143
Nsg144
(lp2000
I7
aI5
aI3
asg146
Nsg147
g1998
sg148
(lp2001
sg150
g60
sg151
Nsg152
Nsg153
Nsbag3
(g4
g5
NtRp2002
(dp2003
g8
g10
sg131
Nsg132
(dp2004
sg134
Nsg26
g28
sg135
(lp2005
I7
aI6
aI1
asg137
Nsg138
VShir HaShirim Rabbah 7:6:1
p2006
sg140
(lp2007
sg142
g93
sg143
Nsg144
(lp2008
I7
aI6
aI1
asg146
Nsg147
g2006
sg148
(lp2009
sg150
g60
sg151
Nsg152
Nsg153
Nsbag3
(g4
g5
NtRp2010
(dp2011
g8
g10
sg131
Nsg132
(dp2012
sg134
Nsg26
g28
sg135
(lp2013
I7
aI7
aI1
asg137
Nsg138
VShir HaShirim Rabbah 7:7:1
p2014
sg140
(lp2015
sg142
g93
sg143
Nsg144
(lp2016
I7
aI7
aI1
asg146
Nsg147
g2014
sg148
(lp2017
sg150
g60
sg151
Nsg152
Nsg153
Nsbag3
(g4
g5
NtRp2018
(dp2019
g8
g10
sg131
Nsg132
(dp2020
sg134
Nsg26
g28
sg135
(lp2021
I7
aI8
aI1
asg137
Nsg138
VShir HaShirim Rabbah 7:8:1
p2022
sg140
(lp2023
sg142
g93
sg143
Nsg144
(lp2024
I7
aI8
aI1
asg146
Nsg147
g2022
sg148
(lp2025
sg150
g60
sg151
Nsg152
Nsg153
Nsbag3
(g4
g5
NtRp2026
(dp2027
g8
g10
sg131
Nsg132
(dp2028
sg134
Nsg26
g28
sg135
(lp2029
I7
aI9
aI1
asg137
Nsg138
VShir HaShirim Rabbah 7:9:1
p2030
sg140
(lp2031
sg142
g93
sg143
Nsg144
(lp2032
I7
aI9
aI1
asg146
Nsg147
g2030
sg148
(lp2033
sg150
g60
sg151
Nsg152
Nsg153
Nsbag3
(g4
g5
NtRp2034
(dp2035
g8
g10
sg131
Nsg132
(dp2036
sg134
Nsg26
g28
sg135
(lp2037
I7
aI10
aI1
asg137
Nsg138
VShir HaShirim Rabbah 7:10:1
p2038
sg140
(lp2039
sg142
g93
sg143
Nsg144
(lp2040
I7
aI10
aI1
asg146
Nsg147
g2038
sg148
(lp2041
sg150
g60
sg151
Nsg152
Nsg153
Nsbag3
(g4
g5
NtRp2042
(dp2043
g8
g10
sg131
Nsg132
(dp2044
sg134
Nsg26
g28
sg135
(lp2045
I7
aI11
aI1
asg137
Nsg138
VShir HaShirim Rabbah 7:11:1
p2046
sg140
(lp2047
sg142
g93
sg143
Nsg144
(lp2048
I7
aI11
aI1
asg146
Nsg147
g2046
sg148
(lp2049
sg150
g60
sg151
Nsg152
Nsg153
Nsbag3
(g4
g5
NtRp2050
(dp2051
g8
g10
sg131
Nsg132
(dp2052
sg134
Nsg26
g28
sg135
(lp2053
I7
aI12
aI1
asg137
Nsg138
VShir HaShirim Rabbah 7:12:1
p2054
sg140
(lp2055
sg142
g93
sg143
Nsg144
(lp2056
I7
aI12
aI1
asg146
Nsg147
g2054
sg148
(lp2057
sg150
g60
sg151
Nsg152
Nsg153
Nsbag3
(g4
g5
NtRp2058
(dp2059
g8
g10
sg131
Nsg132
(dp2060
sg134
Nsg26
g28
sg135
(lp2061
I7
aI13
aI1
asg137
Nsg138
VShir HaShirim Rabbah 7:13:1
p2062
sg140
(lp2063
sg142
g93
sg143
Nsg144
(lp2064
I7
aI13
aI1
asg146
Nsg147
g2062
sg148
(lp2065
sg150
g60
sg151
Nsg152
Nsg153
Nsbag3
(g4
g5
NtRp2066
(dp2067
g8
g10
sg131
Nsg132
(dp2068
sg134
Nsg26
g28
sg135
(lp2069
I7
aI14
aI1
asg137
Nsg138
VShir HaShirim Rabbah 7:14:1
p2070
sg140
(lp2071
sg142
g93
sg143
Nsg144
(lp2072
I7
aI14
aI1
asg146
Nsg147
g2070
sg148
(lp2073
sg150
g60
sg151
Nsg152
Nsg153
Nsbag3
(g4
g5
NtRp2074
(dp2075
g8
g10
sg131
Nsg132
(dp2076
sg134
Nsg26
g28
sg135
(lp2077
I8
aI1
aI1
asg137
Nsg138
VShir HaShirim Rabbah 8:1:1
p2078
sg140
(lp2079
sg142
g93
sg143
Nsg144
(lp2080
I8
aI1
aI1
asg146
Nsg147
g2078
sg148
(lp2081
sg150
g60
sg151
Nsg152
Nsg153
Nsbag3
(g4
g5
NtRp2082
(dp2083
g8
g10
sg131
Nsg132
(dp2084
sg134
Nsg26
g28
sg135
(lp2085
I8
aI2
aI1
asg137
Nsg138
VShir HaShirim Rabbah 8:2:1
p2086
sg140
(lp2087
sg142
g93
sg143
Nsg144
(lp2088
I8
aI2
aI1
asg146
Nsg147
g2086
sg148
(lp2089
sg150
g60
sg151
Nsg152
Nsg153
Nsbag3
(g4
g5
NtRp2090
(dp2091
g8
g10
sg131
Nsg132
(dp2092
sg134
Nsg26
g28
sg135
(lp2093
I8
aI3
aI1
asg137
Nsg138
VShir HaShirim Rabbah 8:3:1
p2094
sg140
(lp2095
sg142
g93
sg143
Nsg144
(lp2096
I8
aI3
aI1
asg146
Nsg147
g2094
sg148
(lp2097
sg150
g60
sg151
Nsg152
Nsg153
Nsbag3
(g4
g5
NtRp2098
(dp2099
g8
g10
sg131
Nsg132
(dp2100
sg134
Nsg26
g28
sg135
(lp2101
I8
aI4
aI1
asg137
Nsg138
VShir HaShirim Rabbah 8:4:1
p2102
sg140
(lp2103
sg142
g93
sg143
Nsg144
(lp2104
I8
aI4
aI1
asg146
Nsg147
g2102
sg148
(lp2105
sg150
g60
sg151
Nsg152
Nsg153
Nsbag3
(g4
g5
NtRp2106
(dp2107
g8
g10
sg131
Nsg132
(dp2108
sg134
Nsg26
g28
sg135
(lp2109
I8
aI5
aI1
asg137
Nsg138
VShir HaShirim Rabbah 8:5:1
p2110
sg140
(lp2111
sg142
g93
sg143
Nsg144
(lp2112
I8
aI5
aI1
asg146
Nsg147
g2110
sg148
(lp2113
sg150
g60
sg151
Nsg152
Nsg153
Nsbag3
(g4
g5
NtRp2114
(dp2115
g8
g10
sg131
Nsg132
(dp2116
sg134
Nsg26
g28
sg135
(lp2117
I8
aI6
aI1
asg137
Nsg138
VShir HaShirim Rabbah 8:6:1
p2118
sg140
(lp2119
sg142
g93
sg143
Nsg144
(lp2120
I8
aI6
aI1
asg146
Nsg147
g2118
sg148
(lp2121
sg150
g60
sg151
Nsg152
Nsg153
Nsbag3
(g4
g5
NtRp2122
(dp2123
g8
g10
sg131
Nsg132
(dp2124
sg134
Nsg26
g28
sg135
(lp2125
I8
aI6
aI2
asg137
Nsg138
VShir HaShirim Rabbah 8:6:2
p2126
sg140
(lp2127
sg142
g93
sg143
Nsg144
(lp2128
I8
aI6
aI2
asg146
Nsg147
g2126
sg148
(lp2129
sg150
g60
sg151
Nsg152
Nsg153
Nsbag3
(g4
g5
NtRp2130
(dp2131
g8
g10
sg131
Nsg132
(dp2132
sg134
Nsg26
g28
sg135
(lp2133
I8
aI6
aI3
asg137
Nsg138
VShir HaShirim Rabbah 8:6:3
p2134
sg140
(lp2135
sg142
g93
sg143
Nsg144
(lp2136
I8
aI6
aI3
asg146
Nsg147
g2134
sg148
(lp2137
sg150
g60
sg151
Nsg152
Nsg153
Nsbag3
(g4
g5
NtRp2138
(dp2139
g8
g10
sg131
Nsg132
(dp2140
sg134
Nsg26
g28
sg135
(lp2141
I8
aI7
aI1
asg137
Nsg138
VShir HaShirim Rabbah 8:7:1
p2142
sg140
(lp2143
sg142
g93
sg143
Nsg144
(lp2144
I8
aI7
aI1
asg146
Nsg147
g2142
sg148
(lp2145
sg150
g60
sg151
Nsg152
Nsg153
Nsbag3
(g4
g5
NtRp2146
(dp2147
g8
g10
sg131
Nsg132
(dp2148
sg134
Nsg26
g28
sg135
(lp2149
I8
aI8
aI1
asg137
Nsg138
VShir HaShirim Rabbah 8:8:1
p2150
sg140
(lp2151
sg142
g93
sg143
Nsg144
(lp2152
I8
aI8
aI1
asg146
Nsg147
g2150
sg148
(lp2153
sg150
g60
sg151
Nsg152
Nsg153
Nsbag3
(g4
g5
NtRp2154
(dp2155
g8
g10
sg131
Nsg132
(dp2156
sg134
Nsg26
g28
sg135
(lp2157
I8
aI9
aI1
asg137
Nsg138
VShir HaShirim Rabbah 8:9:1
p2158
sg140
(lp2159
sg142
g93
sg143
Nsg144
(lp2160
I8
aI9
aI1
asg146
Nsg147
g2158
sg148
(lp2161
sg150
g60
sg151
Nsg152
Nsg153
Nsbag3
(g4
g5
NtRp2162
(dp2163
g8
g10
sg131
Nsg132
(dp2164
sg134
Nsg26
g28
sg135
(lp2165
I8
aI9
aI2
asg137
Nsg138
VShir HaShirim Rabbah 8:9:2
p2166
sg140
(lp2167
sg142
g93
sg143
Nsg144
(lp2168
I8
aI9
aI2
asg146
Nsg147
g2166
sg148
(lp2169
sg150
g60
sg151
Nsg152
Nsg153
Nsbag3
(g4
g5
NtRp2170
(dp2171
g8
g10
sg131
Nsg132
(dp2172
sg134
Nsg26
g28
sg135
(lp2173
I8
aI10
aI1
asg137
Nsg138
VShir HaShirim Rabbah 8:10:1
p2174
sg140
(lp2175
sg142
g93
sg143
Nsg144
(lp2176
I8
aI10
aI1
asg146
Nsg147
g2174
sg148
(lp2177
sg150
g60
sg151
Nsg152
Nsg153
Nsbag3
(g4
g5
NtRp2178
(dp2179
g8
g10
sg131
Nsg132
(dp2180
sg134
Nsg26
g28
sg135
(lp2181
I8
aI11
aI1
asg137
Nsg138
VShir HaShirim Rabbah 8:11:1
p2182
sg140
(lp2183
sg142
g93
sg143
Nsg144
(lp2184
I8
aI11
aI1
asg146
Nsg147
g2182
sg148
(lp2185
sg150
g60
sg151
Nsg152
Nsg153
Nsbag3
(g4
g5
NtRp2186
(dp2187
g8
g10
sg131
Nsg132
(dp2188
sg134
Nsg26
g28
sg135
(lp2189
I8
aI12
aI1
asg137
Nsg138
VShir HaShirim Rabbah 8:12:1
p2190
sg140
(lp2191
sg142
g93
sg143
Nsg144
(lp2192
I8
aI12
aI1
asg146
Nsg147
g2190
sg148
(lp2193
sg150
g60
sg151
Nsg152
Nsg153
Nsbag3
(g4
g5
NtRp2194
(dp2195
g8
g10
sg131
Nsg132
(dp2196
sg134
Nsg26
g28
sg135
(lp2197
I8
aI12
aI2
asg137
Nsg138
VShir HaShirim Rabbah 8:12:2
p2198
sg140
(lp2199
sg142
g93
sg143
Nsg144
(lp2200
I8
aI12
aI2
asg146
Nsg147
g2198
sg148
(lp2201
sg150
g60
sg151
Nsg152
Nsg153
Nsbag3
(g4
g5
NtRp2202
(dp2203
g8
g10
sg131
Nsg132
(dp2204
sg134
Nsg26
g28
sg135
(lp2205
I8
aI13
aI1
asg137
Nsg138
VShir HaShirim Rabbah 8:13:1
p2206
sg140
(lp2207
sg142
g93
sg143
Nsg144
(lp2208
I8
aI13
aI1
asg146
Nsg147
g2206
sg148
(lp2209
sg150
g60
sg151
Nsg152
Nsg153
NsbaI58414
t.