((lp1
I0
aI47
aI266
aI349
aI451
aI773
aI817
aI1003
aI1034
aI1465
aI1618
aI1763
aI1843
aI1937
aI1991
aI2162
aI2532
aI2668
aI2879
aI2979
aI3424
aI4009
aI4045
aI4287
aI4520
aI4757
aI4790
aI4945
aI5086
aI5208
aI5342
aI5546
aI5741
aI5938
aI6039
aI6241
aI6635
aI7329
aI7612
aI8335
aI8787
aI8852
aI9022
aI9245
aI9418
aI9454
aI10327
aI10602
aI10694
aI11054
aI11146
aI11175
aI11303
aI11466
aI11523
aI11684
aI11989
aI12351
aI12591
aI12778
aI12819
aI13548
aI13894
aI13965
aI14093
aI14413
aI14599
aI14853
aI15021
aI15131
aI15178
aI15319
aI15360
aI15444
aI15572
aI15655
aI15733
aI15811
aI15865
aI15927
aI16145
aI16247
aI16381
aI16685
aI16947
aI17015
aI17139
aI17222
aI17286
aI17525
aI17597
aI17703
aI18003
aI18186
aI18498
aI18638
aI18725
aI18875
aI19003
aI19228
aI19260
aI19318
aI19477
aI19609
aI19853
aI20818
aI20892
aI21132
aI21190
aI21381
aI21480
aI21711
aI21790
aI21802
aI21936
aI22072
aI22144
aI22219
aI22711
aI22872
aI23164
aI23534
aI23663
aI24169
aI24721
aI24810
aI24954
aI25373
aI25436
aI25542
aI25752
aI25981
aI26078
aI26146
aI26302
aI26756
aI26811
aI26933
aI27187
aI27568
aI27629
aI28155
aI28436
aI28747
aI29919
aI30066
aI30286
aI30392
aI30707
aI31006
aI31294
aI31398
aI31756
aI32108
aI32495
aI32716
aI32967
aI34158
aI34427
aI35148
aI35462
aI35589
aI36406
aI36518
aI37562
aI37756
aI38127
aI38175
aI38310
aI38823
aI38988
aI39432
aI39669
aI40371
aI40806
aI41753
aI41890
aI42427
aI43129
aI43361
aI43412
aI43428
aI43502
aI43565
aI43661
aI43701
aI43864
aI43941
aI43979
aI43987
aI44145
aI44339
aI44680
aI45495
aI45554
aI45607
aI45657
aI45827
aI45961
aI45999
aI46028
aI46194
aI46275
aI46404
aI46555
aI46651
aI46946
aI46992
aI47108
aI47435
aI47755
aI47952
aI48052
aI48071
aI48104
aI48272
aI48502
aI48594
aI48816
aI48907
aI48924
aI48962
aI48992
aI49090
aI49207
aI49447
aI49529
aI49561
aI49645
aI49678
aI49712
aI50114
aI50215
aI50266
aI50374
aI50427
aI50449
aI50517
aI50614
aI50659
aI50869
aI50961
aI50985
aI51120
aI51207
aI51247
aI51318
aI51410
aI51491
aI51697
aI52021
aI52118
aI52465
aI52730
aI52830
aI52849
aI52946
aI53051
aI53156
aI53248
aI53760
aI53829
aI53901
aI53955
aI54102
aI54159
aI54270
aI54347
aI54655
aI54761
aI54803
aI54947
aI55115
aI55169
aI55231
aI55302
aI55493
aI55527
aI55726
aI55957
aI56076
aI56165
aI56281
aI56354
aI56632
aI56720
aI56784
aI57009
aI57034
aI57120
aI57230
a(lp2
ccopy_reg
_reconstructor
p3
(csefaria.model.text
Ref
p4
c__builtin__
object
p5
NtRp6
(dp7
S'index_node'
p8
g3
(csefaria.model.schema
JaggedArrayNode
p9
g5
NtRp10
(dp11
S'_address'
p12
(lp13
VSifrei Bamidbar
p14
asS'_full_titles'
p15
(dp16
sVnodeType
p17
VJaggedArrayNode
p18
sS'parent'
p19
NsVaddressTypes
p20
(lp21
VInteger
p22
aVInteger
p23
asS'default'
p24
I00
sS'index'
p25
g3
(csefaria.model.text
Index
p26
g5
NtRp27
(dp28
S'struct_objs'
p29
(dp30
VParasha
p31
g3
(csefaria.model.schema
TitledTreeNode
p32
g5
NtRp33
(dp34
g15
(dp35
sg19
Nsg24
I00
sS'_primary_title'
p36
(dp37
sS'title_group'
p38
g3
(csefaria.model.schema
TitleGroup
p39
g5
NtRp40
(dp41
g36
(dp42
S'en'
p43
VSifrei Bamidbar
p44
ssS'titles'
p45
(lp46
(dp47
Vlang
p48
Ven
p49
sVtext
p50
VSiphre bamidbar
p51
sa(dp52
Vlang
p53
Vhe
p54
sVtext
p55
V\u05e1\u05e4\u05e8\u05d9 \u05d1\u05de\u05d3\u05d1\u05e8
p56
sVprimary
p57
I01
sa(dp58
Vlang
p59
Ven
p60
sVtext
p61
g44
sVprimary
p62
I01
sasbsS'sharedTitle'
p63
NsS'_full_title'
p64
(dp65
sS'_leaf_nodes'
p66
(lp67
sS'children'
p68
(lp69
g3
(csefaria.model.schema
ArrayMapNode
p70
g5
NtRp71
(dp72
g15
(dp73
sVwholeRef
p74
VSifrei Bamidbar 1:1-58:2
p75
sg19
g33
sVaddressTypes
p76
(lp77
sg24
I00
sg36
(dp78
sg38
g3
(g39
g5
NtRp79
(dp80
g36
(dp81
g43
VNasso
p82
ssg45
(lp83
(dp84
Vlang
p85
Ven
p86
sVtext
p87
g82
sVprimary
p88
I01
sa(dp89
Vlang
p90
Vhe
p91
sVtext
p92
V\u05e0\u05e9\u05d0
p93
sVprimary
p94
I01
sasbsS'_addressTypes'
p95
(lp96
sg63
NsVdepth
p97
I0
sg64
(dp98
sS'_regexes'
p99
(dp100
sVnodeType
p101
VArrayMapNode
p102
sg66
(lp103
sVsectionNames
p104
(lp105
sg68
(lp106
sVrefs
p107
(lp108
sVincludeSections
p109
I01
sbag3
(g70
g5
NtRp110
(dp111
g15
(dp112
sVwholeRef
p113
VSifrei Bamidbar 59:1-106:1
p114
sg19
g33
sVaddressTypes
p115
(lp116
sg24
I00
sg36
(dp117
sg38
g3
(g39
g5
NtRp118
(dp119
g36
(dp120
g43
VBeha'alotcha
p121
ssg45
(lp122
(dp123
Vlang
p124
Ven
p125
sVtext
p126
g121
sVprimary
p127
I01
sa(dp128
Vlang
p129
Vhe
p130
sVtext
p131
V\u05d1\u05d4\u05e2\u05dc\u05ea\u05da
p132
sVprimary
p133
I01
sasbsg95
(lp134
sg63
NsVdepth
p135
I0
sg64
(dp136
sg99
(dp137
sVnodeType
p138
VArrayMapNode
p139
sg66
(lp140
sVsectionNames
p141
(lp142
sg68
(lp143
sVrefs
p144
(lp145
sVincludeSections
p146
I01
sbag3
(g70
g5
NtRp147
(dp148
g15
(dp149
sVwholeRef
p150
VSifrei Bamidbar 107:1-115:2
p151
sg19
g33
sVaddressTypes
p152
(lp153
sg24
I00
sg36
(dp154
sg38
g3
(g39
g5
NtRp155
(dp156
g36
(dp157
g43
VSh\u2019lach
p158
ssg45
(lp159
(dp160
Vlang
p161
Ven
p162
sVtext
p163
g158
sVprimary
p164
I01
sa(dp165
Vlang
p166
Vhe
p167
sVtext
p168
V\u05e9\u05dc\u05d7 \u05dc\u05da
p169
sVprimary
p170
I01
sasbsg95
(lp171
sg63
NsVdepth
p172
I0
sg64
(dp173
sg99
(dp174
sVnodeType
p175
VArrayMapNode
p176
sg66
(lp177
sVsectionNames
p178
(lp179
sg68
(lp180
sVrefs
p181
(lp182
sVincludeSections
p183
I01
sbag3
(g70
g5
NtRp184
(dp185
g15
(dp186
sVwholeRef
p187
VSifrei Bamidbar 116:1-122:1
p188
sg19
g33
sVaddressTypes
p189
(lp190
sg24
I00
sg36
(dp191
sg38
g3
(g39
g5
NtRp192
(dp193
g36
(dp194
g43
VKorach
p195
ssg45
(lp196
(dp197
Vlang
p198
Ven
p199
sVtext
p200
g195
sVprimary
p201
I01
sa(dp202
Vlang
p203
Vhe
p204
sVtext
p205
V\u05e7\u05e8\u05d7
p206
sVprimary
p207
I01
sasbsg95
(lp208
sg63
NsVdepth
p209
I0
sg64
(dp210
sg99
(dp211
sVnodeType
p212
VArrayMapNode
p213
sg66
(lp214
sVsectionNames
p215
(lp216
sg68
(lp217
sVrefs
p218
(lp219
sVincludeSections
p220
I01
sbag3
(g70
g5
NtRp221
(dp222
g15
(dp223
sVwholeRef
p224
VSifrei Bamidbar 123:1-130:1
p225
sg19
g33
sVaddressTypes
p226
(lp227
sg24
I00
sg36
(dp228
sg38
g3
(g39
g5
NtRp229
(dp230
g36
(dp231
g43
VChukat
p232
ssg45
(lp233
(dp234
Vlang
p235
Ven
p236
sVtext
p237
g232
sVprimary
p238
I01
sa(dp239
Vlang
p240
Vhe
p241
sVtext
p242
V\u05d7\u05e7\u05ea
p243
sVprimary
p244
I01
sasbsg95
(lp245
sg63
NsVdepth
p246
I0
sg64
(dp247
sg99
(dp248
sVnodeType
p249
VArrayMapNode
p250
sg66
(lp251
sVsectionNames
p252
(lp253
sg68
(lp254
sVrefs
p255
(lp256
sVincludeSections
p257
I01
sbag3
(g70
g5
NtRp258
(dp259
g15
(dp260
sVwholeRef
p261
VSifrei Bamidbar 131:1-5
p262
sg19
g33
sVaddressTypes
p263
(lp264
sg24
I00
sg36
(dp265
sg38
g3
(g39
g5
NtRp266
(dp267
g36
(dp268
g43
VBalak
p269
ssg45
(lp270
(dp271
Vlang
p272
Ven
p273
sVtext
p274
g269
sVprimary
p275
I01
sa(dp276
Vlang
p277
Vhe
p278
sVtext
p279
V\u05d1\u05dc\u05e7
p280
sVprimary
p281
I01
sasbsg95
(lp282
sg63
NsVdepth
p283
I0
sg64
(dp284
sg99
(dp285
sVnodeType
p286
VArrayMapNode
p287
sg66
(lp288
sVsectionNames
p289
(lp290
sg68
(lp291
sVrefs
p292
(lp293
sVincludeSections
p294
I01
sbag3
(g70
g5
NtRp295
(dp296
g15
(dp297
sVwholeRef
p298
VSifrei Bamidbar 132:1-152:1
p299
sg19
g33
sVaddressTypes
p300
(lp301
sg24
I00
sg36
(dp302
sg38
g3
(g39
g5
NtRp303
(dp304
g36
(dp305
g43
VPinchas
p306
ssg45
(lp307
(dp308
Vlang
p309
Ven
p310
sVtext
p311
g306
sVprimary
p312
I01
sa(dp313
Vlang
p314
Vhe
p315
sVtext
p316
V\u05e4\u05d9\u05e0\u05d7\u05e1
p317
sVprimary
p318
I01
sasbsg95
(lp319
sg63
NsVdepth
p320
I0
sg64
(dp321
sg99
(dp322
sVnodeType
p323
VArrayMapNode
p324
sg66
(lp325
sVsectionNames
p326
(lp327
sg68
(lp328
sVrefs
p329
(lp330
sVincludeSections
p331
I01
sbag3
(g70
g5
NtRp332
(dp333
g15
(dp334
sVwholeRef
p335
VSifrei Bamidbar 153:1-158:3
p336
sg19
g33
sVaddressTypes
p337
(lp338
sg24
I00
sg36
(dp339
sg38
g3
(g39
g5
NtRp340
(dp341
g36
(dp342
g43
VMatot
p343
ssg45
(lp344
(dp345
Vlang
p346
Ven
p347
sVtext
p348
g343
sVprimary
p349
I01
sa(dp350
Vlang
p351
Vhe
p352
sVtext
p353
V\u05de\u05d8\u05d5\u05ea
p354
sVprimary
p355
I01
sasbsg95
(lp356
sg63
NsVdepth
p357
I0
sg64
(dp358
sg99
(dp359
sVnodeType
p360
VArrayMapNode
p361
sg66
(lp362
sVsectionNames
p363
(lp364
sg68
(lp365
sVrefs
p366
(lp367
sVincludeSections
p368
I01
sbag3
(g70
g5
NtRp369
(dp370
g15
(dp371
sVwholeRef
p372
VSifrei Bamidbar 158:4-160:15
p373
sg19
g33
sVaddressTypes
p374
(lp375
sg24
I00
sg36
(dp376
sg38
g3
(g39
g5
NtRp377
(dp378
g36
(dp379
g43
VMasei
p380
ssg45
(lp381
(dp382
Vlang
p383
Ven
p384
sVtext
p385
g380
sVprimary
p386
I01
sa(dp387
Vlang
p388
Vhe
p389
sVtext
p390
V\u05de\u05e1\u05e2\u05d9
p391
sVprimary
p392
I01
sasbsg95
(lp393
sg63
NsVdepth
p394
I0
sg64
(dp395
sg99
(dp396
sVnodeType
p397
VArrayMapNode
p398
sg66
(lp399
sVsectionNames
p400
(lp401
sg68
(lp402
sVrefs
p403
(lp404
sVincludeSections
p405
I01
sbasbsVChapters
p406
g3
(g32
g5
NtRp407
(dp408
g15
(dp409
sg19
Nsg24
I00
sg36
(dp410
sg38
g40
sg63
Nsg64
(dp411
sg66
(lp412
sg68
(lp413
g3
(g70
g5
NtRp414
(dp415
g15
(dp416
sVwholeRef
p417
VSifrei Bamidbar 1:1-21:1
p418
sg19
g407
sVaddressTypes
p419
(lp420
sg24
I00
sg36
(dp421
sg38
g3
(g39
g5
NtRp422
(dp423
g36
(dp424
g43
VChapter 5
p425
ssg45
(lp426
(dp427
Vlang
p428
Ven
p429
sVtext
p430
g425
sVprimary
p431
I01
sa(dp432
Vlang
p433
Vhe
p434
sVtext
p435
V\u05e4\u05e8\u05e7 \u05d4
p436
sVprimary
p437
I01
sasbsg95
(lp438
sg63
NsVdepth
p439
I0
sg64
(dp440
sg99
(dp441
sVnodeType
p442
VArrayMapNode
p443
sg66
(lp444
sVsectionNames
p445
(lp446
VPiska
p447
asg68
(lp448
sVrefs
p449
(lp450
sVincludeSections
p451
I01
sbag3
(g70
g5
NtRp452
(dp453
g15
(dp454
sVwholeRef
p455
VSifrei Bamidbar 22:1-43:1
p456
sg19
g407
sVaddressTypes
p457
(lp458
sg24
I00
sg36
(dp459
sg38
g3
(g39
g5
NtRp460
(dp461
g36
(dp462
g43
VChapter 6
p463
ssg45
(lp464
(dp465
Vlang
p466
Ven
p467
sVtext
p468
g463
sVprimary
p469
I01
sa(dp470
Vlang
p471
Vhe
p472
sVtext
p473
V\u05e4\u05e8\u05e7 \u05d5
p474
sVprimary
p475
I01
sasbsg95
(lp476
sg63
NsVdepth
p477
I0
sg64
(dp478
sg99
(dp479
sVnodeType
p480
VArrayMapNode
p481
sg66
(lp482
sVsectionNames
p483
(lp484
VPiska
p485
asg68
(lp486
sVrefs
p487
(lp488
sVincludeSections
p489
I01
sbag3
(g70
g5
NtRp490
(dp491
g15
(dp492
sVwholeRef
p493
VSifrei Bamidbar 44:1-59:1
p494
sg19
g407
sVaddressTypes
p495
(lp496
sg24
I00
sg36
(dp497
sg38
g3
(g39
g5
NtRp498
(dp499
g36
(dp500
g43
VChapter 7
p501
ssg45
(lp502
(dp503
Vlang
p504
Ven
p505
sVtext
p506
g501
sVprimary
p507
I01
sa(dp508
Vlang
p509
Vhe
p510
sVtext
p511
V\u05e4\u05e8\u05e7 \u05d6
p512
sVprimary
p513
I01
sasbsg95
(lp514
sg63
NsVdepth
p515
I0
sg64
(dp516
sg99
(dp517
sVnodeType
p518
VArrayMapNode
p519
sg66
(lp520
sVsectionNames
p521
(lp522
VPiska
p523
asg68
(lp524
sVrefs
p525
(lp526
sVincludeSections
p527
I01
sbag3
(g70
g5
NtRp528
(dp529
g15
(dp530
sVwholeRef
p531
VSifrei Bamidbar 60:1-63:2
p532
sg19
g407
sVaddressTypes
p533
(lp534
sg24
I00
sg36
(dp535
sg38
g3
(g39
g5
NtRp536
(dp537
g36
(dp538
g43
VChapter 8
p539
ssg45
(lp540
(dp541
Vlang
p542
Ven
p543
sVtext
p544
g539
sVprimary
p545
I01
sa(dp546
Vlang
p547
Vhe
p548
sVtext
p549
V\u05e4\u05e8\u05e7 \u05d7
p550
sVprimary
p551
I01
sasbsg95
(lp552
sg63
NsVdepth
p553
I0
sg64
(dp554
sg99
(dp555
sVnodeType
p556
VArrayMapNode
p557
sg66
(lp558
sVsectionNames
p559
(lp560
VPiska
p561
asg68
(lp562
sVrefs
p563
(lp564
sVincludeSections
p565
I01
sbag3
(g70
g5
NtRp566
(dp567
g15
(dp568
sVwholeRef
p569
VSifrei Bamidbar 64:1-71:1
p570
sg19
g407
sVaddressTypes
p571
(lp572
sg24
I00
sg36
(dp573
sg38
g3
(g39
g5
NtRp574
(dp575
g36
(dp576
g43
VChapter 9
p577
ssg45
(lp578
(dp579
Vlang
p580
Ven
p581
sVtext
p582
g577
sVprimary
p583
I01
sa(dp584
Vlang
p585
Vhe
p586
sVtext
p587
V\u05e4\u05e8\u05e7 \u05d8
p588
sVprimary
p589
I01
sasbsg95
(lp590
sg63
NsVdepth
p591
I0
sg64
(dp592
sg99
(dp593
sVnodeType
p594
VArrayMapNode
p595
sg66
(lp596
sVsectionNames
p597
(lp598
VPiska
p599
asg68
(lp600
sVrefs
p601
(lp602
sVincludeSections
p603
I01
sbag3
(g70
g5
NtRp604
(dp605
g15
(dp606
sVwholeRef
p607
VSifrei Bamidbar 72:1-84:4
p608
sg19
g407
sVaddressTypes
p609
(lp610
sg24
I00
sg36
(dp611
sg38
g3
(g39
g5
NtRp612
(dp613
g36
(dp614
g43
VChapter 10
p615
ssg45
(lp616
(dp617
Vlang
p618
Ven
p619
sVtext
p620
g615
sVprimary
p621
I01
sa(dp622
Vlang
p623
Vhe
p624
sVtext
p625
V\u05e4\u05e8\u05e7 \u05d9
p626
sVprimary
p627
I01
sasbsg95
(lp628
sg63
NsVdepth
p629
I0
sg64
(dp630
sg99
(dp631
sVnodeType
p632
VArrayMapNode
p633
sg66
(lp634
sVsectionNames
p635
(lp636
VPiska
p637
asg68
(lp638
sVrefs
p639
(lp640
sVincludeSections
p641
I01
sbag3
(g70
g5
NtRp642
(dp643
g15
(dp644
sVwholeRef
p645
VSifrei Bamidbar 85:1-98:1
p646
sg19
g407
sVaddressTypes
p647
(lp648
sg24
I00
sg36
(dp649
sg38
g3
(g39
g5
NtRp650
(dp651
g36
(dp652
g43
VChapter 11
p653
ssg45
(lp654
(dp655
Vlang
p656
Ven
p657
sVtext
p658
g653
sVprimary
p659
I01
sa(dp660
Vlang
p661
Vhe
p662
sVtext
p663
V\u05e4\u05e8\u05e7 \u05d9\u05d0
p664
sVprimary
p665
I01
sasbsg95
(lp666
sg63
NsVdepth
p667
I0
sg64
(dp668
sg99
(dp669
sVnodeType
p670
VArrayMapNode
p671
sg66
(lp672
sVsectionNames
p673
(lp674
VPiska
p675
asg68
(lp676
sVrefs
p677
(lp678
sVincludeSections
p679
I01
sbag3
(g70
g5
NtRp680
(dp681
g15
(dp682
sVwholeRef
p683
VSifrei Bamidbar 99:1-106:1
p684
sg19
g407
sVaddressTypes
p685
(lp686
sg24
I00
sg36
(dp687
sg38
g3
(g39
g5
NtRp688
(dp689
g36
(dp690
g43
VChapter 12
p691
ssg45
(lp692
(dp693
Vlang
p694
Ven
p695
sVtext
p696
g691
sVprimary
p697
I01
sa(dp698
Vlang
p699
Vhe
p700
sVtext
p701
V\u05e4\u05e8\u05e7 \u05d9\u05d1
p702
sVprimary
p703
I01
sasbsg95
(lp704
sg63
NsVdepth
p705
I0
sg64
(dp706
sg99
(dp707
sVnodeType
p708
VArrayMapNode
p709
sg66
(lp710
sVsectionNames
p711
(lp712
VPiska
p713
asg68
(lp714
sVrefs
p715
(lp716
sVincludeSections
p717
I01
sbag3
(g70
g5
NtRp718
(dp719
g15
(dp720
sVwholeRef
p721
VSifrei Bamidbar 107:1-115:2
p722
sg19
g407
sVaddressTypes
p723
(lp724
sg24
I00
sg36
(dp725
sg38
g3
(g39
g5
NtRp726
(dp727
g36
(dp728
g43
VChapter 15
p729
ssg45
(lp730
(dp731
Vlang
p732
Ven
p733
sVtext
p734
g729
sVprimary
p735
I01
sa(dp736
Vlang
p737
Vhe
p738
sVtext
p739
V\u05e4\u05e8\u05e7 \u05d8\u05d5
p740
sVprimary
p741
I01
sasbsg95
(lp742
sg63
NsVdepth
p743
I0
sg64
(dp744
sg99
(dp745
sVnodeType
p746
VArrayMapNode
p747
sg66
(lp748
sVsectionNames
p749
(lp750
VPiska
p751
asg68
(lp752
sVrefs
p753
(lp754
sVincludeSections
p755
I01
sbag3
(g70
g5
NtRp756
(dp757
g15
(dp758
sVwholeRef
p759
VSifrei Bamidbar 116:1-122:1
p760
sg19
g407
sVaddressTypes
p761
(lp762
sg24
I00
sg36
(dp763
sg38
g3
(g39
g5
NtRp764
(dp765
g36
(dp766
g43
VChapter 18
p767
ssg45
(lp768
(dp769
Vlang
p770
Ven
p771
sVtext
p772
g767
sVprimary
p773
I01
sa(dp774
Vlang
p775
Vhe
p776
sVtext
p777
V\u05e4\u05e8\u05e7 \u05d9\u05d7
p778
sVprimary
p779
I01
sasbsg95
(lp780
sg63
NsVdepth
p781
I0
sg64
(dp782
sg99
(dp783
sVnodeType
p784
VArrayMapNode
p785
sg66
(lp786
sVsectionNames
p787
(lp788
VPiska
p789
asg68
(lp790
sVrefs
p791
(lp792
sVincludeSections
p793
I01
sbag3
(g70
g5
NtRp794
(dp795
g15
(dp796
sVwholeRef
p797
VSifrei Bamidbar 123:1-130:1
p798
sg19
g407
sVaddressTypes
p799
(lp800
sg24
I00
sg36
(dp801
sg38
g3
(g39
g5
NtRp802
(dp803
g36
(dp804
g43
VChapter 19
p805
ssg45
(lp806
(dp807
Vlang
p808
Ven
p809
sVtext
p810
g805
sVprimary
p811
I01
sa(dp812
Vlang
p813
Vhe
p814
sVtext
p815
V\u05e4\u05e8\u05e7 \u05d9\u05d8
p816
sVprimary
p817
I01
sasbsg95
(lp818
sg63
NsVdepth
p819
I0
sg64
(dp820
sg99
(dp821
sVnodeType
p822
VArrayMapNode
p823
sg66
(lp824
sVsectionNames
p825
(lp826
VPiska
p827
asg68
(lp828
sVrefs
p829
(lp830
sVincludeSections
p831
I01
sbag3
(g70
g5
NtRp832
(dp833
g15
(dp834
sVwholeRef
p835
VSifrei Bamidbar 131:1-5
p836
sg19
g407
sVaddressTypes
p837
(lp838
sg24
I00
sg36
(dp839
sg38
g3
(g39
g5
NtRp840
(dp841
g36
(dp842
g43
VChapter 25
p843
ssg45
(lp844
(dp845
Vlang
p846
Ven
p847
sVtext
p848
g843
sVprimary
p849
I01
sa(dp850
Vlang
p851
Vhe
p852
sVtext
p853
V\u05e4\u05e8\u05e7 \u05db\u05d4
p854
sVprimary
p855
I01
sasbsg95
(lp856
sg63
NsVdepth
p857
I0
sg64
(dp858
sg99
(dp859
sVnodeType
p860
VArrayMapNode
p861
sg66
(lp862
sVsectionNames
p863
(lp864
VPiska
p865
asg68
(lp866
sVrefs
p867
(lp868
sVincludeSections
p869
I01
sbag3
(g70
g5
NtRp870
(dp871
g15
(dp872
sVwholeRef
p873
VSifrei Bamidbar 132:1-4
p874
sg19
g407
sVaddressTypes
p875
(lp876
sg24
I00
sg36
(dp877
sg38
g3
(g39
g5
NtRp878
(dp879
g36
(dp880
g43
VChapter 26
p881
ssg45
(lp882
(dp883
Vlang
p884
Ven
p885
sVtext
p886
g881
sVprimary
p887
I01
sa(dp888
Vlang
p889
Vhe
p890
sVtext
p891
V\u05e4\u05e8\u05e7 \u05db\u05d5
p892
sVprimary
p893
I01
sasbsg95
(lp894
sg63
NsVdepth
p895
I0
sg64
(dp896
sg99
(dp897
sVnodeType
p898
VArrayMapNode
p899
sg66
(lp900
sVsectionNames
p901
(lp902
VPiska
p903
asg68
(lp904
sVrefs
p905
(lp906
sVincludeSections
p907
I01
sbag3
(g70
g5
NtRp908
(dp909
g15
(dp910
sVwholeRef
p911
VSifrei Bamidbar 133:1-141:3
p912
sg19
g407
sVaddressTypes
p913
(lp914
sg24
I00
sg36
(dp915
sg38
g3
(g39
g5
NtRp916
(dp917
g36
(dp918
g43
VChapter 27
p919
ssg45
(lp920
(dp921
Vlang
p922
Ven
p923
sVtext
p924
g919
sVprimary
p925
I01
sa(dp926
Vlang
p927
Vhe
p928
sVtext
p929
V\u05e4\u05e8\u05e7 \u05db\u05d6
p930
sVprimary
p931
I01
sasbsg95
(lp932
sg63
NsVdepth
p933
I0
sg64
(dp934
sg99
(dp935
sVnodeType
p936
VArrayMapNode
p937
sg66
(lp938
sVsectionNames
p939
(lp940
VPiska
p941
asg68
(lp942
sVrefs
p943
(lp944
sVincludeSections
p945
I01
sbag3
(g70
g5
NtRp946
(dp947
g15
(dp948
sVwholeRef
p949
VSifrei Bamidbar 142:1-149:2
p950
sg19
g407
sVaddressTypes
p951
(lp952
sg24
I00
sg36
(dp953
sg38
g3
(g39
g5
NtRp954
(dp955
g36
(dp956
g43
VChapter 28
p957
ssg45
(lp958
(dp959
Vlang
p960
Ven
p961
sVtext
p962
g957
sVprimary
p963
I01
sa(dp964
Vlang
p965
Vhe
p966
sVtext
p967
V\u05e4\u05e8\u05e7 \u05db\u05d7
p968
sVprimary
p969
I01
sasbsg95
(lp970
sg63
NsVdepth
p971
I0
sg64
(dp972
sg99
(dp973
sVnodeType
p974
VArrayMapNode
p975
sg66
(lp976
sVsectionNames
p977
(lp978
VPiska
p979
asg68
(lp980
sVrefs
p981
(lp982
sVincludeSections
p983
I01
sbag3
(g70
g5
NtRp984
(dp985
g15
(dp986
sVwholeRef
p987
VSifrei Bamidbar 150:1-152:1
p988
sg19
g407
sVaddressTypes
p989
(lp990
sg24
I00
sg36
(dp991
sg38
g3
(g39
g5
NtRp992
(dp993
g36
(dp994
g43
VChapter 29
p995
ssg45
(lp996
(dp997
Vlang
p998
Ven
p999
sVtext
p1000
g995
sVprimary
p1001
I01
sa(dp1002
Vlang
p1003
Vhe
p1004
sVtext
p1005
V\u05e4\u05e8\u05e7 \u05db\u05d8
p1006
sVprimary
p1007
I01
sasbsg95
(lp1008
sg63
NsVdepth
p1009
I0
sg64
(dp1010
sg99
(dp1011
sVnodeType
p1012
VArrayMapNode
p1013
sg66
(lp1014
sVsectionNames
p1015
(lp1016
VPiska
p1017
asg68
(lp1018
sVrefs
p1019
(lp1020
sVincludeSections
p1021
I01
sbag3
(g70
g5
NtRp1022
(dp1023
g15
(dp1024
sVwholeRef
p1025
VSifrei Bamidbar 153:1-156:3
p1026
sg19
g407
sVaddressTypes
p1027
(lp1028
sg24
I00
sg36
(dp1029
sg38
g3
(g39
g5
NtRp1030
(dp1031
g36
(dp1032
g43
VChapter 30
p1033
ssg45
(lp1034
(dp1035
Vlang
p1036
Ven
p1037
sVtext
p1038
g1033
sVprimary
p1039
I01
sa(dp1040
Vlang
p1041
Vhe
p1042
sVtext
p1043
V\u05e4\u05e8\u05e7 \u05dc
p1044
sVprimary
p1045
I01
sasbsg95
(lp1046
sg63
NsVdepth
p1047
I0
sg64
(dp1048
sg99
(dp1049
sVnodeType
p1050
VArrayMapNode
p1051
sg66
(lp1052
sVsectionNames
p1053
(lp1054
VPiska
p1055
asg68
(lp1056
sVrefs
p1057
(lp1058
sVincludeSections
p1059
I01
sbag3
(g70
g5
NtRp1060
(dp1061
g15
(dp1062
sVwholeRef
p1063
VSifrei Bamidbar 157:1-158:3
p1064
sg19
g407
sVaddressTypes
p1065
(lp1066
sg24
I00
sg36
(dp1067
sg38
g3
(g39
g5
NtRp1068
(dp1069
g36
(dp1070
g43
VChapter 31
p1071
ssg45
(lp1072
(dp1073
Vlang
p1074
Ven
p1075
sVtext
p1076
g1071
sVprimary
p1077
I01
sa(dp1078
Vlang
p1079
Vhe
p1080
sVtext
p1081
V\u05e4\u05e8\u05e7 \u05dc\u05d0
p1082
sVprimary
p1083
I01
sasbsg95
(lp1084
sg63
NsVdepth
p1085
I0
sg64
(dp1086
sg99
(dp1087
sVnodeType
p1088
VArrayMapNode
p1089
sg66
(lp1090
sVsectionNames
p1091
(lp1092
VPiska
p1093
asg68
(lp1094
sVrefs
p1095
(lp1096
sVincludeSections
p1097
I01
sbasbssS'schema'
p1098
(dp1099
g17
g18
sg20
g21
sVdepth
p1100
I2
sVtitles
p1101
g46
sVkey
p1102
g14
sVsectionNames
p1103
(lp1104
VPiska
p1105
aVParagraph
p1106
assS'pkeys_orig_values'
p1107
(dp1108
S'title'
p1109
VSifrei Bamidbar
p1110
ssS'alt_structs'
p1111
(dp1112
g31
(dp1113
Vnodes
p1114
(lp1115
(dp1116
g74
g75
sg76
g77
sg107
g108
sg97
I0
sVtitles
p1117
g83
sg101
g102
sg104
g105
sg109
I01
sa(dp1118
g113
g114
sg115
g116
sg144
g145
sg135
I0
sVtitles
p1119
g122
sg138
g139
sg141
g142
sg146
I01
sa(dp1120
g150
g151
sg152
g153
sg181
g182
sg172
I0
sVtitles
p1121
g159
sg175
g176
sg178
g179
sg183
I01
sa(dp1122
g187
g188
sg189
g190
sg218
g219
sg209
I0
sVtitles
p1123
g196
sg212
g213
sg215
g216
sg220
I01
sa(dp1124
g224
g225
sg226
g227
sg255
g256
sg246
I0
sVtitles
p1125
g233
sg249
g250
sg252
g253
sg257
I01
sa(dp1126
g261
g262
sg263
g264
sg292
g293
sg283
I0
sVtitles
p1127
g270
sg286
g287
sg289
g290
sg294
I01
sa(dp1128
g298
g299
sg300
g301
sg329
g330
sg320
I0
sVtitles
p1129
g307
sg323
g324
sg326
g327
sg331
I01
sa(dp1130
g335
g336
sg337
g338
sg366
g367
sg357
I0
sVtitles
p1131
g344
sg360
g361
sg363
g364
sg368
I01
sa(dp1132
g372
g373
sg374
g375
sg403
g404
sg394
I0
sVtitles
p1133
g381
sg397
g398
sg400
g401
sg405
I01
sassg406
(dp1134
Vnodes
p1135
(lp1136
(dp1137
g417
g418
sg419
g420
sg449
g450
sg439
I0
sVtitles
p1138
g426
sg442
g443
sg445
g446
sg451
I01
sa(dp1139
g455
g456
sg457
g458
sg487
g488
sg477
I0
sVtitles
p1140
g464
sg480
g481
sg483
g484
sg489
I01
sa(dp1141
g493
g494
sg495
g496
sg525
g526
sg515
I0
sVtitles
p1142
g502
sg518
g519
sg521
g522
sg527
I01
sa(dp1143
g531
g532
sg533
g534
sg563
g564
sg553
I0
sVtitles
p1144
g540
sg556
g557
sg559
g560
sg565
I01
sa(dp1145
g569
g570
sg571
g572
sg601
g602
sg591
I0
sVtitles
p1146
g578
sg594
g595
sg597
g598
sg603
I01
sa(dp1147
g607
g608
sg609
g610
sg639
g640
sg629
I0
sVtitles
p1148
g616
sg632
g633
sg635
g636
sg641
I01
sa(dp1149
g645
g646
sg647
g648
sg677
g678
sg667
I0
sVtitles
p1150
g654
sg670
g671
sg673
g674
sg679
I01
sa(dp1151
g683
g684
sg685
g686
sg715
g716
sg705
I0
sVtitles
p1152
g692
sg708
g709
sg711
g712
sg717
I01
sa(dp1153
g721
g722
sg723
g724
sg753
g754
sg743
I0
sVtitles
p1154
g730
sg746
g747
sg749
g750
sg755
I01
sa(dp1155
g759
g760
sg761
g762
sg791
g792
sg781
I0
sVtitles
p1156
g768
sg784
g785
sg787
g788
sg793
I01
sa(dp1157
g797
g798
sg799
g800
sg829
g830
sg819
I0
sVtitles
p1158
g806
sg822
g823
sg825
g826
sg831
I01
sa(dp1159
g835
g836
sg837
g838
sg867
g868
sg857
I0
sVtitles
p1160
g844
sg860
g861
sg863
g864
sg869
I01
sa(dp1161
g873
g874
sg875
g876
sg905
g906
sg895
I0
sVtitles
p1162
g882
sg898
g899
sg901
g902
sg907
I01
sa(dp1163
g911
g912
sg913
g914
sg943
g944
sg933
I0
sVtitles
p1164
g920
sg936
g937
sg939
g940
sg945
I01
sa(dp1165
g949
g950
sg951
g952
sg981
g982
sg971
I0
sVtitles
p1166
g958
sg974
g975
sg977
g978
sg983
I01
sa(dp1167
g987
g988
sg989
g990
sg1019
g1020
sg1009
I0
sVtitles
p1168
g996
sg1012
g1013
sg1015
g1016
sg1021
I01
sa(dp1169
g1025
g1026
sg1027
g1028
sg1057
g1058
sg1047
I0
sVtitles
p1170
g1034
sg1050
g1051
sg1053
g1054
sg1059
I01
sa(dp1171
g1063
g1064
sg1065
g1066
sg1095
g1096
sg1085
I0
sVtitles
p1172
g1072
sg1088
g1089
sg1091
g1092
sg1097
I01
sasssS'pubDate'
p1173
V1546
p1174
sS'compDate'
p1175
V200
p1176
sS'pubPlace'
p1177
VVenice
p1178
sS'compPlace'
p1179
VTalmudic Israel/Babylon
p1180
sS'enDesc'
p1181
VSifrei (Books) also known as Sifrei debe Rav or Sifrei Rabbah refers to either of two works of Midrash halakhah, based on the biblical books of Bemidbar (Numbers) and Devarim (Deuteronomy). The earliest Sifrei is found in Talmudic times and successively cited by Geonim and Rishonim. This early version is certainly not identical with the modern Sifrei. The modern Sifrei is not a uniform work, but one composed of two parts, one on Numbers and one on Deuteronomy that were joined together. The Sifrei to Numbers is evidently a midrash which originated in R. Ishmael's school, and which has all the peculiarities and characteristics of such a work though this does not exclude borrowing form Mekhilta de R. Shimon. The Sifrei to Deuteronomy is of an entirely different nature. The main portion (Nos. 53-303), halakic in character, is preceded and followed by haggadic parts, and it has all the characteristics of a midrash from the school of R. Akiba. Several anonymous passages may be cited to express the views of R. Simeon; this midrash may with a fair degree of certainty be ascribed to him. The editor certainly drew upon other midrashic works besides R. Simeon's midrash, especially upon that of R. Ishmael.
p1182
sS'era'
p1183
VA
sS'authors'
p1184
(lp1185
sS'nodes'
p1186
g10
sS'_id'
p1187
g3
(cbson.objectid
ObjectId
p1188
g5
NtRp1189
S'V\x9d\x07\xa8\xd6\xe4\xa9y\xb4\n\x05\xf6'
p1190
bsS'_title'
p1191
g1110
sS'categories'
p1192
(lp1193
VMidrash
p1194
aVHalachic Midrash
p1195
asS'default_struct'
p1196
VChapters
p1197
sbsg36
(dp1198
sg38
g40
sg95
(lp1199
g3
(csefaria.model.schema
AddressInteger
p1200
g5
NtRp1201
(dp1202
S'length'
p1203
NsS'order'
p1204
I0
sbag3
(g1200
g5
NtRp1205
(dp1206
g1203
Nsg1204
I1
sbasg63
Nsg1100
I2
sg64
(dp1207
g43
g44
ssS'key'
p1208
g14
sS'checkFirst'
p1209
Nsg99
(dp1210
sg66
(lp1211
sg1103
g1104
sg68
(lp1212
sbsS'_range_index'
p1213
NsS'_context'
p1214
(dp1215
sS'_padded'
p1216
Nsg25
g27
sS'sections'
p1217
(lp1218
I1
aI1
asS'_first_spanned_ref'
p1219
NsS'tref'
p1220
VSifrei Bamidbar 1:1
p1221
sS'_spanned_refs'
p1222
(lp1223
sS'book'
p1224
g44
sS'_range_depth'
p1225
NsS'toSections'
p1226
(lp1227
I1
aI1
asS'_url'
p1228
NsS'_normal'
p1229
g1221
sS'_ranged_refs'
p1230
(lp1231
sS'type'
p1232
g1194
sS'_prev'
p1233
NsS'_he_normal'
p1234
NsS'_next'
p1235
Nsbag3
(g4
g5
NtRp1236
(dp1237
g8
g10
sg1213
Nsg1214
(dp1238
sg1216
Nsg25
g27
sg1217
(lp1239
I1
aI2
asg1219
Nsg1220
VSifrei Bamidbar 1:2
p1240
sg1222
(lp1241
sg1224
g44
sg1225
Nsg1226
(lp1242
I1
aI2
asg1228
Nsg1229
g1240
sg1230
(lp1243
sg1232
g1194
sg1233
Nsg1234
Nsg1235
Nsbag3
(g4
g5
NtRp1244
(dp1245
g8
g10
sg1213
Nsg1214
(dp1246
sg1216
Nsg25
g27
sg1217
(lp1247
I1
aI3
asg1219
Nsg1220
VSifrei Bamidbar 1:3
p1248
sg1222
(lp1249
sg1224
g44
sg1225
Nsg1226
(lp1250
I1
aI3
asg1228
Nsg1229
g1248
sg1230
(lp1251
sg1232
g1194
sg1233
Nsg1234
Nsg1235
Nsbag3
(g4
g5
NtRp1252
(dp1253
g8
g10
sg1213
Nsg1214
(dp1254
sg1216
Nsg25
g27
sg1217
(lp1255
I1
aI4
asg1219
Nsg1220
VSifrei Bamidbar 1:4
p1256
sg1222
(lp1257
sg1224
g44
sg1225
Nsg1226
(lp1258
I1
aI4
asg1228
Nsg1229
g1256
sg1230
(lp1259
sg1232
g1194
sg1233
Nsg1234
Nsg1235
Nsbag3
(g4
g5
NtRp1260
(dp1261
g8
g10
sg1213
Nsg1214
(dp1262
sg1216
Nsg25
g27
sg1217
(lp1263
I1
aI5
asg1219
Nsg1220
VSifrei Bamidbar 1:5
p1264
sg1222
(lp1265
sg1224
g44
sg1225
Nsg1226
(lp1266
I1
aI5
asg1228
Nsg1229
g1264
sg1230
(lp1267
sg1232
g1194
sg1233
Nsg1234
Nsg1235
Nsbag3
(g4
g5
NtRp1268
(dp1269
g8
g10
sg1213
Nsg1214
(dp1270
sg1216
Nsg25
g27
sg1217
(lp1271
I1
aI6
asg1219
Nsg1220
VSifrei Bamidbar 1:6
p1272
sg1222
(lp1273
sg1224
g44
sg1225
Nsg1226
(lp1274
I1
aI6
asg1228
Nsg1229
g1272
sg1230
(lp1275
sg1232
g1194
sg1233
Nsg1234
Nsg1235
Nsbag3
(g4
g5
NtRp1276
(dp1277
g8
g10
sg1213
Nsg1214
(dp1278
sg1216
Nsg25
g27
sg1217
(lp1279
I1
aI7
asg1219
Nsg1220
VSifrei Bamidbar 1:7
p1280
sg1222
(lp1281
sg1224
g44
sg1225
Nsg1226
(lp1282
I1
aI7
asg1228
Nsg1229
g1280
sg1230
(lp1283
sg1232
g1194
sg1233
Nsg1234
Nsg1235
Nsbag3
(g4
g5
NtRp1284
(dp1285
g8
g10
sg1213
Nsg1214
(dp1286
sg1216
Nsg25
g27
sg1217
(lp1287
I1
aI8
asg1219
Nsg1220
VSifrei Bamidbar 1:8
p1288
sg1222
(lp1289
sg1224
g44
sg1225
Nsg1226
(lp1290
I1
aI8
asg1228
Nsg1229
g1288
sg1230
(lp1291
sg1232
g1194
sg1233
Nsg1234
Nsg1235
Nsbag3
(g4
g5
NtRp1292
(dp1293
g8
g10
sg1213
Nsg1214
(dp1294
sg1216
Nsg25
g27
sg1217
(lp1295
I2
aI1
asg1219
Nsg1220
VSifrei Bamidbar 2:1
p1296
sg1222
(lp1297
sg1224
g44
sg1225
Nsg1226
(lp1298
I2
aI1
asg1228
Nsg1229
g1296
sg1230
(lp1299
sg1232
g1194
sg1233
Nsg1234
Nsg1235
Nsbag3
(g4
g5
NtRp1300
(dp1301
g8
g10
sg1213
Nsg1214
(dp1302
sg1216
Nsg25
g27
sg1217
(lp1303
I3
aI1
asg1219
Nsg1220
VSifrei Bamidbar 3:1
p1304
sg1222
(lp1305
sg1224
g44
sg1225
Nsg1226
(lp1306
I3
aI1
asg1228
Nsg1229
g1304
sg1230
(lp1307
sg1232
g1194
sg1233
Nsg1234
Nsg1235
Nsbag3
(g4
g5
NtRp1308
(dp1309
g8
g10
sg1213
Nsg1214
(dp1310
sg1216
Nsg25
g27
sg1217
(lp1311
I4
aI1
asg1219
Nsg1220
VSifrei Bamidbar 4:1
p1312
sg1222
(lp1313
sg1224
g44
sg1225
Nsg1226
(lp1314
I4
aI1
asg1228
Nsg1229
g1312
sg1230
(lp1315
sg1232
g1194
sg1233
Nsg1234
Nsg1235
Nsbag3
(g4
g5
NtRp1316
(dp1317
g8
g10
sg1213
Nsg1214
(dp1318
sg1216
Nsg25
g27
sg1217
(lp1319
I4
aI2
asg1219
Nsg1220
VSifrei Bamidbar 4:2
p1320
sg1222
(lp1321
sg1224
g44
sg1225
Nsg1226
(lp1322
I4
aI2
asg1228
Nsg1229
g1320
sg1230
(lp1323
sg1232
g1194
sg1233
Nsg1234
Nsg1235
Nsbag3
(g4
g5
NtRp1324
(dp1325
g8
g10
sg1213
Nsg1214
(dp1326
sg1216
Nsg25
g27
sg1217
(lp1327
I4
aI3
asg1219
Nsg1220
VSifrei Bamidbar 4:3
p1328
sg1222
(lp1329
sg1224
g44
sg1225
Nsg1226
(lp1330
I4
aI3
asg1228
Nsg1229
g1328
sg1230
(lp1331
sg1232
g1194
sg1233
Nsg1234
Nsg1235
Nsbag3
(g4
g5
NtRp1332
(dp1333
g8
g10
sg1213
Nsg1214
(dp1334
sg1216
Nsg25
g27
sg1217
(lp1335
I4
aI4
asg1219
Nsg1220
VSifrei Bamidbar 4:4
p1336
sg1222
(lp1337
sg1224
g44
sg1225
Nsg1226
(lp1338
I4
aI4
asg1228
Nsg1229
g1336
sg1230
(lp1339
sg1232
g1194
sg1233
Nsg1234
Nsg1235
Nsbag3
(g4
g5
NtRp1340
(dp1341
g8
g10
sg1213
Nsg1214
(dp1342
sg1216
Nsg25
g27
sg1217
(lp1343
I5
aI1
asg1219
Nsg1220
VSifrei Bamidbar 5:1
p1344
sg1222
(lp1345
sg1224
g44
sg1225
Nsg1226
(lp1346
I5
aI1
asg1228
Nsg1229
g1344
sg1230
(lp1347
sg1232
g1194
sg1233
Nsg1234
Nsg1235
Nsbag3
(g4
g5
NtRp1348
(dp1349
g8
g10
sg1213
Nsg1214
(dp1350
sg1216
Nsg25
g27
sg1217
(lp1351
I6
aI1
asg1219
Nsg1220
VSifrei Bamidbar 6:1
p1352
sg1222
(lp1353
sg1224
g44
sg1225
Nsg1226
(lp1354
I6
aI1
asg1228
Nsg1229
g1352
sg1230
(lp1355
sg1232
g1194
sg1233
Nsg1234
Nsg1235
Nsbag3
(g4
g5
NtRp1356
(dp1357
g8
g10
sg1213
Nsg1214
(dp1358
sg1216
Nsg25
g27
sg1217
(lp1359
I6
aI2
asg1219
Nsg1220
VSifrei Bamidbar 6:2
p1360
sg1222
(lp1361
sg1224
g44
sg1225
Nsg1226
(lp1362
I6
aI2
asg1228
Nsg1229
g1360
sg1230
(lp1363
sg1232
g1194
sg1233
Nsg1234
Nsg1235
Nsbag3
(g4
g5
NtRp1364
(dp1365
g8
g10
sg1213
Nsg1214
(dp1366
sg1216
Nsg25
g27
sg1217
(lp1367
I7
aI1
asg1219
Nsg1220
VSifrei Bamidbar 7:1
p1368
sg1222
(lp1369
sg1224
g44
sg1225
Nsg1226
(lp1370
I7
aI1
asg1228
Nsg1229
g1368
sg1230
(lp1371
sg1232
g1194
sg1233
Nsg1234
Nsg1235
Nsbag3
(g4
g5
NtRp1372
(dp1373
g8
g10
sg1213
Nsg1214
(dp1374
sg1216
Nsg25
g27
sg1217
(lp1375
I7
aI2
asg1219
Nsg1220
VSifrei Bamidbar 7:2
p1376
sg1222
(lp1377
sg1224
g44
sg1225
Nsg1226
(lp1378
I7
aI2
asg1228
Nsg1229
g1376
sg1230
(lp1379
sg1232
g1194
sg1233
Nsg1234
Nsg1235
Nsbag3
(g4
g5
NtRp1380
(dp1381
g8
g10
sg1213
Nsg1214
(dp1382
sg1216
Nsg25
g27
sg1217
(lp1383
I7
aI3
asg1219
Nsg1220
VSifrei Bamidbar 7:3
p1384
sg1222
(lp1385
sg1224
g44
sg1225
Nsg1226
(lp1386
I7
aI3
asg1228
Nsg1229
g1384
sg1230
(lp1387
sg1232
g1194
sg1233
Nsg1234
Nsg1235
Nsbag3
(g4
g5
NtRp1388
(dp1389
g8
g10
sg1213
Nsg1214
(dp1390
sg1216
Nsg25
g27
sg1217
(lp1391
I8
aI1
asg1219
Nsg1220
VSifrei Bamidbar 8:1
p1392
sg1222
(lp1393
sg1224
g44
sg1225
Nsg1226
(lp1394
I8
aI1
asg1228
Nsg1229
g1392
sg1230
(lp1395
sg1232
g1194
sg1233
Nsg1234
Nsg1235
Nsbag3
(g4
g5
NtRp1396
(dp1397
g8
g10
sg1213
Nsg1214
(dp1398
sg1216
Nsg25
g27
sg1217
(lp1399
I9
aI1
asg1219
Nsg1220
VSifrei Bamidbar 9:1
p1400
sg1222
(lp1401
sg1224
g44
sg1225
Nsg1226
(lp1402
I9
aI1
asg1228
Nsg1229
g1400
sg1230
(lp1403
sg1232
g1194
sg1233
Nsg1234
Nsg1235
Nsbag3
(g4
g5
NtRp1404
(dp1405
g8
g10
sg1213
Nsg1214
(dp1406
sg1216
Nsg25
g27
sg1217
(lp1407
I10
aI1
asg1219
Nsg1220
VSifrei Bamidbar 10:1
p1408
sg1222
(lp1409
sg1224
g44
sg1225
Nsg1226
(lp1410
I10
aI1
asg1228
Nsg1229
g1408
sg1230
(lp1411
sg1232
g1194
sg1233
Nsg1234
Nsg1235
Nsbag3
(g4
g5
NtRp1412
(dp1413
g8
g10
sg1213
Nsg1214
(dp1414
sg1216
Nsg25
g27
sg1217
(lp1415
I11
aI1
asg1219
Nsg1220
VSifrei Bamidbar 11:1
p1416
sg1222
(lp1417
sg1224
g44
sg1225
Nsg1226
(lp1418
I11
aI1
asg1228
Nsg1229
g1416
sg1230
(lp1419
sg1232
g1194
sg1233
Nsg1234
Nsg1235
Nsbag3
(g4
g5
NtRp1420
(dp1421
g8
g10
sg1213
Nsg1214
(dp1422
sg1216
Nsg25
g27
sg1217
(lp1423
I12
aI1
asg1219
Nsg1220
VSifrei Bamidbar 12:1
p1424
sg1222
(lp1425
sg1224
g44
sg1225
Nsg1226
(lp1426
I12
aI1
asg1228
Nsg1229
g1424
sg1230
(lp1427
sg1232
g1194
sg1233
Nsg1234
Nsg1235
Nsbag3
(g4
g5
NtRp1428
(dp1429
g8
g10
sg1213
Nsg1214
(dp1430
sg1216
Nsg25
g27
sg1217
(lp1431
I13
aI1
asg1219
Nsg1220
VSifrei Bamidbar 13:1
p1432
sg1222
(lp1433
sg1224
g44
sg1225
Nsg1226
(lp1434
I13
aI1
asg1228
Nsg1229
g1432
sg1230
(lp1435
sg1232
g1194
sg1233
Nsg1234
Nsg1235
Nsbag3
(g4
g5
NtRp1436
(dp1437
g8
g10
sg1213
Nsg1214
(dp1438
sg1216
Nsg25
g27
sg1217
(lp1439
I14
aI1
asg1219
Nsg1220
VSifrei Bamidbar 14:1
p1440
sg1222
(lp1441
sg1224
g44
sg1225
Nsg1226
(lp1442
I14
aI1
asg1228
Nsg1229
g1440
sg1230
(lp1443
sg1232
g1194
sg1233
Nsg1234
Nsg1235
Nsbag3
(g4
g5
NtRp1444
(dp1445
g8
g10
sg1213
Nsg1214
(dp1446
sg1216
Nsg25
g27
sg1217
(lp1447
I15
aI1
asg1219
Nsg1220
VSifrei Bamidbar 15:1
p1448
sg1222
(lp1449
sg1224
g44
sg1225
Nsg1226
(lp1450
I15
aI1
asg1228
Nsg1229
g1448
sg1230
(lp1451
sg1232
g1194
sg1233
Nsg1234
Nsg1235
Nsbag3
(g4
g5
NtRp1452
(dp1453
g8
g10
sg1213
Nsg1214
(dp1454
sg1216
Nsg25
g27
sg1217
(lp1455
I15
aI2
asg1219
Nsg1220
VSifrei Bamidbar 15:2
p1456
sg1222
(lp1457
sg1224
g44
sg1225
Nsg1226
(lp1458
I15
aI2
asg1228
Nsg1229
g1456
sg1230
(lp1459
sg1232
g1194
sg1233
Nsg1234
Nsg1235
Nsbag3
(g4
g5
NtRp1460
(dp1461
g8
g10
sg1213
Nsg1214
(dp1462
sg1216
Nsg25
g27
sg1217
(lp1463
I16
aI1
asg1219
Nsg1220
VSifrei Bamidbar 16:1
p1464
sg1222
(lp1465
sg1224
g44
sg1225
Nsg1226
(lp1466
I16
aI1
asg1228
Nsg1229
g1464
sg1230
(lp1467
sg1232
g1194
sg1233
Nsg1234
Nsg1235
Nsbag3
(g4
g5
NtRp1468
(dp1469
g8
g10
sg1213
Nsg1214
(dp1470
sg1216
Nsg25
g27
sg1217
(lp1471
I17
aI1
asg1219
Nsg1220
VSifrei Bamidbar 17:1
p1472
sg1222
(lp1473
sg1224
g44
sg1225
Nsg1226
(lp1474
I17
aI1
asg1228
Nsg1229
g1472
sg1230
(lp1475
sg1232
g1194
sg1233
Nsg1234
Nsg1235
Nsbag3
(g4
g5
NtRp1476
(dp1477
g8
g10
sg1213
Nsg1214
(dp1478
sg1216
Nsg25
g27
sg1217
(lp1479
I18
aI1
asg1219
Nsg1220
VSifrei Bamidbar 18:1
p1480
sg1222
(lp1481
sg1224
g44
sg1225
Nsg1226
(lp1482
I18
aI1
asg1228
Nsg1229
g1480
sg1230
(lp1483
sg1232
g1194
sg1233
Nsg1234
Nsg1235
Nsbag3
(g4
g5
NtRp1484
(dp1485
g8
g10
sg1213
Nsg1214
(dp1486
sg1216
Nsg25
g27
sg1217
(lp1487
I19
aI1
asg1219
Nsg1220
VSifrei Bamidbar 19:1
p1488
sg1222
(lp1489
sg1224
g44
sg1225
Nsg1226
(lp1490
I19
aI1
asg1228
Nsg1229
g1488
sg1230
(lp1491
sg1232
g1194
sg1233
Nsg1234
Nsg1235
Nsbag3
(g4
g5
NtRp1492
(dp1493
g8
g10
sg1213
Nsg1214
(dp1494
sg1216
Nsg25
g27
sg1217
(lp1495
I20
aI1
asg1219
Nsg1220
VSifrei Bamidbar 20:1
p1496
sg1222
(lp1497
sg1224
g44
sg1225
Nsg1226
(lp1498
I20
aI1
asg1228
Nsg1229
g1496
sg1230
(lp1499
sg1232
g1194
sg1233
Nsg1234
Nsg1235
Nsbag3
(g4
g5
NtRp1500
(dp1501
g8
g10
sg1213
Nsg1214
(dp1502
sg1216
Nsg25
g27
sg1217
(lp1503
I21
aI1
asg1219
Nsg1220
VSifrei Bamidbar 21:1
p1504
sg1222
(lp1505
sg1224
g44
sg1225
Nsg1226
(lp1506
I21
aI1
asg1228
Nsg1229
g1504
sg1230
(lp1507
sg1232
g1194
sg1233
Nsg1234
Nsg1235
Nsbag3
(g4
g5
NtRp1508
(dp1509
g8
g10
sg1213
Nsg1214
(dp1510
sg1216
Nsg25
g27
sg1217
(lp1511
I22
aI1
asg1219
Nsg1220
VSifrei Bamidbar 22:1
p1512
sg1222
(lp1513
sg1224
g44
sg1225
Nsg1226
(lp1514
I22
aI1
asg1228
Nsg1229
g1512
sg1230
(lp1515
sg1232
g1194
sg1233
Nsg1234
Nsg1235
Nsbag3
(g4
g5
NtRp1516
(dp1517
g8
g10
sg1213
Nsg1214
(dp1518
sg1216
Nsg25
g27
sg1217
(lp1519
I23
aI1
asg1219
Nsg1220
VSifrei Bamidbar 23:1
p1520
sg1222
(lp1521
sg1224
g44
sg1225
Nsg1226
(lp1522
I23
aI1
asg1228
Nsg1229
g1520
sg1230
(lp1523
sg1232
g1194
sg1233
Nsg1234
Nsg1235
Nsbag3
(g4
g5
NtRp1524
(dp1525
g8
g10
sg1213
Nsg1214
(dp1526
sg1216
Nsg25
g27
sg1217
(lp1527
I24
aI1
asg1219
Nsg1220
VSifrei Bamidbar 24:1
p1528
sg1222
(lp1529
sg1224
g44
sg1225
Nsg1226
(lp1530
I24
aI1
asg1228
Nsg1229
g1528
sg1230
(lp1531
sg1232
g1194
sg1233
Nsg1234
Nsg1235
Nsbag3
(g4
g5
NtRp1532
(dp1533
g8
g10
sg1213
Nsg1214
(dp1534
sg1216
Nsg25
g27
sg1217
(lp1535
I25
aI1
asg1219
Nsg1220
VSifrei Bamidbar 25:1
p1536
sg1222
(lp1537
sg1224
g44
sg1225
Nsg1226
(lp1538
I25
aI1
asg1228
Nsg1229
g1536
sg1230
(lp1539
sg1232
g1194
sg1233
Nsg1234
Nsg1235
Nsbag3
(g4
g5
NtRp1540
(dp1541
g8
g10
sg1213
Nsg1214
(dp1542
sg1216
Nsg25
g27
sg1217
(lp1543
I26
aI1
asg1219
Nsg1220
VSifrei Bamidbar 26:1
p1544
sg1222
(lp1545
sg1224
g44
sg1225
Nsg1226
(lp1546
I26
aI1
asg1228
Nsg1229
g1544
sg1230
(lp1547
sg1232
g1194
sg1233
Nsg1234
Nsg1235
Nsbag3
(g4
g5
NtRp1548
(dp1549
g8
g10
sg1213
Nsg1214
(dp1550
sg1216
Nsg25
g27
sg1217
(lp1551
I27
aI1
asg1219
Nsg1220
VSifrei Bamidbar 27:1
p1552
sg1222
(lp1553
sg1224
g44
sg1225
Nsg1226
(lp1554
I27
aI1
asg1228
Nsg1229
g1552
sg1230
(lp1555
sg1232
g1194
sg1233
Nsg1234
Nsg1235
Nsbag3
(g4
g5
NtRp1556
(dp1557
g8
g10
sg1213
Nsg1214
(dp1558
sg1216
Nsg25
g27
sg1217
(lp1559
I28
aI1
asg1219
Nsg1220
VSifrei Bamidbar 28:1
p1560
sg1222
(lp1561
sg1224
g44
sg1225
Nsg1226
(lp1562
I28
aI1
asg1228
Nsg1229
g1560
sg1230
(lp1563
sg1232
g1194
sg1233
Nsg1234
Nsg1235
Nsbag3
(g4
g5
NtRp1564
(dp1565
g8
g10
sg1213
Nsg1214
(dp1566
sg1216
Nsg25
g27
sg1217
(lp1567
I28
aI2
asg1219
Nsg1220
VSifrei Bamidbar 28:2
p1568
sg1222
(lp1569
sg1224
g44
sg1225
Nsg1226
(lp1570
I28
aI2
asg1228
Nsg1229
g1568
sg1230
(lp1571
sg1232
g1194
sg1233
Nsg1234
Nsg1235
Nsbag3
(g4
g5
NtRp1572
(dp1573
g8
g10
sg1213
Nsg1214
(dp1574
sg1216
Nsg25
g27
sg1217
(lp1575
I29
aI1
asg1219
Nsg1220
VSifrei Bamidbar 29:1
p1576
sg1222
(lp1577
sg1224
g44
sg1225
Nsg1226
(lp1578
I29
aI1
asg1228
Nsg1229
g1576
sg1230
(lp1579
sg1232
g1194
sg1233
Nsg1234
Nsg1235
Nsbag3
(g4
g5
NtRp1580
(dp1581
g8
g10
sg1213
Nsg1214
(dp1582
sg1216
Nsg25
g27
sg1217
(lp1583
I29
aI2
asg1219
Nsg1220
VSifrei Bamidbar 29:2
p1584
sg1222
(lp1585
sg1224
g44
sg1225
Nsg1226
(lp1586
I29
aI2
asg1228
Nsg1229
g1584
sg1230
(lp1587
sg1232
g1194
sg1233
Nsg1234
Nsg1235
Nsbag3
(g4
g5
NtRp1588
(dp1589
g8
g10
sg1213
Nsg1214
(dp1590
sg1216
Nsg25
g27
sg1217
(lp1591
I30
aI1
asg1219
Nsg1220
VSifrei Bamidbar 30:1
p1592
sg1222
(lp1593
sg1224
g44
sg1225
Nsg1226
(lp1594
I30
aI1
asg1228
Nsg1229
g1592
sg1230
(lp1595
sg1232
g1194
sg1233
Nsg1234
Nsg1235
Nsbag3
(g4
g5
NtRp1596
(dp1597
g8
g10
sg1213
Nsg1214
(dp1598
sg1216
Nsg25
g27
sg1217
(lp1599
I31
aI1
asg1219
Nsg1220
VSifrei Bamidbar 31:1
p1600
sg1222
(lp1601
sg1224
g44
sg1225
Nsg1226
(lp1602
I31
aI1
asg1228
Nsg1229
g1600
sg1230
(lp1603
sg1232
g1194
sg1233
Nsg1234
Nsg1235
Nsbag3
(g4
g5
NtRp1604
(dp1605
g8
g10
sg1213
Nsg1214
(dp1606
sg1216
Nsg25
g27
sg1217
(lp1607
I31
aI2
asg1219
Nsg1220
VSifrei Bamidbar 31:2
p1608
sg1222
(lp1609
sg1224
g44
sg1225
Nsg1226
(lp1610
I31
aI2
asg1228
Nsg1229
g1608
sg1230
(lp1611
sg1232
g1194
sg1233
Nsg1234
Nsg1235
Nsbag3
(g4
g5
NtRp1612
(dp1613
g8
g10
sg1213
Nsg1214
(dp1614
sg1216
Nsg25
g27
sg1217
(lp1615
I31
aI3
asg1219
Nsg1220
VSifrei Bamidbar 31:3
p1616
sg1222
(lp1617
sg1224
g44
sg1225
Nsg1226
(lp1618
I31
aI3
asg1228
Nsg1229
g1616
sg1230
(lp1619
sg1232
g1194
sg1233
Nsg1234
Nsg1235
Nsbag3
(g4
g5
NtRp1620
(dp1621
g8
g10
sg1213
Nsg1214
(dp1622
sg1216
Nsg25
g27
sg1217
(lp1623
I32
aI1
asg1219
Nsg1220
VSifrei Bamidbar 32:1
p1624
sg1222
(lp1625
sg1224
g44
sg1225
Nsg1226
(lp1626
I32
aI1
asg1228
Nsg1229
g1624
sg1230
(lp1627
sg1232
g1194
sg1233
Nsg1234
Nsg1235
Nsbag3
(g4
g5
NtRp1628
(dp1629
g8
g10
sg1213
Nsg1214
(dp1630
sg1216
Nsg25
g27
sg1217
(lp1631
I33
aI1
asg1219
Nsg1220
VSifrei Bamidbar 33:1
p1632
sg1222
(lp1633
sg1224
g44
sg1225
Nsg1226
(lp1634
I33
aI1
asg1228
Nsg1229
g1632
sg1230
(lp1635
sg1232
g1194
sg1233
Nsg1234
Nsg1235
Nsbag3
(g4
g5
NtRp1636
(dp1637
g8
g10
sg1213
Nsg1214
(dp1638
sg1216
Nsg25
g27
sg1217
(lp1639
I34
aI1
asg1219
Nsg1220
VSifrei Bamidbar 34:1
p1640
sg1222
(lp1641
sg1224
g44
sg1225
Nsg1226
(lp1642
I34
aI1
asg1228
Nsg1229
g1640
sg1230
(lp1643
sg1232
g1194
sg1233
Nsg1234
Nsg1235
Nsbag3
(g4
g5
NtRp1644
(dp1645
g8
g10
sg1213
Nsg1214
(dp1646
sg1216
Nsg25
g27
sg1217
(lp1647
I35
aI1
asg1219
Nsg1220
VSifrei Bamidbar 35:1
p1648
sg1222
(lp1649
sg1224
g44
sg1225
Nsg1226
(lp1650
I35
aI1
asg1228
Nsg1229
g1648
sg1230
(lp1651
sg1232
g1194
sg1233
Nsg1234
Nsg1235
Nsbag3
(g4
g5
NtRp1652
(dp1653
g8
g10
sg1213
Nsg1214
(dp1654
sg1216
Nsg25
g27
sg1217
(lp1655
I36
aI1
asg1219
Nsg1220
VSifrei Bamidbar 36:1
p1656
sg1222
(lp1657
sg1224
g44
sg1225
Nsg1226
(lp1658
I36
aI1
asg1228
Nsg1229
g1656
sg1230
(lp1659
sg1232
g1194
sg1233
Nsg1234
Nsg1235
Nsbag3
(g4
g5
NtRp1660
(dp1661
g8
g10
sg1213
Nsg1214
(dp1662
sg1216
Nsg25
g27
sg1217
(lp1663
I37
aI1
asg1219
Nsg1220
VSifrei Bamidbar 37:1
p1664
sg1222
(lp1665
sg1224
g44
sg1225
Nsg1226
(lp1666
I37
aI1
asg1228
Nsg1229
g1664
sg1230
(lp1667
sg1232
g1194
sg1233
Nsg1234
Nsg1235
Nsbag3
(g4
g5
NtRp1668
(dp1669
g8
g10
sg1213
Nsg1214
(dp1670
sg1216
Nsg25
g27
sg1217
(lp1671
I38
aI1
asg1219
Nsg1220
VSifrei Bamidbar 38:1
p1672
sg1222
(lp1673
sg1224
g44
sg1225
Nsg1226
(lp1674
I38
aI1
asg1228
Nsg1229
g1672
sg1230
(lp1675
sg1232
g1194
sg1233
Nsg1234
Nsg1235
Nsbag3
(g4
g5
NtRp1676
(dp1677
g8
g10
sg1213
Nsg1214
(dp1678
sg1216
Nsg25
g27
sg1217
(lp1679
I39
aI1
asg1219
Nsg1220
VSifrei Bamidbar 39:1
p1680
sg1222
(lp1681
sg1224
g44
sg1225
Nsg1226
(lp1682
I39
aI1
asg1228
Nsg1229
g1680
sg1230
(lp1683
sg1232
g1194
sg1233
Nsg1234
Nsg1235
Nsbag3
(g4
g5
NtRp1684
(dp1685
g8
g10
sg1213
Nsg1214
(dp1686
sg1216
Nsg25
g27
sg1217
(lp1687
I40
aI1
asg1219
Nsg1220
VSifrei Bamidbar 40:1
p1688
sg1222
(lp1689
sg1224
g44
sg1225
Nsg1226
(lp1690
I40
aI1
asg1228
Nsg1229
g1688
sg1230
(lp1691
sg1232
g1194
sg1233
Nsg1234
Nsg1235
Nsbag3
(g4
g5
NtRp1692
(dp1693
g8
g10
sg1213
Nsg1214
(dp1694
sg1216
Nsg25
g27
sg1217
(lp1695
I41
aI1
asg1219
Nsg1220
VSifrei Bamidbar 41:1
p1696
sg1222
(lp1697
sg1224
g44
sg1225
Nsg1226
(lp1698
I41
aI1
asg1228
Nsg1229
g1696
sg1230
(lp1699
sg1232
g1194
sg1233
Nsg1234
Nsg1235
Nsbag3
(g4
g5
NtRp1700
(dp1701
g8
g10
sg1213
Nsg1214
(dp1702
sg1216
Nsg25
g27
sg1217
(lp1703
I42
aI1
asg1219
Nsg1220
VSifrei Bamidbar 42:1
p1704
sg1222
(lp1705
sg1224
g44
sg1225
Nsg1226
(lp1706
I42
aI1
asg1228
Nsg1229
g1704
sg1230
(lp1707
sg1232
g1194
sg1233
Nsg1234
Nsg1235
Nsbag3
(g4
g5
NtRp1708
(dp1709
g8
g10
sg1213
Nsg1214
(dp1710
sg1216
Nsg25
g27
sg1217
(lp1711
I42
aI2
asg1219
Nsg1220
VSifrei Bamidbar 42:2
p1712
sg1222
(lp1713
sg1224
g44
sg1225
Nsg1226
(lp1714
I42
aI2
asg1228
Nsg1229
g1712
sg1230
(lp1715
sg1232
g1194
sg1233
Nsg1234
Nsg1235
Nsbag3
(g4
g5
NtRp1716
(dp1717
g8
g10
sg1213
Nsg1214
(dp1718
sg1216
Nsg25
g27
sg1217
(lp1719
I42
aI3
asg1219
Nsg1220
VSifrei Bamidbar 42:3
p1720
sg1222
(lp1721
sg1224
g44
sg1225
Nsg1226
(lp1722
I42
aI3
asg1228
Nsg1229
g1720
sg1230
(lp1723
sg1232
g1194
sg1233
Nsg1234
Nsg1235
Nsbag3
(g4
g5
NtRp1724
(dp1725
g8
g10
sg1213
Nsg1214
(dp1726
sg1216
Nsg25
g27
sg1217
(lp1727
I42
aI4
asg1219
Nsg1220
VSifrei Bamidbar 42:4
p1728
sg1222
(lp1729
sg1224
g44
sg1225
Nsg1226
(lp1730
I42
aI4
asg1228
Nsg1229
g1728
sg1230
(lp1731
sg1232
g1194
sg1233
Nsg1234
Nsg1235
Nsbag3
(g4
g5
NtRp1732
(dp1733
g8
g10
sg1213
Nsg1214
(dp1734
sg1216
Nsg25
g27
sg1217
(lp1735
I43
aI1
asg1219
Nsg1220
VSifrei Bamidbar 43:1
p1736
sg1222
(lp1737
sg1224
g44
sg1225
Nsg1226
(lp1738
I43
aI1
asg1228
Nsg1229
g1736
sg1230
(lp1739
sg1232
g1194
sg1233
Nsg1234
Nsg1235
Nsbag3
(g4
g5
NtRp1740
(dp1741
g8
g10
sg1213
Nsg1214
(dp1742
sg1216
Nsg25
g27
sg1217
(lp1743
I44
aI1
asg1219
Nsg1220
VSifrei Bamidbar 44:1
p1744
sg1222
(lp1745
sg1224
g44
sg1225
Nsg1226
(lp1746
I44
aI1
asg1228
Nsg1229
g1744
sg1230
(lp1747
sg1232
g1194
sg1233
Nsg1234
Nsg1235
Nsbag3
(g4
g5
NtRp1748
(dp1749
g8
g10
sg1213
Nsg1214
(dp1750
sg1216
Nsg25
g27
sg1217
(lp1751
I45
aI1
asg1219
Nsg1220
VSifrei Bamidbar 45:1
p1752
sg1222
(lp1753
sg1224
g44
sg1225
Nsg1226
(lp1754
I45
aI1
asg1228
Nsg1229
g1752
sg1230
(lp1755
sg1232
g1194
sg1233
Nsg1234
Nsg1235
Nsbag3
(g4
g5
NtRp1756
(dp1757
g8
g10
sg1213
Nsg1214
(dp1758
sg1216
Nsg25
g27
sg1217
(lp1759
I46
aI1
asg1219
Nsg1220
VSifrei Bamidbar 46:1
p1760
sg1222
(lp1761
sg1224
g44
sg1225
Nsg1226
(lp1762
I46
aI1
asg1228
Nsg1229
g1760
sg1230
(lp1763
sg1232
g1194
sg1233
Nsg1234
Nsg1235
Nsbag3
(g4
g5
NtRp1764
(dp1765
g8
g10
sg1213
Nsg1214
(dp1766
sg1216
Nsg25
g27
sg1217
(lp1767
I46
aI2
asg1219
Nsg1220
VSifrei Bamidbar 46:2
p1768
sg1222
(lp1769
sg1224
g44
sg1225
Nsg1226
(lp1770
I46
aI2
asg1228
Nsg1229
g1768
sg1230
(lp1771
sg1232
g1194
sg1233
Nsg1234
Nsg1235
Nsbag3
(g4
g5
NtRp1772
(dp1773
g8
g10
sg1213
Nsg1214
(dp1774
sg1216
Nsg25
g27
sg1217
(lp1775
I47
aI1
asg1219
Nsg1220
VSifrei Bamidbar 47:1
p1776
sg1222
(lp1777
sg1224
g44
sg1225
Nsg1226
(lp1778
I47
aI1
asg1228
Nsg1229
g1776
sg1230
(lp1779
sg1232
g1194
sg1233
Nsg1234
Nsg1235
Nsbag3
(g4
g5
NtRp1780
(dp1781
g8
g10
sg1213
Nsg1214
(dp1782
sg1216
Nsg25
g27
sg1217
(lp1783
I48
aI1
asg1219
Nsg1220
VSifrei Bamidbar 48:1
p1784
sg1222
(lp1785
sg1224
g44
sg1225
Nsg1226
(lp1786
I48
aI1
asg1228
Nsg1229
g1784
sg1230
(lp1787
sg1232
g1194
sg1233
Nsg1234
Nsg1235
Nsbag3
(g4
g5
NtRp1788
(dp1789
g8
g10
sg1213
Nsg1214
(dp1790
sg1216
Nsg25
g27
sg1217
(lp1791
I49
aI1
asg1219
Nsg1220
VSifrei Bamidbar 49:1
p1792
sg1222
(lp1793
sg1224
g44
sg1225
Nsg1226
(lp1794
I49
aI1
asg1228
Nsg1229
g1792
sg1230
(lp1795
sg1232
g1194
sg1233
Nsg1234
Nsg1235
Nsbag3
(g4
g5
NtRp1796
(dp1797
g8
g10
sg1213
Nsg1214
(dp1798
sg1216
Nsg25
g27
sg1217
(lp1799
I50
aI1
asg1219
Nsg1220
VSifrei Bamidbar 50:1
p1800
sg1222
(lp1801
sg1224
g44
sg1225
Nsg1226
(lp1802
I50
aI1
asg1228
Nsg1229
g1800
sg1230
(lp1803
sg1232
g1194
sg1233
Nsg1234
Nsg1235
Nsbag3
(g4
g5
NtRp1804
(dp1805
g8
g10
sg1213
Nsg1214
(dp1806
sg1216
Nsg25
g27
sg1217
(lp1807
I51
aI1
asg1219
Nsg1220
VSifrei Bamidbar 51:1
p1808
sg1222
(lp1809
sg1224
g44
sg1225
Nsg1226
(lp1810
I51
aI1
asg1228
Nsg1229
g1808
sg1230
(lp1811
sg1232
g1194
sg1233
Nsg1234
Nsg1235
Nsbag3
(g4
g5
NtRp1812
(dp1813
g8
g10
sg1213
Nsg1214
(dp1814
sg1216
Nsg25
g27
sg1217
(lp1815
I52
aI1
asg1219
Nsg1220
VSifrei Bamidbar 52:1
p1816
sg1222
(lp1817
sg1224
g44
sg1225
Nsg1226
(lp1818
I52
aI1
asg1228
Nsg1229
g1816
sg1230
(lp1819
sg1232
g1194
sg1233
Nsg1234
Nsg1235
Nsbag3
(g4
g5
NtRp1820
(dp1821
g8
g10
sg1213
Nsg1214
(dp1822
sg1216
Nsg25
g27
sg1217
(lp1823
I53
aI1
asg1219
Nsg1220
VSifrei Bamidbar 53:1
p1824
sg1222
(lp1825
sg1224
g44
sg1225
Nsg1226
(lp1826
I53
aI1
asg1228
Nsg1229
g1824
sg1230
(lp1827
sg1232
g1194
sg1233
Nsg1234
Nsg1235
Nsbag3
(g4
g5
NtRp1828
(dp1829
g8
g10
sg1213
Nsg1214
(dp1830
sg1216
Nsg25
g27
sg1217
(lp1831
I54
aI1
asg1219
Nsg1220
VSifrei Bamidbar 54:1
p1832
sg1222
(lp1833
sg1224
g44
sg1225
Nsg1226
(lp1834
I54
aI1
asg1228
Nsg1229
g1832
sg1230
(lp1835
sg1232
g1194
sg1233
Nsg1234
Nsg1235
Nsbag3
(g4
g5
NtRp1836
(dp1837
g8
g10
sg1213
Nsg1214
(dp1838
sg1216
Nsg25
g27
sg1217
(lp1839
I55
aI1
asg1219
Nsg1220
VSifrei Bamidbar 55:1
p1840
sg1222
(lp1841
sg1224
g44
sg1225
Nsg1226
(lp1842
I55
aI1
asg1228
Nsg1229
g1840
sg1230
(lp1843
sg1232
g1194
sg1233
Nsg1234
Nsg1235
Nsbag3
(g4
g5
NtRp1844
(dp1845
g8
g10
sg1213
Nsg1214
(dp1846
sg1216
Nsg25
g27
sg1217
(lp1847
I56
aI1
asg1219
Nsg1220
VSifrei Bamidbar 56:1
p1848
sg1222
(lp1849
sg1224
g44
sg1225
Nsg1226
(lp1850
I56
aI1
asg1228
Nsg1229
g1848
sg1230
(lp1851
sg1232
g1194
sg1233
Nsg1234
Nsg1235
Nsbag3
(g4
g5
NtRp1852
(dp1853
g8
g10
sg1213
Nsg1214
(dp1854
sg1216
Nsg25
g27
sg1217
(lp1855
I57
aI1
asg1219
Nsg1220
VSifrei Bamidbar 57:1
p1856
sg1222
(lp1857
sg1224
g44
sg1225
Nsg1226
(lp1858
I57
aI1
asg1228
Nsg1229
g1856
sg1230
(lp1859
sg1232
g1194
sg1233
Nsg1234
Nsg1235
Nsbag3
(g4
g5
NtRp1860
(dp1861
g8
g10
sg1213
Nsg1214
(dp1862
sg1216
Nsg25
g27
sg1217
(lp1863
I58
aI1
asg1219
Nsg1220
VSifrei Bamidbar 58:1
p1864
sg1222
(lp1865
sg1224
g44
sg1225
Nsg1226
(lp1866
I58
aI1
asg1228
Nsg1229
g1864
sg1230
(lp1867
sg1232
g1194
sg1233
Nsg1234
Nsg1235
Nsbag3
(g4
g5
NtRp1868
(dp1869
g8
g10
sg1213
Nsg1214
(dp1870
sg1216
Nsg25
g27
sg1217
(lp1871
I58
aI2
asg1219
Nsg1220
VSifrei Bamidbar 58:2
p1872
sg1222
(lp1873
sg1224
g44
sg1225
Nsg1226
(lp1874
I58
aI2
asg1228
Nsg1229
g1872
sg1230
(lp1875
sg1232
g1194
sg1233
Nsg1234
Nsg1235
Nsbag3
(g4
g5
NtRp1876
(dp1877
g8
g10
sg1213
Nsg1214
(dp1878
sg1216
Nsg25
g27
sg1217
(lp1879
I59
aI1
asg1219
Nsg1220
VSifrei Bamidbar 59:1
p1880
sg1222
(lp1881
sg1224
g44
sg1225
Nsg1226
(lp1882
I59
aI1
asg1228
Nsg1229
g1880
sg1230
(lp1883
sg1232
g1194
sg1233
Nsg1234
Nsg1235
Nsbag3
(g4
g5
NtRp1884
(dp1885
g8
g10
sg1213
Nsg1214
(dp1886
sg1216
Nsg25
g27
sg1217
(lp1887
I60
aI1
asg1219
Nsg1220
VSifrei Bamidbar 60:1
p1888
sg1222
(lp1889
sg1224
g44
sg1225
Nsg1226
(lp1890
I60
aI1
asg1228
Nsg1229
g1888
sg1230
(lp1891
sg1232
g1194
sg1233
Nsg1234
Nsg1235
Nsbag3
(g4
g5
NtRp1892
(dp1893
g8
g10
sg1213
Nsg1214
(dp1894
sg1216
Nsg25
g27
sg1217
(lp1895
I61
aI1
asg1219
Nsg1220
VSifrei Bamidbar 61:1
p1896
sg1222
(lp1897
sg1224
g44
sg1225
Nsg1226
(lp1898
I61
aI1
asg1228
Nsg1229
g1896
sg1230
(lp1899
sg1232
g1194
sg1233
Nsg1234
Nsg1235
Nsbag3
(g4
g5
NtRp1900
(dp1901
g8
g10
sg1213
Nsg1214
(dp1902
sg1216
Nsg25
g27
sg1217
(lp1903
I62
aI1
asg1219
Nsg1220
VSifrei Bamidbar 62:1
p1904
sg1222
(lp1905
sg1224
g44
sg1225
Nsg1226
(lp1906
I62
aI1
asg1228
Nsg1229
g1904
sg1230
(lp1907
sg1232
g1194
sg1233
Nsg1234
Nsg1235
Nsbag3
(g4
g5
NtRp1908
(dp1909
g8
g10
sg1213
Nsg1214
(dp1910
sg1216
Nsg25
g27
sg1217
(lp1911
I63
aI1
asg1219
Nsg1220
VSifrei Bamidbar 63:1
p1912
sg1222
(lp1913
sg1224
g44
sg1225
Nsg1226
(lp1914
I63
aI1
asg1228
Nsg1229
g1912
sg1230
(lp1915
sg1232
g1194
sg1233
Nsg1234
Nsg1235
Nsbag3
(g4
g5
NtRp1916
(dp1917
g8
g10
sg1213
Nsg1214
(dp1918
sg1216
Nsg25
g27
sg1217
(lp1919
I64
aI1
asg1219
Nsg1220
VSifrei Bamidbar 64:1
p1920
sg1222
(lp1921
sg1224
g44
sg1225
Nsg1226
(lp1922
I64
aI1
asg1228
Nsg1229
g1920
sg1230
(lp1923
sg1232
g1194
sg1233
Nsg1234
Nsg1235
Nsbag3
(g4
g5
NtRp1924
(dp1925
g8
g10
sg1213
Nsg1214
(dp1926
sg1216
Nsg25
g27
sg1217
(lp1927
I64
aI2
asg1219
Nsg1220
VSifrei Bamidbar 64:2
p1928
sg1222
(lp1929
sg1224
g44
sg1225
Nsg1226
(lp1930
I64
aI2
asg1228
Nsg1229
g1928
sg1230
(lp1931
sg1232
g1194
sg1233
Nsg1234
Nsg1235
Nsbag3
(g4
g5
NtRp1932
(dp1933
g8
g10
sg1213
Nsg1214
(dp1934
sg1216
Nsg25
g27
sg1217
(lp1935
I65
aI1
asg1219
Nsg1220
VSifrei Bamidbar 65:1
p1936
sg1222
(lp1937
sg1224
g44
sg1225
Nsg1226
(lp1938
I65
aI1
asg1228
Nsg1229
g1936
sg1230
(lp1939
sg1232
g1194
sg1233
Nsg1234
Nsg1235
Nsbag3
(g4
g5
NtRp1940
(dp1941
g8
g10
sg1213
Nsg1214
(dp1942
sg1216
Nsg25
g27
sg1217
(lp1943
I66
aI1
asg1219
Nsg1220
VSifrei Bamidbar 66:1
p1944
sg1222
(lp1945
sg1224
g44
sg1225
Nsg1226
(lp1946
I66
aI1
asg1228
Nsg1229
g1944
sg1230
(lp1947
sg1232
g1194
sg1233
Nsg1234
Nsg1235
Nsbag3
(g4
g5
NtRp1948
(dp1949
g8
g10
sg1213
Nsg1214
(dp1950
sg1216
Nsg25
g27
sg1217
(lp1951
I67
aI1
asg1219
Nsg1220
VSifrei Bamidbar 67:1
p1952
sg1222
(lp1953
sg1224
g44
sg1225
Nsg1226
(lp1954
I67
aI1
asg1228
Nsg1229
g1952
sg1230
(lp1955
sg1232
g1194
sg1233
Nsg1234
Nsg1235
Nsbag3
(g4
g5
NtRp1956
(dp1957
g8
g10
sg1213
Nsg1214
(dp1958
sg1216
Nsg25
g27
sg1217
(lp1959
I68
aI1
asg1219
Nsg1220
VSifrei Bamidbar 68:1
p1960
sg1222
(lp1961
sg1224
g44
sg1225
Nsg1226
(lp1962
I68
aI1
asg1228
Nsg1229
g1960
sg1230
(lp1963
sg1232
g1194
sg1233
Nsg1234
Nsg1235
Nsbag3
(g4
g5
NtRp1964
(dp1965
g8
g10
sg1213
Nsg1214
(dp1966
sg1216
Nsg25
g27
sg1217
(lp1967
I69
aI1
asg1219
Nsg1220
VSifrei Bamidbar 69:1
p1968
sg1222
(lp1969
sg1224
g44
sg1225
Nsg1226
(lp1970
I69
aI1
asg1228
Nsg1229
g1968
sg1230
(lp1971
sg1232
g1194
sg1233
Nsg1234
Nsg1235
Nsbag3
(g4
g5
NtRp1972
(dp1973
g8
g10
sg1213
Nsg1214
(dp1974
sg1216
Nsg25
g27
sg1217
(lp1975
I69
aI2
asg1219
Nsg1220
VSifrei Bamidbar 69:2
p1976
sg1222
(lp1977
sg1224
g44
sg1225
Nsg1226
(lp1978
I69
aI2
asg1228
Nsg1229
g1976
sg1230
(lp1979
sg1232
g1194
sg1233
Nsg1234
Nsg1235
Nsbag3
(g4
g5
NtRp1980
(dp1981
g8
g10
sg1213
Nsg1214
(dp1982
sg1216
Nsg25
g27
sg1217
(lp1983
I70
aI1
asg1219
Nsg1220
VSifrei Bamidbar 70:1
p1984
sg1222
(lp1985
sg1224
g44
sg1225
Nsg1226
(lp1986
I70
aI1
asg1228
Nsg1229
g1984
sg1230
(lp1987
sg1232
g1194
sg1233
Nsg1234
Nsg1235
Nsbag3
(g4
g5
NtRp1988
(dp1989
g8
g10
sg1213
Nsg1214
(dp1990
sg1216
Nsg25
g27
sg1217
(lp1991
I71
aI1
asg1219
Nsg1220
VSifrei Bamidbar 71:1
p1992
sg1222
(lp1993
sg1224
g44
sg1225
Nsg1226
(lp1994
I71
aI1
asg1228
Nsg1229
g1992
sg1230
(lp1995
sg1232
g1194
sg1233
Nsg1234
Nsg1235
Nsbag3
(g4
g5
NtRp1996
(dp1997
g8
g10
sg1213
Nsg1214
(dp1998
sg1216
Nsg25
g27
sg1217
(lp1999
I72
aI1
asg1219
Nsg1220
VSifrei Bamidbar 72:1
p2000
sg1222
(lp2001
sg1224
g44
sg1225
Nsg1226
(lp2002
I72
aI1
asg1228
Nsg1229
g2000
sg1230
(lp2003
sg1232
g1194
sg1233
Nsg1234
Nsg1235
Nsbag3
(g4
g5
NtRp2004
(dp2005
g8
g10
sg1213
Nsg1214
(dp2006
sg1216
Nsg25
g27
sg1217
(lp2007
I73
aI1
asg1219
Nsg1220
VSifrei Bamidbar 73:1
p2008
sg1222
(lp2009
sg1224
g44
sg1225
Nsg1226
(lp2010
I73
aI1
asg1228
Nsg1229
g2008
sg1230
(lp2011
sg1232
g1194
sg1233
Nsg1234
Nsg1235
Nsbag3
(g4
g5
NtRp2012
(dp2013
g8
g10
sg1213
Nsg1214
(dp2014
sg1216
Nsg25
g27
sg1217
(lp2015
I73
aI2
asg1219
Nsg1220
VSifrei Bamidbar 73:2
p2016
sg1222
(lp2017
sg1224
g44
sg1225
Nsg1226
(lp2018
I73
aI2
asg1228
Nsg1229
g2016
sg1230
(lp2019
sg1232
g1194
sg1233
Nsg1234
Nsg1235
Nsbag3
(g4
g5
NtRp2020
(dp2021
g8
g10
sg1213
Nsg1214
(dp2022
sg1216
Nsg25
g27
sg1217
(lp2023
I73
aI3
asg1219
Nsg1220
VSifrei Bamidbar 73:3
p2024
sg1222
(lp2025
sg1224
g44
sg1225
Nsg1226
(lp2026
I73
aI3
asg1228
Nsg1229
g2024
sg1230
(lp2027
sg1232
g1194
sg1233
Nsg1234
Nsg1235
Nsbag3
(g4
g5
NtRp2028
(dp2029
g8
g10
sg1213
Nsg1214
(dp2030
sg1216
Nsg25
g27
sg1217
(lp2031
I74
aI1
asg1219
Nsg1220
VSifrei Bamidbar 74:1
p2032
sg1222
(lp2033
sg1224
g44
sg1225
Nsg1226
(lp2034
I74
aI1
asg1228
Nsg1229
g2032
sg1230
(lp2035
sg1232
g1194
sg1233
Nsg1234
Nsg1235
Nsbag3
(g4
g5
NtRp2036
(dp2037
g8
g10
sg1213
Nsg1214
(dp2038
sg1216
Nsg25
g27
sg1217
(lp2039
I75
aI1
asg1219
Nsg1220
VSifrei Bamidbar 75:1
p2040
sg1222
(lp2041
sg1224
g44
sg1225
Nsg1226
(lp2042
I75
aI1
asg1228
Nsg1229
g2040
sg1230
(lp2043
sg1232
g1194
sg1233
Nsg1234
Nsg1235
Nsbag3
(g4
g5
NtRp2044
(dp2045
g8
g10
sg1213
Nsg1214
(dp2046
sg1216
Nsg25
g27
sg1217
(lp2047
I76
aI1
asg1219
Nsg1220
VSifrei Bamidbar 76:1
p2048
sg1222
(lp2049
sg1224
g44
sg1225
Nsg1226
(lp2050
I76
aI1
asg1228
Nsg1229
g2048
sg1230
(lp2051
sg1232
g1194
sg1233
Nsg1234
Nsg1235
Nsbag3
(g4
g5
NtRp2052
(dp2053
g8
g10
sg1213
Nsg1214
(dp2054
sg1216
Nsg25
g27
sg1217
(lp2055
I77
aI1
asg1219
Nsg1220
VSifrei Bamidbar 77:1
p2056
sg1222
(lp2057
sg1224
g44
sg1225
Nsg1226
(lp2058
I77
aI1
asg1228
Nsg1229
g2056
sg1230
(lp2059
sg1232
g1194
sg1233
Nsg1234
Nsg1235
Nsbag3
(g4
g5
NtRp2060
(dp2061
g8
g10
sg1213
Nsg1214
(dp2062
sg1216
Nsg25
g27
sg1217
(lp2063
I78
aI1
asg1219
Nsg1220
VSifrei Bamidbar 78:1
p2064
sg1222
(lp2065
sg1224
g44
sg1225
Nsg1226
(lp2066
I78
aI1
asg1228
Nsg1229
g2064
sg1230
(lp2067
sg1232
g1194
sg1233
Nsg1234
Nsg1235
Nsbag3
(g4
g5
NtRp2068
(dp2069
g8
g10
sg1213
Nsg1214
(dp2070
sg1216
Nsg25
g27
sg1217
(lp2071
I78
aI2
asg1219
Nsg1220
VSifrei Bamidbar 78:2
p2072
sg1222
(lp2073
sg1224
g44
sg1225
Nsg1226
(lp2074
I78
aI2
asg1228
Nsg1229
g2072
sg1230
(lp2075
sg1232
g1194
sg1233
Nsg1234
Nsg1235
Nsbag3
(g4
g5
NtRp2076
(dp2077
g8
g10
sg1213
Nsg1214
(dp2078
sg1216
Nsg25
g27
sg1217
(lp2079
I78
aI3
asg1219
Nsg1220
VSifrei Bamidbar 78:3
p2080
sg1222
(lp2081
sg1224
g44
sg1225
Nsg1226
(lp2082
I78
aI3
asg1228
Nsg1229
g2080
sg1230
(lp2083
sg1232
g1194
sg1233
Nsg1234
Nsg1235
Nsbag3
(g4
g5
NtRp2084
(dp2085
g8
g10
sg1213
Nsg1214
(dp2086
sg1216
Nsg25
g27
sg1217
(lp2087
I79
aI1
asg1219
Nsg1220
VSifrei Bamidbar 79:1
p2088
sg1222
(lp2089
sg1224
g44
sg1225
Nsg1226
(lp2090
I79
aI1
asg1228
Nsg1229
g2088
sg1230
(lp2091
sg1232
g1194
sg1233
Nsg1234
Nsg1235
Nsbag3
(g4
g5
NtRp2092
(dp2093
g8
g10
sg1213
Nsg1214
(dp2094
sg1216
Nsg25
g27
sg1217
(lp2095
I80
aI1
asg1219
Nsg1220
VSifrei Bamidbar 80:1
p2096
sg1222
(lp2097
sg1224
g44
sg1225
Nsg1226
(lp2098
I80
aI1
asg1228
Nsg1229
g2096
sg1230
(lp2099
sg1232
g1194
sg1233
Nsg1234
Nsg1235
Nsbag3
(g4
g5
NtRp2100
(dp2101
g8
g10
sg1213
Nsg1214
(dp2102
sg1216
Nsg25
g27
sg1217
(lp2103
I81
aI1
asg1219
Nsg1220
VSifrei Bamidbar 81:1
p2104
sg1222
(lp2105
sg1224
g44
sg1225
Nsg1226
(lp2106
I81
aI1
asg1228
Nsg1229
g2104
sg1230
(lp2107
sg1232
g1194
sg1233
Nsg1234
Nsg1235
Nsbag3
(g4
g5
NtRp2108
(dp2109
g8
g10
sg1213
Nsg1214
(dp2110
sg1216
Nsg25
g27
sg1217
(lp2111
I82
aI1
asg1219
Nsg1220
VSifrei Bamidbar 82:1
p2112
sg1222
(lp2113
sg1224
g44
sg1225
Nsg1226
(lp2114
I82
aI1
asg1228
Nsg1229
g2112
sg1230
(lp2115
sg1232
g1194
sg1233
Nsg1234
Nsg1235
Nsbag3
(g4
g5
NtRp2116
(dp2117
g8
g10
sg1213
Nsg1214
(dp2118
sg1216
Nsg25
g27
sg1217
(lp2119
I83
aI1
asg1219
Nsg1220
VSifrei Bamidbar 83:1
p2120
sg1222
(lp2121
sg1224
g44
sg1225
Nsg1226
(lp2122
I83
aI1
asg1228
Nsg1229
g2120
sg1230
(lp2123
sg1232
g1194
sg1233
Nsg1234
Nsg1235
Nsbag3
(g4
g5
NtRp2124
(dp2125
g8
g10
sg1213
Nsg1214
(dp2126
sg1216
Nsg25
g27
sg1217
(lp2127
I83
aI2
asg1219
Nsg1220
VSifrei Bamidbar 83:2
p2128
sg1222
(lp2129
sg1224
g44
sg1225
Nsg1226
(lp2130
I83
aI2
asg1228
Nsg1229
g2128
sg1230
(lp2131
sg1232
g1194
sg1233
Nsg1234
Nsg1235
Nsbag3
(g4
g5
NtRp2132
(dp2133
g8
g10
sg1213
Nsg1214
(dp2134
sg1216
Nsg25
g27
sg1217
(lp2135
I83
aI3
asg1219
Nsg1220
VSifrei Bamidbar 83:3
p2136
sg1222
(lp2137
sg1224
g44
sg1225
Nsg1226
(lp2138
I83
aI3
asg1228
Nsg1229
g2136
sg1230
(lp2139
sg1232
g1194
sg1233
Nsg1234
Nsg1235
Nsbag3
(g4
g5
NtRp2140
(dp2141
g8
g10
sg1213
Nsg1214
(dp2142
sg1216
Nsg25
g27
sg1217
(lp2143
I84
aI1
asg1219
Nsg1220
VSifrei Bamidbar 84:1
p2144
sg1222
(lp2145
sg1224
g44
sg1225
Nsg1226
(lp2146
I84
aI1
asg1228
Nsg1229
g2144
sg1230
(lp2147
sg1232
g1194
sg1233
Nsg1234
Nsg1235
Nsbag3
(g4
g5
NtRp2148
(dp2149
g8
g10
sg1213
Nsg1214
(dp2150
sg1216
Nsg25
g27
sg1217
(lp2151
I84
aI2
asg1219
Nsg1220
VSifrei Bamidbar 84:2
p2152
sg1222
(lp2153
sg1224
g44
sg1225
Nsg1226
(lp2154
I84
aI2
asg1228
Nsg1229
g2152
sg1230
(lp2155
sg1232
g1194
sg1233
Nsg1234
Nsg1235
Nsbag3
(g4
g5
NtRp2156
(dp2157
g8
g10
sg1213
Nsg1214
(dp2158
sg1216
Nsg25
g27
sg1217
(lp2159
I84
aI3
asg1219
Nsg1220
VSifrei Bamidbar 84:3
p2160
sg1222
(lp2161
sg1224
g44
sg1225
Nsg1226
(lp2162
I84
aI3
asg1228
Nsg1229
g2160
sg1230
(lp2163
sg1232
g1194
sg1233
Nsg1234
Nsg1235
Nsbag3
(g4
g5
NtRp2164
(dp2165
g8
g10
sg1213
Nsg1214
(dp2166
sg1216
Nsg25
g27
sg1217
(lp2167
I84
aI4
asg1219
Nsg1220
VSifrei Bamidbar 84:4
p2168
sg1222
(lp2169
sg1224
g44
sg1225
Nsg1226
(lp2170
I84
aI4
asg1228
Nsg1229
g2168
sg1230
(lp2171
sg1232
g1194
sg1233
Nsg1234
Nsg1235
Nsbag3
(g4
g5
NtRp2172
(dp2173
g8
g10
sg1213
Nsg1214
(dp2174
sg1216
Nsg25
g27
sg1217
(lp2175
I84
aI5
asg1219
Nsg1220
VSifrei Bamidbar 84:5
p2176
sg1222
(lp2177
sg1224
g44
sg1225
Nsg1226
(lp2178
I84
aI5
asg1228
Nsg1229
g2176
sg1230
(lp2179
sg1232
g1194
sg1233
Nsg1234
Nsg1235
Nsbag3
(g4
g5
NtRp2180
(dp2181
g8
g10
sg1213
Nsg1214
(dp2182
sg1216
Nsg25
g27
sg1217
(lp2183
I85
aI1
asg1219
Nsg1220
VSifrei Bamidbar 85:1
p2184
sg1222
(lp2185
sg1224
g44
sg1225
Nsg1226
(lp2186
I85
aI1
asg1228
Nsg1229
g2184
sg1230
(lp2187
sg1232
g1194
sg1233
Nsg1234
Nsg1235
Nsbag3
(g4
g5
NtRp2188
(dp2189
g8
g10
sg1213
Nsg1214
(dp2190
sg1216
Nsg25
g27
sg1217
(lp2191
I86
aI1
asg1219
Nsg1220
VSifrei Bamidbar 86:1
p2192
sg1222
(lp2193
sg1224
g44
sg1225
Nsg1226
(lp2194
I86
aI1
asg1228
Nsg1229
g2192
sg1230
(lp2195
sg1232
g1194
sg1233
Nsg1234
Nsg1235
Nsbag3
(g4
g5
NtRp2196
(dp2197
g8
g10
sg1213
Nsg1214
(dp2198
sg1216
Nsg25
g27
sg1217
(lp2199
I87
aI1
asg1219
Nsg1220
VSifrei Bamidbar 87:1
p2200
sg1222
(lp2201
sg1224
g44
sg1225
Nsg1226
(lp2202
I87
aI1
asg1228
Nsg1229
g2200
sg1230
(lp2203
sg1232
g1194
sg1233
Nsg1234
Nsg1235
Nsbag3
(g4
g5
NtRp2204
(dp2205
g8
g10
sg1213
Nsg1214
(dp2206
sg1216
Nsg25
g27
sg1217
(lp2207
I88
aI1
asg1219
Nsg1220
VSifrei Bamidbar 88:1
p2208
sg1222
(lp2209
sg1224
g44
sg1225
Nsg1226
(lp2210
I88
aI1
asg1228
Nsg1229
g2208
sg1230
(lp2211
sg1232
g1194
sg1233
Nsg1234
Nsg1235
Nsbag3
(g4
g5
NtRp2212
(dp2213
g8
g10
sg1213
Nsg1214
(dp2214
sg1216
Nsg25
g27
sg1217
(lp2215
I89
aI1
asg1219
Nsg1220
VSifrei Bamidbar 89:1
p2216
sg1222
(lp2217
sg1224
g44
sg1225
Nsg1226
(lp2218
I89
aI1
asg1228
Nsg1229
g2216
sg1230
(lp2219
sg1232
g1194
sg1233
Nsg1234
Nsg1235
Nsbag3
(g4
g5
NtRp2220
(dp2221
g8
g10
sg1213
Nsg1214
(dp2222
sg1216
Nsg25
g27
sg1217
(lp2223
I90
aI1
asg1219
Nsg1220
VSifrei Bamidbar 90:1
p2224
sg1222
(lp2225
sg1224
g44
sg1225
Nsg1226
(lp2226
I90
aI1
asg1228
Nsg1229
g2224
sg1230
(lp2227
sg1232
g1194
sg1233
Nsg1234
Nsg1235
Nsbag3
(g4
g5
NtRp2228
(dp2229
g8
g10
sg1213
Nsg1214
(dp2230
sg1216
Nsg25
g27
sg1217
(lp2231
I91
aI1
asg1219
Nsg1220
VSifrei Bamidbar 91:1
p2232
sg1222
(lp2233
sg1224
g44
sg1225
Nsg1226
(lp2234
I91
aI1
asg1228
Nsg1229
g2232
sg1230
(lp2235
sg1232
g1194
sg1233
Nsg1234
Nsg1235
Nsbag3
(g4
g5
NtRp2236
(dp2237
g8
g10
sg1213
Nsg1214
(dp2238
sg1216
Nsg25
g27
sg1217
(lp2239
I92
aI1
asg1219
Nsg1220
VSifrei Bamidbar 92:1
p2240
sg1222
(lp2241
sg1224
g44
sg1225
Nsg1226
(lp2242
I92
aI1
asg1228
Nsg1229
g2240
sg1230
(lp2243
sg1232
g1194
sg1233
Nsg1234
Nsg1235
Nsbag3
(g4
g5
NtRp2244
(dp2245
g8
g10
sg1213
Nsg1214
(dp2246
sg1216
Nsg25
g27
sg1217
(lp2247
I93
aI1
asg1219
Nsg1220
VSifrei Bamidbar 93:1
p2248
sg1222
(lp2249
sg1224
g44
sg1225
Nsg1226
(lp2250
I93
aI1
asg1228
Nsg1229
g2248
sg1230
(lp2251
sg1232
g1194
sg1233
Nsg1234
Nsg1235
Nsbag3
(g4
g5
NtRp2252
(dp2253
g8
g10
sg1213
Nsg1214
(dp2254
sg1216
Nsg25
g27
sg1217
(lp2255
I94
aI1
asg1219
Nsg1220
VSifrei Bamidbar 94:1
p2256
sg1222
(lp2257
sg1224
g44
sg1225
Nsg1226
(lp2258
I94
aI1
asg1228
Nsg1229
g2256
sg1230
(lp2259
sg1232
g1194
sg1233
Nsg1234
Nsg1235
Nsbag3
(g4
g5
NtRp2260
(dp2261
g8
g10
sg1213
Nsg1214
(dp2262
sg1216
Nsg25
g27
sg1217
(lp2263
I95
aI1
asg1219
Nsg1220
VSifrei Bamidbar 95:1
p2264
sg1222
(lp2265
sg1224
g44
sg1225
Nsg1226
(lp2266
I95
aI1
asg1228
Nsg1229
g2264
sg1230
(lp2267
sg1232
g1194
sg1233
Nsg1234
Nsg1235
Nsbag3
(g4
g5
NtRp2268
(dp2269
g8
g10
sg1213
Nsg1214
(dp2270
sg1216
Nsg25
g27
sg1217
(lp2271
I95
aI2
asg1219
Nsg1220
VSifrei Bamidbar 95:2
p2272
sg1222
(lp2273
sg1224
g44
sg1225
Nsg1226
(lp2274
I95
aI2
asg1228
Nsg1229
g2272
sg1230
(lp2275
sg1232
g1194
sg1233
Nsg1234
Nsg1235
Nsbag3
(g4
g5
NtRp2276
(dp2277
g8
g10
sg1213
Nsg1214
(dp2278
sg1216
Nsg25
g27
sg1217
(lp2279
I96
aI1
asg1219
Nsg1220
VSifrei Bamidbar 96:1
p2280
sg1222
(lp2281
sg1224
g44
sg1225
Nsg1226
(lp2282
I96
aI1
asg1228
Nsg1229
g2280
sg1230
(lp2283
sg1232
g1194
sg1233
Nsg1234
Nsg1235
Nsbag3
(g4
g5
NtRp2284
(dp2285
g8
g10
sg1213
Nsg1214
(dp2286
sg1216
Nsg25
g27
sg1217
(lp2287
I97
aI1
asg1219
Nsg1220
VSifrei Bamidbar 97:1
p2288
sg1222
(lp2289
sg1224
g44
sg1225
Nsg1226
(lp2290
I97
aI1
asg1228
Nsg1229
g2288
sg1230
(lp2291
sg1232
g1194
sg1233
Nsg1234
Nsg1235
Nsbag3
(g4
g5
NtRp2292
(dp2293
g8
g10
sg1213
Nsg1214
(dp2294
sg1216
Nsg25
g27
sg1217
(lp2295
I98
aI1
asg1219
Nsg1220
VSifrei Bamidbar 98:1
p2296
sg1222
(lp2297
sg1224
g44
sg1225
Nsg1226
(lp2298
I98
aI1
asg1228
Nsg1229
g2296
sg1230
(lp2299
sg1232
g1194
sg1233
Nsg1234
Nsg1235
Nsbag3
(g4
g5
NtRp2300
(dp2301
g8
g10
sg1213
Nsg1214
(dp2302
sg1216
Nsg25
g27
sg1217
(lp2303
I99
aI1
asg1219
Nsg1220
VSifrei Bamidbar 99:1
p2304
sg1222
(lp2305
sg1224
g44
sg1225
Nsg1226
(lp2306
I99
aI1
asg1228
Nsg1229
g2304
sg1230
(lp2307
sg1232
g1194
sg1233
Nsg1234
Nsg1235
Nsbag3
(g4
g5
NtRp2308
(dp2309
g8
g10
sg1213
Nsg1214
(dp2310
sg1216
Nsg25
g27
sg1217
(lp2311
I100
aI1
asg1219
Nsg1220
VSifrei Bamidbar 100:1
p2312
sg1222
(lp2313
sg1224
g44
sg1225
Nsg1226
(lp2314
I100
aI1
asg1228
Nsg1229
g2312
sg1230
(lp2315
sg1232
g1194
sg1233
Nsg1234
Nsg1235
Nsbag3
(g4
g5
NtRp2316
(dp2317
g8
g10
sg1213
Nsg1214
(dp2318
sg1216
Nsg25
g27
sg1217
(lp2319
I101
aI1
asg1219
Nsg1220
VSifrei Bamidbar 101:1
p2320
sg1222
(lp2321
sg1224
g44
sg1225
Nsg1226
(lp2322
I101
aI1
asg1228
Nsg1229
g2320
sg1230
(lp2323
sg1232
g1194
sg1233
Nsg1234
Nsg1235
Nsbag3
(g4
g5
NtRp2324
(dp2325
g8
g10
sg1213
Nsg1214
(dp2326
sg1216
Nsg25
g27
sg1217
(lp2327
I102
aI1
asg1219
Nsg1220
VSifrei Bamidbar 102:1
p2328
sg1222
(lp2329
sg1224
g44
sg1225
Nsg1226
(lp2330
I102
aI1
asg1228
Nsg1229
g2328
sg1230
(lp2331
sg1232
g1194
sg1233
Nsg1234
Nsg1235
Nsbag3
(g4
g5
NtRp2332
(dp2333
g8
g10
sg1213
Nsg1214
(dp2334
sg1216
Nsg25
g27
sg1217
(lp2335
I103
aI1
asg1219
Nsg1220
VSifrei Bamidbar 103:1
p2336
sg1222
(lp2337
sg1224
g44
sg1225
Nsg1226
(lp2338
I103
aI1
asg1228
Nsg1229
g2336
sg1230
(lp2339
sg1232
g1194
sg1233
Nsg1234
Nsg1235
Nsbag3
(g4
g5
NtRp2340
(dp2341
g8
g10
sg1213
Nsg1214
(dp2342
sg1216
Nsg25
g27
sg1217
(lp2343
I104
aI1
asg1219
Nsg1220
VSifrei Bamidbar 104:1
p2344
sg1222
(lp2345
sg1224
g44
sg1225
Nsg1226
(lp2346
I104
aI1
asg1228
Nsg1229
g2344
sg1230
(lp2347
sg1232
g1194
sg1233
Nsg1234
Nsg1235
Nsbag3
(g4
g5
NtRp2348
(dp2349
g8
g10
sg1213
Nsg1214
(dp2350
sg1216
Nsg25
g27
sg1217
(lp2351
I105
aI1
asg1219
Nsg1220
VSifrei Bamidbar 105:1
p2352
sg1222
(lp2353
sg1224
g44
sg1225
Nsg1226
(lp2354
I105
aI1
asg1228
Nsg1229
g2352
sg1230
(lp2355
sg1232
g1194
sg1233
Nsg1234
Nsg1235
Nsbag3
(g4
g5
NtRp2356
(dp2357
g8
g10
sg1213
Nsg1214
(dp2358
sg1216
Nsg25
g27
sg1217
(lp2359
I106
aI1
asg1219
Nsg1220
VSifrei Bamidbar 106:1
p2360
sg1222
(lp2361
sg1224
g44
sg1225
Nsg1226
(lp2362
I106
aI1
asg1228
Nsg1229
g2360
sg1230
(lp2363
sg1232
g1194
sg1233
Nsg1234
Nsg1235
Nsbag3
(g4
g5
NtRp2364
(dp2365
g8
g10
sg1213
Nsg1214
(dp2366
sg1216
Nsg25
g27
sg1217
(lp2367
I107
aI1
asg1219
Nsg1220
VSifrei Bamidbar 107:1
p2368
sg1222
(lp2369
sg1224
g44
sg1225
Nsg1226
(lp2370
I107
aI1
asg1228
Nsg1229
g2368
sg1230
(lp2371
sg1232
g1194
sg1233
Nsg1234
Nsg1235
Nsbag3
(g4
g5
NtRp2372
(dp2373
g8
g10
sg1213
Nsg1214
(dp2374
sg1216
Nsg25
g27
sg1217
(lp2375
I107
aI2
asg1219
Nsg1220
VSifrei Bamidbar 107:2
p2376
sg1222
(lp2377
sg1224
g44
sg1225
Nsg1226
(lp2378
I107
aI2
asg1228
Nsg1229
g2376
sg1230
(lp2379
sg1232
g1194
sg1233
Nsg1234
Nsg1235
Nsbag3
(g4
g5
NtRp2380
(dp2381
g8
g10
sg1213
Nsg1214
(dp2382
sg1216
Nsg25
g27
sg1217
(lp2383
I107
aI3
asg1219
Nsg1220
VSifrei Bamidbar 107:3
p2384
sg1222
(lp2385
sg1224
g44
sg1225
Nsg1226
(lp2386
I107
aI3
asg1228
Nsg1229
g2384
sg1230
(lp2387
sg1232
g1194
sg1233
Nsg1234
Nsg1235
Nsbag3
(g4
g5
NtRp2388
(dp2389
g8
g10
sg1213
Nsg1214
(dp2390
sg1216
Nsg25
g27
sg1217
(lp2391
I108
aI1
asg1219
Nsg1220
VSifrei Bamidbar 108:1
p2392
sg1222
(lp2393
sg1224
g44
sg1225
Nsg1226
(lp2394
I108
aI1
asg1228
Nsg1229
g2392
sg1230
(lp2395
sg1232
g1194
sg1233
Nsg1234
Nsg1235
Nsbag3
(g4
g5
NtRp2396
(dp2397
g8
g10
sg1213
Nsg1214
(dp2398
sg1216
Nsg25
g27
sg1217
(lp2399
I109
aI1
asg1219
Nsg1220
VSifrei Bamidbar 109:1
p2400
sg1222
(lp2401
sg1224
g44
sg1225
Nsg1226
(lp2402
I109
aI1
asg1228
Nsg1229
g2400
sg1230
(lp2403
sg1232
g1194
sg1233
Nsg1234
Nsg1235
Nsbag3
(g4
g5
NtRp2404
(dp2405
g8
g10
sg1213
Nsg1214
(dp2406
sg1216
Nsg25
g27
sg1217
(lp2407
I110
aI1
asg1219
Nsg1220
VSifrei Bamidbar 110:1
p2408
sg1222
(lp2409
sg1224
g44
sg1225
Nsg1226
(lp2410
I110
aI1
asg1228
Nsg1229
g2408
sg1230
(lp2411
sg1232
g1194
sg1233
Nsg1234
Nsg1235
Nsbag3
(g4
g5
NtRp2412
(dp2413
g8
g10
sg1213
Nsg1214
(dp2414
sg1216
Nsg25
g27
sg1217
(lp2415
I110
aI2
asg1219
Nsg1220
VSifrei Bamidbar 110:2
p2416
sg1222
(lp2417
sg1224
g44
sg1225
Nsg1226
(lp2418
I110
aI2
asg1228
Nsg1229
g2416
sg1230
(lp2419
sg1232
g1194
sg1233
Nsg1234
Nsg1235
Nsbag3
(g4
g5
NtRp2420
(dp2421
g8
g10
sg1213
Nsg1214
(dp2422
sg1216
Nsg25
g27
sg1217
(lp2423
I111
aI1
asg1219
Nsg1220
VSifrei Bamidbar 111:1
p2424
sg1222
(lp2425
sg1224
g44
sg1225
Nsg1226
(lp2426
I111
aI1
asg1228
Nsg1229
g2424
sg1230
(lp2427
sg1232
g1194
sg1233
Nsg1234
Nsg1235
Nsbag3
(g4
g5
NtRp2428
(dp2429
g8
g10
sg1213
Nsg1214
(dp2430
sg1216
Nsg25
g27
sg1217
(lp2431
I111
aI2
asg1219
Nsg1220
VSifrei Bamidbar 111:2
p2432
sg1222
(lp2433
sg1224
g44
sg1225
Nsg1226
(lp2434
I111
aI2
asg1228
Nsg1229
g2432
sg1230
(lp2435
sg1232
g1194
sg1233
Nsg1234
Nsg1235
Nsbag3
(g4
g5
NtRp2436
(dp2437
g8
g10
sg1213
Nsg1214
(dp2438
sg1216
Nsg25
g27
sg1217
(lp2439
I111
aI3
asg1219
Nsg1220
VSifrei Bamidbar 111:3
p2440
sg1222
(lp2441
sg1224
g44
sg1225
Nsg1226
(lp2442
I111
aI3
asg1228
Nsg1229
g2440
sg1230
(lp2443
sg1232
g1194
sg1233
Nsg1234
Nsg1235
Nsbag3
(g4
g5
NtRp2444
(dp2445
g8
g10
sg1213
Nsg1214
(dp2446
sg1216
Nsg25
g27
sg1217
(lp2447
I112
aI1
asg1219
Nsg1220
VSifrei Bamidbar 112:1
p2448
sg1222
(lp2449
sg1224
g44
sg1225
Nsg1226
(lp2450
I112
aI1
asg1228
Nsg1229
g2448
sg1230
(lp2451
sg1232
g1194
sg1233
Nsg1234
Nsg1235
Nsbag3
(g4
g5
NtRp2452
(dp2453
g8
g10
sg1213
Nsg1214
(dp2454
sg1216
Nsg25
g27
sg1217
(lp2455
I112
aI2
asg1219
Nsg1220
VSifrei Bamidbar 112:2
p2456
sg1222
(lp2457
sg1224
g44
sg1225
Nsg1226
(lp2458
I112
aI2
asg1228
Nsg1229
g2456
sg1230
(lp2459
sg1232
g1194
sg1233
Nsg1234
Nsg1235
Nsbag3
(g4
g5
NtRp2460
(dp2461
g8
g10
sg1213
Nsg1214
(dp2462
sg1216
Nsg25
g27
sg1217
(lp2463
I113
aI1
asg1219
Nsg1220
VSifrei Bamidbar 113:1
p2464
sg1222
(lp2465
sg1224
g44
sg1225
Nsg1226
(lp2466
I113
aI1
asg1228
Nsg1229
g2464
sg1230
(lp2467
sg1232
g1194
sg1233
Nsg1234
Nsg1235
Nsbag3
(g4
g5
NtRp2468
(dp2469
g8
g10
sg1213
Nsg1214
(dp2470
sg1216
Nsg25
g27
sg1217
(lp2471
I114
aI1
asg1219
Nsg1220
VSifrei Bamidbar 114:1
p2472
sg1222
(lp2473
sg1224
g44
sg1225
Nsg1226
(lp2474
I114
aI1
asg1228
Nsg1229
g2472
sg1230
(lp2475
sg1232
g1194
sg1233
Nsg1234
Nsg1235
Nsbag3
(g4
g5
NtRp2476
(dp2477
g8
g10
sg1213
Nsg1214
(dp2478
sg1216
Nsg25
g27
sg1217
(lp2479
I115
aI1
asg1219
Nsg1220
VSifrei Bamidbar 115:1
p2480
sg1222
(lp2481
sg1224
g44
sg1225
Nsg1226
(lp2482
I115
aI1
asg1228
Nsg1229
g2480
sg1230
(lp2483
sg1232
g1194
sg1233
Nsg1234
Nsg1235
Nsbag3
(g4
g5
NtRp2484
(dp2485
g8
g10
sg1213
Nsg1214
(dp2486
sg1216
Nsg25
g27
sg1217
(lp2487
I115
aI2
asg1219
Nsg1220
VSifrei Bamidbar 115:2
p2488
sg1222
(lp2489
sg1224
g44
sg1225
Nsg1226
(lp2490
I115
aI2
asg1228
Nsg1229
g2488
sg1230
(lp2491
sg1232
g1194
sg1233
Nsg1234
Nsg1235
Nsbag3
(g4
g5
NtRp2492
(dp2493
g8
g10
sg1213
Nsg1214
(dp2494
sg1216
Nsg25
g27
sg1217
(lp2495
I116
aI1
asg1219
Nsg1220
VSifrei Bamidbar 116:1
p2496
sg1222
(lp2497
sg1224
g44
sg1225
Nsg1226
(lp2498
I116
aI1
asg1228
Nsg1229
g2496
sg1230
(lp2499
sg1232
g1194
sg1233
Nsg1234
Nsg1235
Nsbag3
(g4
g5
NtRp2500
(dp2501
g8
g10
sg1213
Nsg1214
(dp2502
sg1216
Nsg25
g27
sg1217
(lp2503
I116
aI2
asg1219
Nsg1220
VSifrei Bamidbar 116:2
p2504
sg1222
(lp2505
sg1224
g44
sg1225
Nsg1226
(lp2506
I116
aI2
asg1228
Nsg1229
g2504
sg1230
(lp2507
sg1232
g1194
sg1233
Nsg1234
Nsg1235
Nsbag3
(g4
g5
NtRp2508
(dp2509
g8
g10
sg1213
Nsg1214
(dp2510
sg1216
Nsg25
g27
sg1217
(lp2511
I117
aI1
asg1219
Nsg1220
VSifrei Bamidbar 117:1
p2512
sg1222
(lp2513
sg1224
g44
sg1225
Nsg1226
(lp2514
I117
aI1
asg1228
Nsg1229
g2512
sg1230
(lp2515
sg1232
g1194
sg1233
Nsg1234
Nsg1235
Nsbag3
(g4
g5
NtRp2516
(dp2517
g8
g10
sg1213
Nsg1214
(dp2518
sg1216
Nsg25
g27
sg1217
(lp2519
I117
aI2
asg1219
Nsg1220
VSifrei Bamidbar 117:2
p2520
sg1222
(lp2521
sg1224
g44
sg1225
Nsg1226
(lp2522
I117
aI2
asg1228
Nsg1229
g2520
sg1230
(lp2523
sg1232
g1194
sg1233
Nsg1234
Nsg1235
Nsbag3
(g4
g5
NtRp2524
(dp2525
g8
g10
sg1213
Nsg1214
(dp2526
sg1216
Nsg25
g27
sg1217
(lp2527
I117
aI3
asg1219
Nsg1220
VSifrei Bamidbar 117:3
p2528
sg1222
(lp2529
sg1224
g44
sg1225
Nsg1226
(lp2530
I117
aI3
asg1228
Nsg1229
g2528
sg1230
(lp2531
sg1232
g1194
sg1233
Nsg1234
Nsg1235
Nsbag3
(g4
g5
NtRp2532
(dp2533
g8
g10
sg1213
Nsg1214
(dp2534
sg1216
Nsg25
g27
sg1217
(lp2535
I118
aI1
asg1219
Nsg1220
VSifrei Bamidbar 118:1
p2536
sg1222
(lp2537
sg1224
g44
sg1225
Nsg1226
(lp2538
I118
aI1
asg1228
Nsg1229
g2536
sg1230
(lp2539
sg1232
g1194
sg1233
Nsg1234
Nsg1235
Nsbag3
(g4
g5
NtRp2540
(dp2541
g8
g10
sg1213
Nsg1214
(dp2542
sg1216
Nsg25
g27
sg1217
(lp2543
I119
aI1
asg1219
Nsg1220
VSifrei Bamidbar 119:1
p2544
sg1222
(lp2545
sg1224
g44
sg1225
Nsg1226
(lp2546
I119
aI1
asg1228
Nsg1229
g2544
sg1230
(lp2547
sg1232
g1194
sg1233
Nsg1234
Nsg1235
Nsbag3
(g4
g5
NtRp2548
(dp2549
g8
g10
sg1213
Nsg1214
(dp2550
sg1216
Nsg25
g27
sg1217
(lp2551
I119
aI2
asg1219
Nsg1220
VSifrei Bamidbar 119:2
p2552
sg1222
(lp2553
sg1224
g44
sg1225
Nsg1226
(lp2554
I119
aI2
asg1228
Nsg1229
g2552
sg1230
(lp2555
sg1232
g1194
sg1233
Nsg1234
Nsg1235
Nsbag3
(g4
g5
NtRp2556
(dp2557
g8
g10
sg1213
Nsg1214
(dp2558
sg1216
Nsg25
g27
sg1217
(lp2559
I119
aI3
asg1219
Nsg1220
VSifrei Bamidbar 119:3
p2560
sg1222
(lp2561
sg1224
g44
sg1225
Nsg1226
(lp2562
I119
aI3
asg1228
Nsg1229
g2560
sg1230
(lp2563
sg1232
g1194
sg1233
Nsg1234
Nsg1235
Nsbag3
(g4
g5
NtRp2564
(dp2565
g8
g10
sg1213
Nsg1214
(dp2566
sg1216
Nsg25
g27
sg1217
(lp2567
I119
aI4
asg1219
Nsg1220
VSifrei Bamidbar 119:4
p2568
sg1222
(lp2569
sg1224
g44
sg1225
Nsg1226
(lp2570
I119
aI4
asg1228
Nsg1229
g2568
sg1230
(lp2571
sg1232
g1194
sg1233
Nsg1234
Nsg1235
Nsbag3
(g4
g5
NtRp2572
(dp2573
g8
g10
sg1213
Nsg1214
(dp2574
sg1216
Nsg25
g27
sg1217
(lp2575
I119
aI5
asg1219
Nsg1220
VSifrei Bamidbar 119:5
p2576
sg1222
(lp2577
sg1224
g44
sg1225
Nsg1226
(lp2578
I119
aI5
asg1228
Nsg1229
g2576
sg1230
(lp2579
sg1232
g1194
sg1233
Nsg1234
Nsg1235
Nsbag3
(g4
g5
NtRp2580
(dp2581
g8
g10
sg1213
Nsg1214
(dp2582
sg1216
Nsg25
g27
sg1217
(lp2583
I120
aI1
asg1219
Nsg1220
VSifrei Bamidbar 120:1
p2584
sg1222
(lp2585
sg1224
g44
sg1225
Nsg1226
(lp2586
I120
aI1
asg1228
Nsg1229
g2584
sg1230
(lp2587
sg1232
g1194
sg1233
Nsg1234
Nsg1235
Nsbag3
(g4
g5
NtRp2588
(dp2589
g8
g10
sg1213
Nsg1214
(dp2590
sg1216
Nsg25
g27
sg1217
(lp2591
I121
aI1
asg1219
Nsg1220
VSifrei Bamidbar 121:1
p2592
sg1222
(lp2593
sg1224
g44
sg1225
Nsg1226
(lp2594
I121
aI1
asg1228
Nsg1229
g2592
sg1230
(lp2595
sg1232
g1194
sg1233
Nsg1234
Nsg1235
Nsbag3
(g4
g5
NtRp2596
(dp2597
g8
g10
sg1213
Nsg1214
(dp2598
sg1216
Nsg25
g27
sg1217
(lp2599
I122
aI1
asg1219
Nsg1220
VSifrei Bamidbar 122:1
p2600
sg1222
(lp2601
sg1224
g44
sg1225
Nsg1226
(lp2602
I122
aI1
asg1228
Nsg1229
g2600
sg1230
(lp2603
sg1232
g1194
sg1233
Nsg1234
Nsg1235
Nsbag3
(g4
g5
NtRp2604
(dp2605
g8
g10
sg1213
Nsg1214
(dp2606
sg1216
Nsg25
g27
sg1217
(lp2607
I123
aI1
asg1219
Nsg1220
VSifrei Bamidbar 123:1
p2608
sg1222
(lp2609
sg1224
g44
sg1225
Nsg1226
(lp2610
I123
aI1
asg1228
Nsg1229
g2608
sg1230
(lp2611
sg1232
g1194
sg1233
Nsg1234
Nsg1235
Nsbag3
(g4
g5
NtRp2612
(dp2613
g8
g10
sg1213
Nsg1214
(dp2614
sg1216
Nsg25
g27
sg1217
(lp2615
I123
aI2
asg1219
Nsg1220
VSifrei Bamidbar 123:2
p2616
sg1222
(lp2617
sg1224
g44
sg1225
Nsg1226
(lp2618
I123
aI2
asg1228
Nsg1229
g2616
sg1230
(lp2619
sg1232
g1194
sg1233
Nsg1234
Nsg1235
Nsbag3
(g4
g5
NtRp2620
(dp2621
g8
g10
sg1213
Nsg1214
(dp2622
sg1216
Nsg25
g27
sg1217
(lp2623
I124
aI1
asg1219
Nsg1220
VSifrei Bamidbar 124:1
p2624
sg1222
(lp2625
sg1224
g44
sg1225
Nsg1226
(lp2626
I124
aI1
asg1228
Nsg1229
g2624
sg1230
(lp2627
sg1232
g1194
sg1233
Nsg1234
Nsg1235
Nsbag3
(g4
g5
NtRp2628
(dp2629
g8
g10
sg1213
Nsg1214
(dp2630
sg1216
Nsg25
g27
sg1217
(lp2631
I124
aI2
asg1219
Nsg1220
VSifrei Bamidbar 124:2
p2632
sg1222
(lp2633
sg1224
g44
sg1225
Nsg1226
(lp2634
I124
aI2
asg1228
Nsg1229
g2632
sg1230
(lp2635
sg1232
g1194
sg1233
Nsg1234
Nsg1235
Nsbag3
(g4
g5
NtRp2636
(dp2637
g8
g10
sg1213
Nsg1214
(dp2638
sg1216
Nsg25
g27
sg1217
(lp2639
I125
aI1
asg1219
Nsg1220
VSifrei Bamidbar 125:1
p2640
sg1222
(lp2641
sg1224
g44
sg1225
Nsg1226
(lp2642
I125
aI1
asg1228
Nsg1229
g2640
sg1230
(lp2643
sg1232
g1194
sg1233
Nsg1234
Nsg1235
Nsbag3
(g4
g5
NtRp2644
(dp2645
g8
g10
sg1213
Nsg1214
(dp2646
sg1216
Nsg25
g27
sg1217
(lp2647
I126
aI1
asg1219
Nsg1220
VSifrei Bamidbar 126:1
p2648
sg1222
(lp2649
sg1224
g44
sg1225
Nsg1226
(lp2650
I126
aI1
asg1228
Nsg1229
g2648
sg1230
(lp2651
sg1232
g1194
sg1233
Nsg1234
Nsg1235
Nsbag3
(g4
g5
NtRp2652
(dp2653
g8
g10
sg1213
Nsg1214
(dp2654
sg1216
Nsg25
g27
sg1217
(lp2655
I127
aI1
asg1219
Nsg1220
VSifrei Bamidbar 127:1
p2656
sg1222
(lp2657
sg1224
g44
sg1225
Nsg1226
(lp2658
I127
aI1
asg1228
Nsg1229
g2656
sg1230
(lp2659
sg1232
g1194
sg1233
Nsg1234
Nsg1235
Nsbag3
(g4
g5
NtRp2660
(dp2661
g8
g10
sg1213
Nsg1214
(dp2662
sg1216
Nsg25
g27
sg1217
(lp2663
I127
aI2
asg1219
Nsg1220
VSifrei Bamidbar 127:2
p2664
sg1222
(lp2665
sg1224
g44
sg1225
Nsg1226
(lp2666
I127
aI2
asg1228
Nsg1229
g2664
sg1230
(lp2667
sg1232
g1194
sg1233
Nsg1234
Nsg1235
Nsbag3
(g4
g5
NtRp2668
(dp2669
g8
g10
sg1213
Nsg1214
(dp2670
sg1216
Nsg25
g27
sg1217
(lp2671
I127
aI3
asg1219
Nsg1220
VSifrei Bamidbar 127:3
p2672
sg1222
(lp2673
sg1224
g44
sg1225
Nsg1226
(lp2674
I127
aI3
asg1228
Nsg1229
g2672
sg1230
(lp2675
sg1232
g1194
sg1233
Nsg1234
Nsg1235
Nsbag3
(g4
g5
NtRp2676
(dp2677
g8
g10
sg1213
Nsg1214
(dp2678
sg1216
Nsg25
g27
sg1217
(lp2679
I127
aI4
asg1219
Nsg1220
VSifrei Bamidbar 127:4
p2680
sg1222
(lp2681
sg1224
g44
sg1225
Nsg1226
(lp2682
I127
aI4
asg1228
Nsg1229
g2680
sg1230
(lp2683
sg1232
g1194
sg1233
Nsg1234
Nsg1235
Nsbag3
(g4
g5
NtRp2684
(dp2685
g8
g10
sg1213
Nsg1214
(dp2686
sg1216
Nsg25
g27
sg1217
(lp2687
I127
aI5
asg1219
Nsg1220
VSifrei Bamidbar 127:5
p2688
sg1222
(lp2689
sg1224
g44
sg1225
Nsg1226
(lp2690
I127
aI5
asg1228
Nsg1229
g2688
sg1230
(lp2691
sg1232
g1194
sg1233
Nsg1234
Nsg1235
Nsbag3
(g4
g5
NtRp2692
(dp2693
g8
g10
sg1213
Nsg1214
(dp2694
sg1216
Nsg25
g27
sg1217
(lp2695
I128
aI1
asg1219
Nsg1220
VSifrei Bamidbar 128:1
p2696
sg1222
(lp2697
sg1224
g44
sg1225
Nsg1226
(lp2698
I128
aI1
asg1228
Nsg1229
g2696
sg1230
(lp2699
sg1232
g1194
sg1233
Nsg1234
Nsg1235
Nsbag3
(g4
g5
NtRp2700
(dp2701
g8
g10
sg1213
Nsg1214
(dp2702
sg1216
Nsg25
g27
sg1217
(lp2703
I128
aI2
asg1219
Nsg1220
VSifrei Bamidbar 128:2
p2704
sg1222
(lp2705
sg1224
g44
sg1225
Nsg1226
(lp2706
I128
aI2
asg1228
Nsg1229
g2704
sg1230
(lp2707
sg1232
g1194
sg1233
Nsg1234
Nsg1235
Nsbag3
(g4
g5
NtRp2708
(dp2709
g8
g10
sg1213
Nsg1214
(dp2710
sg1216
Nsg25
g27
sg1217
(lp2711
I129
aI1
asg1219
Nsg1220
VSifrei Bamidbar 129:1
p2712
sg1222
(lp2713
sg1224
g44
sg1225
Nsg1226
(lp2714
I129
aI1
asg1228
Nsg1229
g2712
sg1230
(lp2715
sg1232
g1194
sg1233
Nsg1234
Nsg1235
Nsbag3
(g4
g5
NtRp2716
(dp2717
g8
g10
sg1213
Nsg1214
(dp2718
sg1216
Nsg25
g27
sg1217
(lp2719
I129
aI2
asg1219
Nsg1220
VSifrei Bamidbar 129:2
p2720
sg1222
(lp2721
sg1224
g44
sg1225
Nsg1226
(lp2722
I129
aI2
asg1228
Nsg1229
g2720
sg1230
(lp2723
sg1232
g1194
sg1233
Nsg1234
Nsg1235
Nsbag3
(g4
g5
NtRp2724
(dp2725
g8
g10
sg1213
Nsg1214
(dp2726
sg1216
Nsg25
g27
sg1217
(lp2727
I129
aI3
asg1219
Nsg1220
VSifrei Bamidbar 129:3
p2728
sg1222
(lp2729
sg1224
g44
sg1225
Nsg1226
(lp2730
I129
aI3
asg1228
Nsg1229
g2728
sg1230
(lp2731
sg1232
g1194
sg1233
Nsg1234
Nsg1235
Nsbag3
(g4
g5
NtRp2732
(dp2733
g8
g10
sg1213
Nsg1214
(dp2734
sg1216
Nsg25
g27
sg1217
(lp2735
I129
aI4
asg1219
Nsg1220
VSifrei Bamidbar 129:4
p2736
sg1222
(lp2737
sg1224
g44
sg1225
Nsg1226
(lp2738
I129
aI4
asg1228
Nsg1229
g2736
sg1230
(lp2739
sg1232
g1194
sg1233
Nsg1234
Nsg1235
Nsbag3
(g4
g5
NtRp2740
(dp2741
g8
g10
sg1213
Nsg1214
(dp2742
sg1216
Nsg25
g27
sg1217
(lp2743
I129
aI5
asg1219
Nsg1220
VSifrei Bamidbar 129:5
p2744
sg1222
(lp2745
sg1224
g44
sg1225
Nsg1226
(lp2746
I129
aI5
asg1228
Nsg1229
g2744
sg1230
(lp2747
sg1232
g1194
sg1233
Nsg1234
Nsg1235
Nsbag3
(g4
g5
NtRp2748
(dp2749
g8
g10
sg1213
Nsg1214
(dp2750
sg1216
Nsg25
g27
sg1217
(lp2751
I130
aI1
asg1219
Nsg1220
VSifrei Bamidbar 130:1
p2752
sg1222
(lp2753
sg1224
g44
sg1225
Nsg1226
(lp2754
I130
aI1
asg1228
Nsg1229
g2752
sg1230
(lp2755
sg1232
g1194
sg1233
Nsg1234
Nsg1235
Nsbag3
(g4
g5
NtRp2756
(dp2757
g8
g10
sg1213
Nsg1214
(dp2758
sg1216
Nsg25
g27
sg1217
(lp2759
I131
aI1
asg1219
Nsg1220
VSifrei Bamidbar 131:1
p2760
sg1222
(lp2761
sg1224
g44
sg1225
Nsg1226
(lp2762
I131
aI1
asg1228
Nsg1229
g2760
sg1230
(lp2763
sg1232
g1194
sg1233
Nsg1234
Nsg1235
Nsbag3
(g4
g5
NtRp2764
(dp2765
g8
g10
sg1213
Nsg1214
(dp2766
sg1216
Nsg25
g27
sg1217
(lp2767
I131
aI2
asg1219
Nsg1220
VSifrei Bamidbar 131:2
p2768
sg1222
(lp2769
sg1224
g44
sg1225
Nsg1226
(lp2770
I131
aI2
asg1228
Nsg1229
g2768
sg1230
(lp2771
sg1232
g1194
sg1233
Nsg1234
Nsg1235
Nsbag3
(g4
g5
NtRp2772
(dp2773
g8
g10
sg1213
Nsg1214
(dp2774
sg1216
Nsg25
g27
sg1217
(lp2775
I131
aI3
asg1219
Nsg1220
VSifrei Bamidbar 131:3
p2776
sg1222
(lp2777
sg1224
g44
sg1225
Nsg1226
(lp2778
I131
aI3
asg1228
Nsg1229
g2776
sg1230
(lp2779
sg1232
g1194
sg1233
Nsg1234
Nsg1235
Nsbag3
(g4
g5
NtRp2780
(dp2781
g8
g10
sg1213
Nsg1214
(dp2782
sg1216
Nsg25
g27
sg1217
(lp2783
I131
aI4
asg1219
Nsg1220
VSifrei Bamidbar 131:4
p2784
sg1222
(lp2785
sg1224
g44
sg1225
Nsg1226
(lp2786
I131
aI4
asg1228
Nsg1229
g2784
sg1230
(lp2787
sg1232
g1194
sg1233
Nsg1234
Nsg1235
Nsbag3
(g4
g5
NtRp2788
(dp2789
g8
g10
sg1213
Nsg1214
(dp2790
sg1216
Nsg25
g27
sg1217
(lp2791
I131
aI5
asg1219
Nsg1220
VSifrei Bamidbar 131:5
p2792
sg1222
(lp2793
sg1224
g44
sg1225
Nsg1226
(lp2794
I131
aI5
asg1228
Nsg1229
g2792
sg1230
(lp2795
sg1232
g1194
sg1233
Nsg1234
Nsg1235
Nsbag3
(g4
g5
NtRp2796
(dp2797
g8
g10
sg1213
Nsg1214
(dp2798
sg1216
Nsg25
g27
sg1217
(lp2799
I132
aI1
asg1219
Nsg1220
VSifrei Bamidbar 132:1
p2800
sg1222
(lp2801
sg1224
g44
sg1225
Nsg1226
(lp2802
I132
aI1
asg1228
Nsg1229
g2800
sg1230
(lp2803
sg1232
g1194
sg1233
Nsg1234
Nsg1235
Nsbag3
(g4
g5
NtRp2804
(dp2805
g8
g10
sg1213
Nsg1214
(dp2806
sg1216
Nsg25
g27
sg1217
(lp2807
I132
aI2
asg1219
Nsg1220
VSifrei Bamidbar 132:2
p2808
sg1222
(lp2809
sg1224
g44
sg1225
Nsg1226
(lp2810
I132
aI2
asg1228
Nsg1229
g2808
sg1230
(lp2811
sg1232
g1194
sg1233
Nsg1234
Nsg1235
Nsbag3
(g4
g5
NtRp2812
(dp2813
g8
g10
sg1213
Nsg1214
(dp2814
sg1216
Nsg25
g27
sg1217
(lp2815
I132
aI3
asg1219
Nsg1220
VSifrei Bamidbar 132:3
p2816
sg1222
(lp2817
sg1224
g44
sg1225
Nsg1226
(lp2818
I132
aI3
asg1228
Nsg1229
g2816
sg1230
(lp2819
sg1232
g1194
sg1233
Nsg1234
Nsg1235
Nsbag3
(g4
g5
NtRp2820
(dp2821
g8
g10
sg1213
Nsg1214
(dp2822
sg1216
Nsg25
g27
sg1217
(lp2823
I132
aI4
asg1219
Nsg1220
VSifrei Bamidbar 132:4
p2824
sg1222
(lp2825
sg1224
g44
sg1225
Nsg1226
(lp2826
I132
aI4
asg1228
Nsg1229
g2824
sg1230
(lp2827
sg1232
g1194
sg1233
Nsg1234
Nsg1235
Nsbag3
(g4
g5
NtRp2828
(dp2829
g8
g10
sg1213
Nsg1214
(dp2830
sg1216
Nsg25
g27
sg1217
(lp2831
I133
aI1
asg1219
Nsg1220
VSifrei Bamidbar 133:1
p2832
sg1222
(lp2833
sg1224
g44
sg1225
Nsg1226
(lp2834
I133
aI1
asg1228
Nsg1229
g2832
sg1230
(lp2835
sg1232
g1194
sg1233
Nsg1234
Nsg1235
Nsbag3
(g4
g5
NtRp2836
(dp2837
g8
g10
sg1213
Nsg1214
(dp2838
sg1216
Nsg25
g27
sg1217
(lp2839
I133
aI2
asg1219
Nsg1220
VSifrei Bamidbar 133:2
p2840
sg1222
(lp2841
sg1224
g44
sg1225
Nsg1226
(lp2842
I133
aI2
asg1228
Nsg1229
g2840
sg1230
(lp2843
sg1232
g1194
sg1233
Nsg1234
Nsg1235
Nsbag3
(g4
g5
NtRp2844
(dp2845
g8
g10
sg1213
Nsg1214
(dp2846
sg1216
Nsg25
g27
sg1217
(lp2847
I133
aI3
asg1219
Nsg1220
VSifrei Bamidbar 133:3
p2848
sg1222
(lp2849
sg1224
g44
sg1225
Nsg1226
(lp2850
I133
aI3
asg1228
Nsg1229
g2848
sg1230
(lp2851
sg1232
g1194
sg1233
Nsg1234
Nsg1235
Nsbag3
(g4
g5
NtRp2852
(dp2853
g8
g10
sg1213
Nsg1214
(dp2854
sg1216
Nsg25
g27
sg1217
(lp2855
I133
aI4
asg1219
Nsg1220
VSifrei Bamidbar 133:4
p2856
sg1222
(lp2857
sg1224
g44
sg1225
Nsg1226
(lp2858
I133
aI4
asg1228
Nsg1229
g2856
sg1230
(lp2859
sg1232
g1194
sg1233
Nsg1234
Nsg1235
Nsbag3
(g4
g5
NtRp2860
(dp2861
g8
g10
sg1213
Nsg1214
(dp2862
sg1216
Nsg25
g27
sg1217
(lp2863
I134
aI1
asg1219
Nsg1220
VSifrei Bamidbar 134:1
p2864
sg1222
(lp2865
sg1224
g44
sg1225
Nsg1226
(lp2866
I134
aI1
asg1228
Nsg1229
g2864
sg1230
(lp2867
sg1232
g1194
sg1233
Nsg1234
Nsg1235
Nsbag3
(g4
g5
NtRp2868
(dp2869
g8
g10
sg1213
Nsg1214
(dp2870
sg1216
Nsg25
g27
sg1217
(lp2871
I134
aI2
asg1219
Nsg1220
VSifrei Bamidbar 134:2
p2872
sg1222
(lp2873
sg1224
g44
sg1225
Nsg1226
(lp2874
I134
aI2
asg1228
Nsg1229
g2872
sg1230
(lp2875
sg1232
g1194
sg1233
Nsg1234
Nsg1235
Nsbag3
(g4
g5
NtRp2876
(dp2877
g8
g10
sg1213
Nsg1214
(dp2878
sg1216
Nsg25
g27
sg1217
(lp2879
I134
aI3
asg1219
Nsg1220
VSifrei Bamidbar 134:3
p2880
sg1222
(lp2881
sg1224
g44
sg1225
Nsg1226
(lp2882
I134
aI3
asg1228
Nsg1229
g2880
sg1230
(lp2883
sg1232
g1194
sg1233
Nsg1234
Nsg1235
Nsbag3
(g4
g5
NtRp2884
(dp2885
g8
g10
sg1213
Nsg1214
(dp2886
sg1216
Nsg25
g27
sg1217
(lp2887
I134
aI4
asg1219
Nsg1220
VSifrei Bamidbar 134:4
p2888
sg1222
(lp2889
sg1224
g44
sg1225
Nsg1226
(lp2890
I134
aI4
asg1228
Nsg1229
g2888
sg1230
(lp2891
sg1232
g1194
sg1233
Nsg1234
Nsg1235
Nsbag3
(g4
g5
NtRp2892
(dp2893
g8
g10
sg1213
Nsg1214
(dp2894
sg1216
Nsg25
g27
sg1217
(lp2895
I134
aI5
asg1219
Nsg1220
VSifrei Bamidbar 134:5
p2896
sg1222
(lp2897
sg1224
g44
sg1225
Nsg1226
(lp2898
I134
aI5
asg1228
Nsg1229
g2896
sg1230
(lp2899
sg1232
g1194
sg1233
Nsg1234
Nsg1235
Nsbag3
(g4
g5
NtRp2900
(dp2901
g8
g10
sg1213
Nsg1214
(dp2902
sg1216
Nsg25
g27
sg1217
(lp2903
I135
aI1
asg1219
Nsg1220
VSifrei Bamidbar 135:1
p2904
sg1222
(lp2905
sg1224
g44
sg1225
Nsg1226
(lp2906
I135
aI1
asg1228
Nsg1229
g2904
sg1230
(lp2907
sg1232
g1194
sg1233
Nsg1234
Nsg1235
Nsbag3
(g4
g5
NtRp2908
(dp2909
g8
g10
sg1213
Nsg1214
(dp2910
sg1216
Nsg25
g27
sg1217
(lp2911
I136
aI1
asg1219
Nsg1220
VSifrei Bamidbar 136:1
p2912
sg1222
(lp2913
sg1224
g44
sg1225
Nsg1226
(lp2914
I136
aI1
asg1228
Nsg1229
g2912
sg1230
(lp2915
sg1232
g1194
sg1233
Nsg1234
Nsg1235
Nsbag3
(g4
g5
NtRp2916
(dp2917
g8
g10
sg1213
Nsg1214
(dp2918
sg1216
Nsg25
g27
sg1217
(lp2919
I136
aI2
asg1219
Nsg1220
VSifrei Bamidbar 136:2
p2920
sg1222
(lp2921
sg1224
g44
sg1225
Nsg1226
(lp2922
I136
aI2
asg1228
Nsg1229
g2920
sg1230
(lp2923
sg1232
g1194
sg1233
Nsg1234
Nsg1235
Nsbag3
(g4
g5
NtRp2924
(dp2925
g8
g10
sg1213
Nsg1214
(dp2926
sg1216
Nsg25
g27
sg1217
(lp2927
I136
aI3
asg1219
Nsg1220
VSifrei Bamidbar 136:3
p2928
sg1222
(lp2929
sg1224
g44
sg1225
Nsg1226
(lp2930
I136
aI3
asg1228
Nsg1229
g2928
sg1230
(lp2931
sg1232
g1194
sg1233
Nsg1234
Nsg1235
Nsbag3
(g4
g5
NtRp2932
(dp2933
g8
g10
sg1213
Nsg1214
(dp2934
sg1216
Nsg25
g27
sg1217
(lp2935
I137
aI1
asg1219
Nsg1220
VSifrei Bamidbar 137:1
p2936
sg1222
(lp2937
sg1224
g44
sg1225
Nsg1226
(lp2938
I137
aI1
asg1228
Nsg1229
g2936
sg1230
(lp2939
sg1232
g1194
sg1233
Nsg1234
Nsg1235
Nsbag3
(g4
g5
NtRp2940
(dp2941
g8
g10
sg1213
Nsg1214
(dp2942
sg1216
Nsg25
g27
sg1217
(lp2943
I137
aI2
asg1219
Nsg1220
VSifrei Bamidbar 137:2
p2944
sg1222
(lp2945
sg1224
g44
sg1225
Nsg1226
(lp2946
I137
aI2
asg1228
Nsg1229
g2944
sg1230
(lp2947
sg1232
g1194
sg1233
Nsg1234
Nsg1235
Nsbag3
(g4
g5
NtRp2948
(dp2949
g8
g10
sg1213
Nsg1214
(dp2950
sg1216
Nsg25
g27
sg1217
(lp2951
I138
aI1
asg1219
Nsg1220
VSifrei Bamidbar 138:1
p2952
sg1222
(lp2953
sg1224
g44
sg1225
Nsg1226
(lp2954
I138
aI1
asg1228
Nsg1229
g2952
sg1230
(lp2955
sg1232
g1194
sg1233
Nsg1234
Nsg1235
Nsbag3
(g4
g5
NtRp2956
(dp2957
g8
g10
sg1213
Nsg1214
(dp2958
sg1216
Nsg25
g27
sg1217
(lp2959
I139
aI1
asg1219
Nsg1220
VSifrei Bamidbar 139:1
p2960
sg1222
(lp2961
sg1224
g44
sg1225
Nsg1226
(lp2962
I139
aI1
asg1228
Nsg1229
g2960
sg1230
(lp2963
sg1232
g1194
sg1233
Nsg1234
Nsg1235
Nsbag3
(g4
g5
NtRp2964
(dp2965
g8
g10
sg1213
Nsg1214
(dp2966
sg1216
Nsg25
g27
sg1217
(lp2967
I139
aI2
asg1219
Nsg1220
VSifrei Bamidbar 139:2
p2968
sg1222
(lp2969
sg1224
g44
sg1225
Nsg1226
(lp2970
I139
aI2
asg1228
Nsg1229
g2968
sg1230
(lp2971
sg1232
g1194
sg1233
Nsg1234
Nsg1235
Nsbag3
(g4
g5
NtRp2972
(dp2973
g8
g10
sg1213
Nsg1214
(dp2974
sg1216
Nsg25
g27
sg1217
(lp2975
I140
aI1
asg1219
Nsg1220
VSifrei Bamidbar 140:1
p2976
sg1222
(lp2977
sg1224
g44
sg1225
Nsg1226
(lp2978
I140
aI1
asg1228
Nsg1229
g2976
sg1230
(lp2979
sg1232
g1194
sg1233
Nsg1234
Nsg1235
Nsbag3
(g4
g5
NtRp2980
(dp2981
g8
g10
sg1213
Nsg1214
(dp2982
sg1216
Nsg25
g27
sg1217
(lp2983
I140
aI2
asg1219
Nsg1220
VSifrei Bamidbar 140:2
p2984
sg1222
(lp2985
sg1224
g44
sg1225
Nsg1226
(lp2986
I140
aI2
asg1228
Nsg1229
g2984
sg1230
(lp2987
sg1232
g1194
sg1233
Nsg1234
Nsg1235
Nsbag3
(g4
g5
NtRp2988
(dp2989
g8
g10
sg1213
Nsg1214
(dp2990
sg1216
Nsg25
g27
sg1217
(lp2991
I141
aI1
asg1219
Nsg1220
VSifrei Bamidbar 141:1
p2992
sg1222
(lp2993
sg1224
g44
sg1225
Nsg1226
(lp2994
I141
aI1
asg1228
Nsg1229
g2992
sg1230
(lp2995
sg1232
g1194
sg1233
Nsg1234
Nsg1235
Nsbag3
(g4
g5
NtRp2996
(dp2997
g8
g10
sg1213
Nsg1214
(dp2998
sg1216
Nsg25
g27
sg1217
(lp2999
I141
aI2
asg1219
Nsg1220
VSifrei Bamidbar 141:2
p3000
sg1222
(lp3001
sg1224
g44
sg1225
Nsg1226
(lp3002
I141
aI2
asg1228
Nsg1229
g3000
sg1230
(lp3003
sg1232
g1194
sg1233
Nsg1234
Nsg1235
Nsbag3
(g4
g5
NtRp3004
(dp3005
g8
g10
sg1213
Nsg1214
(dp3006
sg1216
Nsg25
g27
sg1217
(lp3007
I141
aI3
asg1219
Nsg1220
VSifrei Bamidbar 141:3
p3008
sg1222
(lp3009
sg1224
g44
sg1225
Nsg1226
(lp3010
I141
aI3
asg1228
Nsg1229
g3008
sg1230
(lp3011
sg1232
g1194
sg1233
Nsg1234
Nsg1235
Nsbag3
(g4
g5
NtRp3012
(dp3013
g8
g10
sg1213
Nsg1214
(dp3014
sg1216
Nsg25
g27
sg1217
(lp3015
I142
aI1
asg1219
Nsg1220
VSifrei Bamidbar 142:1
p3016
sg1222
(lp3017
sg1224
g44
sg1225
Nsg1226
(lp3018
I142
aI1
asg1228
Nsg1229
g3016
sg1230
(lp3019
sg1232
g1194
sg1233
Nsg1234
Nsg1235
Nsbag3
(g4
g5
NtRp3020
(dp3021
g8
g10
sg1213
Nsg1214
(dp3022
sg1216
Nsg25
g27
sg1217
(lp3023
I142
aI2
asg1219
Nsg1220
VSifrei Bamidbar 142:2
p3024
sg1222
(lp3025
sg1224
g44
sg1225
Nsg1226
(lp3026
I142
aI2
asg1228
Nsg1229
g3024
sg1230
(lp3027
sg1232
g1194
sg1233
Nsg1234
Nsg1235
Nsbag3
(g4
g5
NtRp3028
(dp3029
g8
g10
sg1213
Nsg1214
(dp3030
sg1216
Nsg25
g27
sg1217
(lp3031
I142
aI3
asg1219
Nsg1220
VSifrei Bamidbar 142:3
p3032
sg1222
(lp3033
sg1224
g44
sg1225
Nsg1226
(lp3034
I142
aI3
asg1228
Nsg1229
g3032
sg1230
(lp3035
sg1232
g1194
sg1233
Nsg1234
Nsg1235
Nsbag3
(g4
g5
NtRp3036
(dp3037
g8
g10
sg1213
Nsg1214
(dp3038
sg1216
Nsg25
g27
sg1217
(lp3039
I142
aI4
asg1219
Nsg1220
VSifrei Bamidbar 142:4
p3040
sg1222
(lp3041
sg1224
g44
sg1225
Nsg1226
(lp3042
I142
aI4
asg1228
Nsg1229
g3040
sg1230
(lp3043
sg1232
g1194
sg1233
Nsg1234
Nsg1235
Nsbag3
(g4
g5
NtRp3044
(dp3045
g8
g10
sg1213
Nsg1214
(dp3046
sg1216
Nsg25
g27
sg1217
(lp3047
I142
aI5
asg1219
Nsg1220
VSifrei Bamidbar 142:5
p3048
sg1222
(lp3049
sg1224
g44
sg1225
Nsg1226
(lp3050
I142
aI5
asg1228
Nsg1229
g3048
sg1230
(lp3051
sg1232
g1194
sg1233
Nsg1234
Nsg1235
Nsbag3
(g4
g5
NtRp3052
(dp3053
g8
g10
sg1213
Nsg1214
(dp3054
sg1216
Nsg25
g27
sg1217
(lp3055
I143
aI1
asg1219
Nsg1220
VSifrei Bamidbar 143:1
p3056
sg1222
(lp3057
sg1224
g44
sg1225
Nsg1226
(lp3058
I143
aI1
asg1228
Nsg1229
g3056
sg1230
(lp3059
sg1232
g1194
sg1233
Nsg1234
Nsg1235
Nsbag3
(g4
g5
NtRp3060
(dp3061
g8
g10
sg1213
Nsg1214
(dp3062
sg1216
Nsg25
g27
sg1217
(lp3063
I143
aI2
asg1219
Nsg1220
VSifrei Bamidbar 143:2
p3064
sg1222
(lp3065
sg1224
g44
sg1225
Nsg1226
(lp3066
I143
aI2
asg1228
Nsg1229
g3064
sg1230
(lp3067
sg1232
g1194
sg1233
Nsg1234
Nsg1235
Nsbag3
(g4
g5
NtRp3068
(dp3069
g8
g10
sg1213
Nsg1214
(dp3070
sg1216
Nsg25
g27
sg1217
(lp3071
I143
aI3
asg1219
Nsg1220
VSifrei Bamidbar 143:3
p3072
sg1222
(lp3073
sg1224
g44
sg1225
Nsg1226
(lp3074
I143
aI3
asg1228
Nsg1229
g3072
sg1230
(lp3075
sg1232
g1194
sg1233
Nsg1234
Nsg1235
Nsbag3
(g4
g5
NtRp3076
(dp3077
g8
g10
sg1213
Nsg1214
(dp3078
sg1216
Nsg25
g27
sg1217
(lp3079
I144
aI1
asg1219
Nsg1220
VSifrei Bamidbar 144:1
p3080
sg1222
(lp3081
sg1224
g44
sg1225
Nsg1226
(lp3082
I144
aI1
asg1228
Nsg1229
g3080
sg1230
(lp3083
sg1232
g1194
sg1233
Nsg1234
Nsg1235
Nsbag3
(g4
g5
NtRp3084
(dp3085
g8
g10
sg1213
Nsg1214
(dp3086
sg1216
Nsg25
g27
sg1217
(lp3087
I144
aI2
asg1219
Nsg1220
VSifrei Bamidbar 144:2
p3088
sg1222
(lp3089
sg1224
g44
sg1225
Nsg1226
(lp3090
I144
aI2
asg1228
Nsg1229
g3088
sg1230
(lp3091
sg1232
g1194
sg1233
Nsg1234
Nsg1235
Nsbag3
(g4
g5
NtRp3092
(dp3093
g8
g10
sg1213
Nsg1214
(dp3094
sg1216
Nsg25
g27
sg1217
(lp3095
I145
aI1
asg1219
Nsg1220
VSifrei Bamidbar 145:1
p3096
sg1222
(lp3097
sg1224
g44
sg1225
Nsg1226
(lp3098
I145
aI1
asg1228
Nsg1229
g3096
sg1230
(lp3099
sg1232
g1194
sg1233
Nsg1234
Nsg1235
Nsbag3
(g4
g5
NtRp3100
(dp3101
g8
g10
sg1213
Nsg1214
(dp3102
sg1216
Nsg25
g27
sg1217
(lp3103
I145
aI2
asg1219
Nsg1220
VSifrei Bamidbar 145:2
p3104
sg1222
(lp3105
sg1224
g44
sg1225
Nsg1226
(lp3106
I145
aI2
asg1228
Nsg1229
g3104
sg1230
(lp3107
sg1232
g1194
sg1233
Nsg1234
Nsg1235
Nsbag3
(g4
g5
NtRp3108
(dp3109
g8
g10
sg1213
Nsg1214
(dp3110
sg1216
Nsg25
g27
sg1217
(lp3111
I145
aI3
asg1219
Nsg1220
VSifrei Bamidbar 145:3
p3112
sg1222
(lp3113
sg1224
g44
sg1225
Nsg1226
(lp3114
I145
aI3
asg1228
Nsg1229
g3112
sg1230
(lp3115
sg1232
g1194
sg1233
Nsg1234
Nsg1235
Nsbag3
(g4
g5
NtRp3116
(dp3117
g8
g10
sg1213
Nsg1214
(dp3118
sg1216
Nsg25
g27
sg1217
(lp3119
I146
aI1
asg1219
Nsg1220
VSifrei Bamidbar 146:1
p3120
sg1222
(lp3121
sg1224
g44
sg1225
Nsg1226
(lp3122
I146
aI1
asg1228
Nsg1229
g3120
sg1230
(lp3123
sg1232
g1194
sg1233
Nsg1234
Nsg1235
Nsbag3
(g4
g5
NtRp3124
(dp3125
g8
g10
sg1213
Nsg1214
(dp3126
sg1216
Nsg25
g27
sg1217
(lp3127
I147
aI1
asg1219
Nsg1220
VSifrei Bamidbar 147:1
p3128
sg1222
(lp3129
sg1224
g44
sg1225
Nsg1226
(lp3130
I147
aI1
asg1228
Nsg1229
g3128
sg1230
(lp3131
sg1232
g1194
sg1233
Nsg1234
Nsg1235
Nsbag3
(g4
g5
NtRp3132
(dp3133
g8
g10
sg1213
Nsg1214
(dp3134
sg1216
Nsg25
g27
sg1217
(lp3135
I147
aI2
asg1219
Nsg1220
VSifrei Bamidbar 147:2
p3136
sg1222
(lp3137
sg1224
g44
sg1225
Nsg1226
(lp3138
I147
aI2
asg1228
Nsg1229
g3136
sg1230
(lp3139
sg1232
g1194
sg1233
Nsg1234
Nsg1235
Nsbag3
(g4
g5
NtRp3140
(dp3141
g8
g10
sg1213
Nsg1214
(dp3142
sg1216
Nsg25
g27
sg1217
(lp3143
I148
aI1
asg1219
Nsg1220
VSifrei Bamidbar 148:1
p3144
sg1222
(lp3145
sg1224
g44
sg1225
Nsg1226
(lp3146
I148
aI1
asg1228
Nsg1229
g3144
sg1230
(lp3147
sg1232
g1194
sg1233
Nsg1234
Nsg1235
Nsbag3
(g4
g5
NtRp3148
(dp3149
g8
g10
sg1213
Nsg1214
(dp3150
sg1216
Nsg25
g27
sg1217
(lp3151
I149
aI1
asg1219
Nsg1220
VSifrei Bamidbar 149:1
p3152
sg1222
(lp3153
sg1224
g44
sg1225
Nsg1226
(lp3154
I149
aI1
asg1228
Nsg1229
g3152
sg1230
(lp3155
sg1232
g1194
sg1233
Nsg1234
Nsg1235
Nsbag3
(g4
g5
NtRp3156
(dp3157
g8
g10
sg1213
Nsg1214
(dp3158
sg1216
Nsg25
g27
sg1217
(lp3159
I149
aI2
asg1219
Nsg1220
VSifrei Bamidbar 149:2
p3160
sg1222
(lp3161
sg1224
g44
sg1225
Nsg1226
(lp3162
I149
aI2
asg1228
Nsg1229
g3160
sg1230
(lp3163
sg1232
g1194
sg1233
Nsg1234
Nsg1235
Nsbag3
(g4
g5
NtRp3164
(dp3165
g8
g10
sg1213
Nsg1214
(dp3166
sg1216
Nsg25
g27
sg1217
(lp3167
I150
aI1
asg1219
Nsg1220
VSifrei Bamidbar 150:1
p3168
sg1222
(lp3169
sg1224
g44
sg1225
Nsg1226
(lp3170
I150
aI1
asg1228
Nsg1229
g3168
sg1230
(lp3171
sg1232
g1194
sg1233
Nsg1234
Nsg1235
Nsbag3
(g4
g5
NtRp3172
(dp3173
g8
g10
sg1213
Nsg1214
(dp3174
sg1216
Nsg25
g27
sg1217
(lp3175
I151
aI1
asg1219
Nsg1220
VSifrei Bamidbar 151:1
p3176
sg1222
(lp3177
sg1224
g44
sg1225
Nsg1226
(lp3178
I151
aI1
asg1228
Nsg1229
g3176
sg1230
(lp3179
sg1232
g1194
sg1233
Nsg1234
Nsg1235
Nsbag3
(g4
g5
NtRp3180
(dp3181
g8
g10
sg1213
Nsg1214
(dp3182
sg1216
Nsg25
g27
sg1217
(lp3183
I151
aI2
asg1219
Nsg1220
VSifrei Bamidbar 151:2
p3184
sg1222
(lp3185
sg1224
g44
sg1225
Nsg1226
(lp3186
I151
aI2
asg1228
Nsg1229
g3184
sg1230
(lp3187
sg1232
g1194
sg1233
Nsg1234
Nsg1235
Nsbag3
(g4
g5
NtRp3188
(dp3189
g8
g10
sg1213
Nsg1214
(dp3190
sg1216
Nsg25
g27
sg1217
(lp3191
I152
aI1
asg1219
Nsg1220
VSifrei Bamidbar 152:1
p3192
sg1222
(lp3193
sg1224
g44
sg1225
Nsg1226
(lp3194
I152
aI1
asg1228
Nsg1229
g3192
sg1230
(lp3195
sg1232
g1194
sg1233
Nsg1234
Nsg1235
Nsbag3
(g4
g5
NtRp3196
(dp3197
g8
g10
sg1213
Nsg1214
(dp3198
sg1216
Nsg25
g27
sg1217
(lp3199
I153
aI1
asg1219
Nsg1220
VSifrei Bamidbar 153:1
p3200
sg1222
(lp3201
sg1224
g44
sg1225
Nsg1226
(lp3202
I153
aI1
asg1228
Nsg1229
g3200
sg1230
(lp3203
sg1232
g1194
sg1233
Nsg1234
Nsg1235
Nsbag3
(g4
g5
NtRp3204
(dp3205
g8
g10
sg1213
Nsg1214
(dp3206
sg1216
Nsg25
g27
sg1217
(lp3207
I153
aI2
asg1219
Nsg1220
VSifrei Bamidbar 153:2
p3208
sg1222
(lp3209
sg1224
g44
sg1225
Nsg1226
(lp3210
I153
aI2
asg1228
Nsg1229
g3208
sg1230
(lp3211
sg1232
g1194
sg1233
Nsg1234
Nsg1235
Nsbag3
(g4
g5
NtRp3212
(dp3213
g8
g10
sg1213
Nsg1214
(dp3214
sg1216
Nsg25
g27
sg1217
(lp3215
I153
aI3
asg1219
Nsg1220
VSifrei Bamidbar 153:3
p3216
sg1222
(lp3217
sg1224
g44
sg1225
Nsg1226
(lp3218
I153
aI3
asg1228
Nsg1229
g3216
sg1230
(lp3219
sg1232
g1194
sg1233
Nsg1234
Nsg1235
Nsbag3
(g4
g5
NtRp3220
(dp3221
g8
g10
sg1213
Nsg1214
(dp3222
sg1216
Nsg25
g27
sg1217
(lp3223
I153
aI4
asg1219
Nsg1220
VSifrei Bamidbar 153:4
p3224
sg1222
(lp3225
sg1224
g44
sg1225
Nsg1226
(lp3226
I153
aI4
asg1228
Nsg1229
g3224
sg1230
(lp3227
sg1232
g1194
sg1233
Nsg1234
Nsg1235
Nsbag3
(g4
g5
NtRp3228
(dp3229
g8
g10
sg1213
Nsg1214
(dp3230
sg1216
Nsg25
g27
sg1217
(lp3231
I153
aI5
asg1219
Nsg1220
VSifrei Bamidbar 153:5
p3232
sg1222
(lp3233
sg1224
g44
sg1225
Nsg1226
(lp3234
I153
aI5
asg1228
Nsg1229
g3232
sg1230
(lp3235
sg1232
g1194
sg1233
Nsg1234
Nsg1235
Nsbag3
(g4
g5
NtRp3236
(dp3237
g8
g10
sg1213
Nsg1214
(dp3238
sg1216
Nsg25
g27
sg1217
(lp3239
I153
aI6
asg1219
Nsg1220
VSifrei Bamidbar 153:6
p3240
sg1222
(lp3241
sg1224
g44
sg1225
Nsg1226
(lp3242
I153
aI6
asg1228
Nsg1229
g3240
sg1230
(lp3243
sg1232
g1194
sg1233
Nsg1234
Nsg1235
Nsbag3
(g4
g5
NtRp3244
(dp3245
g8
g10
sg1213
Nsg1214
(dp3246
sg1216
Nsg25
g27
sg1217
(lp3247
I153
aI7
asg1219
Nsg1220
VSifrei Bamidbar 153:7
p3248
sg1222
(lp3249
sg1224
g44
sg1225
Nsg1226
(lp3250
I153
aI7
asg1228
Nsg1229
g3248
sg1230
(lp3251
sg1232
g1194
sg1233
Nsg1234
Nsg1235
Nsbag3
(g4
g5
NtRp3252
(dp3253
g8
g10
sg1213
Nsg1214
(dp3254
sg1216
Nsg25
g27
sg1217
(lp3255
I153
aI8
asg1219
Nsg1220
VSifrei Bamidbar 153:8
p3256
sg1222
(lp3257
sg1224
g44
sg1225
Nsg1226
(lp3258
I153
aI8
asg1228
Nsg1229
g3256
sg1230
(lp3259
sg1232
g1194
sg1233
Nsg1234
Nsg1235
Nsbag3
(g4
g5
NtRp3260
(dp3261
g8
g10
sg1213
Nsg1214
(dp3262
sg1216
Nsg25
g27
sg1217
(lp3263
I153
aI9
asg1219
Nsg1220
VSifrei Bamidbar 153:9
p3264
sg1222
(lp3265
sg1224
g44
sg1225
Nsg1226
(lp3266
I153
aI9
asg1228
Nsg1229
g3264
sg1230
(lp3267
sg1232
g1194
sg1233
Nsg1234
Nsg1235
Nsbag3
(g4
g5
NtRp3268
(dp3269
g8
g10
sg1213
Nsg1214
(dp3270
sg1216
Nsg25
g27
sg1217
(lp3271
I153
aI10
asg1219
Nsg1220
VSifrei Bamidbar 153:10
p3272
sg1222
(lp3273
sg1224
g44
sg1225
Nsg1226
(lp3274
I153
aI10
asg1228
Nsg1229
g3272
sg1230
(lp3275
sg1232
g1194
sg1233
Nsg1234
Nsg1235
Nsbag3
(g4
g5
NtRp3276
(dp3277
g8
g10
sg1213
Nsg1214
(dp3278
sg1216
Nsg25
g27
sg1217
(lp3279
I154
aI1
asg1219
Nsg1220
VSifrei Bamidbar 154:1
p3280
sg1222
(lp3281
sg1224
g44
sg1225
Nsg1226
(lp3282
I154
aI1
asg1228
Nsg1229
g3280
sg1230
(lp3283
sg1232
g1194
sg1233
Nsg1234
Nsg1235
Nsbag3
(g4
g5
NtRp3284
(dp3285
g8
g10
sg1213
Nsg1214
(dp3286
sg1216
Nsg25
g27
sg1217
(lp3287
I154
aI2
asg1219
Nsg1220
VSifrei Bamidbar 154:2
p3288
sg1222
(lp3289
sg1224
g44
sg1225
Nsg1226
(lp3290
I154
aI2
asg1228
Nsg1229
g3288
sg1230
(lp3291
sg1232
g1194
sg1233
Nsg1234
Nsg1235
Nsbag3
(g4
g5
NtRp3292
(dp3293
g8
g10
sg1213
Nsg1214
(dp3294
sg1216
Nsg25
g27
sg1217
(lp3295
I154
aI3
asg1219
Nsg1220
VSifrei Bamidbar 154:3
p3296
sg1222
(lp3297
sg1224
g44
sg1225
Nsg1226
(lp3298
I154
aI3
asg1228
Nsg1229
g3296
sg1230
(lp3299
sg1232
g1194
sg1233
Nsg1234
Nsg1235
Nsbag3
(g4
g5
NtRp3300
(dp3301
g8
g10
sg1213
Nsg1214
(dp3302
sg1216
Nsg25
g27
sg1217
(lp3303
I155
aI1
asg1219
Nsg1220
VSifrei Bamidbar 155:1
p3304
sg1222
(lp3305
sg1224
g44
sg1225
Nsg1226
(lp3306
I155
aI1
asg1228
Nsg1229
g3304
sg1230
(lp3307
sg1232
g1194
sg1233
Nsg1234
Nsg1235
Nsbag3
(g4
g5
NtRp3308
(dp3309
g8
g10
sg1213
Nsg1214
(dp3310
sg1216
Nsg25
g27
sg1217
(lp3311
I156
aI1
asg1219
Nsg1220
VSifrei Bamidbar 156:1
p3312
sg1222
(lp3313
sg1224
g44
sg1225
Nsg1226
(lp3314
I156
aI1
asg1228
Nsg1229
g3312
sg1230
(lp3315
sg1232
g1194
sg1233
Nsg1234
Nsg1235
Nsbag3
(g4
g5
NtRp3316
(dp3317
g8
g10
sg1213
Nsg1214
(dp3318
sg1216
Nsg25
g27
sg1217
(lp3319
I156
aI2
asg1219
Nsg1220
VSifrei Bamidbar 156:2
p3320
sg1222
(lp3321
sg1224
g44
sg1225
Nsg1226
(lp3322
I156
aI2
asg1228
Nsg1229
g3320
sg1230
(lp3323
sg1232
g1194
sg1233
Nsg1234
Nsg1235
Nsbag3
(g4
g5
NtRp3324
(dp3325
g8
g10
sg1213
Nsg1214
(dp3326
sg1216
Nsg25
g27
sg1217
(lp3327
I156
aI3
asg1219
Nsg1220
VSifrei Bamidbar 156:3
p3328
sg1222
(lp3329
sg1224
g44
sg1225
Nsg1226
(lp3330
I156
aI3
asg1228
Nsg1229
g3328
sg1230
(lp3331
sg1232
g1194
sg1233
Nsg1234
Nsg1235
Nsbag3
(g4
g5
NtRp3332
(dp3333
g8
g10
sg1213
Nsg1214
(dp3334
sg1216
Nsg25
g27
sg1217
(lp3335
I157
aI1
asg1219
Nsg1220
VSifrei Bamidbar 157:1
p3336
sg1222
(lp3337
sg1224
g44
sg1225
Nsg1226
(lp3338
I157
aI1
asg1228
Nsg1229
g3336
sg1230
(lp3339
sg1232
g1194
sg1233
Nsg1234
Nsg1235
Nsbag3
(g4
g5
NtRp3340
(dp3341
g8
g10
sg1213
Nsg1214
(dp3342
sg1216
Nsg25
g27
sg1217
(lp3343
I157
aI2
asg1219
Nsg1220
VSifrei Bamidbar 157:2
p3344
sg1222
(lp3345
sg1224
g44
sg1225
Nsg1226
(lp3346
I157
aI2
asg1228
Nsg1229
g3344
sg1230
(lp3347
sg1232
g1194
sg1233
Nsg1234
Nsg1235
Nsbag3
(g4
g5
NtRp3348
(dp3349
g8
g10
sg1213
Nsg1214
(dp3350
sg1216
Nsg25
g27
sg1217
(lp3351
I157
aI3
asg1219
Nsg1220
VSifrei Bamidbar 157:3
p3352
sg1222
(lp3353
sg1224
g44
sg1225
Nsg1226
(lp3354
I157
aI3
asg1228
Nsg1229
g3352
sg1230
(lp3355
sg1232
g1194
sg1233
Nsg1234
Nsg1235
Nsbag3
(g4
g5
NtRp3356
(dp3357
g8
g10
sg1213
Nsg1214
(dp3358
sg1216
Nsg25
g27
sg1217
(lp3359
I157
aI4
asg1219
Nsg1220
VSifrei Bamidbar 157:4
p3360
sg1222
(lp3361
sg1224
g44
sg1225
Nsg1226
(lp3362
I157
aI4
asg1228
Nsg1229
g3360
sg1230
(lp3363
sg1232
g1194
sg1233
Nsg1234
Nsg1235
Nsbag3
(g4
g5
NtRp3364
(dp3365
g8
g10
sg1213
Nsg1214
(dp3366
sg1216
Nsg25
g27
sg1217
(lp3367
I157
aI5
asg1219
Nsg1220
VSifrei Bamidbar 157:5
p3368
sg1222
(lp3369
sg1224
g44
sg1225
Nsg1226
(lp3370
I157
aI5
asg1228
Nsg1229
g3368
sg1230
(lp3371
sg1232
g1194
sg1233
Nsg1234
Nsg1235
Nsbag3
(g4
g5
NtRp3372
(dp3373
g8
g10
sg1213
Nsg1214
(dp3374
sg1216
Nsg25
g27
sg1217
(lp3375
I157
aI6
asg1219
Nsg1220
VSifrei Bamidbar 157:6
p3376
sg1222
(lp3377
sg1224
g44
sg1225
Nsg1226
(lp3378
I157
aI6
asg1228
Nsg1229
g3376
sg1230
(lp3379
sg1232
g1194
sg1233
Nsg1234
Nsg1235
Nsbag3
(g4
g5
NtRp3380
(dp3381
g8
g10
sg1213
Nsg1214
(dp3382
sg1216
Nsg25
g27
sg1217
(lp3383
I157
aI7
asg1219
Nsg1220
VSifrei Bamidbar 157:7
p3384
sg1222
(lp3385
sg1224
g44
sg1225
Nsg1226
(lp3386
I157
aI7
asg1228
Nsg1229
g3384
sg1230
(lp3387
sg1232
g1194
sg1233
Nsg1234
Nsg1235
Nsbag3
(g4
g5
NtRp3388
(dp3389
g8
g10
sg1213
Nsg1214
(dp3390
sg1216
Nsg25
g27
sg1217
(lp3391
I157
aI8
asg1219
Nsg1220
VSifrei Bamidbar 157:8
p3392
sg1222
(lp3393
sg1224
g44
sg1225
Nsg1226
(lp3394
I157
aI8
asg1228
Nsg1229
g3392
sg1230
(lp3395
sg1232
g1194
sg1233
Nsg1234
Nsg1235
Nsbag3
(g4
g5
NtRp3396
(dp3397
g8
g10
sg1213
Nsg1214
(dp3398
sg1216
Nsg25
g27
sg1217
(lp3399
I157
aI9
asg1219
Nsg1220
VSifrei Bamidbar 157:9
p3400
sg1222
(lp3401
sg1224
g44
sg1225
Nsg1226
(lp3402
I157
aI9
asg1228
Nsg1229
g3400
sg1230
(lp3403
sg1232
g1194
sg1233
Nsg1234
Nsg1235
Nsbag3
(g4
g5
NtRp3404
(dp3405
g8
g10
sg1213
Nsg1214
(dp3406
sg1216
Nsg25
g27
sg1217
(lp3407
I158
aI1
asg1219
Nsg1220
VSifrei Bamidbar 158:1
p3408
sg1222
(lp3409
sg1224
g44
sg1225
Nsg1226
(lp3410
I158
aI1
asg1228
Nsg1229
g3408
sg1230
(lp3411
sg1232
g1194
sg1233
Nsg1234
Nsg1235
Nsbag3
(g4
g5
NtRp3412
(dp3413
g8
g10
sg1213
Nsg1214
(dp3414
sg1216
Nsg25
g27
sg1217
(lp3415
I158
aI2
asg1219
Nsg1220
VSifrei Bamidbar 158:2
p3416
sg1222
(lp3417
sg1224
g44
sg1225
Nsg1226
(lp3418
I158
aI2
asg1228
Nsg1229
g3416
sg1230
(lp3419
sg1232
g1194
sg1233
Nsg1234
Nsg1235
Nsbag3
(g4
g5
NtRp3420
(dp3421
g8
g10
sg1213
Nsg1214
(dp3422
sg1216
Nsg25
g27
sg1217
(lp3423
I158
aI3
asg1219
Nsg1220
VSifrei Bamidbar 158:3
p3424
sg1222
(lp3425
sg1224
g44
sg1225
Nsg1226
(lp3426
I158
aI3
asg1228
Nsg1229
g3424
sg1230
(lp3427
sg1232
g1194
sg1233
Nsg1234
Nsg1235
Nsbag3
(g4
g5
NtRp3428
(dp3429
g8
g10
sg1213
Nsg1214
(dp3430
sg1216
Nsg25
g27
sg1217
(lp3431
I158
aI4
asg1219
Nsg1220
VSifrei Bamidbar 158:4
p3432
sg1222
(lp3433
sg1224
g44
sg1225
Nsg1226
(lp3434
I158
aI4
asg1228
Nsg1229
g3432
sg1230
(lp3435
sg1232
g1194
sg1233
Nsg1234
Nsg1235
Nsbag3
(g4
g5
NtRp3436
(dp3437
g8
g10
sg1213
Nsg1214
(dp3438
sg1216
Nsg25
g27
sg1217
(lp3439
I160
aI1
asg1219
Nsg1220
VSifrei Bamidbar 160:1
p3440
sg1222
(lp3441
sg1224
g44
sg1225
Nsg1226
(lp3442
I160
aI1
asg1228
Nsg1229
g3440
sg1230
(lp3443
sg1232
g1194
sg1233
Nsg1234
Nsg1235
Nsbag3
(g4
g5
NtRp3444
(dp3445
g8
g10
sg1213
Nsg1214
(dp3446
sg1216
Nsg25
g27
sg1217
(lp3447
I160
aI2
asg1219
Nsg1220
VSifrei Bamidbar 160:2
p3448
sg1222
(lp3449
sg1224
g44
sg1225
Nsg1226
(lp3450
I160
aI2
asg1228
Nsg1229
g3448
sg1230
(lp3451
sg1232
g1194
sg1233
Nsg1234
Nsg1235
Nsbag3
(g4
g5
NtRp3452
(dp3453
g8
g10
sg1213
Nsg1214
(dp3454
sg1216
Nsg25
g27
sg1217
(lp3455
I160
aI3
asg1219
Nsg1220
VSifrei Bamidbar 160:3
p3456
sg1222
(lp3457
sg1224
g44
sg1225
Nsg1226
(lp3458
I160
aI3
asg1228
Nsg1229
g3456
sg1230
(lp3459
sg1232
g1194
sg1233
Nsg1234
Nsg1235
Nsbag3
(g4
g5
NtRp3460
(dp3461
g8
g10
sg1213
Nsg1214
(dp3462
sg1216
Nsg25
g27
sg1217
(lp3463
I160
aI4
asg1219
Nsg1220
VSifrei Bamidbar 160:4
p3464
sg1222
(lp3465
sg1224
g44
sg1225
Nsg1226
(lp3466
I160
aI4
asg1228
Nsg1229
g3464
sg1230
(lp3467
sg1232
g1194
sg1233
Nsg1234
Nsg1235
Nsbag3
(g4
g5
NtRp3468
(dp3469
g8
g10
sg1213
Nsg1214
(dp3470
sg1216
Nsg25
g27
sg1217
(lp3471
I160
aI5
asg1219
Nsg1220
VSifrei Bamidbar 160:5
p3472
sg1222
(lp3473
sg1224
g44
sg1225
Nsg1226
(lp3474
I160
aI5
asg1228
Nsg1229
g3472
sg1230
(lp3475
sg1232
g1194
sg1233
Nsg1234
Nsg1235
Nsbag3
(g4
g5
NtRp3476
(dp3477
g8
g10
sg1213
Nsg1214
(dp3478
sg1216
Nsg25
g27
sg1217
(lp3479
I160
aI6
asg1219
Nsg1220
VSifrei Bamidbar 160:6
p3480
sg1222
(lp3481
sg1224
g44
sg1225
Nsg1226
(lp3482
I160
aI6
asg1228
Nsg1229
g3480
sg1230
(lp3483
sg1232
g1194
sg1233
Nsg1234
Nsg1235
Nsbag3
(g4
g5
NtRp3484
(dp3485
g8
g10
sg1213
Nsg1214
(dp3486
sg1216
Nsg25
g27
sg1217
(lp3487
I160
aI7
asg1219
Nsg1220
VSifrei Bamidbar 160:7
p3488
sg1222
(lp3489
sg1224
g44
sg1225
Nsg1226
(lp3490
I160
aI7
asg1228
Nsg1229
g3488
sg1230
(lp3491
sg1232
g1194
sg1233
Nsg1234
Nsg1235
Nsbag3
(g4
g5
NtRp3492
(dp3493
g8
g10
sg1213
Nsg1214
(dp3494
sg1216
Nsg25
g27
sg1217
(lp3495
I160
aI8
asg1219
Nsg1220
VSifrei Bamidbar 160:8
p3496
sg1222
(lp3497
sg1224
g44
sg1225
Nsg1226
(lp3498
I160
aI8
asg1228
Nsg1229
g3496
sg1230
(lp3499
sg1232
g1194
sg1233
Nsg1234
Nsg1235
Nsbag3
(g4
g5
NtRp3500
(dp3501
g8
g10
sg1213
Nsg1214
(dp3502
sg1216
Nsg25
g27
sg1217
(lp3503
I160
aI9
asg1219
Nsg1220
VSifrei Bamidbar 160:9
p3504
sg1222
(lp3505
sg1224
g44
sg1225
Nsg1226
(lp3506
I160
aI9
asg1228
Nsg1229
g3504
sg1230
(lp3507
sg1232
g1194
sg1233
Nsg1234
Nsg1235
Nsbag3
(g4
g5
NtRp3508
(dp3509
g8
g10
sg1213
Nsg1214
(dp3510
sg1216
Nsg25
g27
sg1217
(lp3511
I160
aI10
asg1219
Nsg1220
VSifrei Bamidbar 160:10
p3512
sg1222
(lp3513
sg1224
g44
sg1225
Nsg1226
(lp3514
I160
aI10
asg1228
Nsg1229
g3512
sg1230
(lp3515
sg1232
g1194
sg1233
Nsg1234
Nsg1235
Nsbag3
(g4
g5
NtRp3516
(dp3517
g8
g10
sg1213
Nsg1214
(dp3518
sg1216
Nsg25
g27
sg1217
(lp3519
I160
aI11
asg1219
Nsg1220
VSifrei Bamidbar 160:11
p3520
sg1222
(lp3521
sg1224
g44
sg1225
Nsg1226
(lp3522
I160
aI11
asg1228
Nsg1229
g3520
sg1230
(lp3523
sg1232
g1194
sg1233
Nsg1234
Nsg1235
Nsbag3
(g4
g5
NtRp3524
(dp3525
g8
g10
sg1213
Nsg1214
(dp3526
sg1216
Nsg25
g27
sg1217
(lp3527
I160
aI12
asg1219
Nsg1220
VSifrei Bamidbar 160:12
p3528
sg1222
(lp3529
sg1224
g44
sg1225
Nsg1226
(lp3530
I160
aI12
asg1228
Nsg1229
g3528
sg1230
(lp3531
sg1232
g1194
sg1233
Nsg1234
Nsg1235
Nsbag3
(g4
g5
NtRp3532
(dp3533
g8
g10
sg1213
Nsg1214
(dp3534
sg1216
Nsg25
g27
sg1217
(lp3535
I160
aI13
asg1219
Nsg1220
VSifrei Bamidbar 160:13
p3536
sg1222
(lp3537
sg1224
g44
sg1225
Nsg1226
(lp3538
I160
aI13
asg1228
Nsg1229
g3536
sg1230
(lp3539
sg1232
g1194
sg1233
Nsg1234
Nsg1235
Nsbag3
(g4
g5
NtRp3540
(dp3541
g8
g10
sg1213
Nsg1214
(dp3542
sg1216
Nsg25
g27
sg1217
(lp3543
I160
aI14
asg1219
Nsg1220
VSifrei Bamidbar 160:14
p3544
sg1222
(lp3545
sg1224
g44
sg1225
Nsg1226
(lp3546
I160
aI14
asg1228
Nsg1229
g3544
sg1230
(lp3547
sg1232
g1194
sg1233
Nsg1234
Nsg1235
Nsbag3
(g4
g5
NtRp3548
(dp3549
g8
g10
sg1213
Nsg1214
(dp3550
sg1216
Nsg25
g27
sg1217
(lp3551
I160
aI15
asg1219
Nsg1220
VSifrei Bamidbar 160:15
p3552
sg1222
(lp3553
sg1224
g44
sg1225
Nsg1226
(lp3554
I160
aI15
asg1228
Nsg1229
g3552
sg1230
(lp3555
sg1232
g1194
sg1233
Nsg1234
Nsg1235
NsbaI57437
t.