((lp1
I0
aI7
aI22
aI40
aI45
aI60
aI67
aI81
aI88
aI91
aI102
aI122
aI134
aI139
aI143
aI154
aI161
aI162
aI166
aI171
aI174
aI175
aI194
aI195
aI223
aI224
aI247
aI256
aI260
aI273
aI274
aI279
aI283
aI285
aI294
aI296
aI297
aI316
aI319
aI321
aI327
aI336
aI358
aI361
aI362
aI367
aI373
aI379
aI380
aI391
aI393
aI404
aI405
aI414
aI418
aI422
aI425
aI430
aI434
aI435
aI443
aI444
aI458
aI463
aI464
aI466
aI467
aI474
aI479
aI487
aI489
aI490
aI507
aI509
aI524
aI555
aI556
aI562
aI575
aI581
aI582
aI585
aI586
aI590
aI594
aI607
aI609
aI611
aI613
aI614
aI623
aI628
aI631
aI643
aI664
aI675
aI685
aI704
aI705
aI715
aI726
aI727
aI731
aI732
aI734
aI741
aI743
aI750
aI758
aI770
aI776
aI784
aI789
aI790
aI818
aI822
aI827
aI832
aI833
aI835
aI836
aI848
aI864
aI888
aI890
aI901
aI911
aI920
aI936
aI948
aI950
aI952
aI955
aI959
aI960
aI966
aI970
aI971
aI977
aI993
aI995
aI996
aI1009
aI1018
aI1026
aI1031
aI1033
aI1036
aI1042
aI1047
aI1056
aI1058
aI1062
aI1069
aI1072
aI1082
aI1084
aI1087
aI1090
aI1104
aI1110
aI1120
aI1124
aI1136
aI1137
aI1148
aI1166
aI1169
aI1178
aI1179
aI1189
aI1201
aI1203
aI1223
aI1225
aI1235
aI1237
aI1240
aI1249
aI1252
aI1262
aI1265
aI1286
aI1288
aI1315
aI1321
aI1323
aI1327
aI1332
aI1335
aI1348
aI1360
aI1364
aI1375
aI1403
aI1404
aI1412
aI1413
aI1421
aI1435
aI1442
aI1452
aI1466
aI1481
aI1482
aI1499
aI1518
aI1539
aI1543
aI1546
aI1551
aI1558
aI1560
aI1571
aI1581
aI1592
aI1596
aI1610
aI1612
aI1614
aI1634
aI1665
aI1670
aI1675
aI1680
aI1681
aI1692
aI1705
aI1706
aI1709
aI1713
aI1718
aI1726
aI1730
aI1733
aI1735
aI1738
aI1742
aI1749
aI1763
aI1773
aI1782
aI1788
aI1792
aI1807
aI1808
aI1814
aI1820
aI1826
aI1839
aI1847
aI1854
aI1869
aI1889
aI1907
aI1925
aI1927
aI1928
aI1935
aI1936
aI1937
aI1949
aI1954
aI1960
aI1962
aI1974
aI1979
aI1991
aI1994
aI2002
aI2005
aI2007
aI2008
aI2015
aI2019
aI2027
aI2031
aI2046
aI2053
aI2055
aI2063
aI2072
aI2075
aI2087
aI2097
aI2107
aI2120
aI2122
aI2123
aI2127
aI2131
aI2132
aI2150
aI2156
aI2167
aI2175
aI2177
aI2188
aI2193
aI2195
aI2208
aI2216
aI2230
aI2231
aI2239
aI2244
aI2253
aI2259
aI2262
aI2265
aI2289
aI2294
aI2296
aI2298
aI2299
aI2305
aI2311
aI2312
aI2322
aI2323
aI2326
aI2330
aI2333
aI2351
aI2369
aI2373
aI2374
aI2380
aI2384
aI2385
aI2388
aI2395
aI2398
aI2399
aI2406
aI2413
aI2433
aI2444
aI2448
aI2450
aI2458
aI2470
aI2474
aI2482
aI2488
aI2499
aI2513
aI2524
aI2545
aI2559
aI2568
aI2577
aI2584
aI2589
aI2594
aI2601
aI2606
aI2612
aI2621
aI2626
aI2631
aI2632
aI2642
aI2648
aI2651
aI2661
aI2673
aI2708
aI2723
aI2730
aI2749
aI2759
aI2779
aI2783
aI2792
aI2797
aI2800
aI2809
aI2820
aI2832
aI2844
aI2849
aI2856
aI2868
aI2874
aI2883
aI2890
aI2906
aI2917
aI2922
aI2931
aI2939
aI2948
aI2960
aI2976
aI2983
aI3006
aI3009
aI3020
aI3030
aI3044
aI3048
aI3055
aI3065
aI3076
aI3090
aI3099
aI3105
aI3108
aI3122
aI3129
aI3132
aI3141
aI3144
aI3162
aI3165
aI3173
aI3176
aI3185
aI3193
aI3195
aI3197
aI3199
aI3206
aI3214
aI3216
aI3221
aI3226
aI3228
aI3231
aI3235
aI3239
aI3241
aI3249
aI3251
aI3256
aI3286
aI3298
aI3313
aI3321
aI3329
aI3333
aI3340
aI3343
aI3351
aI3354
aI3355
aI3360
aI3363
aI3367
aI3376
aI3398
aI3400
aI3401
aI3425
aI3433
aI3434
aI3441
aI3443
aI3446
aI3464
aI3466
aI3471
aI3488
aI3497
aI3503
aI3504
aI3509
aI3510
aI3514
aI3521
aI3522
aI3527
aI3529
aI3534
aI3535
aI3539
aI3551
aI3552
aI3563
aI3569
aI3571
aI3581
aI3594
aI3595
aI3598
aI3599
aI3604
aI3605
aI3608
aI3610
aI3615
aI3616
aI3619
aI3620
aI3624
aI3625
aI3629
aI3630
aI3632
aI3636
aI3639
aI3640
aI3646
aI3647
aI3650
aI3651
aI3662
aI3663
aI3670
aI3671
aI3684
aI3685
aI3689
aI3691
aI3702
aI3703
aI3707
aI3708
aI3710
aI3711
aI3716
aI3717
aI3724
aI3734
aI3735
aI3739
aI3740
aI3746
aI3747
aI3758
aI3759
aI3777
aI3780
aI3785
aI3789
aI3790
aI3803
aI3804
aI3807
aI3812
aI3813
aI3818
aI3819
aI3832
aI3838
aI3852
aI3861
aI3871
aI3871
aI3877
aI3878
aI3883
aI3884
aI3891
aI3893
aI3896
aI3897
aI3900
aI3901
aI3910
aI3913
aI3923
aI3925
aI3927
aI3928
aI3935
aI3936
aI3939
aI3946
aI3953
aI3956
aI3961
aI3964
aI3966
aI3973
aI3988
aI3990
aI3996
aI4002
aI4007
aI4010
aI4013
aI4015
aI4023
aI4028
aI4033
aI4039
aI4041
aI4045
aI4048
aI4049
aI4060
aI4063
aI4071
aI4093
aI4113
aI4124
aI4147
aI4154
aI4158
aI4181
aI4185
aI4200
aI4213
aI4221
aI4225
aI4238
aI4253
aI4261
aI4265
aI4270
aI4279
aI4315
aI4321
aI4328
aI4343
aI4357
aI4363
aI4365
aI4372
aI4375
aI4383
aI4384
aI4390
aI4394
aI4399
aI4403
aI4411
aI4418
aI4435
aI4440
aI4454
aI4470
aI4475
aI4484
aI4492
aI4513
aI4515
aI4532
aI4542
aI4549
aI4557
aI4568
aI4572
aI4583
aI4590
aI4598
aI4607
aI4611
aI4626
aI4629
aI4637
aI4648
aI4653
aI4661
aI4673
aI4679
aI4689
aI4700
aI4710
aI4719
aI4728
aI4737
aI4754
a(lp2
ccopy_reg
_reconstructor
p3
(csefaria.model.text
Ref
p4
c__builtin__
object
p5
NtRp6
(dp7
S'index_node'
p8
g3
(csefaria.model.schema
JaggedArrayNode
p9
g5
NtRp10
(dp11
S'_address'
p12
(lp13
VTamid
p14
asS'_full_titles'
p15
(dp16
sVnodeType
p17
VJaggedArrayNode
p18
sS'parent'
p19
NsVaddressTypes
p20
(lp21
VTalmud
p22
aVInteger
p23
asS'default'
p24
I00
sS'index'
p25
g3
(csefaria.model.text
Index
p26
g5
NtRp27
(dp28
S'schema'
p29
(dp30
g17
g18
sg20
g21
sVlengths
p31
(lp32
I66
aI665
asVdepth
p33
I2
sVtitles
p34
(lp35
(dp36
Vlang
p37
Ven
p38
sVtext
p39
VTractate Tamid
p40
sa(dp41
Vlang
p42
Ven
p43
sVtext
p44
VTalmud Tamid
p45
sa(dp46
Vlang
p47
Ven
p48
sVtext
p49
VMasekhet Tamid
p50
sa(dp51
Vlang
p52
Vhe
p53
sVtext
p54
V\u05ea\u05de\u05d9\u05d3
p55
sVprimary
p56
I01
sa(dp57
Vlang
p58
Ven
p59
sVtext
p60
VTamid
p61
sVprimary
p62
I01
sasVkey
p63
g14
sVcheckFirst
p64
(dp65
Ven
p66
VMishnah Tamid
p67
sVhe
p68
V\u05de\u05e9\u05e0\u05d4 \u05ea\u05de\u05d9\u05d3
p69
ssVsectionNames
p70
(lp71
VDaf
p72
aVLine
p73
assS'_id'
p74
g3
(cbson.objectid
ObjectId
p75
g5
NtRp76
S'NJ\xb8\xca\xed\xba\xb4X3\x00\x00\x89'
p77
bsS'pkeys_orig_values'
p78
(dp79
S'title'
p80
VTamid
p81
ssS'alt_structs'
p82
(dp83
VChapters
p84
(dp85
Vnodes
p86
(lp87
(dp88
VnodeType
p89
VArrayMapNode
p90
sVdepth
p91
I0
sVtitles
p92
(lp93
(dp94
Vlang
p95
Ven
p96
sVtext
p97
VChapter 1
p98
sVprimary
p99
I01
sa(dp100
Vlang
p101
Vhe
p102
sVtext
p103
V\u05d1\u05e9\u05dc\u05e9\u05d4 \u05de\u05e7\u05d5\u05de\u05d5\u05ea
p104
sVprimary
p105
I01
sasVwholeRef
p106
VTamid 25b:1-28b:21
p107
sVincludeSections
p108
I01
sa(dp109
VnodeType
p110
VArrayMapNode
p111
sVdepth
p112
I0
sVtitles
p113
(lp114
(dp115
Vlang
p116
Ven
p117
sVtext
p118
VChapter 2
p119
sVprimary
p120
I01
sa(dp121
Vlang
p122
Vhe
p123
sVtext
p124
V\u05e8\u05d0\u05d5\u05d4\u05d5 \u05d0\u05d7\u05d9\u05d5
p125
sVprimary
p126
I01
sasVwholeRef
p127
VTamid 28b:22-30a:12
p128
sVincludeSections
p129
I01
sa(dp130
VnodeType
p131
VArrayMapNode
p132
sVdepth
p133
I0
sVtitles
p134
(lp135
(dp136
Vlang
p137
Ven
p138
sVtext
p139
VChapter 3
p140
sVprimary
p141
I01
sa(dp142
Vlang
p143
Vhe
p144
sVtext
p145
V\u05d0\u05de\u05e8 \u05dc\u05d4\u05dd \u05d4\u05de\u05de\u05d5\u05e0\u05d4 \u05d1\u05d5\u05d0\u05d5
p146
sVprimary
p147
I01
sasVwholeRef
p148
VTamid 30a:13-30b:35
p149
sVincludeSections
p150
I01
sa(dp151
VnodeType
p152
VArrayMapNode
p153
sVdepth
p154
I0
sVtitles
p155
(lp156
(dp157
Vlang
p158
Ven
p159
sVtext
p160
VChapter 4
p161
sVprimary
p162
I01
sa(dp163
Vlang
p164
Vhe
p165
sVtext
p166
V\u05dc\u05d0 \u05d4\u05d9\u05d5 \u05db\u05d5\u05e4\u05ea\u05d9\u05df
p167
sVprimary
p168
I01
sasVwholeRef
p169
VTamid 30b:36-32b:40
p170
sVincludeSections
p171
I01
sa(dp172
VnodeType
p173
VArrayMapNode
p174
sVdepth
p175
I0
sVtitles
p176
(lp177
(dp178
Vlang
p179
Ven
p180
sVtext
p181
VChapter 5
p182
sVprimary
p183
I01
sa(dp184
Vlang
p185
Vhe
p186
sVtext
p187
V\u05d0\u05de\u05e8 \u05dc\u05d4\u05dd \u05d4\u05de\u05de\u05d5\u05e0\u05d4 \u05d1\u05e8\u05db\u05d5
p188
sVprimary
p189
I01
sasVwholeRef
p190
VTamid 32b:41-33a:14
p191
sVincludeSections
p192
I01
sa(dp193
VnodeType
p194
VArrayMapNode
p195
sVdepth
p196
I0
sVtitles
p197
(lp198
(dp199
Vlang
p200
Ven
p201
sVtext
p202
VChapter 6
p203
sVprimary
p204
I01
sa(dp205
Vlang
p206
Vhe
p207
sVtext
p208
V\u05d4\u05d7\u05dc\u05d5 \u05e2\u05d5\u05dc\u05d9\u05dd
p209
sVprimary
p210
I01
sasVwholeRef
p211
VTamid 33a:15-31
p212
sVincludeSections
p213
I01
sa(dp214
VnodeType
p215
VArrayMapNode
p216
sVdepth
p217
I0
sVtitles
p218
(lp219
(dp220
Vlang
p221
Ven
p222
sVtext
p223
VChapter 7
p224
sVprimary
p225
I01
sa(dp226
Vlang
p227
Vhe
p228
sVtext
p229
V\u05d1\u05d6\u05de\u05df \u05e9\u05db\u05d4\u05df \u05d2\u05d3\u05d5\u05dc
p230
sVprimary
p231
I01
sasVwholeRef
p232
VTamid 33b:1-38
p233
sVincludeSections
p234
I01
sasssS'pubDate'
p235
V1523
p236
sS'compDate'
p237
V500
p238
sS'pubPlace'
p239
VVenice
p240
sS'compPlace'
p241
VTalmudic Babylon
p242
sS'enDesc'
p243
VThe Babylonian Talmud ("instruction, learning") is a central text of Rabbinic Judaism. Babylon refers to the geographical location of its composition and not to the empire. The Talmud has two components: the Mishnah (c. 200 CE) and the Gemara (c. 500 CE). The latter is a discussion of the Mishnah. The entire Talmud consists of 63 tractates, further subdivided into chapters and folios. Each folio is double sided and starts on page 2a. It is written in Tannaitic Hebrew and Aramaic, and contains the teachings and opinions of rabbis on a variety of subjects, including Halakha (law), Jewish ethics, philosophy, customs, history, lore and many other topics. The Talmud is the basis for all codes of Jewish law, and is widely quoted in rabbinic literature. It is also traditionally referred to as Shas, a Hebrew abbreviation of shisha sedarim, (six orders). Tamid (Always) belongs to the fifth order, Kodshim (Holy things)  and discusses the procedure of the Tamid (daily sacrifice). It has six or seven chapters.
p244
sS'order'
p245
(lp246
I36
aI9
asS'era'
p247
VA
sS'struct_objs'
p248
(dp249
g84
g3
(csefaria.model.schema
TitledTreeNode
p250
g5
NtRp251
(dp252
g15
(dp253
sg19
Nsg24
I00
sS'_primary_title'
p254
(dp255
sS'title_group'
p256
g3
(csefaria.model.schema
TitleGroup
p257
g5
NtRp258
(dp259
g254
(dp260
S'en'
p261
g61
ssS'titles'
p262
g35
sbsS'sharedTitle'
p263
NsS'_full_title'
p264
(dp265
sS'_leaf_nodes'
p266
(lp267
sS'children'
p268
(lp269
g3
(csefaria.model.schema
ArrayMapNode
p270
g5
NtRp271
(dp272
g15
(dp273
sg89
g90
sg19
g251
sg24
I00
sg254
(dp274
sg256
g3
(g257
g5
NtRp275
(dp276
g254
(dp277
g261
g98
ssg262
g93
sbsS'_addressTypes'
p278
(lp279
sg263
Nsg91
I0
sg264
(dp280
sS'_regexes'
p281
(dp282
sg106
g107
sg266
(lp283
sg268
(lp284
sg108
I01
sbag3
(g270
g5
NtRp285
(dp286
g15
(dp287
sg110
g111
sg19
g251
sg24
I00
sg254
(dp288
sg256
g3
(g257
g5
NtRp289
(dp290
g254
(dp291
g261
g119
ssg262
g114
sbsg278
(lp292
sg263
Nsg112
I0
sg264
(dp293
sg281
(dp294
sg127
g128
sg266
(lp295
sg268
(lp296
sg129
I01
sbag3
(g270
g5
NtRp297
(dp298
g15
(dp299
sg131
g132
sg19
g251
sg24
I00
sg254
(dp300
sg256
g3
(g257
g5
NtRp301
(dp302
g254
(dp303
g261
g140
ssg262
g135
sbsg278
(lp304
sg263
Nsg133
I0
sg264
(dp305
sg281
(dp306
sg148
g149
sg266
(lp307
sg268
(lp308
sg150
I01
sbag3
(g270
g5
NtRp309
(dp310
g15
(dp311
sg152
g153
sg19
g251
sg24
I00
sg254
(dp312
sg256
g3
(g257
g5
NtRp313
(dp314
g254
(dp315
g261
g161
ssg262
g156
sbsg278
(lp316
sg263
Nsg154
I0
sg264
(dp317
sg281
(dp318
sg169
g170
sg266
(lp319
sg268
(lp320
sg171
I01
sbag3
(g270
g5
NtRp321
(dp322
g15
(dp323
sg173
g174
sg19
g251
sg24
I00
sg254
(dp324
sg256
g3
(g257
g5
NtRp325
(dp326
g254
(dp327
g261
g182
ssg262
g177
sbsg278
(lp328
sg263
Nsg175
I0
sg264
(dp329
sg281
(dp330
sg190
g191
sg266
(lp331
sg268
(lp332
sg192
I01
sbag3
(g270
g5
NtRp333
(dp334
g15
(dp335
sg194
g195
sg19
g251
sg24
I00
sg254
(dp336
sg256
g3
(g257
g5
NtRp337
(dp338
g254
(dp339
g261
g203
ssg262
g198
sbsg278
(lp340
sg263
Nsg196
I0
sg264
(dp341
sg281
(dp342
sg211
g212
sg266
(lp343
sg268
(lp344
sg213
I01
sbag3
(g270
g5
NtRp345
(dp346
g15
(dp347
sg215
g216
sg19
g251
sg24
I00
sg254
(dp348
sg256
g3
(g257
g5
NtRp349
(dp350
g254
(dp351
g261
g224
ssg262
g219
sbsg278
(lp352
sg263
Nsg217
I0
sg264
(dp353
sg281
(dp354
sg232
g233
sg266
(lp355
sg268
(lp356
sg234
I01
sbasbssS'nodes'
p357
g10
sS'errorMargin'
p358
V50
p359
sS'_title'
p360
g81
sS'categories'
p361
(lp362
VTalmud
p363
aVBavli
p364
aVSeder Kodashim
p365
asS'default_struct'
p366
VChapters
p367
sbsg254
(dp368
sg256
g258
sg278
(lp369
g3
(csefaria.model.schema
AddressTalmud
p370
g5
NtRp371
(dp372
S'length'
p373
I66
sg245
I0
sbag3
(csefaria.model.schema
AddressInteger
p374
g5
NtRp375
(dp376
g373
Nsg245
I1
sbasg263
Nsg31
g32
sg33
I2
sg264
(dp377
g261
g61
ssS'key'
p378
g14
sS'checkFirst'
p379
g65
sg281
(dp380
sg266
(lp381
sg70
g71
sg268
(lp382
sbsS'_range_index'
p383
NsS'_context'
p384
(dp385
sS'_padded'
p386
Nsg25
g27
sS'sections'
p387
(lp388
I50
aI1
asS'_first_spanned_ref'
p389
NsS'tref'
p390
VTamid 25b:1
p391
sS'_spanned_refs'
p392
(lp393
sS'book'
p394
g61
sS'_range_depth'
p395
NsS'toSections'
p396
(lp397
I50
aI1
asS'_url'
p398
NsS'_normal'
p399
g391
sS'_ranged_refs'
p400
(lp401
sS'type'
p402
g363
sS'_prev'
p403
NsS'_he_normal'
p404
NsS'_next'
p405
Nsbag3
(g4
g5
NtRp406
(dp407
g8
g10
sg383
Nsg384
(dp408
sg386
Nsg25
g27
sg387
(lp409
I50
aI2
asg389
Nsg390
VTamid 25b:2
p410
sg392
(lp411
sg394
g61
sg395
Nsg396
(lp412
I50
aI2
asg398
Nsg399
g410
sg400
(lp413
sg402
g363
sg403
Nsg404
Nsg405
Nsbag3
(g4
g5
NtRp414
(dp415
g8
g10
sg383
Nsg384
(dp416
sg386
Nsg25
g27
sg387
(lp417
I50
aI3
asg389
Nsg390
VTamid 25b:3
p418
sg392
(lp419
sg394
g61
sg395
Nsg396
(lp420
I50
aI3
asg398
Nsg399
g418
sg400
(lp421
sg402
g363
sg403
Nsg404
Nsg405
Nsbag3
(g4
g5
NtRp422
(dp423
g8
g10
sg383
Nsg384
(dp424
sg386
Nsg25
g27
sg387
(lp425
I50
aI4
asg389
Nsg390
VTamid 25b:4
p426
sg392
(lp427
sg394
g61
sg395
Nsg396
(lp428
I50
aI4
asg398
Nsg399
g426
sg400
(lp429
sg402
g363
sg403
Nsg404
Nsg405
Nsbag3
(g4
g5
NtRp430
(dp431
g8
g10
sg383
Nsg384
(dp432
sg386
Nsg25
g27
sg387
(lp433
I50
aI5
asg389
Nsg390
VTamid 25b:5
p434
sg392
(lp435
sg394
g61
sg395
Nsg396
(lp436
I50
aI5
asg398
Nsg399
g434
sg400
(lp437
sg402
g363
sg403
Nsg404
Nsg405
Nsbag3
(g4
g5
NtRp438
(dp439
g8
g10
sg383
Nsg384
(dp440
sg386
Nsg25
g27
sg387
(lp441
I50
aI6
asg389
Nsg390
VTamid 25b:6
p442
sg392
(lp443
sg394
g61
sg395
Nsg396
(lp444
I50
aI6
asg398
Nsg399
g442
sg400
(lp445
sg402
g363
sg403
Nsg404
Nsg405
Nsbag3
(g4
g5
NtRp446
(dp447
g8
g10
sg383
Nsg384
(dp448
sg386
Nsg25
g27
sg387
(lp449
I51
aI1
asg389
Nsg390
VTamid 26a:1
p450
sg392
(lp451
sg394
g61
sg395
Nsg396
(lp452
I51
aI1
asg398
Nsg399
g450
sg400
(lp453
sg402
g363
sg403
Nsg404
Nsg405
Nsbag3
(g4
g5
NtRp454
(dp455
g8
g10
sg383
Nsg384
(dp456
sg386
Nsg25
g27
sg387
(lp457
I51
aI2
asg389
Nsg390
VTamid 26a:2
p458
sg392
(lp459
sg394
g61
sg395
Nsg396
(lp460
I51
aI2
asg398
Nsg399
g458
sg400
(lp461
sg402
g363
sg403
Nsg404
Nsg405
Nsbag3
(g4
g5
NtRp462
(dp463
g8
g10
sg383
Nsg384
(dp464
sg386
Nsg25
g27
sg387
(lp465
I51
aI3
asg389
Nsg390
VTamid 26a:3
p466
sg392
(lp467
sg394
g61
sg395
Nsg396
(lp468
I51
aI3
asg398
Nsg399
g466
sg400
(lp469
sg402
g363
sg403
Nsg404
Nsg405
Nsbag3
(g4
g5
NtRp470
(dp471
g8
g10
sg383
Nsg384
(dp472
sg386
Nsg25
g27
sg387
(lp473
I51
aI4
asg389
Nsg390
VTamid 26a:4
p474
sg392
(lp475
sg394
g61
sg395
Nsg396
(lp476
I51
aI4
asg398
Nsg399
g474
sg400
(lp477
sg402
g363
sg403
Nsg404
Nsg405
Nsbag3
(g4
g5
NtRp478
(dp479
g8
g10
sg383
Nsg384
(dp480
sg386
Nsg25
g27
sg387
(lp481
I51
aI5
asg389
Nsg390
VTamid 26a:5
p482
sg392
(lp483
sg394
g61
sg395
Nsg396
(lp484
I51
aI5
asg398
Nsg399
g482
sg400
(lp485
sg402
g363
sg403
Nsg404
Nsg405
Nsbag3
(g4
g5
NtRp486
(dp487
g8
g10
sg383
Nsg384
(dp488
sg386
Nsg25
g27
sg387
(lp489
I51
aI6
asg389
Nsg390
VTamid 26a:6
p490
sg392
(lp491
sg394
g61
sg395
Nsg396
(lp492
I51
aI6
asg398
Nsg399
g490
sg400
(lp493
sg402
g363
sg403
Nsg404
Nsg405
Nsbag3
(g4
g5
NtRp494
(dp495
g8
g10
sg383
Nsg384
(dp496
sg386
Nsg25
g27
sg387
(lp497
I51
aI7
asg389
Nsg390
VTamid 26a:7
p498
sg392
(lp499
sg394
g61
sg395
Nsg396
(lp500
I51
aI7
asg398
Nsg399
g498
sg400
(lp501
sg402
g363
sg403
Nsg404
Nsg405
Nsbag3
(g4
g5
NtRp502
(dp503
g8
g10
sg383
Nsg384
(dp504
sg386
Nsg25
g27
sg387
(lp505
I51
aI8
asg389
Nsg390
VTamid 26a:8
p506
sg392
(lp507
sg394
g61
sg395
Nsg396
(lp508
I51
aI8
asg398
Nsg399
g506
sg400
(lp509
sg402
g363
sg403
Nsg404
Nsg405
Nsbag3
(g4
g5
NtRp510
(dp511
g8
g10
sg383
Nsg384
(dp512
sg386
Nsg25
g27
sg387
(lp513
I51
aI9
asg389
Nsg390
VTamid 26a:9
p514
sg392
(lp515
sg394
g61
sg395
Nsg396
(lp516
I51
aI9
asg398
Nsg399
g514
sg400
(lp517
sg402
g363
sg403
Nsg404
Nsg405
Nsbag3
(g4
g5
NtRp518
(dp519
g8
g10
sg383
Nsg384
(dp520
sg386
Nsg25
g27
sg387
(lp521
I51
aI10
asg389
Nsg390
VTamid 26a:10
p522
sg392
(lp523
sg394
g61
sg395
Nsg396
(lp524
I51
aI10
asg398
Nsg399
g522
sg400
(lp525
sg402
g363
sg403
Nsg404
Nsg405
Nsbag3
(g4
g5
NtRp526
(dp527
g8
g10
sg383
Nsg384
(dp528
sg386
Nsg25
g27
sg387
(lp529
I51
aI11
asg389
Nsg390
VTamid 26a:11
p530
sg392
(lp531
sg394
g61
sg395
Nsg396
(lp532
I51
aI11
asg398
Nsg399
g530
sg400
(lp533
sg402
g363
sg403
Nsg404
Nsg405
Nsbag3
(g4
g5
NtRp534
(dp535
g8
g10
sg383
Nsg384
(dp536
sg386
Nsg25
g27
sg387
(lp537
I51
aI12
asg389
Nsg390
VTamid 26a:12
p538
sg392
(lp539
sg394
g61
sg395
Nsg396
(lp540
I51
aI12
asg398
Nsg399
g538
sg400
(lp541
sg402
g363
sg403
Nsg404
Nsg405
Nsbag3
(g4
g5
NtRp542
(dp543
g8
g10
sg383
Nsg384
(dp544
sg386
Nsg25
g27
sg387
(lp545
I51
aI13
asg389
Nsg390
VTamid 26a:13
p546
sg392
(lp547
sg394
g61
sg395
Nsg396
(lp548
I51
aI13
asg398
Nsg399
g546
sg400
(lp549
sg402
g363
sg403
Nsg404
Nsg405
Nsbag3
(g4
g5
NtRp550
(dp551
g8
g10
sg383
Nsg384
(dp552
sg386
Nsg25
g27
sg387
(lp553
I51
aI14
asg389
Nsg390
VTamid 26a:14
p554
sg392
(lp555
sg394
g61
sg395
Nsg396
(lp556
I51
aI14
asg398
Nsg399
g554
sg400
(lp557
sg402
g363
sg403
Nsg404
Nsg405
Nsbag3
(g4
g5
NtRp558
(dp559
g8
g10
sg383
Nsg384
(dp560
sg386
Nsg25
g27
sg387
(lp561
I51
aI15
asg389
Nsg390
VTamid 26a:15
p562
sg392
(lp563
sg394
g61
sg395
Nsg396
(lp564
I51
aI15
asg398
Nsg399
g562
sg400
(lp565
sg402
g363
sg403
Nsg404
Nsg405
Nsbag3
(g4
g5
NtRp566
(dp567
g8
g10
sg383
Nsg384
(dp568
sg386
Nsg25
g27
sg387
(lp569
I51
aI16
asg389
Nsg390
VTamid 26a:16
p570
sg392
(lp571
sg394
g61
sg395
Nsg396
(lp572
I51
aI16
asg398
Nsg399
g570
sg400
(lp573
sg402
g363
sg403
Nsg404
Nsg405
Nsbag3
(g4
g5
NtRp574
(dp575
g8
g10
sg383
Nsg384
(dp576
sg386
Nsg25
g27
sg387
(lp577
I51
aI17
asg389
Nsg390
VTamid 26a:17
p578
sg392
(lp579
sg394
g61
sg395
Nsg396
(lp580
I51
aI17
asg398
Nsg399
g578
sg400
(lp581
sg402
g363
sg403
Nsg404
Nsg405
Nsbag3
(g4
g5
NtRp582
(dp583
g8
g10
sg383
Nsg384
(dp584
sg386
Nsg25
g27
sg387
(lp585
I51
aI18
asg389
Nsg390
VTamid 26a:18
p586
sg392
(lp587
sg394
g61
sg395
Nsg396
(lp588
I51
aI18
asg398
Nsg399
g586
sg400
(lp589
sg402
g363
sg403
Nsg404
Nsg405
Nsbag3
(g4
g5
NtRp590
(dp591
g8
g10
sg383
Nsg384
(dp592
sg386
Nsg25
g27
sg387
(lp593
I51
aI19
asg389
Nsg390
VTamid 26a:19
p594
sg392
(lp595
sg394
g61
sg395
Nsg396
(lp596
I51
aI19
asg398
Nsg399
g594
sg400
(lp597
sg402
g363
sg403
Nsg404
Nsg405
Nsbag3
(g4
g5
NtRp598
(dp599
g8
g10
sg383
Nsg384
(dp600
sg386
Nsg25
g27
sg387
(lp601
I51
aI20
asg389
Nsg390
VTamid 26a:20
p602
sg392
(lp603
sg394
g61
sg395
Nsg396
(lp604
I51
aI20
asg398
Nsg399
g602
sg400
(lp605
sg402
g363
sg403
Nsg404
Nsg405
Nsbag3
(g4
g5
NtRp606
(dp607
g8
g10
sg383
Nsg384
(dp608
sg386
Nsg25
g27
sg387
(lp609
I51
aI21
asg389
Nsg390
VTamid 26a:21
p610
sg392
(lp611
sg394
g61
sg395
Nsg396
(lp612
I51
aI21
asg398
Nsg399
g610
sg400
(lp613
sg402
g363
sg403
Nsg404
Nsg405
Nsbag3
(g4
g5
NtRp614
(dp615
g8
g10
sg383
Nsg384
(dp616
sg386
Nsg25
g27
sg387
(lp617
I51
aI22
asg389
Nsg390
VTamid 26a:22
p618
sg392
(lp619
sg394
g61
sg395
Nsg396
(lp620
I51
aI22
asg398
Nsg399
g618
sg400
(lp621
sg402
g363
sg403
Nsg404
Nsg405
Nsbag3
(g4
g5
NtRp622
(dp623
g8
g10
sg383
Nsg384
(dp624
sg386
Nsg25
g27
sg387
(lp625
I51
aI23
asg389
Nsg390
VTamid 26a:23
p626
sg392
(lp627
sg394
g61
sg395
Nsg396
(lp628
I51
aI23
asg398
Nsg399
g626
sg400
(lp629
sg402
g363
sg403
Nsg404
Nsg405
Nsbag3
(g4
g5
NtRp630
(dp631
g8
g10
sg383
Nsg384
(dp632
sg386
Nsg25
g27
sg387
(lp633
I51
aI24
asg389
Nsg390
VTamid 26a:24
p634
sg392
(lp635
sg394
g61
sg395
Nsg396
(lp636
I51
aI24
asg398
Nsg399
g634
sg400
(lp637
sg402
g363
sg403
Nsg404
Nsg405
Nsbag3
(g4
g5
NtRp638
(dp639
g8
g10
sg383
Nsg384
(dp640
sg386
Nsg25
g27
sg387
(lp641
I51
aI25
asg389
Nsg390
VTamid 26a:25
p642
sg392
(lp643
sg394
g61
sg395
Nsg396
(lp644
I51
aI25
asg398
Nsg399
g642
sg400
(lp645
sg402
g363
sg403
Nsg404
Nsg405
Nsbag3
(g4
g5
NtRp646
(dp647
g8
g10
sg383
Nsg384
(dp648
sg386
Nsg25
g27
sg387
(lp649
I52
aI1
asg389
Nsg390
VTamid 26b:1
p650
sg392
(lp651
sg394
g61
sg395
Nsg396
(lp652
I52
aI1
asg398
Nsg399
g650
sg400
(lp653
sg402
g363
sg403
Nsg404
Nsg405
Nsbag3
(g4
g5
NtRp654
(dp655
g8
g10
sg383
Nsg384
(dp656
sg386
Nsg25
g27
sg387
(lp657
I52
aI2
asg389
Nsg390
VTamid 26b:2
p658
sg392
(lp659
sg394
g61
sg395
Nsg396
(lp660
I52
aI2
asg398
Nsg399
g658
sg400
(lp661
sg402
g363
sg403
Nsg404
Nsg405
Nsbag3
(g4
g5
NtRp662
(dp663
g8
g10
sg383
Nsg384
(dp664
sg386
Nsg25
g27
sg387
(lp665
I52
aI3
asg389
Nsg390
VTamid 26b:3
p666
sg392
(lp667
sg394
g61
sg395
Nsg396
(lp668
I52
aI3
asg398
Nsg399
g666
sg400
(lp669
sg402
g363
sg403
Nsg404
Nsg405
Nsbag3
(g4
g5
NtRp670
(dp671
g8
g10
sg383
Nsg384
(dp672
sg386
Nsg25
g27
sg387
(lp673
I52
aI4
asg389
Nsg390
VTamid 26b:4
p674
sg392
(lp675
sg394
g61
sg395
Nsg396
(lp676
I52
aI4
asg398
Nsg399
g674
sg400
(lp677
sg402
g363
sg403
Nsg404
Nsg405
Nsbag3
(g4
g5
NtRp678
(dp679
g8
g10
sg383
Nsg384
(dp680
sg386
Nsg25
g27
sg387
(lp681
I52
aI5
asg389
Nsg390
VTamid 26b:5
p682
sg392
(lp683
sg394
g61
sg395
Nsg396
(lp684
I52
aI5
asg398
Nsg399
g682
sg400
(lp685
sg402
g363
sg403
Nsg404
Nsg405
Nsbag3
(g4
g5
NtRp686
(dp687
g8
g10
sg383
Nsg384
(dp688
sg386
Nsg25
g27
sg387
(lp689
I52
aI6
asg389
Nsg390
VTamid 26b:6
p690
sg392
(lp691
sg394
g61
sg395
Nsg396
(lp692
I52
aI6
asg398
Nsg399
g690
sg400
(lp693
sg402
g363
sg403
Nsg404
Nsg405
Nsbag3
(g4
g5
NtRp694
(dp695
g8
g10
sg383
Nsg384
(dp696
sg386
Nsg25
g27
sg387
(lp697
I52
aI7
asg389
Nsg390
VTamid 26b:7
p698
sg392
(lp699
sg394
g61
sg395
Nsg396
(lp700
I52
aI7
asg398
Nsg399
g698
sg400
(lp701
sg402
g363
sg403
Nsg404
Nsg405
Nsbag3
(g4
g5
NtRp702
(dp703
g8
g10
sg383
Nsg384
(dp704
sg386
Nsg25
g27
sg387
(lp705
I52
aI8
asg389
Nsg390
VTamid 26b:8
p706
sg392
(lp707
sg394
g61
sg395
Nsg396
(lp708
I52
aI8
asg398
Nsg399
g706
sg400
(lp709
sg402
g363
sg403
Nsg404
Nsg405
Nsbag3
(g4
g5
NtRp710
(dp711
g8
g10
sg383
Nsg384
(dp712
sg386
Nsg25
g27
sg387
(lp713
I52
aI9
asg389
Nsg390
VTamid 26b:9
p714
sg392
(lp715
sg394
g61
sg395
Nsg396
(lp716
I52
aI9
asg398
Nsg399
g714
sg400
(lp717
sg402
g363
sg403
Nsg404
Nsg405
Nsbag3
(g4
g5
NtRp718
(dp719
g8
g10
sg383
Nsg384
(dp720
sg386
Nsg25
g27
sg387
(lp721
I52
aI10
asg389
Nsg390
VTamid 26b:10
p722
sg392
(lp723
sg394
g61
sg395
Nsg396
(lp724
I52
aI10
asg398
Nsg399
g722
sg400
(lp725
sg402
g363
sg403
Nsg404
Nsg405
Nsbag3
(g4
g5
NtRp726
(dp727
g8
g10
sg383
Nsg384
(dp728
sg386
Nsg25
g27
sg387
(lp729
I52
aI11
asg389
Nsg390
VTamid 26b:11
p730
sg392
(lp731
sg394
g61
sg395
Nsg396
(lp732
I52
aI11
asg398
Nsg399
g730
sg400
(lp733
sg402
g363
sg403
Nsg404
Nsg405
Nsbag3
(g4
g5
NtRp734
(dp735
g8
g10
sg383
Nsg384
(dp736
sg386
Nsg25
g27
sg387
(lp737
I52
aI12
asg389
Nsg390
VTamid 26b:12
p738
sg392
(lp739
sg394
g61
sg395
Nsg396
(lp740
I52
aI12
asg398
Nsg399
g738
sg400
(lp741
sg402
g363
sg403
Nsg404
Nsg405
Nsbag3
(g4
g5
NtRp742
(dp743
g8
g10
sg383
Nsg384
(dp744
sg386
Nsg25
g27
sg387
(lp745
I52
aI13
asg389
Nsg390
VTamid 26b:13
p746
sg392
(lp747
sg394
g61
sg395
Nsg396
(lp748
I52
aI13
asg398
Nsg399
g746
sg400
(lp749
sg402
g363
sg403
Nsg404
Nsg405
Nsbag3
(g4
g5
NtRp750
(dp751
g8
g10
sg383
Nsg384
(dp752
sg386
Nsg25
g27
sg387
(lp753
I52
aI14
asg389
Nsg390
VTamid 26b:14
p754
sg392
(lp755
sg394
g61
sg395
Nsg396
(lp756
I52
aI14
asg398
Nsg399
g754
sg400
(lp757
sg402
g363
sg403
Nsg404
Nsg405
Nsbag3
(g4
g5
NtRp758
(dp759
g8
g10
sg383
Nsg384
(dp760
sg386
Nsg25
g27
sg387
(lp761
I52
aI15
asg389
Nsg390
VTamid 26b:15
p762
sg392
(lp763
sg394
g61
sg395
Nsg396
(lp764
I52
aI15
asg398
Nsg399
g762
sg400
(lp765
sg402
g363
sg403
Nsg404
Nsg405
Nsbag3
(g4
g5
NtRp766
(dp767
g8
g10
sg383
Nsg384
(dp768
sg386
Nsg25
g27
sg387
(lp769
I52
aI16
asg389
Nsg390
VTamid 26b:16
p770
sg392
(lp771
sg394
g61
sg395
Nsg396
(lp772
I52
aI16
asg398
Nsg399
g770
sg400
(lp773
sg402
g363
sg403
Nsg404
Nsg405
Nsbag3
(g4
g5
NtRp774
(dp775
g8
g10
sg383
Nsg384
(dp776
sg386
Nsg25
g27
sg387
(lp777
I52
aI17
asg389
Nsg390
VTamid 26b:17
p778
sg392
(lp779
sg394
g61
sg395
Nsg396
(lp780
I52
aI17
asg398
Nsg399
g778
sg400
(lp781
sg402
g363
sg403
Nsg404
Nsg405
Nsbag3
(g4
g5
NtRp782
(dp783
g8
g10
sg383
Nsg384
(dp784
sg386
Nsg25
g27
sg387
(lp785
I52
aI18
asg389
Nsg390
VTamid 26b:18
p786
sg392
(lp787
sg394
g61
sg395
Nsg396
(lp788
I52
aI18
asg398
Nsg399
g786
sg400
(lp789
sg402
g363
sg403
Nsg404
Nsg405
Nsbag3
(g4
g5
NtRp790
(dp791
g8
g10
sg383
Nsg384
(dp792
sg386
Nsg25
g27
sg387
(lp793
I52
aI19
asg389
Nsg390
VTamid 26b:19
p794
sg392
(lp795
sg394
g61
sg395
Nsg396
(lp796
I52
aI19
asg398
Nsg399
g794
sg400
(lp797
sg402
g363
sg403
Nsg404
Nsg405
Nsbag3
(g4
g5
NtRp798
(dp799
g8
g10
sg383
Nsg384
(dp800
sg386
Nsg25
g27
sg387
(lp801
I52
aI20
asg389
Nsg390
VTamid 26b:20
p802
sg392
(lp803
sg394
g61
sg395
Nsg396
(lp804
I52
aI20
asg398
Nsg399
g802
sg400
(lp805
sg402
g363
sg403
Nsg404
Nsg405
Nsbag3
(g4
g5
NtRp806
(dp807
g8
g10
sg383
Nsg384
(dp808
sg386
Nsg25
g27
sg387
(lp809
I52
aI21
asg389
Nsg390
VTamid 26b:21
p810
sg392
(lp811
sg394
g61
sg395
Nsg396
(lp812
I52
aI21
asg398
Nsg399
g810
sg400
(lp813
sg402
g363
sg403
Nsg404
Nsg405
Nsbag3
(g4
g5
NtRp814
(dp815
g8
g10
sg383
Nsg384
(dp816
sg386
Nsg25
g27
sg387
(lp817
I52
aI22
asg389
Nsg390
VTamid 26b:22
p818
sg392
(lp819
sg394
g61
sg395
Nsg396
(lp820
I52
aI22
asg398
Nsg399
g818
sg400
(lp821
sg402
g363
sg403
Nsg404
Nsg405
Nsbag3
(g4
g5
NtRp822
(dp823
g8
g10
sg383
Nsg384
(dp824
sg386
Nsg25
g27
sg387
(lp825
I52
aI23
asg389
Nsg390
VTamid 26b:23
p826
sg392
(lp827
sg394
g61
sg395
Nsg396
(lp828
I52
aI23
asg398
Nsg399
g826
sg400
(lp829
sg402
g363
sg403
Nsg404
Nsg405
Nsbag3
(g4
g5
NtRp830
(dp831
g8
g10
sg383
Nsg384
(dp832
sg386
Nsg25
g27
sg387
(lp833
I52
aI24
asg389
Nsg390
VTamid 26b:24
p834
sg392
(lp835
sg394
g61
sg395
Nsg396
(lp836
I52
aI24
asg398
Nsg399
g834
sg400
(lp837
sg402
g363
sg403
Nsg404
Nsg405
Nsbag3
(g4
g5
NtRp838
(dp839
g8
g10
sg383
Nsg384
(dp840
sg386
Nsg25
g27
sg387
(lp841
I52
aI25
asg389
Nsg390
VTamid 26b:25
p842
sg392
(lp843
sg394
g61
sg395
Nsg396
(lp844
I52
aI25
asg398
Nsg399
g842
sg400
(lp845
sg402
g363
sg403
Nsg404
Nsg405
Nsbag3
(g4
g5
NtRp846
(dp847
g8
g10
sg383
Nsg384
(dp848
sg386
Nsg25
g27
sg387
(lp849
I52
aI26
asg389
Nsg390
VTamid 26b:26
p850
sg392
(lp851
sg394
g61
sg395
Nsg396
(lp852
I52
aI26
asg398
Nsg399
g850
sg400
(lp853
sg402
g363
sg403
Nsg404
Nsg405
Nsbag3
(g4
g5
NtRp854
(dp855
g8
g10
sg383
Nsg384
(dp856
sg386
Nsg25
g27
sg387
(lp857
I52
aI27
asg389
Nsg390
VTamid 26b:27
p858
sg392
(lp859
sg394
g61
sg395
Nsg396
(lp860
I52
aI27
asg398
Nsg399
g858
sg400
(lp861
sg402
g363
sg403
Nsg404
Nsg405
Nsbag3
(g4
g5
NtRp862
(dp863
g8
g10
sg383
Nsg384
(dp864
sg386
Nsg25
g27
sg387
(lp865
I52
aI28
asg389
Nsg390
VTamid 26b:28
p866
sg392
(lp867
sg394
g61
sg395
Nsg396
(lp868
I52
aI28
asg398
Nsg399
g866
sg400
(lp869
sg402
g363
sg403
Nsg404
Nsg405
Nsbag3
(g4
g5
NtRp870
(dp871
g8
g10
sg383
Nsg384
(dp872
sg386
Nsg25
g27
sg387
(lp873
I52
aI29
asg389
Nsg390
VTamid 26b:29
p874
sg392
(lp875
sg394
g61
sg395
Nsg396
(lp876
I52
aI29
asg398
Nsg399
g874
sg400
(lp877
sg402
g363
sg403
Nsg404
Nsg405
Nsbag3
(g4
g5
NtRp878
(dp879
g8
g10
sg383
Nsg384
(dp880
sg386
Nsg25
g27
sg387
(lp881
I52
aI30
asg389
Nsg390
VTamid 26b:30
p882
sg392
(lp883
sg394
g61
sg395
Nsg396
(lp884
I52
aI30
asg398
Nsg399
g882
sg400
(lp885
sg402
g363
sg403
Nsg404
Nsg405
Nsbag3
(g4
g5
NtRp886
(dp887
g8
g10
sg383
Nsg384
(dp888
sg386
Nsg25
g27
sg387
(lp889
I52
aI31
asg389
Nsg390
VTamid 26b:31
p890
sg392
(lp891
sg394
g61
sg395
Nsg396
(lp892
I52
aI31
asg398
Nsg399
g890
sg400
(lp893
sg402
g363
sg403
Nsg404
Nsg405
Nsbag3
(g4
g5
NtRp894
(dp895
g8
g10
sg383
Nsg384
(dp896
sg386
Nsg25
g27
sg387
(lp897
I52
aI32
asg389
Nsg390
VTamid 26b:32
p898
sg392
(lp899
sg394
g61
sg395
Nsg396
(lp900
I52
aI32
asg398
Nsg399
g898
sg400
(lp901
sg402
g363
sg403
Nsg404
Nsg405
Nsbag3
(g4
g5
NtRp902
(dp903
g8
g10
sg383
Nsg384
(dp904
sg386
Nsg25
g27
sg387
(lp905
I52
aI33
asg389
Nsg390
VTamid 26b:33
p906
sg392
(lp907
sg394
g61
sg395
Nsg396
(lp908
I52
aI33
asg398
Nsg399
g906
sg400
(lp909
sg402
g363
sg403
Nsg404
Nsg405
Nsbag3
(g4
g5
NtRp910
(dp911
g8
g10
sg383
Nsg384
(dp912
sg386
Nsg25
g27
sg387
(lp913
I52
aI34
asg389
Nsg390
VTamid 26b:34
p914
sg392
(lp915
sg394
g61
sg395
Nsg396
(lp916
I52
aI34
asg398
Nsg399
g914
sg400
(lp917
sg402
g363
sg403
Nsg404
Nsg405
Nsbag3
(g4
g5
NtRp918
(dp919
g8
g10
sg383
Nsg384
(dp920
sg386
Nsg25
g27
sg387
(lp921
I52
aI35
asg389
Nsg390
VTamid 26b:35
p922
sg392
(lp923
sg394
g61
sg395
Nsg396
(lp924
I52
aI35
asg398
Nsg399
g922
sg400
(lp925
sg402
g363
sg403
Nsg404
Nsg405
Nsbag3
(g4
g5
NtRp926
(dp927
g8
g10
sg383
Nsg384
(dp928
sg386
Nsg25
g27
sg387
(lp929
I52
aI36
asg389
Nsg390
VTamid 26b:36
p930
sg392
(lp931
sg394
g61
sg395
Nsg396
(lp932
I52
aI36
asg398
Nsg399
g930
sg400
(lp933
sg402
g363
sg403
Nsg404
Nsg405
Nsbag3
(g4
g5
NtRp934
(dp935
g8
g10
sg383
Nsg384
(dp936
sg386
Nsg25
g27
sg387
(lp937
I52
aI37
asg389
Nsg390
VTamid 26b:37
p938
sg392
(lp939
sg394
g61
sg395
Nsg396
(lp940
I52
aI37
asg398
Nsg399
g938
sg400
(lp941
sg402
g363
sg403
Nsg404
Nsg405
Nsbag3
(g4
g5
NtRp942
(dp943
g8
g10
sg383
Nsg384
(dp944
sg386
Nsg25
g27
sg387
(lp945
I52
aI38
asg389
Nsg390
VTamid 26b:38
p946
sg392
(lp947
sg394
g61
sg395
Nsg396
(lp948
I52
aI38
asg398
Nsg399
g946
sg400
(lp949
sg402
g363
sg403
Nsg404
Nsg405
Nsbag3
(g4
g5
NtRp950
(dp951
g8
g10
sg383
Nsg384
(dp952
sg386
Nsg25
g27
sg387
(lp953
I53
aI1
asg389
Nsg390
VTamid 27a:1
p954
sg392
(lp955
sg394
g61
sg395
Nsg396
(lp956
I53
aI1
asg398
Nsg399
g954
sg400
(lp957
sg402
g363
sg403
Nsg404
Nsg405
Nsbag3
(g4
g5
NtRp958
(dp959
g8
g10
sg383
Nsg384
(dp960
sg386
Nsg25
g27
sg387
(lp961
I53
aI2
asg389
Nsg390
VTamid 27a:2
p962
sg392
(lp963
sg394
g61
sg395
Nsg396
(lp964
I53
aI2
asg398
Nsg399
g962
sg400
(lp965
sg402
g363
sg403
Nsg404
Nsg405
Nsbag3
(g4
g5
NtRp966
(dp967
g8
g10
sg383
Nsg384
(dp968
sg386
Nsg25
g27
sg387
(lp969
I53
aI3
asg389
Nsg390
VTamid 27a:3
p970
sg392
(lp971
sg394
g61
sg395
Nsg396
(lp972
I53
aI3
asg398
Nsg399
g970
sg400
(lp973
sg402
g363
sg403
Nsg404
Nsg405
Nsbag3
(g4
g5
NtRp974
(dp975
g8
g10
sg383
Nsg384
(dp976
sg386
Nsg25
g27
sg387
(lp977
I53
aI4
asg389
Nsg390
VTamid 27a:4
p978
sg392
(lp979
sg394
g61
sg395
Nsg396
(lp980
I53
aI4
asg398
Nsg399
g978
sg400
(lp981
sg402
g363
sg403
Nsg404
Nsg405
Nsbag3
(g4
g5
NtRp982
(dp983
g8
g10
sg383
Nsg384
(dp984
sg386
Nsg25
g27
sg387
(lp985
I53
aI5
asg389
Nsg390
VTamid 27a:5
p986
sg392
(lp987
sg394
g61
sg395
Nsg396
(lp988
I53
aI5
asg398
Nsg399
g986
sg400
(lp989
sg402
g363
sg403
Nsg404
Nsg405
Nsbag3
(g4
g5
NtRp990
(dp991
g8
g10
sg383
Nsg384
(dp992
sg386
Nsg25
g27
sg387
(lp993
I53
aI6
asg389
Nsg390
VTamid 27a:6
p994
sg392
(lp995
sg394
g61
sg395
Nsg396
(lp996
I53
aI6
asg398
Nsg399
g994
sg400
(lp997
sg402
g363
sg403
Nsg404
Nsg405
Nsbag3
(g4
g5
NtRp998
(dp999
g8
g10
sg383
Nsg384
(dp1000
sg386
Nsg25
g27
sg387
(lp1001
I53
aI7
asg389
Nsg390
VTamid 27a:7
p1002
sg392
(lp1003
sg394
g61
sg395
Nsg396
(lp1004
I53
aI7
asg398
Nsg399
g1002
sg400
(lp1005
sg402
g363
sg403
Nsg404
Nsg405
Nsbag3
(g4
g5
NtRp1006
(dp1007
g8
g10
sg383
Nsg384
(dp1008
sg386
Nsg25
g27
sg387
(lp1009
I53
aI8
asg389
Nsg390
VTamid 27a:8
p1010
sg392
(lp1011
sg394
g61
sg395
Nsg396
(lp1012
I53
aI8
asg398
Nsg399
g1010
sg400
(lp1013
sg402
g363
sg403
Nsg404
Nsg405
Nsbag3
(g4
g5
NtRp1014
(dp1015
g8
g10
sg383
Nsg384
(dp1016
sg386
Nsg25
g27
sg387
(lp1017
I53
aI9
asg389
Nsg390
VTamid 27a:9
p1018
sg392
(lp1019
sg394
g61
sg395
Nsg396
(lp1020
I53
aI9
asg398
Nsg399
g1018
sg400
(lp1021
sg402
g363
sg403
Nsg404
Nsg405
Nsbag3
(g4
g5
NtRp1022
(dp1023
g8
g10
sg383
Nsg384
(dp1024
sg386
Nsg25
g27
sg387
(lp1025
I53
aI10
asg389
Nsg390
VTamid 27a:10
p1026
sg392
(lp1027
sg394
g61
sg395
Nsg396
(lp1028
I53
aI10
asg398
Nsg399
g1026
sg400
(lp1029
sg402
g363
sg403
Nsg404
Nsg405
Nsbag3
(g4
g5
NtRp1030
(dp1031
g8
g10
sg383
Nsg384
(dp1032
sg386
Nsg25
g27
sg387
(lp1033
I53
aI11
asg389
Nsg390
VTamid 27a:11
p1034
sg392
(lp1035
sg394
g61
sg395
Nsg396
(lp1036
I53
aI11
asg398
Nsg399
g1034
sg400
(lp1037
sg402
g363
sg403
Nsg404
Nsg405
Nsbag3
(g4
g5
NtRp1038
(dp1039
g8
g10
sg383
Nsg384
(dp1040
sg386
Nsg25
g27
sg387
(lp1041
I53
aI12
asg389
Nsg390
VTamid 27a:12
p1042
sg392
(lp1043
sg394
g61
sg395
Nsg396
(lp1044
I53
aI12
asg398
Nsg399
g1042
sg400
(lp1045
sg402
g363
sg403
Nsg404
Nsg405
Nsbag3
(g4
g5
NtRp1046
(dp1047
g8
g10
sg383
Nsg384
(dp1048
sg386
Nsg25
g27
sg387
(lp1049
I53
aI13
asg389
Nsg390
VTamid 27a:13
p1050
sg392
(lp1051
sg394
g61
sg395
Nsg396
(lp1052
I53
aI13
asg398
Nsg399
g1050
sg400
(lp1053
sg402
g363
sg403
Nsg404
Nsg405
Nsbag3
(g4
g5
NtRp1054
(dp1055
g8
g10
sg383
Nsg384
(dp1056
sg386
Nsg25
g27
sg387
(lp1057
I53
aI14
asg389
Nsg390
VTamid 27a:14
p1058
sg392
(lp1059
sg394
g61
sg395
Nsg396
(lp1060
I53
aI14
asg398
Nsg399
g1058
sg400
(lp1061
sg402
g363
sg403
Nsg404
Nsg405
Nsbag3
(g4
g5
NtRp1062
(dp1063
g8
g10
sg383
Nsg384
(dp1064
sg386
Nsg25
g27
sg387
(lp1065
I53
aI15
asg389
Nsg390
VTamid 27a:15
p1066
sg392
(lp1067
sg394
g61
sg395
Nsg396
(lp1068
I53
aI15
asg398
Nsg399
g1066
sg400
(lp1069
sg402
g363
sg403
Nsg404
Nsg405
Nsbag3
(g4
g5
NtRp1070
(dp1071
g8
g10
sg383
Nsg384
(dp1072
sg386
Nsg25
g27
sg387
(lp1073
I53
aI16
asg389
Nsg390
VTamid 27a:16
p1074
sg392
(lp1075
sg394
g61
sg395
Nsg396
(lp1076
I53
aI16
asg398
Nsg399
g1074
sg400
(lp1077
sg402
g363
sg403
Nsg404
Nsg405
Nsbag3
(g4
g5
NtRp1078
(dp1079
g8
g10
sg383
Nsg384
(dp1080
sg386
Nsg25
g27
sg387
(lp1081
I53
aI17
asg389
Nsg390
VTamid 27a:17
p1082
sg392
(lp1083
sg394
g61
sg395
Nsg396
(lp1084
I53
aI17
asg398
Nsg399
g1082
sg400
(lp1085
sg402
g363
sg403
Nsg404
Nsg405
Nsbag3
(g4
g5
NtRp1086
(dp1087
g8
g10
sg383
Nsg384
(dp1088
sg386
Nsg25
g27
sg387
(lp1089
I53
aI18
asg389
Nsg390
VTamid 27a:18
p1090
sg392
(lp1091
sg394
g61
sg395
Nsg396
(lp1092
I53
aI18
asg398
Nsg399
g1090
sg400
(lp1093
sg402
g363
sg403
Nsg404
Nsg405
Nsbag3
(g4
g5
NtRp1094
(dp1095
g8
g10
sg383
Nsg384
(dp1096
sg386
Nsg25
g27
sg387
(lp1097
I53
aI19
asg389
Nsg390
VTamid 27a:19
p1098
sg392
(lp1099
sg394
g61
sg395
Nsg396
(lp1100
I53
aI19
asg398
Nsg399
g1098
sg400
(lp1101
sg402
g363
sg403
Nsg404
Nsg405
Nsbag3
(g4
g5
NtRp1102
(dp1103
g8
g10
sg383
Nsg384
(dp1104
sg386
Nsg25
g27
sg387
(lp1105
I53
aI20
asg389
Nsg390
VTamid 27a:20
p1106
sg392
(lp1107
sg394
g61
sg395
Nsg396
(lp1108
I53
aI20
asg398
Nsg399
g1106
sg400
(lp1109
sg402
g363
sg403
Nsg404
Nsg405
Nsbag3
(g4
g5
NtRp1110
(dp1111
g8
g10
sg383
Nsg384
(dp1112
sg386
Nsg25
g27
sg387
(lp1113
I53
aI21
asg389
Nsg390
VTamid 27a:21
p1114
sg392
(lp1115
sg394
g61
sg395
Nsg396
(lp1116
I53
aI21
asg398
Nsg399
g1114
sg400
(lp1117
sg402
g363
sg403
Nsg404
Nsg405
Nsbag3
(g4
g5
NtRp1118
(dp1119
g8
g10
sg383
Nsg384
(dp1120
sg386
Nsg25
g27
sg387
(lp1121
I53
aI22
asg389
Nsg390
VTamid 27a:22
p1122
sg392
(lp1123
sg394
g61
sg395
Nsg396
(lp1124
I53
aI22
asg398
Nsg399
g1122
sg400
(lp1125
sg402
g363
sg403
Nsg404
Nsg405
Nsbag3
(g4
g5
NtRp1126
(dp1127
g8
g10
sg383
Nsg384
(dp1128
sg386
Nsg25
g27
sg387
(lp1129
I53
aI23
asg389
Nsg390
VTamid 27a:23
p1130
sg392
(lp1131
sg394
g61
sg395
Nsg396
(lp1132
I53
aI23
asg398
Nsg399
g1130
sg400
(lp1133
sg402
g363
sg403
Nsg404
Nsg405
Nsbag3
(g4
g5
NtRp1134
(dp1135
g8
g10
sg383
Nsg384
(dp1136
sg386
Nsg25
g27
sg387
(lp1137
I53
aI24
asg389
Nsg390
VTamid 27a:24
p1138
sg392
(lp1139
sg394
g61
sg395
Nsg396
(lp1140
I53
aI24
asg398
Nsg399
g1138
sg400
(lp1141
sg402
g363
sg403
Nsg404
Nsg405
Nsbag3
(g4
g5
NtRp1142
(dp1143
g8
g10
sg383
Nsg384
(dp1144
sg386
Nsg25
g27
sg387
(lp1145
I53
aI25
asg389
Nsg390
VTamid 27a:25
p1146
sg392
(lp1147
sg394
g61
sg395
Nsg396
(lp1148
I53
aI25
asg398
Nsg399
g1146
sg400
(lp1149
sg402
g363
sg403
Nsg404
Nsg405
Nsbag3
(g4
g5
NtRp1150
(dp1151
g8
g10
sg383
Nsg384
(dp1152
sg386
Nsg25
g27
sg387
(lp1153
I53
aI26
asg389
Nsg390
VTamid 27a:26
p1154
sg392
(lp1155
sg394
g61
sg395
Nsg396
(lp1156
I53
aI26
asg398
Nsg399
g1154
sg400
(lp1157
sg402
g363
sg403
Nsg404
Nsg405
Nsbag3
(g4
g5
NtRp1158
(dp1159
g8
g10
sg383
Nsg384
(dp1160
sg386
Nsg25
g27
sg387
(lp1161
I53
aI27
asg389
Nsg390
VTamid 27a:27
p1162
sg392
(lp1163
sg394
g61
sg395
Nsg396
(lp1164
I53
aI27
asg398
Nsg399
g1162
sg400
(lp1165
sg402
g363
sg403
Nsg404
Nsg405
Nsbag3
(g4
g5
NtRp1166
(dp1167
g8
g10
sg383
Nsg384
(dp1168
sg386
Nsg25
g27
sg387
(lp1169
I53
aI28
asg389
Nsg390
VTamid 27a:28
p1170
sg392
(lp1171
sg394
g61
sg395
Nsg396
(lp1172
I53
aI28
asg398
Nsg399
g1170
sg400
(lp1173
sg402
g363
sg403
Nsg404
Nsg405
Nsbag3
(g4
g5
NtRp1174
(dp1175
g8
g10
sg383
Nsg384
(dp1176
sg386
Nsg25
g27
sg387
(lp1177
I53
aI29
asg389
Nsg390
VTamid 27a:29
p1178
sg392
(lp1179
sg394
g61
sg395
Nsg396
(lp1180
I53
aI29
asg398
Nsg399
g1178
sg400
(lp1181
sg402
g363
sg403
Nsg404
Nsg405
Nsbag3
(g4
g5
NtRp1182
(dp1183
g8
g10
sg383
Nsg384
(dp1184
sg386
Nsg25
g27
sg387
(lp1185
I53
aI30
asg389
Nsg390
VTamid 27a:30
p1186
sg392
(lp1187
sg394
g61
sg395
Nsg396
(lp1188
I53
aI30
asg398
Nsg399
g1186
sg400
(lp1189
sg402
g363
sg403
Nsg404
Nsg405
Nsbag3
(g4
g5
NtRp1190
(dp1191
g8
g10
sg383
Nsg384
(dp1192
sg386
Nsg25
g27
sg387
(lp1193
I53
aI31
asg389
Nsg390
VTamid 27a:31
p1194
sg392
(lp1195
sg394
g61
sg395
Nsg396
(lp1196
I53
aI31
asg398
Nsg399
g1194
sg400
(lp1197
sg402
g363
sg403
Nsg404
Nsg405
Nsbag3
(g4
g5
NtRp1198
(dp1199
g8
g10
sg383
Nsg384
(dp1200
sg386
Nsg25
g27
sg387
(lp1201
I53
aI32
asg389
Nsg390
VTamid 27a:32
p1202
sg392
(lp1203
sg394
g61
sg395
Nsg396
(lp1204
I53
aI32
asg398
Nsg399
g1202
sg400
(lp1205
sg402
g363
sg403
Nsg404
Nsg405
Nsbag3
(g4
g5
NtRp1206
(dp1207
g8
g10
sg383
Nsg384
(dp1208
sg386
Nsg25
g27
sg387
(lp1209
I53
aI33
asg389
Nsg390
VTamid 27a:33
p1210
sg392
(lp1211
sg394
g61
sg395
Nsg396
(lp1212
I53
aI33
asg398
Nsg399
g1210
sg400
(lp1213
sg402
g363
sg403
Nsg404
Nsg405
Nsbag3
(g4
g5
NtRp1214
(dp1215
g8
g10
sg383
Nsg384
(dp1216
sg386
Nsg25
g27
sg387
(lp1217
I53
aI34
asg389
Nsg390
VTamid 27a:34
p1218
sg392
(lp1219
sg394
g61
sg395
Nsg396
(lp1220
I53
aI34
asg398
Nsg399
g1218
sg400
(lp1221
sg402
g363
sg403
Nsg404
Nsg405
Nsbag3
(g4
g5
NtRp1222
(dp1223
g8
g10
sg383
Nsg384
(dp1224
sg386
Nsg25
g27
sg387
(lp1225
I53
aI35
asg389
Nsg390
VTamid 27a:35
p1226
sg392
(lp1227
sg394
g61
sg395
Nsg396
(lp1228
I53
aI35
asg398
Nsg399
g1226
sg400
(lp1229
sg402
g363
sg403
Nsg404
Nsg405
Nsbag3
(g4
g5
NtRp1230
(dp1231
g8
g10
sg383
Nsg384
(dp1232
sg386
Nsg25
g27
sg387
(lp1233
I53
aI36
asg389
Nsg390
VTamid 27a:36
p1234
sg392
(lp1235
sg394
g61
sg395
Nsg396
(lp1236
I53
aI36
asg398
Nsg399
g1234
sg400
(lp1237
sg402
g363
sg403
Nsg404
Nsg405
Nsbag3
(g4
g5
NtRp1238
(dp1239
g8
g10
sg383
Nsg384
(dp1240
sg386
Nsg25
g27
sg387
(lp1241
I53
aI37
asg389
Nsg390
VTamid 27a:37
p1242
sg392
(lp1243
sg394
g61
sg395
Nsg396
(lp1244
I53
aI37
asg398
Nsg399
g1242
sg400
(lp1245
sg402
g363
sg403
Nsg404
Nsg405
Nsbag3
(g4
g5
NtRp1246
(dp1247
g8
g10
sg383
Nsg384
(dp1248
sg386
Nsg25
g27
sg387
(lp1249
I53
aI38
asg389
Nsg390
VTamid 27a:38
p1250
sg392
(lp1251
sg394
g61
sg395
Nsg396
(lp1252
I53
aI38
asg398
Nsg399
g1250
sg400
(lp1253
sg402
g363
sg403
Nsg404
Nsg405
Nsbag3
(g4
g5
NtRp1254
(dp1255
g8
g10
sg383
Nsg384
(dp1256
sg386
Nsg25
g27
sg387
(lp1257
I53
aI39
asg389
Nsg390
VTamid 27a:39
p1258
sg392
(lp1259
sg394
g61
sg395
Nsg396
(lp1260
I53
aI39
asg398
Nsg399
g1258
sg400
(lp1261
sg402
g363
sg403
Nsg404
Nsg405
Nsbag3
(g4
g5
NtRp1262
(dp1263
g8
g10
sg383
Nsg384
(dp1264
sg386
Nsg25
g27
sg387
(lp1265
I53
aI40
asg389
Nsg390
VTamid 27a:40
p1266
sg392
(lp1267
sg394
g61
sg395
Nsg396
(lp1268
I53
aI40
asg398
Nsg399
g1266
sg400
(lp1269
sg402
g363
sg403
Nsg404
Nsg405
Nsbag3
(g4
g5
NtRp1270
(dp1271
g8
g10
sg383
Nsg384
(dp1272
sg386
Nsg25
g27
sg387
(lp1273
I53
aI41
asg389
Nsg390
VTamid 27a:41
p1274
sg392
(lp1275
sg394
g61
sg395
Nsg396
(lp1276
I53
aI41
asg398
Nsg399
g1274
sg400
(lp1277
sg402
g363
sg403
Nsg404
Nsg405
Nsbag3
(g4
g5
NtRp1278
(dp1279
g8
g10
sg383
Nsg384
(dp1280
sg386
Nsg25
g27
sg387
(lp1281
I53
aI42
asg389
Nsg390
VTamid 27a:42
p1282
sg392
(lp1283
sg394
g61
sg395
Nsg396
(lp1284
I53
aI42
asg398
Nsg399
g1282
sg400
(lp1285
sg402
g363
sg403
Nsg404
Nsg405
Nsbag3
(g4
g5
NtRp1286
(dp1287
g8
g10
sg383
Nsg384
(dp1288
sg386
Nsg25
g27
sg387
(lp1289
I53
aI43
asg389
Nsg390
VTamid 27a:43
p1290
sg392
(lp1291
sg394
g61
sg395
Nsg396
(lp1292
I53
aI43
asg398
Nsg399
g1290
sg400
(lp1293
sg402
g363
sg403
Nsg404
Nsg405
Nsbag3
(g4
g5
NtRp1294
(dp1295
g8
g10
sg383
Nsg384
(dp1296
sg386
Nsg25
g27
sg387
(lp1297
I53
aI44
asg389
Nsg390
VTamid 27a:44
p1298
sg392
(lp1299
sg394
g61
sg395
Nsg396
(lp1300
I53
aI44
asg398
Nsg399
g1298
sg400
(lp1301
sg402
g363
sg403
Nsg404
Nsg405
Nsbag3
(g4
g5
NtRp1302
(dp1303
g8
g10
sg383
Nsg384
(dp1304
sg386
Nsg25
g27
sg387
(lp1305
I53
aI45
asg389
Nsg390
VTamid 27a:45
p1306
sg392
(lp1307
sg394
g61
sg395
Nsg396
(lp1308
I53
aI45
asg398
Nsg399
g1306
sg400
(lp1309
sg402
g363
sg403
Nsg404
Nsg405
Nsbag3
(g4
g5
NtRp1310
(dp1311
g8
g10
sg383
Nsg384
(dp1312
sg386
Nsg25
g27
sg387
(lp1313
I53
aI46
asg389
Nsg390
VTamid 27a:46
p1314
sg392
(lp1315
sg394
g61
sg395
Nsg396
(lp1316
I53
aI46
asg398
Nsg399
g1314
sg400
(lp1317
sg402
g363
sg403
Nsg404
Nsg405
Nsbag3
(g4
g5
NtRp1318
(dp1319
g8
g10
sg383
Nsg384
(dp1320
sg386
Nsg25
g27
sg387
(lp1321
I53
aI47
asg389
Nsg390
VTamid 27a:47
p1322
sg392
(lp1323
sg394
g61
sg395
Nsg396
(lp1324
I53
aI47
asg398
Nsg399
g1322
sg400
(lp1325
sg402
g363
sg403
Nsg404
Nsg405
Nsbag3
(g4
g5
NtRp1326
(dp1327
g8
g10
sg383
Nsg384
(dp1328
sg386
Nsg25
g27
sg387
(lp1329
I53
aI48
asg389
Nsg390
VTamid 27a:48
p1330
sg392
(lp1331
sg394
g61
sg395
Nsg396
(lp1332
I53
aI48
asg398
Nsg399
g1330
sg400
(lp1333
sg402
g363
sg403
Nsg404
Nsg405
Nsbag3
(g4
g5
NtRp1334
(dp1335
g8
g10
sg383
Nsg384
(dp1336
sg386
Nsg25
g27
sg387
(lp1337
I53
aI49
asg389
Nsg390
VTamid 27a:49
p1338
sg392
(lp1339
sg394
g61
sg395
Nsg396
(lp1340
I53
aI49
asg398
Nsg399
g1338
sg400
(lp1341
sg402
g363
sg403
Nsg404
Nsg405
Nsbag3
(g4
g5
NtRp1342
(dp1343
g8
g10
sg383
Nsg384
(dp1344
sg386
Nsg25
g27
sg387
(lp1345
I53
aI50
asg389
Nsg390
VTamid 27a:50
p1346
sg392
(lp1347
sg394
g61
sg395
Nsg396
(lp1348
I53
aI50
asg398
Nsg399
g1346
sg400
(lp1349
sg402
g363
sg403
Nsg404
Nsg405
Nsbag3
(g4
g5
NtRp1350
(dp1351
g8
g10
sg383
Nsg384
(dp1352
sg386
Nsg25
g27
sg387
(lp1353
I53
aI51
asg389
Nsg390
VTamid 27a:51
p1354
sg392
(lp1355
sg394
g61
sg395
Nsg396
(lp1356
I53
aI51
asg398
Nsg399
g1354
sg400
(lp1357
sg402
g363
sg403
Nsg404
Nsg405
Nsbag3
(g4
g5
NtRp1358
(dp1359
g8
g10
sg383
Nsg384
(dp1360
sg386
Nsg25
g27
sg387
(lp1361
I53
aI52
asg389
Nsg390
VTamid 27a:52
p1362
sg392
(lp1363
sg394
g61
sg395
Nsg396
(lp1364
I53
aI52
asg398
Nsg399
g1362
sg400
(lp1365
sg402
g363
sg403
Nsg404
Nsg405
Nsbag3
(g4
g5
NtRp1366
(dp1367
g8
g10
sg383
Nsg384
(dp1368
sg386
Nsg25
g27
sg387
(lp1369
I53
aI53
asg389
Nsg390
VTamid 27a:53
p1370
sg392
(lp1371
sg394
g61
sg395
Nsg396
(lp1372
I53
aI53
asg398
Nsg399
g1370
sg400
(lp1373
sg402
g363
sg403
Nsg404
Nsg405
Nsbag3
(g4
g5
NtRp1374
(dp1375
g8
g10
sg383
Nsg384
(dp1376
sg386
Nsg25
g27
sg387
(lp1377
I54
aI1
asg389
Nsg390
VTamid 27b:1
p1378
sg392
(lp1379
sg394
g61
sg395
Nsg396
(lp1380
I54
aI1
asg398
Nsg399
g1378
sg400
(lp1381
sg402
g363
sg403
Nsg404
Nsg405
Nsbag3
(g4
g5
NtRp1382
(dp1383
g8
g10
sg383
Nsg384
(dp1384
sg386
Nsg25
g27
sg387
(lp1385
I54
aI2
asg389
Nsg390
VTamid 27b:2
p1386
sg392
(lp1387
sg394
g61
sg395
Nsg396
(lp1388
I54
aI2
asg398
Nsg399
g1386
sg400
(lp1389
sg402
g363
sg403
Nsg404
Nsg405
Nsbag3
(g4
g5
NtRp1390
(dp1391
g8
g10
sg383
Nsg384
(dp1392
sg386
Nsg25
g27
sg387
(lp1393
I54
aI3
asg389
Nsg390
VTamid 27b:3
p1394
sg392
(lp1395
sg394
g61
sg395
Nsg396
(lp1396
I54
aI3
asg398
Nsg399
g1394
sg400
(lp1397
sg402
g363
sg403
Nsg404
Nsg405
Nsbag3
(g4
g5
NtRp1398
(dp1399
g8
g10
sg383
Nsg384
(dp1400
sg386
Nsg25
g27
sg387
(lp1401
I54
aI4
asg389
Nsg390
VTamid 27b:4
p1402
sg392
(lp1403
sg394
g61
sg395
Nsg396
(lp1404
I54
aI4
asg398
Nsg399
g1402
sg400
(lp1405
sg402
g363
sg403
Nsg404
Nsg405
Nsbag3
(g4
g5
NtRp1406
(dp1407
g8
g10
sg383
Nsg384
(dp1408
sg386
Nsg25
g27
sg387
(lp1409
I54
aI5
asg389
Nsg390
VTamid 27b:5
p1410
sg392
(lp1411
sg394
g61
sg395
Nsg396
(lp1412
I54
aI5
asg398
Nsg399
g1410
sg400
(lp1413
sg402
g363
sg403
Nsg404
Nsg405
Nsbag3
(g4
g5
NtRp1414
(dp1415
g8
g10
sg383
Nsg384
(dp1416
sg386
Nsg25
g27
sg387
(lp1417
I54
aI6
asg389
Nsg390
VTamid 27b:6
p1418
sg392
(lp1419
sg394
g61
sg395
Nsg396
(lp1420
I54
aI6
asg398
Nsg399
g1418
sg400
(lp1421
sg402
g363
sg403
Nsg404
Nsg405
Nsbag3
(g4
g5
NtRp1422
(dp1423
g8
g10
sg383
Nsg384
(dp1424
sg386
Nsg25
g27
sg387
(lp1425
I54
aI7
asg389
Nsg390
VTamid 27b:7
p1426
sg392
(lp1427
sg394
g61
sg395
Nsg396
(lp1428
I54
aI7
asg398
Nsg399
g1426
sg400
(lp1429
sg402
g363
sg403
Nsg404
Nsg405
Nsbag3
(g4
g5
NtRp1430
(dp1431
g8
g10
sg383
Nsg384
(dp1432
sg386
Nsg25
g27
sg387
(lp1433
I54
aI8
asg389
Nsg390
VTamid 27b:8
p1434
sg392
(lp1435
sg394
g61
sg395
Nsg396
(lp1436
I54
aI8
asg398
Nsg399
g1434
sg400
(lp1437
sg402
g363
sg403
Nsg404
Nsg405
Nsbag3
(g4
g5
NtRp1438
(dp1439
g8
g10
sg383
Nsg384
(dp1440
sg386
Nsg25
g27
sg387
(lp1441
I54
aI9
asg389
Nsg390
VTamid 27b:9
p1442
sg392
(lp1443
sg394
g61
sg395
Nsg396
(lp1444
I54
aI9
asg398
Nsg399
g1442
sg400
(lp1445
sg402
g363
sg403
Nsg404
Nsg405
Nsbag3
(g4
g5
NtRp1446
(dp1447
g8
g10
sg383
Nsg384
(dp1448
sg386
Nsg25
g27
sg387
(lp1449
I54
aI10
asg389
Nsg390
VTamid 27b:10
p1450
sg392
(lp1451
sg394
g61
sg395
Nsg396
(lp1452
I54
aI10
asg398
Nsg399
g1450
sg400
(lp1453
sg402
g363
sg403
Nsg404
Nsg405
Nsbag3
(g4
g5
NtRp1454
(dp1455
g8
g10
sg383
Nsg384
(dp1456
sg386
Nsg25
g27
sg387
(lp1457
I54
aI11
asg389
Nsg390
VTamid 27b:11
p1458
sg392
(lp1459
sg394
g61
sg395
Nsg396
(lp1460
I54
aI11
asg398
Nsg399
g1458
sg400
(lp1461
sg402
g363
sg403
Nsg404
Nsg405
Nsbag3
(g4
g5
NtRp1462
(dp1463
g8
g10
sg383
Nsg384
(dp1464
sg386
Nsg25
g27
sg387
(lp1465
I54
aI12
asg389
Nsg390
VTamid 27b:12
p1466
sg392
(lp1467
sg394
g61
sg395
Nsg396
(lp1468
I54
aI12
asg398
Nsg399
g1466
sg400
(lp1469
sg402
g363
sg403
Nsg404
Nsg405
Nsbag3
(g4
g5
NtRp1470
(dp1471
g8
g10
sg383
Nsg384
(dp1472
sg386
Nsg25
g27
sg387
(lp1473
I54
aI13
asg389
Nsg390
VTamid 27b:13
p1474
sg392
(lp1475
sg394
g61
sg395
Nsg396
(lp1476
I54
aI13
asg398
Nsg399
g1474
sg400
(lp1477
sg402
g363
sg403
Nsg404
Nsg405
Nsbag3
(g4
g5
NtRp1478
(dp1479
g8
g10
sg383
Nsg384
(dp1480
sg386
Nsg25
g27
sg387
(lp1481
I54
aI14
asg389
Nsg390
VTamid 27b:14
p1482
sg392
(lp1483
sg394
g61
sg395
Nsg396
(lp1484
I54
aI14
asg398
Nsg399
g1482
sg400
(lp1485
sg402
g363
sg403
Nsg404
Nsg405
Nsbag3
(g4
g5
NtRp1486
(dp1487
g8
g10
sg383
Nsg384
(dp1488
sg386
Nsg25
g27
sg387
(lp1489
I54
aI15
asg389
Nsg390
VTamid 27b:15
p1490
sg392
(lp1491
sg394
g61
sg395
Nsg396
(lp1492
I54
aI15
asg398
Nsg399
g1490
sg400
(lp1493
sg402
g363
sg403
Nsg404
Nsg405
Nsbag3
(g4
g5
NtRp1494
(dp1495
g8
g10
sg383
Nsg384
(dp1496
sg386
Nsg25
g27
sg387
(lp1497
I54
aI16
asg389
Nsg390
VTamid 27b:16
p1498
sg392
(lp1499
sg394
g61
sg395
Nsg396
(lp1500
I54
aI16
asg398
Nsg399
g1498
sg400
(lp1501
sg402
g363
sg403
Nsg404
Nsg405
Nsbag3
(g4
g5
NtRp1502
(dp1503
g8
g10
sg383
Nsg384
(dp1504
sg386
Nsg25
g27
sg387
(lp1505
I54
aI17
asg389
Nsg390
VTamid 27b:17
p1506
sg392
(lp1507
sg394
g61
sg395
Nsg396
(lp1508
I54
aI17
asg398
Nsg399
g1506
sg400
(lp1509
sg402
g363
sg403
Nsg404
Nsg405
Nsbag3
(g4
g5
NtRp1510
(dp1511
g8
g10
sg383
Nsg384
(dp1512
sg386
Nsg25
g27
sg387
(lp1513
I54
aI18
asg389
Nsg390
VTamid 27b:18
p1514
sg392
(lp1515
sg394
g61
sg395
Nsg396
(lp1516
I54
aI18
asg398
Nsg399
g1514
sg400
(lp1517
sg402
g363
sg403
Nsg404
Nsg405
Nsbag3
(g4
g5
NtRp1518
(dp1519
g8
g10
sg383
Nsg384
(dp1520
sg386
Nsg25
g27
sg387
(lp1521
I54
aI19
asg389
Nsg390
VTamid 27b:19
p1522
sg392
(lp1523
sg394
g61
sg395
Nsg396
(lp1524
I54
aI19
asg398
Nsg399
g1522
sg400
(lp1525
sg402
g363
sg403
Nsg404
Nsg405
Nsbag3
(g4
g5
NtRp1526
(dp1527
g8
g10
sg383
Nsg384
(dp1528
sg386
Nsg25
g27
sg387
(lp1529
I54
aI20
asg389
Nsg390
VTamid 27b:20
p1530
sg392
(lp1531
sg394
g61
sg395
Nsg396
(lp1532
I54
aI20
asg398
Nsg399
g1530
sg400
(lp1533
sg402
g363
sg403
Nsg404
Nsg405
Nsbag3
(g4
g5
NtRp1534
(dp1535
g8
g10
sg383
Nsg384
(dp1536
sg386
Nsg25
g27
sg387
(lp1537
I54
aI21
asg389
Nsg390
VTamid 27b:21
p1538
sg392
(lp1539
sg394
g61
sg395
Nsg396
(lp1540
I54
aI21
asg398
Nsg399
g1538
sg400
(lp1541
sg402
g363
sg403
Nsg404
Nsg405
Nsbag3
(g4
g5
NtRp1542
(dp1543
g8
g10
sg383
Nsg384
(dp1544
sg386
Nsg25
g27
sg387
(lp1545
I54
aI22
asg389
Nsg390
VTamid 27b:22
p1546
sg392
(lp1547
sg394
g61
sg395
Nsg396
(lp1548
I54
aI22
asg398
Nsg399
g1546
sg400
(lp1549
sg402
g363
sg403
Nsg404
Nsg405
Nsbag3
(g4
g5
NtRp1550
(dp1551
g8
g10
sg383
Nsg384
(dp1552
sg386
Nsg25
g27
sg387
(lp1553
I54
aI23
asg389
Nsg390
VTamid 27b:23
p1554
sg392
(lp1555
sg394
g61
sg395
Nsg396
(lp1556
I54
aI23
asg398
Nsg399
g1554
sg400
(lp1557
sg402
g363
sg403
Nsg404
Nsg405
Nsbag3
(g4
g5
NtRp1558
(dp1559
g8
g10
sg383
Nsg384
(dp1560
sg386
Nsg25
g27
sg387
(lp1561
I54
aI24
asg389
Nsg390
VTamid 27b:24
p1562
sg392
(lp1563
sg394
g61
sg395
Nsg396
(lp1564
I54
aI24
asg398
Nsg399
g1562
sg400
(lp1565
sg402
g363
sg403
Nsg404
Nsg405
Nsbag3
(g4
g5
NtRp1566
(dp1567
g8
g10
sg383
Nsg384
(dp1568
sg386
Nsg25
g27
sg387
(lp1569
I54
aI25
asg389
Nsg390
VTamid 27b:25
p1570
sg392
(lp1571
sg394
g61
sg395
Nsg396
(lp1572
I54
aI25
asg398
Nsg399
g1570
sg400
(lp1573
sg402
g363
sg403
Nsg404
Nsg405
Nsbag3
(g4
g5
NtRp1574
(dp1575
g8
g10
sg383
Nsg384
(dp1576
sg386
Nsg25
g27
sg387
(lp1577
I54
aI26
asg389
Nsg390
VTamid 27b:26
p1578
sg392
(lp1579
sg394
g61
sg395
Nsg396
(lp1580
I54
aI26
asg398
Nsg399
g1578
sg400
(lp1581
sg402
g363
sg403
Nsg404
Nsg405
Nsbag3
(g4
g5
NtRp1582
(dp1583
g8
g10
sg383
Nsg384
(dp1584
sg386
Nsg25
g27
sg387
(lp1585
I54
aI27
asg389
Nsg390
VTamid 27b:27
p1586
sg392
(lp1587
sg394
g61
sg395
Nsg396
(lp1588
I54
aI27
asg398
Nsg399
g1586
sg400
(lp1589
sg402
g363
sg403
Nsg404
Nsg405
Nsbag3
(g4
g5
NtRp1590
(dp1591
g8
g10
sg383
Nsg384
(dp1592
sg386
Nsg25
g27
sg387
(lp1593
I54
aI28
asg389
Nsg390
VTamid 27b:28
p1594
sg392
(lp1595
sg394
g61
sg395
Nsg396
(lp1596
I54
aI28
asg398
Nsg399
g1594
sg400
(lp1597
sg402
g363
sg403
Nsg404
Nsg405
Nsbag3
(g4
g5
NtRp1598
(dp1599
g8
g10
sg383
Nsg384
(dp1600
sg386
Nsg25
g27
sg387
(lp1601
I54
aI29
asg389
Nsg390
VTamid 27b:29
p1602
sg392
(lp1603
sg394
g61
sg395
Nsg396
(lp1604
I54
aI29
asg398
Nsg399
g1602
sg400
(lp1605
sg402
g363
sg403
Nsg404
Nsg405
Nsbag3
(g4
g5
NtRp1606
(dp1607
g8
g10
sg383
Nsg384
(dp1608
sg386
Nsg25
g27
sg387
(lp1609
I54
aI30
asg389
Nsg390
VTamid 27b:30
p1610
sg392
(lp1611
sg394
g61
sg395
Nsg396
(lp1612
I54
aI30
asg398
Nsg399
g1610
sg400
(lp1613
sg402
g363
sg403
Nsg404
Nsg405
Nsbag3
(g4
g5
NtRp1614
(dp1615
g8
g10
sg383
Nsg384
(dp1616
sg386
Nsg25
g27
sg387
(lp1617
I54
aI31
asg389
Nsg390
VTamid 27b:31
p1618
sg392
(lp1619
sg394
g61
sg395
Nsg396
(lp1620
I54
aI31
asg398
Nsg399
g1618
sg400
(lp1621
sg402
g363
sg403
Nsg404
Nsg405
Nsbag3
(g4
g5
NtRp1622
(dp1623
g8
g10
sg383
Nsg384
(dp1624
sg386
Nsg25
g27
sg387
(lp1625
I54
aI32
asg389
Nsg390
VTamid 27b:32
p1626
sg392
(lp1627
sg394
g61
sg395
Nsg396
(lp1628
I54
aI32
asg398
Nsg399
g1626
sg400
(lp1629
sg402
g363
sg403
Nsg404
Nsg405
Nsbag3
(g4
g5
NtRp1630
(dp1631
g8
g10
sg383
Nsg384
(dp1632
sg386
Nsg25
g27
sg387
(lp1633
I54
aI33
asg389
Nsg390
VTamid 27b:33
p1634
sg392
(lp1635
sg394
g61
sg395
Nsg396
(lp1636
I54
aI33
asg398
Nsg399
g1634
sg400
(lp1637
sg402
g363
sg403
Nsg404
Nsg405
Nsbag3
(g4
g5
NtRp1638
(dp1639
g8
g10
sg383
Nsg384
(dp1640
sg386
Nsg25
g27
sg387
(lp1641
I54
aI34
asg389
Nsg390
VTamid 27b:34
p1642
sg392
(lp1643
sg394
g61
sg395
Nsg396
(lp1644
I54
aI34
asg398
Nsg399
g1642
sg400
(lp1645
sg402
g363
sg403
Nsg404
Nsg405
Nsbag3
(g4
g5
NtRp1646
(dp1647
g8
g10
sg383
Nsg384
(dp1648
sg386
Nsg25
g27
sg387
(lp1649
I54
aI35
asg389
Nsg390
VTamid 27b:35
p1650
sg392
(lp1651
sg394
g61
sg395
Nsg396
(lp1652
I54
aI35
asg398
Nsg399
g1650
sg400
(lp1653
sg402
g363
sg403
Nsg404
Nsg405
Nsbag3
(g4
g5
NtRp1654
(dp1655
g8
g10
sg383
Nsg384
(dp1656
sg386
Nsg25
g27
sg387
(lp1657
I54
aI36
asg389
Nsg390
VTamid 27b:36
p1658
sg392
(lp1659
sg394
g61
sg395
Nsg396
(lp1660
I54
aI36
asg398
Nsg399
g1658
sg400
(lp1661
sg402
g363
sg403
Nsg404
Nsg405
Nsbag3
(g4
g5
NtRp1662
(dp1663
g8
g10
sg383
Nsg384
(dp1664
sg386
Nsg25
g27
sg387
(lp1665
I54
aI37
asg389
Nsg390
VTamid 27b:37
p1666
sg392
(lp1667
sg394
g61
sg395
Nsg396
(lp1668
I54
aI37
asg398
Nsg399
g1666
sg400
(lp1669
sg402
g363
sg403
Nsg404
Nsg405
Nsbag3
(g4
g5
NtRp1670
(dp1671
g8
g10
sg383
Nsg384
(dp1672
sg386
Nsg25
g27
sg387
(lp1673
I54
aI38
asg389
Nsg390
VTamid 27b:38
p1674
sg392
(lp1675
sg394
g61
sg395
Nsg396
(lp1676
I54
aI38
asg398
Nsg399
g1674
sg400
(lp1677
sg402
g363
sg403
Nsg404
Nsg405
Nsbag3
(g4
g5
NtRp1678
(dp1679
g8
g10
sg383
Nsg384
(dp1680
sg386
Nsg25
g27
sg387
(lp1681
I54
aI39
asg389
Nsg390
VTamid 27b:39
p1682
sg392
(lp1683
sg394
g61
sg395
Nsg396
(lp1684
I54
aI39
asg398
Nsg399
g1682
sg400
(lp1685
sg402
g363
sg403
Nsg404
Nsg405
Nsbag3
(g4
g5
NtRp1686
(dp1687
g8
g10
sg383
Nsg384
(dp1688
sg386
Nsg25
g27
sg387
(lp1689
I54
aI40
asg389
Nsg390
VTamid 27b:40
p1690
sg392
(lp1691
sg394
g61
sg395
Nsg396
(lp1692
I54
aI40
asg398
Nsg399
g1690
sg400
(lp1693
sg402
g363
sg403
Nsg404
Nsg405
Nsbag3
(g4
g5
NtRp1694
(dp1695
g8
g10
sg383
Nsg384
(dp1696
sg386
Nsg25
g27
sg387
(lp1697
I54
aI41
asg389
Nsg390
VTamid 27b:41
p1698
sg392
(lp1699
sg394
g61
sg395
Nsg396
(lp1700
I54
aI41
asg398
Nsg399
g1698
sg400
(lp1701
sg402
g363
sg403
Nsg404
Nsg405
Nsbag3
(g4
g5
NtRp1702
(dp1703
g8
g10
sg383
Nsg384
(dp1704
sg386
Nsg25
g27
sg387
(lp1705
I54
aI42
asg389
Nsg390
VTamid 27b:42
p1706
sg392
(lp1707
sg394
g61
sg395
Nsg396
(lp1708
I54
aI42
asg398
Nsg399
g1706
sg400
(lp1709
sg402
g363
sg403
Nsg404
Nsg405
Nsbag3
(g4
g5
NtRp1710
(dp1711
g8
g10
sg383
Nsg384
(dp1712
sg386
Nsg25
g27
sg387
(lp1713
I54
aI43
asg389
Nsg390
VTamid 27b:43
p1714
sg392
(lp1715
sg394
g61
sg395
Nsg396
(lp1716
I54
aI43
asg398
Nsg399
g1714
sg400
(lp1717
sg402
g363
sg403
Nsg404
Nsg405
Nsbag3
(g4
g5
NtRp1718
(dp1719
g8
g10
sg383
Nsg384
(dp1720
sg386
Nsg25
g27
sg387
(lp1721
I54
aI44
asg389
Nsg390
VTamid 27b:44
p1722
sg392
(lp1723
sg394
g61
sg395
Nsg396
(lp1724
I54
aI44
asg398
Nsg399
g1722
sg400
(lp1725
sg402
g363
sg403
Nsg404
Nsg405
Nsbag3
(g4
g5
NtRp1726
(dp1727
g8
g10
sg383
Nsg384
(dp1728
sg386
Nsg25
g27
sg387
(lp1729
I54
aI45
asg389
Nsg390
VTamid 27b:45
p1730
sg392
(lp1731
sg394
g61
sg395
Nsg396
(lp1732
I54
aI45
asg398
Nsg399
g1730
sg400
(lp1733
sg402
g363
sg403
Nsg404
Nsg405
Nsbag3
(g4
g5
NtRp1734
(dp1735
g8
g10
sg383
Nsg384
(dp1736
sg386
Nsg25
g27
sg387
(lp1737
I54
aI46
asg389
Nsg390
VTamid 27b:46
p1738
sg392
(lp1739
sg394
g61
sg395
Nsg396
(lp1740
I54
aI46
asg398
Nsg399
g1738
sg400
(lp1741
sg402
g363
sg403
Nsg404
Nsg405
Nsbag3
(g4
g5
NtRp1742
(dp1743
g8
g10
sg383
Nsg384
(dp1744
sg386
Nsg25
g27
sg387
(lp1745
I54
aI47
asg389
Nsg390
VTamid 27b:47
p1746
sg392
(lp1747
sg394
g61
sg395
Nsg396
(lp1748
I54
aI47
asg398
Nsg399
g1746
sg400
(lp1749
sg402
g363
sg403
Nsg404
Nsg405
Nsbag3
(g4
g5
NtRp1750
(dp1751
g8
g10
sg383
Nsg384
(dp1752
sg386
Nsg25
g27
sg387
(lp1753
I54
aI48
asg389
Nsg390
VTamid 27b:48
p1754
sg392
(lp1755
sg394
g61
sg395
Nsg396
(lp1756
I54
aI48
asg398
Nsg399
g1754
sg400
(lp1757
sg402
g363
sg403
Nsg404
Nsg405
Nsbag3
(g4
g5
NtRp1758
(dp1759
g8
g10
sg383
Nsg384
(dp1760
sg386
Nsg25
g27
sg387
(lp1761
I54
aI49
asg389
Nsg390
VTamid 27b:49
p1762
sg392
(lp1763
sg394
g61
sg395
Nsg396
(lp1764
I54
aI49
asg398
Nsg399
g1762
sg400
(lp1765
sg402
g363
sg403
Nsg404
Nsg405
Nsbag3
(g4
g5
NtRp1766
(dp1767
g8
g10
sg383
Nsg384
(dp1768
sg386
Nsg25
g27
sg387
(lp1769
I54
aI50
asg389
Nsg390
VTamid 27b:50
p1770
sg392
(lp1771
sg394
g61
sg395
Nsg396
(lp1772
I54
aI50
asg398
Nsg399
g1770
sg400
(lp1773
sg402
g363
sg403
Nsg404
Nsg405
Nsbag3
(g4
g5
NtRp1774
(dp1775
g8
g10
sg383
Nsg384
(dp1776
sg386
Nsg25
g27
sg387
(lp1777
I54
aI51
asg389
Nsg390
VTamid 27b:51
p1778
sg392
(lp1779
sg394
g61
sg395
Nsg396
(lp1780
I54
aI51
asg398
Nsg399
g1778
sg400
(lp1781
sg402
g363
sg403
Nsg404
Nsg405
Nsbag3
(g4
g5
NtRp1782
(dp1783
g8
g10
sg383
Nsg384
(dp1784
sg386
Nsg25
g27
sg387
(lp1785
I55
aI1
asg389
Nsg390
VTamid 28a:1
p1786
sg392
(lp1787
sg394
g61
sg395
Nsg396
(lp1788
I55
aI1
asg398
Nsg399
g1786
sg400
(lp1789
sg402
g363
sg403
Nsg404
Nsg405
Nsbag3
(g4
g5
NtRp1790
(dp1791
g8
g10
sg383
Nsg384
(dp1792
sg386
Nsg25
g27
sg387
(lp1793
I55
aI2
asg389
Nsg390
VTamid 28a:2
p1794
sg392
(lp1795
sg394
g61
sg395
Nsg396
(lp1796
I55
aI2
asg398
Nsg399
g1794
sg400
(lp1797
sg402
g363
sg403
Nsg404
Nsg405
Nsbag3
(g4
g5
NtRp1798
(dp1799
g8
g10
sg383
Nsg384
(dp1800
sg386
Nsg25
g27
sg387
(lp1801
I55
aI3
asg389
Nsg390
VTamid 28a:3
p1802
sg392
(lp1803
sg394
g61
sg395
Nsg396
(lp1804
I55
aI3
asg398
Nsg399
g1802
sg400
(lp1805
sg402
g363
sg403
Nsg404
Nsg405
Nsbag3
(g4
g5
NtRp1806
(dp1807
g8
g10
sg383
Nsg384
(dp1808
sg386
Nsg25
g27
sg387
(lp1809
I55
aI4
asg389
Nsg390
VTamid 28a:4
p1810
sg392
(lp1811
sg394
g61
sg395
Nsg396
(lp1812
I55
aI4
asg398
Nsg399
g1810
sg400
(lp1813
sg402
g363
sg403
Nsg404
Nsg405
Nsbag3
(g4
g5
NtRp1814
(dp1815
g8
g10
sg383
Nsg384
(dp1816
sg386
Nsg25
g27
sg387
(lp1817
I55
aI5
asg389
Nsg390
VTamid 28a:5
p1818
sg392
(lp1819
sg394
g61
sg395
Nsg396
(lp1820
I55
aI5
asg398
Nsg399
g1818
sg400
(lp1821
sg402
g363
sg403
Nsg404
Nsg405
Nsbag3
(g4
g5
NtRp1822
(dp1823
g8
g10
sg383
Nsg384
(dp1824
sg386
Nsg25
g27
sg387
(lp1825
I55
aI6
asg389
Nsg390
VTamid 28a:6
p1826
sg392
(lp1827
sg394
g61
sg395
Nsg396
(lp1828
I55
aI6
asg398
Nsg399
g1826
sg400
(lp1829
sg402
g363
sg403
Nsg404
Nsg405
Nsbag3
(g4
g5
NtRp1830
(dp1831
g8
g10
sg383
Nsg384
(dp1832
sg386
Nsg25
g27
sg387
(lp1833
I55
aI7
asg389
Nsg390
VTamid 28a:7
p1834
sg392
(lp1835
sg394
g61
sg395
Nsg396
(lp1836
I55
aI7
asg398
Nsg399
g1834
sg400
(lp1837
sg402
g363
sg403
Nsg404
Nsg405
Nsbag3
(g4
g5
NtRp1838
(dp1839
g8
g10
sg383
Nsg384
(dp1840
sg386
Nsg25
g27
sg387
(lp1841
I55
aI8
asg389
Nsg390
VTamid 28a:8
p1842
sg392
(lp1843
sg394
g61
sg395
Nsg396
(lp1844
I55
aI8
asg398
Nsg399
g1842
sg400
(lp1845
sg402
g363
sg403
Nsg404
Nsg405
Nsbag3
(g4
g5
NtRp1846
(dp1847
g8
g10
sg383
Nsg384
(dp1848
sg386
Nsg25
g27
sg387
(lp1849
I55
aI9
asg389
Nsg390
VTamid 28a:9
p1850
sg392
(lp1851
sg394
g61
sg395
Nsg396
(lp1852
I55
aI9
asg398
Nsg399
g1850
sg400
(lp1853
sg402
g363
sg403
Nsg404
Nsg405
Nsbag3
(g4
g5
NtRp1854
(dp1855
g8
g10
sg383
Nsg384
(dp1856
sg386
Nsg25
g27
sg387
(lp1857
I55
aI10
asg389
Nsg390
VTamid 28a:10
p1858
sg392
(lp1859
sg394
g61
sg395
Nsg396
(lp1860
I55
aI10
asg398
Nsg399
g1858
sg400
(lp1861
sg402
g363
sg403
Nsg404
Nsg405
Nsbag3
(g4
g5
NtRp1862
(dp1863
g8
g10
sg383
Nsg384
(dp1864
sg386
Nsg25
g27
sg387
(lp1865
I55
aI11
asg389
Nsg390
VTamid 28a:11
p1866
sg392
(lp1867
sg394
g61
sg395
Nsg396
(lp1868
I55
aI11
asg398
Nsg399
g1866
sg400
(lp1869
sg402
g363
sg403
Nsg404
Nsg405
Nsbag3
(g4
g5
NtRp1870
(dp1871
g8
g10
sg383
Nsg384
(dp1872
sg386
Nsg25
g27
sg387
(lp1873
I55
aI12
asg389
Nsg390
VTamid 28a:12
p1874
sg392
(lp1875
sg394
g61
sg395
Nsg396
(lp1876
I55
aI12
asg398
Nsg399
g1874
sg400
(lp1877
sg402
g363
sg403
Nsg404
Nsg405
Nsbag3
(g4
g5
NtRp1878
(dp1879
g8
g10
sg383
Nsg384
(dp1880
sg386
Nsg25
g27
sg387
(lp1881
I55
aI13
asg389
Nsg390
VTamid 28a:13
p1882
sg392
(lp1883
sg394
g61
sg395
Nsg396
(lp1884
I55
aI13
asg398
Nsg399
g1882
sg400
(lp1885
sg402
g363
sg403
Nsg404
Nsg405
Nsbag3
(g4
g5
NtRp1886
(dp1887
g8
g10
sg383
Nsg384
(dp1888
sg386
Nsg25
g27
sg387
(lp1889
I55
aI14
asg389
Nsg390
VTamid 28a:14
p1890
sg392
(lp1891
sg394
g61
sg395
Nsg396
(lp1892
I55
aI14
asg398
Nsg399
g1890
sg400
(lp1893
sg402
g363
sg403
Nsg404
Nsg405
Nsbag3
(g4
g5
NtRp1894
(dp1895
g8
g10
sg383
Nsg384
(dp1896
sg386
Nsg25
g27
sg387
(lp1897
I55
aI15
asg389
Nsg390
VTamid 28a:15
p1898
sg392
(lp1899
sg394
g61
sg395
Nsg396
(lp1900
I55
aI15
asg398
Nsg399
g1898
sg400
(lp1901
sg402
g363
sg403
Nsg404
Nsg405
Nsbag3
(g4
g5
NtRp1902
(dp1903
g8
g10
sg383
Nsg384
(dp1904
sg386
Nsg25
g27
sg387
(lp1905
I55
aI16
asg389
Nsg390
VTamid 28a:16
p1906
sg392
(lp1907
sg394
g61
sg395
Nsg396
(lp1908
I55
aI16
asg398
Nsg399
g1906
sg400
(lp1909
sg402
g363
sg403
Nsg404
Nsg405
Nsbag3
(g4
g5
NtRp1910
(dp1911
g8
g10
sg383
Nsg384
(dp1912
sg386
Nsg25
g27
sg387
(lp1913
I55
aI17
asg389
Nsg390
VTamid 28a:17
p1914
sg392
(lp1915
sg394
g61
sg395
Nsg396
(lp1916
I55
aI17
asg398
Nsg399
g1914
sg400
(lp1917
sg402
g363
sg403
Nsg404
Nsg405
Nsbag3
(g4
g5
NtRp1918
(dp1919
g8
g10
sg383
Nsg384
(dp1920
sg386
Nsg25
g27
sg387
(lp1921
I55
aI18
asg389
Nsg390
VTamid 28a:18
p1922
sg392
(lp1923
sg394
g61
sg395
Nsg396
(lp1924
I55
aI18
asg398
Nsg399
g1922
sg400
(lp1925
sg402
g363
sg403
Nsg404
Nsg405
Nsbag3
(g4
g5
NtRp1926
(dp1927
g8
g10
sg383
Nsg384
(dp1928
sg386
Nsg25
g27
sg387
(lp1929
I55
aI19
asg389
Nsg390
VTamid 28a:19
p1930
sg392
(lp1931
sg394
g61
sg395
Nsg396
(lp1932
I55
aI19
asg398
Nsg399
g1930
sg400
(lp1933
sg402
g363
sg403
Nsg404
Nsg405
Nsbag3
(g4
g5
NtRp1934
(dp1935
g8
g10
sg383
Nsg384
(dp1936
sg386
Nsg25
g27
sg387
(lp1937
I55
aI20
asg389
Nsg390
VTamid 28a:20
p1938
sg392
(lp1939
sg394
g61
sg395
Nsg396
(lp1940
I55
aI20
asg398
Nsg399
g1938
sg400
(lp1941
sg402
g363
sg403
Nsg404
Nsg405
Nsbag3
(g4
g5
NtRp1942
(dp1943
g8
g10
sg383
Nsg384
(dp1944
sg386
Nsg25
g27
sg387
(lp1945
I55
aI21
asg389
Nsg390
VTamid 28a:21
p1946
sg392
(lp1947
sg394
g61
sg395
Nsg396
(lp1948
I55
aI21
asg398
Nsg399
g1946
sg400
(lp1949
sg402
g363
sg403
Nsg404
Nsg405
Nsbag3
(g4
g5
NtRp1950
(dp1951
g8
g10
sg383
Nsg384
(dp1952
sg386
Nsg25
g27
sg387
(lp1953
I55
aI22
asg389
Nsg390
VTamid 28a:22
p1954
sg392
(lp1955
sg394
g61
sg395
Nsg396
(lp1956
I55
aI22
asg398
Nsg399
g1954
sg400
(lp1957
sg402
g363
sg403
Nsg404
Nsg405
Nsbag3
(g4
g5
NtRp1958
(dp1959
g8
g10
sg383
Nsg384
(dp1960
sg386
Nsg25
g27
sg387
(lp1961
I55
aI23
asg389
Nsg390
VTamid 28a:23
p1962
sg392
(lp1963
sg394
g61
sg395
Nsg396
(lp1964
I55
aI23
asg398
Nsg399
g1962
sg400
(lp1965
sg402
g363
sg403
Nsg404
Nsg405
Nsbag3
(g4
g5
NtRp1966
(dp1967
g8
g10
sg383
Nsg384
(dp1968
sg386
Nsg25
g27
sg387
(lp1969
I55
aI24
asg389
Nsg390
VTamid 28a:24
p1970
sg392
(lp1971
sg394
g61
sg395
Nsg396
(lp1972
I55
aI24
asg398
Nsg399
g1970
sg400
(lp1973
sg402
g363
sg403
Nsg404
Nsg405
Nsbag3
(g4
g5
NtRp1974
(dp1975
g8
g10
sg383
Nsg384
(dp1976
sg386
Nsg25
g27
sg387
(lp1977
I55
aI25
asg389
Nsg390
VTamid 28a:25
p1978
sg392
(lp1979
sg394
g61
sg395
Nsg396
(lp1980
I55
aI25
asg398
Nsg399
g1978
sg400
(lp1981
sg402
g363
sg403
Nsg404
Nsg405
Nsbag3
(g4
g5
NtRp1982
(dp1983
g8
g10
sg383
Nsg384
(dp1984
sg386
Nsg25
g27
sg387
(lp1985
I55
aI26
asg389
Nsg390
VTamid 28a:26
p1986
sg392
(lp1987
sg394
g61
sg395
Nsg396
(lp1988
I55
aI26
asg398
Nsg399
g1986
sg400
(lp1989
sg402
g363
sg403
Nsg404
Nsg405
Nsbag3
(g4
g5
NtRp1990
(dp1991
g8
g10
sg383
Nsg384
(dp1992
sg386
Nsg25
g27
sg387
(lp1993
I55
aI27
asg389
Nsg390
VTamid 28a:27
p1994
sg392
(lp1995
sg394
g61
sg395
Nsg396
(lp1996
I55
aI27
asg398
Nsg399
g1994
sg400
(lp1997
sg402
g363
sg403
Nsg404
Nsg405
Nsbag3
(g4
g5
NtRp1998
(dp1999
g8
g10
sg383
Nsg384
(dp2000
sg386
Nsg25
g27
sg387
(lp2001
I55
aI28
asg389
Nsg390
VTamid 28a:28
p2002
sg392
(lp2003
sg394
g61
sg395
Nsg396
(lp2004
I55
aI28
asg398
Nsg399
g2002
sg400
(lp2005
sg402
g363
sg403
Nsg404
Nsg405
Nsbag3
(g4
g5
NtRp2006
(dp2007
g8
g10
sg383
Nsg384
(dp2008
sg386
Nsg25
g27
sg387
(lp2009
I55
aI29
asg389
Nsg390
VTamid 28a:29
p2010
sg392
(lp2011
sg394
g61
sg395
Nsg396
(lp2012
I55
aI29
asg398
Nsg399
g2010
sg400
(lp2013
sg402
g363
sg403
Nsg404
Nsg405
Nsbag3
(g4
g5
NtRp2014
(dp2015
g8
g10
sg383
Nsg384
(dp2016
sg386
Nsg25
g27
sg387
(lp2017
I55
aI30
asg389
Nsg390
VTamid 28a:30
p2018
sg392
(lp2019
sg394
g61
sg395
Nsg396
(lp2020
I55
aI30
asg398
Nsg399
g2018
sg400
(lp2021
sg402
g363
sg403
Nsg404
Nsg405
Nsbag3
(g4
g5
NtRp2022
(dp2023
g8
g10
sg383
Nsg384
(dp2024
sg386
Nsg25
g27
sg387
(lp2025
I55
aI31
asg389
Nsg390
VTamid 28a:31
p2026
sg392
(lp2027
sg394
g61
sg395
Nsg396
(lp2028
I55
aI31
asg398
Nsg399
g2026
sg400
(lp2029
sg402
g363
sg403
Nsg404
Nsg405
Nsbag3
(g4
g5
NtRp2030
(dp2031
g8
g10
sg383
Nsg384
(dp2032
sg386
Nsg25
g27
sg387
(lp2033
I55
aI32
asg389
Nsg390
VTamid 28a:32
p2034
sg392
(lp2035
sg394
g61
sg395
Nsg396
(lp2036
I55
aI32
asg398
Nsg399
g2034
sg400
(lp2037
sg402
g363
sg403
Nsg404
Nsg405
Nsbag3
(g4
g5
NtRp2038
(dp2039
g8
g10
sg383
Nsg384
(dp2040
sg386
Nsg25
g27
sg387
(lp2041
I55
aI33
asg389
Nsg390
VTamid 28a:33
p2042
sg392
(lp2043
sg394
g61
sg395
Nsg396
(lp2044
I55
aI33
asg398
Nsg399
g2042
sg400
(lp2045
sg402
g363
sg403
Nsg404
Nsg405
Nsbag3
(g4
g5
NtRp2046
(dp2047
g8
g10
sg383
Nsg384
(dp2048
sg386
Nsg25
g27
sg387
(lp2049
I55
aI34
asg389
Nsg390
VTamid 28a:34
p2050
sg392
(lp2051
sg394
g61
sg395
Nsg396
(lp2052
I55
aI34
asg398
Nsg399
g2050
sg400
(lp2053
sg402
g363
sg403
Nsg404
Nsg405
Nsbag3
(g4
g5
NtRp2054
(dp2055
g8
g10
sg383
Nsg384
(dp2056
sg386
Nsg25
g27
sg387
(lp2057
I55
aI35
asg389
Nsg390
VTamid 28a:35
p2058
sg392
(lp2059
sg394
g61
sg395
Nsg396
(lp2060
I55
aI35
asg398
Nsg399
g2058
sg400
(lp2061
sg402
g363
sg403
Nsg404
Nsg405
Nsbag3
(g4
g5
NtRp2062
(dp2063
g8
g10
sg383
Nsg384
(dp2064
sg386
Nsg25
g27
sg387
(lp2065
I55
aI36
asg389
Nsg390
VTamid 28a:36
p2066
sg392
(lp2067
sg394
g61
sg395
Nsg396
(lp2068
I55
aI36
asg398
Nsg399
g2066
sg400
(lp2069
sg402
g363
sg403
Nsg404
Nsg405
Nsbag3
(g4
g5
NtRp2070
(dp2071
g8
g10
sg383
Nsg384
(dp2072
sg386
Nsg25
g27
sg387
(lp2073
I55
aI37
asg389
Nsg390
VTamid 28a:37
p2074
sg392
(lp2075
sg394
g61
sg395
Nsg396
(lp2076
I55
aI37
asg398
Nsg399
g2074
sg400
(lp2077
sg402
g363
sg403
Nsg404
Nsg405
Nsbag3
(g4
g5
NtRp2078
(dp2079
g8
g10
sg383
Nsg384
(dp2080
sg386
Nsg25
g27
sg387
(lp2081
I55
aI38
asg389
Nsg390
VTamid 28a:38
p2082
sg392
(lp2083
sg394
g61
sg395
Nsg396
(lp2084
I55
aI38
asg398
Nsg399
g2082
sg400
(lp2085
sg402
g363
sg403
Nsg404
Nsg405
Nsbag3
(g4
g5
NtRp2086
(dp2087
g8
g10
sg383
Nsg384
(dp2088
sg386
Nsg25
g27
sg387
(lp2089
I55
aI39
asg389
Nsg390
VTamid 28a:39
p2090
sg392
(lp2091
sg394
g61
sg395
Nsg396
(lp2092
I55
aI39
asg398
Nsg399
g2090
sg400
(lp2093
sg402
g363
sg403
Nsg404
Nsg405
Nsbag3
(g4
g5
NtRp2094
(dp2095
g8
g10
sg383
Nsg384
(dp2096
sg386
Nsg25
g27
sg387
(lp2097
I55
aI40
asg389
Nsg390
VTamid 28a:40
p2098
sg392
(lp2099
sg394
g61
sg395
Nsg396
(lp2100
I55
aI40
asg398
Nsg399
g2098
sg400
(lp2101
sg402
g363
sg403
Nsg404
Nsg405
Nsbag3
(g4
g5
NtRp2102
(dp2103
g8
g10
sg383
Nsg384
(dp2104
sg386
Nsg25
g27
sg387
(lp2105
I55
aI41
asg389
Nsg390
VTamid 28a:41
p2106
sg392
(lp2107
sg394
g61
sg395
Nsg396
(lp2108
I55
aI41
asg398
Nsg399
g2106
sg400
(lp2109
sg402
g363
sg403
Nsg404
Nsg405
Nsbag3
(g4
g5
NtRp2110
(dp2111
g8
g10
sg383
Nsg384
(dp2112
sg386
Nsg25
g27
sg387
(lp2113
I55
aI42
asg389
Nsg390
VTamid 28a:42
p2114
sg392
(lp2115
sg394
g61
sg395
Nsg396
(lp2116
I55
aI42
asg398
Nsg399
g2114
sg400
(lp2117
sg402
g363
sg403
Nsg404
Nsg405
Nsbag3
(g4
g5
NtRp2118
(dp2119
g8
g10
sg383
Nsg384
(dp2120
sg386
Nsg25
g27
sg387
(lp2121
I55
aI43
asg389
Nsg390
VTamid 28a:43
p2122
sg392
(lp2123
sg394
g61
sg395
Nsg396
(lp2124
I55
aI43
asg398
Nsg399
g2122
sg400
(lp2125
sg402
g363
sg403
Nsg404
Nsg405
Nsbag3
(g4
g5
NtRp2126
(dp2127
g8
g10
sg383
Nsg384
(dp2128
sg386
Nsg25
g27
sg387
(lp2129
I56
aI1
asg389
Nsg390
VTamid 28b:1
p2130
sg392
(lp2131
sg394
g61
sg395
Nsg396
(lp2132
I56
aI1
asg398
Nsg399
g2130
sg400
(lp2133
sg402
g363
sg403
Nsg404
Nsg405
Nsbag3
(g4
g5
NtRp2134
(dp2135
g8
g10
sg383
Nsg384
(dp2136
sg386
Nsg25
g27
sg387
(lp2137
I56
aI2
asg389
Nsg390
VTamid 28b:2
p2138
sg392
(lp2139
sg394
g61
sg395
Nsg396
(lp2140
I56
aI2
asg398
Nsg399
g2138
sg400
(lp2141
sg402
g363
sg403
Nsg404
Nsg405
Nsbag3
(g4
g5
NtRp2142
(dp2143
g8
g10
sg383
Nsg384
(dp2144
sg386
Nsg25
g27
sg387
(lp2145
I56
aI3
asg389
Nsg390
VTamid 28b:3
p2146
sg392
(lp2147
sg394
g61
sg395
Nsg396
(lp2148
I56
aI3
asg398
Nsg399
g2146
sg400
(lp2149
sg402
g363
sg403
Nsg404
Nsg405
Nsbag3
(g4
g5
NtRp2150
(dp2151
g8
g10
sg383
Nsg384
(dp2152
sg386
Nsg25
g27
sg387
(lp2153
I56
aI4
asg389
Nsg390
VTamid 28b:4
p2154
sg392
(lp2155
sg394
g61
sg395
Nsg396
(lp2156
I56
aI4
asg398
Nsg399
g2154
sg400
(lp2157
sg402
g363
sg403
Nsg404
Nsg405
Nsbag3
(g4
g5
NtRp2158
(dp2159
g8
g10
sg383
Nsg384
(dp2160
sg386
Nsg25
g27
sg387
(lp2161
I56
aI5
asg389
Nsg390
VTamid 28b:5
p2162
sg392
(lp2163
sg394
g61
sg395
Nsg396
(lp2164
I56
aI5
asg398
Nsg399
g2162
sg400
(lp2165
sg402
g363
sg403
Nsg404
Nsg405
Nsbag3
(g4
g5
NtRp2166
(dp2167
g8
g10
sg383
Nsg384
(dp2168
sg386
Nsg25
g27
sg387
(lp2169
I56
aI6
asg389
Nsg390
VTamid 28b:6
p2170
sg392
(lp2171
sg394
g61
sg395
Nsg396
(lp2172
I56
aI6
asg398
Nsg399
g2170
sg400
(lp2173
sg402
g363
sg403
Nsg404
Nsg405
Nsbag3
(g4
g5
NtRp2174
(dp2175
g8
g10
sg383
Nsg384
(dp2176
sg386
Nsg25
g27
sg387
(lp2177
I56
aI7
asg389
Nsg390
VTamid 28b:7
p2178
sg392
(lp2179
sg394
g61
sg395
Nsg396
(lp2180
I56
aI7
asg398
Nsg399
g2178
sg400
(lp2181
sg402
g363
sg403
Nsg404
Nsg405
Nsbag3
(g4
g5
NtRp2182
(dp2183
g8
g10
sg383
Nsg384
(dp2184
sg386
Nsg25
g27
sg387
(lp2185
I56
aI8
asg389
Nsg390
VTamid 28b:8
p2186
sg392
(lp2187
sg394
g61
sg395
Nsg396
(lp2188
I56
aI8
asg398
Nsg399
g2186
sg400
(lp2189
sg402
g363
sg403
Nsg404
Nsg405
Nsbag3
(g4
g5
NtRp2190
(dp2191
g8
g10
sg383
Nsg384
(dp2192
sg386
Nsg25
g27
sg387
(lp2193
I56
aI9
asg389
Nsg390
VTamid 28b:9
p2194
sg392
(lp2195
sg394
g61
sg395
Nsg396
(lp2196
I56
aI9
asg398
Nsg399
g2194
sg400
(lp2197
sg402
g363
sg403
Nsg404
Nsg405
Nsbag3
(g4
g5
NtRp2198
(dp2199
g8
g10
sg383
Nsg384
(dp2200
sg386
Nsg25
g27
sg387
(lp2201
I56
aI10
asg389
Nsg390
VTamid 28b:10
p2202
sg392
(lp2203
sg394
g61
sg395
Nsg396
(lp2204
I56
aI10
asg398
Nsg399
g2202
sg400
(lp2205
sg402
g363
sg403
Nsg404
Nsg405
Nsbag3
(g4
g5
NtRp2206
(dp2207
g8
g10
sg383
Nsg384
(dp2208
sg386
Nsg25
g27
sg387
(lp2209
I56
aI11
asg389
Nsg390
VTamid 28b:11
p2210
sg392
(lp2211
sg394
g61
sg395
Nsg396
(lp2212
I56
aI11
asg398
Nsg399
g2210
sg400
(lp2213
sg402
g363
sg403
Nsg404
Nsg405
Nsbag3
(g4
g5
NtRp2214
(dp2215
g8
g10
sg383
Nsg384
(dp2216
sg386
Nsg25
g27
sg387
(lp2217
I56
aI12
asg389
Nsg390
VTamid 28b:12
p2218
sg392
(lp2219
sg394
g61
sg395
Nsg396
(lp2220
I56
aI12
asg398
Nsg399
g2218
sg400
(lp2221
sg402
g363
sg403
Nsg404
Nsg405
Nsbag3
(g4
g5
NtRp2222
(dp2223
g8
g10
sg383
Nsg384
(dp2224
sg386
Nsg25
g27
sg387
(lp2225
I56
aI13
asg389
Nsg390
VTamid 28b:13
p2226
sg392
(lp2227
sg394
g61
sg395
Nsg396
(lp2228
I56
aI13
asg398
Nsg399
g2226
sg400
(lp2229
sg402
g363
sg403
Nsg404
Nsg405
Nsbag3
(g4
g5
NtRp2230
(dp2231
g8
g10
sg383
Nsg384
(dp2232
sg386
Nsg25
g27
sg387
(lp2233
I56
aI14
asg389
Nsg390
VTamid 28b:14
p2234
sg392
(lp2235
sg394
g61
sg395
Nsg396
(lp2236
I56
aI14
asg398
Nsg399
g2234
sg400
(lp2237
sg402
g363
sg403
Nsg404
Nsg405
Nsbag3
(g4
g5
NtRp2238
(dp2239
g8
g10
sg383
Nsg384
(dp2240
sg386
Nsg25
g27
sg387
(lp2241
I56
aI15
asg389
Nsg390
VTamid 28b:15
p2242
sg392
(lp2243
sg394
g61
sg395
Nsg396
(lp2244
I56
aI15
asg398
Nsg399
g2242
sg400
(lp2245
sg402
g363
sg403
Nsg404
Nsg405
Nsbag3
(g4
g5
NtRp2246
(dp2247
g8
g10
sg383
Nsg384
(dp2248
sg386
Nsg25
g27
sg387
(lp2249
I56
aI16
asg389
Nsg390
VTamid 28b:16
p2250
sg392
(lp2251
sg394
g61
sg395
Nsg396
(lp2252
I56
aI16
asg398
Nsg399
g2250
sg400
(lp2253
sg402
g363
sg403
Nsg404
Nsg405
Nsbag3
(g4
g5
NtRp2254
(dp2255
g8
g10
sg383
Nsg384
(dp2256
sg386
Nsg25
g27
sg387
(lp2257
I56
aI17
asg389
Nsg390
VTamid 28b:17
p2258
sg392
(lp2259
sg394
g61
sg395
Nsg396
(lp2260
I56
aI17
asg398
Nsg399
g2258
sg400
(lp2261
sg402
g363
sg403
Nsg404
Nsg405
Nsbag3
(g4
g5
NtRp2262
(dp2263
g8
g10
sg383
Nsg384
(dp2264
sg386
Nsg25
g27
sg387
(lp2265
I56
aI18
asg389
Nsg390
VTamid 28b:18
p2266
sg392
(lp2267
sg394
g61
sg395
Nsg396
(lp2268
I56
aI18
asg398
Nsg399
g2266
sg400
(lp2269
sg402
g363
sg403
Nsg404
Nsg405
Nsbag3
(g4
g5
NtRp2270
(dp2271
g8
g10
sg383
Nsg384
(dp2272
sg386
Nsg25
g27
sg387
(lp2273
I56
aI19
asg389
Nsg390
VTamid 28b:19
p2274
sg392
(lp2275
sg394
g61
sg395
Nsg396
(lp2276
I56
aI19
asg398
Nsg399
g2274
sg400
(lp2277
sg402
g363
sg403
Nsg404
Nsg405
Nsbag3
(g4
g5
NtRp2278
(dp2279
g8
g10
sg383
Nsg384
(dp2280
sg386
Nsg25
g27
sg387
(lp2281
I56
aI20
asg389
Nsg390
VTamid 28b:20
p2282
sg392
(lp2283
sg394
g61
sg395
Nsg396
(lp2284
I56
aI20
asg398
Nsg399
g2282
sg400
(lp2285
sg402
g363
sg403
Nsg404
Nsg405
Nsbag3
(g4
g5
NtRp2286
(dp2287
g8
g10
sg383
Nsg384
(dp2288
sg386
Nsg25
g27
sg387
(lp2289
I56
aI21
asg389
Nsg390
VTamid 28b:21
p2290
sg392
(lp2291
sg394
g61
sg395
Nsg396
(lp2292
I56
aI21
asg398
Nsg399
g2290
sg400
(lp2293
sg402
g363
sg403
Nsg404
Nsg405
Nsbag3
(g4
g5
NtRp2294
(dp2295
g8
g10
sg383
Nsg384
(dp2296
sg386
Nsg25
g27
sg387
(lp2297
I56
aI22
asg389
Nsg390
VTamid 28b:22
p2298
sg392
(lp2299
sg394
g61
sg395
Nsg396
(lp2300
I56
aI22
asg398
Nsg399
g2298
sg400
(lp2301
sg402
g363
sg403
Nsg404
Nsg405
Nsbag3
(g4
g5
NtRp2302
(dp2303
g8
g10
sg383
Nsg384
(dp2304
sg386
Nsg25
g27
sg387
(lp2305
I56
aI23
asg389
Nsg390
VTamid 28b:23
p2306
sg392
(lp2307
sg394
g61
sg395
Nsg396
(lp2308
I56
aI23
asg398
Nsg399
g2306
sg400
(lp2309
sg402
g363
sg403
Nsg404
Nsg405
Nsbag3
(g4
g5
NtRp2310
(dp2311
g8
g10
sg383
Nsg384
(dp2312
sg386
Nsg25
g27
sg387
(lp2313
I56
aI24
asg389
Nsg390
VTamid 28b:24
p2314
sg392
(lp2315
sg394
g61
sg395
Nsg396
(lp2316
I56
aI24
asg398
Nsg399
g2314
sg400
(lp2317
sg402
g363
sg403
Nsg404
Nsg405
Nsbag3
(g4
g5
NtRp2318
(dp2319
g8
g10
sg383
Nsg384
(dp2320
sg386
Nsg25
g27
sg387
(lp2321
I56
aI25
asg389
Nsg390
VTamid 28b:25
p2322
sg392
(lp2323
sg394
g61
sg395
Nsg396
(lp2324
I56
aI25
asg398
Nsg399
g2322
sg400
(lp2325
sg402
g363
sg403
Nsg404
Nsg405
Nsbag3
(g4
g5
NtRp2326
(dp2327
g8
g10
sg383
Nsg384
(dp2328
sg386
Nsg25
g27
sg387
(lp2329
I56
aI26
asg389
Nsg390
VTamid 28b:26
p2330
sg392
(lp2331
sg394
g61
sg395
Nsg396
(lp2332
I56
aI26
asg398
Nsg399
g2330
sg400
(lp2333
sg402
g363
sg403
Nsg404
Nsg405
Nsbag3
(g4
g5
NtRp2334
(dp2335
g8
g10
sg383
Nsg384
(dp2336
sg386
Nsg25
g27
sg387
(lp2337
I56
aI27
asg389
Nsg390
VTamid 28b:27
p2338
sg392
(lp2339
sg394
g61
sg395
Nsg396
(lp2340
I56
aI27
asg398
Nsg399
g2338
sg400
(lp2341
sg402
g363
sg403
Nsg404
Nsg405
Nsbag3
(g4
g5
NtRp2342
(dp2343
g8
g10
sg383
Nsg384
(dp2344
sg386
Nsg25
g27
sg387
(lp2345
I56
aI28
asg389
Nsg390
VTamid 28b:28
p2346
sg392
(lp2347
sg394
g61
sg395
Nsg396
(lp2348
I56
aI28
asg398
Nsg399
g2346
sg400
(lp2349
sg402
g363
sg403
Nsg404
Nsg405
Nsbag3
(g4
g5
NtRp2350
(dp2351
g8
g10
sg383
Nsg384
(dp2352
sg386
Nsg25
g27
sg387
(lp2353
I56
aI29
asg389
Nsg390
VTamid 28b:29
p2354
sg392
(lp2355
sg394
g61
sg395
Nsg396
(lp2356
I56
aI29
asg398
Nsg399
g2354
sg400
(lp2357
sg402
g363
sg403
Nsg404
Nsg405
Nsbag3
(g4
g5
NtRp2358
(dp2359
g8
g10
sg383
Nsg384
(dp2360
sg386
Nsg25
g27
sg387
(lp2361
I57
aI1
asg389
Nsg390
VTamid 29a:1
p2362
sg392
(lp2363
sg394
g61
sg395
Nsg396
(lp2364
I57
aI1
asg398
Nsg399
g2362
sg400
(lp2365
sg402
g363
sg403
Nsg404
Nsg405
Nsbag3
(g4
g5
NtRp2366
(dp2367
g8
g10
sg383
Nsg384
(dp2368
sg386
Nsg25
g27
sg387
(lp2369
I57
aI2
asg389
Nsg390
VTamid 29a:2
p2370
sg392
(lp2371
sg394
g61
sg395
Nsg396
(lp2372
I57
aI2
asg398
Nsg399
g2370
sg400
(lp2373
sg402
g363
sg403
Nsg404
Nsg405
Nsbag3
(g4
g5
NtRp2374
(dp2375
g8
g10
sg383
Nsg384
(dp2376
sg386
Nsg25
g27
sg387
(lp2377
I57
aI3
asg389
Nsg390
VTamid 29a:3
p2378
sg392
(lp2379
sg394
g61
sg395
Nsg396
(lp2380
I57
aI3
asg398
Nsg399
g2378
sg400
(lp2381
sg402
g363
sg403
Nsg404
Nsg405
Nsbag3
(g4
g5
NtRp2382
(dp2383
g8
g10
sg383
Nsg384
(dp2384
sg386
Nsg25
g27
sg387
(lp2385
I57
aI4
asg389
Nsg390
VTamid 29a:4
p2386
sg392
(lp2387
sg394
g61
sg395
Nsg396
(lp2388
I57
aI4
asg398
Nsg399
g2386
sg400
(lp2389
sg402
g363
sg403
Nsg404
Nsg405
Nsbag3
(g4
g5
NtRp2390
(dp2391
g8
g10
sg383
Nsg384
(dp2392
sg386
Nsg25
g27
sg387
(lp2393
I57
aI5
asg389
Nsg390
VTamid 29a:5
p2394
sg392
(lp2395
sg394
g61
sg395
Nsg396
(lp2396
I57
aI5
asg398
Nsg399
g2394
sg400
(lp2397
sg402
g363
sg403
Nsg404
Nsg405
Nsbag3
(g4
g5
NtRp2398
(dp2399
g8
g10
sg383
Nsg384
(dp2400
sg386
Nsg25
g27
sg387
(lp2401
I57
aI6
asg389
Nsg390
VTamid 29a:6
p2402
sg392
(lp2403
sg394
g61
sg395
Nsg396
(lp2404
I57
aI6
asg398
Nsg399
g2402
sg400
(lp2405
sg402
g363
sg403
Nsg404
Nsg405
Nsbag3
(g4
g5
NtRp2406
(dp2407
g8
g10
sg383
Nsg384
(dp2408
sg386
Nsg25
g27
sg387
(lp2409
I57
aI7
asg389
Nsg390
VTamid 29a:7
p2410
sg392
(lp2411
sg394
g61
sg395
Nsg396
(lp2412
I57
aI7
asg398
Nsg399
g2410
sg400
(lp2413
sg402
g363
sg403
Nsg404
Nsg405
Nsbag3
(g4
g5
NtRp2414
(dp2415
g8
g10
sg383
Nsg384
(dp2416
sg386
Nsg25
g27
sg387
(lp2417
I57
aI8
asg389
Nsg390
VTamid 29a:8
p2418
sg392
(lp2419
sg394
g61
sg395
Nsg396
(lp2420
I57
aI8
asg398
Nsg399
g2418
sg400
(lp2421
sg402
g363
sg403
Nsg404
Nsg405
Nsbag3
(g4
g5
NtRp2422
(dp2423
g8
g10
sg383
Nsg384
(dp2424
sg386
Nsg25
g27
sg387
(lp2425
I57
aI9
asg389
Nsg390
VTamid 29a:9
p2426
sg392
(lp2427
sg394
g61
sg395
Nsg396
(lp2428
I57
aI9
asg398
Nsg399
g2426
sg400
(lp2429
sg402
g363
sg403
Nsg404
Nsg405
Nsbag3
(g4
g5
NtRp2430
(dp2431
g8
g10
sg383
Nsg384
(dp2432
sg386
Nsg25
g27
sg387
(lp2433
I57
aI10
asg389
Nsg390
VTamid 29a:10
p2434
sg392
(lp2435
sg394
g61
sg395
Nsg396
(lp2436
I57
aI10
asg398
Nsg399
g2434
sg400
(lp2437
sg402
g363
sg403
Nsg404
Nsg405
Nsbag3
(g4
g5
NtRp2438
(dp2439
g8
g10
sg383
Nsg384
(dp2440
sg386
Nsg25
g27
sg387
(lp2441
I57
aI11
asg389
Nsg390
VTamid 29a:11
p2442
sg392
(lp2443
sg394
g61
sg395
Nsg396
(lp2444
I57
aI11
asg398
Nsg399
g2442
sg400
(lp2445
sg402
g363
sg403
Nsg404
Nsg405
Nsbag3
(g4
g5
NtRp2446
(dp2447
g8
g10
sg383
Nsg384
(dp2448
sg386
Nsg25
g27
sg387
(lp2449
I57
aI12
asg389
Nsg390
VTamid 29a:12
p2450
sg392
(lp2451
sg394
g61
sg395
Nsg396
(lp2452
I57
aI12
asg398
Nsg399
g2450
sg400
(lp2453
sg402
g363
sg403
Nsg404
Nsg405
Nsbag3
(g4
g5
NtRp2454
(dp2455
g8
g10
sg383
Nsg384
(dp2456
sg386
Nsg25
g27
sg387
(lp2457
I57
aI13
asg389
Nsg390
VTamid 29a:13
p2458
sg392
(lp2459
sg394
g61
sg395
Nsg396
(lp2460
I57
aI13
asg398
Nsg399
g2458
sg400
(lp2461
sg402
g363
sg403
Nsg404
Nsg405
Nsbag3
(g4
g5
NtRp2462
(dp2463
g8
g10
sg383
Nsg384
(dp2464
sg386
Nsg25
g27
sg387
(lp2465
I57
aI14
asg389
Nsg390
VTamid 29a:14
p2466
sg392
(lp2467
sg394
g61
sg395
Nsg396
(lp2468
I57
aI14
asg398
Nsg399
g2466
sg400
(lp2469
sg402
g363
sg403
Nsg404
Nsg405
Nsbag3
(g4
g5
NtRp2470
(dp2471
g8
g10
sg383
Nsg384
(dp2472
sg386
Nsg25
g27
sg387
(lp2473
I57
aI15
asg389
Nsg390
VTamid 29a:15
p2474
sg392
(lp2475
sg394
g61
sg395
Nsg396
(lp2476
I57
aI15
asg398
Nsg399
g2474
sg400
(lp2477
sg402
g363
sg403
Nsg404
Nsg405
Nsbag3
(g4
g5
NtRp2478
(dp2479
g8
g10
sg383
Nsg384
(dp2480
sg386
Nsg25
g27
sg387
(lp2481
I57
aI16
asg389
Nsg390
VTamid 29a:16
p2482
sg392
(lp2483
sg394
g61
sg395
Nsg396
(lp2484
I57
aI16
asg398
Nsg399
g2482
sg400
(lp2485
sg402
g363
sg403
Nsg404
Nsg405
Nsbag3
(g4
g5
NtRp2486
(dp2487
g8
g10
sg383
Nsg384
(dp2488
sg386
Nsg25
g27
sg387
(lp2489
I57
aI17
asg389
Nsg390
VTamid 29a:17
p2490
sg392
(lp2491
sg394
g61
sg395
Nsg396
(lp2492
I57
aI17
asg398
Nsg399
g2490
sg400
(lp2493
sg402
g363
sg403
Nsg404
Nsg405
Nsbag3
(g4
g5
NtRp2494
(dp2495
g8
g10
sg383
Nsg384
(dp2496
sg386
Nsg25
g27
sg387
(lp2497
I57
aI18
asg389
Nsg390
VTamid 29a:18
p2498
sg392
(lp2499
sg394
g61
sg395
Nsg396
(lp2500
I57
aI18
asg398
Nsg399
g2498
sg400
(lp2501
sg402
g363
sg403
Nsg404
Nsg405
Nsbag3
(g4
g5
NtRp2502
(dp2503
g8
g10
sg383
Nsg384
(dp2504
sg386
Nsg25
g27
sg387
(lp2505
I57
aI19
asg389
Nsg390
VTamid 29a:19
p2506
sg392
(lp2507
sg394
g61
sg395
Nsg396
(lp2508
I57
aI19
asg398
Nsg399
g2506
sg400
(lp2509
sg402
g363
sg403
Nsg404
Nsg405
Nsbag3
(g4
g5
NtRp2510
(dp2511
g8
g10
sg383
Nsg384
(dp2512
sg386
Nsg25
g27
sg387
(lp2513
I57
aI20
asg389
Nsg390
VTamid 29a:20
p2514
sg392
(lp2515
sg394
g61
sg395
Nsg396
(lp2516
I57
aI20
asg398
Nsg399
g2514
sg400
(lp2517
sg402
g363
sg403
Nsg404
Nsg405
Nsbag3
(g4
g5
NtRp2518
(dp2519
g8
g10
sg383
Nsg384
(dp2520
sg386
Nsg25
g27
sg387
(lp2521
I57
aI21
asg389
Nsg390
VTamid 29a:21
p2522
sg392
(lp2523
sg394
g61
sg395
Nsg396
(lp2524
I57
aI21
asg398
Nsg399
g2522
sg400
(lp2525
sg402
g363
sg403
Nsg404
Nsg405
Nsbag3
(g4
g5
NtRp2526
(dp2527
g8
g10
sg383
Nsg384
(dp2528
sg386
Nsg25
g27
sg387
(lp2529
I57
aI22
asg389
Nsg390
VTamid 29a:22
p2530
sg392
(lp2531
sg394
g61
sg395
Nsg396
(lp2532
I57
aI22
asg398
Nsg399
g2530
sg400
(lp2533
sg402
g363
sg403
Nsg404
Nsg405
Nsbag3
(g4
g5
NtRp2534
(dp2535
g8
g10
sg383
Nsg384
(dp2536
sg386
Nsg25
g27
sg387
(lp2537
I57
aI23
asg389
Nsg390
VTamid 29a:23
p2538
sg392
(lp2539
sg394
g61
sg395
Nsg396
(lp2540
I57
aI23
asg398
Nsg399
g2538
sg400
(lp2541
sg402
g363
sg403
Nsg404
Nsg405
Nsbag3
(g4
g5
NtRp2542
(dp2543
g8
g10
sg383
Nsg384
(dp2544
sg386
Nsg25
g27
sg387
(lp2545
I57
aI24
asg389
Nsg390
VTamid 29a:24
p2546
sg392
(lp2547
sg394
g61
sg395
Nsg396
(lp2548
I57
aI24
asg398
Nsg399
g2546
sg400
(lp2549
sg402
g363
sg403
Nsg404
Nsg405
Nsbag3
(g4
g5
NtRp2550
(dp2551
g8
g10
sg383
Nsg384
(dp2552
sg386
Nsg25
g27
sg387
(lp2553
I57
aI25
asg389
Nsg390
VTamid 29a:25
p2554
sg392
(lp2555
sg394
g61
sg395
Nsg396
(lp2556
I57
aI25
asg398
Nsg399
g2554
sg400
(lp2557
sg402
g363
sg403
Nsg404
Nsg405
Nsbag3
(g4
g5
NtRp2558
(dp2559
g8
g10
sg383
Nsg384
(dp2560
sg386
Nsg25
g27
sg387
(lp2561
I57
aI26
asg389
Nsg390
VTamid 29a:26
p2562
sg392
(lp2563
sg394
g61
sg395
Nsg396
(lp2564
I57
aI26
asg398
Nsg399
g2562
sg400
(lp2565
sg402
g363
sg403
Nsg404
Nsg405
Nsbag3
(g4
g5
NtRp2566
(dp2567
g8
g10
sg383
Nsg384
(dp2568
sg386
Nsg25
g27
sg387
(lp2569
I57
aI27
asg389
Nsg390
VTamid 29a:27
p2570
sg392
(lp2571
sg394
g61
sg395
Nsg396
(lp2572
I57
aI27
asg398
Nsg399
g2570
sg400
(lp2573
sg402
g363
sg403
Nsg404
Nsg405
Nsbag3
(g4
g5
NtRp2574
(dp2575
g8
g10
sg383
Nsg384
(dp2576
sg386
Nsg25
g27
sg387
(lp2577
I57
aI28
asg389
Nsg390
VTamid 29a:28
p2578
sg392
(lp2579
sg394
g61
sg395
Nsg396
(lp2580
I57
aI28
asg398
Nsg399
g2578
sg400
(lp2581
sg402
g363
sg403
Nsg404
Nsg405
Nsbag3
(g4
g5
NtRp2582
(dp2583
g8
g10
sg383
Nsg384
(dp2584
sg386
Nsg25
g27
sg387
(lp2585
I57
aI29
asg389
Nsg390
VTamid 29a:29
p2586
sg392
(lp2587
sg394
g61
sg395
Nsg396
(lp2588
I57
aI29
asg398
Nsg399
g2586
sg400
(lp2589
sg402
g363
sg403
Nsg404
Nsg405
Nsbag3
(g4
g5
NtRp2590
(dp2591
g8
g10
sg383
Nsg384
(dp2592
sg386
Nsg25
g27
sg387
(lp2593
I57
aI30
asg389
Nsg390
VTamid 29a:30
p2594
sg392
(lp2595
sg394
g61
sg395
Nsg396
(lp2596
I57
aI30
asg398
Nsg399
g2594
sg400
(lp2597
sg402
g363
sg403
Nsg404
Nsg405
Nsbag3
(g4
g5
NtRp2598
(dp2599
g8
g10
sg383
Nsg384
(dp2600
sg386
Nsg25
g27
sg387
(lp2601
I57
aI31
asg389
Nsg390
VTamid 29a:31
p2602
sg392
(lp2603
sg394
g61
sg395
Nsg396
(lp2604
I57
aI31
asg398
Nsg399
g2602
sg400
(lp2605
sg402
g363
sg403
Nsg404
Nsg405
Nsbag3
(g4
g5
NtRp2606
(dp2607
g8
g10
sg383
Nsg384
(dp2608
sg386
Nsg25
g27
sg387
(lp2609
I57
aI32
asg389
Nsg390
VTamid 29a:32
p2610
sg392
(lp2611
sg394
g61
sg395
Nsg396
(lp2612
I57
aI32
asg398
Nsg399
g2610
sg400
(lp2613
sg402
g363
sg403
Nsg404
Nsg405
Nsbag3
(g4
g5
NtRp2614
(dp2615
g8
g10
sg383
Nsg384
(dp2616
sg386
Nsg25
g27
sg387
(lp2617
I58
aI1
asg389
Nsg390
VTamid 29b:1
p2618
sg392
(lp2619
sg394
g61
sg395
Nsg396
(lp2620
I58
aI1
asg398
Nsg399
g2618
sg400
(lp2621
sg402
g363
sg403
Nsg404
Nsg405
Nsbag3
(g4
g5
NtRp2622
(dp2623
g8
g10
sg383
Nsg384
(dp2624
sg386
Nsg25
g27
sg387
(lp2625
I58
aI2
asg389
Nsg390
VTamid 29b:2
p2626
sg392
(lp2627
sg394
g61
sg395
Nsg396
(lp2628
I58
aI2
asg398
Nsg399
g2626
sg400
(lp2629
sg402
g363
sg403
Nsg404
Nsg405
Nsbag3
(g4
g5
NtRp2630
(dp2631
g8
g10
sg383
Nsg384
(dp2632
sg386
Nsg25
g27
sg387
(lp2633
I58
aI3
asg389
Nsg390
VTamid 29b:3
p2634
sg392
(lp2635
sg394
g61
sg395
Nsg396
(lp2636
I58
aI3
asg398
Nsg399
g2634
sg400
(lp2637
sg402
g363
sg403
Nsg404
Nsg405
Nsbag3
(g4
g5
NtRp2638
(dp2639
g8
g10
sg383
Nsg384
(dp2640
sg386
Nsg25
g27
sg387
(lp2641
I58
aI4
asg389
Nsg390
VTamid 29b:4
p2642
sg392
(lp2643
sg394
g61
sg395
Nsg396
(lp2644
I58
aI4
asg398
Nsg399
g2642
sg400
(lp2645
sg402
g363
sg403
Nsg404
Nsg405
Nsbag3
(g4
g5
NtRp2646
(dp2647
g8
g10
sg383
Nsg384
(dp2648
sg386
Nsg25
g27
sg387
(lp2649
I58
aI5
asg389
Nsg390
VTamid 29b:5
p2650
sg392
(lp2651
sg394
g61
sg395
Nsg396
(lp2652
I58
aI5
asg398
Nsg399
g2650
sg400
(lp2653
sg402
g363
sg403
Nsg404
Nsg405
Nsbag3
(g4
g5
NtRp2654
(dp2655
g8
g10
sg383
Nsg384
(dp2656
sg386
Nsg25
g27
sg387
(lp2657
I58
aI6
asg389
Nsg390
VTamid 29b:6
p2658
sg392
(lp2659
sg394
g61
sg395
Nsg396
(lp2660
I58
aI6
asg398
Nsg399
g2658
sg400
(lp2661
sg402
g363
sg403
Nsg404
Nsg405
Nsbag3
(g4
g5
NtRp2662
(dp2663
g8
g10
sg383
Nsg384
(dp2664
sg386
Nsg25
g27
sg387
(lp2665
I58
aI7
asg389
Nsg390
VTamid 29b:7
p2666
sg392
(lp2667
sg394
g61
sg395
Nsg396
(lp2668
I58
aI7
asg398
Nsg399
g2666
sg400
(lp2669
sg402
g363
sg403
Nsg404
Nsg405
Nsbag3
(g4
g5
NtRp2670
(dp2671
g8
g10
sg383
Nsg384
(dp2672
sg386
Nsg25
g27
sg387
(lp2673
I58
aI8
asg389
Nsg390
VTamid 29b:8
p2674
sg392
(lp2675
sg394
g61
sg395
Nsg396
(lp2676
I58
aI8
asg398
Nsg399
g2674
sg400
(lp2677
sg402
g363
sg403
Nsg404
Nsg405
Nsbag3
(g4
g5
NtRp2678
(dp2679
g8
g10
sg383
Nsg384
(dp2680
sg386
Nsg25
g27
sg387
(lp2681
I58
aI9
asg389
Nsg390
VTamid 29b:9
p2682
sg392
(lp2683
sg394
g61
sg395
Nsg396
(lp2684
I58
aI9
asg398
Nsg399
g2682
sg400
(lp2685
sg402
g363
sg403
Nsg404
Nsg405
Nsbag3
(g4
g5
NtRp2686
(dp2687
g8
g10
sg383
Nsg384
(dp2688
sg386
Nsg25
g27
sg387
(lp2689
I58
aI10
asg389
Nsg390
VTamid 29b:10
p2690
sg392
(lp2691
sg394
g61
sg395
Nsg396
(lp2692
I58
aI10
asg398
Nsg399
g2690
sg400
(lp2693
sg402
g363
sg403
Nsg404
Nsg405
Nsbag3
(g4
g5
NtRp2694
(dp2695
g8
g10
sg383
Nsg384
(dp2696
sg386
Nsg25
g27
sg387
(lp2697
I58
aI11
asg389
Nsg390
VTamid 29b:11
p2698
sg392
(lp2699
sg394
g61
sg395
Nsg396
(lp2700
I58
aI11
asg398
Nsg399
g2698
sg400
(lp2701
sg402
g363
sg403
Nsg404
Nsg405
Nsbag3
(g4
g5
NtRp2702
(dp2703
g8
g10
sg383
Nsg384
(dp2704
sg386
Nsg25
g27
sg387
(lp2705
I58
aI12
asg389
Nsg390
VTamid 29b:12
p2706
sg392
(lp2707
sg394
g61
sg395
Nsg396
(lp2708
I58
aI12
asg398
Nsg399
g2706
sg400
(lp2709
sg402
g363
sg403
Nsg404
Nsg405
Nsbag3
(g4
g5
NtRp2710
(dp2711
g8
g10
sg383
Nsg384
(dp2712
sg386
Nsg25
g27
sg387
(lp2713
I58
aI13
asg389
Nsg390
VTamid 29b:13
p2714
sg392
(lp2715
sg394
g61
sg395
Nsg396
(lp2716
I58
aI13
asg398
Nsg399
g2714
sg400
(lp2717
sg402
g363
sg403
Nsg404
Nsg405
Nsbag3
(g4
g5
NtRp2718
(dp2719
g8
g10
sg383
Nsg384
(dp2720
sg386
Nsg25
g27
sg387
(lp2721
I58
aI14
asg389
Nsg390
VTamid 29b:14
p2722
sg392
(lp2723
sg394
g61
sg395
Nsg396
(lp2724
I58
aI14
asg398
Nsg399
g2722
sg400
(lp2725
sg402
g363
sg403
Nsg404
Nsg405
Nsbag3
(g4
g5
NtRp2726
(dp2727
g8
g10
sg383
Nsg384
(dp2728
sg386
Nsg25
g27
sg387
(lp2729
I58
aI15
asg389
Nsg390
VTamid 29b:15
p2730
sg392
(lp2731
sg394
g61
sg395
Nsg396
(lp2732
I58
aI15
asg398
Nsg399
g2730
sg400
(lp2733
sg402
g363
sg403
Nsg404
Nsg405
Nsbag3
(g4
g5
NtRp2734
(dp2735
g8
g10
sg383
Nsg384
(dp2736
sg386
Nsg25
g27
sg387
(lp2737
I58
aI16
asg389
Nsg390
VTamid 29b:16
p2738
sg392
(lp2739
sg394
g61
sg395
Nsg396
(lp2740
I58
aI16
asg398
Nsg399
g2738
sg400
(lp2741
sg402
g363
sg403
Nsg404
Nsg405
Nsbag3
(g4
g5
NtRp2742
(dp2743
g8
g10
sg383
Nsg384
(dp2744
sg386
Nsg25
g27
sg387
(lp2745
I58
aI17
asg389
Nsg390
VTamid 29b:17
p2746
sg392
(lp2747
sg394
g61
sg395
Nsg396
(lp2748
I58
aI17
asg398
Nsg399
g2746
sg400
(lp2749
sg402
g363
sg403
Nsg404
Nsg405
Nsbag3
(g4
g5
NtRp2750
(dp2751
g8
g10
sg383
Nsg384
(dp2752
sg386
Nsg25
g27
sg387
(lp2753
I58
aI18
asg389
Nsg390
VTamid 29b:18
p2754
sg392
(lp2755
sg394
g61
sg395
Nsg396
(lp2756
I58
aI18
asg398
Nsg399
g2754
sg400
(lp2757
sg402
g363
sg403
Nsg404
Nsg405
Nsbag3
(g4
g5
NtRp2758
(dp2759
g8
g10
sg383
Nsg384
(dp2760
sg386
Nsg25
g27
sg387
(lp2761
I58
aI19
asg389
Nsg390
VTamid 29b:19
p2762
sg392
(lp2763
sg394
g61
sg395
Nsg396
(lp2764
I58
aI19
asg398
Nsg399
g2762
sg400
(lp2765
sg402
g363
sg403
Nsg404
Nsg405
Nsbag3
(g4
g5
NtRp2766
(dp2767
g8
g10
sg383
Nsg384
(dp2768
sg386
Nsg25
g27
sg387
(lp2769
I58
aI20
asg389
Nsg390
VTamid 29b:20
p2770
sg392
(lp2771
sg394
g61
sg395
Nsg396
(lp2772
I58
aI20
asg398
Nsg399
g2770
sg400
(lp2773
sg402
g363
sg403
Nsg404
Nsg405
Nsbag3
(g4
g5
NtRp2774
(dp2775
g8
g10
sg383
Nsg384
(dp2776
sg386
Nsg25
g27
sg387
(lp2777
I58
aI21
asg389
Nsg390
VTamid 29b:21
p2778
sg392
(lp2779
sg394
g61
sg395
Nsg396
(lp2780
I58
aI21
asg398
Nsg399
g2778
sg400
(lp2781
sg402
g363
sg403
Nsg404
Nsg405
Nsbag3
(g4
g5
NtRp2782
(dp2783
g8
g10
sg383
Nsg384
(dp2784
sg386
Nsg25
g27
sg387
(lp2785
I58
aI22
asg389
Nsg390
VTamid 29b:22
p2786
sg392
(lp2787
sg394
g61
sg395
Nsg396
(lp2788
I58
aI22
asg398
Nsg399
g2786
sg400
(lp2789
sg402
g363
sg403
Nsg404
Nsg405
Nsbag3
(g4
g5
NtRp2790
(dp2791
g8
g10
sg383
Nsg384
(dp2792
sg386
Nsg25
g27
sg387
(lp2793
I58
aI23
asg389
Nsg390
VTamid 29b:23
p2794
sg392
(lp2795
sg394
g61
sg395
Nsg396
(lp2796
I58
aI23
asg398
Nsg399
g2794
sg400
(lp2797
sg402
g363
sg403
Nsg404
Nsg405
Nsbag3
(g4
g5
NtRp2798
(dp2799
g8
g10
sg383
Nsg384
(dp2800
sg386
Nsg25
g27
sg387
(lp2801
I58
aI24
asg389
Nsg390
VTamid 29b:24
p2802
sg392
(lp2803
sg394
g61
sg395
Nsg396
(lp2804
I58
aI24
asg398
Nsg399
g2802
sg400
(lp2805
sg402
g363
sg403
Nsg404
Nsg405
Nsbag3
(g4
g5
NtRp2806
(dp2807
g8
g10
sg383
Nsg384
(dp2808
sg386
Nsg25
g27
sg387
(lp2809
I58
aI25
asg389
Nsg390
VTamid 29b:25
p2810
sg392
(lp2811
sg394
g61
sg395
Nsg396
(lp2812
I58
aI25
asg398
Nsg399
g2810
sg400
(lp2813
sg402
g363
sg403
Nsg404
Nsg405
Nsbag3
(g4
g5
NtRp2814
(dp2815
g8
g10
sg383
Nsg384
(dp2816
sg386
Nsg25
g27
sg387
(lp2817
I58
aI26
asg389
Nsg390
VTamid 29b:26
p2818
sg392
(lp2819
sg394
g61
sg395
Nsg396
(lp2820
I58
aI26
asg398
Nsg399
g2818
sg400
(lp2821
sg402
g363
sg403
Nsg404
Nsg405
Nsbag3
(g4
g5
NtRp2822
(dp2823
g8
g10
sg383
Nsg384
(dp2824
sg386
Nsg25
g27
sg387
(lp2825
I58
aI27
asg389
Nsg390
VTamid 29b:27
p2826
sg392
(lp2827
sg394
g61
sg395
Nsg396
(lp2828
I58
aI27
asg398
Nsg399
g2826
sg400
(lp2829
sg402
g363
sg403
Nsg404
Nsg405
Nsbag3
(g4
g5
NtRp2830
(dp2831
g8
g10
sg383
Nsg384
(dp2832
sg386
Nsg25
g27
sg387
(lp2833
I58
aI28
asg389
Nsg390
VTamid 29b:28
p2834
sg392
(lp2835
sg394
g61
sg395
Nsg396
(lp2836
I58
aI28
asg398
Nsg399
g2834
sg400
(lp2837
sg402
g363
sg403
Nsg404
Nsg405
Nsbag3
(g4
g5
NtRp2838
(dp2839
g8
g10
sg383
Nsg384
(dp2840
sg386
Nsg25
g27
sg387
(lp2841
I58
aI29
asg389
Nsg390
VTamid 29b:29
p2842
sg392
(lp2843
sg394
g61
sg395
Nsg396
(lp2844
I58
aI29
asg398
Nsg399
g2842
sg400
(lp2845
sg402
g363
sg403
Nsg404
Nsg405
Nsbag3
(g4
g5
NtRp2846
(dp2847
g8
g10
sg383
Nsg384
(dp2848
sg386
Nsg25
g27
sg387
(lp2849
I58
aI30
asg389
Nsg390
VTamid 29b:30
p2850
sg392
(lp2851
sg394
g61
sg395
Nsg396
(lp2852
I58
aI30
asg398
Nsg399
g2850
sg400
(lp2853
sg402
g363
sg403
Nsg404
Nsg405
Nsbag3
(g4
g5
NtRp2854
(dp2855
g8
g10
sg383
Nsg384
(dp2856
sg386
Nsg25
g27
sg387
(lp2857
I58
aI31
asg389
Nsg390
VTamid 29b:31
p2858
sg392
(lp2859
sg394
g61
sg395
Nsg396
(lp2860
I58
aI31
asg398
Nsg399
g2858
sg400
(lp2861
sg402
g363
sg403
Nsg404
Nsg405
Nsbag3
(g4
g5
NtRp2862
(dp2863
g8
g10
sg383
Nsg384
(dp2864
sg386
Nsg25
g27
sg387
(lp2865
I58
aI32
asg389
Nsg390
VTamid 29b:32
p2866
sg392
(lp2867
sg394
g61
sg395
Nsg396
(lp2868
I58
aI32
asg398
Nsg399
g2866
sg400
(lp2869
sg402
g363
sg403
Nsg404
Nsg405
Nsbag3
(g4
g5
NtRp2870
(dp2871
g8
g10
sg383
Nsg384
(dp2872
sg386
Nsg25
g27
sg387
(lp2873
I59
aI1
asg389
Nsg390
VTamid 30a:1
p2874
sg392
(lp2875
sg394
g61
sg395
Nsg396
(lp2876
I59
aI1
asg398
Nsg399
g2874
sg400
(lp2877
sg402
g363
sg403
Nsg404
Nsg405
Nsbag3
(g4
g5
NtRp2878
(dp2879
g8
g10
sg383
Nsg384
(dp2880
sg386
Nsg25
g27
sg387
(lp2881
I59
aI2
asg389
Nsg390
VTamid 30a:2
p2882
sg392
(lp2883
sg394
g61
sg395
Nsg396
(lp2884
I59
aI2
asg398
Nsg399
g2882
sg400
(lp2885
sg402
g363
sg403
Nsg404
Nsg405
Nsbag3
(g4
g5
NtRp2886
(dp2887
g8
g10
sg383
Nsg384
(dp2888
sg386
Nsg25
g27
sg387
(lp2889
I59
aI3
asg389
Nsg390
VTamid 30a:3
p2890
sg392
(lp2891
sg394
g61
sg395
Nsg396
(lp2892
I59
aI3
asg398
Nsg399
g2890
sg400
(lp2893
sg402
g363
sg403
Nsg404
Nsg405
Nsbag3
(g4
g5
NtRp2894
(dp2895
g8
g10
sg383
Nsg384
(dp2896
sg386
Nsg25
g27
sg387
(lp2897
I59
aI4
asg389
Nsg390
VTamid 30a:4
p2898
sg392
(lp2899
sg394
g61
sg395
Nsg396
(lp2900
I59
aI4
asg398
Nsg399
g2898
sg400
(lp2901
sg402
g363
sg403
Nsg404
Nsg405
Nsbag3
(g4
g5
NtRp2902
(dp2903
g8
g10
sg383
Nsg384
(dp2904
sg386
Nsg25
g27
sg387
(lp2905
I59
aI5
asg389
Nsg390
VTamid 30a:5
p2906
sg392
(lp2907
sg394
g61
sg395
Nsg396
(lp2908
I59
aI5
asg398
Nsg399
g2906
sg400
(lp2909
sg402
g363
sg403
Nsg404
Nsg405
Nsbag3
(g4
g5
NtRp2910
(dp2911
g8
g10
sg383
Nsg384
(dp2912
sg386
Nsg25
g27
sg387
(lp2913
I59
aI6
asg389
Nsg390
VTamid 30a:6
p2914
sg392
(lp2915
sg394
g61
sg395
Nsg396
(lp2916
I59
aI6
asg398
Nsg399
g2914
sg400
(lp2917
sg402
g363
sg403
Nsg404
Nsg405
Nsbag3
(g4
g5
NtRp2918
(dp2919
g8
g10
sg383
Nsg384
(dp2920
sg386
Nsg25
g27
sg387
(lp2921
I59
aI7
asg389
Nsg390
VTamid 30a:7
p2922
sg392
(lp2923
sg394
g61
sg395
Nsg396
(lp2924
I59
aI7
asg398
Nsg399
g2922
sg400
(lp2925
sg402
g363
sg403
Nsg404
Nsg405
Nsbag3
(g4
g5
NtRp2926
(dp2927
g8
g10
sg383
Nsg384
(dp2928
sg386
Nsg25
g27
sg387
(lp2929
I59
aI8
asg389
Nsg390
VTamid 30a:8
p2930
sg392
(lp2931
sg394
g61
sg395
Nsg396
(lp2932
I59
aI8
asg398
Nsg399
g2930
sg400
(lp2933
sg402
g363
sg403
Nsg404
Nsg405
Nsbag3
(g4
g5
NtRp2934
(dp2935
g8
g10
sg383
Nsg384
(dp2936
sg386
Nsg25
g27
sg387
(lp2937
I59
aI9
asg389
Nsg390
VTamid 30a:9
p2938
sg392
(lp2939
sg394
g61
sg395
Nsg396
(lp2940
I59
aI9
asg398
Nsg399
g2938
sg400
(lp2941
sg402
g363
sg403
Nsg404
Nsg405
Nsbag3
(g4
g5
NtRp2942
(dp2943
g8
g10
sg383
Nsg384
(dp2944
sg386
Nsg25
g27
sg387
(lp2945
I59
aI10
asg389
Nsg390
VTamid 30a:10
p2946
sg392
(lp2947
sg394
g61
sg395
Nsg396
(lp2948
I59
aI10
asg398
Nsg399
g2946
sg400
(lp2949
sg402
g363
sg403
Nsg404
Nsg405
Nsbag3
(g4
g5
NtRp2950
(dp2951
g8
g10
sg383
Nsg384
(dp2952
sg386
Nsg25
g27
sg387
(lp2953
I59
aI11
asg389
Nsg390
VTamid 30a:11
p2954
sg392
(lp2955
sg394
g61
sg395
Nsg396
(lp2956
I59
aI11
asg398
Nsg399
g2954
sg400
(lp2957
sg402
g363
sg403
Nsg404
Nsg405
Nsbag3
(g4
g5
NtRp2958
(dp2959
g8
g10
sg383
Nsg384
(dp2960
sg386
Nsg25
g27
sg387
(lp2961
I59
aI12
asg389
Nsg390
VTamid 30a:12
p2962
sg392
(lp2963
sg394
g61
sg395
Nsg396
(lp2964
I59
aI12
asg398
Nsg399
g2962
sg400
(lp2965
sg402
g363
sg403
Nsg404
Nsg405
Nsbag3
(g4
g5
NtRp2966
(dp2967
g8
g10
sg383
Nsg384
(dp2968
sg386
Nsg25
g27
sg387
(lp2969
I59
aI13
asg389
Nsg390
VTamid 30a:13
p2970
sg392
(lp2971
sg394
g61
sg395
Nsg396
(lp2972
I59
aI13
asg398
Nsg399
g2970
sg400
(lp2973
sg402
g363
sg403
Nsg404
Nsg405
Nsbag3
(g4
g5
NtRp2974
(dp2975
g8
g10
sg383
Nsg384
(dp2976
sg386
Nsg25
g27
sg387
(lp2977
I59
aI14
asg389
Nsg390
VTamid 30a:14
p2978
sg392
(lp2979
sg394
g61
sg395
Nsg396
(lp2980
I59
aI14
asg398
Nsg399
g2978
sg400
(lp2981
sg402
g363
sg403
Nsg404
Nsg405
Nsbag3
(g4
g5
NtRp2982
(dp2983
g8
g10
sg383
Nsg384
(dp2984
sg386
Nsg25
g27
sg387
(lp2985
I59
aI15
asg389
Nsg390
VTamid 30a:15
p2986
sg392
(lp2987
sg394
g61
sg395
Nsg396
(lp2988
I59
aI15
asg398
Nsg399
g2986
sg400
(lp2989
sg402
g363
sg403
Nsg404
Nsg405
Nsbag3
(g4
g5
NtRp2990
(dp2991
g8
g10
sg383
Nsg384
(dp2992
sg386
Nsg25
g27
sg387
(lp2993
I59
aI16
asg389
Nsg390
VTamid 30a:16
p2994
sg392
(lp2995
sg394
g61
sg395
Nsg396
(lp2996
I59
aI16
asg398
Nsg399
g2994
sg400
(lp2997
sg402
g363
sg403
Nsg404
Nsg405
Nsbag3
(g4
g5
NtRp2998
(dp2999
g8
g10
sg383
Nsg384
(dp3000
sg386
Nsg25
g27
sg387
(lp3001
I59
aI17
asg389
Nsg390
VTamid 30a:17
p3002
sg392
(lp3003
sg394
g61
sg395
Nsg396
(lp3004
I59
aI17
asg398
Nsg399
g3002
sg400
(lp3005
sg402
g363
sg403
Nsg404
Nsg405
Nsbag3
(g4
g5
NtRp3006
(dp3007
g8
g10
sg383
Nsg384
(dp3008
sg386
Nsg25
g27
sg387
(lp3009
I59
aI18
asg389
Nsg390
VTamid 30a:18
p3010
sg392
(lp3011
sg394
g61
sg395
Nsg396
(lp3012
I59
aI18
asg398
Nsg399
g3010
sg400
(lp3013
sg402
g363
sg403
Nsg404
Nsg405
Nsbag3
(g4
g5
NtRp3014
(dp3015
g8
g10
sg383
Nsg384
(dp3016
sg386
Nsg25
g27
sg387
(lp3017
I59
aI19
asg389
Nsg390
VTamid 30a:19
p3018
sg392
(lp3019
sg394
g61
sg395
Nsg396
(lp3020
I59
aI19
asg398
Nsg399
g3018
sg400
(lp3021
sg402
g363
sg403
Nsg404
Nsg405
Nsbag3
(g4
g5
NtRp3022
(dp3023
g8
g10
sg383
Nsg384
(dp3024
sg386
Nsg25
g27
sg387
(lp3025
I59
aI20
asg389
Nsg390
VTamid 30a:20
p3026
sg392
(lp3027
sg394
g61
sg395
Nsg396
(lp3028
I59
aI20
asg398
Nsg399
g3026
sg400
(lp3029
sg402
g363
sg403
Nsg404
Nsg405
Nsbag3
(g4
g5
NtRp3030
(dp3031
g8
g10
sg383
Nsg384
(dp3032
sg386
Nsg25
g27
sg387
(lp3033
I59
aI21
asg389
Nsg390
VTamid 30a:21
p3034
sg392
(lp3035
sg394
g61
sg395
Nsg396
(lp3036
I59
aI21
asg398
Nsg399
g3034
sg400
(lp3037
sg402
g363
sg403
Nsg404
Nsg405
Nsbag3
(g4
g5
NtRp3038
(dp3039
g8
g10
sg383
Nsg384
(dp3040
sg386
Nsg25
g27
sg387
(lp3041
I59
aI22
asg389
Nsg390
VTamid 30a:22
p3042
sg392
(lp3043
sg394
g61
sg395
Nsg396
(lp3044
I59
aI22
asg398
Nsg399
g3042
sg400
(lp3045
sg402
g363
sg403
Nsg404
Nsg405
Nsbag3
(g4
g5
NtRp3046
(dp3047
g8
g10
sg383
Nsg384
(dp3048
sg386
Nsg25
g27
sg387
(lp3049
I59
aI23
asg389
Nsg390
VTamid 30a:23
p3050
sg392
(lp3051
sg394
g61
sg395
Nsg396
(lp3052
I59
aI23
asg398
Nsg399
g3050
sg400
(lp3053
sg402
g363
sg403
Nsg404
Nsg405
Nsbag3
(g4
g5
NtRp3054
(dp3055
g8
g10
sg383
Nsg384
(dp3056
sg386
Nsg25
g27
sg387
(lp3057
I59
aI24
asg389
Nsg390
VTamid 30a:24
p3058
sg392
(lp3059
sg394
g61
sg395
Nsg396
(lp3060
I59
aI24
asg398
Nsg399
g3058
sg400
(lp3061
sg402
g363
sg403
Nsg404
Nsg405
Nsbag3
(g4
g5
NtRp3062
(dp3063
g8
g10
sg383
Nsg384
(dp3064
sg386
Nsg25
g27
sg387
(lp3065
I59
aI25
asg389
Nsg390
VTamid 30a:25
p3066
sg392
(lp3067
sg394
g61
sg395
Nsg396
(lp3068
I59
aI25
asg398
Nsg399
g3066
sg400
(lp3069
sg402
g363
sg403
Nsg404
Nsg405
Nsbag3
(g4
g5
NtRp3070
(dp3071
g8
g10
sg383
Nsg384
(dp3072
sg386
Nsg25
g27
sg387
(lp3073
I59
aI26
asg389
Nsg390
VTamid 30a:26
p3074
sg392
(lp3075
sg394
g61
sg395
Nsg396
(lp3076
I59
aI26
asg398
Nsg399
g3074
sg400
(lp3077
sg402
g363
sg403
Nsg404
Nsg405
Nsbag3
(g4
g5
NtRp3078
(dp3079
g8
g10
sg383
Nsg384
(dp3080
sg386
Nsg25
g27
sg387
(lp3081
I59
aI27
asg389
Nsg390
VTamid 30a:27
p3082
sg392
(lp3083
sg394
g61
sg395
Nsg396
(lp3084
I59
aI27
asg398
Nsg399
g3082
sg400
(lp3085
sg402
g363
sg403
Nsg404
Nsg405
Nsbag3
(g4
g5
NtRp3086
(dp3087
g8
g10
sg383
Nsg384
(dp3088
sg386
Nsg25
g27
sg387
(lp3089
I59
aI28
asg389
Nsg390
VTamid 30a:28
p3090
sg392
(lp3091
sg394
g61
sg395
Nsg396
(lp3092
I59
aI28
asg398
Nsg399
g3090
sg400
(lp3093
sg402
g363
sg403
Nsg404
Nsg405
Nsbag3
(g4
g5
NtRp3094
(dp3095
g8
g10
sg383
Nsg384
(dp3096
sg386
Nsg25
g27
sg387
(lp3097
I59
aI29
asg389
Nsg390
VTamid 30a:29
p3098
sg392
(lp3099
sg394
g61
sg395
Nsg396
(lp3100
I59
aI29
asg398
Nsg399
g3098
sg400
(lp3101
sg402
g363
sg403
Nsg404
Nsg405
Nsbag3
(g4
g5
NtRp3102
(dp3103
g8
g10
sg383
Nsg384
(dp3104
sg386
Nsg25
g27
sg387
(lp3105
I60
aI1
asg389
Nsg390
VTamid 30b:1
p3106
sg392
(lp3107
sg394
g61
sg395
Nsg396
(lp3108
I60
aI1
asg398
Nsg399
g3106
sg400
(lp3109
sg402
g363
sg403
Nsg404
Nsg405
Nsbag3
(g4
g5
NtRp3110
(dp3111
g8
g10
sg383
Nsg384
(dp3112
sg386
Nsg25
g27
sg387
(lp3113
I60
aI2
asg389
Nsg390
VTamid 30b:2
p3114
sg392
(lp3115
sg394
g61
sg395
Nsg396
(lp3116
I60
aI2
asg398
Nsg399
g3114
sg400
(lp3117
sg402
g363
sg403
Nsg404
Nsg405
Nsbag3
(g4
g5
NtRp3118
(dp3119
g8
g10
sg383
Nsg384
(dp3120
sg386
Nsg25
g27
sg387
(lp3121
I60
aI3
asg389
Nsg390
VTamid 30b:3
p3122
sg392
(lp3123
sg394
g61
sg395
Nsg396
(lp3124
I60
aI3
asg398
Nsg399
g3122
sg400
(lp3125
sg402
g363
sg403
Nsg404
Nsg405
Nsbag3
(g4
g5
NtRp3126
(dp3127
g8
g10
sg383
Nsg384
(dp3128
sg386
Nsg25
g27
sg387
(lp3129
I60
aI4
asg389
Nsg390
VTamid 30b:4
p3130
sg392
(lp3131
sg394
g61
sg395
Nsg396
(lp3132
I60
aI4
asg398
Nsg399
g3130
sg400
(lp3133
sg402
g363
sg403
Nsg404
Nsg405
Nsbag3
(g4
g5
NtRp3134
(dp3135
g8
g10
sg383
Nsg384
(dp3136
sg386
Nsg25
g27
sg387
(lp3137
I60
aI5
asg389
Nsg390
VTamid 30b:5
p3138
sg392
(lp3139
sg394
g61
sg395
Nsg396
(lp3140
I60
aI5
asg398
Nsg399
g3138
sg400
(lp3141
sg402
g363
sg403
Nsg404
Nsg405
Nsbag3
(g4
g5
NtRp3142
(dp3143
g8
g10
sg383
Nsg384
(dp3144
sg386
Nsg25
g27
sg387
(lp3145
I60
aI6
asg389
Nsg390
VTamid 30b:6
p3146
sg392
(lp3147
sg394
g61
sg395
Nsg396
(lp3148
I60
aI6
asg398
Nsg399
g3146
sg400
(lp3149
sg402
g363
sg403
Nsg404
Nsg405
Nsbag3
(g4
g5
NtRp3150
(dp3151
g8
g10
sg383
Nsg384
(dp3152
sg386
Nsg25
g27
sg387
(lp3153
I60
aI7
asg389
Nsg390
VTamid 30b:7
p3154
sg392
(lp3155
sg394
g61
sg395
Nsg396
(lp3156
I60
aI7
asg398
Nsg399
g3154
sg400
(lp3157
sg402
g363
sg403
Nsg404
Nsg405
Nsbag3
(g4
g5
NtRp3158
(dp3159
g8
g10
sg383
Nsg384
(dp3160
sg386
Nsg25
g27
sg387
(lp3161
I60
aI8
asg389
Nsg390
VTamid 30b:8
p3162
sg392
(lp3163
sg394
g61
sg395
Nsg396
(lp3164
I60
aI8
asg398
Nsg399
g3162
sg400
(lp3165
sg402
g363
sg403
Nsg404
Nsg405
Nsbag3
(g4
g5
NtRp3166
(dp3167
g8
g10
sg383
Nsg384
(dp3168
sg386
Nsg25
g27
sg387
(lp3169
I60
aI9
asg389
Nsg390
VTamid 30b:9
p3170
sg392
(lp3171
sg394
g61
sg395
Nsg396
(lp3172
I60
aI9
asg398
Nsg399
g3170
sg400
(lp3173
sg402
g363
sg403
Nsg404
Nsg405
Nsbag3
(g4
g5
NtRp3174
(dp3175
g8
g10
sg383
Nsg384
(dp3176
sg386
Nsg25
g27
sg387
(lp3177
I60
aI10
asg389
Nsg390
VTamid 30b:10
p3178
sg392
(lp3179
sg394
g61
sg395
Nsg396
(lp3180
I60
aI10
asg398
Nsg399
g3178
sg400
(lp3181
sg402
g363
sg403
Nsg404
Nsg405
Nsbag3
(g4
g5
NtRp3182
(dp3183
g8
g10
sg383
Nsg384
(dp3184
sg386
Nsg25
g27
sg387
(lp3185
I60
aI11
asg389
Nsg390
VTamid 30b:11
p3186
sg392
(lp3187
sg394
g61
sg395
Nsg396
(lp3188
I60
aI11
asg398
Nsg399
g3186
sg400
(lp3189
sg402
g363
sg403
Nsg404
Nsg405
Nsbag3
(g4
g5
NtRp3190
(dp3191
g8
g10
sg383
Nsg384
(dp3192
sg386
Nsg25
g27
sg387
(lp3193
I60
aI12
asg389
Nsg390
VTamid 30b:12
p3194
sg392
(lp3195
sg394
g61
sg395
Nsg396
(lp3196
I60
aI12
asg398
Nsg399
g3194
sg400
(lp3197
sg402
g363
sg403
Nsg404
Nsg405
Nsbag3
(g4
g5
NtRp3198
(dp3199
g8
g10
sg383
Nsg384
(dp3200
sg386
Nsg25
g27
sg387
(lp3201
I60
aI13
asg389
Nsg390
VTamid 30b:13
p3202
sg392
(lp3203
sg394
g61
sg395
Nsg396
(lp3204
I60
aI13
asg398
Nsg399
g3202
sg400
(lp3205
sg402
g363
sg403
Nsg404
Nsg405
Nsbag3
(g4
g5
NtRp3206
(dp3207
g8
g10
sg383
Nsg384
(dp3208
sg386
Nsg25
g27
sg387
(lp3209
I60
aI14
asg389
Nsg390
VTamid 30b:14
p3210
sg392
(lp3211
sg394
g61
sg395
Nsg396
(lp3212
I60
aI14
asg398
Nsg399
g3210
sg400
(lp3213
sg402
g363
sg403
Nsg404
Nsg405
Nsbag3
(g4
g5
NtRp3214
(dp3215
g8
g10
sg383
Nsg384
(dp3216
sg386
Nsg25
g27
sg387
(lp3217
I60
aI15
asg389
Nsg390
VTamid 30b:15
p3218
sg392
(lp3219
sg394
g61
sg395
Nsg396
(lp3220
I60
aI15
asg398
Nsg399
g3218
sg400
(lp3221
sg402
g363
sg403
Nsg404
Nsg405
Nsbag3
(g4
g5
NtRp3222
(dp3223
g8
g10
sg383
Nsg384
(dp3224
sg386
Nsg25
g27
sg387
(lp3225
I60
aI16
asg389
Nsg390
VTamid 30b:16
p3226
sg392
(lp3227
sg394
g61
sg395
Nsg396
(lp3228
I60
aI16
asg398
Nsg399
g3226
sg400
(lp3229
sg402
g363
sg403
Nsg404
Nsg405
Nsbag3
(g4
g5
NtRp3230
(dp3231
g8
g10
sg383
Nsg384
(dp3232
sg386
Nsg25
g27
sg387
(lp3233
I60
aI17
asg389
Nsg390
VTamid 30b:17
p3234
sg392
(lp3235
sg394
g61
sg395
Nsg396
(lp3236
I60
aI17
asg398
Nsg399
g3234
sg400
(lp3237
sg402
g363
sg403
Nsg404
Nsg405
Nsbag3
(g4
g5
NtRp3238
(dp3239
g8
g10
sg383
Nsg384
(dp3240
sg386
Nsg25
g27
sg387
(lp3241
I60
aI18
asg389
Nsg390
VTamid 30b:18
p3242
sg392
(lp3243
sg394
g61
sg395
Nsg396
(lp3244
I60
aI18
asg398
Nsg399
g3242
sg400
(lp3245
sg402
g363
sg403
Nsg404
Nsg405
Nsbag3
(g4
g5
NtRp3246
(dp3247
g8
g10
sg383
Nsg384
(dp3248
sg386
Nsg25
g27
sg387
(lp3249
I60
aI19
asg389
Nsg390
VTamid 30b:19
p3250
sg392
(lp3251
sg394
g61
sg395
Nsg396
(lp3252
I60
aI19
asg398
Nsg399
g3250
sg400
(lp3253
sg402
g363
sg403
Nsg404
Nsg405
Nsbag3
(g4
g5
NtRp3254
(dp3255
g8
g10
sg383
Nsg384
(dp3256
sg386
Nsg25
g27
sg387
(lp3257
I60
aI20
asg389
Nsg390
VTamid 30b:20
p3258
sg392
(lp3259
sg394
g61
sg395
Nsg396
(lp3260
I60
aI20
asg398
Nsg399
g3258
sg400
(lp3261
sg402
g363
sg403
Nsg404
Nsg405
Nsbag3
(g4
g5
NtRp3262
(dp3263
g8
g10
sg383
Nsg384
(dp3264
sg386
Nsg25
g27
sg387
(lp3265
I60
aI21
asg389
Nsg390
VTamid 30b:21
p3266
sg392
(lp3267
sg394
g61
sg395
Nsg396
(lp3268
I60
aI21
asg398
Nsg399
g3266
sg400
(lp3269
sg402
g363
sg403
Nsg404
Nsg405
Nsbag3
(g4
g5
NtRp3270
(dp3271
g8
g10
sg383
Nsg384
(dp3272
sg386
Nsg25
g27
sg387
(lp3273
I60
aI22
asg389
Nsg390
VTamid 30b:22
p3274
sg392
(lp3275
sg394
g61
sg395
Nsg396
(lp3276
I60
aI22
asg398
Nsg399
g3274
sg400
(lp3277
sg402
g363
sg403
Nsg404
Nsg405
Nsbag3
(g4
g5
NtRp3278
(dp3279
g8
g10
sg383
Nsg384
(dp3280
sg386
Nsg25
g27
sg387
(lp3281
I60
aI23
asg389
Nsg390
VTamid 30b:23
p3282
sg392
(lp3283
sg394
g61
sg395
Nsg396
(lp3284
I60
aI23
asg398
Nsg399
g3282
sg400
(lp3285
sg402
g363
sg403
Nsg404
Nsg405
Nsbag3
(g4
g5
NtRp3286
(dp3287
g8
g10
sg383
Nsg384
(dp3288
sg386
Nsg25
g27
sg387
(lp3289
I60
aI24
asg389
Nsg390
VTamid 30b:24
p3290
sg392
(lp3291
sg394
g61
sg395
Nsg396
(lp3292
I60
aI24
asg398
Nsg399
g3290
sg400
(lp3293
sg402
g363
sg403
Nsg404
Nsg405
Nsbag3
(g4
g5
NtRp3294
(dp3295
g8
g10
sg383
Nsg384
(dp3296
sg386
Nsg25
g27
sg387
(lp3297
I60
aI25
asg389
Nsg390
VTamid 30b:25
p3298
sg392
(lp3299
sg394
g61
sg395
Nsg396
(lp3300
I60
aI25
asg398
Nsg399
g3298
sg400
(lp3301
sg402
g363
sg403
Nsg404
Nsg405
Nsbag3
(g4
g5
NtRp3302
(dp3303
g8
g10
sg383
Nsg384
(dp3304
sg386
Nsg25
g27
sg387
(lp3305
I60
aI26
asg389
Nsg390
VTamid 30b:26
p3306
sg392
(lp3307
sg394
g61
sg395
Nsg396
(lp3308
I60
aI26
asg398
Nsg399
g3306
sg400
(lp3309
sg402
g363
sg403
Nsg404
Nsg405
Nsbag3
(g4
g5
NtRp3310
(dp3311
g8
g10
sg383
Nsg384
(dp3312
sg386
Nsg25
g27
sg387
(lp3313
I60
aI27
asg389
Nsg390
VTamid 30b:27
p3314
sg392
(lp3315
sg394
g61
sg395
Nsg396
(lp3316
I60
aI27
asg398
Nsg399
g3314
sg400
(lp3317
sg402
g363
sg403
Nsg404
Nsg405
Nsbag3
(g4
g5
NtRp3318
(dp3319
g8
g10
sg383
Nsg384
(dp3320
sg386
Nsg25
g27
sg387
(lp3321
I60
aI28
asg389
Nsg390
VTamid 30b:28
p3322
sg392
(lp3323
sg394
g61
sg395
Nsg396
(lp3324
I60
aI28
asg398
Nsg399
g3322
sg400
(lp3325
sg402
g363
sg403
Nsg404
Nsg405
Nsbag3
(g4
g5
NtRp3326
(dp3327
g8
g10
sg383
Nsg384
(dp3328
sg386
Nsg25
g27
sg387
(lp3329
I60
aI29
asg389
Nsg390
VTamid 30b:29
p3330
sg392
(lp3331
sg394
g61
sg395
Nsg396
(lp3332
I60
aI29
asg398
Nsg399
g3330
sg400
(lp3333
sg402
g363
sg403
Nsg404
Nsg405
Nsbag3
(g4
g5
NtRp3334
(dp3335
g8
g10
sg383
Nsg384
(dp3336
sg386
Nsg25
g27
sg387
(lp3337
I60
aI30
asg389
Nsg390
VTamid 30b:30
p3338
sg392
(lp3339
sg394
g61
sg395
Nsg396
(lp3340
I60
aI30
asg398
Nsg399
g3338
sg400
(lp3341
sg402
g363
sg403
Nsg404
Nsg405
Nsbag3
(g4
g5
NtRp3342
(dp3343
g8
g10
sg383
Nsg384
(dp3344
sg386
Nsg25
g27
sg387
(lp3345
I60
aI31
asg389
Nsg390
VTamid 30b:31
p3346
sg392
(lp3347
sg394
g61
sg395
Nsg396
(lp3348
I60
aI31
asg398
Nsg399
g3346
sg400
(lp3349
sg402
g363
sg403
Nsg404
Nsg405
Nsbag3
(g4
g5
NtRp3350
(dp3351
g8
g10
sg383
Nsg384
(dp3352
sg386
Nsg25
g27
sg387
(lp3353
I60
aI32
asg389
Nsg390
VTamid 30b:32
p3354
sg392
(lp3355
sg394
g61
sg395
Nsg396
(lp3356
I60
aI32
asg398
Nsg399
g3354
sg400
(lp3357
sg402
g363
sg403
Nsg404
Nsg405
Nsbag3
(g4
g5
NtRp3358
(dp3359
g8
g10
sg383
Nsg384
(dp3360
sg386
Nsg25
g27
sg387
(lp3361
I60
aI33
asg389
Nsg390
VTamid 30b:33
p3362
sg392
(lp3363
sg394
g61
sg395
Nsg396
(lp3364
I60
aI33
asg398
Nsg399
g3362
sg400
(lp3365
sg402
g363
sg403
Nsg404
Nsg405
Nsbag3
(g4
g5
NtRp3366
(dp3367
g8
g10
sg383
Nsg384
(dp3368
sg386
Nsg25
g27
sg387
(lp3369
I60
aI34
asg389
Nsg390
VTamid 30b:34
p3370
sg392
(lp3371
sg394
g61
sg395
Nsg396
(lp3372
I60
aI34
asg398
Nsg399
g3370
sg400
(lp3373
sg402
g363
sg403
Nsg404
Nsg405
Nsbag3
(g4
g5
NtRp3374
(dp3375
g8
g10
sg383
Nsg384
(dp3376
sg386
Nsg25
g27
sg387
(lp3377
I60
aI35
asg389
Nsg390
VTamid 30b:35
p3378
sg392
(lp3379
sg394
g61
sg395
Nsg396
(lp3380
I60
aI35
asg398
Nsg399
g3378
sg400
(lp3381
sg402
g363
sg403
Nsg404
Nsg405
Nsbag3
(g4
g5
NtRp3382
(dp3383
g8
g10
sg383
Nsg384
(dp3384
sg386
Nsg25
g27
sg387
(lp3385
I60
aI36
asg389
Nsg390
VTamid 30b:36
p3386
sg392
(lp3387
sg394
g61
sg395
Nsg396
(lp3388
I60
aI36
asg398
Nsg399
g3386
sg400
(lp3389
sg402
g363
sg403
Nsg404
Nsg405
Nsbag3
(g4
g5
NtRp3390
(dp3391
g8
g10
sg383
Nsg384
(dp3392
sg386
Nsg25
g27
sg387
(lp3393
I60
aI37
asg389
Nsg390
VTamid 30b:37
p3394
sg392
(lp3395
sg394
g61
sg395
Nsg396
(lp3396
I60
aI37
asg398
Nsg399
g3394
sg400
(lp3397
sg402
g363
sg403
Nsg404
Nsg405
Nsbag3
(g4
g5
NtRp3398
(dp3399
g8
g10
sg383
Nsg384
(dp3400
sg386
Nsg25
g27
sg387
(lp3401
I60
aI38
asg389
Nsg390
VTamid 30b:38
p3402
sg392
(lp3403
sg394
g61
sg395
Nsg396
(lp3404
I60
aI38
asg398
Nsg399
g3402
sg400
(lp3405
sg402
g363
sg403
Nsg404
Nsg405
Nsbag3
(g4
g5
NtRp3406
(dp3407
g8
g10
sg383
Nsg384
(dp3408
sg386
Nsg25
g27
sg387
(lp3409
I60
aI39
asg389
Nsg390
VTamid 30b:39
p3410
sg392
(lp3411
sg394
g61
sg395
Nsg396
(lp3412
I60
aI39
asg398
Nsg399
g3410
sg400
(lp3413
sg402
g363
sg403
Nsg404
Nsg405
Nsbag3
(g4
g5
NtRp3414
(dp3415
g8
g10
sg383
Nsg384
(dp3416
sg386
Nsg25
g27
sg387
(lp3417
I60
aI40
asg389
Nsg390
VTamid 30b:40
p3418
sg392
(lp3419
sg394
g61
sg395
Nsg396
(lp3420
I60
aI40
asg398
Nsg399
g3418
sg400
(lp3421
sg402
g363
sg403
Nsg404
Nsg405
Nsbag3
(g4
g5
NtRp3422
(dp3423
g8
g10
sg383
Nsg384
(dp3424
sg386
Nsg25
g27
sg387
(lp3425
I60
aI41
asg389
Nsg390
VTamid 30b:41
p3426
sg392
(lp3427
sg394
g61
sg395
Nsg396
(lp3428
I60
aI41
asg398
Nsg399
g3426
sg400
(lp3429
sg402
g363
sg403
Nsg404
Nsg405
Nsbag3
(g4
g5
NtRp3430
(dp3431
g8
g10
sg383
Nsg384
(dp3432
sg386
Nsg25
g27
sg387
(lp3433
I60
aI42
asg389
Nsg390
VTamid 30b:42
p3434
sg392
(lp3435
sg394
g61
sg395
Nsg396
(lp3436
I60
aI42
asg398
Nsg399
g3434
sg400
(lp3437
sg402
g363
sg403
Nsg404
Nsg405
Nsbag3
(g4
g5
NtRp3438
(dp3439
g8
g10
sg383
Nsg384
(dp3440
sg386
Nsg25
g27
sg387
(lp3441
I60
aI43
asg389
Nsg390
VTamid 30b:43
p3442
sg392
(lp3443
sg394
g61
sg395
Nsg396
(lp3444
I60
aI43
asg398
Nsg399
g3442
sg400
(lp3445
sg402
g363
sg403
Nsg404
Nsg405
Nsbag3
(g4
g5
NtRp3446
(dp3447
g8
g10
sg383
Nsg384
(dp3448
sg386
Nsg25
g27
sg387
(lp3449
I60
aI44
asg389
Nsg390
VTamid 30b:44
p3450
sg392
(lp3451
sg394
g61
sg395
Nsg396
(lp3452
I60
aI44
asg398
Nsg399
g3450
sg400
(lp3453
sg402
g363
sg403
Nsg404
Nsg405
Nsbag3
(g4
g5
NtRp3454
(dp3455
g8
g10
sg383
Nsg384
(dp3456
sg386
Nsg25
g27
sg387
(lp3457
I61
aI1
asg389
Nsg390
VTamid 31a:1
p3458
sg392
(lp3459
sg394
g61
sg395
Nsg396
(lp3460
I61
aI1
asg398
Nsg399
g3458
sg400
(lp3461
sg402
g363
sg403
Nsg404
Nsg405
Nsbag3
(g4
g5
NtRp3462
(dp3463
g8
g10
sg383
Nsg384
(dp3464
sg386
Nsg25
g27
sg387
(lp3465
I61
aI2
asg389
Nsg390
VTamid 31a:2
p3466
sg392
(lp3467
sg394
g61
sg395
Nsg396
(lp3468
I61
aI2
asg398
Nsg399
g3466
sg400
(lp3469
sg402
g363
sg403
Nsg404
Nsg405
Nsbag3
(g4
g5
NtRp3470
(dp3471
g8
g10
sg383
Nsg384
(dp3472
sg386
Nsg25
g27
sg387
(lp3473
I61
aI3
asg389
Nsg390
VTamid 31a:3
p3474
sg392
(lp3475
sg394
g61
sg395
Nsg396
(lp3476
I61
aI3
asg398
Nsg399
g3474
sg400
(lp3477
sg402
g363
sg403
Nsg404
Nsg405
Nsbag3
(g4
g5
NtRp3478
(dp3479
g8
g10
sg383
Nsg384
(dp3480
sg386
Nsg25
g27
sg387
(lp3481
I61
aI4
asg389
Nsg390
VTamid 31a:4
p3482
sg392
(lp3483
sg394
g61
sg395
Nsg396
(lp3484
I61
aI4
asg398
Nsg399
g3482
sg400
(lp3485
sg402
g363
sg403
Nsg404
Nsg405
Nsbag3
(g4
g5
NtRp3486
(dp3487
g8
g10
sg383
Nsg384
(dp3488
sg386
Nsg25
g27
sg387
(lp3489
I61
aI5
asg389
Nsg390
VTamid 31a:5
p3490
sg392
(lp3491
sg394
g61
sg395
Nsg396
(lp3492
I61
aI5
asg398
Nsg399
g3490
sg400
(lp3493
sg402
g363
sg403
Nsg404
Nsg405
Nsbag3
(g4
g5
NtRp3494
(dp3495
g8
g10
sg383
Nsg384
(dp3496
sg386
Nsg25
g27
sg387
(lp3497
I61
aI6
asg389
Nsg390
VTamid 31a:6
p3498
sg392
(lp3499
sg394
g61
sg395
Nsg396
(lp3500
I61
aI6
asg398
Nsg399
g3498
sg400
(lp3501
sg402
g363
sg403
Nsg404
Nsg405
Nsbag3
(g4
g5
NtRp3502
(dp3503
g8
g10
sg383
Nsg384
(dp3504
sg386
Nsg25
g27
sg387
(lp3505
I61
aI7
asg389
Nsg390
VTamid 31a:7
p3506
sg392
(lp3507
sg394
g61
sg395
Nsg396
(lp3508
I61
aI7
asg398
Nsg399
g3506
sg400
(lp3509
sg402
g363
sg403
Nsg404
Nsg405
Nsbag3
(g4
g5
NtRp3510
(dp3511
g8
g10
sg383
Nsg384
(dp3512
sg386
Nsg25
g27
sg387
(lp3513
I61
aI8
asg389
Nsg390
VTamid 31a:8
p3514
sg392
(lp3515
sg394
g61
sg395
Nsg396
(lp3516
I61
aI8
asg398
Nsg399
g3514
sg400
(lp3517
sg402
g363
sg403
Nsg404
Nsg405
Nsbag3
(g4
g5
NtRp3518
(dp3519
g8
g10
sg383
Nsg384
(dp3520
sg386
Nsg25
g27
sg387
(lp3521
I61
aI9
asg389
Nsg390
VTamid 31a:9
p3522
sg392
(lp3523
sg394
g61
sg395
Nsg396
(lp3524
I61
aI9
asg398
Nsg399
g3522
sg400
(lp3525
sg402
g363
sg403
Nsg404
Nsg405
Nsbag3
(g4
g5
NtRp3526
(dp3527
g8
g10
sg383
Nsg384
(dp3528
sg386
Nsg25
g27
sg387
(lp3529
I61
aI10
asg389
Nsg390
VTamid 31a:10
p3530
sg392
(lp3531
sg394
g61
sg395
Nsg396
(lp3532
I61
aI10
asg398
Nsg399
g3530
sg400
(lp3533
sg402
g363
sg403
Nsg404
Nsg405
Nsbag3
(g4
g5
NtRp3534
(dp3535
g8
g10
sg383
Nsg384
(dp3536
sg386
Nsg25
g27
sg387
(lp3537
I61
aI11
asg389
Nsg390
VTamid 31a:11
p3538
sg392
(lp3539
sg394
g61
sg395
Nsg396
(lp3540
I61
aI11
asg398
Nsg399
g3538
sg400
(lp3541
sg402
g363
sg403
Nsg404
Nsg405
Nsbag3
(g4
g5
NtRp3542
(dp3543
g8
g10
sg383
Nsg384
(dp3544
sg386
Nsg25
g27
sg387
(lp3545
I61
aI12
asg389
Nsg390
VTamid 31a:12
p3546
sg392
(lp3547
sg394
g61
sg395
Nsg396
(lp3548
I61
aI12
asg398
Nsg399
g3546
sg400
(lp3549
sg402
g363
sg403
Nsg404
Nsg405
Nsbag3
(g4
g5
NtRp3550
(dp3551
g8
g10
sg383
Nsg384
(dp3552
sg386
Nsg25
g27
sg387
(lp3553
I61
aI13
asg389
Nsg390
VTamid 31a:13
p3554
sg392
(lp3555
sg394
g61
sg395
Nsg396
(lp3556
I61
aI13
asg398
Nsg399
g3554
sg400
(lp3557
sg402
g363
sg403
Nsg404
Nsg405
Nsbag3
(g4
g5
NtRp3558
(dp3559
g8
g10
sg383
Nsg384
(dp3560
sg386
Nsg25
g27
sg387
(lp3561
I61
aI14
asg389
Nsg390
VTamid 31a:14
p3562
sg392
(lp3563
sg394
g61
sg395
Nsg396
(lp3564
I61
aI14
asg398
Nsg399
g3562
sg400
(lp3565
sg402
g363
sg403
Nsg404
Nsg405
Nsbag3
(g4
g5
NtRp3566
(dp3567
g8
g10
sg383
Nsg384
(dp3568
sg386
Nsg25
g27
sg387
(lp3569
I61
aI15
asg389
Nsg390
VTamid 31a:15
p3570
sg392
(lp3571
sg394
g61
sg395
Nsg396
(lp3572
I61
aI15
asg398
Nsg399
g3570
sg400
(lp3573
sg402
g363
sg403
Nsg404
Nsg405
Nsbag3
(g4
g5
NtRp3574
(dp3575
g8
g10
sg383
Nsg384
(dp3576
sg386
Nsg25
g27
sg387
(lp3577
I61
aI16
asg389
Nsg390
VTamid 31a:16
p3578
sg392
(lp3579
sg394
g61
sg395
Nsg396
(lp3580
I61
aI16
asg398
Nsg399
g3578
sg400
(lp3581
sg402
g363
sg403
Nsg404
Nsg405
Nsbag3
(g4
g5
NtRp3582
(dp3583
g8
g10
sg383
Nsg384
(dp3584
sg386
Nsg25
g27
sg387
(lp3585
I61
aI17
asg389
Nsg390
VTamid 31a:17
p3586
sg392
(lp3587
sg394
g61
sg395
Nsg396
(lp3588
I61
aI17
asg398
Nsg399
g3586
sg400
(lp3589
sg402
g363
sg403
Nsg404
Nsg405
Nsbag3
(g4
g5
NtRp3590
(dp3591
g8
g10
sg383
Nsg384
(dp3592
sg386
Nsg25
g27
sg387
(lp3593
I61
aI18
asg389
Nsg390
VTamid 31a:18
p3594
sg392
(lp3595
sg394
g61
sg395
Nsg396
(lp3596
I61
aI18
asg398
Nsg399
g3594
sg400
(lp3597
sg402
g363
sg403
Nsg404
Nsg405
Nsbag3
(g4
g5
NtRp3598
(dp3599
g8
g10
sg383
Nsg384
(dp3600
sg386
Nsg25
g27
sg387
(lp3601
I61
aI19
asg389
Nsg390
VTamid 31a:19
p3602
sg392
(lp3603
sg394
g61
sg395
Nsg396
(lp3604
I61
aI19
asg398
Nsg399
g3602
sg400
(lp3605
sg402
g363
sg403
Nsg404
Nsg405
Nsbag3
(g4
g5
NtRp3606
(dp3607
g8
g10
sg383
Nsg384
(dp3608
sg386
Nsg25
g27
sg387
(lp3609
I61
aI20
asg389
Nsg390
VTamid 31a:20
p3610
sg392
(lp3611
sg394
g61
sg395
Nsg396
(lp3612
I61
aI20
asg398
Nsg399
g3610
sg400
(lp3613
sg402
g363
sg403
Nsg404
Nsg405
Nsbag3
(g4
g5
NtRp3614
(dp3615
g8
g10
sg383
Nsg384
(dp3616
sg386
Nsg25
g27
sg387
(lp3617
I61
aI21
asg389
Nsg390
VTamid 31a:21
p3618
sg392
(lp3619
sg394
g61
sg395
Nsg396
(lp3620
I61
aI21
asg398
Nsg399
g3618
sg400
(lp3621
sg402
g363
sg403
Nsg404
Nsg405
Nsbag3
(g4
g5
NtRp3622
(dp3623
g8
g10
sg383
Nsg384
(dp3624
sg386
Nsg25
g27
sg387
(lp3625
I61
aI22
asg389
Nsg390
VTamid 31a:22
p3626
sg392
(lp3627
sg394
g61
sg395
Nsg396
(lp3628
I61
aI22
asg398
Nsg399
g3626
sg400
(lp3629
sg402
g363
sg403
Nsg404
Nsg405
Nsbag3
(g4
g5
NtRp3630
(dp3631
g8
g10
sg383
Nsg384
(dp3632
sg386
Nsg25
g27
sg387
(lp3633
I61
aI23
asg389
Nsg390
VTamid 31a:23
p3634
sg392
(lp3635
sg394
g61
sg395
Nsg396
(lp3636
I61
aI23
asg398
Nsg399
g3634
sg400
(lp3637
sg402
g363
sg403
Nsg404
Nsg405
Nsbag3
(g4
g5
NtRp3638
(dp3639
g8
g10
sg383
Nsg384
(dp3640
sg386
Nsg25
g27
sg387
(lp3641
I61
aI24
asg389
Nsg390
VTamid 31a:24
p3642
sg392
(lp3643
sg394
g61
sg395
Nsg396
(lp3644
I61
aI24
asg398
Nsg399
g3642
sg400
(lp3645
sg402
g363
sg403
Nsg404
Nsg405
Nsbag3
(g4
g5
NtRp3646
(dp3647
g8
g10
sg383
Nsg384
(dp3648
sg386
Nsg25
g27
sg387
(lp3649
I61
aI25
asg389
Nsg390
VTamid 31a:25
p3650
sg392
(lp3651
sg394
g61
sg395
Nsg396
(lp3652
I61
aI25
asg398
Nsg399
g3650
sg400
(lp3653
sg402
g363
sg403
Nsg404
Nsg405
Nsbag3
(g4
g5
NtRp3654
(dp3655
g8
g10
sg383
Nsg384
(dp3656
sg386
Nsg25
g27
sg387
(lp3657
I62
aI1
asg389
Nsg390
VTamid 31b:1
p3658
sg392
(lp3659
sg394
g61
sg395
Nsg396
(lp3660
I62
aI1
asg398
Nsg399
g3658
sg400
(lp3661
sg402
g363
sg403
Nsg404
Nsg405
Nsbag3
(g4
g5
NtRp3662
(dp3663
g8
g10
sg383
Nsg384
(dp3664
sg386
Nsg25
g27
sg387
(lp3665
I62
aI2
asg389
Nsg390
VTamid 31b:2
p3666
sg392
(lp3667
sg394
g61
sg395
Nsg396
(lp3668
I62
aI2
asg398
Nsg399
g3666
sg400
(lp3669
sg402
g363
sg403
Nsg404
Nsg405
Nsbag3
(g4
g5
NtRp3670
(dp3671
g8
g10
sg383
Nsg384
(dp3672
sg386
Nsg25
g27
sg387
(lp3673
I62
aI3
asg389
Nsg390
VTamid 31b:3
p3674
sg392
(lp3675
sg394
g61
sg395
Nsg396
(lp3676
I62
aI3
asg398
Nsg399
g3674
sg400
(lp3677
sg402
g363
sg403
Nsg404
Nsg405
Nsbag3
(g4
g5
NtRp3678
(dp3679
g8
g10
sg383
Nsg384
(dp3680
sg386
Nsg25
g27
sg387
(lp3681
I62
aI4
asg389
Nsg390
VTamid 31b:4
p3682
sg392
(lp3683
sg394
g61
sg395
Nsg396
(lp3684
I62
aI4
asg398
Nsg399
g3682
sg400
(lp3685
sg402
g363
sg403
Nsg404
Nsg405
Nsbag3
(g4
g5
NtRp3686
(dp3687
g8
g10
sg383
Nsg384
(dp3688
sg386
Nsg25
g27
sg387
(lp3689
I62
aI5
asg389
Nsg390
VTamid 31b:5
p3690
sg392
(lp3691
sg394
g61
sg395
Nsg396
(lp3692
I62
aI5
asg398
Nsg399
g3690
sg400
(lp3693
sg402
g363
sg403
Nsg404
Nsg405
Nsbag3
(g4
g5
NtRp3694
(dp3695
g8
g10
sg383
Nsg384
(dp3696
sg386
Nsg25
g27
sg387
(lp3697
I62
aI6
asg389
Nsg390
VTamid 31b:6
p3698
sg392
(lp3699
sg394
g61
sg395
Nsg396
(lp3700
I62
aI6
asg398
Nsg399
g3698
sg400
(lp3701
sg402
g363
sg403
Nsg404
Nsg405
Nsbag3
(g4
g5
NtRp3702
(dp3703
g8
g10
sg383
Nsg384
(dp3704
sg386
Nsg25
g27
sg387
(lp3705
I62
aI7
asg389
Nsg390
VTamid 31b:7
p3706
sg392
(lp3707
sg394
g61
sg395
Nsg396
(lp3708
I62
aI7
asg398
Nsg399
g3706
sg400
(lp3709
sg402
g363
sg403
Nsg404
Nsg405
Nsbag3
(g4
g5
NtRp3710
(dp3711
g8
g10
sg383
Nsg384
(dp3712
sg386
Nsg25
g27
sg387
(lp3713
I62
aI8
asg389
Nsg390
VTamid 31b:8
p3714
sg392
(lp3715
sg394
g61
sg395
Nsg396
(lp3716
I62
aI8
asg398
Nsg399
g3714
sg400
(lp3717
sg402
g363
sg403
Nsg404
Nsg405
Nsbag3
(g4
g5
NtRp3718
(dp3719
g8
g10
sg383
Nsg384
(dp3720
sg386
Nsg25
g27
sg387
(lp3721
I62
aI9
asg389
Nsg390
VTamid 31b:9
p3722
sg392
(lp3723
sg394
g61
sg395
Nsg396
(lp3724
I62
aI9
asg398
Nsg399
g3722
sg400
(lp3725
sg402
g363
sg403
Nsg404
Nsg405
Nsbag3
(g4
g5
NtRp3726
(dp3727
g8
g10
sg383
Nsg384
(dp3728
sg386
Nsg25
g27
sg387
(lp3729
I62
aI10
asg389
Nsg390
VTamid 31b:10
p3730
sg392
(lp3731
sg394
g61
sg395
Nsg396
(lp3732
I62
aI10
asg398
Nsg399
g3730
sg400
(lp3733
sg402
g363
sg403
Nsg404
Nsg405
Nsbag3
(g4
g5
NtRp3734
(dp3735
g8
g10
sg383
Nsg384
(dp3736
sg386
Nsg25
g27
sg387
(lp3737
I62
aI11
asg389
Nsg390
VTamid 31b:11
p3738
sg392
(lp3739
sg394
g61
sg395
Nsg396
(lp3740
I62
aI11
asg398
Nsg399
g3738
sg400
(lp3741
sg402
g363
sg403
Nsg404
Nsg405
Nsbag3
(g4
g5
NtRp3742
(dp3743
g8
g10
sg383
Nsg384
(dp3744
sg386
Nsg25
g27
sg387
(lp3745
I62
aI12
asg389
Nsg390
VTamid 31b:12
p3746
sg392
(lp3747
sg394
g61
sg395
Nsg396
(lp3748
I62
aI12
asg398
Nsg399
g3746
sg400
(lp3749
sg402
g363
sg403
Nsg404
Nsg405
Nsbag3
(g4
g5
NtRp3750
(dp3751
g8
g10
sg383
Nsg384
(dp3752
sg386
Nsg25
g27
sg387
(lp3753
I62
aI13
asg389
Nsg390
VTamid 31b:13
p3754
sg392
(lp3755
sg394
g61
sg395
Nsg396
(lp3756
I62
aI13
asg398
Nsg399
g3754
sg400
(lp3757
sg402
g363
sg403
Nsg404
Nsg405
Nsbag3
(g4
g5
NtRp3758
(dp3759
g8
g10
sg383
Nsg384
(dp3760
sg386
Nsg25
g27
sg387
(lp3761
I62
aI14
asg389
Nsg390
VTamid 31b:14
p3762
sg392
(lp3763
sg394
g61
sg395
Nsg396
(lp3764
I62
aI14
asg398
Nsg399
g3762
sg400
(lp3765
sg402
g363
sg403
Nsg404
Nsg405
Nsbag3
(g4
g5
NtRp3766
(dp3767
g8
g10
sg383
Nsg384
(dp3768
sg386
Nsg25
g27
sg387
(lp3769
I62
aI15
asg389
Nsg390
VTamid 31b:15
p3770
sg392
(lp3771
sg394
g61
sg395
Nsg396
(lp3772
I62
aI15
asg398
Nsg399
g3770
sg400
(lp3773
sg402
g363
sg403
Nsg404
Nsg405
Nsbag3
(g4
g5
NtRp3774
(dp3775
g8
g10
sg383
Nsg384
(dp3776
sg386
Nsg25
g27
sg387
(lp3777
I62
aI16
asg389
Nsg390
VTamid 31b:16
p3778
sg392
(lp3779
sg394
g61
sg395
Nsg396
(lp3780
I62
aI16
asg398
Nsg399
g3778
sg400
(lp3781
sg402
g363
sg403
Nsg404
Nsg405
Nsbag3
(g4
g5
NtRp3782
(dp3783
g8
g10
sg383
Nsg384
(dp3784
sg386
Nsg25
g27
sg387
(lp3785
I62
aI17
asg389
Nsg390
VTamid 31b:17
p3786
sg392
(lp3787
sg394
g61
sg395
Nsg396
(lp3788
I62
aI17
asg398
Nsg399
g3786
sg400
(lp3789
sg402
g363
sg403
Nsg404
Nsg405
Nsbag3
(g4
g5
NtRp3790
(dp3791
g8
g10
sg383
Nsg384
(dp3792
sg386
Nsg25
g27
sg387
(lp3793
I62
aI18
asg389
Nsg390
VTamid 31b:18
p3794
sg392
(lp3795
sg394
g61
sg395
Nsg396
(lp3796
I62
aI18
asg398
Nsg399
g3794
sg400
(lp3797
sg402
g363
sg403
Nsg404
Nsg405
Nsbag3
(g4
g5
NtRp3798
(dp3799
g8
g10
sg383
Nsg384
(dp3800
sg386
Nsg25
g27
sg387
(lp3801
I62
aI19
asg389
Nsg390
VTamid 31b:19
p3802
sg392
(lp3803
sg394
g61
sg395
Nsg396
(lp3804
I62
aI19
asg398
Nsg399
g3802
sg400
(lp3805
sg402
g363
sg403
Nsg404
Nsg405
Nsbag3
(g4
g5
NtRp3806
(dp3807
g8
g10
sg383
Nsg384
(dp3808
sg386
Nsg25
g27
sg387
(lp3809
I62
aI20
asg389
Nsg390
VTamid 31b:20
p3810
sg392
(lp3811
sg394
g61
sg395
Nsg396
(lp3812
I62
aI20
asg398
Nsg399
g3810
sg400
(lp3813
sg402
g363
sg403
Nsg404
Nsg405
Nsbag3
(g4
g5
NtRp3814
(dp3815
g8
g10
sg383
Nsg384
(dp3816
sg386
Nsg25
g27
sg387
(lp3817
I62
aI21
asg389
Nsg390
VTamid 31b:21
p3818
sg392
(lp3819
sg394
g61
sg395
Nsg396
(lp3820
I62
aI21
asg398
Nsg399
g3818
sg400
(lp3821
sg402
g363
sg403
Nsg404
Nsg405
Nsbag3
(g4
g5
NtRp3822
(dp3823
g8
g10
sg383
Nsg384
(dp3824
sg386
Nsg25
g27
sg387
(lp3825
I62
aI22
asg389
Nsg390
VTamid 31b:22
p3826
sg392
(lp3827
sg394
g61
sg395
Nsg396
(lp3828
I62
aI22
asg398
Nsg399
g3826
sg400
(lp3829
sg402
g363
sg403
Nsg404
Nsg405
Nsbag3
(g4
g5
NtRp3830
(dp3831
g8
g10
sg383
Nsg384
(dp3832
sg386
Nsg25
g27
sg387
(lp3833
I62
aI23
asg389
Nsg390
VTamid 31b:23
p3834
sg392
(lp3835
sg394
g61
sg395
Nsg396
(lp3836
I62
aI23
asg398
Nsg399
g3834
sg400
(lp3837
sg402
g363
sg403
Nsg404
Nsg405
Nsbag3
(g4
g5
NtRp3838
(dp3839
g8
g10
sg383
Nsg384
(dp3840
sg386
Nsg25
g27
sg387
(lp3841
I62
aI24
asg389
Nsg390
VTamid 31b:24
p3842
sg392
(lp3843
sg394
g61
sg395
Nsg396
(lp3844
I62
aI24
asg398
Nsg399
g3842
sg400
(lp3845
sg402
g363
sg403
Nsg404
Nsg405
Nsbag3
(g4
g5
NtRp3846
(dp3847
g8
g10
sg383
Nsg384
(dp3848
sg386
Nsg25
g27
sg387
(lp3849
I62
aI25
asg389
Nsg390
VTamid 31b:25
p3850
sg392
(lp3851
sg394
g61
sg395
Nsg396
(lp3852
I62
aI25
asg398
Nsg399
g3850
sg400
(lp3853
sg402
g363
sg403
Nsg404
Nsg405
Nsbag3
(g4
g5
NtRp3854
(dp3855
g8
g10
sg383
Nsg384
(dp3856
sg386
Nsg25
g27
sg387
(lp3857
I62
aI26
asg389
Nsg390
VTamid 31b:26
p3858
sg392
(lp3859
sg394
g61
sg395
Nsg396
(lp3860
I62
aI26
asg398
Nsg399
g3858
sg400
(lp3861
sg402
g363
sg403
Nsg404
Nsg405
Nsbag3
(g4
g5
NtRp3862
(dp3863
g8
g10
sg383
Nsg384
(dp3864
sg386
Nsg25
g27
sg387
(lp3865
I62
aI27
asg389
Nsg390
VTamid 31b:27
p3866
sg392
(lp3867
sg394
g61
sg395
Nsg396
(lp3868
I62
aI27
asg398
Nsg399
g3866
sg400
(lp3869
sg402
g363
sg403
Nsg404
Nsg405
Nsbag3
(g4
g5
NtRp3870
(dp3871
g8
g10
sg383
Nsg384
(dp3872
sg386
Nsg25
g27
sg387
(lp3873
I62
aI28
asg389
Nsg390
VTamid 31b:28
p3874
sg392
(lp3875
sg394
g61
sg395
Nsg396
(lp3876
I62
aI28
asg398
Nsg399
g3874
sg400
(lp3877
sg402
g363
sg403
Nsg404
Nsg405
Nsbag3
(g4
g5
NtRp3878
(dp3879
g8
g10
sg383
Nsg384
(dp3880
sg386
Nsg25
g27
sg387
(lp3881
I62
aI29
asg389
Nsg390
VTamid 31b:29
p3882
sg392
(lp3883
sg394
g61
sg395
Nsg396
(lp3884
I62
aI29
asg398
Nsg399
g3882
sg400
(lp3885
sg402
g363
sg403
Nsg404
Nsg405
Nsbag3
(g4
g5
NtRp3886
(dp3887
g8
g10
sg383
Nsg384
(dp3888
sg386
Nsg25
g27
sg387
(lp3889
I62
aI30
asg389
Nsg390
VTamid 31b:30
p3890
sg392
(lp3891
sg394
g61
sg395
Nsg396
(lp3892
I62
aI30
asg398
Nsg399
g3890
sg400
(lp3893
sg402
g363
sg403
Nsg404
Nsg405
Nsbag3
(g4
g5
NtRp3894
(dp3895
g8
g10
sg383
Nsg384
(dp3896
sg386
Nsg25
g27
sg387
(lp3897
I62
aI31
asg389
Nsg390
VTamid 31b:31
p3898
sg392
(lp3899
sg394
g61
sg395
Nsg396
(lp3900
I62
aI31
asg398
Nsg399
g3898
sg400
(lp3901
sg402
g363
sg403
Nsg404
Nsg405
Nsbag3
(g4
g5
NtRp3902
(dp3903
g8
g10
sg383
Nsg384
(dp3904
sg386
Nsg25
g27
sg387
(lp3905
I62
aI32
asg389
Nsg390
VTamid 31b:32
p3906
sg392
(lp3907
sg394
g61
sg395
Nsg396
(lp3908
I62
aI32
asg398
Nsg399
g3906
sg400
(lp3909
sg402
g363
sg403
Nsg404
Nsg405
Nsbag3
(g4
g5
NtRp3910
(dp3911
g8
g10
sg383
Nsg384
(dp3912
sg386
Nsg25
g27
sg387
(lp3913
I62
aI33
asg389
Nsg390
VTamid 31b:33
p3914
sg392
(lp3915
sg394
g61
sg395
Nsg396
(lp3916
I62
aI33
asg398
Nsg399
g3914
sg400
(lp3917
sg402
g363
sg403
Nsg404
Nsg405
Nsbag3
(g4
g5
NtRp3918
(dp3919
g8
g10
sg383
Nsg384
(dp3920
sg386
Nsg25
g27
sg387
(lp3921
I62
aI34
asg389
Nsg390
VTamid 31b:34
p3922
sg392
(lp3923
sg394
g61
sg395
Nsg396
(lp3924
I62
aI34
asg398
Nsg399
g3922
sg400
(lp3925
sg402
g363
sg403
Nsg404
Nsg405
Nsbag3
(g4
g5
NtRp3926
(dp3927
g8
g10
sg383
Nsg384
(dp3928
sg386
Nsg25
g27
sg387
(lp3929
I62
aI35
asg389
Nsg390
VTamid 31b:35
p3930
sg392
(lp3931
sg394
g61
sg395
Nsg396
(lp3932
I62
aI35
asg398
Nsg399
g3930
sg400
(lp3933
sg402
g363
sg403
Nsg404
Nsg405
Nsbag3
(g4
g5
NtRp3934
(dp3935
g8
g10
sg383
Nsg384
(dp3936
sg386
Nsg25
g27
sg387
(lp3937
I62
aI36
asg389
Nsg390
VTamid 31b:36
p3938
sg392
(lp3939
sg394
g61
sg395
Nsg396
(lp3940
I62
aI36
asg398
Nsg399
g3938
sg400
(lp3941
sg402
g363
sg403
Nsg404
Nsg405
Nsbag3
(g4
g5
NtRp3942
(dp3943
g8
g10
sg383
Nsg384
(dp3944
sg386
Nsg25
g27
sg387
(lp3945
I62
aI37
asg389
Nsg390
VTamid 31b:37
p3946
sg392
(lp3947
sg394
g61
sg395
Nsg396
(lp3948
I62
aI37
asg398
Nsg399
g3946
sg400
(lp3949
sg402
g363
sg403
Nsg404
Nsg405
Nsbag3
(g4
g5
NtRp3950
(dp3951
g8
g10
sg383
Nsg384
(dp3952
sg386
Nsg25
g27
sg387
(lp3953
I62
aI38
asg389
Nsg390
VTamid 31b:38
p3954
sg392
(lp3955
sg394
g61
sg395
Nsg396
(lp3956
I62
aI38
asg398
Nsg399
g3954
sg400
(lp3957
sg402
g363
sg403
Nsg404
Nsg405
Nsbag3
(g4
g5
NtRp3958
(dp3959
g8
g10
sg383
Nsg384
(dp3960
sg386
Nsg25
g27
sg387
(lp3961
I62
aI39
asg389
Nsg390
VTamid 31b:39
p3962
sg392
(lp3963
sg394
g61
sg395
Nsg396
(lp3964
I62
aI39
asg398
Nsg399
g3962
sg400
(lp3965
sg402
g363
sg403
Nsg404
Nsg405
Nsbag3
(g4
g5
NtRp3966
(dp3967
g8
g10
sg383
Nsg384
(dp3968
sg386
Nsg25
g27
sg387
(lp3969
I62
aI40
asg389
Nsg390
VTamid 31b:40
p3970
sg392
(lp3971
sg394
g61
sg395
Nsg396
(lp3972
I62
aI40
asg398
Nsg399
g3970
sg400
(lp3973
sg402
g363
sg403
Nsg404
Nsg405
Nsbag3
(g4
g5
NtRp3974
(dp3975
g8
g10
sg383
Nsg384
(dp3976
sg386
Nsg25
g27
sg387
(lp3977
I62
aI41
asg389
Nsg390
VTamid 31b:41
p3978
sg392
(lp3979
sg394
g61
sg395
Nsg396
(lp3980
I62
aI41
asg398
Nsg399
g3978
sg400
(lp3981
sg402
g363
sg403
Nsg404
Nsg405
Nsbag3
(g4
g5
NtRp3982
(dp3983
g8
g10
sg383
Nsg384
(dp3984
sg386
Nsg25
g27
sg387
(lp3985
I62
aI42
asg389
Nsg390
VTamid 31b:42
p3986
sg392
(lp3987
sg394
g61
sg395
Nsg396
(lp3988
I62
aI42
asg398
Nsg399
g3986
sg400
(lp3989
sg402
g363
sg403
Nsg404
Nsg405
Nsbag3
(g4
g5
NtRp3990
(dp3991
g8
g10
sg383
Nsg384
(dp3992
sg386
Nsg25
g27
sg387
(lp3993
I62
aI43
asg389
Nsg390
VTamid 31b:43
p3994
sg392
(lp3995
sg394
g61
sg395
Nsg396
(lp3996
I62
aI43
asg398
Nsg399
g3994
sg400
(lp3997
sg402
g363
sg403
Nsg404
Nsg405
Nsbag3
(g4
g5
NtRp3998
(dp3999
g8
g10
sg383
Nsg384
(dp4000
sg386
Nsg25
g27
sg387
(lp4001
I62
aI44
asg389
Nsg390
VTamid 31b:44
p4002
sg392
(lp4003
sg394
g61
sg395
Nsg396
(lp4004
I62
aI44
asg398
Nsg399
g4002
sg400
(lp4005
sg402
g363
sg403
Nsg404
Nsg405
Nsbag3
(g4
g5
NtRp4006
(dp4007
g8
g10
sg383
Nsg384
(dp4008
sg386
Nsg25
g27
sg387
(lp4009
I62
aI45
asg389
Nsg390
VTamid 31b:45
p4010
sg392
(lp4011
sg394
g61
sg395
Nsg396
(lp4012
I62
aI45
asg398
Nsg399
g4010
sg400
(lp4013
sg402
g363
sg403
Nsg404
Nsg405
Nsbag3
(g4
g5
NtRp4014
(dp4015
g8
g10
sg383
Nsg384
(dp4016
sg386
Nsg25
g27
sg387
(lp4017
I62
aI46
asg389
Nsg390
VTamid 31b:46
p4018
sg392
(lp4019
sg394
g61
sg395
Nsg396
(lp4020
I62
aI46
asg398
Nsg399
g4018
sg400
(lp4021
sg402
g363
sg403
Nsg404
Nsg405
Nsbag3
(g4
g5
NtRp4022
(dp4023
g8
g10
sg383
Nsg384
(dp4024
sg386
Nsg25
g27
sg387
(lp4025
I62
aI47
asg389
Nsg390
VTamid 31b:47
p4026
sg392
(lp4027
sg394
g61
sg395
Nsg396
(lp4028
I62
aI47
asg398
Nsg399
g4026
sg400
(lp4029
sg402
g363
sg403
Nsg404
Nsg405
Nsbag3
(g4
g5
NtRp4030
(dp4031
g8
g10
sg383
Nsg384
(dp4032
sg386
Nsg25
g27
sg387
(lp4033
I62
aI48
asg389
Nsg390
VTamid 31b:48
p4034
sg392
(lp4035
sg394
g61
sg395
Nsg396
(lp4036
I62
aI48
asg398
Nsg399
g4034
sg400
(lp4037
sg402
g363
sg403
Nsg404
Nsg405
Nsbag3
(g4
g5
NtRp4038
(dp4039
g8
g10
sg383
Nsg384
(dp4040
sg386
Nsg25
g27
sg387
(lp4041
I62
aI49
asg389
Nsg390
VTamid 31b:49
p4042
sg392
(lp4043
sg394
g61
sg395
Nsg396
(lp4044
I62
aI49
asg398
Nsg399
g4042
sg400
(lp4045
sg402
g363
sg403
Nsg404
Nsg405
Nsbag3
(g4
g5
NtRp4046
(dp4047
g8
g10
sg383
Nsg384
(dp4048
sg386
Nsg25
g27
sg387
(lp4049
I63
aI1
asg389
Nsg390
VTamid 32a:1
p4050
sg392
(lp4051
sg394
g61
sg395
Nsg396
(lp4052
I63
aI1
asg398
Nsg399
g4050
sg400
(lp4053
sg402
g363
sg403
Nsg404
Nsg405
Nsbag3
(g4
g5
NtRp4054
(dp4055
g8
g10
sg383
Nsg384
(dp4056
sg386
Nsg25
g27
sg387
(lp4057
I63
aI2
asg389
Nsg390
VTamid 32a:2
p4058
sg392
(lp4059
sg394
g61
sg395
Nsg396
(lp4060
I63
aI2
asg398
Nsg399
g4058
sg400
(lp4061
sg402
g363
sg403
Nsg404
Nsg405
Nsbag3
(g4
g5
NtRp4062
(dp4063
g8
g10
sg383
Nsg384
(dp4064
sg386
Nsg25
g27
sg387
(lp4065
I63
aI3
asg389
Nsg390
VTamid 32a:3
p4066
sg392
(lp4067
sg394
g61
sg395
Nsg396
(lp4068
I63
aI3
asg398
Nsg399
g4066
sg400
(lp4069
sg402
g363
sg403
Nsg404
Nsg405
Nsbag3
(g4
g5
NtRp4070
(dp4071
g8
g10
sg383
Nsg384
(dp4072
sg386
Nsg25
g27
sg387
(lp4073
I63
aI4
asg389
Nsg390
VTamid 32a:4
p4074
sg392
(lp4075
sg394
g61
sg395
Nsg396
(lp4076
I63
aI4
asg398
Nsg399
g4074
sg400
(lp4077
sg402
g363
sg403
Nsg404
Nsg405
Nsbag3
(g4
g5
NtRp4078
(dp4079
g8
g10
sg383
Nsg384
(dp4080
sg386
Nsg25
g27
sg387
(lp4081
I63
aI5
asg389
Nsg390
VTamid 32a:5
p4082
sg392
(lp4083
sg394
g61
sg395
Nsg396
(lp4084
I63
aI5
asg398
Nsg399
g4082
sg400
(lp4085
sg402
g363
sg403
Nsg404
Nsg405
Nsbag3
(g4
g5
NtRp4086
(dp4087
g8
g10
sg383
Nsg384
(dp4088
sg386
Nsg25
g27
sg387
(lp4089
I63
aI6
asg389
Nsg390
VTamid 32a:6
p4090
sg392
(lp4091
sg394
g61
sg395
Nsg396
(lp4092
I63
aI6
asg398
Nsg399
g4090
sg400
(lp4093
sg402
g363
sg403
Nsg404
Nsg405
Nsbag3
(g4
g5
NtRp4094
(dp4095
g8
g10
sg383
Nsg384
(dp4096
sg386
Nsg25
g27
sg387
(lp4097
I63
aI7
asg389
Nsg390
VTamid 32a:7
p4098
sg392
(lp4099
sg394
g61
sg395
Nsg396
(lp4100
I63
aI7
asg398
Nsg399
g4098
sg400
(lp4101
sg402
g363
sg403
Nsg404
Nsg405
Nsbag3
(g4
g5
NtRp4102
(dp4103
g8
g10
sg383
Nsg384
(dp4104
sg386
Nsg25
g27
sg387
(lp4105
I63
aI8
asg389
Nsg390
VTamid 32a:8
p4106
sg392
(lp4107
sg394
g61
sg395
Nsg396
(lp4108
I63
aI8
asg398
Nsg399
g4106
sg400
(lp4109
sg402
g363
sg403
Nsg404
Nsg405
Nsbag3
(g4
g5
NtRp4110
(dp4111
g8
g10
sg383
Nsg384
(dp4112
sg386
Nsg25
g27
sg387
(lp4113
I63
aI9
asg389
Nsg390
VTamid 32a:9
p4114
sg392
(lp4115
sg394
g61
sg395
Nsg396
(lp4116
I63
aI9
asg398
Nsg399
g4114
sg400
(lp4117
sg402
g363
sg403
Nsg404
Nsg405
Nsbag3
(g4
g5
NtRp4118
(dp4119
g8
g10
sg383
Nsg384
(dp4120
sg386
Nsg25
g27
sg387
(lp4121
I63
aI10
asg389
Nsg390
VTamid 32a:10
p4122
sg392
(lp4123
sg394
g61
sg395
Nsg396
(lp4124
I63
aI10
asg398
Nsg399
g4122
sg400
(lp4125
sg402
g363
sg403
Nsg404
Nsg405
Nsbag3
(g4
g5
NtRp4126
(dp4127
g8
g10
sg383
Nsg384
(dp4128
sg386
Nsg25
g27
sg387
(lp4129
I63
aI11
asg389
Nsg390
VTamid 32a:11
p4130
sg392
(lp4131
sg394
g61
sg395
Nsg396
(lp4132
I63
aI11
asg398
Nsg399
g4130
sg400
(lp4133
sg402
g363
sg403
Nsg404
Nsg405
Nsbag3
(g4
g5
NtRp4134
(dp4135
g8
g10
sg383
Nsg384
(dp4136
sg386
Nsg25
g27
sg387
(lp4137
I63
aI12
asg389
Nsg390
VTamid 32a:12
p4138
sg392
(lp4139
sg394
g61
sg395
Nsg396
(lp4140
I63
aI12
asg398
Nsg399
g4138
sg400
(lp4141
sg402
g363
sg403
Nsg404
Nsg405
Nsbag3
(g4
g5
NtRp4142
(dp4143
g8
g10
sg383
Nsg384
(dp4144
sg386
Nsg25
g27
sg387
(lp4145
I63
aI13
asg389
Nsg390
VTamid 32a:13
p4146
sg392
(lp4147
sg394
g61
sg395
Nsg396
(lp4148
I63
aI13
asg398
Nsg399
g4146
sg400
(lp4149
sg402
g363
sg403
Nsg404
Nsg405
Nsbag3
(g4
g5
NtRp4150
(dp4151
g8
g10
sg383
Nsg384
(dp4152
sg386
Nsg25
g27
sg387
(lp4153
I63
aI14
asg389
Nsg390
VTamid 32a:14
p4154
sg392
(lp4155
sg394
g61
sg395
Nsg396
(lp4156
I63
aI14
asg398
Nsg399
g4154
sg400
(lp4157
sg402
g363
sg403
Nsg404
Nsg405
Nsbag3
(g4
g5
NtRp4158
(dp4159
g8
g10
sg383
Nsg384
(dp4160
sg386
Nsg25
g27
sg387
(lp4161
I63
aI15
asg389
Nsg390
VTamid 32a:15
p4162
sg392
(lp4163
sg394
g61
sg395
Nsg396
(lp4164
I63
aI15
asg398
Nsg399
g4162
sg400
(lp4165
sg402
g363
sg403
Nsg404
Nsg405
Nsbag3
(g4
g5
NtRp4166
(dp4167
g8
g10
sg383
Nsg384
(dp4168
sg386
Nsg25
g27
sg387
(lp4169
I63
aI16
asg389
Nsg390
VTamid 32a:16
p4170
sg392
(lp4171
sg394
g61
sg395
Nsg396
(lp4172
I63
aI16
asg398
Nsg399
g4170
sg400
(lp4173
sg402
g363
sg403
Nsg404
Nsg405
Nsbag3
(g4
g5
NtRp4174
(dp4175
g8
g10
sg383
Nsg384
(dp4176
sg386
Nsg25
g27
sg387
(lp4177
I63
aI17
asg389
Nsg390
VTamid 32a:17
p4178
sg392
(lp4179
sg394
g61
sg395
Nsg396
(lp4180
I63
aI17
asg398
Nsg399
g4178
sg400
(lp4181
sg402
g363
sg403
Nsg404
Nsg405
Nsbag3
(g4
g5
NtRp4182
(dp4183
g8
g10
sg383
Nsg384
(dp4184
sg386
Nsg25
g27
sg387
(lp4185
I63
aI18
asg389
Nsg390
VTamid 32a:18
p4186
sg392
(lp4187
sg394
g61
sg395
Nsg396
(lp4188
I63
aI18
asg398
Nsg399
g4186
sg400
(lp4189
sg402
g363
sg403
Nsg404
Nsg405
Nsbag3
(g4
g5
NtRp4190
(dp4191
g8
g10
sg383
Nsg384
(dp4192
sg386
Nsg25
g27
sg387
(lp4193
I63
aI19
asg389
Nsg390
VTamid 32a:19
p4194
sg392
(lp4195
sg394
g61
sg395
Nsg396
(lp4196
I63
aI19
asg398
Nsg399
g4194
sg400
(lp4197
sg402
g363
sg403
Nsg404
Nsg405
Nsbag3
(g4
g5
NtRp4198
(dp4199
g8
g10
sg383
Nsg384
(dp4200
sg386
Nsg25
g27
sg387
(lp4201
I63
aI20
asg389
Nsg390
VTamid 32a:20
p4202
sg392
(lp4203
sg394
g61
sg395
Nsg396
(lp4204
I63
aI20
asg398
Nsg399
g4202
sg400
(lp4205
sg402
g363
sg403
Nsg404
Nsg405
Nsbag3
(g4
g5
NtRp4206
(dp4207
g8
g10
sg383
Nsg384
(dp4208
sg386
Nsg25
g27
sg387
(lp4209
I63
aI21
asg389
Nsg390
VTamid 32a:21
p4210
sg392
(lp4211
sg394
g61
sg395
Nsg396
(lp4212
I63
aI21
asg398
Nsg399
g4210
sg400
(lp4213
sg402
g363
sg403
Nsg404
Nsg405
Nsbag3
(g4
g5
NtRp4214
(dp4215
g8
g10
sg383
Nsg384
(dp4216
sg386
Nsg25
g27
sg387
(lp4217
I63
aI22
asg389
Nsg390
VTamid 32a:22
p4218
sg392
(lp4219
sg394
g61
sg395
Nsg396
(lp4220
I63
aI22
asg398
Nsg399
g4218
sg400
(lp4221
sg402
g363
sg403
Nsg404
Nsg405
Nsbag3
(g4
g5
NtRp4222
(dp4223
g8
g10
sg383
Nsg384
(dp4224
sg386
Nsg25
g27
sg387
(lp4225
I63
aI23
asg389
Nsg390
VTamid 32a:23
p4226
sg392
(lp4227
sg394
g61
sg395
Nsg396
(lp4228
I63
aI23
asg398
Nsg399
g4226
sg400
(lp4229
sg402
g363
sg403
Nsg404
Nsg405
Nsbag3
(g4
g5
NtRp4230
(dp4231
g8
g10
sg383
Nsg384
(dp4232
sg386
Nsg25
g27
sg387
(lp4233
I63
aI24
asg389
Nsg390
VTamid 32a:24
p4234
sg392
(lp4235
sg394
g61
sg395
Nsg396
(lp4236
I63
aI24
asg398
Nsg399
g4234
sg400
(lp4237
sg402
g363
sg403
Nsg404
Nsg405
Nsbag3
(g4
g5
NtRp4238
(dp4239
g8
g10
sg383
Nsg384
(dp4240
sg386
Nsg25
g27
sg387
(lp4241
I63
aI25
asg389
Nsg390
VTamid 32a:25
p4242
sg392
(lp4243
sg394
g61
sg395
Nsg396
(lp4244
I63
aI25
asg398
Nsg399
g4242
sg400
(lp4245
sg402
g363
sg403
Nsg404
Nsg405
Nsbag3
(g4
g5
NtRp4246
(dp4247
g8
g10
sg383
Nsg384
(dp4248
sg386
Nsg25
g27
sg387
(lp4249
I63
aI26
asg389
Nsg390
VTamid 32a:26
p4250
sg392
(lp4251
sg394
g61
sg395
Nsg396
(lp4252
I63
aI26
asg398
Nsg399
g4250
sg400
(lp4253
sg402
g363
sg403
Nsg404
Nsg405
Nsbag3
(g4
g5
NtRp4254
(dp4255
g8
g10
sg383
Nsg384
(dp4256
sg386
Nsg25
g27
sg387
(lp4257
I63
aI27
asg389
Nsg390
VTamid 32a:27
p4258
sg392
(lp4259
sg394
g61
sg395
Nsg396
(lp4260
I63
aI27
asg398
Nsg399
g4258
sg400
(lp4261
sg402
g363
sg403
Nsg404
Nsg405
Nsbag3
(g4
g5
NtRp4262
(dp4263
g8
g10
sg383
Nsg384
(dp4264
sg386
Nsg25
g27
sg387
(lp4265
I63
aI28
asg389
Nsg390
VTamid 32a:28
p4266
sg392
(lp4267
sg394
g61
sg395
Nsg396
(lp4268
I63
aI28
asg398
Nsg399
g4266
sg400
(lp4269
sg402
g363
sg403
Nsg404
Nsg405
Nsbag3
(g4
g5
NtRp4270
(dp4271
g8
g10
sg383
Nsg384
(dp4272
sg386
Nsg25
g27
sg387
(lp4273
I63
aI29
asg389
Nsg390
VTamid 32a:29
p4274
sg392
(lp4275
sg394
g61
sg395
Nsg396
(lp4276
I63
aI29
asg398
Nsg399
g4274
sg400
(lp4277
sg402
g363
sg403
Nsg404
Nsg405
Nsbag3
(g4
g5
NtRp4278
(dp4279
g8
g10
sg383
Nsg384
(dp4280
sg386
Nsg25
g27
sg387
(lp4281
I63
aI30
asg389
Nsg390
VTamid 32a:30
p4282
sg392
(lp4283
sg394
g61
sg395
Nsg396
(lp4284
I63
aI30
asg398
Nsg399
g4282
sg400
(lp4285
sg402
g363
sg403
Nsg404
Nsg405
Nsbag3
(g4
g5
NtRp4286
(dp4287
g8
g10
sg383
Nsg384
(dp4288
sg386
Nsg25
g27
sg387
(lp4289
I63
aI31
asg389
Nsg390
VTamid 32a:31
p4290
sg392
(lp4291
sg394
g61
sg395
Nsg396
(lp4292
I63
aI31
asg398
Nsg399
g4290
sg400
(lp4293
sg402
g363
sg403
Nsg404
Nsg405
Nsbag3
(g4
g5
NtRp4294
(dp4295
g8
g10
sg383
Nsg384
(dp4296
sg386
Nsg25
g27
sg387
(lp4297
I63
aI32
asg389
Nsg390
VTamid 32a:32
p4298
sg392
(lp4299
sg394
g61
sg395
Nsg396
(lp4300
I63
aI32
asg398
Nsg399
g4298
sg400
(lp4301
sg402
g363
sg403
Nsg404
Nsg405
Nsbag3
(g4
g5
NtRp4302
(dp4303
g8
g10
sg383
Nsg384
(dp4304
sg386
Nsg25
g27
sg387
(lp4305
I63
aI33
asg389
Nsg390
VTamid 32a:33
p4306
sg392
(lp4307
sg394
g61
sg395
Nsg396
(lp4308
I63
aI33
asg398
Nsg399
g4306
sg400
(lp4309
sg402
g363
sg403
Nsg404
Nsg405
Nsbag3
(g4
g5
NtRp4310
(dp4311
g8
g10
sg383
Nsg384
(dp4312
sg386
Nsg25
g27
sg387
(lp4313
I63
aI34
asg389
Nsg390
VTamid 32a:34
p4314
sg392
(lp4315
sg394
g61
sg395
Nsg396
(lp4316
I63
aI34
asg398
Nsg399
g4314
sg400
(lp4317
sg402
g363
sg403
Nsg404
Nsg405
Nsbag3
(g4
g5
NtRp4318
(dp4319
g8
g10
sg383
Nsg384
(dp4320
sg386
Nsg25
g27
sg387
(lp4321
I63
aI35
asg389
Nsg390
VTamid 32a:35
p4322
sg392
(lp4323
sg394
g61
sg395
Nsg396
(lp4324
I63
aI35
asg398
Nsg399
g4322
sg400
(lp4325
sg402
g363
sg403
Nsg404
Nsg405
Nsbag3
(g4
g5
NtRp4326
(dp4327
g8
g10
sg383
Nsg384
(dp4328
sg386
Nsg25
g27
sg387
(lp4329
I63
aI36
asg389
Nsg390
VTamid 32a:36
p4330
sg392
(lp4331
sg394
g61
sg395
Nsg396
(lp4332
I63
aI36
asg398
Nsg399
g4330
sg400
(lp4333
sg402
g363
sg403
Nsg404
Nsg405
Nsbag3
(g4
g5
NtRp4334
(dp4335
g8
g10
sg383
Nsg384
(dp4336
sg386
Nsg25
g27
sg387
(lp4337
I63
aI37
asg389
Nsg390
VTamid 32a:37
p4338
sg392
(lp4339
sg394
g61
sg395
Nsg396
(lp4340
I63
aI37
asg398
Nsg399
g4338
sg400
(lp4341
sg402
g363
sg403
Nsg404
Nsg405
Nsbag3
(g4
g5
NtRp4342
(dp4343
g8
g10
sg383
Nsg384
(dp4344
sg386
Nsg25
g27
sg387
(lp4345
I63
aI38
asg389
Nsg390
VTamid 32a:38
p4346
sg392
(lp4347
sg394
g61
sg395
Nsg396
(lp4348
I63
aI38
asg398
Nsg399
g4346
sg400
(lp4349
sg402
g363
sg403
Nsg404
Nsg405
Nsbag3
(g4
g5
NtRp4350
(dp4351
g8
g10
sg383
Nsg384
(dp4352
sg386
Nsg25
g27
sg387
(lp4353
I63
aI39
asg389
Nsg390
VTamid 32a:39
p4354
sg392
(lp4355
sg394
g61
sg395
Nsg396
(lp4356
I63
aI39
asg398
Nsg399
g4354
sg400
(lp4357
sg402
g363
sg403
Nsg404
Nsg405
Nsbag3
(g4
g5
NtRp4358
(dp4359
g8
g10
sg383
Nsg384
(dp4360
sg386
Nsg25
g27
sg387
(lp4361
I63
aI40
asg389
Nsg390
VTamid 32a:40
p4362
sg392
(lp4363
sg394
g61
sg395
Nsg396
(lp4364
I63
aI40
asg398
Nsg399
g4362
sg400
(lp4365
sg402
g363
sg403
Nsg404
Nsg405
Nsbag3
(g4
g5
NtRp4366
(dp4367
g8
g10
sg383
Nsg384
(dp4368
sg386
Nsg25
g27
sg387
(lp4369
I63
aI41
asg389
Nsg390
VTamid 32a:41
p4370
sg392
(lp4371
sg394
g61
sg395
Nsg396
(lp4372
I63
aI41
asg398
Nsg399
g4370
sg400
(lp4373
sg402
g363
sg403
Nsg404
Nsg405
Nsbag3
(g4
g5
NtRp4374
(dp4375
g8
g10
sg383
Nsg384
(dp4376
sg386
Nsg25
g27
sg387
(lp4377
I63
aI42
asg389
Nsg390
VTamid 32a:42
p4378
sg392
(lp4379
sg394
g61
sg395
Nsg396
(lp4380
I63
aI42
asg398
Nsg399
g4378
sg400
(lp4381
sg402
g363
sg403
Nsg404
Nsg405
Nsbag3
(g4
g5
NtRp4382
(dp4383
g8
g10
sg383
Nsg384
(dp4384
sg386
Nsg25
g27
sg387
(lp4385
I63
aI43
asg389
Nsg390
VTamid 32a:43
p4386
sg392
(lp4387
sg394
g61
sg395
Nsg396
(lp4388
I63
aI43
asg398
Nsg399
g4386
sg400
(lp4389
sg402
g363
sg403
Nsg404
Nsg405
Nsbag3
(g4
g5
NtRp4390
(dp4391
g8
g10
sg383
Nsg384
(dp4392
sg386
Nsg25
g27
sg387
(lp4393
I63
aI44
asg389
Nsg390
VTamid 32a:44
p4394
sg392
(lp4395
sg394
g61
sg395
Nsg396
(lp4396
I63
aI44
asg398
Nsg399
g4394
sg400
(lp4397
sg402
g363
sg403
Nsg404
Nsg405
Nsbag3
(g4
g5
NtRp4398
(dp4399
g8
g10
sg383
Nsg384
(dp4400
sg386
Nsg25
g27
sg387
(lp4401
I63
aI45
asg389
Nsg390
VTamid 32a:45
p4402
sg392
(lp4403
sg394
g61
sg395
Nsg396
(lp4404
I63
aI45
asg398
Nsg399
g4402
sg400
(lp4405
sg402
g363
sg403
Nsg404
Nsg405
Nsbag3
(g4
g5
NtRp4406
(dp4407
g8
g10
sg383
Nsg384
(dp4408
sg386
Nsg25
g27
sg387
(lp4409
I63
aI46
asg389
Nsg390
VTamid 32a:46
p4410
sg392
(lp4411
sg394
g61
sg395
Nsg396
(lp4412
I63
aI46
asg398
Nsg399
g4410
sg400
(lp4413
sg402
g363
sg403
Nsg404
Nsg405
Nsbag3
(g4
g5
NtRp4414
(dp4415
g8
g10
sg383
Nsg384
(dp4416
sg386
Nsg25
g27
sg387
(lp4417
I63
aI47
asg389
Nsg390
VTamid 32a:47
p4418
sg392
(lp4419
sg394
g61
sg395
Nsg396
(lp4420
I63
aI47
asg398
Nsg399
g4418
sg400
(lp4421
sg402
g363
sg403
Nsg404
Nsg405
Nsbag3
(g4
g5
NtRp4422
(dp4423
g8
g10
sg383
Nsg384
(dp4424
sg386
Nsg25
g27
sg387
(lp4425
I63
aI48
asg389
Nsg390
VTamid 32a:48
p4426
sg392
(lp4427
sg394
g61
sg395
Nsg396
(lp4428
I63
aI48
asg398
Nsg399
g4426
sg400
(lp4429
sg402
g363
sg403
Nsg404
Nsg405
Nsbag3
(g4
g5
NtRp4430
(dp4431
g8
g10
sg383
Nsg384
(dp4432
sg386
Nsg25
g27
sg387
(lp4433
I63
aI49
asg389
Nsg390
VTamid 32a:49
p4434
sg392
(lp4435
sg394
g61
sg395
Nsg396
(lp4436
I63
aI49
asg398
Nsg399
g4434
sg400
(lp4437
sg402
g363
sg403
Nsg404
Nsg405
Nsbag3
(g4
g5
NtRp4438
(dp4439
g8
g10
sg383
Nsg384
(dp4440
sg386
Nsg25
g27
sg387
(lp4441
I63
aI50
asg389
Nsg390
VTamid 32a:50
p4442
sg392
(lp4443
sg394
g61
sg395
Nsg396
(lp4444
I63
aI50
asg398
Nsg399
g4442
sg400
(lp4445
sg402
g363
sg403
Nsg404
Nsg405
Nsbag3
(g4
g5
NtRp4446
(dp4447
g8
g10
sg383
Nsg384
(dp4448
sg386
Nsg25
g27
sg387
(lp4449
I63
aI51
asg389
Nsg390
VTamid 32a:51
p4450
sg392
(lp4451
sg394
g61
sg395
Nsg396
(lp4452
I63
aI51
asg398
Nsg399
g4450
sg400
(lp4453
sg402
g363
sg403
Nsg404
Nsg405
Nsbag3
(g4
g5
NtRp4454
(dp4455
g8
g10
sg383
Nsg384
(dp4456
sg386
Nsg25
g27
sg387
(lp4457
I63
aI52
asg389
Nsg390
VTamid 32a:52
p4458
sg392
(lp4459
sg394
g61
sg395
Nsg396
(lp4460
I63
aI52
asg398
Nsg399
g4458
sg400
(lp4461
sg402
g363
sg403
Nsg404
Nsg405
Nsbag3
(g4
g5
NtRp4462
(dp4463
g8
g10
sg383
Nsg384
(dp4464
sg386
Nsg25
g27
sg387
(lp4465
I63
aI53
asg389
Nsg390
VTamid 32a:53
p4466
sg392
(lp4467
sg394
g61
sg395
Nsg396
(lp4468
I63
aI53
asg398
Nsg399
g4466
sg400
(lp4469
sg402
g363
sg403
Nsg404
Nsg405
Nsbag3
(g4
g5
NtRp4470
(dp4471
g8
g10
sg383
Nsg384
(dp4472
sg386
Nsg25
g27
sg387
(lp4473
I63
aI54
asg389
Nsg390
VTamid 32a:54
p4474
sg392
(lp4475
sg394
g61
sg395
Nsg396
(lp4476
I63
aI54
asg398
Nsg399
g4474
sg400
(lp4477
sg402
g363
sg403
Nsg404
Nsg405
Nsbag3
(g4
g5
NtRp4478
(dp4479
g8
g10
sg383
Nsg384
(dp4480
sg386
Nsg25
g27
sg387
(lp4481
I63
aI55
asg389
Nsg390
VTamid 32a:55
p4482
sg392
(lp4483
sg394
g61
sg395
Nsg396
(lp4484
I63
aI55
asg398
Nsg399
g4482
sg400
(lp4485
sg402
g363
sg403
Nsg404
Nsg405
Nsbag3
(g4
g5
NtRp4486
(dp4487
g8
g10
sg383
Nsg384
(dp4488
sg386
Nsg25
g27
sg387
(lp4489
I63
aI56
asg389
Nsg390
VTamid 32a:56
p4490
sg392
(lp4491
sg394
g61
sg395
Nsg396
(lp4492
I63
aI56
asg398
Nsg399
g4490
sg400
(lp4493
sg402
g363
sg403
Nsg404
Nsg405
Nsbag3
(g4
g5
NtRp4494
(dp4495
g8
g10
sg383
Nsg384
(dp4496
sg386
Nsg25
g27
sg387
(lp4497
I63
aI57
asg389
Nsg390
VTamid 32a:57
p4498
sg392
(lp4499
sg394
g61
sg395
Nsg396
(lp4500
I63
aI57
asg398
Nsg399
g4498
sg400
(lp4501
sg402
g363
sg403
Nsg404
Nsg405
Nsbag3
(g4
g5
NtRp4502
(dp4503
g8
g10
sg383
Nsg384
(dp4504
sg386
Nsg25
g27
sg387
(lp4505
I63
aI58
asg389
Nsg390
VTamid 32a:58
p4506
sg392
(lp4507
sg394
g61
sg395
Nsg396
(lp4508
I63
aI58
asg398
Nsg399
g4506
sg400
(lp4509
sg402
g363
sg403
Nsg404
Nsg405
Nsbag3
(g4
g5
NtRp4510
(dp4511
g8
g10
sg383
Nsg384
(dp4512
sg386
Nsg25
g27
sg387
(lp4513
I63
aI59
asg389
Nsg390
VTamid 32a:59
p4514
sg392
(lp4515
sg394
g61
sg395
Nsg396
(lp4516
I63
aI59
asg398
Nsg399
g4514
sg400
(lp4517
sg402
g363
sg403
Nsg404
Nsg405
Nsbag3
(g4
g5
NtRp4518
(dp4519
g8
g10
sg383
Nsg384
(dp4520
sg386
Nsg25
g27
sg387
(lp4521
I63
aI60
asg389
Nsg390
VTamid 32a:60
p4522
sg392
(lp4523
sg394
g61
sg395
Nsg396
(lp4524
I63
aI60
asg398
Nsg399
g4522
sg400
(lp4525
sg402
g363
sg403
Nsg404
Nsg405
Nsbag3
(g4
g5
NtRp4526
(dp4527
g8
g10
sg383
Nsg384
(dp4528
sg386
Nsg25
g27
sg387
(lp4529
I63
aI61
asg389
Nsg390
VTamid 32a:61
p4530
sg392
(lp4531
sg394
g61
sg395
Nsg396
(lp4532
I63
aI61
asg398
Nsg399
g4530
sg400
(lp4533
sg402
g363
sg403
Nsg404
Nsg405
Nsbag3
(g4
g5
NtRp4534
(dp4535
g8
g10
sg383
Nsg384
(dp4536
sg386
Nsg25
g27
sg387
(lp4537
I63
aI62
asg389
Nsg390
VTamid 32a:62
p4538
sg392
(lp4539
sg394
g61
sg395
Nsg396
(lp4540
I63
aI62
asg398
Nsg399
g4538
sg400
(lp4541
sg402
g363
sg403
Nsg404
Nsg405
Nsbag3
(g4
g5
NtRp4542
(dp4543
g8
g10
sg383
Nsg384
(dp4544
sg386
Nsg25
g27
sg387
(lp4545
I63
aI63
asg389
Nsg390
VTamid 32a:63
p4546
sg392
(lp4547
sg394
g61
sg395
Nsg396
(lp4548
I63
aI63
asg398
Nsg399
g4546
sg400
(lp4549
sg402
g363
sg403
Nsg404
Nsg405
Nsbag3
(g4
g5
NtRp4550
(dp4551
g8
g10
sg383
Nsg384
(dp4552
sg386
Nsg25
g27
sg387
(lp4553
I63
aI64
asg389
Nsg390
VTamid 32a:64
p4554
sg392
(lp4555
sg394
g61
sg395
Nsg396
(lp4556
I63
aI64
asg398
Nsg399
g4554
sg400
(lp4557
sg402
g363
sg403
Nsg404
Nsg405
Nsbag3
(g4
g5
NtRp4558
(dp4559
g8
g10
sg383
Nsg384
(dp4560
sg386
Nsg25
g27
sg387
(lp4561
I63
aI65
asg389
Nsg390
VTamid 32a:65
p4562
sg392
(lp4563
sg394
g61
sg395
Nsg396
(lp4564
I63
aI65
asg398
Nsg399
g4562
sg400
(lp4565
sg402
g363
sg403
Nsg404
Nsg405
Nsbag3
(g4
g5
NtRp4566
(dp4567
g8
g10
sg383
Nsg384
(dp4568
sg386
Nsg25
g27
sg387
(lp4569
I63
aI66
asg389
Nsg390
VTamid 32a:66
p4570
sg392
(lp4571
sg394
g61
sg395
Nsg396
(lp4572
I63
aI66
asg398
Nsg399
g4570
sg400
(lp4573
sg402
g363
sg403
Nsg404
Nsg405
Nsbag3
(g4
g5
NtRp4574
(dp4575
g8
g10
sg383
Nsg384
(dp4576
sg386
Nsg25
g27
sg387
(lp4577
I63
aI67
asg389
Nsg390
VTamid 32a:67
p4578
sg392
(lp4579
sg394
g61
sg395
Nsg396
(lp4580
I63
aI67
asg398
Nsg399
g4578
sg400
(lp4581
sg402
g363
sg403
Nsg404
Nsg405
Nsbag3
(g4
g5
NtRp4582
(dp4583
g8
g10
sg383
Nsg384
(dp4584
sg386
Nsg25
g27
sg387
(lp4585
I63
aI68
asg389
Nsg390
VTamid 32a:68
p4586
sg392
(lp4587
sg394
g61
sg395
Nsg396
(lp4588
I63
aI68
asg398
Nsg399
g4586
sg400
(lp4589
sg402
g363
sg403
Nsg404
Nsg405
Nsbag3
(g4
g5
NtRp4590
(dp4591
g8
g10
sg383
Nsg384
(dp4592
sg386
Nsg25
g27
sg387
(lp4593
I63
aI69
asg389
Nsg390
VTamid 32a:69
p4594
sg392
(lp4595
sg394
g61
sg395
Nsg396
(lp4596
I63
aI69
asg398
Nsg399
g4594
sg400
(lp4597
sg402
g363
sg403
Nsg404
Nsg405
Nsbag3
(g4
g5
NtRp4598
(dp4599
g8
g10
sg383
Nsg384
(dp4600
sg386
Nsg25
g27
sg387
(lp4601
I63
aI70
asg389
Nsg390
VTamid 32a:70
p4602
sg392
(lp4603
sg394
g61
sg395
Nsg396
(lp4604
I63
aI70
asg398
Nsg399
g4602
sg400
(lp4605
sg402
g363
sg403
Nsg404
Nsg405
Nsbag3
(g4
g5
NtRp4606
(dp4607
g8
g10
sg383
Nsg384
(dp4608
sg386
Nsg25
g27
sg387
(lp4609
I63
aI71
asg389
Nsg390
VTamid 32a:71
p4610
sg392
(lp4611
sg394
g61
sg395
Nsg396
(lp4612
I63
aI71
asg398
Nsg399
g4610
sg400
(lp4613
sg402
g363
sg403
Nsg404
Nsg405
Nsbag3
(g4
g5
NtRp4614
(dp4615
g8
g10
sg383
Nsg384
(dp4616
sg386
Nsg25
g27
sg387
(lp4617
I63
aI72
asg389
Nsg390
VTamid 32a:72
p4618
sg392
(lp4619
sg394
g61
sg395
Nsg396
(lp4620
I63
aI72
asg398
Nsg399
g4618
sg400
(lp4621
sg402
g363
sg403
Nsg404
Nsg405
Nsbag3
(g4
g5
NtRp4622
(dp4623
g8
g10
sg383
Nsg384
(dp4624
sg386
Nsg25
g27
sg387
(lp4625
I63
aI73
asg389
Nsg390
VTamid 32a:73
p4626
sg392
(lp4627
sg394
g61
sg395
Nsg396
(lp4628
I63
aI73
asg398
Nsg399
g4626
sg400
(lp4629
sg402
g363
sg403
Nsg404
Nsg405
Nsbag3
(g4
g5
NtRp4630
(dp4631
g8
g10
sg383
Nsg384
(dp4632
sg386
Nsg25
g27
sg387
(lp4633
I63
aI74
asg389
Nsg390
VTamid 32a:74
p4634
sg392
(lp4635
sg394
g61
sg395
Nsg396
(lp4636
I63
aI74
asg398
Nsg399
g4634
sg400
(lp4637
sg402
g363
sg403
Nsg404
Nsg405
Nsbag3
(g4
g5
NtRp4638
(dp4639
g8
g10
sg383
Nsg384
(dp4640
sg386
Nsg25
g27
sg387
(lp4641
I63
aI75
asg389
Nsg390
VTamid 32a:75
p4642
sg392
(lp4643
sg394
g61
sg395
Nsg396
(lp4644
I63
aI75
asg398
Nsg399
g4642
sg400
(lp4645
sg402
g363
sg403
Nsg404
Nsg405
Nsbag3
(g4
g5
NtRp4646
(dp4647
g8
g10
sg383
Nsg384
(dp4648
sg386
Nsg25
g27
sg387
(lp4649
I63
aI76
asg389
Nsg390
VTamid 32a:76
p4650
sg392
(lp4651
sg394
g61
sg395
Nsg396
(lp4652
I63
aI76
asg398
Nsg399
g4650
sg400
(lp4653
sg402
g363
sg403
Nsg404
Nsg405
Nsbag3
(g4
g5
NtRp4654
(dp4655
g8
g10
sg383
Nsg384
(dp4656
sg386
Nsg25
g27
sg387
(lp4657
I63
aI77
asg389
Nsg390
VTamid 32a:77
p4658
sg392
(lp4659
sg394
g61
sg395
Nsg396
(lp4660
I63
aI77
asg398
Nsg399
g4658
sg400
(lp4661
sg402
g363
sg403
Nsg404
Nsg405
Nsbag3
(g4
g5
NtRp4662
(dp4663
g8
g10
sg383
Nsg384
(dp4664
sg386
Nsg25
g27
sg387
(lp4665
I63
aI78
asg389
Nsg390
VTamid 32a:78
p4666
sg392
(lp4667
sg394
g61
sg395
Nsg396
(lp4668
I63
aI78
asg398
Nsg399
g4666
sg400
(lp4669
sg402
g363
sg403
Nsg404
Nsg405
Nsbag3
(g4
g5
NtRp4670
(dp4671
g8
g10
sg383
Nsg384
(dp4672
sg386
Nsg25
g27
sg387
(lp4673
I63
aI79
asg389
Nsg390
VTamid 32a:79
p4674
sg392
(lp4675
sg394
g61
sg395
Nsg396
(lp4676
I63
aI79
asg398
Nsg399
g4674
sg400
(lp4677
sg402
g363
sg403
Nsg404
Nsg405
Nsbag3
(g4
g5
NtRp4678
(dp4679
g8
g10
sg383
Nsg384
(dp4680
sg386
Nsg25
g27
sg387
(lp4681
I63
aI80
asg389
Nsg390
VTamid 32a:80
p4682
sg392
(lp4683
sg394
g61
sg395
Nsg396
(lp4684
I63
aI80
asg398
Nsg399
g4682
sg400
(lp4685
sg402
g363
sg403
Nsg404
Nsg405
Nsbag3
(g4
g5
NtRp4686
(dp4687
g8
g10
sg383
Nsg384
(dp4688
sg386
Nsg25
g27
sg387
(lp4689
I63
aI81
asg389
Nsg390
VTamid 32a:81
p4690
sg392
(lp4691
sg394
g61
sg395
Nsg396
(lp4692
I63
aI81
asg398
Nsg399
g4690
sg400
(lp4693
sg402
g363
sg403
Nsg404
Nsg405
Nsbag3
(g4
g5
NtRp4694
(dp4695
g8
g10
sg383
Nsg384
(dp4696
sg386
Nsg25
g27
sg387
(lp4697
I63
aI82
asg389
Nsg390
VTamid 32a:82
p4698
sg392
(lp4699
sg394
g61
sg395
Nsg396
(lp4700
I63
aI82
asg398
Nsg399
g4698
sg400
(lp4701
sg402
g363
sg403
Nsg404
Nsg405
Nsbag3
(g4
g5
NtRp4702
(dp4703
g8
g10
sg383
Nsg384
(dp4704
sg386
Nsg25
g27
sg387
(lp4705
I63
aI83
asg389
Nsg390
VTamid 32a:83
p4706
sg392
(lp4707
sg394
g61
sg395
Nsg396
(lp4708
I63
aI83
asg398
Nsg399
g4706
sg400
(lp4709
sg402
g363
sg403
Nsg404
Nsg405
Nsbag3
(g4
g5
NtRp4710
(dp4711
g8
g10
sg383
Nsg384
(dp4712
sg386
Nsg25
g27
sg387
(lp4713
I63
aI84
asg389
Nsg390
VTamid 32a:84
p4714
sg392
(lp4715
sg394
g61
sg395
Nsg396
(lp4716
I63
aI84
asg398
Nsg399
g4714
sg400
(lp4717
sg402
g363
sg403
Nsg404
Nsg405
Nsbag3
(g4
g5
NtRp4718
(dp4719
g8
g10
sg383
Nsg384
(dp4720
sg386
Nsg25
g27
sg387
(lp4721
I64
aI1
asg389
Nsg390
VTamid 32b:1
p4722
sg392
(lp4723
sg394
g61
sg395
Nsg396
(lp4724
I64
aI1
asg398
Nsg399
g4722
sg400
(lp4725
sg402
g363
sg403
Nsg404
Nsg405
Nsbag3
(g4
g5
NtRp4726
(dp4727
g8
g10
sg383
Nsg384
(dp4728
sg386
Nsg25
g27
sg387
(lp4729
I64
aI2
asg389
Nsg390
VTamid 32b:2
p4730
sg392
(lp4731
sg394
g61
sg395
Nsg396
(lp4732
I64
aI2
asg398
Nsg399
g4730
sg400
(lp4733
sg402
g363
sg403
Nsg404
Nsg405
Nsbag3
(g4
g5
NtRp4734
(dp4735
g8
g10
sg383
Nsg384
(dp4736
sg386
Nsg25
g27
sg387
(lp4737
I64
aI3
asg389
Nsg390
VTamid 32b:3
p4738
sg392
(lp4739
sg394
g61
sg395
Nsg396
(lp4740
I64
aI3
asg398
Nsg399
g4738
sg400
(lp4741
sg402
g363
sg403
Nsg404
Nsg405
Nsbag3
(g4
g5
NtRp4742
(dp4743
g8
g10
sg383
Nsg384
(dp4744
sg386
Nsg25
g27
sg387
(lp4745
I64
aI4
asg389
Nsg390
VTamid 32b:4
p4746
sg392
(lp4747
sg394
g61
sg395
Nsg396
(lp4748
I64
aI4
asg398
Nsg399
g4746
sg400
(lp4749
sg402
g363
sg403
Nsg404
Nsg405
Nsbag3
(g4
g5
NtRp4750
(dp4751
g8
g10
sg383
Nsg384
(dp4752
sg386
Nsg25
g27
sg387
(lp4753
I64
aI5
asg389
Nsg390
VTamid 32b:5
p4754
sg392
(lp4755
sg394
g61
sg395
Nsg396
(lp4756
I64
aI5
asg398
Nsg399
g4754
sg400
(lp4757
sg402
g363
sg403
Nsg404
Nsg405
Nsbag3
(g4
g5
NtRp4758
(dp4759
g8
g10
sg383
Nsg384
(dp4760
sg386
Nsg25
g27
sg387
(lp4761
I64
aI6
asg389
Nsg390
VTamid 32b:6
p4762
sg392
(lp4763
sg394
g61
sg395
Nsg396
(lp4764
I64
aI6
asg398
Nsg399
g4762
sg400
(lp4765
sg402
g363
sg403
Nsg404
Nsg405
Nsbag3
(g4
g5
NtRp4766
(dp4767
g8
g10
sg383
Nsg384
(dp4768
sg386
Nsg25
g27
sg387
(lp4769
I64
aI7
asg389
Nsg390
VTamid 32b:7
p4770
sg392
(lp4771
sg394
g61
sg395
Nsg396
(lp4772
I64
aI7
asg398
Nsg399
g4770
sg400
(lp4773
sg402
g363
sg403
Nsg404
Nsg405
Nsbag3
(g4
g5
NtRp4774
(dp4775
g8
g10
sg383
Nsg384
(dp4776
sg386
Nsg25
g27
sg387
(lp4777
I64
aI8
asg389
Nsg390
VTamid 32b:8
p4778
sg392
(lp4779
sg394
g61
sg395
Nsg396
(lp4780
I64
aI8
asg398
Nsg399
g4778
sg400
(lp4781
sg402
g363
sg403
Nsg404
Nsg405
Nsbag3
(g4
g5
NtRp4782
(dp4783
g8
g10
sg383
Nsg384
(dp4784
sg386
Nsg25
g27
sg387
(lp4785
I64
aI9
asg389
Nsg390
VTamid 32b:9
p4786
sg392
(lp4787
sg394
g61
sg395
Nsg396
(lp4788
I64
aI9
asg398
Nsg399
g4786
sg400
(lp4789
sg402
g363
sg403
Nsg404
Nsg405
Nsbag3
(g4
g5
NtRp4790
(dp4791
g8
g10
sg383
Nsg384
(dp4792
sg386
Nsg25
g27
sg387
(lp4793
I64
aI10
asg389
Nsg390
VTamid 32b:10
p4794
sg392
(lp4795
sg394
g61
sg395
Nsg396
(lp4796
I64
aI10
asg398
Nsg399
g4794
sg400
(lp4797
sg402
g363
sg403
Nsg404
Nsg405
Nsbag3
(g4
g5
NtRp4798
(dp4799
g8
g10
sg383
Nsg384
(dp4800
sg386
Nsg25
g27
sg387
(lp4801
I64
aI11
asg389
Nsg390
VTamid 32b:11
p4802
sg392
(lp4803
sg394
g61
sg395
Nsg396
(lp4804
I64
aI11
asg398
Nsg399
g4802
sg400
(lp4805
sg402
g363
sg403
Nsg404
Nsg405
Nsbag3
(g4
g5
NtRp4806
(dp4807
g8
g10
sg383
Nsg384
(dp4808
sg386
Nsg25
g27
sg387
(lp4809
I64
aI12
asg389
Nsg390
VTamid 32b:12
p4810
sg392
(lp4811
sg394
g61
sg395
Nsg396
(lp4812
I64
aI12
asg398
Nsg399
g4810
sg400
(lp4813
sg402
g363
sg403
Nsg404
Nsg405
Nsbag3
(g4
g5
NtRp4814
(dp4815
g8
g10
sg383
Nsg384
(dp4816
sg386
Nsg25
g27
sg387
(lp4817
I64
aI13
asg389
Nsg390
VTamid 32b:13
p4818
sg392
(lp4819
sg394
g61
sg395
Nsg396
(lp4820
I64
aI13
asg398
Nsg399
g4818
sg400
(lp4821
sg402
g363
sg403
Nsg404
Nsg405
Nsbag3
(g4
g5
NtRp4822
(dp4823
g8
g10
sg383
Nsg384
(dp4824
sg386
Nsg25
g27
sg387
(lp4825
I64
aI14
asg389
Nsg390
VTamid 32b:14
p4826
sg392
(lp4827
sg394
g61
sg395
Nsg396
(lp4828
I64
aI14
asg398
Nsg399
g4826
sg400
(lp4829
sg402
g363
sg403
Nsg404
Nsg405
Nsbag3
(g4
g5
NtRp4830
(dp4831
g8
g10
sg383
Nsg384
(dp4832
sg386
Nsg25
g27
sg387
(lp4833
I64
aI15
asg389
Nsg390
VTamid 32b:15
p4834
sg392
(lp4835
sg394
g61
sg395
Nsg396
(lp4836
I64
aI15
asg398
Nsg399
g4834
sg400
(lp4837
sg402
g363
sg403
Nsg404
Nsg405
Nsbag3
(g4
g5
NtRp4838
(dp4839
g8
g10
sg383
Nsg384
(dp4840
sg386
Nsg25
g27
sg387
(lp4841
I64
aI16
asg389
Nsg390
VTamid 32b:16
p4842
sg392
(lp4843
sg394
g61
sg395
Nsg396
(lp4844
I64
aI16
asg398
Nsg399
g4842
sg400
(lp4845
sg402
g363
sg403
Nsg404
Nsg405
Nsbag3
(g4
g5
NtRp4846
(dp4847
g8
g10
sg383
Nsg384
(dp4848
sg386
Nsg25
g27
sg387
(lp4849
I64
aI17
asg389
Nsg390
VTamid 32b:17
p4850
sg392
(lp4851
sg394
g61
sg395
Nsg396
(lp4852
I64
aI17
asg398
Nsg399
g4850
sg400
(lp4853
sg402
g363
sg403
Nsg404
Nsg405
Nsbag3
(g4
g5
NtRp4854
(dp4855
g8
g10
sg383
Nsg384
(dp4856
sg386
Nsg25
g27
sg387
(lp4857
I64
aI18
asg389
Nsg390
VTamid 32b:18
p4858
sg392
(lp4859
sg394
g61
sg395
Nsg396
(lp4860
I64
aI18
asg398
Nsg399
g4858
sg400
(lp4861
sg402
g363
sg403
Nsg404
Nsg405
Nsbag3
(g4
g5
NtRp4862
(dp4863
g8
g10
sg383
Nsg384
(dp4864
sg386
Nsg25
g27
sg387
(lp4865
I64
aI19
asg389
Nsg390
VTamid 32b:19
p4866
sg392
(lp4867
sg394
g61
sg395
Nsg396
(lp4868
I64
aI19
asg398
Nsg399
g4866
sg400
(lp4869
sg402
g363
sg403
Nsg404
Nsg405
Nsbag3
(g4
g5
NtRp4870
(dp4871
g8
g10
sg383
Nsg384
(dp4872
sg386
Nsg25
g27
sg387
(lp4873
I64
aI20
asg389
Nsg390
VTamid 32b:20
p4874
sg392
(lp4875
sg394
g61
sg395
Nsg396
(lp4876
I64
aI20
asg398
Nsg399
g4874
sg400
(lp4877
sg402
g363
sg403
Nsg404
Nsg405
Nsbag3
(g4
g5
NtRp4878
(dp4879
g8
g10
sg383
Nsg384
(dp4880
sg386
Nsg25
g27
sg387
(lp4881
I64
aI21
asg389
Nsg390
VTamid 32b:21
p4882
sg392
(lp4883
sg394
g61
sg395
Nsg396
(lp4884
I64
aI21
asg398
Nsg399
g4882
sg400
(lp4885
sg402
g363
sg403
Nsg404
Nsg405
Nsbag3
(g4
g5
NtRp4886
(dp4887
g8
g10
sg383
Nsg384
(dp4888
sg386
Nsg25
g27
sg387
(lp4889
I64
aI22
asg389
Nsg390
VTamid 32b:22
p4890
sg392
(lp4891
sg394
g61
sg395
Nsg396
(lp4892
I64
aI22
asg398
Nsg399
g4890
sg400
(lp4893
sg402
g363
sg403
Nsg404
Nsg405
Nsbag3
(g4
g5
NtRp4894
(dp4895
g8
g10
sg383
Nsg384
(dp4896
sg386
Nsg25
g27
sg387
(lp4897
I64
aI23
asg389
Nsg390
VTamid 32b:23
p4898
sg392
(lp4899
sg394
g61
sg395
Nsg396
(lp4900
I64
aI23
asg398
Nsg399
g4898
sg400
(lp4901
sg402
g363
sg403
Nsg404
Nsg405
Nsbag3
(g4
g5
NtRp4902
(dp4903
g8
g10
sg383
Nsg384
(dp4904
sg386
Nsg25
g27
sg387
(lp4905
I64
aI24
asg389
Nsg390
VTamid 32b:24
p4906
sg392
(lp4907
sg394
g61
sg395
Nsg396
(lp4908
I64
aI24
asg398
Nsg399
g4906
sg400
(lp4909
sg402
g363
sg403
Nsg404
Nsg405
Nsbag3
(g4
g5
NtRp4910
(dp4911
g8
g10
sg383
Nsg384
(dp4912
sg386
Nsg25
g27
sg387
(lp4913
I64
aI25
asg389
Nsg390
VTamid 32b:25
p4914
sg392
(lp4915
sg394
g61
sg395
Nsg396
(lp4916
I64
aI25
asg398
Nsg399
g4914
sg400
(lp4917
sg402
g363
sg403
Nsg404
Nsg405
Nsbag3
(g4
g5
NtRp4918
(dp4919
g8
g10
sg383
Nsg384
(dp4920
sg386
Nsg25
g27
sg387
(lp4921
I64
aI26
asg389
Nsg390
VTamid 32b:26
p4922
sg392
(lp4923
sg394
g61
sg395
Nsg396
(lp4924
I64
aI26
asg398
Nsg399
g4922
sg400
(lp4925
sg402
g363
sg403
Nsg404
Nsg405
Nsbag3
(g4
g5
NtRp4926
(dp4927
g8
g10
sg383
Nsg384
(dp4928
sg386
Nsg25
g27
sg387
(lp4929
I64
aI27
asg389
Nsg390
VTamid 32b:27
p4930
sg392
(lp4931
sg394
g61
sg395
Nsg396
(lp4932
I64
aI27
asg398
Nsg399
g4930
sg400
(lp4933
sg402
g363
sg403
Nsg404
Nsg405
Nsbag3
(g4
g5
NtRp4934
(dp4935
g8
g10
sg383
Nsg384
(dp4936
sg386
Nsg25
g27
sg387
(lp4937
I64
aI28
asg389
Nsg390
VTamid 32b:28
p4938
sg392
(lp4939
sg394
g61
sg395
Nsg396
(lp4940
I64
aI28
asg398
Nsg399
g4938
sg400
(lp4941
sg402
g363
sg403
Nsg404
Nsg405
Nsbag3
(g4
g5
NtRp4942
(dp4943
g8
g10
sg383
Nsg384
(dp4944
sg386
Nsg25
g27
sg387
(lp4945
I64
aI29
asg389
Nsg390
VTamid 32b:29
p4946
sg392
(lp4947
sg394
g61
sg395
Nsg396
(lp4948
I64
aI29
asg398
Nsg399
g4946
sg400
(lp4949
sg402
g363
sg403
Nsg404
Nsg405
Nsbag3
(g4
g5
NtRp4950
(dp4951
g8
g10
sg383
Nsg384
(dp4952
sg386
Nsg25
g27
sg387
(lp4953
I64
aI30
asg389
Nsg390
VTamid 32b:30
p4954
sg392
(lp4955
sg394
g61
sg395
Nsg396
(lp4956
I64
aI30
asg398
Nsg399
g4954
sg400
(lp4957
sg402
g363
sg403
Nsg404
Nsg405
Nsbag3
(g4
g5
NtRp4958
(dp4959
g8
g10
sg383
Nsg384
(dp4960
sg386
Nsg25
g27
sg387
(lp4961
I64
aI31
asg389
Nsg390
VTamid 32b:31
p4962
sg392
(lp4963
sg394
g61
sg395
Nsg396
(lp4964
I64
aI31
asg398
Nsg399
g4962
sg400
(lp4965
sg402
g363
sg403
Nsg404
Nsg405
Nsbag3
(g4
g5
NtRp4966
(dp4967
g8
g10
sg383
Nsg384
(dp4968
sg386
Nsg25
g27
sg387
(lp4969
I64
aI32
asg389
Nsg390
VTamid 32b:32
p4970
sg392
(lp4971
sg394
g61
sg395
Nsg396
(lp4972
I64
aI32
asg398
Nsg399
g4970
sg400
(lp4973
sg402
g363
sg403
Nsg404
Nsg405
Nsbag3
(g4
g5
NtRp4974
(dp4975
g8
g10
sg383
Nsg384
(dp4976
sg386
Nsg25
g27
sg387
(lp4977
I64
aI33
asg389
Nsg390
VTamid 32b:33
p4978
sg392
(lp4979
sg394
g61
sg395
Nsg396
(lp4980
I64
aI33
asg398
Nsg399
g4978
sg400
(lp4981
sg402
g363
sg403
Nsg404
Nsg405
Nsbag3
(g4
g5
NtRp4982
(dp4983
g8
g10
sg383
Nsg384
(dp4984
sg386
Nsg25
g27
sg387
(lp4985
I64
aI34
asg389
Nsg390
VTamid 32b:34
p4986
sg392
(lp4987
sg394
g61
sg395
Nsg396
(lp4988
I64
aI34
asg398
Nsg399
g4986
sg400
(lp4989
sg402
g363
sg403
Nsg404
Nsg405
Nsbag3
(g4
g5
NtRp4990
(dp4991
g8
g10
sg383
Nsg384
(dp4992
sg386
Nsg25
g27
sg387
(lp4993
I64
aI35
asg389
Nsg390
VTamid 32b:35
p4994
sg392
(lp4995
sg394
g61
sg395
Nsg396
(lp4996
I64
aI35
asg398
Nsg399
g4994
sg400
(lp4997
sg402
g363
sg403
Nsg404
Nsg405
Nsbag3
(g4
g5
NtRp4998
(dp4999
g8
g10
sg383
Nsg384
(dp5000
sg386
Nsg25
g27
sg387
(lp5001
I64
aI36
asg389
Nsg390
VTamid 32b:36
p5002
sg392
(lp5003
sg394
g61
sg395
Nsg396
(lp5004
I64
aI36
asg398
Nsg399
g5002
sg400
(lp5005
sg402
g363
sg403
Nsg404
Nsg405
Nsbag3
(g4
g5
NtRp5006
(dp5007
g8
g10
sg383
Nsg384
(dp5008
sg386
Nsg25
g27
sg387
(lp5009
I64
aI37
asg389
Nsg390
VTamid 32b:37
p5010
sg392
(lp5011
sg394
g61
sg395
Nsg396
(lp5012
I64
aI37
asg398
Nsg399
g5010
sg400
(lp5013
sg402
g363
sg403
Nsg404
Nsg405
Nsbag3
(g4
g5
NtRp5014
(dp5015
g8
g10
sg383
Nsg384
(dp5016
sg386
Nsg25
g27
sg387
(lp5017
I64
aI38
asg389
Nsg390
VTamid 32b:38
p5018
sg392
(lp5019
sg394
g61
sg395
Nsg396
(lp5020
I64
aI38
asg398
Nsg399
g5018
sg400
(lp5021
sg402
g363
sg403
Nsg404
Nsg405
Nsbag3
(g4
g5
NtRp5022
(dp5023
g8
g10
sg383
Nsg384
(dp5024
sg386
Nsg25
g27
sg387
(lp5025
I64
aI39
asg389
Nsg390
VTamid 32b:39
p5026
sg392
(lp5027
sg394
g61
sg395
Nsg396
(lp5028
I64
aI39
asg398
Nsg399
g5026
sg400
(lp5029
sg402
g363
sg403
Nsg404
Nsg405
Nsbag3
(g4
g5
NtRp5030
(dp5031
g8
g10
sg383
Nsg384
(dp5032
sg386
Nsg25
g27
sg387
(lp5033
I64
aI40
asg389
Nsg390
VTamid 32b:40
p5034
sg392
(lp5035
sg394
g61
sg395
Nsg396
(lp5036
I64
aI40
asg398
Nsg399
g5034
sg400
(lp5037
sg402
g363
sg403
Nsg404
Nsg405
Nsbag3
(g4
g5
NtRp5038
(dp5039
g8
g10
sg383
Nsg384
(dp5040
sg386
Nsg25
g27
sg387
(lp5041
I64
aI41
asg389
Nsg390
VTamid 32b:41
p5042
sg392
(lp5043
sg394
g61
sg395
Nsg396
(lp5044
I64
aI41
asg398
Nsg399
g5042
sg400
(lp5045
sg402
g363
sg403
Nsg404
Nsg405
Nsbag3
(g4
g5
NtRp5046
(dp5047
g8
g10
sg383
Nsg384
(dp5048
sg386
Nsg25
g27
sg387
(lp5049
I64
aI42
asg389
Nsg390
VTamid 32b:42
p5050
sg392
(lp5051
sg394
g61
sg395
Nsg396
(lp5052
I64
aI42
asg398
Nsg399
g5050
sg400
(lp5053
sg402
g363
sg403
Nsg404
Nsg405
Nsbag3
(g4
g5
NtRp5054
(dp5055
g8
g10
sg383
Nsg384
(dp5056
sg386
Nsg25
g27
sg387
(lp5057
I64
aI43
asg389
Nsg390
VTamid 32b:43
p5058
sg392
(lp5059
sg394
g61
sg395
Nsg396
(lp5060
I64
aI43
asg398
Nsg399
g5058
sg400
(lp5061
sg402
g363
sg403
Nsg404
Nsg405
Nsbag3
(g4
g5
NtRp5062
(dp5063
g8
g10
sg383
Nsg384
(dp5064
sg386
Nsg25
g27
sg387
(lp5065
I64
aI44
asg389
Nsg390
VTamid 32b:44
p5066
sg392
(lp5067
sg394
g61
sg395
Nsg396
(lp5068
I64
aI44
asg398
Nsg399
g5066
sg400
(lp5069
sg402
g363
sg403
Nsg404
Nsg405
Nsbag3
(g4
g5
NtRp5070
(dp5071
g8
g10
sg383
Nsg384
(dp5072
sg386
Nsg25
g27
sg387
(lp5073
I64
aI45
asg389
Nsg390
VTamid 32b:45
p5074
sg392
(lp5075
sg394
g61
sg395
Nsg396
(lp5076
I64
aI45
asg398
Nsg399
g5074
sg400
(lp5077
sg402
g363
sg403
Nsg404
Nsg405
Nsbag3
(g4
g5
NtRp5078
(dp5079
g8
g10
sg383
Nsg384
(dp5080
sg386
Nsg25
g27
sg387
(lp5081
I64
aI46
asg389
Nsg390
VTamid 32b:46
p5082
sg392
(lp5083
sg394
g61
sg395
Nsg396
(lp5084
I64
aI46
asg398
Nsg399
g5082
sg400
(lp5085
sg402
g363
sg403
Nsg404
Nsg405
Nsbag3
(g4
g5
NtRp5086
(dp5087
g8
g10
sg383
Nsg384
(dp5088
sg386
Nsg25
g27
sg387
(lp5089
I64
aI47
asg389
Nsg390
VTamid 32b:47
p5090
sg392
(lp5091
sg394
g61
sg395
Nsg396
(lp5092
I64
aI47
asg398
Nsg399
g5090
sg400
(lp5093
sg402
g363
sg403
Nsg404
Nsg405
Nsbag3
(g4
g5
NtRp5094
(dp5095
g8
g10
sg383
Nsg384
(dp5096
sg386
Nsg25
g27
sg387
(lp5097
I64
aI48
asg389
Nsg390
VTamid 32b:48
p5098
sg392
(lp5099
sg394
g61
sg395
Nsg396
(lp5100
I64
aI48
asg398
Nsg399
g5098
sg400
(lp5101
sg402
g363
sg403
Nsg404
Nsg405
Nsbag3
(g4
g5
NtRp5102
(dp5103
g8
g10
sg383
Nsg384
(dp5104
sg386
Nsg25
g27
sg387
(lp5105
I64
aI49
asg389
Nsg390
VTamid 32b:49
p5106
sg392
(lp5107
sg394
g61
sg395
Nsg396
(lp5108
I64
aI49
asg398
Nsg399
g5106
sg400
(lp5109
sg402
g363
sg403
Nsg404
Nsg405
Nsbag3
(g4
g5
NtRp5110
(dp5111
g8
g10
sg383
Nsg384
(dp5112
sg386
Nsg25
g27
sg387
(lp5113
I64
aI50
asg389
Nsg390
VTamid 32b:50
p5114
sg392
(lp5115
sg394
g61
sg395
Nsg396
(lp5116
I64
aI50
asg398
Nsg399
g5114
sg400
(lp5117
sg402
g363
sg403
Nsg404
Nsg405
Nsbag3
(g4
g5
NtRp5118
(dp5119
g8
g10
sg383
Nsg384
(dp5120
sg386
Nsg25
g27
sg387
(lp5121
I64
aI51
asg389
Nsg390
VTamid 32b:51
p5122
sg392
(lp5123
sg394
g61
sg395
Nsg396
(lp5124
I64
aI51
asg398
Nsg399
g5122
sg400
(lp5125
sg402
g363
sg403
Nsg404
Nsg405
Nsbag3
(g4
g5
NtRp5126
(dp5127
g8
g10
sg383
Nsg384
(dp5128
sg386
Nsg25
g27
sg387
(lp5129
I64
aI52
asg389
Nsg390
VTamid 32b:52
p5130
sg392
(lp5131
sg394
g61
sg395
Nsg396
(lp5132
I64
aI52
asg398
Nsg399
g5130
sg400
(lp5133
sg402
g363
sg403
Nsg404
Nsg405
Nsbag3
(g4
g5
NtRp5134
(dp5135
g8
g10
sg383
Nsg384
(dp5136
sg386
Nsg25
g27
sg387
(lp5137
I64
aI53
asg389
Nsg390
VTamid 32b:53
p5138
sg392
(lp5139
sg394
g61
sg395
Nsg396
(lp5140
I64
aI53
asg398
Nsg399
g5138
sg400
(lp5141
sg402
g363
sg403
Nsg404
Nsg405
Nsbag3
(g4
g5
NtRp5142
(dp5143
g8
g10
sg383
Nsg384
(dp5144
sg386
Nsg25
g27
sg387
(lp5145
I64
aI54
asg389
Nsg390
VTamid 32b:54
p5146
sg392
(lp5147
sg394
g61
sg395
Nsg396
(lp5148
I64
aI54
asg398
Nsg399
g5146
sg400
(lp5149
sg402
g363
sg403
Nsg404
Nsg405
Nsbag3
(g4
g5
NtRp5150
(dp5151
g8
g10
sg383
Nsg384
(dp5152
sg386
Nsg25
g27
sg387
(lp5153
I64
aI55
asg389
Nsg390
VTamid 32b:55
p5154
sg392
(lp5155
sg394
g61
sg395
Nsg396
(lp5156
I64
aI55
asg398
Nsg399
g5154
sg400
(lp5157
sg402
g363
sg403
Nsg404
Nsg405
Nsbag3
(g4
g5
NtRp5158
(dp5159
g8
g10
sg383
Nsg384
(dp5160
sg386
Nsg25
g27
sg387
(lp5161
I64
aI56
asg389
Nsg390
VTamid 32b:56
p5162
sg392
(lp5163
sg394
g61
sg395
Nsg396
(lp5164
I64
aI56
asg398
Nsg399
g5162
sg400
(lp5165
sg402
g363
sg403
Nsg404
Nsg405
Nsbag3
(g4
g5
NtRp5166
(dp5167
g8
g10
sg383
Nsg384
(dp5168
sg386
Nsg25
g27
sg387
(lp5169
I65
aI1
asg389
Nsg390
VTamid 33a:1
p5170
sg392
(lp5171
sg394
g61
sg395
Nsg396
(lp5172
I65
aI1
asg398
Nsg399
g5170
sg400
(lp5173
sg402
g363
sg403
Nsg404
Nsg405
Nsbag3
(g4
g5
NtRp5174
(dp5175
g8
g10
sg383
Nsg384
(dp5176
sg386
Nsg25
g27
sg387
(lp5177
I65
aI2
asg389
Nsg390
VTamid 33a:2
p5178
sg392
(lp5179
sg394
g61
sg395
Nsg396
(lp5180
I65
aI2
asg398
Nsg399
g5178
sg400
(lp5181
sg402
g363
sg403
Nsg404
Nsg405
Nsbag3
(g4
g5
NtRp5182
(dp5183
g8
g10
sg383
Nsg384
(dp5184
sg386
Nsg25
g27
sg387
(lp5185
I65
aI3
asg389
Nsg390
VTamid 33a:3
p5186
sg392
(lp5187
sg394
g61
sg395
Nsg396
(lp5188
I65
aI3
asg398
Nsg399
g5186
sg400
(lp5189
sg402
g363
sg403
Nsg404
Nsg405
Nsbag3
(g4
g5
NtRp5190
(dp5191
g8
g10
sg383
Nsg384
(dp5192
sg386
Nsg25
g27
sg387
(lp5193
I65
aI4
asg389
Nsg390
VTamid 33a:4
p5194
sg392
(lp5195
sg394
g61
sg395
Nsg396
(lp5196
I65
aI4
asg398
Nsg399
g5194
sg400
(lp5197
sg402
g363
sg403
Nsg404
Nsg405
Nsbag3
(g4
g5
NtRp5198
(dp5199
g8
g10
sg383
Nsg384
(dp5200
sg386
Nsg25
g27
sg387
(lp5201
I65
aI5
asg389
Nsg390
VTamid 33a:5
p5202
sg392
(lp5203
sg394
g61
sg395
Nsg396
(lp5204
I65
aI5
asg398
Nsg399
g5202
sg400
(lp5205
sg402
g363
sg403
Nsg404
Nsg405
Nsbag3
(g4
g5
NtRp5206
(dp5207
g8
g10
sg383
Nsg384
(dp5208
sg386
Nsg25
g27
sg387
(lp5209
I65
aI6
asg389
Nsg390
VTamid 33a:6
p5210
sg392
(lp5211
sg394
g61
sg395
Nsg396
(lp5212
I65
aI6
asg398
Nsg399
g5210
sg400
(lp5213
sg402
g363
sg403
Nsg404
Nsg405
Nsbag3
(g4
g5
NtRp5214
(dp5215
g8
g10
sg383
Nsg384
(dp5216
sg386
Nsg25
g27
sg387
(lp5217
I65
aI7
asg389
Nsg390
VTamid 33a:7
p5218
sg392
(lp5219
sg394
g61
sg395
Nsg396
(lp5220
I65
aI7
asg398
Nsg399
g5218
sg400
(lp5221
sg402
g363
sg403
Nsg404
Nsg405
Nsbag3
(g4
g5
NtRp5222
(dp5223
g8
g10
sg383
Nsg384
(dp5224
sg386
Nsg25
g27
sg387
(lp5225
I65
aI8
asg389
Nsg390
VTamid 33a:8
p5226
sg392
(lp5227
sg394
g61
sg395
Nsg396
(lp5228
I65
aI8
asg398
Nsg399
g5226
sg400
(lp5229
sg402
g363
sg403
Nsg404
Nsg405
Nsbag3
(g4
g5
NtRp5230
(dp5231
g8
g10
sg383
Nsg384
(dp5232
sg386
Nsg25
g27
sg387
(lp5233
I65
aI9
asg389
Nsg390
VTamid 33a:9
p5234
sg392
(lp5235
sg394
g61
sg395
Nsg396
(lp5236
I65
aI9
asg398
Nsg399
g5234
sg400
(lp5237
sg402
g363
sg403
Nsg404
Nsg405
Nsbag3
(g4
g5
NtRp5238
(dp5239
g8
g10
sg383
Nsg384
(dp5240
sg386
Nsg25
g27
sg387
(lp5241
I65
aI10
asg389
Nsg390
VTamid 33a:10
p5242
sg392
(lp5243
sg394
g61
sg395
Nsg396
(lp5244
I65
aI10
asg398
Nsg399
g5242
sg400
(lp5245
sg402
g363
sg403
Nsg404
Nsg405
Nsbag3
(g4
g5
NtRp5246
(dp5247
g8
g10
sg383
Nsg384
(dp5248
sg386
Nsg25
g27
sg387
(lp5249
I65
aI11
asg389
Nsg390
VTamid 33a:11
p5250
sg392
(lp5251
sg394
g61
sg395
Nsg396
(lp5252
I65
aI11
asg398
Nsg399
g5250
sg400
(lp5253
sg402
g363
sg403
Nsg404
Nsg405
Nsbag3
(g4
g5
NtRp5254
(dp5255
g8
g10
sg383
Nsg384
(dp5256
sg386
Nsg25
g27
sg387
(lp5257
I65
aI12
asg389
Nsg390
VTamid 33a:12
p5258
sg392
(lp5259
sg394
g61
sg395
Nsg396
(lp5260
I65
aI12
asg398
Nsg399
g5258
sg400
(lp5261
sg402
g363
sg403
Nsg404
Nsg405
Nsbag3
(g4
g5
NtRp5262
(dp5263
g8
g10
sg383
Nsg384
(dp5264
sg386
Nsg25
g27
sg387
(lp5265
I65
aI13
asg389
Nsg390
VTamid 33a:13
p5266
sg392
(lp5267
sg394
g61
sg395
Nsg396
(lp5268
I65
aI13
asg398
Nsg399
g5266
sg400
(lp5269
sg402
g363
sg403
Nsg404
Nsg405
Nsbag3
(g4
g5
NtRp5270
(dp5271
g8
g10
sg383
Nsg384
(dp5272
sg386
Nsg25
g27
sg387
(lp5273
I65
aI14
asg389
Nsg390
VTamid 33a:14
p5274
sg392
(lp5275
sg394
g61
sg395
Nsg396
(lp5276
I65
aI14
asg398
Nsg399
g5274
sg400
(lp5277
sg402
g363
sg403
Nsg404
Nsg405
Nsbag3
(g4
g5
NtRp5278
(dp5279
g8
g10
sg383
Nsg384
(dp5280
sg386
Nsg25
g27
sg387
(lp5281
I65
aI15
asg389
Nsg390
VTamid 33a:15
p5282
sg392
(lp5283
sg394
g61
sg395
Nsg396
(lp5284
I65
aI15
asg398
Nsg399
g5282
sg400
(lp5285
sg402
g363
sg403
Nsg404
Nsg405
Nsbag3
(g4
g5
NtRp5286
(dp5287
g8
g10
sg383
Nsg384
(dp5288
sg386
Nsg25
g27
sg387
(lp5289
I65
aI16
asg389
Nsg390
VTamid 33a:16
p5290
sg392
(lp5291
sg394
g61
sg395
Nsg396
(lp5292
I65
aI16
asg398
Nsg399
g5290
sg400
(lp5293
sg402
g363
sg403
Nsg404
Nsg405
Nsbag3
(g4
g5
NtRp5294
(dp5295
g8
g10
sg383
Nsg384
(dp5296
sg386
Nsg25
g27
sg387
(lp5297
I65
aI17
asg389
Nsg390
VTamid 33a:17
p5298
sg392
(lp5299
sg394
g61
sg395
Nsg396
(lp5300
I65
aI17
asg398
Nsg399
g5298
sg400
(lp5301
sg402
g363
sg403
Nsg404
Nsg405
Nsbag3
(g4
g5
NtRp5302
(dp5303
g8
g10
sg383
Nsg384
(dp5304
sg386
Nsg25
g27
sg387
(lp5305
I65
aI18
asg389
Nsg390
VTamid 33a:18
p5306
sg392
(lp5307
sg394
g61
sg395
Nsg396
(lp5308
I65
aI18
asg398
Nsg399
g5306
sg400
(lp5309
sg402
g363
sg403
Nsg404
Nsg405
Nsbag3
(g4
g5
NtRp5310
(dp5311
g8
g10
sg383
Nsg384
(dp5312
sg386
Nsg25
g27
sg387
(lp5313
I65
aI19
asg389
Nsg390
VTamid 33a:19
p5314
sg392
(lp5315
sg394
g61
sg395
Nsg396
(lp5316
I65
aI19
asg398
Nsg399
g5314
sg400
(lp5317
sg402
g363
sg403
Nsg404
Nsg405
Nsbag3
(g4
g5
NtRp5318
(dp5319
g8
g10
sg383
Nsg384
(dp5320
sg386
Nsg25
g27
sg387
(lp5321
I65
aI20
asg389
Nsg390
VTamid 33a:20
p5322
sg392
(lp5323
sg394
g61
sg395
Nsg396
(lp5324
I65
aI20
asg398
Nsg399
g5322
sg400
(lp5325
sg402
g363
sg403
Nsg404
Nsg405
Nsbag3
(g4
g5
NtRp5326
(dp5327
g8
g10
sg383
Nsg384
(dp5328
sg386
Nsg25
g27
sg387
(lp5329
I65
aI21
asg389
Nsg390
VTamid 33a:21
p5330
sg392
(lp5331
sg394
g61
sg395
Nsg396
(lp5332
I65
aI21
asg398
Nsg399
g5330
sg400
(lp5333
sg402
g363
sg403
Nsg404
Nsg405
Nsbag3
(g4
g5
NtRp5334
(dp5335
g8
g10
sg383
Nsg384
(dp5336
sg386
Nsg25
g27
sg387
(lp5337
I65
aI22
asg389
Nsg390
VTamid 33a:22
p5338
sg392
(lp5339
sg394
g61
sg395
Nsg396
(lp5340
I65
aI22
asg398
Nsg399
g5338
sg400
(lp5341
sg402
g363
sg403
Nsg404
Nsg405
Nsbag3
(g4
g5
NtRp5342
(dp5343
g8
g10
sg383
Nsg384
(dp5344
sg386
Nsg25
g27
sg387
(lp5345
I65
aI23
asg389
Nsg390
VTamid 33a:23
p5346
sg392
(lp5347
sg394
g61
sg395
Nsg396
(lp5348
I65
aI23
asg398
Nsg399
g5346
sg400
(lp5349
sg402
g363
sg403
Nsg404
Nsg405
Nsbag3
(g4
g5
NtRp5350
(dp5351
g8
g10
sg383
Nsg384
(dp5352
sg386
Nsg25
g27
sg387
(lp5353
I65
aI24
asg389
Nsg390
VTamid 33a:24
p5354
sg392
(lp5355
sg394
g61
sg395
Nsg396
(lp5356
I65
aI24
asg398
Nsg399
g5354
sg400
(lp5357
sg402
g363
sg403
Nsg404
Nsg405
Nsbag3
(g4
g5
NtRp5358
(dp5359
g8
g10
sg383
Nsg384
(dp5360
sg386
Nsg25
g27
sg387
(lp5361
I65
aI25
asg389
Nsg390
VTamid 33a:25
p5362
sg392
(lp5363
sg394
g61
sg395
Nsg396
(lp5364
I65
aI25
asg398
Nsg399
g5362
sg400
(lp5365
sg402
g363
sg403
Nsg404
Nsg405
Nsbag3
(g4
g5
NtRp5366
(dp5367
g8
g10
sg383
Nsg384
(dp5368
sg386
Nsg25
g27
sg387
(lp5369
I65
aI26
asg389
Nsg390
VTamid 33a:26
p5370
sg392
(lp5371
sg394
g61
sg395
Nsg396
(lp5372
I65
aI26
asg398
Nsg399
g5370
sg400
(lp5373
sg402
g363
sg403
Nsg404
Nsg405
Nsbag3
(g4
g5
NtRp5374
(dp5375
g8
g10
sg383
Nsg384
(dp5376
sg386
Nsg25
g27
sg387
(lp5377
I65
aI27
asg389
Nsg390
VTamid 33a:27
p5378
sg392
(lp5379
sg394
g61
sg395
Nsg396
(lp5380
I65
aI27
asg398
Nsg399
g5378
sg400
(lp5381
sg402
g363
sg403
Nsg404
Nsg405
Nsbag3
(g4
g5
NtRp5382
(dp5383
g8
g10
sg383
Nsg384
(dp5384
sg386
Nsg25
g27
sg387
(lp5385
I65
aI28
asg389
Nsg390
VTamid 33a:28
p5386
sg392
(lp5387
sg394
g61
sg395
Nsg396
(lp5388
I65
aI28
asg398
Nsg399
g5386
sg400
(lp5389
sg402
g363
sg403
Nsg404
Nsg405
Nsbag3
(g4
g5
NtRp5390
(dp5391
g8
g10
sg383
Nsg384
(dp5392
sg386
Nsg25
g27
sg387
(lp5393
I65
aI29
asg389
Nsg390
VTamid 33a:29
p5394
sg392
(lp5395
sg394
g61
sg395
Nsg396
(lp5396
I65
aI29
asg398
Nsg399
g5394
sg400
(lp5397
sg402
g363
sg403
Nsg404
Nsg405
Nsbag3
(g4
g5
NtRp5398
(dp5399
g8
g10
sg383
Nsg384
(dp5400
sg386
Nsg25
g27
sg387
(lp5401
I65
aI30
asg389
Nsg390
VTamid 33a:30
p5402
sg392
(lp5403
sg394
g61
sg395
Nsg396
(lp5404
I65
aI30
asg398
Nsg399
g5402
sg400
(lp5405
sg402
g363
sg403
Nsg404
Nsg405
Nsbag3
(g4
g5
NtRp5406
(dp5407
g8
g10
sg383
Nsg384
(dp5408
sg386
Nsg25
g27
sg387
(lp5409
I65
aI31
asg389
Nsg390
VTamid 33a:31
p5410
sg392
(lp5411
sg394
g61
sg395
Nsg396
(lp5412
I65
aI31
asg398
Nsg399
g5410
sg400
(lp5413
sg402
g363
sg403
Nsg404
Nsg405
Nsbag3
(g4
g5
NtRp5414
(dp5415
g8
g10
sg383
Nsg384
(dp5416
sg386
Nsg25
g27
sg387
(lp5417
I66
aI1
asg389
Nsg390
VTamid 33b:1
p5418
sg392
(lp5419
sg394
g61
sg395
Nsg396
(lp5420
I66
aI1
asg398
Nsg399
g5418
sg400
(lp5421
sg402
g363
sg403
Nsg404
Nsg405
Nsbag3
(g4
g5
NtRp5422
(dp5423
g8
g10
sg383
Nsg384
(dp5424
sg386
Nsg25
g27
sg387
(lp5425
I66
aI2
asg389
Nsg390
VTamid 33b:2
p5426
sg392
(lp5427
sg394
g61
sg395
Nsg396
(lp5428
I66
aI2
asg398
Nsg399
g5426
sg400
(lp5429
sg402
g363
sg403
Nsg404
Nsg405
Nsbag3
(g4
g5
NtRp5430
(dp5431
g8
g10
sg383
Nsg384
(dp5432
sg386
Nsg25
g27
sg387
(lp5433
I66
aI3
asg389
Nsg390
VTamid 33b:3
p5434
sg392
(lp5435
sg394
g61
sg395
Nsg396
(lp5436
I66
aI3
asg398
Nsg399
g5434
sg400
(lp5437
sg402
g363
sg403
Nsg404
Nsg405
Nsbag3
(g4
g5
NtRp5438
(dp5439
g8
g10
sg383
Nsg384
(dp5440
sg386
Nsg25
g27
sg387
(lp5441
I66
aI4
asg389
Nsg390
VTamid 33b:4
p5442
sg392
(lp5443
sg394
g61
sg395
Nsg396
(lp5444
I66
aI4
asg398
Nsg399
g5442
sg400
(lp5445
sg402
g363
sg403
Nsg404
Nsg405
Nsbag3
(g4
g5
NtRp5446
(dp5447
g8
g10
sg383
Nsg384
(dp5448
sg386
Nsg25
g27
sg387
(lp5449
I66
aI5
asg389
Nsg390
VTamid 33b:5
p5450
sg392
(lp5451
sg394
g61
sg395
Nsg396
(lp5452
I66
aI5
asg398
Nsg399
g5450
sg400
(lp5453
sg402
g363
sg403
Nsg404
Nsg405
Nsbag3
(g4
g5
NtRp5454
(dp5455
g8
g10
sg383
Nsg384
(dp5456
sg386
Nsg25
g27
sg387
(lp5457
I66
aI6
asg389
Nsg390
VTamid 33b:6
p5458
sg392
(lp5459
sg394
g61
sg395
Nsg396
(lp5460
I66
aI6
asg398
Nsg399
g5458
sg400
(lp5461
sg402
g363
sg403
Nsg404
Nsg405
Nsbag3
(g4
g5
NtRp5462
(dp5463
g8
g10
sg383
Nsg384
(dp5464
sg386
Nsg25
g27
sg387
(lp5465
I66
aI7
asg389
Nsg390
VTamid 33b:7
p5466
sg392
(lp5467
sg394
g61
sg395
Nsg396
(lp5468
I66
aI7
asg398
Nsg399
g5466
sg400
(lp5469
sg402
g363
sg403
Nsg404
Nsg405
Nsbag3
(g4
g5
NtRp5470
(dp5471
g8
g10
sg383
Nsg384
(dp5472
sg386
Nsg25
g27
sg387
(lp5473
I66
aI8
asg389
Nsg390
VTamid 33b:8
p5474
sg392
(lp5475
sg394
g61
sg395
Nsg396
(lp5476
I66
aI8
asg398
Nsg399
g5474
sg400
(lp5477
sg402
g363
sg403
Nsg404
Nsg405
Nsbag3
(g4
g5
NtRp5478
(dp5479
g8
g10
sg383
Nsg384
(dp5480
sg386
Nsg25
g27
sg387
(lp5481
I66
aI9
asg389
Nsg390
VTamid 33b:9
p5482
sg392
(lp5483
sg394
g61
sg395
Nsg396
(lp5484
I66
aI9
asg398
Nsg399
g5482
sg400
(lp5485
sg402
g363
sg403
Nsg404
Nsg405
Nsbag3
(g4
g5
NtRp5486
(dp5487
g8
g10
sg383
Nsg384
(dp5488
sg386
Nsg25
g27
sg387
(lp5489
I66
aI10
asg389
Nsg390
VTamid 33b:10
p5490
sg392
(lp5491
sg394
g61
sg395
Nsg396
(lp5492
I66
aI10
asg398
Nsg399
g5490
sg400
(lp5493
sg402
g363
sg403
Nsg404
Nsg405
Nsbag3
(g4
g5
NtRp5494
(dp5495
g8
g10
sg383
Nsg384
(dp5496
sg386
Nsg25
g27
sg387
(lp5497
I66
aI11
asg389
Nsg390
VTamid 33b:11
p5498
sg392
(lp5499
sg394
g61
sg395
Nsg396
(lp5500
I66
aI11
asg398
Nsg399
g5498
sg400
(lp5501
sg402
g363
sg403
Nsg404
Nsg405
Nsbag3
(g4
g5
NtRp5502
(dp5503
g8
g10
sg383
Nsg384
(dp5504
sg386
Nsg25
g27
sg387
(lp5505
I66
aI12
asg389
Nsg390
VTamid 33b:12
p5506
sg392
(lp5507
sg394
g61
sg395
Nsg396
(lp5508
I66
aI12
asg398
Nsg399
g5506
sg400
(lp5509
sg402
g363
sg403
Nsg404
Nsg405
Nsbag3
(g4
g5
NtRp5510
(dp5511
g8
g10
sg383
Nsg384
(dp5512
sg386
Nsg25
g27
sg387
(lp5513
I66
aI13
asg389
Nsg390
VTamid 33b:13
p5514
sg392
(lp5515
sg394
g61
sg395
Nsg396
(lp5516
I66
aI13
asg398
Nsg399
g5514
sg400
(lp5517
sg402
g363
sg403
Nsg404
Nsg405
Nsbag3
(g4
g5
NtRp5518
(dp5519
g8
g10
sg383
Nsg384
(dp5520
sg386
Nsg25
g27
sg387
(lp5521
I66
aI14
asg389
Nsg390
VTamid 33b:14
p5522
sg392
(lp5523
sg394
g61
sg395
Nsg396
(lp5524
I66
aI14
asg398
Nsg399
g5522
sg400
(lp5525
sg402
g363
sg403
Nsg404
Nsg405
Nsbag3
(g4
g5
NtRp5526
(dp5527
g8
g10
sg383
Nsg384
(dp5528
sg386
Nsg25
g27
sg387
(lp5529
I66
aI15
asg389
Nsg390
VTamid 33b:15
p5530
sg392
(lp5531
sg394
g61
sg395
Nsg396
(lp5532
I66
aI15
asg398
Nsg399
g5530
sg400
(lp5533
sg402
g363
sg403
Nsg404
Nsg405
Nsbag3
(g4
g5
NtRp5534
(dp5535
g8
g10
sg383
Nsg384
(dp5536
sg386
Nsg25
g27
sg387
(lp5537
I66
aI16
asg389
Nsg390
VTamid 33b:16
p5538
sg392
(lp5539
sg394
g61
sg395
Nsg396
(lp5540
I66
aI16
asg398
Nsg399
g5538
sg400
(lp5541
sg402
g363
sg403
Nsg404
Nsg405
Nsbag3
(g4
g5
NtRp5542
(dp5543
g8
g10
sg383
Nsg384
(dp5544
sg386
Nsg25
g27
sg387
(lp5545
I66
aI17
asg389
Nsg390
VTamid 33b:17
p5546
sg392
(lp5547
sg394
g61
sg395
Nsg396
(lp5548
I66
aI17
asg398
Nsg399
g5546
sg400
(lp5549
sg402
g363
sg403
Nsg404
Nsg405
Nsbag3
(g4
g5
NtRp5550
(dp5551
g8
g10
sg383
Nsg384
(dp5552
sg386
Nsg25
g27
sg387
(lp5553
I66
aI18
asg389
Nsg390
VTamid 33b:18
p5554
sg392
(lp5555
sg394
g61
sg395
Nsg396
(lp5556
I66
aI18
asg398
Nsg399
g5554
sg400
(lp5557
sg402
g363
sg403
Nsg404
Nsg405
Nsbag3
(g4
g5
NtRp5558
(dp5559
g8
g10
sg383
Nsg384
(dp5560
sg386
Nsg25
g27
sg387
(lp5561
I66
aI19
asg389
Nsg390
VTamid 33b:19
p5562
sg392
(lp5563
sg394
g61
sg395
Nsg396
(lp5564
I66
aI19
asg398
Nsg399
g5562
sg400
(lp5565
sg402
g363
sg403
Nsg404
Nsg405
Nsbag3
(g4
g5
NtRp5566
(dp5567
g8
g10
sg383
Nsg384
(dp5568
sg386
Nsg25
g27
sg387
(lp5569
I66
aI20
asg389
Nsg390
VTamid 33b:20
p5570
sg392
(lp5571
sg394
g61
sg395
Nsg396
(lp5572
I66
aI20
asg398
Nsg399
g5570
sg400
(lp5573
sg402
g363
sg403
Nsg404
Nsg405
Nsbag3
(g4
g5
NtRp5574
(dp5575
g8
g10
sg383
Nsg384
(dp5576
sg386
Nsg25
g27
sg387
(lp5577
I66
aI21
asg389
Nsg390
VTamid 33b:21
p5578
sg392
(lp5579
sg394
g61
sg395
Nsg396
(lp5580
I66
aI21
asg398
Nsg399
g5578
sg400
(lp5581
sg402
g363
sg403
Nsg404
Nsg405
Nsbag3
(g4
g5
NtRp5582
(dp5583
g8
g10
sg383
Nsg384
(dp5584
sg386
Nsg25
g27
sg387
(lp5585
I66
aI22
asg389
Nsg390
VTamid 33b:22
p5586
sg392
(lp5587
sg394
g61
sg395
Nsg396
(lp5588
I66
aI22
asg398
Nsg399
g5586
sg400
(lp5589
sg402
g363
sg403
Nsg404
Nsg405
Nsbag3
(g4
g5
NtRp5590
(dp5591
g8
g10
sg383
Nsg384
(dp5592
sg386
Nsg25
g27
sg387
(lp5593
I66
aI23
asg389
Nsg390
VTamid 33b:23
p5594
sg392
(lp5595
sg394
g61
sg395
Nsg396
(lp5596
I66
aI23
asg398
Nsg399
g5594
sg400
(lp5597
sg402
g363
sg403
Nsg404
Nsg405
Nsbag3
(g4
g5
NtRp5598
(dp5599
g8
g10
sg383
Nsg384
(dp5600
sg386
Nsg25
g27
sg387
(lp5601
I66
aI24
asg389
Nsg390
VTamid 33b:24
p5602
sg392
(lp5603
sg394
g61
sg395
Nsg396
(lp5604
I66
aI24
asg398
Nsg399
g5602
sg400
(lp5605
sg402
g363
sg403
Nsg404
Nsg405
Nsbag3
(g4
g5
NtRp5606
(dp5607
g8
g10
sg383
Nsg384
(dp5608
sg386
Nsg25
g27
sg387
(lp5609
I66
aI25
asg389
Nsg390
VTamid 33b:25
p5610
sg392
(lp5611
sg394
g61
sg395
Nsg396
(lp5612
I66
aI25
asg398
Nsg399
g5610
sg400
(lp5613
sg402
g363
sg403
Nsg404
Nsg405
Nsbag3
(g4
g5
NtRp5614
(dp5615
g8
g10
sg383
Nsg384
(dp5616
sg386
Nsg25
g27
sg387
(lp5617
I66
aI26
asg389
Nsg390
VTamid 33b:26
p5618
sg392
(lp5619
sg394
g61
sg395
Nsg396
(lp5620
I66
aI26
asg398
Nsg399
g5618
sg400
(lp5621
sg402
g363
sg403
Nsg404
Nsg405
Nsbag3
(g4
g5
NtRp5622
(dp5623
g8
g10
sg383
Nsg384
(dp5624
sg386
Nsg25
g27
sg387
(lp5625
I66
aI27
asg389
Nsg390
VTamid 33b:27
p5626
sg392
(lp5627
sg394
g61
sg395
Nsg396
(lp5628
I66
aI27
asg398
Nsg399
g5626
sg400
(lp5629
sg402
g363
sg403
Nsg404
Nsg405
Nsbag3
(g4
g5
NtRp5630
(dp5631
g8
g10
sg383
Nsg384
(dp5632
sg386
Nsg25
g27
sg387
(lp5633
I66
aI28
asg389
Nsg390
VTamid 33b:28
p5634
sg392
(lp5635
sg394
g61
sg395
Nsg396
(lp5636
I66
aI28
asg398
Nsg399
g5634
sg400
(lp5637
sg402
g363
sg403
Nsg404
Nsg405
Nsbag3
(g4
g5
NtRp5638
(dp5639
g8
g10
sg383
Nsg384
(dp5640
sg386
Nsg25
g27
sg387
(lp5641
I66
aI29
asg389
Nsg390
VTamid 33b:29
p5642
sg392
(lp5643
sg394
g61
sg395
Nsg396
(lp5644
I66
aI29
asg398
Nsg399
g5642
sg400
(lp5645
sg402
g363
sg403
Nsg404
Nsg405
Nsbag3
(g4
g5
NtRp5646
(dp5647
g8
g10
sg383
Nsg384
(dp5648
sg386
Nsg25
g27
sg387
(lp5649
I66
aI30
asg389
Nsg390
VTamid 33b:30
p5650
sg392
(lp5651
sg394
g61
sg395
Nsg396
(lp5652
I66
aI30
asg398
Nsg399
g5650
sg400
(lp5653
sg402
g363
sg403
Nsg404
Nsg405
Nsbag3
(g4
g5
NtRp5654
(dp5655
g8
g10
sg383
Nsg384
(dp5656
sg386
Nsg25
g27
sg387
(lp5657
I66
aI31
asg389
Nsg390
VTamid 33b:31
p5658
sg392
(lp5659
sg394
g61
sg395
Nsg396
(lp5660
I66
aI31
asg398
Nsg399
g5658
sg400
(lp5661
sg402
g363
sg403
Nsg404
Nsg405
Nsbag3
(g4
g5
NtRp5662
(dp5663
g8
g10
sg383
Nsg384
(dp5664
sg386
Nsg25
g27
sg387
(lp5665
I66
aI32
asg389
Nsg390
VTamid 33b:32
p5666
sg392
(lp5667
sg394
g61
sg395
Nsg396
(lp5668
I66
aI32
asg398
Nsg399
g5666
sg400
(lp5669
sg402
g363
sg403
Nsg404
Nsg405
Nsbag3
(g4
g5
NtRp5670
(dp5671
g8
g10
sg383
Nsg384
(dp5672
sg386
Nsg25
g27
sg387
(lp5673
I66
aI33
asg389
Nsg390
VTamid 33b:33
p5674
sg392
(lp5675
sg394
g61
sg395
Nsg396
(lp5676
I66
aI33
asg398
Nsg399
g5674
sg400
(lp5677
sg402
g363
sg403
Nsg404
Nsg405
Nsbag3
(g4
g5
NtRp5678
(dp5679
g8
g10
sg383
Nsg384
(dp5680
sg386
Nsg25
g27
sg387
(lp5681
I66
aI34
asg389
Nsg390
VTamid 33b:34
p5682
sg392
(lp5683
sg394
g61
sg395
Nsg396
(lp5684
I66
aI34
asg398
Nsg399
g5682
sg400
(lp5685
sg402
g363
sg403
Nsg404
Nsg405
Nsbag3
(g4
g5
NtRp5686
(dp5687
g8
g10
sg383
Nsg384
(dp5688
sg386
Nsg25
g27
sg387
(lp5689
I66
aI35
asg389
Nsg390
VTamid 33b:35
p5690
sg392
(lp5691
sg394
g61
sg395
Nsg396
(lp5692
I66
aI35
asg398
Nsg399
g5690
sg400
(lp5693
sg402
g363
sg403
Nsg404
Nsg405
Nsbag3
(g4
g5
NtRp5694
(dp5695
g8
g10
sg383
Nsg384
(dp5696
sg386
Nsg25
g27
sg387
(lp5697
I66
aI36
asg389
Nsg390
VTamid 33b:36
p5698
sg392
(lp5699
sg394
g61
sg395
Nsg396
(lp5700
I66
aI36
asg398
Nsg399
g5698
sg400
(lp5701
sg402
g363
sg403
Nsg404
Nsg405
Nsbag3
(g4
g5
NtRp5702
(dp5703
g8
g10
sg383
Nsg384
(dp5704
sg386
Nsg25
g27
sg387
(lp5705
I66
aI37
asg389
Nsg390
VTamid 33b:37
p5706
sg392
(lp5707
sg394
g61
sg395
Nsg396
(lp5708
I66
aI37
asg398
Nsg399
g5706
sg400
(lp5709
sg402
g363
sg403
Nsg404
Nsg405
Nsbag3
(g4
g5
NtRp5710
(dp5711
g8
g10
sg383
Nsg384
(dp5712
sg386
Nsg25
g27
sg387
(lp5713
I66
aI38
asg389
Nsg390
VTamid 33b:38
p5714
sg392
(lp5715
sg394
g61
sg395
Nsg396
(lp5716
I66
aI38
asg398
Nsg399
g5714
sg400
(lp5717
sg402
g363
sg403
Nsg404
Nsg405
NsbaI4763
t.