((lp1
I0
aI1630
aI2939
aI3905
aI4922
aI5260
aI5817
aI6112
aI6928
aI8224
aI8827
aI9326
aI9996
aI10517
aI11128
aI11781
aI11893
aI11897
aI11984
aI12065
aI12185
aI12841
aI13292
aI13583
aI14119
aI15570
aI15923
aI16108
aI16414
aI16518
aI16816
aI16915
aI17062
aI17109
aI17176
aI17226
aI17286
aI17314
aI17389
aI17413
aI17438
aI17479
aI17514
aI17534
aI17578
aI17609
aI17632
aI17658
aI17694
aI18120
aI18241
aI18307
aI18695
aI18979
aI19215
aI19392
aI19802
aI19806
aI19836
aI19873
aI19926
aI19985
aI20000
aI20055
aI20070
aI20146
aI20534
aI20653
aI20948
aI21959
aI22481
aI22640
aI22657
aI22831
aI22910
aI22968
aI22970
aI23060
aI23141
aI23212
aI23318
aI23540
aI24078
aI24141
aI24295
aI24654
aI24658
aI24711
aI24770
aI24862
aI24962
aI25005
aI25073
aI25128
aI27986
aI29442
aI29514
aI30507
aI31748
aI32871
aI33702
aI34642
aI35390
aI35392
aI35394
aI36164
aI36166
aI36697
aI36699
aI37016
aI37205
aI37285
a(lp2
ccopy_reg
_reconstructor
p3
(csefaria.model.text
Ref
p4
c__builtin__
object
p5
NtRp6
(dp7
S'index_node'
p8
g3
(csefaria.model.schema
JaggedArrayNode
p9
g5
NtRp10
(dp11
S'_address'
p12
(lp13
VTanna debei Eliyahu Zuta
p14
aVseder
p15
aVdefault
p16
asS'_full_titles'
p17
(dp18
sVnodeType
p19
VJaggedArrayNode
p20
sS'parent'
p21
g3
(csefaria.model.schema
SchemaNode
p22
g5
NtRp23
(dp24
g12
(lp25
g14
ag15
asg17
(dp26
sg21
g3
(g22
g5
NtRp27
(dp28
g12
(lp29
g14
asg17
(dp30
sg21
NsS'index'
p31
g3
(csefaria.model.text
Index
p32
g5
NtRp33
(dp34
S'struct_objs'
p35
(dp36
sS'_id'
p37
g3
(cbson.objectid
ObjectId
p38
g5
NtRp39
S"U\xe4g\n\xfb\xfb\xa2'\xc7\x7f\xf4\xde"
p40
bsS'pkeys_orig_values'
p41
(dp42
S'title'
p43
VTanna debei Eliyahu Zuta
p44
ssS'pubDate'
p45
V1904
p46
sS'compDate'
p47
V976
p48
sS'pubPlace'
p49
VVenice
p50
sS'compPlace'
p51
VTalmudic Babylon/Italy/Israel
p52
sS'enDesc'
p53
VTanna Deve Eliyahu (Teachings of the School of Elijah) is the composite name of a midrash, consisting of two parts, whose final redaction took place at the end of the 10th century CE. The first part is called Seder Eliyahu Rabbah (31 chapters); the second, Seder Eliyahu Zu\u1e6da (15 chapters). The underlying theme of the Tanna debe Eliyahu, which, with many interruptions, runs through the whole work, is the evolution of the world-system. The midrash calls the single periods of the history of man "shi\u1e6d\u1e6dot" (series). The first series, which deals with the beginning of the world and extends to the moment when man was driven out of Eden, consists of two subsections, (a) Ma'aseh Merkabah and (b) Ma'aseh Bereshit. The second series embraces the period from the expulsion of man from Eden to the Flood.  The six series of the world-system, found in the first part of the book was conceived prior to the creation of mankind. In the second part of the book mankind\u2019s immorality seem it sink lower and lower until finally its destruction became necessary.
p54
sS'era'
p55
VGN
p56
sS'authors'
p57
(lp58
sS'nodes'
p59
g27
sS'errorMargin'
p60
V8
sS'_title'
p61
g44
sS'categories'
p62
(lp63
VMidrash
p64
aVAggadic Midrash
p65
asS'schema'
p66
(dp67
Vnodes
p68
(lp69
(dp70
Vnodes
p71
(lp72
(dp73
g19
g20
sVaddressTypes
p74
(lp75
VInteger
p76
aVInteger
p77
asVlengths
p78
(lp79
I15
asVdefault
p80
I01
sVdepth
p81
I2
sVkey
p82
g16
sVsectionNames
p83
(lp84
VChapter
p85
aVParagraph
p86
asasVtitles
p87
(lp88
(dp89
Vlang
p90
Ven
p91
sVtext
p92
VSeder Eliyahu Zuta
p93
sVprimary
p94
I01
sa(dp95
Vlang
p96
Vhe
p97
sVtext
p98
V\u05e1\u05d3\u05e8 \u05d0\u05dc\u05d9\u05d4\u05d5 \u05d6\u05d5\u05d8\u05d0
p99
sVprimary
p100
I01
sasVkey
p101
g15
sa(dp102
Vnodes
p103
(lp104
(dp105
VnodeType
p106
VJaggedArrayNode
p107
sVaddressTypes
p108
(lp109
VInteger
p110
asVdepth
p111
I1
sVtitles
p112
(lp113
(dp114
Vlang
p115
Vhe
p116
sVtext
p117
V\u05d4\u05e7\u05d3\u05de\u05d4
p118
sVprimary
p119
I01
sa(dp120
Vlang
p121
Ven
p122
sVtext
p123
VHakdamah
p124
sVprimary
p125
I01
sasVkey
p126
Vintro
p127
sVsectionNames
p128
(lp129
VParagraph
p130
asa(dp131
VnodeType
p132
VJaggedArrayNode
p133
sVaddressTypes
p134
(lp135
VInteger
p136
asVdepth
p137
I1
sVtitles
p138
(lp139
(dp140
Vlang
p141
Ven
p142
sVtext
p143
VMavo
p144
sVprimary
p145
I01
sa(dp146
Vlang
p147
Vhe
p148
sVtext
p149
V\u05de\u05d1\u05d5\u05d0
p150
sVprimary
p151
I01
sasVkey
p152
Vmavo
p153
sVsectionNames
p154
(lp155
VParagraph
p156
asa(dp157
VnodeType
p158
VJaggedArrayNode
p159
sVaddressTypes
p160
(lp161
VInteger
p162
asVdepth
p163
I1
sVtitles
p164
(lp165
(dp166
Vlang
p167
Ven
p168
sVtext
p169
VPirkei Derech Eretz
p170
sVprimary
p171
I01
sa(dp172
Vlang
p173
Vhe
p174
sVtext
p175
V\u05e4\u05e8\u05e7\u05d9 \u05d3\u05e8\u05da \u05d0\u05e8\u05e5
p176
sVprimary
p177
I01
sasVkey
p178
Vp1
p179
sVsectionNames
p180
(lp181
VParagraph
p182
asa(dp183
VnodeType
p184
VJaggedArrayNode
p185
sVaddressTypes
p186
(lp187
VInteger
p188
asVdepth
p189
I1
sVtitles
p190
(lp191
(dp192
Vlang
p193
Ven
p194
sVtext
p195
VPirkei DeRabbi Eliezer
p196
sVprimary
p197
I01
sa(dp198
Vlang
p199
Vhe
p200
sVtext
p201
V\u05e4\u05e8\u05e7\u05d9 \u05d3\u05e8' \u05d0\u05dc\u05d9\u05e2\u05d6\u05e8
p202
sVprimary
p203
I01
sasVkey
p204
Vp2
p205
sVsectionNames
p206
(lp207
VParagraph
p208
asa(dp209
VnodeType
p210
VJaggedArrayNode
p211
sVaddressTypes
p212
(lp213
VInteger
p214
asVdepth
p215
I1
sVtitles
p216
(lp217
(dp218
Vlang
p219
Ven
p220
sVtext
p221
VPirkei HaYeridot
p222
sVprimary
p223
I01
sa(dp224
Vlang
p225
Vhe
p226
sVtext
p227
V\u05d4\u05d9\u05e8\u05d9\u05d3\u05d5\u05ea
p228
sVprimary
p229
I01
sasVkey
p230
Vp3
p231
sVsectionNames
p232
(lp233
VParagraph
p234
asasVtitles
p235
(lp236
(dp237
Vlang
p238
Vhe
p239
sVtext
p240
V\u05e0\u05e1\u05e4\u05d7\u05d9\u05dd \u05dc\u05e1\u05d3\u05e8 \u05d0\u05dc\u05d9\u05d4\u05d5 \u05d6\u05d5\u05d8\u05d0
p241
sVprimary
p242
I01
sa(dp243
Vlang
p244
Ven
p245
sVtext
p246
VAdditions to Seder Eliyahu Zuta
p247
sVprimary
p248
I01
sasVkey
p249
Vaddition
p250
sasVtitles
p251
(lp252
(dp253
Vlang
p254
Vhe
p255
sVtext
p256
V\u05ea\u05e0\u05d0 \u05d3\u05d1\u05d9 \u05d0\u05dc\u05d9\u05d4\u05d5 \u05d6\u05d5\u05d8\u05d0
p257
sVprimary
p258
I01
sa(dp259
Vlang
p260
Ven
p261
sVtext
p262
VTanna debei Eliyahu Zuta
p263
sVprimary
p264
I01
sasVkey
p265
g14
ssbsS'default'
p266
I00
sS'_primary_title'
p267
(dp268
sS'title_group'
p269
g3
(csefaria.model.schema
TitleGroup
p270
g5
NtRp271
(dp272
g267
(dp273
S'en'
p274
g263
ssS'titles'
p275
g252
sbsS'sharedTitle'
p276
NsS'_full_title'
p277
(dp278
g274
g263
ssS'key'
p279
g14
sS'checkFirst'
p280
NsS'_leaf_nodes'
p281
(lp282
sS'children'
p283
(lp284
g23
ag3
(g22
g5
NtRp285
(dp286
g12
(lp287
g14
ag250
asg17
(dp288
sg21
g27
sg31
g33
sg266
I00
sg267
(dp289
sg269
g3
(g270
g5
NtRp290
(dp291
g267
(dp292
g274
g247
ssg275
g236
sbsg276
Nsg277
(dp293
g274
VTanna debei Eliyahu Zuta, Additions to Seder Eliyahu Zuta
p294
ssg279
g250
sg280
Nsg281
(lp295
sg283
(lp296
g3
(g9
g5
NtRp297
(dp298
g12
(lp299
g14
ag250
ag127
asg17
(dp300
sg106
g107
sg21
g285
sg108
g109
sg266
I00
sg31
g33
sg267
(dp301
sg269
g3
(g270
g5
NtRp302
(dp303
g267
(dp304
g274
g124
ssg275
g113
sbsS'_addressTypes'
p305
(lp306
g3
(csefaria.model.schema
AddressInteger
p307
g5
NtRp308
(dp309
S'length'
p310
NsS'order'
p311
I0
sbasg276
Nsg111
I1
sg277
(dp312
g274
VTanna debei Eliyahu Zuta, Additions to Seder Eliyahu Zuta, Hakdamah
p313
ssg279
g127
sg280
NsS'_regexes'
p314
(dp315
sg281
(lp316
sg128
g129
sg283
(lp317
sbag3
(g9
g5
NtRp318
(dp319
g12
(lp320
g14
ag250
ag153
asg17
(dp321
sg132
g133
sg21
g285
sg134
g135
sg266
I00
sg31
g33
sg267
(dp322
sg269
g3
(g270
g5
NtRp323
(dp324
g267
(dp325
g274
g144
ssg275
g139
sbsg305
(lp326
g3
(g307
g5
NtRp327
(dp328
g310
Nsg311
I0
sbasg276
Nsg137
I1
sg277
(dp329
g274
VTanna debei Eliyahu Zuta, Additions to Seder Eliyahu Zuta, Mavo
p330
ssg279
g153
sg280
Nsg314
(dp331
sg281
(lp332
sg154
g155
sg283
(lp333
sbag3
(g9
g5
NtRp334
(dp335
g12
(lp336
g14
ag250
ag179
asg17
(dp337
sg158
g159
sg21
g285
sg160
g161
sg266
I00
sg31
g33
sg267
(dp338
sg269
g3
(g270
g5
NtRp339
(dp340
g267
(dp341
g274
g170
ssg275
g165
sbsg305
(lp342
g3
(g307
g5
NtRp343
(dp344
g310
Nsg311
I0
sbasg276
Nsg163
I1
sg277
(dp345
g274
VTanna debei Eliyahu Zuta, Additions to Seder Eliyahu Zuta, Pirkei Derech Eretz
p346
ssg279
g179
sg280
Nsg314
(dp347
sg281
(lp348
sg180
g181
sg283
(lp349
sbag3
(g9
g5
NtRp350
(dp351
g12
(lp352
g14
ag250
ag205
asg17
(dp353
sg184
g185
sg21
g285
sg186
g187
sg266
I00
sg31
g33
sg267
(dp354
sg269
g3
(g270
g5
NtRp355
(dp356
g267
(dp357
g274
g196
ssg275
g191
sbsg305
(lp358
g3
(g307
g5
NtRp359
(dp360
g310
Nsg311
I0
sbasg276
Nsg189
I1
sg277
(dp361
g274
VTanna debei Eliyahu Zuta, Additions to Seder Eliyahu Zuta, Pirkei DeRabbi Eliezer
p362
ssg279
g205
sg280
Nsg314
(dp363
sg281
(lp364
sg206
g207
sg283
(lp365
sbag3
(g9
g5
NtRp366
(dp367
g12
(lp368
g14
ag250
ag231
asg17
(dp369
sg210
g211
sg21
g285
sg212
g213
sg266
I00
sg31
g33
sg267
(dp370
sg269
g3
(g270
g5
NtRp371
(dp372
g267
(dp373
g274
g222
ssg275
g217
sbsg305
(lp374
g3
(g307
g5
NtRp375
(dp376
g310
Nsg311
I0
sbasg276
Nsg215
I1
sg277
(dp377
g274
VTanna debei Eliyahu Zuta, Additions to Seder Eliyahu Zuta, Pirkei HaYeridot
p378
ssg279
g231
sg280
Nsg314
(dp379
sg281
(lp380
sg232
g233
sg283
(lp381
sbasbasbsg31
g33
sg266
I00
sg267
(dp382
sg269
g3
(g270
g5
NtRp383
(dp384
g267
(dp385
g274
g93
ssg275
g88
sbsg276
Nsg277
(dp386
g274
VTanna debei Eliyahu Zuta, Seder Eliyahu Zuta
p387
ssg279
g15
sg280
Nsg281
(lp388
sg283
(lp389
g10
asbsg74
g75
sg266
I01
sg31
g33
sg267
(dp390
sg269
g3
(g270
g5
NtRp391
(dp392
g267
(dp393
g274
S''
ssg275
(lp394
sbsg305
(lp395
g3
(g307
g5
NtRp396
(dp397
g310
I15
sg311
I0
sbag3
(g307
g5
NtRp398
(dp399
g310
Nsg311
I1
sbasg276
Nsg78
g79
sg81
I2
sg277
(dp400
g274
g387
ssg279
g16
sg280
Nsg314
(dp401
sg281
(lp402
sg83
g84
sg283
(lp403
sbsS'_range_index'
p404
NsS'_context'
p405
(dp406
sS'_padded'
p407
Nsg31
g33
sS'sections'
p408
(lp409
I1
aI1
asS'_first_spanned_ref'
p410
NsS'tref'
p411
VTanna debei Eliyahu Zuta, Seder Eliyahu Zuta 1:1
p412
sS'_spanned_refs'
p413
(lp414
sS'book'
p415
g387
sS'_range_depth'
p416
NsS'toSections'
p417
(lp418
I1
aI1
asS'_url'
p419
NsS'_normal'
p420
g412
sS'_ranged_refs'
p421
(lp422
sS'type'
p423
g64
sS'_prev'
p424
NsS'_he_normal'
p425
NsS'_next'
p426
Nsbag3
(g4
g5
NtRp427
(dp428
g8
g10
sg404
Nsg405
(dp429
sg407
Nsg31
g33
sg408
(lp430
I2
aI1
asg410
Nsg411
VTanna debei Eliyahu Zuta, Seder Eliyahu Zuta 2:1
p431
sg413
(lp432
sg415
g387
sg416
Nsg417
(lp433
I2
aI1
asg419
Nsg420
g431
sg421
(lp434
sg423
g64
sg424
Nsg425
Nsg426
Nsbag3
(g4
g5
NtRp435
(dp436
g8
g10
sg404
Nsg405
(dp437
sg407
Nsg31
g33
sg408
(lp438
I3
aI1
asg410
Nsg411
VTanna debei Eliyahu Zuta, Seder Eliyahu Zuta 3:1
p439
sg413
(lp440
sg415
g387
sg416
Nsg417
(lp441
I3
aI1
asg419
Nsg420
g439
sg421
(lp442
sg423
g64
sg424
Nsg425
Nsg426
Nsbag3
(g4
g5
NtRp443
(dp444
g8
g10
sg404
Nsg405
(dp445
sg407
Nsg31
g33
sg408
(lp446
I4
aI1
asg410
Nsg411
VTanna debei Eliyahu Zuta, Seder Eliyahu Zuta 4:1
p447
sg413
(lp448
sg415
g387
sg416
Nsg417
(lp449
I4
aI1
asg419
Nsg420
g447
sg421
(lp450
sg423
g64
sg424
Nsg425
Nsg426
Nsbag3
(g4
g5
NtRp451
(dp452
g8
g10
sg404
Nsg405
(dp453
sg407
Nsg31
g33
sg408
(lp454
I5
aI1
asg410
Nsg411
VTanna debei Eliyahu Zuta, Seder Eliyahu Zuta 5:1
p455
sg413
(lp456
sg415
g387
sg416
Nsg417
(lp457
I5
aI1
asg419
Nsg420
g455
sg421
(lp458
sg423
g64
sg424
Nsg425
Nsg426
Nsbag3
(g4
g5
NtRp459
(dp460
g8
g10
sg404
Nsg405
(dp461
sg407
Nsg31
g33
sg408
(lp462
I6
aI1
asg410
Nsg411
VTanna debei Eliyahu Zuta, Seder Eliyahu Zuta 6:1
p463
sg413
(lp464
sg415
g387
sg416
Nsg417
(lp465
I6
aI1
asg419
Nsg420
g463
sg421
(lp466
sg423
g64
sg424
Nsg425
Nsg426
Nsbag3
(g4
g5
NtRp467
(dp468
g8
g10
sg404
Nsg405
(dp469
sg407
Nsg31
g33
sg408
(lp470
I7
aI1
asg410
Nsg411
VTanna debei Eliyahu Zuta, Seder Eliyahu Zuta 7:1
p471
sg413
(lp472
sg415
g387
sg416
Nsg417
(lp473
I7
aI1
asg419
Nsg420
g471
sg421
(lp474
sg423
g64
sg424
Nsg425
Nsg426
Nsbag3
(g4
g5
NtRp475
(dp476
g8
g10
sg404
Nsg405
(dp477
sg407
Nsg31
g33
sg408
(lp478
I8
aI1
asg410
Nsg411
VTanna debei Eliyahu Zuta, Seder Eliyahu Zuta 8:1
p479
sg413
(lp480
sg415
g387
sg416
Nsg417
(lp481
I8
aI1
asg419
Nsg420
g479
sg421
(lp482
sg423
g64
sg424
Nsg425
Nsg426
Nsbag3
(g4
g5
NtRp483
(dp484
g8
g10
sg404
Nsg405
(dp485
sg407
Nsg31
g33
sg408
(lp486
I9
aI1
asg410
Nsg411
VTanna debei Eliyahu Zuta, Seder Eliyahu Zuta 9:1
p487
sg413
(lp488
sg415
g387
sg416
Nsg417
(lp489
I9
aI1
asg419
Nsg420
g487
sg421
(lp490
sg423
g64
sg424
Nsg425
Nsg426
Nsbag3
(g4
g5
NtRp491
(dp492
g8
g10
sg404
Nsg405
(dp493
sg407
Nsg31
g33
sg408
(lp494
I10
aI1
asg410
Nsg411
VTanna debei Eliyahu Zuta, Seder Eliyahu Zuta 10:1
p495
sg413
(lp496
sg415
g387
sg416
Nsg417
(lp497
I10
aI1
asg419
Nsg420
g495
sg421
(lp498
sg423
g64
sg424
Nsg425
Nsg426
Nsbag3
(g4
g5
NtRp499
(dp500
g8
g10
sg404
Nsg405
(dp501
sg407
Nsg31
g33
sg408
(lp502
I11
aI1
asg410
Nsg411
VTanna debei Eliyahu Zuta, Seder Eliyahu Zuta 11:1
p503
sg413
(lp504
sg415
g387
sg416
Nsg417
(lp505
I11
aI1
asg419
Nsg420
g503
sg421
(lp506
sg423
g64
sg424
Nsg425
Nsg426
Nsbag3
(g4
g5
NtRp507
(dp508
g8
g10
sg404
Nsg405
(dp509
sg407
Nsg31
g33
sg408
(lp510
I12
aI1
asg410
Nsg411
VTanna debei Eliyahu Zuta, Seder Eliyahu Zuta 12:1
p511
sg413
(lp512
sg415
g387
sg416
Nsg417
(lp513
I12
aI1
asg419
Nsg420
g511
sg421
(lp514
sg423
g64
sg424
Nsg425
Nsg426
Nsbag3
(g4
g5
NtRp515
(dp516
g8
g10
sg404
Nsg405
(dp517
sg407
Nsg31
g33
sg408
(lp518
I13
aI1
asg410
Nsg411
VTanna debei Eliyahu Zuta, Seder Eliyahu Zuta 13:1
p519
sg413
(lp520
sg415
g387
sg416
Nsg417
(lp521
I13
aI1
asg419
Nsg420
g519
sg421
(lp522
sg423
g64
sg424
Nsg425
Nsg426
Nsbag3
(g4
g5
NtRp523
(dp524
g8
g10
sg404
Nsg405
(dp525
sg407
Nsg31
g33
sg408
(lp526
I14
aI1
asg410
Nsg411
VTanna debei Eliyahu Zuta, Seder Eliyahu Zuta 14:1
p527
sg413
(lp528
sg415
g387
sg416
Nsg417
(lp529
I14
aI1
asg419
Nsg420
g527
sg421
(lp530
sg423
g64
sg424
Nsg425
Nsg426
Nsbag3
(g4
g5
NtRp531
(dp532
g8
g10
sg404
Nsg405
(dp533
sg407
Nsg31
g33
sg408
(lp534
I15
aI1
asg410
Nsg411
VTanna debei Eliyahu Zuta, Seder Eliyahu Zuta 15:1
p535
sg413
(lp536
sg415
g387
sg416
Nsg417
(lp537
I15
aI1
asg419
Nsg420
g535
sg421
(lp538
sg423
g64
sg424
Nsg425
Nsg426
Nsbag3
(g4
g5
NtRp539
(dp540
g8
g297
sg404
Nsg405
(dp541
sg407
Nsg31
g33
sg408
(lp542
I1
asg410
Nsg411
VTanna debei Eliyahu Zuta, Additions to Seder Eliyahu Zuta, Hakdamah 1
p543
sg413
(lp544
sg415
g313
sg416
Nsg417
(lp545
I1
asg419
Nsg420
g543
sg421
(lp546
sg423
g64
sg424
Nsg425
Nsg426
Nsbag3
(g4
g5
NtRp547
(dp548
g8
g297
sg404
Nsg405
(dp549
sg407
Nsg31
g33
sg408
(lp550
I2
asg410
Nsg411
VTanna debei Eliyahu Zuta, Additions to Seder Eliyahu Zuta, Hakdamah 2
p551
sg413
(lp552
sg415
g313
sg416
Nsg417
(lp553
I2
asg419
Nsg420
g551
sg421
(lp554
sg423
g64
sg424
Nsg425
Nsg426
Nsbag3
(g4
g5
NtRp555
(dp556
g8
g318
sg404
Nsg405
(dp557
sg407
Nsg31
g33
sg408
(lp558
I1
asg410
Nsg411
VTanna debei Eliyahu Zuta, Additions to Seder Eliyahu Zuta, Mavo 1
p559
sg413
(lp560
sg415
g330
sg416
Nsg417
(lp561
I1
asg419
Nsg420
g559
sg421
(lp562
sg423
g64
sg424
Nsg425
Nsg426
Nsbag3
(g4
g5
NtRp563
(dp564
g8
g318
sg404
Nsg405
(dp565
sg407
Nsg31
g33
sg408
(lp566
I2
asg410
Nsg411
VTanna debei Eliyahu Zuta, Additions to Seder Eliyahu Zuta, Mavo 2
p567
sg413
(lp568
sg415
g330
sg416
Nsg417
(lp569
I2
asg419
Nsg420
g567
sg421
(lp570
sg423
g64
sg424
Nsg425
Nsg426
Nsbag3
(g4
g5
NtRp571
(dp572
g8
g318
sg404
Nsg405
(dp573
sg407
Nsg31
g33
sg408
(lp574
I3
asg410
Nsg411
VTanna debei Eliyahu Zuta, Additions to Seder Eliyahu Zuta, Mavo 3
p575
sg413
(lp576
sg415
g330
sg416
Nsg417
(lp577
I3
asg419
Nsg420
g575
sg421
(lp578
sg423
g64
sg424
Nsg425
Nsg426
Nsbag3
(g4
g5
NtRp579
(dp580
g8
g318
sg404
Nsg405
(dp581
sg407
Nsg31
g33
sg408
(lp582
I4
asg410
Nsg411
VTanna debei Eliyahu Zuta, Additions to Seder Eliyahu Zuta, Mavo 4
p583
sg413
(lp584
sg415
g330
sg416
Nsg417
(lp585
I4
asg419
Nsg420
g583
sg421
(lp586
sg423
g64
sg424
Nsg425
Nsg426
Nsbag3
(g4
g5
NtRp587
(dp588
g8
g318
sg404
Nsg405
(dp589
sg407
Nsg31
g33
sg408
(lp590
I5
asg410
Nsg411
VTanna debei Eliyahu Zuta, Additions to Seder Eliyahu Zuta, Mavo 5
p591
sg413
(lp592
sg415
g330
sg416
Nsg417
(lp593
I5
asg419
Nsg420
g591
sg421
(lp594
sg423
g64
sg424
Nsg425
Nsg426
Nsbag3
(g4
g5
NtRp595
(dp596
g8
g318
sg404
Nsg405
(dp597
sg407
Nsg31
g33
sg408
(lp598
I6
asg410
Nsg411
VTanna debei Eliyahu Zuta, Additions to Seder Eliyahu Zuta, Mavo 6
p599
sg413
(lp600
sg415
g330
sg416
Nsg417
(lp601
I6
asg419
Nsg420
g599
sg421
(lp602
sg423
g64
sg424
Nsg425
Nsg426
Nsbag3
(g4
g5
NtRp603
(dp604
g8
g318
sg404
Nsg405
(dp605
sg407
Nsg31
g33
sg408
(lp606
I7
asg410
Nsg411
VTanna debei Eliyahu Zuta, Additions to Seder Eliyahu Zuta, Mavo 7
p607
sg413
(lp608
sg415
g330
sg416
Nsg417
(lp609
I7
asg419
Nsg420
g607
sg421
(lp610
sg423
g64
sg424
Nsg425
Nsg426
Nsbag3
(g4
g5
NtRp611
(dp612
g8
g318
sg404
Nsg405
(dp613
sg407
Nsg31
g33
sg408
(lp614
I8
asg410
Nsg411
VTanna debei Eliyahu Zuta, Additions to Seder Eliyahu Zuta, Mavo 8
p615
sg413
(lp616
sg415
g330
sg416
Nsg417
(lp617
I8
asg419
Nsg420
g615
sg421
(lp618
sg423
g64
sg424
Nsg425
Nsg426
Nsbag3
(g4
g5
NtRp619
(dp620
g8
g318
sg404
Nsg405
(dp621
sg407
Nsg31
g33
sg408
(lp622
I9
asg410
Nsg411
VTanna debei Eliyahu Zuta, Additions to Seder Eliyahu Zuta, Mavo 9
p623
sg413
(lp624
sg415
g330
sg416
Nsg417
(lp625
I9
asg419
Nsg420
g623
sg421
(lp626
sg423
g64
sg424
Nsg425
Nsg426
Nsbag3
(g4
g5
NtRp627
(dp628
g8
g318
sg404
Nsg405
(dp629
sg407
Nsg31
g33
sg408
(lp630
I10
asg410
Nsg411
VTanna debei Eliyahu Zuta, Additions to Seder Eliyahu Zuta, Mavo 10
p631
sg413
(lp632
sg415
g330
sg416
Nsg417
(lp633
I10
asg419
Nsg420
g631
sg421
(lp634
sg423
g64
sg424
Nsg425
Nsg426
Nsbag3
(g4
g5
NtRp635
(dp636
g8
g318
sg404
Nsg405
(dp637
sg407
Nsg31
g33
sg408
(lp638
I11
asg410
Nsg411
VTanna debei Eliyahu Zuta, Additions to Seder Eliyahu Zuta, Mavo 11
p639
sg413
(lp640
sg415
g330
sg416
Nsg417
(lp641
I11
asg419
Nsg420
g639
sg421
(lp642
sg423
g64
sg424
Nsg425
Nsg426
Nsbag3
(g4
g5
NtRp643
(dp644
g8
g318
sg404
Nsg405
(dp645
sg407
Nsg31
g33
sg408
(lp646
I12
asg410
Nsg411
VTanna debei Eliyahu Zuta, Additions to Seder Eliyahu Zuta, Mavo 12
p647
sg413
(lp648
sg415
g330
sg416
Nsg417
(lp649
I12
asg419
Nsg420
g647
sg421
(lp650
sg423
g64
sg424
Nsg425
Nsg426
Nsbag3
(g4
g5
NtRp651
(dp652
g8
g318
sg404
Nsg405
(dp653
sg407
Nsg31
g33
sg408
(lp654
I13
asg410
Nsg411
VTanna debei Eliyahu Zuta, Additions to Seder Eliyahu Zuta, Mavo 13
p655
sg413
(lp656
sg415
g330
sg416
Nsg417
(lp657
I13
asg419
Nsg420
g655
sg421
(lp658
sg423
g64
sg424
Nsg425
Nsg426
Nsbag3
(g4
g5
NtRp659
(dp660
g8
g318
sg404
Nsg405
(dp661
sg407
Nsg31
g33
sg408
(lp662
I14
asg410
Nsg411
VTanna debei Eliyahu Zuta, Additions to Seder Eliyahu Zuta, Mavo 14
p663
sg413
(lp664
sg415
g330
sg416
Nsg417
(lp665
I14
asg419
Nsg420
g663
sg421
(lp666
sg423
g64
sg424
Nsg425
Nsg426
Nsbag3
(g4
g5
NtRp667
(dp668
g8
g318
sg404
Nsg405
(dp669
sg407
Nsg31
g33
sg408
(lp670
I15
asg410
Nsg411
VTanna debei Eliyahu Zuta, Additions to Seder Eliyahu Zuta, Mavo 15
p671
sg413
(lp672
sg415
g330
sg416
Nsg417
(lp673
I15
asg419
Nsg420
g671
sg421
(lp674
sg423
g64
sg424
Nsg425
Nsg426
Nsbag3
(g4
g5
NtRp675
(dp676
g8
g318
sg404
Nsg405
(dp677
sg407
Nsg31
g33
sg408
(lp678
I16
asg410
Nsg411
VTanna debei Eliyahu Zuta, Additions to Seder Eliyahu Zuta, Mavo 16
p679
sg413
(lp680
sg415
g330
sg416
Nsg417
(lp681
I16
asg419
Nsg420
g679
sg421
(lp682
sg423
g64
sg424
Nsg425
Nsg426
Nsbag3
(g4
g5
NtRp683
(dp684
g8
g318
sg404
Nsg405
(dp685
sg407
Nsg31
g33
sg408
(lp686
I17
asg410
Nsg411
VTanna debei Eliyahu Zuta, Additions to Seder Eliyahu Zuta, Mavo 17
p687
sg413
(lp688
sg415
g330
sg416
Nsg417
(lp689
I17
asg419
Nsg420
g687
sg421
(lp690
sg423
g64
sg424
Nsg425
Nsg426
Nsbag3
(g4
g5
NtRp691
(dp692
g8
g318
sg404
Nsg405
(dp693
sg407
Nsg31
g33
sg408
(lp694
I18
asg410
Nsg411
VTanna debei Eliyahu Zuta, Additions to Seder Eliyahu Zuta, Mavo 18
p695
sg413
(lp696
sg415
g330
sg416
Nsg417
(lp697
I18
asg419
Nsg420
g695
sg421
(lp698
sg423
g64
sg424
Nsg425
Nsg426
Nsbag3
(g4
g5
NtRp699
(dp700
g8
g318
sg404
Nsg405
(dp701
sg407
Nsg31
g33
sg408
(lp702
I19
asg410
Nsg411
VTanna debei Eliyahu Zuta, Additions to Seder Eliyahu Zuta, Mavo 19
p703
sg413
(lp704
sg415
g330
sg416
Nsg417
(lp705
I19
asg419
Nsg420
g703
sg421
(lp706
sg423
g64
sg424
Nsg425
Nsg426
Nsbag3
(g4
g5
NtRp707
(dp708
g8
g318
sg404
Nsg405
(dp709
sg407
Nsg31
g33
sg408
(lp710
I20
asg410
Nsg411
VTanna debei Eliyahu Zuta, Additions to Seder Eliyahu Zuta, Mavo 20
p711
sg413
(lp712
sg415
g330
sg416
Nsg417
(lp713
I20
asg419
Nsg420
g711
sg421
(lp714
sg423
g64
sg424
Nsg425
Nsg426
Nsbag3
(g4
g5
NtRp715
(dp716
g8
g318
sg404
Nsg405
(dp717
sg407
Nsg31
g33
sg408
(lp718
I21
asg410
Nsg411
VTanna debei Eliyahu Zuta, Additions to Seder Eliyahu Zuta, Mavo 21
p719
sg413
(lp720
sg415
g330
sg416
Nsg417
(lp721
I21
asg419
Nsg420
g719
sg421
(lp722
sg423
g64
sg424
Nsg425
Nsg426
Nsbag3
(g4
g5
NtRp723
(dp724
g8
g318
sg404
Nsg405
(dp725
sg407
Nsg31
g33
sg408
(lp726
I22
asg410
Nsg411
VTanna debei Eliyahu Zuta, Additions to Seder Eliyahu Zuta, Mavo 22
p727
sg413
(lp728
sg415
g330
sg416
Nsg417
(lp729
I22
asg419
Nsg420
g727
sg421
(lp730
sg423
g64
sg424
Nsg425
Nsg426
Nsbag3
(g4
g5
NtRp731
(dp732
g8
g318
sg404
Nsg405
(dp733
sg407
Nsg31
g33
sg408
(lp734
I23
asg410
Nsg411
VTanna debei Eliyahu Zuta, Additions to Seder Eliyahu Zuta, Mavo 23
p735
sg413
(lp736
sg415
g330
sg416
Nsg417
(lp737
I23
asg419
Nsg420
g735
sg421
(lp738
sg423
g64
sg424
Nsg425
Nsg426
Nsbag3
(g4
g5
NtRp739
(dp740
g8
g318
sg404
Nsg405
(dp741
sg407
Nsg31
g33
sg408
(lp742
I24
asg410
Nsg411
VTanna debei Eliyahu Zuta, Additions to Seder Eliyahu Zuta, Mavo 24
p743
sg413
(lp744
sg415
g330
sg416
Nsg417
(lp745
I24
asg419
Nsg420
g743
sg421
(lp746
sg423
g64
sg424
Nsg425
Nsg426
Nsbag3
(g4
g5
NtRp747
(dp748
g8
g318
sg404
Nsg405
(dp749
sg407
Nsg31
g33
sg408
(lp750
I25
asg410
Nsg411
VTanna debei Eliyahu Zuta, Additions to Seder Eliyahu Zuta, Mavo 25
p751
sg413
(lp752
sg415
g330
sg416
Nsg417
(lp753
I25
asg419
Nsg420
g751
sg421
(lp754
sg423
g64
sg424
Nsg425
Nsg426
Nsbag3
(g4
g5
NtRp755
(dp756
g8
g318
sg404
Nsg405
(dp757
sg407
Nsg31
g33
sg408
(lp758
I26
asg410
Nsg411
VTanna debei Eliyahu Zuta, Additions to Seder Eliyahu Zuta, Mavo 26
p759
sg413
(lp760
sg415
g330
sg416
Nsg417
(lp761
I26
asg419
Nsg420
g759
sg421
(lp762
sg423
g64
sg424
Nsg425
Nsg426
Nsbag3
(g4
g5
NtRp763
(dp764
g8
g318
sg404
Nsg405
(dp765
sg407
Nsg31
g33
sg408
(lp766
I27
asg410
Nsg411
VTanna debei Eliyahu Zuta, Additions to Seder Eliyahu Zuta, Mavo 27
p767
sg413
(lp768
sg415
g330
sg416
Nsg417
(lp769
I27
asg419
Nsg420
g767
sg421
(lp770
sg423
g64
sg424
Nsg425
Nsg426
Nsbag3
(g4
g5
NtRp771
(dp772
g8
g318
sg404
Nsg405
(dp773
sg407
Nsg31
g33
sg408
(lp774
I28
asg410
Nsg411
VTanna debei Eliyahu Zuta, Additions to Seder Eliyahu Zuta, Mavo 28
p775
sg413
(lp776
sg415
g330
sg416
Nsg417
(lp777
I28
asg419
Nsg420
g775
sg421
(lp778
sg423
g64
sg424
Nsg425
Nsg426
Nsbag3
(g4
g5
NtRp779
(dp780
g8
g318
sg404
Nsg405
(dp781
sg407
Nsg31
g33
sg408
(lp782
I29
asg410
Nsg411
VTanna debei Eliyahu Zuta, Additions to Seder Eliyahu Zuta, Mavo 29
p783
sg413
(lp784
sg415
g330
sg416
Nsg417
(lp785
I29
asg419
Nsg420
g783
sg421
(lp786
sg423
g64
sg424
Nsg425
Nsg426
Nsbag3
(g4
g5
NtRp787
(dp788
g8
g318
sg404
Nsg405
(dp789
sg407
Nsg31
g33
sg408
(lp790
I30
asg410
Nsg411
VTanna debei Eliyahu Zuta, Additions to Seder Eliyahu Zuta, Mavo 30
p791
sg413
(lp792
sg415
g330
sg416
Nsg417
(lp793
I30
asg419
Nsg420
g791
sg421
(lp794
sg423
g64
sg424
Nsg425
Nsg426
Nsbag3
(g4
g5
NtRp795
(dp796
g8
g318
sg404
Nsg405
(dp797
sg407
Nsg31
g33
sg408
(lp798
I31
asg410
Nsg411
VTanna debei Eliyahu Zuta, Additions to Seder Eliyahu Zuta, Mavo 31
p799
sg413
(lp800
sg415
g330
sg416
Nsg417
(lp801
I31
asg419
Nsg420
g799
sg421
(lp802
sg423
g64
sg424
Nsg425
Nsg426
Nsbag3
(g4
g5
NtRp803
(dp804
g8
g318
sg404
Nsg405
(dp805
sg407
Nsg31
g33
sg408
(lp806
I32
asg410
Nsg411
VTanna debei Eliyahu Zuta, Additions to Seder Eliyahu Zuta, Mavo 32
p807
sg413
(lp808
sg415
g330
sg416
Nsg417
(lp809
I32
asg419
Nsg420
g807
sg421
(lp810
sg423
g64
sg424
Nsg425
Nsg426
Nsbag3
(g4
g5
NtRp811
(dp812
g8
g318
sg404
Nsg405
(dp813
sg407
Nsg31
g33
sg408
(lp814
I33
asg410
Nsg411
VTanna debei Eliyahu Zuta, Additions to Seder Eliyahu Zuta, Mavo 33
p815
sg413
(lp816
sg415
g330
sg416
Nsg417
(lp817
I33
asg419
Nsg420
g815
sg421
(lp818
sg423
g64
sg424
Nsg425
Nsg426
Nsbag3
(g4
g5
NtRp819
(dp820
g8
g318
sg404
Nsg405
(dp821
sg407
Nsg31
g33
sg408
(lp822
I34
asg410
Nsg411
VTanna debei Eliyahu Zuta, Additions to Seder Eliyahu Zuta, Mavo 34
p823
sg413
(lp824
sg415
g330
sg416
Nsg417
(lp825
I34
asg419
Nsg420
g823
sg421
(lp826
sg423
g64
sg424
Nsg425
Nsg426
Nsbag3
(g4
g5
NtRp827
(dp828
g8
g318
sg404
Nsg405
(dp829
sg407
Nsg31
g33
sg408
(lp830
I35
asg410
Nsg411
VTanna debei Eliyahu Zuta, Additions to Seder Eliyahu Zuta, Mavo 35
p831
sg413
(lp832
sg415
g330
sg416
Nsg417
(lp833
I35
asg419
Nsg420
g831
sg421
(lp834
sg423
g64
sg424
Nsg425
Nsg426
Nsbag3
(g4
g5
NtRp835
(dp836
g8
g318
sg404
Nsg405
(dp837
sg407
Nsg31
g33
sg408
(lp838
I36
asg410
Nsg411
VTanna debei Eliyahu Zuta, Additions to Seder Eliyahu Zuta, Mavo 36
p839
sg413
(lp840
sg415
g330
sg416
Nsg417
(lp841
I36
asg419
Nsg420
g839
sg421
(lp842
sg423
g64
sg424
Nsg425
Nsg426
Nsbag3
(g4
g5
NtRp843
(dp844
g8
g318
sg404
Nsg405
(dp845
sg407
Nsg31
g33
sg408
(lp846
I37
asg410
Nsg411
VTanna debei Eliyahu Zuta, Additions to Seder Eliyahu Zuta, Mavo 37
p847
sg413
(lp848
sg415
g330
sg416
Nsg417
(lp849
I37
asg419
Nsg420
g847
sg421
(lp850
sg423
g64
sg424
Nsg425
Nsg426
Nsbag3
(g4
g5
NtRp851
(dp852
g8
g318
sg404
Nsg405
(dp853
sg407
Nsg31
g33
sg408
(lp854
I38
asg410
Nsg411
VTanna debei Eliyahu Zuta, Additions to Seder Eliyahu Zuta, Mavo 38
p855
sg413
(lp856
sg415
g330
sg416
Nsg417
(lp857
I38
asg419
Nsg420
g855
sg421
(lp858
sg423
g64
sg424
Nsg425
Nsg426
Nsbag3
(g4
g5
NtRp859
(dp860
g8
g318
sg404
Nsg405
(dp861
sg407
Nsg31
g33
sg408
(lp862
I39
asg410
Nsg411
VTanna debei Eliyahu Zuta, Additions to Seder Eliyahu Zuta, Mavo 39
p863
sg413
(lp864
sg415
g330
sg416
Nsg417
(lp865
I39
asg419
Nsg420
g863
sg421
(lp866
sg423
g64
sg424
Nsg425
Nsg426
Nsbag3
(g4
g5
NtRp867
(dp868
g8
g318
sg404
Nsg405
(dp869
sg407
Nsg31
g33
sg408
(lp870
I40
asg410
Nsg411
VTanna debei Eliyahu Zuta, Additions to Seder Eliyahu Zuta, Mavo 40
p871
sg413
(lp872
sg415
g330
sg416
Nsg417
(lp873
I40
asg419
Nsg420
g871
sg421
(lp874
sg423
g64
sg424
Nsg425
Nsg426
Nsbag3
(g4
g5
NtRp875
(dp876
g8
g318
sg404
Nsg405
(dp877
sg407
Nsg31
g33
sg408
(lp878
I41
asg410
Nsg411
VTanna debei Eliyahu Zuta, Additions to Seder Eliyahu Zuta, Mavo 41
p879
sg413
(lp880
sg415
g330
sg416
Nsg417
(lp881
I41
asg419
Nsg420
g879
sg421
(lp882
sg423
g64
sg424
Nsg425
Nsg426
Nsbag3
(g4
g5
NtRp883
(dp884
g8
g318
sg404
Nsg405
(dp885
sg407
Nsg31
g33
sg408
(lp886
I42
asg410
Nsg411
VTanna debei Eliyahu Zuta, Additions to Seder Eliyahu Zuta, Mavo 42
p887
sg413
(lp888
sg415
g330
sg416
Nsg417
(lp889
I42
asg419
Nsg420
g887
sg421
(lp890
sg423
g64
sg424
Nsg425
Nsg426
Nsbag3
(g4
g5
NtRp891
(dp892
g8
g318
sg404
Nsg405
(dp893
sg407
Nsg31
g33
sg408
(lp894
I43
asg410
Nsg411
VTanna debei Eliyahu Zuta, Additions to Seder Eliyahu Zuta, Mavo 43
p895
sg413
(lp896
sg415
g330
sg416
Nsg417
(lp897
I43
asg419
Nsg420
g895
sg421
(lp898
sg423
g64
sg424
Nsg425
Nsg426
Nsbag3
(g4
g5
NtRp899
(dp900
g8
g318
sg404
Nsg405
(dp901
sg407
Nsg31
g33
sg408
(lp902
I44
asg410
Nsg411
VTanna debei Eliyahu Zuta, Additions to Seder Eliyahu Zuta, Mavo 44
p903
sg413
(lp904
sg415
g330
sg416
Nsg417
(lp905
I44
asg419
Nsg420
g903
sg421
(lp906
sg423
g64
sg424
Nsg425
Nsg426
Nsbag3
(g4
g5
NtRp907
(dp908
g8
g318
sg404
Nsg405
(dp909
sg407
Nsg31
g33
sg408
(lp910
I45
asg410
Nsg411
VTanna debei Eliyahu Zuta, Additions to Seder Eliyahu Zuta, Mavo 45
p911
sg413
(lp912
sg415
g330
sg416
Nsg417
(lp913
I45
asg419
Nsg420
g911
sg421
(lp914
sg423
g64
sg424
Nsg425
Nsg426
Nsbag3
(g4
g5
NtRp915
(dp916
g8
g318
sg404
Nsg405
(dp917
sg407
Nsg31
g33
sg408
(lp918
I46
asg410
Nsg411
VTanna debei Eliyahu Zuta, Additions to Seder Eliyahu Zuta, Mavo 46
p919
sg413
(lp920
sg415
g330
sg416
Nsg417
(lp921
I46
asg419
Nsg420
g919
sg421
(lp922
sg423
g64
sg424
Nsg425
Nsg426
Nsbag3
(g4
g5
NtRp923
(dp924
g8
g318
sg404
Nsg405
(dp925
sg407
Nsg31
g33
sg408
(lp926
I47
asg410
Nsg411
VTanna debei Eliyahu Zuta, Additions to Seder Eliyahu Zuta, Mavo 47
p927
sg413
(lp928
sg415
g330
sg416
Nsg417
(lp929
I47
asg419
Nsg420
g927
sg421
(lp930
sg423
g64
sg424
Nsg425
Nsg426
Nsbag3
(g4
g5
NtRp931
(dp932
g8
g318
sg404
Nsg405
(dp933
sg407
Nsg31
g33
sg408
(lp934
I48
asg410
Nsg411
VTanna debei Eliyahu Zuta, Additions to Seder Eliyahu Zuta, Mavo 48
p935
sg413
(lp936
sg415
g330
sg416
Nsg417
(lp937
I48
asg419
Nsg420
g935
sg421
(lp938
sg423
g64
sg424
Nsg425
Nsg426
Nsbag3
(g4
g5
NtRp939
(dp940
g8
g318
sg404
Nsg405
(dp941
sg407
Nsg31
g33
sg408
(lp942
I49
asg410
Nsg411
VTanna debei Eliyahu Zuta, Additions to Seder Eliyahu Zuta, Mavo 49
p943
sg413
(lp944
sg415
g330
sg416
Nsg417
(lp945
I49
asg419
Nsg420
g943
sg421
(lp946
sg423
g64
sg424
Nsg425
Nsg426
Nsbag3
(g4
g5
NtRp947
(dp948
g8
g318
sg404
Nsg405
(dp949
sg407
Nsg31
g33
sg408
(lp950
I50
asg410
Nsg411
VTanna debei Eliyahu Zuta, Additions to Seder Eliyahu Zuta, Mavo 50
p951
sg413
(lp952
sg415
g330
sg416
Nsg417
(lp953
I50
asg419
Nsg420
g951
sg421
(lp954
sg423
g64
sg424
Nsg425
Nsg426
Nsbag3
(g4
g5
NtRp955
(dp956
g8
g318
sg404
Nsg405
(dp957
sg407
Nsg31
g33
sg408
(lp958
I51
asg410
Nsg411
VTanna debei Eliyahu Zuta, Additions to Seder Eliyahu Zuta, Mavo 51
p959
sg413
(lp960
sg415
g330
sg416
Nsg417
(lp961
I51
asg419
Nsg420
g959
sg421
(lp962
sg423
g64
sg424
Nsg425
Nsg426
Nsbag3
(g4
g5
NtRp963
(dp964
g8
g318
sg404
Nsg405
(dp965
sg407
Nsg31
g33
sg408
(lp966
I52
asg410
Nsg411
VTanna debei Eliyahu Zuta, Additions to Seder Eliyahu Zuta, Mavo 52
p967
sg413
(lp968
sg415
g330
sg416
Nsg417
(lp969
I52
asg419
Nsg420
g967
sg421
(lp970
sg423
g64
sg424
Nsg425
Nsg426
Nsbag3
(g4
g5
NtRp971
(dp972
g8
g318
sg404
Nsg405
(dp973
sg407
Nsg31
g33
sg408
(lp974
I53
asg410
Nsg411
VTanna debei Eliyahu Zuta, Additions to Seder Eliyahu Zuta, Mavo 53
p975
sg413
(lp976
sg415
g330
sg416
Nsg417
(lp977
I53
asg419
Nsg420
g975
sg421
(lp978
sg423
g64
sg424
Nsg425
Nsg426
Nsbag3
(g4
g5
NtRp979
(dp980
g8
g318
sg404
Nsg405
(dp981
sg407
Nsg31
g33
sg408
(lp982
I54
asg410
Nsg411
VTanna debei Eliyahu Zuta, Additions to Seder Eliyahu Zuta, Mavo 54
p983
sg413
(lp984
sg415
g330
sg416
Nsg417
(lp985
I54
asg419
Nsg420
g983
sg421
(lp986
sg423
g64
sg424
Nsg425
Nsg426
Nsbag3
(g4
g5
NtRp987
(dp988
g8
g318
sg404
Nsg405
(dp989
sg407
Nsg31
g33
sg408
(lp990
I55
asg410
Nsg411
VTanna debei Eliyahu Zuta, Additions to Seder Eliyahu Zuta, Mavo 55
p991
sg413
(lp992
sg415
g330
sg416
Nsg417
(lp993
I55
asg419
Nsg420
g991
sg421
(lp994
sg423
g64
sg424
Nsg425
Nsg426
Nsbag3
(g4
g5
NtRp995
(dp996
g8
g318
sg404
Nsg405
(dp997
sg407
Nsg31
g33
sg408
(lp998
I56
asg410
Nsg411
VTanna debei Eliyahu Zuta, Additions to Seder Eliyahu Zuta, Mavo 56
p999
sg413
(lp1000
sg415
g330
sg416
Nsg417
(lp1001
I56
asg419
Nsg420
g999
sg421
(lp1002
sg423
g64
sg424
Nsg425
Nsg426
Nsbag3
(g4
g5
NtRp1003
(dp1004
g8
g318
sg404
Nsg405
(dp1005
sg407
Nsg31
g33
sg408
(lp1006
I57
asg410
Nsg411
VTanna debei Eliyahu Zuta, Additions to Seder Eliyahu Zuta, Mavo 57
p1007
sg413
(lp1008
sg415
g330
sg416
Nsg417
(lp1009
I57
asg419
Nsg420
g1007
sg421
(lp1010
sg423
g64
sg424
Nsg425
Nsg426
Nsbag3
(g4
g5
NtRp1011
(dp1012
g8
g318
sg404
Nsg405
(dp1013
sg407
Nsg31
g33
sg408
(lp1014
I58
asg410
Nsg411
VTanna debei Eliyahu Zuta, Additions to Seder Eliyahu Zuta, Mavo 58
p1015
sg413
(lp1016
sg415
g330
sg416
Nsg417
(lp1017
I58
asg419
Nsg420
g1015
sg421
(lp1018
sg423
g64
sg424
Nsg425
Nsg426
Nsbag3
(g4
g5
NtRp1019
(dp1020
g8
g318
sg404
Nsg405
(dp1021
sg407
Nsg31
g33
sg408
(lp1022
I59
asg410
Nsg411
VTanna debei Eliyahu Zuta, Additions to Seder Eliyahu Zuta, Mavo 59
p1023
sg413
(lp1024
sg415
g330
sg416
Nsg417
(lp1025
I59
asg419
Nsg420
g1023
sg421
(lp1026
sg423
g64
sg424
Nsg425
Nsg426
Nsbag3
(g4
g5
NtRp1027
(dp1028
g8
g318
sg404
Nsg405
(dp1029
sg407
Nsg31
g33
sg408
(lp1030
I60
asg410
Nsg411
VTanna debei Eliyahu Zuta, Additions to Seder Eliyahu Zuta, Mavo 60
p1031
sg413
(lp1032
sg415
g330
sg416
Nsg417
(lp1033
I60
asg419
Nsg420
g1031
sg421
(lp1034
sg423
g64
sg424
Nsg425
Nsg426
Nsbag3
(g4
g5
NtRp1035
(dp1036
g8
g318
sg404
Nsg405
(dp1037
sg407
Nsg31
g33
sg408
(lp1038
I61
asg410
Nsg411
VTanna debei Eliyahu Zuta, Additions to Seder Eliyahu Zuta, Mavo 61
p1039
sg413
(lp1040
sg415
g330
sg416
Nsg417
(lp1041
I61
asg419
Nsg420
g1039
sg421
(lp1042
sg423
g64
sg424
Nsg425
Nsg426
Nsbag3
(g4
g5
NtRp1043
(dp1044
g8
g318
sg404
Nsg405
(dp1045
sg407
Nsg31
g33
sg408
(lp1046
I62
asg410
Nsg411
VTanna debei Eliyahu Zuta, Additions to Seder Eliyahu Zuta, Mavo 62
p1047
sg413
(lp1048
sg415
g330
sg416
Nsg417
(lp1049
I62
asg419
Nsg420
g1047
sg421
(lp1050
sg423
g64
sg424
Nsg425
Nsg426
Nsbag3
(g4
g5
NtRp1051
(dp1052
g8
g318
sg404
Nsg405
(dp1053
sg407
Nsg31
g33
sg408
(lp1054
I63
asg410
Nsg411
VTanna debei Eliyahu Zuta, Additions to Seder Eliyahu Zuta, Mavo 63
p1055
sg413
(lp1056
sg415
g330
sg416
Nsg417
(lp1057
I63
asg419
Nsg420
g1055
sg421
(lp1058
sg423
g64
sg424
Nsg425
Nsg426
Nsbag3
(g4
g5
NtRp1059
(dp1060
g8
g318
sg404
Nsg405
(dp1061
sg407
Nsg31
g33
sg408
(lp1062
I64
asg410
Nsg411
VTanna debei Eliyahu Zuta, Additions to Seder Eliyahu Zuta, Mavo 64
p1063
sg413
(lp1064
sg415
g330
sg416
Nsg417
(lp1065
I64
asg419
Nsg420
g1063
sg421
(lp1066
sg423
g64
sg424
Nsg425
Nsg426
Nsbag3
(g4
g5
NtRp1067
(dp1068
g8
g318
sg404
Nsg405
(dp1069
sg407
Nsg31
g33
sg408
(lp1070
I65
asg410
Nsg411
VTanna debei Eliyahu Zuta, Additions to Seder Eliyahu Zuta, Mavo 65
p1071
sg413
(lp1072
sg415
g330
sg416
Nsg417
(lp1073
I65
asg419
Nsg420
g1071
sg421
(lp1074
sg423
g64
sg424
Nsg425
Nsg426
Nsbag3
(g4
g5
NtRp1075
(dp1076
g8
g318
sg404
Nsg405
(dp1077
sg407
Nsg31
g33
sg408
(lp1078
I66
asg410
Nsg411
VTanna debei Eliyahu Zuta, Additions to Seder Eliyahu Zuta, Mavo 66
p1079
sg413
(lp1080
sg415
g330
sg416
Nsg417
(lp1081
I66
asg419
Nsg420
g1079
sg421
(lp1082
sg423
g64
sg424
Nsg425
Nsg426
Nsbag3
(g4
g5
NtRp1083
(dp1084
g8
g318
sg404
Nsg405
(dp1085
sg407
Nsg31
g33
sg408
(lp1086
I67
asg410
Nsg411
VTanna debei Eliyahu Zuta, Additions to Seder Eliyahu Zuta, Mavo 67
p1087
sg413
(lp1088
sg415
g330
sg416
Nsg417
(lp1089
I67
asg419
Nsg420
g1087
sg421
(lp1090
sg423
g64
sg424
Nsg425
Nsg426
Nsbag3
(g4
g5
NtRp1091
(dp1092
g8
g318
sg404
Nsg405
(dp1093
sg407
Nsg31
g33
sg408
(lp1094
I68
asg410
Nsg411
VTanna debei Eliyahu Zuta, Additions to Seder Eliyahu Zuta, Mavo 68
p1095
sg413
(lp1096
sg415
g330
sg416
Nsg417
(lp1097
I68
asg419
Nsg420
g1095
sg421
(lp1098
sg423
g64
sg424
Nsg425
Nsg426
Nsbag3
(g4
g5
NtRp1099
(dp1100
g8
g318
sg404
Nsg405
(dp1101
sg407
Nsg31
g33
sg408
(lp1102
I69
asg410
Nsg411
VTanna debei Eliyahu Zuta, Additions to Seder Eliyahu Zuta, Mavo 69
p1103
sg413
(lp1104
sg415
g330
sg416
Nsg417
(lp1105
I69
asg419
Nsg420
g1103
sg421
(lp1106
sg423
g64
sg424
Nsg425
Nsg426
Nsbag3
(g4
g5
NtRp1107
(dp1108
g8
g318
sg404
Nsg405
(dp1109
sg407
Nsg31
g33
sg408
(lp1110
I70
asg410
Nsg411
VTanna debei Eliyahu Zuta, Additions to Seder Eliyahu Zuta, Mavo 70
p1111
sg413
(lp1112
sg415
g330
sg416
Nsg417
(lp1113
I70
asg419
Nsg420
g1111
sg421
(lp1114
sg423
g64
sg424
Nsg425
Nsg426
Nsbag3
(g4
g5
NtRp1115
(dp1116
g8
g318
sg404
Nsg405
(dp1117
sg407
Nsg31
g33
sg408
(lp1118
I71
asg410
Nsg411
VTanna debei Eliyahu Zuta, Additions to Seder Eliyahu Zuta, Mavo 71
p1119
sg413
(lp1120
sg415
g330
sg416
Nsg417
(lp1121
I71
asg419
Nsg420
g1119
sg421
(lp1122
sg423
g64
sg424
Nsg425
Nsg426
Nsbag3
(g4
g5
NtRp1123
(dp1124
g8
g318
sg404
Nsg405
(dp1125
sg407
Nsg31
g33
sg408
(lp1126
I72
asg410
Nsg411
VTanna debei Eliyahu Zuta, Additions to Seder Eliyahu Zuta, Mavo 72
p1127
sg413
(lp1128
sg415
g330
sg416
Nsg417
(lp1129
I72
asg419
Nsg420
g1127
sg421
(lp1130
sg423
g64
sg424
Nsg425
Nsg426
Nsbag3
(g4
g5
NtRp1131
(dp1132
g8
g318
sg404
Nsg405
(dp1133
sg407
Nsg31
g33
sg408
(lp1134
I73
asg410
Nsg411
VTanna debei Eliyahu Zuta, Additions to Seder Eliyahu Zuta, Mavo 73
p1135
sg413
(lp1136
sg415
g330
sg416
Nsg417
(lp1137
I73
asg419
Nsg420
g1135
sg421
(lp1138
sg423
g64
sg424
Nsg425
Nsg426
Nsbag3
(g4
g5
NtRp1139
(dp1140
g8
g318
sg404
Nsg405
(dp1141
sg407
Nsg31
g33
sg408
(lp1142
I74
asg410
Nsg411
VTanna debei Eliyahu Zuta, Additions to Seder Eliyahu Zuta, Mavo 74
p1143
sg413
(lp1144
sg415
g330
sg416
Nsg417
(lp1145
I74
asg419
Nsg420
g1143
sg421
(lp1146
sg423
g64
sg424
Nsg425
Nsg426
Nsbag3
(g4
g5
NtRp1147
(dp1148
g8
g318
sg404
Nsg405
(dp1149
sg407
Nsg31
g33
sg408
(lp1150
I75
asg410
Nsg411
VTanna debei Eliyahu Zuta, Additions to Seder Eliyahu Zuta, Mavo 75
p1151
sg413
(lp1152
sg415
g330
sg416
Nsg417
(lp1153
I75
asg419
Nsg420
g1151
sg421
(lp1154
sg423
g64
sg424
Nsg425
Nsg426
Nsbag3
(g4
g5
NtRp1155
(dp1156
g8
g318
sg404
Nsg405
(dp1157
sg407
Nsg31
g33
sg408
(lp1158
I76
asg410
Nsg411
VTanna debei Eliyahu Zuta, Additions to Seder Eliyahu Zuta, Mavo 76
p1159
sg413
(lp1160
sg415
g330
sg416
Nsg417
(lp1161
I76
asg419
Nsg420
g1159
sg421
(lp1162
sg423
g64
sg424
Nsg425
Nsg426
Nsbag3
(g4
g5
NtRp1163
(dp1164
g8
g334
sg404
Nsg405
(dp1165
sg407
Nsg31
g33
sg408
(lp1166
I1
asg410
Nsg411
VTanna debei Eliyahu Zuta, Additions to Seder Eliyahu Zuta, Pirkei Derech Eretz 1
p1167
sg413
(lp1168
sg415
g346
sg416
Nsg417
(lp1169
I1
asg419
Nsg420
g1167
sg421
(lp1170
sg423
g64
sg424
Nsg425
Nsg426
Nsbag3
(g4
g5
NtRp1171
(dp1172
g8
g334
sg404
Nsg405
(dp1173
sg407
Nsg31
g33
sg408
(lp1174
I2
asg410
Nsg411
VTanna debei Eliyahu Zuta, Additions to Seder Eliyahu Zuta, Pirkei Derech Eretz 2
p1175
sg413
(lp1176
sg415
g346
sg416
Nsg417
(lp1177
I2
asg419
Nsg420
g1175
sg421
(lp1178
sg423
g64
sg424
Nsg425
Nsg426
Nsbag3
(g4
g5
NtRp1179
(dp1180
g8
g334
sg404
Nsg405
(dp1181
sg407
Nsg31
g33
sg408
(lp1182
I3
asg410
Nsg411
VTanna debei Eliyahu Zuta, Additions to Seder Eliyahu Zuta, Pirkei Derech Eretz 3
p1183
sg413
(lp1184
sg415
g346
sg416
Nsg417
(lp1185
I3
asg419
Nsg420
g1183
sg421
(lp1186
sg423
g64
sg424
Nsg425
Nsg426
Nsbag3
(g4
g5
NtRp1187
(dp1188
g8
g350
sg404
Nsg405
(dp1189
sg407
Nsg31
g33
sg408
(lp1190
I1
asg410
Nsg411
VTanna debei Eliyahu Zuta, Additions to Seder Eliyahu Zuta, Pirkei DeRabbi Eliezer 1
p1191
sg413
(lp1192
sg415
g362
sg416
Nsg417
(lp1193
I1
asg419
Nsg420
g1191
sg421
(lp1194
sg423
g64
sg424
Nsg425
Nsg426
Nsbag3
(g4
g5
NtRp1195
(dp1196
g8
g350
sg404
Nsg405
(dp1197
sg407
Nsg31
g33
sg408
(lp1198
I2
asg410
Nsg411
VTanna debei Eliyahu Zuta, Additions to Seder Eliyahu Zuta, Pirkei DeRabbi Eliezer 2
p1199
sg413
(lp1200
sg415
g362
sg416
Nsg417
(lp1201
I2
asg419
Nsg420
g1199
sg421
(lp1202
sg423
g64
sg424
Nsg425
Nsg426
Nsbag3
(g4
g5
NtRp1203
(dp1204
g8
g350
sg404
Nsg405
(dp1205
sg407
Nsg31
g33
sg408
(lp1206
I3
asg410
Nsg411
VTanna debei Eliyahu Zuta, Additions to Seder Eliyahu Zuta, Pirkei DeRabbi Eliezer 3
p1207
sg413
(lp1208
sg415
g362
sg416
Nsg417
(lp1209
I3
asg419
Nsg420
g1207
sg421
(lp1210
sg423
g64
sg424
Nsg425
Nsg426
Nsbag3
(g4
g5
NtRp1211
(dp1212
g8
g350
sg404
Nsg405
(dp1213
sg407
Nsg31
g33
sg408
(lp1214
I4
asg410
Nsg411
VTanna debei Eliyahu Zuta, Additions to Seder Eliyahu Zuta, Pirkei DeRabbi Eliezer 4
p1215
sg413
(lp1216
sg415
g362
sg416
Nsg417
(lp1217
I4
asg419
Nsg420
g1215
sg421
(lp1218
sg423
g64
sg424
Nsg425
Nsg426
Nsbag3
(g4
g5
NtRp1219
(dp1220
g8
g350
sg404
Nsg405
(dp1221
sg407
Nsg31
g33
sg408
(lp1222
I5
asg410
Nsg411
VTanna debei Eliyahu Zuta, Additions to Seder Eliyahu Zuta, Pirkei DeRabbi Eliezer 5
p1223
sg413
(lp1224
sg415
g362
sg416
Nsg417
(lp1225
I5
asg419
Nsg420
g1223
sg421
(lp1226
sg423
g64
sg424
Nsg425
Nsg426
Nsbag3
(g4
g5
NtRp1227
(dp1228
g8
g350
sg404
Nsg405
(dp1229
sg407
Nsg31
g33
sg408
(lp1230
I6
asg410
Nsg411
VTanna debei Eliyahu Zuta, Additions to Seder Eliyahu Zuta, Pirkei DeRabbi Eliezer 6
p1231
sg413
(lp1232
sg415
g362
sg416
Nsg417
(lp1233
I6
asg419
Nsg420
g1231
sg421
(lp1234
sg423
g64
sg424
Nsg425
Nsg426
Nsbag3
(g4
g5
NtRp1235
(dp1236
g8
g366
sg404
Nsg405
(dp1237
sg407
Nsg31
g33
sg408
(lp1238
I1
asg410
Nsg411
VTanna debei Eliyahu Zuta, Additions to Seder Eliyahu Zuta, Pirkei HaYeridot 1
p1239
sg413
(lp1240
sg415
g378
sg416
Nsg417
(lp1241
I1
asg419
Nsg420
g1239
sg421
(lp1242
sg423
g64
sg424
Nsg425
Nsg426
Nsbag3
(g4
g5
NtRp1243
(dp1244
g8
g366
sg404
Nsg405
(dp1245
sg407
Nsg31
g33
sg408
(lp1246
I2
asg410
Nsg411
VTanna debei Eliyahu Zuta, Additions to Seder Eliyahu Zuta, Pirkei HaYeridot 2
p1247
sg413
(lp1248
sg415
g378
sg416
Nsg417
(lp1249
I2
asg419
Nsg420
g1247
sg421
(lp1250
sg423
g64
sg424
Nsg425
Nsg426
Nsbag3
(g4
g5
NtRp1251
(dp1252
g8
g366
sg404
Nsg405
(dp1253
sg407
Nsg31
g33
sg408
(lp1254
I3
asg410
Nsg411
VTanna debei Eliyahu Zuta, Additions to Seder Eliyahu Zuta, Pirkei HaYeridot 3
p1255
sg413
(lp1256
sg415
g378
sg416
Nsg417
(lp1257
I3
asg419
Nsg420
g1255
sg421
(lp1258
sg423
g64
sg424
Nsg425
Nsg426
Nsbag3
(g4
g5
NtRp1259
(dp1260
g8
g366
sg404
Nsg405
(dp1261
sg407
Nsg31
g33
sg408
(lp1262
I4
asg410
Nsg411
VTanna debei Eliyahu Zuta, Additions to Seder Eliyahu Zuta, Pirkei HaYeridot 4
p1263
sg413
(lp1264
sg415
g378
sg416
Nsg417
(lp1265
I4
asg419
Nsg420
g1263
sg421
(lp1266
sg423
g64
sg424
Nsg425
Nsg426
Nsbag3
(g4
g5
NtRp1267
(dp1268
g8
g366
sg404
Nsg405
(dp1269
sg407
Nsg31
g33
sg408
(lp1270
I5
asg410
Nsg411
VTanna debei Eliyahu Zuta, Additions to Seder Eliyahu Zuta, Pirkei HaYeridot 5
p1271
sg413
(lp1272
sg415
g378
sg416
Nsg417
(lp1273
I5
asg419
Nsg420
g1271
sg421
(lp1274
sg423
g64
sg424
Nsg425
Nsg426
Nsbag3
(g4
g5
NtRp1275
(dp1276
g8
g366
sg404
Nsg405
(dp1277
sg407
Nsg31
g33
sg408
(lp1278
I6
asg410
Nsg411
VTanna debei Eliyahu Zuta, Additions to Seder Eliyahu Zuta, Pirkei HaYeridot 6
p1279
sg413
(lp1280
sg415
g378
sg416
Nsg417
(lp1281
I6
asg419
Nsg420
g1279
sg421
(lp1282
sg423
g64
sg424
Nsg425
Nsg426
Nsbag3
(g4
g5
NtRp1283
(dp1284
g8
g366
sg404
Nsg405
(dp1285
sg407
Nsg31
g33
sg408
(lp1286
I7
asg410
Nsg411
VTanna debei Eliyahu Zuta, Additions to Seder Eliyahu Zuta, Pirkei HaYeridot 7
p1287
sg413
(lp1288
sg415
g378
sg416
Nsg417
(lp1289
I7
asg419
Nsg420
g1287
sg421
(lp1290
sg423
g64
sg424
Nsg425
Nsg426
Nsbag3
(g4
g5
NtRp1291
(dp1292
g8
g366
sg404
Nsg405
(dp1293
sg407
Nsg31
g33
sg408
(lp1294
I8
asg410
Nsg411
VTanna debei Eliyahu Zuta, Additions to Seder Eliyahu Zuta, Pirkei HaYeridot 8
p1295
sg413
(lp1296
sg415
g378
sg416
Nsg417
(lp1297
I8
asg419
Nsg420
g1295
sg421
(lp1298
sg423
g64
sg424
Nsg425
Nsg426
Nsbag3
(g4
g5
NtRp1299
(dp1300
g8
g366
sg404
Nsg405
(dp1301
sg407
Nsg31
g33
sg408
(lp1302
I9
asg410
Nsg411
VTanna debei Eliyahu Zuta, Additions to Seder Eliyahu Zuta, Pirkei HaYeridot 9
p1303
sg413
(lp1304
sg415
g378
sg416
Nsg417
(lp1305
I9
asg419
Nsg420
g1303
sg421
(lp1306
sg423
g64
sg424
Nsg425
Nsg426
Nsbag3
(g4
g5
NtRp1307
(dp1308
g8
g366
sg404
Nsg405
(dp1309
sg407
Nsg31
g33
sg408
(lp1310
I10
asg410
Nsg411
VTanna debei Eliyahu Zuta, Additions to Seder Eliyahu Zuta, Pirkei HaYeridot 10
p1311
sg413
(lp1312
sg415
g378
sg416
Nsg417
(lp1313
I10
asg419
Nsg420
g1311
sg421
(lp1314
sg423
g64
sg424
Nsg425
Nsg426
NsbaI37286
t.