((lp1
I0
aI55
aI443
aI1141
aI3379
aI4599
aI6045
aI8752
aI11407
aI14001
aI14944
aI16468
aI16984
aI17320
aI19086
aI19826
aI21927
aI22494
aI23294
aI24428
aI25816
aI26943
aI29179
aI29943
aI31125
aI32037
aI32382
aI32983
aI33348
aI33900
aI35436
aI36028
aI37816
aI39610
aI40174
aI40577
aI41313
aI41865
aI42676
aI43519
aI43833
aI45019
aI45997
aI47748
aI48347
aI48953
aI50017
aI51452
aI52240
aI53176
aI53662
aI54469
aI55371
aI56232
aI56579
aI58102
aI59053
a(lp2
ccopy_reg
_reconstructor
p3
(csefaria.model.text
Ref
p4
c__builtin__
object
p5
NtRp6
(dp7
S'index_node'
p8
g3
(csefaria.model.schema
JaggedArrayNode
p9
g5
NtRp10
(dp11
S'_address'
p12
(lp13
VTanna Debei Eliyahu Rabbah
p14
asS'_full_titles'
p15
(dp16
sVnodeType
p17
VJaggedArrayNode
p18
sS'parent'
p19
NsVaddressTypes
p20
(lp21
VInteger
p22
aVInteger
p23
asS'default'
p24
I00
sS'index'
p25
g3
(csefaria.model.text
Index
p26
g5
NtRp27
(dp28
S'_id'
p29
g3
(cbson.objectid
ObjectId
p30
g5
NtRp31
S'S\xfd0\xea\xfb\xfb\xa2\x14$\xf3\xd2t'
p32
bsS'pkeys_orig_values'
p33
(dp34
S'title'
p35
VTanna Debei Eliyahu Rabbah
p36
ssS'pubDate'
p37
V1598
p38
sS'compDate'
p39
V976
p40
sS'pubPlace'
p41
VVenice
p42
sS'compPlace'
p43
VTalmudic Babylon/Italy/Israel
p44
sS'enDesc'
p45
VTanna Deve Eliyahu (Teachings of the School of Elijah) is the composite name of a midrash, consisting of two parts, whose final redaction took place at the end of the 10th century CE. The first part is called Seder Eliyahu Rabbah (31 chapters); the second, Seder Eliyahu Zu\u1e6da (15 chapters). The underlying theme of the Tanna debe Eliyahu, which, with many interruptions, runs through the whole work, is the evolution of the world-system. The midrash calls the single periods of the history of man "shi\u1e6d\u1e6dot" (series). The first series, which deals with the beginning of the world and extends to the moment when man was driven out of Eden, consists of two subsections, (a) Ma'aseh Merkabah and (b) Ma'aseh Bereshit. The second series embraces the period from the expulsion of man from Eden to the Flood.  The six series of the world-system, found in the first part of the book was conceived prior to the creation of mankind. In the second part of the book mankind\u2019s immorality seem it sink lower and lower until finally its destruction became necessary.
p46
sS'era'
p47
VGN
p48
sS'struct_objs'
p49
(dp50
sS'nodes'
p51
g10
sS'errorMargin'
p52
V8
sS'_title'
p53
g36
sS'categories'
p54
(lp55
VMidrash
p56
aVAggadic Midrash
p57
asS'schema'
p58
(dp59
g17
g18
sg20
g21
sVdepth
p60
I2
sVtitles
p61
(lp62
(dp63
Vlang
p64
Ven
p65
sVtext
p66
VTanna Debei Eliyahu Rabah
p67
sa(dp68
Vlang
p69
Vhe
p70
sVtext
p71
V\u05ea\u05e0\u05d0 \u05d3\u05d1\u05d9 \u05d0\u05dc\u05d9\u05d4\u05d5 \u05e8\u05d1\u05d4
p72
sVprimary
p73
I01
sa(dp74
Vlang
p75
Vhe
p76
sVtext
p77
V\u05ea\u05e0\u05d3\u05d1\u05d0"\u05e8
p78
sa(dp79
Vlang
p80
Vhe
p81
sVtext
p82
V\u05ea\u05d3\u05d1\u05d0"\u05e8
p83
sa(dp84
Vlang
p85
Vhe
p86
sVtext
p87
V\u05ea\u05d3\u05d1"\u05d0 \u05e8\u05d1\u05d4
p88
sa(dp89
Vlang
p90
Vhe
p91
sVtext
p92
V\u05ea\u05d3\u05d1"\u05d0 \u05e8\u05d1\u05d0
p93
sa(dp94
Vlang
p95
Vhe
p96
sVtext
p97
V\u05ea\u05e0\u05d0 \u05d3\u05d1\u05d9 \u05d0\u05dc\u05d9\u05d4\u05d5 \u05e8\u05d1\u05d0
p98
sa(dp99
Vlang
p100
Ven
p101
sVtext
p102
VTanna Debei Eliyahu Rabbah
p103
sVprimary
p104
I01
sasVkey
p105
g14
sVsectionNames
p106
(lp107
VPerek
p108
aVParagraph
p109
assbsS'_primary_title'
p110
(dp111
sS'title_group'
p112
g3
(csefaria.model.schema
TitleGroup
p113
g5
NtRp114
(dp115
g110
(dp116
S'en'
p117
g103
ssS'titles'
p118
g62
sbsS'_addressTypes'
p119
(lp120
g3
(csefaria.model.schema
AddressInteger
p121
g5
NtRp122
(dp123
S'length'
p124
NsS'order'
p125
I0
sbag3
(g121
g5
NtRp126
(dp127
g124
Nsg125
I1
sbasS'sharedTitle'
p128
Nsg60
I2
sS'_full_title'
p129
(dp130
g117
g103
ssS'key'
p131
g14
sS'checkFirst'
p132
NsS'_regexes'
p133
(dp134
sS'_leaf_nodes'
p135
(lp136
sg106
g107
sS'children'
p137
(lp138
sbsS'_range_index'
p139
NsS'_context'
p140
(dp141
sS'_padded'
p142
Nsg25
g27
sS'sections'
p143
(lp144
I1
aI1
asS'_first_spanned_ref'
p145
NsS'tref'
p146
VTanna Debei Eliyahu Rabbah 1:1
p147
sS'_spanned_refs'
p148
(lp149
sS'book'
p150
g103
sS'_range_depth'
p151
NsS'toSections'
p152
(lp153
I1
aI1
asS'_url'
p154
NsS'_normal'
p155
g147
sS'_ranged_refs'
p156
(lp157
sS'type'
p158
g56
sS'_prev'
p159
NsS'_he_normal'
p160
NsS'_next'
p161
Nsbag3
(g4
g5
NtRp162
(dp163
g8
g10
sg139
Nsg140
(dp164
sg142
Nsg25
g27
sg143
(lp165
I1
aI2
asg145
Nsg146
VTanna Debei Eliyahu Rabbah 1:2
p166
sg148
(lp167
sg150
g103
sg151
Nsg152
(lp168
I1
aI2
asg154
Nsg155
g166
sg156
(lp169
sg158
g56
sg159
Nsg160
Nsg161
Nsbag3
(g4
g5
NtRp170
(dp171
g8
g10
sg139
Nsg140
(dp172
sg142
Nsg25
g27
sg143
(lp173
I1
aI3
asg145
Nsg146
VTanna Debei Eliyahu Rabbah 1:3
p174
sg148
(lp175
sg150
g103
sg151
Nsg152
(lp176
I1
aI3
asg154
Nsg155
g174
sg156
(lp177
sg158
g56
sg159
Nsg160
Nsg161
Nsbag3
(g4
g5
NtRp178
(dp179
g8
g10
sg139
Nsg140
(dp180
sg142
Nsg25
g27
sg143
(lp181
I2
aI1
asg145
Nsg146
VTanna Debei Eliyahu Rabbah 2:1
p182
sg148
(lp183
sg150
g103
sg151
Nsg152
(lp184
I2
aI1
asg154
Nsg155
g182
sg156
(lp185
sg158
g56
sg159
Nsg160
Nsg161
Nsbag3
(g4
g5
NtRp186
(dp187
g8
g10
sg139
Nsg140
(dp188
sg142
Nsg25
g27
sg143
(lp189
I3
aI1
asg145
Nsg146
VTanna Debei Eliyahu Rabbah 3:1
p190
sg148
(lp191
sg150
g103
sg151
Nsg152
(lp192
I3
aI1
asg154
Nsg155
g190
sg156
(lp193
sg158
g56
sg159
Nsg160
Nsg161
Nsbag3
(g4
g5
NtRp194
(dp195
g8
g10
sg139
Nsg140
(dp196
sg142
Nsg25
g27
sg143
(lp197
I4
aI1
asg145
Nsg146
VTanna Debei Eliyahu Rabbah 4:1
p198
sg148
(lp199
sg150
g103
sg151
Nsg152
(lp200
I4
aI1
asg154
Nsg155
g198
sg156
(lp201
sg158
g56
sg159
Nsg160
Nsg161
Nsbag3
(g4
g5
NtRp202
(dp203
g8
g10
sg139
Nsg140
(dp204
sg142
Nsg25
g27
sg143
(lp205
I5
aI1
asg145
Nsg146
VTanna Debei Eliyahu Rabbah 5:1
p206
sg148
(lp207
sg150
g103
sg151
Nsg152
(lp208
I5
aI1
asg154
Nsg155
g206
sg156
(lp209
sg158
g56
sg159
Nsg160
Nsg161
Nsbag3
(g4
g5
NtRp210
(dp211
g8
g10
sg139
Nsg140
(dp212
sg142
Nsg25
g27
sg143
(lp213
I6
aI1
asg145
Nsg146
VTanna Debei Eliyahu Rabbah 6:1
p214
sg148
(lp215
sg150
g103
sg151
Nsg152
(lp216
I6
aI1
asg154
Nsg155
g214
sg156
(lp217
sg158
g56
sg159
Nsg160
Nsg161
Nsbag3
(g4
g5
NtRp218
(dp219
g8
g10
sg139
Nsg140
(dp220
sg142
Nsg25
g27
sg143
(lp221
I7
aI1
asg145
Nsg146
VTanna Debei Eliyahu Rabbah 7:1
p222
sg148
(lp223
sg150
g103
sg151
Nsg152
(lp224
I7
aI1
asg154
Nsg155
g222
sg156
(lp225
sg158
g56
sg159
Nsg160
Nsg161
Nsbag3
(g4
g5
NtRp226
(dp227
g8
g10
sg139
Nsg140
(dp228
sg142
Nsg25
g27
sg143
(lp229
I8
aI1
asg145
Nsg146
VTanna Debei Eliyahu Rabbah 8:1
p230
sg148
(lp231
sg150
g103
sg151
Nsg152
(lp232
I8
aI1
asg154
Nsg155
g230
sg156
(lp233
sg158
g56
sg159
Nsg160
Nsg161
Nsbag3
(g4
g5
NtRp234
(dp235
g8
g10
sg139
Nsg140
(dp236
sg142
Nsg25
g27
sg143
(lp237
I9
aI1
asg145
Nsg146
VTanna Debei Eliyahu Rabbah 9:1
p238
sg148
(lp239
sg150
g103
sg151
Nsg152
(lp240
I9
aI1
asg154
Nsg155
g238
sg156
(lp241
sg158
g56
sg159
Nsg160
Nsg161
Nsbag3
(g4
g5
NtRp242
(dp243
g8
g10
sg139
Nsg140
(dp244
sg142
Nsg25
g27
sg143
(lp245
I10
aI1
asg145
Nsg146
VTanna Debei Eliyahu Rabbah 10:1
p246
sg148
(lp247
sg150
g103
sg151
Nsg152
(lp248
I10
aI1
asg154
Nsg155
g246
sg156
(lp249
sg158
g56
sg159
Nsg160
Nsg161
Nsbag3
(g4
g5
NtRp250
(dp251
g8
g10
sg139
Nsg140
(dp252
sg142
Nsg25
g27
sg143
(lp253
I10
aI2
asg145
Nsg146
VTanna Debei Eliyahu Rabbah 10:2
p254
sg148
(lp255
sg150
g103
sg151
Nsg152
(lp256
I10
aI2
asg154
Nsg155
g254
sg156
(lp257
sg158
g56
sg159
Nsg160
Nsg161
Nsbag3
(g4
g5
NtRp258
(dp259
g8
g10
sg139
Nsg140
(dp260
sg142
Nsg25
g27
sg143
(lp261
I11
aI1
asg145
Nsg146
VTanna Debei Eliyahu Rabbah 11:1
p262
sg148
(lp263
sg150
g103
sg151
Nsg152
(lp264
I11
aI1
asg154
Nsg155
g262
sg156
(lp265
sg158
g56
sg159
Nsg160
Nsg161
Nsbag3
(g4
g5
NtRp266
(dp267
g8
g10
sg139
Nsg140
(dp268
sg142
Nsg25
g27
sg143
(lp269
I12
aI1
asg145
Nsg146
VTanna Debei Eliyahu Rabbah 12:1
p270
sg148
(lp271
sg150
g103
sg151
Nsg152
(lp272
I12
aI1
asg154
Nsg155
g270
sg156
(lp273
sg158
g56
sg159
Nsg160
Nsg161
Nsbag3
(g4
g5
NtRp274
(dp275
g8
g10
sg139
Nsg140
(dp276
sg142
Nsg25
g27
sg143
(lp277
I13
aI1
asg145
Nsg146
VTanna Debei Eliyahu Rabbah 13:1
p278
sg148
(lp279
sg150
g103
sg151
Nsg152
(lp280
I13
aI1
asg154
Nsg155
g278
sg156
(lp281
sg158
g56
sg159
Nsg160
Nsg161
Nsbag3
(g4
g5
NtRp282
(dp283
g8
g10
sg139
Nsg140
(dp284
sg142
Nsg25
g27
sg143
(lp285
I14
aI1
asg145
Nsg146
VTanna Debei Eliyahu Rabbah 14:1
p286
sg148
(lp287
sg150
g103
sg151
Nsg152
(lp288
I14
aI1
asg154
Nsg155
g286
sg156
(lp289
sg158
g56
sg159
Nsg160
Nsg161
Nsbag3
(g4
g5
NtRp290
(dp291
g8
g10
sg139
Nsg140
(dp292
sg142
Nsg25
g27
sg143
(lp293
I14
aI2
asg145
Nsg146
VTanna Debei Eliyahu Rabbah 14:2
p294
sg148
(lp295
sg150
g103
sg151
Nsg152
(lp296
I14
aI2
asg154
Nsg155
g294
sg156
(lp297
sg158
g56
sg159
Nsg160
Nsg161
Nsbag3
(g4
g5
NtRp298
(dp299
g8
g10
sg139
Nsg140
(dp300
sg142
Nsg25
g27
sg143
(lp301
I15
aI1
asg145
Nsg146
VTanna Debei Eliyahu Rabbah 15:1
p302
sg148
(lp303
sg150
g103
sg151
Nsg152
(lp304
I15
aI1
asg154
Nsg155
g302
sg156
(lp305
sg158
g56
sg159
Nsg160
Nsg161
Nsbag3
(g4
g5
NtRp306
(dp307
g8
g10
sg139
Nsg140
(dp308
sg142
Nsg25
g27
sg143
(lp309
I15
aI2
asg145
Nsg146
VTanna Debei Eliyahu Rabbah 15:2
p310
sg148
(lp311
sg150
g103
sg151
Nsg152
(lp312
I15
aI2
asg154
Nsg155
g310
sg156
(lp313
sg158
g56
sg159
Nsg160
Nsg161
Nsbag3
(g4
g5
NtRp314
(dp315
g8
g10
sg139
Nsg140
(dp316
sg142
Nsg25
g27
sg143
(lp317
I16
aI1
asg145
Nsg146
VTanna Debei Eliyahu Rabbah 16:1
p318
sg148
(lp319
sg150
g103
sg151
Nsg152
(lp320
I16
aI1
asg154
Nsg155
g318
sg156
(lp321
sg158
g56
sg159
Nsg160
Nsg161
Nsbag3
(g4
g5
NtRp322
(dp323
g8
g10
sg139
Nsg140
(dp324
sg142
Nsg25
g27
sg143
(lp325
I17
aI1
asg145
Nsg146
VTanna Debei Eliyahu Rabbah 17:1
p326
sg148
(lp327
sg150
g103
sg151
Nsg152
(lp328
I17
aI1
asg154
Nsg155
g326
sg156
(lp329
sg158
g56
sg159
Nsg160
Nsg161
Nsbag3
(g4
g5
NtRp330
(dp331
g8
g10
sg139
Nsg140
(dp332
sg142
Nsg25
g27
sg143
(lp333
I18
aI1
asg145
Nsg146
VTanna Debei Eliyahu Rabbah 18:1
p334
sg148
(lp335
sg150
g103
sg151
Nsg152
(lp336
I18
aI1
asg154
Nsg155
g334
sg156
(lp337
sg158
g56
sg159
Nsg160
Nsg161
Nsbag3
(g4
g5
NtRp338
(dp339
g8
g10
sg139
Nsg140
(dp340
sg142
Nsg25
g27
sg143
(lp341
I18
aI2
asg145
Nsg146
VTanna Debei Eliyahu Rabbah 18:2
p342
sg148
(lp343
sg150
g103
sg151
Nsg152
(lp344
I18
aI2
asg154
Nsg155
g342
sg156
(lp345
sg158
g56
sg159
Nsg160
Nsg161
Nsbag3
(g4
g5
NtRp346
(dp347
g8
g10
sg139
Nsg140
(dp348
sg142
Nsg25
g27
sg143
(lp349
I18
aI3
asg145
Nsg146
VTanna Debei Eliyahu Rabbah 18:3
p350
sg148
(lp351
sg150
g103
sg151
Nsg152
(lp352
I18
aI3
asg154
Nsg155
g350
sg156
(lp353
sg158
g56
sg159
Nsg160
Nsg161
Nsbag3
(g4
g5
NtRp354
(dp355
g8
g10
sg139
Nsg140
(dp356
sg142
Nsg25
g27
sg143
(lp357
I18
aI4
asg145
Nsg146
VTanna Debei Eliyahu Rabbah 18:4
p358
sg148
(lp359
sg150
g103
sg151
Nsg152
(lp360
I18
aI4
asg154
Nsg155
g358
sg156
(lp361
sg158
g56
sg159
Nsg160
Nsg161
Nsbag3
(g4
g5
NtRp362
(dp363
g8
g10
sg139
Nsg140
(dp364
sg142
Nsg25
g27
sg143
(lp365
I18
aI5
asg145
Nsg146
VTanna Debei Eliyahu Rabbah 18:5
p366
sg148
(lp367
sg150
g103
sg151
Nsg152
(lp368
I18
aI5
asg154
Nsg155
g366
sg156
(lp369
sg158
g56
sg159
Nsg160
Nsg161
Nsbag3
(g4
g5
NtRp370
(dp371
g8
g10
sg139
Nsg140
(dp372
sg142
Nsg25
g27
sg143
(lp373
I18
aI6
asg145
Nsg146
VTanna Debei Eliyahu Rabbah 18:6
p374
sg148
(lp375
sg150
g103
sg151
Nsg152
(lp376
I18
aI6
asg154
Nsg155
g374
sg156
(lp377
sg158
g56
sg159
Nsg160
Nsg161
Nsbag3
(g4
g5
NtRp378
(dp379
g8
g10
sg139
Nsg140
(dp380
sg142
Nsg25
g27
sg143
(lp381
I18
aI7
asg145
Nsg146
VTanna Debei Eliyahu Rabbah 18:7
p382
sg148
(lp383
sg150
g103
sg151
Nsg152
(lp384
I18
aI7
asg154
Nsg155
g382
sg156
(lp385
sg158
g56
sg159
Nsg160
Nsg161
Nsbag3
(g4
g5
NtRp386
(dp387
g8
g10
sg139
Nsg140
(dp388
sg142
Nsg25
g27
sg143
(lp389
I18
aI8
asg145
Nsg146
VTanna Debei Eliyahu Rabbah 18:8
p390
sg148
(lp391
sg150
g103
sg151
Nsg152
(lp392
I18
aI8
asg154
Nsg155
g390
sg156
(lp393
sg158
g56
sg159
Nsg160
Nsg161
Nsbag3
(g4
g5
NtRp394
(dp395
g8
g10
sg139
Nsg140
(dp396
sg142
Nsg25
g27
sg143
(lp397
I18
aI9
asg145
Nsg146
VTanna Debei Eliyahu Rabbah 18:9
p398
sg148
(lp399
sg150
g103
sg151
Nsg152
(lp400
I18
aI9
asg154
Nsg155
g398
sg156
(lp401
sg158
g56
sg159
Nsg160
Nsg161
Nsbag3
(g4
g5
NtRp402
(dp403
g8
g10
sg139
Nsg140
(dp404
sg142
Nsg25
g27
sg143
(lp405
I18
aI10
asg145
Nsg146
VTanna Debei Eliyahu Rabbah 18:10
p406
sg148
(lp407
sg150
g103
sg151
Nsg152
(lp408
I18
aI10
asg154
Nsg155
g406
sg156
(lp409
sg158
g56
sg159
Nsg160
Nsg161
Nsbag3
(g4
g5
NtRp410
(dp411
g8
g10
sg139
Nsg140
(dp412
sg142
Nsg25
g27
sg143
(lp413
I19
aI1
asg145
Nsg146
VTanna Debei Eliyahu Rabbah 19:1
p414
sg148
(lp415
sg150
g103
sg151
Nsg152
(lp416
I19
aI1
asg154
Nsg155
g414
sg156
(lp417
sg158
g56
sg159
Nsg160
Nsg161
Nsbag3
(g4
g5
NtRp418
(dp419
g8
g10
sg139
Nsg140
(dp420
sg142
Nsg25
g27
sg143
(lp421
I20
aI1
asg145
Nsg146
VTanna Debei Eliyahu Rabbah 20:1
p422
sg148
(lp423
sg150
g103
sg151
Nsg152
(lp424
I20
aI1
asg154
Nsg155
g422
sg156
(lp425
sg158
g56
sg159
Nsg160
Nsg161
Nsbag3
(g4
g5
NtRp426
(dp427
g8
g10
sg139
Nsg140
(dp428
sg142
Nsg25
g27
sg143
(lp429
I20
aI2
asg145
Nsg146
VTanna Debei Eliyahu Rabbah 20:2
p430
sg148
(lp431
sg150
g103
sg151
Nsg152
(lp432
I20
aI2
asg154
Nsg155
g430
sg156
(lp433
sg158
g56
sg159
Nsg160
Nsg161
Nsbag3
(g4
g5
NtRp434
(dp435
g8
g10
sg139
Nsg140
(dp436
sg142
Nsg25
g27
sg143
(lp437
I21
aI1
asg145
Nsg146
VTanna Debei Eliyahu Rabbah 21:1
p438
sg148
(lp439
sg150
g103
sg151
Nsg152
(lp440
I21
aI1
asg154
Nsg155
g438
sg156
(lp441
sg158
g56
sg159
Nsg160
Nsg161
Nsbag3
(g4
g5
NtRp442
(dp443
g8
g10
sg139
Nsg140
(dp444
sg142
Nsg25
g27
sg143
(lp445
I21
aI2
asg145
Nsg146
VTanna Debei Eliyahu Rabbah 21:2
p446
sg148
(lp447
sg150
g103
sg151
Nsg152
(lp448
I21
aI2
asg154
Nsg155
g446
sg156
(lp449
sg158
g56
sg159
Nsg160
Nsg161
Nsbag3
(g4
g5
NtRp450
(dp451
g8
g10
sg139
Nsg140
(dp452
sg142
Nsg25
g27
sg143
(lp453
I22
aI1
asg145
Nsg146
VTanna Debei Eliyahu Rabbah 22:1
p454
sg148
(lp455
sg150
g103
sg151
Nsg152
(lp456
I22
aI1
asg154
Nsg155
g454
sg156
(lp457
sg158
g56
sg159
Nsg160
Nsg161
Nsbag3
(g4
g5
NtRp458
(dp459
g8
g10
sg139
Nsg140
(dp460
sg142
Nsg25
g27
sg143
(lp461
I23
aI1
asg145
Nsg146
VTanna Debei Eliyahu Rabbah 23:1
p462
sg148
(lp463
sg150
g103
sg151
Nsg152
(lp464
I23
aI1
asg154
Nsg155
g462
sg156
(lp465
sg158
g56
sg159
Nsg160
Nsg161
Nsbag3
(g4
g5
NtRp466
(dp467
g8
g10
sg139
Nsg140
(dp468
sg142
Nsg25
g27
sg143
(lp469
I23
aI2
asg145
Nsg146
VTanna Debei Eliyahu Rabbah 23:2
p470
sg148
(lp471
sg150
g103
sg151
Nsg152
(lp472
I23
aI2
asg154
Nsg155
g470
sg156
(lp473
sg158
g56
sg159
Nsg160
Nsg161
Nsbag3
(g4
g5
NtRp474
(dp475
g8
g10
sg139
Nsg140
(dp476
sg142
Nsg25
g27
sg143
(lp477
I24
aI1
asg145
Nsg146
VTanna Debei Eliyahu Rabbah 24:1
p478
sg148
(lp479
sg150
g103
sg151
Nsg152
(lp480
I24
aI1
asg154
Nsg155
g478
sg156
(lp481
sg158
g56
sg159
Nsg160
Nsg161
Nsbag3
(g4
g5
NtRp482
(dp483
g8
g10
sg139
Nsg140
(dp484
sg142
Nsg25
g27
sg143
(lp485
I25
aI1
asg145
Nsg146
VTanna Debei Eliyahu Rabbah 25:1
p486
sg148
(lp487
sg150
g103
sg151
Nsg152
(lp488
I25
aI1
asg154
Nsg155
g486
sg156
(lp489
sg158
g56
sg159
Nsg160
Nsg161
Nsbag3
(g4
g5
NtRp490
(dp491
g8
g10
sg139
Nsg140
(dp492
sg142
Nsg25
g27
sg143
(lp493
I26
aI1
asg145
Nsg146
VTanna Debei Eliyahu Rabbah 26:1
p494
sg148
(lp495
sg150
g103
sg151
Nsg152
(lp496
I26
aI1
asg154
Nsg155
g494
sg156
(lp497
sg158
g56
sg159
Nsg160
Nsg161
Nsbag3
(g4
g5
NtRp498
(dp499
g8
g10
sg139
Nsg140
(dp500
sg142
Nsg25
g27
sg143
(lp501
I26
aI2
asg145
Nsg146
VTanna Debei Eliyahu Rabbah 26:2
p502
sg148
(lp503
sg150
g103
sg151
Nsg152
(lp504
I26
aI2
asg154
Nsg155
g502
sg156
(lp505
sg158
g56
sg159
Nsg160
Nsg161
Nsbag3
(g4
g5
NtRp506
(dp507
g8
g10
sg139
Nsg140
(dp508
sg142
Nsg25
g27
sg143
(lp509
I27
aI1
asg145
Nsg146
VTanna Debei Eliyahu Rabbah 27:1
p510
sg148
(lp511
sg150
g103
sg151
Nsg152
(lp512
I27
aI1
asg154
Nsg155
g510
sg156
(lp513
sg158
g56
sg159
Nsg160
Nsg161
Nsbag3
(g4
g5
NtRp514
(dp515
g8
g10
sg139
Nsg140
(dp516
sg142
Nsg25
g27
sg143
(lp517
I27
aI2
asg145
Nsg146
VTanna Debei Eliyahu Rabbah 27:2
p518
sg148
(lp519
sg150
g103
sg151
Nsg152
(lp520
I27
aI2
asg154
Nsg155
g518
sg156
(lp521
sg158
g56
sg159
Nsg160
Nsg161
Nsbag3
(g4
g5
NtRp522
(dp523
g8
g10
sg139
Nsg140
(dp524
sg142
Nsg25
g27
sg143
(lp525
I28
aI1
asg145
Nsg146
VTanna Debei Eliyahu Rabbah 28:1
p526
sg148
(lp527
sg150
g103
sg151
Nsg152
(lp528
I28
aI1
asg154
Nsg155
g526
sg156
(lp529
sg158
g56
sg159
Nsg160
Nsg161
Nsbag3
(g4
g5
NtRp530
(dp531
g8
g10
sg139
Nsg140
(dp532
sg142
Nsg25
g27
sg143
(lp533
I29
aI1
asg145
Nsg146
VTanna Debei Eliyahu Rabbah 29:1
p534
sg148
(lp535
sg150
g103
sg151
Nsg152
(lp536
I29
aI1
asg154
Nsg155
g534
sg156
(lp537
sg158
g56
sg159
Nsg160
Nsg161
Nsbag3
(g4
g5
NtRp538
(dp539
g8
g10
sg139
Nsg140
(dp540
sg142
Nsg25
g27
sg143
(lp541
I29
aI2
asg145
Nsg146
VTanna Debei Eliyahu Rabbah 29:2
p542
sg148
(lp543
sg150
g103
sg151
Nsg152
(lp544
I29
aI2
asg154
Nsg155
g542
sg156
(lp545
sg158
g56
sg159
Nsg160
Nsg161
Nsbag3
(g4
g5
NtRp546
(dp547
g8
g10
sg139
Nsg140
(dp548
sg142
Nsg25
g27
sg143
(lp549
I30
aI1
asg145
Nsg146
VTanna Debei Eliyahu Rabbah 30:1
p550
sg148
(lp551
sg150
g103
sg151
Nsg152
(lp552
I30
aI1
asg154
Nsg155
g550
sg156
(lp553
sg158
g56
sg159
Nsg160
Nsg161
Nsbag3
(g4
g5
NtRp554
(dp555
g8
g10
sg139
Nsg140
(dp556
sg142
Nsg25
g27
sg143
(lp557
I30
aI2
asg145
Nsg146
VTanna Debei Eliyahu Rabbah 30:2
p558
sg148
(lp559
sg150
g103
sg151
Nsg152
(lp560
I30
aI2
asg154
Nsg155
g558
sg156
(lp561
sg158
g56
sg159
Nsg160
Nsg161
Nsbag3
(g4
g5
NtRp562
(dp563
g8
g10
sg139
Nsg140
(dp564
sg142
Nsg25
g27
sg143
(lp565
I30
aI3
asg145
Nsg146
VTanna Debei Eliyahu Rabbah 30:3
p566
sg148
(lp567
sg150
g103
sg151
Nsg152
(lp568
I30
aI3
asg154
Nsg155
g566
sg156
(lp569
sg158
g56
sg159
Nsg160
Nsg161
Nsbag3
(g4
g5
NtRp570
(dp571
g8
g10
sg139
Nsg140
(dp572
sg142
Nsg25
g27
sg143
(lp573
I30
aI4
asg145
Nsg146
VTanna Debei Eliyahu Rabbah 30:4
p574
sg148
(lp575
sg150
g103
sg151
Nsg152
(lp576
I30
aI4
asg154
Nsg155
g574
sg156
(lp577
sg158
g56
sg159
Nsg160
Nsg161
Nsbag3
(g4
g5
NtRp578
(dp579
g8
g10
sg139
Nsg140
(dp580
sg142
Nsg25
g27
sg143
(lp581
I30
aI5
asg145
Nsg146
VTanna Debei Eliyahu Rabbah 30:5
p582
sg148
(lp583
sg150
g103
sg151
Nsg152
(lp584
I30
aI5
asg154
Nsg155
g582
sg156
(lp585
sg158
g56
sg159
Nsg160
Nsg161
Nsbag3
(g4
g5
NtRp586
(dp587
g8
g10
sg139
Nsg140
(dp588
sg142
Nsg25
g27
sg143
(lp589
I31
aI1
asg145
Nsg146
VTanna Debei Eliyahu Rabbah 31:1
p590
sg148
(lp591
sg150
g103
sg151
Nsg152
(lp592
I31
aI1
asg154
Nsg155
g590
sg156
(lp593
sg158
g56
sg159
Nsg160
Nsg161
Nsbag3
(g4
g5
NtRp594
(dp595
g8
g10
sg139
Nsg140
(dp596
sg142
Nsg25
g27
sg143
(lp597
I31
aI2
asg145
Nsg146
VTanna Debei Eliyahu Rabbah 31:2
p598
sg148
(lp599
sg150
g103
sg151
Nsg152
(lp600
I31
aI2
asg154
Nsg155
g598
sg156
(lp601
sg158
g56
sg159
Nsg160
Nsg161
Nsbag3
(g4
g5
NtRp602
(dp603
g8
g10
sg139
Nsg140
(dp604
sg142
Nsg25
g27
sg143
(lp605
I31
aI3
asg145
Nsg146
VTanna Debei Eliyahu Rabbah 31:3
p606
sg148
(lp607
sg150
g103
sg151
Nsg152
(lp608
I31
aI3
asg154
Nsg155
g606
sg156
(lp609
sg158
g56
sg159
Nsg160
Nsg161
NsbaI60006
t.