((lp1
I0
aI39
aI103
aI125
aI175
aI209
aI254
aI309
aI363
aI429
aI479
aI530
aI573
aI604
aI683
aI753
aI844
aI871
aI975
aI1003
aI1061
aI1091
aI1137
aI1210
aI1309
aI1367
aI1456
aI1501
aI1588
aI1624
aI1664
aI1702
aI1760
aI1856
aI1945
aI1984
aI2004
aI2041
aI2150
aI2228
aI2312
aI2355
aI2430
aI2455
aI2636
aI2696
a(lp2
ccopy_reg
_reconstructor
p3
(csefaria.model.text
Ref
p4
c__builtin__
object
p5
NtRp6
(dp7
S'index_node'
p8
g3
(csefaria.model.schema
JaggedArrayNode
p9
g5
NtRp10
(dp11
S'_address'
p12
(lp13
VTosefta Megillah
p14
asS'_full_titles'
p15
(dp16
sVnodeType
p17
VJaggedArrayNode
p18
sS'parent'
p19
NsVaddressTypes
p20
(lp21
VInteger
p22
aVInteger
p23
asS'default'
p24
I00
sS'index'
p25
g3
(csefaria.model.text
Index
p26
g5
NtRp27
(dp28
S'struct_objs'
p29
(dp30
sS'_id'
p31
g3
(cbson.objectid
ObjectId
p32
g5
NtRp33
S'S\x16\x9fw\xfb\xfb\xa2N\x9c\x1ez\xf3'
p34
bsS'pkeys_orig_values'
p35
(dp36
S'title'
p37
VTosefta Megillah
p38
ssS'pubDate'
p39
V1521
p40
sS'transliteratedTitle'
p41
VTosefta Megillah
p42
sS'pubPlace'
p43
VVenice
p44
sS'compPlace'
p45
VTalmudic Israel
p46
sS'enDesc'
p47
VThe Tosefta (Supplement, addition") is a compilation of the Jewish oral law. Opinions differ widely as to when the Tosefta was redacted and how it relates to the Mishnah. However it closely corresponds to the Mishnah in structure and style, with the same divisions for sedarim ("orders") and masekhot ("tractates"). In many ways, the Tosefta acts as a supplement to the Mishnah. It is mainly written in Mishnaic Hebrew, with some Aramaic. Megillah (Scroll) belongs to the second order, Moed (Festivals) and discusses regulations and prescriptions regarding the reading of the scroll of Esther at Purim, and the reading of other passages from the Torah and Neviim in the synagogue. It has three chapters.
p48
sS'order'
p49
(lp50
I10
asS'era'
p51
VT
sS'compDate'
p52
V210
p53
sS'nodes'
p54
g10
sS'errorMargin'
p55
V20
p56
sS'_title'
p57
g38
sS'categories'
p58
(lp59
VTosefta
p60
aVSeder Moed
p61
asS'schema'
p62
(dp63
g17
g18
sg20
g21
sVlengths
p64
(lp65
I3
asVdepth
p66
I2
sVtitles
p67
(lp68
(dp69
Vlang
p70
Ven
p71
sVtext
p72
VTos. Megillah
p73
sa(dp74
Vlang
p75
Ven
p76
sVtext
p77
VTosefta Megilah
p78
sa(dp79
Vlang
p80
Ven
p81
sVtext
p82
VTos. Megilah
p83
sa(dp84
Vlang
p85
Ven
p86
sVtext
p87
VT. Megillah
p88
sa(dp89
Vlang
p90
Vhe
p91
sVtext
p92
V\u05ea\u05d5\u05e1\u05e4\u05ea\u05d0 \u05de\u05d2\u05d9\u05dc\u05d4
p93
sVprimary
p94
I01
sa(dp95
Vlang
p96
Ven
p97
sVtext
p98
VTosefta Megillah
p99
sVprimary
p100
I01
sasVkey
p101
g14
sVsectionNames
p102
(lp103
VChapter
p104
aVTosefta
p105
assbsS'_primary_title'
p106
(dp107
sS'title_group'
p108
g3
(csefaria.model.schema
TitleGroup
p109
g5
NtRp110
(dp111
g106
(dp112
S'en'
p113
g99
ssS'titles'
p114
g68
sbsS'_addressTypes'
p115
(lp116
g3
(csefaria.model.schema
AddressInteger
p117
g5
NtRp118
(dp119
S'length'
p120
I3
sg49
I0
sbag3
(g117
g5
NtRp121
(dp122
g120
Nsg49
I1
sbasS'sharedTitle'
p123
Nsg64
g65
sg66
I2
sS'_full_title'
p124
(dp125
g113
g99
ssS'key'
p126
g14
sS'checkFirst'
p127
NsS'_regexes'
p128
(dp129
sS'_leaf_nodes'
p130
(lp131
sg102
g103
sS'children'
p132
(lp133
sbsS'_range_index'
p134
NsS'_context'
p135
(dp136
sS'_padded'
p137
Nsg25
g27
sS'sections'
p138
(lp139
I1
aI1
asS'_first_spanned_ref'
p140
NsS'tref'
p141
VTosefta Megillah 1:1
p142
sS'_spanned_refs'
p143
(lp144
sS'book'
p145
g99
sS'_range_depth'
p146
NsS'toSections'
p147
(lp148
I1
aI1
asS'_url'
p149
NsS'_normal'
p150
g142
sS'_ranged_refs'
p151
(lp152
sS'type'
p153
g60
sS'_prev'
p154
NsS'_he_normal'
p155
NsS'_next'
p156
Nsbag3
(g4
g5
NtRp157
(dp158
g8
g10
sg134
Nsg135
(dp159
sg137
Nsg25
g27
sg138
(lp160
I1
aI2
asg140
Nsg141
VTosefta Megillah 1:2
p161
sg143
(lp162
sg145
g99
sg146
Nsg147
(lp163
I1
aI2
asg149
Nsg150
g161
sg151
(lp164
sg153
g60
sg154
Nsg155
Nsg156
Nsbag3
(g4
g5
NtRp165
(dp166
g8
g10
sg134
Nsg135
(dp167
sg137
Nsg25
g27
sg138
(lp168
I1
aI3
asg140
Nsg141
VTosefta Megillah 1:3
p169
sg143
(lp170
sg145
g99
sg146
Nsg147
(lp171
I1
aI3
asg149
Nsg150
g169
sg151
(lp172
sg153
g60
sg154
Nsg155
Nsg156
Nsbag3
(g4
g5
NtRp173
(dp174
g8
g10
sg134
Nsg135
(dp175
sg137
Nsg25
g27
sg138
(lp176
I1
aI4
asg140
Nsg141
VTosefta Megillah 1:4
p177
sg143
(lp178
sg145
g99
sg146
Nsg147
(lp179
I1
aI4
asg149
Nsg150
g177
sg151
(lp180
sg153
g60
sg154
Nsg155
Nsg156
Nsbag3
(g4
g5
NtRp181
(dp182
g8
g10
sg134
Nsg135
(dp183
sg137
Nsg25
g27
sg138
(lp184
I1
aI5
asg140
Nsg141
VTosefta Megillah 1:5
p185
sg143
(lp186
sg145
g99
sg146
Nsg147
(lp187
I1
aI5
asg149
Nsg150
g185
sg151
(lp188
sg153
g60
sg154
Nsg155
Nsg156
Nsbag3
(g4
g5
NtRp189
(dp190
g8
g10
sg134
Nsg135
(dp191
sg137
Nsg25
g27
sg138
(lp192
I1
aI6
asg140
Nsg141
VTosefta Megillah 1:6
p193
sg143
(lp194
sg145
g99
sg146
Nsg147
(lp195
I1
aI6
asg149
Nsg150
g193
sg151
(lp196
sg153
g60
sg154
Nsg155
Nsg156
Nsbag3
(g4
g5
NtRp197
(dp198
g8
g10
sg134
Nsg135
(dp199
sg137
Nsg25
g27
sg138
(lp200
I1
aI7
asg140
Nsg141
VTosefta Megillah 1:7
p201
sg143
(lp202
sg145
g99
sg146
Nsg147
(lp203
I1
aI7
asg149
Nsg150
g201
sg151
(lp204
sg153
g60
sg154
Nsg155
Nsg156
Nsbag3
(g4
g5
NtRp205
(dp206
g8
g10
sg134
Nsg135
(dp207
sg137
Nsg25
g27
sg138
(lp208
I1
aI8
asg140
Nsg141
VTosefta Megillah 1:8
p209
sg143
(lp210
sg145
g99
sg146
Nsg147
(lp211
I1
aI8
asg149
Nsg150
g209
sg151
(lp212
sg153
g60
sg154
Nsg155
Nsg156
Nsbag3
(g4
g5
NtRp213
(dp214
g8
g10
sg134
Nsg135
(dp215
sg137
Nsg25
g27
sg138
(lp216
I1
aI9
asg140
Nsg141
VTosefta Megillah 1:9
p217
sg143
(lp218
sg145
g99
sg146
Nsg147
(lp219
I1
aI9
asg149
Nsg150
g217
sg151
(lp220
sg153
g60
sg154
Nsg155
Nsg156
Nsbag3
(g4
g5
NtRp221
(dp222
g8
g10
sg134
Nsg135
(dp223
sg137
Nsg25
g27
sg138
(lp224
I1
aI10
asg140
Nsg141
VTosefta Megillah 1:10
p225
sg143
(lp226
sg145
g99
sg146
Nsg147
(lp227
I1
aI10
asg149
Nsg150
g225
sg151
(lp228
sg153
g60
sg154
Nsg155
Nsg156
Nsbag3
(g4
g5
NtRp229
(dp230
g8
g10
sg134
Nsg135
(dp231
sg137
Nsg25
g27
sg138
(lp232
I1
aI11
asg140
Nsg141
VTosefta Megillah 1:11
p233
sg143
(lp234
sg145
g99
sg146
Nsg147
(lp235
I1
aI11
asg149
Nsg150
g233
sg151
(lp236
sg153
g60
sg154
Nsg155
Nsg156
Nsbag3
(g4
g5
NtRp237
(dp238
g8
g10
sg134
Nsg135
(dp239
sg137
Nsg25
g27
sg138
(lp240
I1
aI12
asg140
Nsg141
VTosefta Megillah 1:12
p241
sg143
(lp242
sg145
g99
sg146
Nsg147
(lp243
I1
aI12
asg149
Nsg150
g241
sg151
(lp244
sg153
g60
sg154
Nsg155
Nsg156
Nsbag3
(g4
g5
NtRp245
(dp246
g8
g10
sg134
Nsg135
(dp247
sg137
Nsg25
g27
sg138
(lp248
I1
aI13
asg140
Nsg141
VTosefta Megillah 1:13
p249
sg143
(lp250
sg145
g99
sg146
Nsg147
(lp251
I1
aI13
asg149
Nsg150
g249
sg151
(lp252
sg153
g60
sg154
Nsg155
Nsg156
Nsbag3
(g4
g5
NtRp253
(dp254
g8
g10
sg134
Nsg135
(dp255
sg137
Nsg25
g27
sg138
(lp256
I1
aI14
asg140
Nsg141
VTosefta Megillah 1:14
p257
sg143
(lp258
sg145
g99
sg146
Nsg147
(lp259
I1
aI14
asg149
Nsg150
g257
sg151
(lp260
sg153
g60
sg154
Nsg155
Nsg156
Nsbag3
(g4
g5
NtRp261
(dp262
g8
g10
sg134
Nsg135
(dp263
sg137
Nsg25
g27
sg138
(lp264
I2
aI1
asg140
Nsg141
VTosefta Megillah 2:1
p265
sg143
(lp266
sg145
g99
sg146
Nsg147
(lp267
I2
aI1
asg149
Nsg150
g265
sg151
(lp268
sg153
g60
sg154
Nsg155
Nsg156
Nsbag3
(g4
g5
NtRp269
(dp270
g8
g10
sg134
Nsg135
(dp271
sg137
Nsg25
g27
sg138
(lp272
I2
aI2
asg140
Nsg141
VTosefta Megillah 2:2
p273
sg143
(lp274
sg145
g99
sg146
Nsg147
(lp275
I2
aI2
asg149
Nsg150
g273
sg151
(lp276
sg153
g60
sg154
Nsg155
Nsg156
Nsbag3
(g4
g5
NtRp277
(dp278
g8
g10
sg134
Nsg135
(dp279
sg137
Nsg25
g27
sg138
(lp280
I2
aI3
asg140
Nsg141
VTosefta Megillah 2:3
p281
sg143
(lp282
sg145
g99
sg146
Nsg147
(lp283
I2
aI3
asg149
Nsg150
g281
sg151
(lp284
sg153
g60
sg154
Nsg155
Nsg156
Nsbag3
(g4
g5
NtRp285
(dp286
g8
g10
sg134
Nsg135
(dp287
sg137
Nsg25
g27
sg138
(lp288
I2
aI4
asg140
Nsg141
VTosefta Megillah 2:4
p289
sg143
(lp290
sg145
g99
sg146
Nsg147
(lp291
I2
aI4
asg149
Nsg150
g289
sg151
(lp292
sg153
g60
sg154
Nsg155
Nsg156
Nsbag3
(g4
g5
NtRp293
(dp294
g8
g10
sg134
Nsg135
(dp295
sg137
Nsg25
g27
sg138
(lp296
I2
aI5
asg140
Nsg141
VTosefta Megillah 2:5
p297
sg143
(lp298
sg145
g99
sg146
Nsg147
(lp299
I2
aI5
asg149
Nsg150
g297
sg151
(lp300
sg153
g60
sg154
Nsg155
Nsg156
Nsbag3
(g4
g5
NtRp301
(dp302
g8
g10
sg134
Nsg135
(dp303
sg137
Nsg25
g27
sg138
(lp304
I2
aI6
asg140
Nsg141
VTosefta Megillah 2:6
p305
sg143
(lp306
sg145
g99
sg146
Nsg147
(lp307
I2
aI6
asg149
Nsg150
g305
sg151
(lp308
sg153
g60
sg154
Nsg155
Nsg156
Nsbag3
(g4
g5
NtRp309
(dp310
g8
g10
sg134
Nsg135
(dp311
sg137
Nsg25
g27
sg138
(lp312
I2
aI7
asg140
Nsg141
VTosefta Megillah 2:7
p313
sg143
(lp314
sg145
g99
sg146
Nsg147
(lp315
I2
aI7
asg149
Nsg150
g313
sg151
(lp316
sg153
g60
sg154
Nsg155
Nsg156
Nsbag3
(g4
g5
NtRp317
(dp318
g8
g10
sg134
Nsg135
(dp319
sg137
Nsg25
g27
sg138
(lp320
I2
aI8
asg140
Nsg141
VTosefta Megillah 2:8
p321
sg143
(lp322
sg145
g99
sg146
Nsg147
(lp323
I2
aI8
asg149
Nsg150
g321
sg151
(lp324
sg153
g60
sg154
Nsg155
Nsg156
Nsbag3
(g4
g5
NtRp325
(dp326
g8
g10
sg134
Nsg135
(dp327
sg137
Nsg25
g27
sg138
(lp328
I2
aI9
asg140
Nsg141
VTosefta Megillah 2:9
p329
sg143
(lp330
sg145
g99
sg146
Nsg147
(lp331
I2
aI9
asg149
Nsg150
g329
sg151
(lp332
sg153
g60
sg154
Nsg155
Nsg156
Nsbag3
(g4
g5
NtRp333
(dp334
g8
g10
sg134
Nsg135
(dp335
sg137
Nsg25
g27
sg138
(lp336
I2
aI10
asg140
Nsg141
VTosefta Megillah 2:10
p337
sg143
(lp338
sg145
g99
sg146
Nsg147
(lp339
I2
aI10
asg149
Nsg150
g337
sg151
(lp340
sg153
g60
sg154
Nsg155
Nsg156
Nsbag3
(g4
g5
NtRp341
(dp342
g8
g10
sg134
Nsg135
(dp343
sg137
Nsg25
g27
sg138
(lp344
I2
aI11
asg140
Nsg141
VTosefta Megillah 2:11
p345
sg143
(lp346
sg145
g99
sg146
Nsg147
(lp347
I2
aI11
asg149
Nsg150
g345
sg151
(lp348
sg153
g60
sg154
Nsg155
Nsg156
Nsbag3
(g4
g5
NtRp349
(dp350
g8
g10
sg134
Nsg135
(dp351
sg137
Nsg25
g27
sg138
(lp352
I3
aI1
asg140
Nsg141
VTosefta Megillah 3:1
p353
sg143
(lp354
sg145
g99
sg146
Nsg147
(lp355
I3
aI1
asg149
Nsg150
g353
sg151
(lp356
sg153
g60
sg154
Nsg155
Nsg156
Nsbag3
(g4
g5
NtRp357
(dp358
g8
g10
sg134
Nsg135
(dp359
sg137
Nsg25
g27
sg138
(lp360
I3
aI2
asg140
Nsg141
VTosefta Megillah 3:2
p361
sg143
(lp362
sg145
g99
sg146
Nsg147
(lp363
I3
aI2
asg149
Nsg150
g361
sg151
(lp364
sg153
g60
sg154
Nsg155
Nsg156
Nsbag3
(g4
g5
NtRp365
(dp366
g8
g10
sg134
Nsg135
(dp367
sg137
Nsg25
g27
sg138
(lp368
I3
aI3
asg140
Nsg141
VTosefta Megillah 3:3
p369
sg143
(lp370
sg145
g99
sg146
Nsg147
(lp371
I3
aI3
asg149
Nsg150
g369
sg151
(lp372
sg153
g60
sg154
Nsg155
Nsg156
Nsbag3
(g4
g5
NtRp373
(dp374
g8
g10
sg134
Nsg135
(dp375
sg137
Nsg25
g27
sg138
(lp376
I3
aI4
asg140
Nsg141
VTosefta Megillah 3:4
p377
sg143
(lp378
sg145
g99
sg146
Nsg147
(lp379
I3
aI4
asg149
Nsg150
g377
sg151
(lp380
sg153
g60
sg154
Nsg155
Nsg156
Nsbag3
(g4
g5
NtRp381
(dp382
g8
g10
sg134
Nsg135
(dp383
sg137
Nsg25
g27
sg138
(lp384
I3
aI5
asg140
Nsg141
VTosefta Megillah 3:5
p385
sg143
(lp386
sg145
g99
sg146
Nsg147
(lp387
I3
aI5
asg149
Nsg150
g385
sg151
(lp388
sg153
g60
sg154
Nsg155
Nsg156
Nsbag3
(g4
g5
NtRp389
(dp390
g8
g10
sg134
Nsg135
(dp391
sg137
Nsg25
g27
sg138
(lp392
I3
aI6
asg140
Nsg141
VTosefta Megillah 3:6
p393
sg143
(lp394
sg145
g99
sg146
Nsg147
(lp395
I3
aI6
asg149
Nsg150
g393
sg151
(lp396
sg153
g60
sg154
Nsg155
Nsg156
Nsbag3
(g4
g5
NtRp397
(dp398
g8
g10
sg134
Nsg135
(dp399
sg137
Nsg25
g27
sg138
(lp400
I3
aI7
asg140
Nsg141
VTosefta Megillah 3:7
p401
sg143
(lp402
sg145
g99
sg146
Nsg147
(lp403
I3
aI7
asg149
Nsg150
g401
sg151
(lp404
sg153
g60
sg154
Nsg155
Nsg156
Nsbag3
(g4
g5
NtRp405
(dp406
g8
g10
sg134
Nsg135
(dp407
sg137
Nsg25
g27
sg138
(lp408
I3
aI8
asg140
Nsg141
VTosefta Megillah 3:8
p409
sg143
(lp410
sg145
g99
sg146
Nsg147
(lp411
I3
aI8
asg149
Nsg150
g409
sg151
(lp412
sg153
g60
sg154
Nsg155
Nsg156
Nsbag3
(g4
g5
NtRp413
(dp414
g8
g10
sg134
Nsg135
(dp415
sg137
Nsg25
g27
sg138
(lp416
I3
aI9
asg140
Nsg141
VTosefta Megillah 3:9
p417
sg143
(lp418
sg145
g99
sg146
Nsg147
(lp419
I3
aI9
asg149
Nsg150
g417
sg151
(lp420
sg153
g60
sg154
Nsg155
Nsg156
Nsbag3
(g4
g5
NtRp421
(dp422
g8
g10
sg134
Nsg135
(dp423
sg137
Nsg25
g27
sg138
(lp424
I3
aI10
asg140
Nsg141
VTosefta Megillah 3:10
p425
sg143
(lp426
sg145
g99
sg146
Nsg147
(lp427
I3
aI10
asg149
Nsg150
g425
sg151
(lp428
sg153
g60
sg154
Nsg155
Nsg156
Nsbag3
(g4
g5
NtRp429
(dp430
g8
g10
sg134
Nsg135
(dp431
sg137
Nsg25
g27
sg138
(lp432
I3
aI11
asg140
Nsg141
VTosefta Megillah 3:11
p433
sg143
(lp434
sg145
g99
sg146
Nsg147
(lp435
I3
aI11
asg149
Nsg150
g433
sg151
(lp436
sg153
g60
sg154
Nsg155
Nsg156
Nsbag3
(g4
g5
NtRp437
(dp438
g8
g10
sg134
Nsg135
(dp439
sg137
Nsg25
g27
sg138
(lp440
I3
aI12
asg140
Nsg141
VTosefta Megillah 3:12
p441
sg143
(lp442
sg145
g99
sg146
Nsg147
(lp443
I3
aI12
asg149
Nsg150
g441
sg151
(lp444
sg153
g60
sg154
Nsg155
Nsg156
Nsbag3
(g4
g5
NtRp445
(dp446
g8
g10
sg134
Nsg135
(dp447
sg137
Nsg25
g27
sg138
(lp448
I3
aI13
asg140
Nsg141
VTosefta Megillah 3:13
p449
sg143
(lp450
sg145
g99
sg146
Nsg147
(lp451
I3
aI13
asg149
Nsg150
g449
sg151
(lp452
sg153
g60
sg154
Nsg155
Nsg156
Nsbag3
(g4
g5
NtRp453
(dp454
g8
g10
sg134
Nsg135
(dp455
sg137
Nsg25
g27
sg138
(lp456
I3
aI14
asg140
Nsg141
VTosefta Megillah 3:14
p457
sg143
(lp458
sg145
g99
sg146
Nsg147
(lp459
I3
aI14
asg149
Nsg150
g457
sg151
(lp460
sg153
g60
sg154
Nsg155
Nsg156
Nsbag3
(g4
g5
NtRp461
(dp462
g8
g10
sg134
Nsg135
(dp463
sg137
Nsg25
g27
sg138
(lp464
I3
aI15
asg140
Nsg141
VTosefta Megillah 3:15
p465
sg143
(lp466
sg145
g99
sg146
Nsg147
(lp467
I3
aI15
asg149
Nsg150
g465
sg151
(lp468
sg153
g60
sg154
Nsg155
Nsg156
Nsbag3
(g4
g5
NtRp469
(dp470
g8
g10
sg134
Nsg135
(dp471
sg137
Nsg25
g27
sg138
(lp472
I3
aI16
asg140
Nsg141
VTosefta Megillah 3:16
p473
sg143
(lp474
sg145
g99
sg146
Nsg147
(lp475
I3
aI16
asg149
Nsg150
g473
sg151
(lp476
sg153
g60
sg154
Nsg155
Nsg156
Nsbag3
(g4
g5
NtRp477
(dp478
g8
g10
sg134
Nsg135
(dp479
sg137
Nsg25
g27
sg138
(lp480
I3
aI17
asg140
Nsg141
VTosefta Megillah 3:17
p481
sg143
(lp482
sg145
g99
sg146
Nsg147
(lp483
I3
aI17
asg149
Nsg150
g481
sg151
(lp484
sg153
g60
sg154
Nsg155
Nsg156
Nsbag3
(g4
g5
NtRp485
(dp486
g8
g10
sg134
Nsg135
(dp487
sg137
Nsg25
g27
sg138
(lp488
I3
aI18
asg140
Nsg141
VTosefta Megillah 3:18
p489
sg143
(lp490
sg145
g99
sg146
Nsg147
(lp491
I3
aI18
asg149
Nsg150
g489
sg151
(lp492
sg153
g60
sg154
Nsg155
Nsg156
Nsbag3
(g4
g5
NtRp493
(dp494
g8
g10
sg134
Nsg135
(dp495
sg137
Nsg25
g27
sg138
(lp496
I3
aI19
asg140
Nsg141
VTosefta Megillah 3:19
p497
sg143
(lp498
sg145
g99
sg146
Nsg147
(lp499
I3
aI19
asg149
Nsg150
g497
sg151
(lp500
sg153
g60
sg154
Nsg155
Nsg156
Nsbag3
(g4
g5
NtRp501
(dp502
g8
g10
sg134
Nsg135
(dp503
sg137
Nsg25
g27
sg138
(lp504
I3
aI20
asg140
Nsg141
VTosefta Megillah 3:20
p505
sg143
(lp506
sg145
g99
sg146
Nsg147
(lp507
I3
aI20
asg149
Nsg150
g505
sg151
(lp508
sg153
g60
sg154
Nsg155
Nsg156
Nsbag3
(g4
g5
NtRp509
(dp510
g8
g10
sg134
Nsg135
(dp511
sg137
Nsg25
g27
sg138
(lp512
I3
aI21
asg140
Nsg141
VTosefta Megillah 3:21
p513
sg143
(lp514
sg145
g99
sg146
Nsg147
(lp515
I3
aI21
asg149
Nsg150
g513
sg151
(lp516
sg153
g60
sg154
Nsg155
Nsg156
NsbaI2738
t.