((lp1
I0
aI34
aI108
aI220
aI291
aI397
aI471
aI558
aI623
aI695
aI734
aI772
aI798
aI876
aI918
aI941
aI1016
aI1046
aI1091
aI1196
aI1238
a(lp2
ccopy_reg
_reconstructor
p3
(csefaria.model.text
Ref
p4
c__builtin__
object
p5
NtRp6
(dp7
S'index_node'
p8
g3
(csefaria.model.schema
JaggedArrayNode
p9
g5
NtRp10
(dp11
S'_address'
p12
(lp13
VTosefta Uktsin
p14
asS'_full_titles'
p15
(dp16
sVnodeType
p17
VJaggedArrayNode
p18
sS'parent'
p19
NsVaddressTypes
p20
(lp21
VInteger
p22
aVInteger
p23
asS'default'
p24
I00
sS'index'
p25
g3
(csefaria.model.text
Index
p26
g5
NtRp27
(dp28
S'struct_objs'
p29
(dp30
sS'_id'
p31
g3
(cbson.objectid
ObjectId
p32
g5
NtRp33
S'S7\xb7\x01\xfb\xfb\xa2 \xb6\t\xd3>'
p34
bsS'pkeys_orig_values'
p35
(dp36
S'title'
p37
VTosefta Uktsin
p38
ssS'pubDate'
p39
V1521
p40
sS'transliteratedTitle'
p41
VTosefta Oktsin
p42
sS'pubPlace'
p43
VVenice
p44
sS'compPlace'
p45
VTalmudic Israel
p46
sS'enDesc'
p47
VThe Tosefta (Supplement, addition") is a compilation of the Jewish oral law. Opinions differ widely as to when the Tosefta was redacted and how it relates to the Mishnah. However it closely corresponds to the Mishnah in structure and style, with the same divisions for sedarim ("orders") and masekhot ("tractates"). In many ways, the Tosefta acts as a supplement to the Mishnah. It is mainly written in Mishnaic Hebrew, with some Aramaic. Ukzim (Stems) belongs to the sixth order, Tahorot (Purities) and discusses the impurity of the stalks of fruit. It has three chapters.
p48
sS'order'
p49
(lp50
I14
asS'era'
p51
VT
sS'compDate'
p52
V210
p53
sS'nodes'
p54
g10
sS'errorMargin'
p55
V20
p56
sS'_title'
p57
g38
sS'categories'
p58
(lp59
VTosefta
p60
aVSeder Toharot
p61
asS'schema'
p62
(dp63
g17
g18
sg20
g21
sVlengths
p64
(lp65
I3
asVdepth
p66
I2
sVtitles
p67
(lp68
(dp69
Vlang
p70
Ven
p71
sVtext
p72
VTosefta Oktsin
p73
sa(dp74
Vlang
p75
Ven
p76
sVtext
p77
VTos. Oktzin
p78
sa(dp79
Vlang
p80
Ven
p81
sVtext
p82
VT. Oktsin
p83
sa(dp84
Vlang
p85
Ven
p86
sVtext
p87
VTos. Uktsin
p88
sa(dp89
Vlang
p90
Ven
p91
sVtext
p92
VT. Uktsin
p93
sa(dp94
Vlang
p95
Ven
p96
sVtext
p97
VTos. Uktzin
p98
sa(dp99
Vlang
p100
Ven
p101
sVtext
p102
VTosefta Uktzin
p103
sa(dp104
Vlang
p105
Ven
p106
sVtext
p107
VT. Uktzin
p108
sa(dp109
Vlang
p110
Vhe
p111
sVtext
p112
V\u05ea\u05d5\u05e1\u05e4\u05ea\u05d0 \u05e2\u05d5\u05e7\u05e6\u05d9\u05df
p113
sVprimary
p114
I01
sa(dp115
Vlang
p116
Ven
p117
sVtext
p118
VTosefta Uktsin
p119
sVprimary
p120
I01
sasVkey
p121
g14
sVsectionNames
p122
(lp123
VChapter
p124
aVTosefta
p125
assbsS'_primary_title'
p126
(dp127
sS'title_group'
p128
g3
(csefaria.model.schema
TitleGroup
p129
g5
NtRp130
(dp131
g126
(dp132
S'en'
p133
g119
ssS'titles'
p134
g68
sbsS'_addressTypes'
p135
(lp136
g3
(csefaria.model.schema
AddressInteger
p137
g5
NtRp138
(dp139
S'length'
p140
I3
sg49
I0
sbag3
(g137
g5
NtRp141
(dp142
g140
Nsg49
I1
sbasS'sharedTitle'
p143
Nsg64
g65
sg66
I2
sS'_full_title'
p144
(dp145
g133
g119
ssS'key'
p146
g14
sS'checkFirst'
p147
NsS'_regexes'
p148
(dp149
sS'_leaf_nodes'
p150
(lp151
sg122
g123
sS'children'
p152
(lp153
sbsS'_range_index'
p154
NsS'_context'
p155
(dp156
sS'_padded'
p157
Nsg25
g27
sS'sections'
p158
(lp159
I1
aI1
asS'_first_spanned_ref'
p160
NsS'tref'
p161
VTosefta Uktsin 1:1
p162
sS'_spanned_refs'
p163
(lp164
sS'book'
p165
g119
sS'_range_depth'
p166
NsS'toSections'
p167
(lp168
I1
aI1
asS'_url'
p169
NsS'_normal'
p170
g162
sS'_ranged_refs'
p171
(lp172
sS'type'
p173
g60
sS'_prev'
p174
NsS'_he_normal'
p175
NsS'_next'
p176
Nsbag3
(g4
g5
NtRp177
(dp178
g8
g10
sg154
Nsg155
(dp179
sg157
Nsg25
g27
sg158
(lp180
I1
aI2
asg160
Nsg161
VTosefta Uktsin 1:2
p181
sg163
(lp182
sg165
g119
sg166
Nsg167
(lp183
I1
aI2
asg169
Nsg170
g181
sg171
(lp184
sg173
g60
sg174
Nsg175
Nsg176
Nsbag3
(g4
g5
NtRp185
(dp186
g8
g10
sg154
Nsg155
(dp187
sg157
Nsg25
g27
sg158
(lp188
I1
aI3
asg160
Nsg161
VTosefta Uktsin 1:3
p189
sg163
(lp190
sg165
g119
sg166
Nsg167
(lp191
I1
aI3
asg169
Nsg170
g189
sg171
(lp192
sg173
g60
sg174
Nsg175
Nsg176
Nsbag3
(g4
g5
NtRp193
(dp194
g8
g10
sg154
Nsg155
(dp195
sg157
Nsg25
g27
sg158
(lp196
I1
aI4
asg160
Nsg161
VTosefta Uktsin 1:4
p197
sg163
(lp198
sg165
g119
sg166
Nsg167
(lp199
I1
aI4
asg169
Nsg170
g197
sg171
(lp200
sg173
g60
sg174
Nsg175
Nsg176
Nsbag3
(g4
g5
NtRp201
(dp202
g8
g10
sg154
Nsg155
(dp203
sg157
Nsg25
g27
sg158
(lp204
I2
aI1
asg160
Nsg161
VTosefta Uktsin 2:1
p205
sg163
(lp206
sg165
g119
sg166
Nsg167
(lp207
I2
aI1
asg169
Nsg170
g205
sg171
(lp208
sg173
g60
sg174
Nsg175
Nsg176
Nsbag3
(g4
g5
NtRp209
(dp210
g8
g10
sg154
Nsg155
(dp211
sg157
Nsg25
g27
sg158
(lp212
I2
aI2
asg160
Nsg161
VTosefta Uktsin 2:2
p213
sg163
(lp214
sg165
g119
sg166
Nsg167
(lp215
I2
aI2
asg169
Nsg170
g213
sg171
(lp216
sg173
g60
sg174
Nsg175
Nsg176
Nsbag3
(g4
g5
NtRp217
(dp218
g8
g10
sg154
Nsg155
(dp219
sg157
Nsg25
g27
sg158
(lp220
I2
aI3
asg160
Nsg161
VTosefta Uktsin 2:3
p221
sg163
(lp222
sg165
g119
sg166
Nsg167
(lp223
I2
aI3
asg169
Nsg170
g221
sg171
(lp224
sg173
g60
sg174
Nsg175
Nsg176
Nsbag3
(g4
g5
NtRp225
(dp226
g8
g10
sg154
Nsg155
(dp227
sg157
Nsg25
g27
sg158
(lp228
I2
aI4
asg160
Nsg161
VTosefta Uktsin 2:4
p229
sg163
(lp230
sg165
g119
sg166
Nsg167
(lp231
I2
aI4
asg169
Nsg170
g229
sg171
(lp232
sg173
g60
sg174
Nsg175
Nsg176
Nsbag3
(g4
g5
NtRp233
(dp234
g8
g10
sg154
Nsg155
(dp235
sg157
Nsg25
g27
sg158
(lp236
I2
aI5
asg160
Nsg161
VTosefta Uktsin 2:5
p237
sg163
(lp238
sg165
g119
sg166
Nsg167
(lp239
I2
aI5
asg169
Nsg170
g237
sg171
(lp240
sg173
g60
sg174
Nsg175
Nsg176
Nsbag3
(g4
g5
NtRp241
(dp242
g8
g10
sg154
Nsg155
(dp243
sg157
Nsg25
g27
sg158
(lp244
I2
aI6
asg160
Nsg161
VTosefta Uktsin 2:6
p245
sg163
(lp246
sg165
g119
sg166
Nsg167
(lp247
I2
aI6
asg169
Nsg170
g245
sg171
(lp248
sg173
g60
sg174
Nsg175
Nsg176
Nsbag3
(g4
g5
NtRp249
(dp250
g8
g10
sg154
Nsg155
(dp251
sg157
Nsg25
g27
sg158
(lp252
I2
aI7
asg160
Nsg161
VTosefta Uktsin 2:7
p253
sg163
(lp254
sg165
g119
sg166
Nsg167
(lp255
I2
aI7
asg169
Nsg170
g253
sg171
(lp256
sg173
g60
sg174
Nsg175
Nsg176
Nsbag3
(g4
g5
NtRp257
(dp258
g8
g10
sg154
Nsg155
(dp259
sg157
Nsg25
g27
sg158
(lp260
I2
aI8
asg160
Nsg161
VTosefta Uktsin 2:8
p261
sg163
(lp262
sg165
g119
sg166
Nsg167
(lp263
I2
aI8
asg169
Nsg170
g261
sg171
(lp264
sg173
g60
sg174
Nsg175
Nsg176
Nsbag3
(g4
g5
NtRp265
(dp266
g8
g10
sg154
Nsg155
(dp267
sg157
Nsg25
g27
sg158
(lp268
I3
aI1
asg160
Nsg161
VTosefta Uktsin 3:1
p269
sg163
(lp270
sg165
g119
sg166
Nsg167
(lp271
I3
aI1
asg169
Nsg170
g269
sg171
(lp272
sg173
g60
sg174
Nsg175
Nsg176
Nsbag3
(g4
g5
NtRp273
(dp274
g8
g10
sg154
Nsg155
(dp275
sg157
Nsg25
g27
sg158
(lp276
I3
aI2
asg160
Nsg161
VTosefta Uktsin 3:2
p277
sg163
(lp278
sg165
g119
sg166
Nsg167
(lp279
I3
aI2
asg169
Nsg170
g277
sg171
(lp280
sg173
g60
sg174
Nsg175
Nsg176
Nsbag3
(g4
g5
NtRp281
(dp282
g8
g10
sg154
Nsg155
(dp283
sg157
Nsg25
g27
sg158
(lp284
I3
aI3
asg160
Nsg161
VTosefta Uktsin 3:3
p285
sg163
(lp286
sg165
g119
sg166
Nsg167
(lp287
I3
aI3
asg169
Nsg170
g285
sg171
(lp288
sg173
g60
sg174
Nsg175
Nsg176
Nsbag3
(g4
g5
NtRp289
(dp290
g8
g10
sg154
Nsg155
(dp291
sg157
Nsg25
g27
sg158
(lp292
I3
aI4
asg160
Nsg161
VTosefta Uktsin 3:4
p293
sg163
(lp294
sg165
g119
sg166
Nsg167
(lp295
I3
aI4
asg169
Nsg170
g293
sg171
(lp296
sg173
g60
sg174
Nsg175
Nsg176
Nsbag3
(g4
g5
NtRp297
(dp298
g8
g10
sg154
Nsg155
(dp299
sg157
Nsg25
g27
sg158
(lp300
I3
aI5
asg160
Nsg161
VTosefta Uktsin 3:5
p301
sg163
(lp302
sg165
g119
sg166
Nsg167
(lp303
I3
aI5
asg169
Nsg170
g301
sg171
(lp304
sg173
g60
sg174
Nsg175
Nsg176
Nsbag3
(g4
g5
NtRp305
(dp306
g8
g10
sg154
Nsg155
(dp307
sg157
Nsg25
g27
sg158
(lp308
I3
aI6
asg160
Nsg161
VTosefta Uktsin 3:6
p309
sg163
(lp310
sg165
g119
sg166
Nsg167
(lp311
I3
aI6
asg169
Nsg170
g309
sg171
(lp312
sg173
g60
sg174
Nsg175
Nsg176
Nsbag3
(g4
g5
NtRp313
(dp314
g8
g10
sg154
Nsg155
(dp315
sg157
Nsg25
g27
sg158
(lp316
I3
aI7
asg160
Nsg161
VTosefta Uktsin 3:7
p317
sg163
(lp318
sg165
g119
sg166
Nsg167
(lp319
I3
aI7
asg169
Nsg170
g317
sg171
(lp320
sg173
g60
sg174
Nsg175
Nsg176
Nsbag3
(g4
g5
NtRp321
(dp322
g8
g10
sg154
Nsg155
(dp323
sg157
Nsg25
g27
sg158
(lp324
I3
aI8
asg160
Nsg161
VTosefta Uktsin 3:8
p325
sg163
(lp326
sg165
g119
sg166
Nsg167
(lp327
I3
aI8
asg169
Nsg170
g325
sg171
(lp328
sg173
g60
sg174
Nsg175
Nsg176
Nsbag3
(g4
g5
NtRp329
(dp330
g8
g10
sg154
Nsg155
(dp331
sg157
Nsg25
g27
sg158
(lp332
I3
aI9
asg160
Nsg161
VTosefta Uktsin 3:9
p333
sg163
(lp334
sg165
g119
sg166
Nsg167
(lp335
I3
aI9
asg169
Nsg170
g333
sg171
(lp336
sg173
g60
sg174
Nsg175
Nsg176
NsbaI1299
t.