((lp1
I0
aI50
aI86
aI126
aI222
aI300
aI351
aI402
aI523
aI611
aI740
aI816
aI934
aI998
aI1029
aI1073
aI1243
aI1286
aI1352
aI1404
aI1553
aI1730
aI1804
aI1848
aI1910
aI1958
aI2012
aI2071
aI2112
aI2187
aI2284
aI2342
aI2411
aI2474
aI2495
a(lp2
ccopy_reg
_reconstructor
p3
(csefaria.model.text
Ref
p4
c__builtin__
object
p5
NtRp6
(dp7
S'index_node'
p8
g3
(csefaria.model.schema
JaggedArrayNode
p9
g5
NtRp10
(dp11
S'_address'
p12
(lp13
VTosefta Ta'anit
p14
asS'_full_titles'
p15
(dp16
sVnodeType
p17
VJaggedArrayNode
p18
sS'parent'
p19
NsVaddressTypes
p20
(lp21
VInteger
p22
aVInteger
p23
asS'default'
p24
I00
sS'index'
p25
g3
(csefaria.model.text
Index
p26
g5
NtRp27
(dp28
S'struct_objs'
p29
(dp30
sS'_id'
p31
g3
(cbson.objectid
ObjectId
p32
g5
NtRp33
S'S*\xea+\xfb\xfb\xa2M\x19\x8eQC'
p34
bsS'pkeys_orig_values'
p35
(dp36
S'title'
p37
VTosefta Ta'anit
p38
ssS'pubDate'
p39
V1521
p40
sS'transliteratedTitle'
p41
VTosefta Ta'anit
p42
sS'pubPlace'
p43
VVenice
p44
sS'compPlace'
p45
VTalmudic Israel
p46
sS'enDesc'
p47
VThe Tosefta (Supplement, addition") is a compilation of the Jewish oral law. Opinions differ widely as to when the Tosefta was redacted and how it relates to the Mishnah. However it closely corresponds to the Mishnah in structure and style, with the same divisions for sedarim ("orders") and masekhot ("tractates"). In many ways, the Tosefta acts as a supplement to the Mishnah. It is mainly written in Mishnaic Hebrew, with some Aramaic.  Taanit (Fasting) belongs to the second order, Moed (Festivals) and discusses the regulation of the special fast-days in times of drought or other untoward occurrences. It has three chapters.
p48
sS'order'
p49
(lp50
I9
asS'era'
p51
VT
sS'compDate'
p52
V210
p53
sS'nodes'
p54
g10
sS'errorMargin'
p55
V20
p56
sS'_title'
p57
g38
sS'categories'
p58
(lp59
VTosefta
p60
aVSeder Moed
p61
asS'schema'
p62
(dp63
g17
g18
sg20
g21
sVlengths
p64
(lp65
I3
asVdepth
p66
I2
sVtitles
p67
(lp68
(dp69
Vlang
p70
Ven
p71
sVtext
p72
VTos. Taanit
p73
sa(dp74
Vlang
p75
Ven
p76
sVtext
p77
VTosefta Taanis
p78
sa(dp79
Vlang
p80
Ven
p81
sVtext
p82
VTos. Ta'anit
p83
sa(dp84
Vlang
p85
Ven
p86
sVtext
p87
VTosefta Ta'anis
p88
sa(dp89
Vlang
p90
Ven
p91
sVtext
p92
VT. Ta'anit
p93
sa(dp94
Vlang
p95
Ven
p96
sVtext
p97
VTosefta Taanit
p98
sa(dp99
Vlang
p100
Ven
p101
sVtext
p102
VT. Taanit
p103
sa(dp104
Vlang
p105
Vhe
p106
sVtext
p107
V\u05ea\u05d5\u05e1\u05e4\u05ea\u05d0 \u05ea\u05e2\u05e0\u05d9\u05ea
p108
sVprimary
p109
I01
sa(dp110
Vlang
p111
Ven
p112
sVtext
p113
VTosefta Ta'anit
p114
sVprimary
p115
I01
sasVkey
p116
g14
sVsectionNames
p117
(lp118
VChapter
p119
aVTosefta
p120
assbsS'_primary_title'
p121
(dp122
sS'title_group'
p123
g3
(csefaria.model.schema
TitleGroup
p124
g5
NtRp125
(dp126
g121
(dp127
S'en'
p128
g114
ssS'titles'
p129
g68
sbsS'_addressTypes'
p130
(lp131
g3
(csefaria.model.schema
AddressInteger
p132
g5
NtRp133
(dp134
S'length'
p135
I3
sg49
I0
sbag3
(g132
g5
NtRp136
(dp137
g135
Nsg49
I1
sbasS'sharedTitle'
p138
Nsg64
g65
sg66
I2
sS'_full_title'
p139
(dp140
g128
g114
ssS'key'
p141
g14
sS'checkFirst'
p142
NsS'_regexes'
p143
(dp144
sS'_leaf_nodes'
p145
(lp146
sg117
g118
sS'children'
p147
(lp148
sbsS'_range_index'
p149
NsS'_context'
p150
(dp151
sS'_padded'
p152
Nsg25
g27
sS'sections'
p153
(lp154
I1
aI1
asS'_first_spanned_ref'
p155
NsS'tref'
p156
VTosefta Ta'anit 1:1
p157
sS'_spanned_refs'
p158
(lp159
sS'book'
p160
g114
sS'_range_depth'
p161
NsS'toSections'
p162
(lp163
I1
aI1
asS'_url'
p164
NsS'_normal'
p165
g157
sS'_ranged_refs'
p166
(lp167
sS'type'
p168
g60
sS'_prev'
p169
NsS'_he_normal'
p170
NsS'_next'
p171
Nsbag3
(g4
g5
NtRp172
(dp173
g8
g10
sg149
Nsg150
(dp174
sg152
Nsg25
g27
sg153
(lp175
I1
aI2
asg155
Nsg156
VTosefta Ta'anit 1:2
p176
sg158
(lp177
sg160
g114
sg161
Nsg162
(lp178
I1
aI2
asg164
Nsg165
g176
sg166
(lp179
sg168
g60
sg169
Nsg170
Nsg171
Nsbag3
(g4
g5
NtRp180
(dp181
g8
g10
sg149
Nsg150
(dp182
sg152
Nsg25
g27
sg153
(lp183
I1
aI3
asg155
Nsg156
VTosefta Ta'anit 1:3
p184
sg158
(lp185
sg160
g114
sg161
Nsg162
(lp186
I1
aI3
asg164
Nsg165
g184
sg166
(lp187
sg168
g60
sg169
Nsg170
Nsg171
Nsbag3
(g4
g5
NtRp188
(dp189
g8
g10
sg149
Nsg150
(dp190
sg152
Nsg25
g27
sg153
(lp191
I1
aI4
asg155
Nsg156
VTosefta Ta'anit 1:4
p192
sg158
(lp193
sg160
g114
sg161
Nsg162
(lp194
I1
aI4
asg164
Nsg165
g192
sg166
(lp195
sg168
g60
sg169
Nsg170
Nsg171
Nsbag3
(g4
g5
NtRp196
(dp197
g8
g10
sg149
Nsg150
(dp198
sg152
Nsg25
g27
sg153
(lp199
I1
aI5
asg155
Nsg156
VTosefta Ta'anit 1:5
p200
sg158
(lp201
sg160
g114
sg161
Nsg162
(lp202
I1
aI5
asg164
Nsg165
g200
sg166
(lp203
sg168
g60
sg169
Nsg170
Nsg171
Nsbag3
(g4
g5
NtRp204
(dp205
g8
g10
sg149
Nsg150
(dp206
sg152
Nsg25
g27
sg153
(lp207
I1
aI6
asg155
Nsg156
VTosefta Ta'anit 1:6
p208
sg158
(lp209
sg160
g114
sg161
Nsg162
(lp210
I1
aI6
asg164
Nsg165
g208
sg166
(lp211
sg168
g60
sg169
Nsg170
Nsg171
Nsbag3
(g4
g5
NtRp212
(dp213
g8
g10
sg149
Nsg150
(dp214
sg152
Nsg25
g27
sg153
(lp215
I1
aI7
asg155
Nsg156
VTosefta Ta'anit 1:7
p216
sg158
(lp217
sg160
g114
sg161
Nsg162
(lp218
I1
aI7
asg164
Nsg165
g216
sg166
(lp219
sg168
g60
sg169
Nsg170
Nsg171
Nsbag3
(g4
g5
NtRp220
(dp221
g8
g10
sg149
Nsg150
(dp222
sg152
Nsg25
g27
sg153
(lp223
I1
aI8
asg155
Nsg156
VTosefta Ta'anit 1:8
p224
sg158
(lp225
sg160
g114
sg161
Nsg162
(lp226
I1
aI8
asg164
Nsg165
g224
sg166
(lp227
sg168
g60
sg169
Nsg170
Nsg171
Nsbag3
(g4
g5
NtRp228
(dp229
g8
g10
sg149
Nsg150
(dp230
sg152
Nsg25
g27
sg153
(lp231
I1
aI9
asg155
Nsg156
VTosefta Ta'anit 1:9
p232
sg158
(lp233
sg160
g114
sg161
Nsg162
(lp234
I1
aI9
asg164
Nsg165
g232
sg166
(lp235
sg168
g60
sg169
Nsg170
Nsg171
Nsbag3
(g4
g5
NtRp236
(dp237
g8
g10
sg149
Nsg150
(dp238
sg152
Nsg25
g27
sg153
(lp239
I1
aI10
asg155
Nsg156
VTosefta Ta'anit 1:10
p240
sg158
(lp241
sg160
g114
sg161
Nsg162
(lp242
I1
aI10
asg164
Nsg165
g240
sg166
(lp243
sg168
g60
sg169
Nsg170
Nsg171
Nsbag3
(g4
g5
NtRp244
(dp245
g8
g10
sg149
Nsg150
(dp246
sg152
Nsg25
g27
sg153
(lp247
I2
aI1
asg155
Nsg156
VTosefta Ta'anit 2:1
p248
sg158
(lp249
sg160
g114
sg161
Nsg162
(lp250
I2
aI1
asg164
Nsg165
g248
sg166
(lp251
sg168
g60
sg169
Nsg170
Nsg171
Nsbag3
(g4
g5
NtRp252
(dp253
g8
g10
sg149
Nsg150
(dp254
sg152
Nsg25
g27
sg153
(lp255
I2
aI2
asg155
Nsg156
VTosefta Ta'anit 2:2
p256
sg158
(lp257
sg160
g114
sg161
Nsg162
(lp258
I2
aI2
asg164
Nsg165
g256
sg166
(lp259
sg168
g60
sg169
Nsg170
Nsg171
Nsbag3
(g4
g5
NtRp260
(dp261
g8
g10
sg149
Nsg150
(dp262
sg152
Nsg25
g27
sg153
(lp263
I2
aI3
asg155
Nsg156
VTosefta Ta'anit 2:3
p264
sg158
(lp265
sg160
g114
sg161
Nsg162
(lp266
I2
aI3
asg164
Nsg165
g264
sg166
(lp267
sg168
g60
sg169
Nsg170
Nsg171
Nsbag3
(g4
g5
NtRp268
(dp269
g8
g10
sg149
Nsg150
(dp270
sg152
Nsg25
g27
sg153
(lp271
I2
aI4
asg155
Nsg156
VTosefta Ta'anit 2:4
p272
sg158
(lp273
sg160
g114
sg161
Nsg162
(lp274
I2
aI4
asg164
Nsg165
g272
sg166
(lp275
sg168
g60
sg169
Nsg170
Nsg171
Nsbag3
(g4
g5
NtRp276
(dp277
g8
g10
sg149
Nsg150
(dp278
sg152
Nsg25
g27
sg153
(lp279
I2
aI5
asg155
Nsg156
VTosefta Ta'anit 2:5
p280
sg158
(lp281
sg160
g114
sg161
Nsg162
(lp282
I2
aI5
asg164
Nsg165
g280
sg166
(lp283
sg168
g60
sg169
Nsg170
Nsg171
Nsbag3
(g4
g5
NtRp284
(dp285
g8
g10
sg149
Nsg150
(dp286
sg152
Nsg25
g27
sg153
(lp287
I2
aI6
asg155
Nsg156
VTosefta Ta'anit 2:6
p288
sg158
(lp289
sg160
g114
sg161
Nsg162
(lp290
I2
aI6
asg164
Nsg165
g288
sg166
(lp291
sg168
g60
sg169
Nsg170
Nsg171
Nsbag3
(g4
g5
NtRp292
(dp293
g8
g10
sg149
Nsg150
(dp294
sg152
Nsg25
g27
sg153
(lp295
I2
aI7
asg155
Nsg156
VTosefta Ta'anit 2:7
p296
sg158
(lp297
sg160
g114
sg161
Nsg162
(lp298
I2
aI7
asg164
Nsg165
g296
sg166
(lp299
sg168
g60
sg169
Nsg170
Nsg171
Nsbag3
(g4
g5
NtRp300
(dp301
g8
g10
sg149
Nsg150
(dp302
sg152
Nsg25
g27
sg153
(lp303
I2
aI8
asg155
Nsg156
VTosefta Ta'anit 2:8
p304
sg158
(lp305
sg160
g114
sg161
Nsg162
(lp306
I2
aI8
asg164
Nsg165
g304
sg166
(lp307
sg168
g60
sg169
Nsg170
Nsg171
Nsbag3
(g4
g5
NtRp308
(dp309
g8
g10
sg149
Nsg150
(dp310
sg152
Nsg25
g27
sg153
(lp311
I2
aI9
asg155
Nsg156
VTosefta Ta'anit 2:9
p312
sg158
(lp313
sg160
g114
sg161
Nsg162
(lp314
I2
aI9
asg164
Nsg165
g312
sg166
(lp315
sg168
g60
sg169
Nsg170
Nsg171
Nsbag3
(g4
g5
NtRp316
(dp317
g8
g10
sg149
Nsg150
(dp318
sg152
Nsg25
g27
sg153
(lp319
I2
aI10
asg155
Nsg156
VTosefta Ta'anit 2:10
p320
sg158
(lp321
sg160
g114
sg161
Nsg162
(lp322
I2
aI10
asg164
Nsg165
g320
sg166
(lp323
sg168
g60
sg169
Nsg170
Nsg171
Nsbag3
(g4
g5
NtRp324
(dp325
g8
g10
sg149
Nsg150
(dp326
sg152
Nsg25
g27
sg153
(lp327
I2
aI11
asg155
Nsg156
VTosefta Ta'anit 2:11
p328
sg158
(lp329
sg160
g114
sg161
Nsg162
(lp330
I2
aI11
asg164
Nsg165
g328
sg166
(lp331
sg168
g60
sg169
Nsg170
Nsg171
Nsbag3
(g4
g5
NtRp332
(dp333
g8
g10
sg149
Nsg150
(dp334
sg152
Nsg25
g27
sg153
(lp335
I2
aI12
asg155
Nsg156
VTosefta Ta'anit 2:12
p336
sg158
(lp337
sg160
g114
sg161
Nsg162
(lp338
I2
aI12
asg164
Nsg165
g336
sg166
(lp339
sg168
g60
sg169
Nsg170
Nsg171
Nsbag3
(g4
g5
NtRp340
(dp341
g8
g10
sg149
Nsg150
(dp342
sg152
Nsg25
g27
sg153
(lp343
I3
aI1
asg155
Nsg156
VTosefta Ta'anit 3:1
p344
sg158
(lp345
sg160
g114
sg161
Nsg162
(lp346
I3
aI1
asg164
Nsg165
g344
sg166
(lp347
sg168
g60
sg169
Nsg170
Nsg171
Nsbag3
(g4
g5
NtRp348
(dp349
g8
g10
sg149
Nsg150
(dp350
sg152
Nsg25
g27
sg153
(lp351
I3
aI2
asg155
Nsg156
VTosefta Ta'anit 3:2
p352
sg158
(lp353
sg160
g114
sg161
Nsg162
(lp354
I3
aI2
asg164
Nsg165
g352
sg166
(lp355
sg168
g60
sg169
Nsg170
Nsg171
Nsbag3
(g4
g5
NtRp356
(dp357
g8
g10
sg149
Nsg150
(dp358
sg152
Nsg25
g27
sg153
(lp359
I3
aI3
asg155
Nsg156
VTosefta Ta'anit 3:3
p360
sg158
(lp361
sg160
g114
sg161
Nsg162
(lp362
I3
aI3
asg164
Nsg165
g360
sg166
(lp363
sg168
g60
sg169
Nsg170
Nsg171
Nsbag3
(g4
g5
NtRp364
(dp365
g8
g10
sg149
Nsg150
(dp366
sg152
Nsg25
g27
sg153
(lp367
I3
aI4
asg155
Nsg156
VTosefta Ta'anit 3:4
p368
sg158
(lp369
sg160
g114
sg161
Nsg162
(lp370
I3
aI4
asg164
Nsg165
g368
sg166
(lp371
sg168
g60
sg169
Nsg170
Nsg171
Nsbag3
(g4
g5
NtRp372
(dp373
g8
g10
sg149
Nsg150
(dp374
sg152
Nsg25
g27
sg153
(lp375
I3
aI5
asg155
Nsg156
VTosefta Ta'anit 3:5
p376
sg158
(lp377
sg160
g114
sg161
Nsg162
(lp378
I3
aI5
asg164
Nsg165
g376
sg166
(lp379
sg168
g60
sg169
Nsg170
Nsg171
Nsbag3
(g4
g5
NtRp380
(dp381
g8
g10
sg149
Nsg150
(dp382
sg152
Nsg25
g27
sg153
(lp383
I3
aI6
asg155
Nsg156
VTosefta Ta'anit 3:6
p384
sg158
(lp385
sg160
g114
sg161
Nsg162
(lp386
I3
aI6
asg164
Nsg165
g384
sg166
(lp387
sg168
g60
sg169
Nsg170
Nsg171
Nsbag3
(g4
g5
NtRp388
(dp389
g8
g10
sg149
Nsg150
(dp390
sg152
Nsg25
g27
sg153
(lp391
I3
aI7
asg155
Nsg156
VTosefta Ta'anit 3:7
p392
sg158
(lp393
sg160
g114
sg161
Nsg162
(lp394
I3
aI7
asg164
Nsg165
g392
sg166
(lp395
sg168
g60
sg169
Nsg170
Nsg171
Nsbag3
(g4
g5
NtRp396
(dp397
g8
g10
sg149
Nsg150
(dp398
sg152
Nsg25
g27
sg153
(lp399
I3
aI8
asg155
Nsg156
VTosefta Ta'anit 3:8
p400
sg158
(lp401
sg160
g114
sg161
Nsg162
(lp402
I3
aI8
asg164
Nsg165
g400
sg166
(lp403
sg168
g60
sg169
Nsg170
Nsg171
Nsbag3
(g4
g5
NtRp404
(dp405
g8
g10
sg149
Nsg150
(dp406
sg152
Nsg25
g27
sg153
(lp407
I3
aI9
asg155
Nsg156
VTosefta Ta'anit 3:9
p408
sg158
(lp409
sg160
g114
sg161
Nsg162
(lp410
I3
aI9
asg164
Nsg165
g408
sg166
(lp411
sg168
g60
sg169
Nsg170
Nsg171
Nsbag3
(g4
g5
NtRp412
(dp413
g8
g10
sg149
Nsg150
(dp414
sg152
Nsg25
g27
sg153
(lp415
I3
aI10
asg155
Nsg156
VTosefta Ta'anit 3:10
p416
sg158
(lp417
sg160
g114
sg161
Nsg162
(lp418
I3
aI10
asg164
Nsg165
g416
sg166
(lp419
sg168
g60
sg169
Nsg170
Nsg171
Nsbag3
(g4
g5
NtRp420
(dp421
g8
g10
sg149
Nsg150
(dp422
sg152
Nsg25
g27
sg153
(lp423
I3
aI11
asg155
Nsg156
VTosefta Ta'anit 3:11
p424
sg158
(lp425
sg160
g114
sg161
Nsg162
(lp426
I3
aI11
asg164
Nsg165
g424
sg166
(lp427
sg168
g60
sg169
Nsg170
Nsg171
Nsbag3
(g4
g5
NtRp428
(dp429
g8
g10
sg149
Nsg150
(dp430
sg152
Nsg25
g27
sg153
(lp431
I3
aI12
asg155
Nsg156
VTosefta Ta'anit 3:12
p432
sg158
(lp433
sg160
g114
sg161
Nsg162
(lp434
I3
aI12
asg164
Nsg165
g432
sg166
(lp435
sg168
g60
sg169
Nsg170
Nsg171
Nsbag3
(g4
g5
NtRp436
(dp437
g8
g10
sg149
Nsg150
(dp438
sg152
Nsg25
g27
sg153
(lp439
I3
aI13
asg155
Nsg156
VTosefta Ta'anit 3:13
p440
sg158
(lp441
sg160
g114
sg161
Nsg162
(lp442
I3
aI13
asg164
Nsg165
g440
sg166
(lp443
sg168
g60
sg169
Nsg170
Nsg171
NsbaI2526
t.