((lp1
I0
aI43
aI57
aI82
aI120
aI168
aI205
aI252
aI304
aI352
aI467
aI506
aI535
aI566
aI583
aI609
aI627
aI641
aI706
aI724
aI782
aI800
aI822
aI837
aI861
aI915
aI939
aI957
aI990
aI1130
aI1164
aI1232
aI1292
aI1316
aI1435
aI1472
aI1554
aI1578
aI1646
aI1677
aI1721
aI1749
aI1771
aI1789
aI1819
aI1855
aI1896
aI1936
aI1954
aI2004
aI2033
aI2057
aI2161
aI2190
aI2247
aI2265
aI2302
aI2323
aI2373
aI2417
aI2433
aI2450
aI2492
aI2524
aI2563
aI2629
aI2650
aI2777
aI2852
aI2877
aI2910
aI2934
aI3036
aI3106
aI3129
aI3170
aI3189
aI3205
aI3222
aI3270
aI3309
aI3325
aI3358
aI3375
aI3417
aI3441
aI3491
aI3541
aI3580
aI3653
aI3755
aI3803
aI3843
aI3884
aI3920
aI3975
aI4012
aI4060
aI4077
aI4114
aI4159
aI4190
aI4275
aI4291
aI4370
aI4493
aI4530
aI4606
aI4617
aI4638
aI4675
aI4695
aI4709
aI4749
aI4836
aI4864
aI4885
aI4937
aI5015
aI5124
aI5164
aI5204
aI5235
aI5261
aI5354
aI5386
aI5414
aI5438
aI5483
aI5527
aI5568
aI5631
aI5668
aI5703
aI5726
aI5756
aI5786
aI5832
aI5923
aI5949
aI6000
aI6061
aI6074
aI6141
aI6158
aI6170
aI6194
aI6283
aI6356
aI6479
aI6584
a(lp2
ccopy_reg
_reconstructor
p3
(csefaria.model.text
Ref
p4
c__builtin__
object
p5
NtRp6
(dp7
S'index_node'
p8
g3
(csefaria.model.schema
JaggedArrayNode
p9
g5
NtRp10
(dp11
S'_address'
p12
(lp13
VTosefta Demai
p14
asS'_full_titles'
p15
(dp16
sVnodeType
p17
VJaggedArrayNode
p18
sS'parent'
p19
NsVaddressTypes
p20
(lp21
VInteger
p22
aVInteger
p23
asS'default'
p24
I00
sS'index'
p25
g3
(csefaria.model.text
Index
p26
g5
NtRp27
(dp28
S'struct_objs'
p29
(dp30
sS'_id'
p31
g3
(cbson.objectid
ObjectId
p32
g5
NtRp33
S'Q\xd1\x8f\xb8\xed\xba\xb4C\xa0\xc1\x1e\xfa'
p34
bsS'pkeys_orig_values'
p35
(dp36
S'title'
p37
VTosefta Demai
p38
ssS'pubDate'
p39
V1521
p40
sS'transliteratedTitle'
p41
VTosefta Demai
p42
sS'pubPlace'
p43
VVenice
p44
sS'compPlace'
p45
VTalmudic Israel
p46
sS'enDesc'
p47
VThe Tosefta (Supplement, addition") is a compilation of the Jewish oral law. Opinions differ widely as to when the Tosefta was redacted and how it relates to the Mishnah. However it closely corresponds to the Mishnah in structure and style, with the same divisions for sedarim ("orders") and masekhot ("tractates"). In many ways, the Tosefta acts as a supplement to the Mishnah. It is mainly written in Mishnaic Hebrew, with some Aramaic. Demai (Doubtful Produce) belongs to the first order, Zera'im (seeds) and discusses various cases in which it is not certain whether the priestly donations have been taken from produce. It consists of eight chapters.
p48
sS'order'
p49
(lp50
I3
asS'era'
p51
VT
sS'compDate'
p52
V210
p53
sS'nodes'
p54
g10
sS'errorMargin'
p55
V20
p56
sS'_title'
p57
g38
sS'categories'
p58
(lp59
VTosefta
p60
aVSeder Zeraim
p61
asS'schema'
p62
(dp63
g17
g18
sg20
g21
sVlengths
p64
(lp65
I8
asVdepth
p66
I2
sVtitles
p67
(lp68
(dp69
Vlang
p70
Ven
p71
sVtext
p72
VTosefta Dmai
p73
sa(dp74
Vlang
p75
Ven
p76
sVtext
p77
VT. Demai
p78
sa(dp79
Vlang
p80
Ven
p81
sVtext
p82
VTos. Demai
p83
sa(dp84
Vlang
p85
Ven
p86
sVtext
p87
VTos. Dmai
p88
sa(dp89
Vlang
p90
Vhe
p91
sVtext
p92
V\u05ea\u05d5\u05e1\u05e4\u05ea\u05d0 \u05d3\u05de\u05d0\u05d9
p93
sVprimary
p94
I01
sa(dp95
Vlang
p96
Ven
p97
sVtext
p98
VTosefta Demai
p99
sVprimary
p100
I01
sasVkey
p101
g14
sVsectionNames
p102
(lp103
VChapter
p104
aVTosefta
p105
assbsS'_primary_title'
p106
(dp107
sS'title_group'
p108
g3
(csefaria.model.schema
TitleGroup
p109
g5
NtRp110
(dp111
g106
(dp112
S'en'
p113
g99
ssS'titles'
p114
g68
sbsS'_addressTypes'
p115
(lp116
g3
(csefaria.model.schema
AddressInteger
p117
g5
NtRp118
(dp119
S'length'
p120
I8
sg49
I0
sbag3
(g117
g5
NtRp121
(dp122
g120
Nsg49
I1
sbasS'sharedTitle'
p123
Nsg64
g65
sg66
I2
sS'_full_title'
p124
(dp125
g113
g99
ssS'key'
p126
g14
sS'checkFirst'
p127
NsS'_regexes'
p128
(dp129
sS'_leaf_nodes'
p130
(lp131
sg102
g103
sS'children'
p132
(lp133
sbsS'_range_index'
p134
NsS'_context'
p135
(dp136
sS'_padded'
p137
Nsg25
g27
sS'sections'
p138
(lp139
I1
aI1
asS'_first_spanned_ref'
p140
NsS'tref'
p141
VTosefta Demai 1:1
p142
sS'_spanned_refs'
p143
(lp144
sS'book'
p145
g99
sS'_range_depth'
p146
NsS'toSections'
p147
(lp148
I1
aI1
asS'_url'
p149
NsS'_normal'
p150
g142
sS'_ranged_refs'
p151
(lp152
sS'type'
p153
g60
sS'_prev'
p154
NsS'_he_normal'
p155
NsS'_next'
p156
Nsbag3
(g4
g5
NtRp157
(dp158
g8
g10
sg134
Nsg135
(dp159
sg137
Nsg25
g27
sg138
(lp160
I1
aI2
asg140
Nsg141
VTosefta Demai 1:2
p161
sg143
(lp162
sg145
g99
sg146
Nsg147
(lp163
I1
aI2
asg149
Nsg150
g161
sg151
(lp164
sg153
g60
sg154
Nsg155
Nsg156
Nsbag3
(g4
g5
NtRp165
(dp166
g8
g10
sg134
Nsg135
(dp167
sg137
Nsg25
g27
sg138
(lp168
I1
aI3
asg140
Nsg141
VTosefta Demai 1:3
p169
sg143
(lp170
sg145
g99
sg146
Nsg147
(lp171
I1
aI3
asg149
Nsg150
g169
sg151
(lp172
sg153
g60
sg154
Nsg155
Nsg156
Nsbag3
(g4
g5
NtRp173
(dp174
g8
g10
sg134
Nsg135
(dp175
sg137
Nsg25
g27
sg138
(lp176
I1
aI4
asg140
Nsg141
VTosefta Demai 1:4
p177
sg143
(lp178
sg145
g99
sg146
Nsg147
(lp179
I1
aI4
asg149
Nsg150
g177
sg151
(lp180
sg153
g60
sg154
Nsg155
Nsg156
Nsbag3
(g4
g5
NtRp181
(dp182
g8
g10
sg134
Nsg135
(dp183
sg137
Nsg25
g27
sg138
(lp184
I1
aI5
asg140
Nsg141
VTosefta Demai 1:5
p185
sg143
(lp186
sg145
g99
sg146
Nsg147
(lp187
I1
aI5
asg149
Nsg150
g185
sg151
(lp188
sg153
g60
sg154
Nsg155
Nsg156
Nsbag3
(g4
g5
NtRp189
(dp190
g8
g10
sg134
Nsg135
(dp191
sg137
Nsg25
g27
sg138
(lp192
I1
aI6
asg140
Nsg141
VTosefta Demai 1:6
p193
sg143
(lp194
sg145
g99
sg146
Nsg147
(lp195
I1
aI6
asg149
Nsg150
g193
sg151
(lp196
sg153
g60
sg154
Nsg155
Nsg156
Nsbag3
(g4
g5
NtRp197
(dp198
g8
g10
sg134
Nsg135
(dp199
sg137
Nsg25
g27
sg138
(lp200
I1
aI7
asg140
Nsg141
VTosefta Demai 1:7
p201
sg143
(lp202
sg145
g99
sg146
Nsg147
(lp203
I1
aI7
asg149
Nsg150
g201
sg151
(lp204
sg153
g60
sg154
Nsg155
Nsg156
Nsbag3
(g4
g5
NtRp205
(dp206
g8
g10
sg134
Nsg135
(dp207
sg137
Nsg25
g27
sg138
(lp208
I1
aI8
asg140
Nsg141
VTosefta Demai 1:8
p209
sg143
(lp210
sg145
g99
sg146
Nsg147
(lp211
I1
aI8
asg149
Nsg150
g209
sg151
(lp212
sg153
g60
sg154
Nsg155
Nsg156
Nsbag3
(g4
g5
NtRp213
(dp214
g8
g10
sg134
Nsg135
(dp215
sg137
Nsg25
g27
sg138
(lp216
I1
aI9
asg140
Nsg141
VTosefta Demai 1:9
p217
sg143
(lp218
sg145
g99
sg146
Nsg147
(lp219
I1
aI9
asg149
Nsg150
g217
sg151
(lp220
sg153
g60
sg154
Nsg155
Nsg156
Nsbag3
(g4
g5
NtRp221
(dp222
g8
g10
sg134
Nsg135
(dp223
sg137
Nsg25
g27
sg138
(lp224
I1
aI10
asg140
Nsg141
VTosefta Demai 1:10
p225
sg143
(lp226
sg145
g99
sg146
Nsg147
(lp227
I1
aI10
asg149
Nsg150
g225
sg151
(lp228
sg153
g60
sg154
Nsg155
Nsg156
Nsbag3
(g4
g5
NtRp229
(dp230
g8
g10
sg134
Nsg135
(dp231
sg137
Nsg25
g27
sg138
(lp232
I1
aI11
asg140
Nsg141
VTosefta Demai 1:11
p233
sg143
(lp234
sg145
g99
sg146
Nsg147
(lp235
I1
aI11
asg149
Nsg150
g233
sg151
(lp236
sg153
g60
sg154
Nsg155
Nsg156
Nsbag3
(g4
g5
NtRp237
(dp238
g8
g10
sg134
Nsg135
(dp239
sg137
Nsg25
g27
sg138
(lp240
I1
aI12
asg140
Nsg141
VTosefta Demai 1:12
p241
sg143
(lp242
sg145
g99
sg146
Nsg147
(lp243
I1
aI12
asg149
Nsg150
g241
sg151
(lp244
sg153
g60
sg154
Nsg155
Nsg156
Nsbag3
(g4
g5
NtRp245
(dp246
g8
g10
sg134
Nsg135
(dp247
sg137
Nsg25
g27
sg138
(lp248
I1
aI13
asg140
Nsg141
VTosefta Demai 1:13
p249
sg143
(lp250
sg145
g99
sg146
Nsg147
(lp251
I1
aI13
asg149
Nsg150
g249
sg151
(lp252
sg153
g60
sg154
Nsg155
Nsg156
Nsbag3
(g4
g5
NtRp253
(dp254
g8
g10
sg134
Nsg135
(dp255
sg137
Nsg25
g27
sg138
(lp256
I1
aI14
asg140
Nsg141
VTosefta Demai 1:14
p257
sg143
(lp258
sg145
g99
sg146
Nsg147
(lp259
I1
aI14
asg149
Nsg150
g257
sg151
(lp260
sg153
g60
sg154
Nsg155
Nsg156
Nsbag3
(g4
g5
NtRp261
(dp262
g8
g10
sg134
Nsg135
(dp263
sg137
Nsg25
g27
sg138
(lp264
I1
aI15
asg140
Nsg141
VTosefta Demai 1:15
p265
sg143
(lp266
sg145
g99
sg146
Nsg147
(lp267
I1
aI15
asg149
Nsg150
g265
sg151
(lp268
sg153
g60
sg154
Nsg155
Nsg156
Nsbag3
(g4
g5
NtRp269
(dp270
g8
g10
sg134
Nsg135
(dp271
sg137
Nsg25
g27
sg138
(lp272
I1
aI16
asg140
Nsg141
VTosefta Demai 1:16
p273
sg143
(lp274
sg145
g99
sg146
Nsg147
(lp275
I1
aI16
asg149
Nsg150
g273
sg151
(lp276
sg153
g60
sg154
Nsg155
Nsg156
Nsbag3
(g4
g5
NtRp277
(dp278
g8
g10
sg134
Nsg135
(dp279
sg137
Nsg25
g27
sg138
(lp280
I1
aI17
asg140
Nsg141
VTosefta Demai 1:17
p281
sg143
(lp282
sg145
g99
sg146
Nsg147
(lp283
I1
aI17
asg149
Nsg150
g281
sg151
(lp284
sg153
g60
sg154
Nsg155
Nsg156
Nsbag3
(g4
g5
NtRp285
(dp286
g8
g10
sg134
Nsg135
(dp287
sg137
Nsg25
g27
sg138
(lp288
I1
aI18
asg140
Nsg141
VTosefta Demai 1:18
p289
sg143
(lp290
sg145
g99
sg146
Nsg147
(lp291
I1
aI18
asg149
Nsg150
g289
sg151
(lp292
sg153
g60
sg154
Nsg155
Nsg156
Nsbag3
(g4
g5
NtRp293
(dp294
g8
g10
sg134
Nsg135
(dp295
sg137
Nsg25
g27
sg138
(lp296
I1
aI19
asg140
Nsg141
VTosefta Demai 1:19
p297
sg143
(lp298
sg145
g99
sg146
Nsg147
(lp299
I1
aI19
asg149
Nsg150
g297
sg151
(lp300
sg153
g60
sg154
Nsg155
Nsg156
Nsbag3
(g4
g5
NtRp301
(dp302
g8
g10
sg134
Nsg135
(dp303
sg137
Nsg25
g27
sg138
(lp304
I1
aI20
asg140
Nsg141
VTosefta Demai 1:20
p305
sg143
(lp306
sg145
g99
sg146
Nsg147
(lp307
I1
aI20
asg149
Nsg150
g305
sg151
(lp308
sg153
g60
sg154
Nsg155
Nsg156
Nsbag3
(g4
g5
NtRp309
(dp310
g8
g10
sg134
Nsg135
(dp311
sg137
Nsg25
g27
sg138
(lp312
I1
aI21
asg140
Nsg141
VTosefta Demai 1:21
p313
sg143
(lp314
sg145
g99
sg146
Nsg147
(lp315
I1
aI21
asg149
Nsg150
g313
sg151
(lp316
sg153
g60
sg154
Nsg155
Nsg156
Nsbag3
(g4
g5
NtRp317
(dp318
g8
g10
sg134
Nsg135
(dp319
sg137
Nsg25
g27
sg138
(lp320
I1
aI22
asg140
Nsg141
VTosefta Demai 1:22
p321
sg143
(lp322
sg145
g99
sg146
Nsg147
(lp323
I1
aI22
asg149
Nsg150
g321
sg151
(lp324
sg153
g60
sg154
Nsg155
Nsg156
Nsbag3
(g4
g5
NtRp325
(dp326
g8
g10
sg134
Nsg135
(dp327
sg137
Nsg25
g27
sg138
(lp328
I2
aI1
asg140
Nsg141
VTosefta Demai 2:1
p329
sg143
(lp330
sg145
g99
sg146
Nsg147
(lp331
I2
aI1
asg149
Nsg150
g329
sg151
(lp332
sg153
g60
sg154
Nsg155
Nsg156
Nsbag3
(g4
g5
NtRp333
(dp334
g8
g10
sg134
Nsg135
(dp335
sg137
Nsg25
g27
sg138
(lp336
I2
aI2
asg140
Nsg141
VTosefta Demai 2:2
p337
sg143
(lp338
sg145
g99
sg146
Nsg147
(lp339
I2
aI2
asg149
Nsg150
g337
sg151
(lp340
sg153
g60
sg154
Nsg155
Nsg156
Nsbag3
(g4
g5
NtRp341
(dp342
g8
g10
sg134
Nsg135
(dp343
sg137
Nsg25
g27
sg138
(lp344
I2
aI3
asg140
Nsg141
VTosefta Demai 2:3
p345
sg143
(lp346
sg145
g99
sg146
Nsg147
(lp347
I2
aI3
asg149
Nsg150
g345
sg151
(lp348
sg153
g60
sg154
Nsg155
Nsg156
Nsbag3
(g4
g5
NtRp349
(dp350
g8
g10
sg134
Nsg135
(dp351
sg137
Nsg25
g27
sg138
(lp352
I2
aI4
asg140
Nsg141
VTosefta Demai 2:4
p353
sg143
(lp354
sg145
g99
sg146
Nsg147
(lp355
I2
aI4
asg149
Nsg150
g353
sg151
(lp356
sg153
g60
sg154
Nsg155
Nsg156
Nsbag3
(g4
g5
NtRp357
(dp358
g8
g10
sg134
Nsg135
(dp359
sg137
Nsg25
g27
sg138
(lp360
I2
aI5
asg140
Nsg141
VTosefta Demai 2:5
p361
sg143
(lp362
sg145
g99
sg146
Nsg147
(lp363
I2
aI5
asg149
Nsg150
g361
sg151
(lp364
sg153
g60
sg154
Nsg155
Nsg156
Nsbag3
(g4
g5
NtRp365
(dp366
g8
g10
sg134
Nsg135
(dp367
sg137
Nsg25
g27
sg138
(lp368
I2
aI6
asg140
Nsg141
VTosefta Demai 2:6
p369
sg143
(lp370
sg145
g99
sg146
Nsg147
(lp371
I2
aI6
asg149
Nsg150
g369
sg151
(lp372
sg153
g60
sg154
Nsg155
Nsg156
Nsbag3
(g4
g5
NtRp373
(dp374
g8
g10
sg134
Nsg135
(dp375
sg137
Nsg25
g27
sg138
(lp376
I2
aI7
asg140
Nsg141
VTosefta Demai 2:7
p377
sg143
(lp378
sg145
g99
sg146
Nsg147
(lp379
I2
aI7
asg149
Nsg150
g377
sg151
(lp380
sg153
g60
sg154
Nsg155
Nsg156
Nsbag3
(g4
g5
NtRp381
(dp382
g8
g10
sg134
Nsg135
(dp383
sg137
Nsg25
g27
sg138
(lp384
I2
aI8
asg140
Nsg141
VTosefta Demai 2:8
p385
sg143
(lp386
sg145
g99
sg146
Nsg147
(lp387
I2
aI8
asg149
Nsg150
g385
sg151
(lp388
sg153
g60
sg154
Nsg155
Nsg156
Nsbag3
(g4
g5
NtRp389
(dp390
g8
g10
sg134
Nsg135
(dp391
sg137
Nsg25
g27
sg138
(lp392
I2
aI9
asg140
Nsg141
VTosefta Demai 2:9
p393
sg143
(lp394
sg145
g99
sg146
Nsg147
(lp395
I2
aI9
asg149
Nsg150
g393
sg151
(lp396
sg153
g60
sg154
Nsg155
Nsg156
Nsbag3
(g4
g5
NtRp397
(dp398
g8
g10
sg134
Nsg135
(dp399
sg137
Nsg25
g27
sg138
(lp400
I2
aI10
asg140
Nsg141
VTosefta Demai 2:10
p401
sg143
(lp402
sg145
g99
sg146
Nsg147
(lp403
I2
aI10
asg149
Nsg150
g401
sg151
(lp404
sg153
g60
sg154
Nsg155
Nsg156
Nsbag3
(g4
g5
NtRp405
(dp406
g8
g10
sg134
Nsg135
(dp407
sg137
Nsg25
g27
sg138
(lp408
I2
aI11
asg140
Nsg141
VTosefta Demai 2:11
p409
sg143
(lp410
sg145
g99
sg146
Nsg147
(lp411
I2
aI11
asg149
Nsg150
g409
sg151
(lp412
sg153
g60
sg154
Nsg155
Nsg156
Nsbag3
(g4
g5
NtRp413
(dp414
g8
g10
sg134
Nsg135
(dp415
sg137
Nsg25
g27
sg138
(lp416
I2
aI12
asg140
Nsg141
VTosefta Demai 2:12
p417
sg143
(lp418
sg145
g99
sg146
Nsg147
(lp419
I2
aI12
asg149
Nsg150
g417
sg151
(lp420
sg153
g60
sg154
Nsg155
Nsg156
Nsbag3
(g4
g5
NtRp421
(dp422
g8
g10
sg134
Nsg135
(dp423
sg137
Nsg25
g27
sg138
(lp424
I2
aI13
asg140
Nsg141
VTosefta Demai 2:13
p425
sg143
(lp426
sg145
g99
sg146
Nsg147
(lp427
I2
aI13
asg149
Nsg150
g425
sg151
(lp428
sg153
g60
sg154
Nsg155
Nsg156
Nsbag3
(g4
g5
NtRp429
(dp430
g8
g10
sg134
Nsg135
(dp431
sg137
Nsg25
g27
sg138
(lp432
I2
aI14
asg140
Nsg141
VTosefta Demai 2:14
p433
sg143
(lp434
sg145
g99
sg146
Nsg147
(lp435
I2
aI14
asg149
Nsg150
g433
sg151
(lp436
sg153
g60
sg154
Nsg155
Nsg156
Nsbag3
(g4
g5
NtRp437
(dp438
g8
g10
sg134
Nsg135
(dp439
sg137
Nsg25
g27
sg138
(lp440
I2
aI15
asg140
Nsg141
VTosefta Demai 2:15
p441
sg143
(lp442
sg145
g99
sg146
Nsg147
(lp443
I2
aI15
asg149
Nsg150
g441
sg151
(lp444
sg153
g60
sg154
Nsg155
Nsg156
Nsbag3
(g4
g5
NtRp445
(dp446
g8
g10
sg134
Nsg135
(dp447
sg137
Nsg25
g27
sg138
(lp448
I3
aI1
asg140
Nsg141
VTosefta Demai 3:1
p449
sg143
(lp450
sg145
g99
sg146
Nsg147
(lp451
I3
aI1
asg149
Nsg150
g449
sg151
(lp452
sg153
g60
sg154
Nsg155
Nsg156
Nsbag3
(g4
g5
NtRp453
(dp454
g8
g10
sg134
Nsg135
(dp455
sg137
Nsg25
g27
sg138
(lp456
I3
aI2
asg140
Nsg141
VTosefta Demai 3:2
p457
sg143
(lp458
sg145
g99
sg146
Nsg147
(lp459
I3
aI2
asg149
Nsg150
g457
sg151
(lp460
sg153
g60
sg154
Nsg155
Nsg156
Nsbag3
(g4
g5
NtRp461
(dp462
g8
g10
sg134
Nsg135
(dp463
sg137
Nsg25
g27
sg138
(lp464
I3
aI3
asg140
Nsg141
VTosefta Demai 3:3
p465
sg143
(lp466
sg145
g99
sg146
Nsg147
(lp467
I3
aI3
asg149
Nsg150
g465
sg151
(lp468
sg153
g60
sg154
Nsg155
Nsg156
Nsbag3
(g4
g5
NtRp469
(dp470
g8
g10
sg134
Nsg135
(dp471
sg137
Nsg25
g27
sg138
(lp472
I3
aI4
asg140
Nsg141
VTosefta Demai 3:4
p473
sg143
(lp474
sg145
g99
sg146
Nsg147
(lp475
I3
aI4
asg149
Nsg150
g473
sg151
(lp476
sg153
g60
sg154
Nsg155
Nsg156
Nsbag3
(g4
g5
NtRp477
(dp478
g8
g10
sg134
Nsg135
(dp479
sg137
Nsg25
g27
sg138
(lp480
I3
aI5
asg140
Nsg141
VTosefta Demai 3:5
p481
sg143
(lp482
sg145
g99
sg146
Nsg147
(lp483
I3
aI5
asg149
Nsg150
g481
sg151
(lp484
sg153
g60
sg154
Nsg155
Nsg156
Nsbag3
(g4
g5
NtRp485
(dp486
g8
g10
sg134
Nsg135
(dp487
sg137
Nsg25
g27
sg138
(lp488
I3
aI6
asg140
Nsg141
VTosefta Demai 3:6
p489
sg143
(lp490
sg145
g99
sg146
Nsg147
(lp491
I3
aI6
asg149
Nsg150
g489
sg151
(lp492
sg153
g60
sg154
Nsg155
Nsg156
Nsbag3
(g4
g5
NtRp493
(dp494
g8
g10
sg134
Nsg135
(dp495
sg137
Nsg25
g27
sg138
(lp496
I3
aI7
asg140
Nsg141
VTosefta Demai 3:7
p497
sg143
(lp498
sg145
g99
sg146
Nsg147
(lp499
I3
aI7
asg149
Nsg150
g497
sg151
(lp500
sg153
g60
sg154
Nsg155
Nsg156
Nsbag3
(g4
g5
NtRp501
(dp502
g8
g10
sg134
Nsg135
(dp503
sg137
Nsg25
g27
sg138
(lp504
I3
aI8
asg140
Nsg141
VTosefta Demai 3:8
p505
sg143
(lp506
sg145
g99
sg146
Nsg147
(lp507
I3
aI8
asg149
Nsg150
g505
sg151
(lp508
sg153
g60
sg154
Nsg155
Nsg156
Nsbag3
(g4
g5
NtRp509
(dp510
g8
g10
sg134
Nsg135
(dp511
sg137
Nsg25
g27
sg138
(lp512
I3
aI9
asg140
Nsg141
VTosefta Demai 3:9
p513
sg143
(lp514
sg145
g99
sg146
Nsg147
(lp515
I3
aI9
asg149
Nsg150
g513
sg151
(lp516
sg153
g60
sg154
Nsg155
Nsg156
Nsbag3
(g4
g5
NtRp517
(dp518
g8
g10
sg134
Nsg135
(dp519
sg137
Nsg25
g27
sg138
(lp520
I3
aI10
asg140
Nsg141
VTosefta Demai 3:10
p521
sg143
(lp522
sg145
g99
sg146
Nsg147
(lp523
I3
aI10
asg149
Nsg150
g521
sg151
(lp524
sg153
g60
sg154
Nsg155
Nsg156
Nsbag3
(g4
g5
NtRp525
(dp526
g8
g10
sg134
Nsg135
(dp527
sg137
Nsg25
g27
sg138
(lp528
I3
aI11
asg140
Nsg141
VTosefta Demai 3:11
p529
sg143
(lp530
sg145
g99
sg146
Nsg147
(lp531
I3
aI11
asg149
Nsg150
g529
sg151
(lp532
sg153
g60
sg154
Nsg155
Nsg156
Nsbag3
(g4
g5
NtRp533
(dp534
g8
g10
sg134
Nsg135
(dp535
sg137
Nsg25
g27
sg138
(lp536
I3
aI12
asg140
Nsg141
VTosefta Demai 3:12
p537
sg143
(lp538
sg145
g99
sg146
Nsg147
(lp539
I3
aI12
asg149
Nsg150
g537
sg151
(lp540
sg153
g60
sg154
Nsg155
Nsg156
Nsbag3
(g4
g5
NtRp541
(dp542
g8
g10
sg134
Nsg135
(dp543
sg137
Nsg25
g27
sg138
(lp544
I3
aI13
asg140
Nsg141
VTosefta Demai 3:13
p545
sg143
(lp546
sg145
g99
sg146
Nsg147
(lp547
I3
aI13
asg149
Nsg150
g545
sg151
(lp548
sg153
g60
sg154
Nsg155
Nsg156
Nsbag3
(g4
g5
NtRp549
(dp550
g8
g10
sg134
Nsg135
(dp551
sg137
Nsg25
g27
sg138
(lp552
I3
aI14
asg140
Nsg141
VTosefta Demai 3:14
p553
sg143
(lp554
sg145
g99
sg146
Nsg147
(lp555
I3
aI14
asg149
Nsg150
g553
sg151
(lp556
sg153
g60
sg154
Nsg155
Nsg156
Nsbag3
(g4
g5
NtRp557
(dp558
g8
g10
sg134
Nsg135
(dp559
sg137
Nsg25
g27
sg138
(lp560
I3
aI15
asg140
Nsg141
VTosefta Demai 3:15
p561
sg143
(lp562
sg145
g99
sg146
Nsg147
(lp563
I3
aI15
asg149
Nsg150
g561
sg151
(lp564
sg153
g60
sg154
Nsg155
Nsg156
Nsbag3
(g4
g5
NtRp565
(dp566
g8
g10
sg134
Nsg135
(dp567
sg137
Nsg25
g27
sg138
(lp568
I3
aI16
asg140
Nsg141
VTosefta Demai 3:16
p569
sg143
(lp570
sg145
g99
sg146
Nsg147
(lp571
I3
aI16
asg149
Nsg150
g569
sg151
(lp572
sg153
g60
sg154
Nsg155
Nsg156
Nsbag3
(g4
g5
NtRp573
(dp574
g8
g10
sg134
Nsg135
(dp575
sg137
Nsg25
g27
sg138
(lp576
I3
aI17
asg140
Nsg141
VTosefta Demai 3:17
p577
sg143
(lp578
sg145
g99
sg146
Nsg147
(lp579
I3
aI17
asg149
Nsg150
g577
sg151
(lp580
sg153
g60
sg154
Nsg155
Nsg156
Nsbag3
(g4
g5
NtRp581
(dp582
g8
g10
sg134
Nsg135
(dp583
sg137
Nsg25
g27
sg138
(lp584
I3
aI18
asg140
Nsg141
VTosefta Demai 3:18
p585
sg143
(lp586
sg145
g99
sg146
Nsg147
(lp587
I3
aI18
asg149
Nsg150
g585
sg151
(lp588
sg153
g60
sg154
Nsg155
Nsg156
Nsbag3
(g4
g5
NtRp589
(dp590
g8
g10
sg134
Nsg135
(dp591
sg137
Nsg25
g27
sg138
(lp592
I3
aI19
asg140
Nsg141
VTosefta Demai 3:19
p593
sg143
(lp594
sg145
g99
sg146
Nsg147
(lp595
I3
aI19
asg149
Nsg150
g593
sg151
(lp596
sg153
g60
sg154
Nsg155
Nsg156
Nsbag3
(g4
g5
NtRp597
(dp598
g8
g10
sg134
Nsg135
(dp599
sg137
Nsg25
g27
sg138
(lp600
I3
aI20
asg140
Nsg141
VTosefta Demai 3:20
p601
sg143
(lp602
sg145
g99
sg146
Nsg147
(lp603
I3
aI20
asg149
Nsg150
g601
sg151
(lp604
sg153
g60
sg154
Nsg155
Nsg156
Nsbag3
(g4
g5
NtRp605
(dp606
g8
g10
sg134
Nsg135
(dp607
sg137
Nsg25
g27
sg138
(lp608
I3
aI21
asg140
Nsg141
VTosefta Demai 3:21
p609
sg143
(lp610
sg145
g99
sg146
Nsg147
(lp611
I3
aI21
asg149
Nsg150
g609
sg151
(lp612
sg153
g60
sg154
Nsg155
Nsg156
Nsbag3
(g4
g5
NtRp613
(dp614
g8
g10
sg134
Nsg135
(dp615
sg137
Nsg25
g27
sg138
(lp616
I4
aI1
asg140
Nsg141
VTosefta Demai 4:1
p617
sg143
(lp618
sg145
g99
sg146
Nsg147
(lp619
I4
aI1
asg149
Nsg150
g617
sg151
(lp620
sg153
g60
sg154
Nsg155
Nsg156
Nsbag3
(g4
g5
NtRp621
(dp622
g8
g10
sg134
Nsg135
(dp623
sg137
Nsg25
g27
sg138
(lp624
I4
aI2
asg140
Nsg141
VTosefta Demai 4:2
p625
sg143
(lp626
sg145
g99
sg146
Nsg147
(lp627
I4
aI2
asg149
Nsg150
g625
sg151
(lp628
sg153
g60
sg154
Nsg155
Nsg156
Nsbag3
(g4
g5
NtRp629
(dp630
g8
g10
sg134
Nsg135
(dp631
sg137
Nsg25
g27
sg138
(lp632
I4
aI3
asg140
Nsg141
VTosefta Demai 4:3
p633
sg143
(lp634
sg145
g99
sg146
Nsg147
(lp635
I4
aI3
asg149
Nsg150
g633
sg151
(lp636
sg153
g60
sg154
Nsg155
Nsg156
Nsbag3
(g4
g5
NtRp637
(dp638
g8
g10
sg134
Nsg135
(dp639
sg137
Nsg25
g27
sg138
(lp640
I4
aI4
asg140
Nsg141
VTosefta Demai 4:4
p641
sg143
(lp642
sg145
g99
sg146
Nsg147
(lp643
I4
aI4
asg149
Nsg150
g641
sg151
(lp644
sg153
g60
sg154
Nsg155
Nsg156
Nsbag3
(g4
g5
NtRp645
(dp646
g8
g10
sg134
Nsg135
(dp647
sg137
Nsg25
g27
sg138
(lp648
I4
aI5
asg140
Nsg141
VTosefta Demai 4:5
p649
sg143
(lp650
sg145
g99
sg146
Nsg147
(lp651
I4
aI5
asg149
Nsg150
g649
sg151
(lp652
sg153
g60
sg154
Nsg155
Nsg156
Nsbag3
(g4
g5
NtRp653
(dp654
g8
g10
sg134
Nsg135
(dp655
sg137
Nsg25
g27
sg138
(lp656
I4
aI6
asg140
Nsg141
VTosefta Demai 4:6
p657
sg143
(lp658
sg145
g99
sg146
Nsg147
(lp659
I4
aI6
asg149
Nsg150
g657
sg151
(lp660
sg153
g60
sg154
Nsg155
Nsg156
Nsbag3
(g4
g5
NtRp661
(dp662
g8
g10
sg134
Nsg135
(dp663
sg137
Nsg25
g27
sg138
(lp664
I4
aI7
asg140
Nsg141
VTosefta Demai 4:7
p665
sg143
(lp666
sg145
g99
sg146
Nsg147
(lp667
I4
aI7
asg149
Nsg150
g665
sg151
(lp668
sg153
g60
sg154
Nsg155
Nsg156
Nsbag3
(g4
g5
NtRp669
(dp670
g8
g10
sg134
Nsg135
(dp671
sg137
Nsg25
g27
sg138
(lp672
I4
aI8
asg140
Nsg141
VTosefta Demai 4:8
p673
sg143
(lp674
sg145
g99
sg146
Nsg147
(lp675
I4
aI8
asg149
Nsg150
g673
sg151
(lp676
sg153
g60
sg154
Nsg155
Nsg156
Nsbag3
(g4
g5
NtRp677
(dp678
g8
g10
sg134
Nsg135
(dp679
sg137
Nsg25
g27
sg138
(lp680
I4
aI9
asg140
Nsg141
VTosefta Demai 4:9
p681
sg143
(lp682
sg145
g99
sg146
Nsg147
(lp683
I4
aI9
asg149
Nsg150
g681
sg151
(lp684
sg153
g60
sg154
Nsg155
Nsg156
Nsbag3
(g4
g5
NtRp685
(dp686
g8
g10
sg134
Nsg135
(dp687
sg137
Nsg25
g27
sg138
(lp688
I4
aI10
asg140
Nsg141
VTosefta Demai 4:10
p689
sg143
(lp690
sg145
g99
sg146
Nsg147
(lp691
I4
aI10
asg149
Nsg150
g689
sg151
(lp692
sg153
g60
sg154
Nsg155
Nsg156
Nsbag3
(g4
g5
NtRp693
(dp694
g8
g10
sg134
Nsg135
(dp695
sg137
Nsg25
g27
sg138
(lp696
I4
aI11
asg140
Nsg141
VTosefta Demai 4:11
p697
sg143
(lp698
sg145
g99
sg146
Nsg147
(lp699
I4
aI11
asg149
Nsg150
g697
sg151
(lp700
sg153
g60
sg154
Nsg155
Nsg156
Nsbag3
(g4
g5
NtRp701
(dp702
g8
g10
sg134
Nsg135
(dp703
sg137
Nsg25
g27
sg138
(lp704
I4
aI12
asg140
Nsg141
VTosefta Demai 4:12
p705
sg143
(lp706
sg145
g99
sg146
Nsg147
(lp707
I4
aI12
asg149
Nsg150
g705
sg151
(lp708
sg153
g60
sg154
Nsg155
Nsg156
Nsbag3
(g4
g5
NtRp709
(dp710
g8
g10
sg134
Nsg135
(dp711
sg137
Nsg25
g27
sg138
(lp712
I4
aI13
asg140
Nsg141
VTosefta Demai 4:13
p713
sg143
(lp714
sg145
g99
sg146
Nsg147
(lp715
I4
aI13
asg149
Nsg150
g713
sg151
(lp716
sg153
g60
sg154
Nsg155
Nsg156
Nsbag3
(g4
g5
NtRp717
(dp718
g8
g10
sg134
Nsg135
(dp719
sg137
Nsg25
g27
sg138
(lp720
I4
aI14
asg140
Nsg141
VTosefta Demai 4:14
p721
sg143
(lp722
sg145
g99
sg146
Nsg147
(lp723
I4
aI14
asg149
Nsg150
g721
sg151
(lp724
sg153
g60
sg154
Nsg155
Nsg156
Nsbag3
(g4
g5
NtRp725
(dp726
g8
g10
sg134
Nsg135
(dp727
sg137
Nsg25
g27
sg138
(lp728
I4
aI15
asg140
Nsg141
VTosefta Demai 4:15
p729
sg143
(lp730
sg145
g99
sg146
Nsg147
(lp731
I4
aI15
asg149
Nsg150
g729
sg151
(lp732
sg153
g60
sg154
Nsg155
Nsg156
Nsbag3
(g4
g5
NtRp733
(dp734
g8
g10
sg134
Nsg135
(dp735
sg137
Nsg25
g27
sg138
(lp736
I4
aI16
asg140
Nsg141
VTosefta Demai 4:16
p737
sg143
(lp738
sg145
g99
sg146
Nsg147
(lp739
I4
aI16
asg149
Nsg150
g737
sg151
(lp740
sg153
g60
sg154
Nsg155
Nsg156
Nsbag3
(g4
g5
NtRp741
(dp742
g8
g10
sg134
Nsg135
(dp743
sg137
Nsg25
g27
sg138
(lp744
I4
aI17
asg140
Nsg141
VTosefta Demai 4:17
p745
sg143
(lp746
sg145
g99
sg146
Nsg147
(lp747
I4
aI17
asg149
Nsg150
g745
sg151
(lp748
sg153
g60
sg154
Nsg155
Nsg156
Nsbag3
(g4
g5
NtRp749
(dp750
g8
g10
sg134
Nsg135
(dp751
sg137
Nsg25
g27
sg138
(lp752
I4
aI18
asg140
Nsg141
VTosefta Demai 4:18
p753
sg143
(lp754
sg145
g99
sg146
Nsg147
(lp755
I4
aI18
asg149
Nsg150
g753
sg151
(lp756
sg153
g60
sg154
Nsg155
Nsg156
Nsbag3
(g4
g5
NtRp757
(dp758
g8
g10
sg134
Nsg135
(dp759
sg137
Nsg25
g27
sg138
(lp760
I4
aI19
asg140
Nsg141
VTosefta Demai 4:19
p761
sg143
(lp762
sg145
g99
sg146
Nsg147
(lp763
I4
aI19
asg149
Nsg150
g761
sg151
(lp764
sg153
g60
sg154
Nsg155
Nsg156
Nsbag3
(g4
g5
NtRp765
(dp766
g8
g10
sg134
Nsg135
(dp767
sg137
Nsg25
g27
sg138
(lp768
I4
aI20
asg140
Nsg141
VTosefta Demai 4:20
p769
sg143
(lp770
sg145
g99
sg146
Nsg147
(lp771
I4
aI20
asg149
Nsg150
g769
sg151
(lp772
sg153
g60
sg154
Nsg155
Nsg156
Nsbag3
(g4
g5
NtRp773
(dp774
g8
g10
sg134
Nsg135
(dp775
sg137
Nsg25
g27
sg138
(lp776
I4
aI21
asg140
Nsg141
VTosefta Demai 4:21
p777
sg143
(lp778
sg145
g99
sg146
Nsg147
(lp779
I4
aI21
asg149
Nsg150
g777
sg151
(lp780
sg153
g60
sg154
Nsg155
Nsg156
Nsbag3
(g4
g5
NtRp781
(dp782
g8
g10
sg134
Nsg135
(dp783
sg137
Nsg25
g27
sg138
(lp784
I4
aI22
asg140
Nsg141
VTosefta Demai 4:22
p785
sg143
(lp786
sg145
g99
sg146
Nsg147
(lp787
I4
aI22
asg149
Nsg150
g785
sg151
(lp788
sg153
g60
sg154
Nsg155
Nsg156
Nsbag3
(g4
g5
NtRp789
(dp790
g8
g10
sg134
Nsg135
(dp791
sg137
Nsg25
g27
sg138
(lp792
I4
aI23
asg140
Nsg141
VTosefta Demai 4:23
p793
sg143
(lp794
sg145
g99
sg146
Nsg147
(lp795
I4
aI23
asg149
Nsg150
g793
sg151
(lp796
sg153
g60
sg154
Nsg155
Nsg156
Nsbag3
(g4
g5
NtRp797
(dp798
g8
g10
sg134
Nsg135
(dp799
sg137
Nsg25
g27
sg138
(lp800
I5
aI1
asg140
Nsg141
VTosefta Demai 5:1
p801
sg143
(lp802
sg145
g99
sg146
Nsg147
(lp803
I5
aI1
asg149
Nsg150
g801
sg151
(lp804
sg153
g60
sg154
Nsg155
Nsg156
Nsbag3
(g4
g5
NtRp805
(dp806
g8
g10
sg134
Nsg135
(dp807
sg137
Nsg25
g27
sg138
(lp808
I5
aI2
asg140
Nsg141
VTosefta Demai 5:2
p809
sg143
(lp810
sg145
g99
sg146
Nsg147
(lp811
I5
aI2
asg149
Nsg150
g809
sg151
(lp812
sg153
g60
sg154
Nsg155
Nsg156
Nsbag3
(g4
g5
NtRp813
(dp814
g8
g10
sg134
Nsg135
(dp815
sg137
Nsg25
g27
sg138
(lp816
I5
aI3
asg140
Nsg141
VTosefta Demai 5:3
p817
sg143
(lp818
sg145
g99
sg146
Nsg147
(lp819
I5
aI3
asg149
Nsg150
g817
sg151
(lp820
sg153
g60
sg154
Nsg155
Nsg156
Nsbag3
(g4
g5
NtRp821
(dp822
g8
g10
sg134
Nsg135
(dp823
sg137
Nsg25
g27
sg138
(lp824
I5
aI4
asg140
Nsg141
VTosefta Demai 5:4
p825
sg143
(lp826
sg145
g99
sg146
Nsg147
(lp827
I5
aI4
asg149
Nsg150
g825
sg151
(lp828
sg153
g60
sg154
Nsg155
Nsg156
Nsbag3
(g4
g5
NtRp829
(dp830
g8
g10
sg134
Nsg135
(dp831
sg137
Nsg25
g27
sg138
(lp832
I5
aI5
asg140
Nsg141
VTosefta Demai 5:5
p833
sg143
(lp834
sg145
g99
sg146
Nsg147
(lp835
I5
aI5
asg149
Nsg150
g833
sg151
(lp836
sg153
g60
sg154
Nsg155
Nsg156
Nsbag3
(g4
g5
NtRp837
(dp838
g8
g10
sg134
Nsg135
(dp839
sg137
Nsg25
g27
sg138
(lp840
I5
aI6
asg140
Nsg141
VTosefta Demai 5:6
p841
sg143
(lp842
sg145
g99
sg146
Nsg147
(lp843
I5
aI6
asg149
Nsg150
g841
sg151
(lp844
sg153
g60
sg154
Nsg155
Nsg156
Nsbag3
(g4
g5
NtRp845
(dp846
g8
g10
sg134
Nsg135
(dp847
sg137
Nsg25
g27
sg138
(lp848
I5
aI7
asg140
Nsg141
VTosefta Demai 5:7
p849
sg143
(lp850
sg145
g99
sg146
Nsg147
(lp851
I5
aI7
asg149
Nsg150
g849
sg151
(lp852
sg153
g60
sg154
Nsg155
Nsg156
Nsbag3
(g4
g5
NtRp853
(dp854
g8
g10
sg134
Nsg135
(dp855
sg137
Nsg25
g27
sg138
(lp856
I5
aI8
asg140
Nsg141
VTosefta Demai 5:8
p857
sg143
(lp858
sg145
g99
sg146
Nsg147
(lp859
I5
aI8
asg149
Nsg150
g857
sg151
(lp860
sg153
g60
sg154
Nsg155
Nsg156
Nsbag3
(g4
g5
NtRp861
(dp862
g8
g10
sg134
Nsg135
(dp863
sg137
Nsg25
g27
sg138
(lp864
I5
aI9
asg140
Nsg141
VTosefta Demai 5:9
p865
sg143
(lp866
sg145
g99
sg146
Nsg147
(lp867
I5
aI9
asg149
Nsg150
g865
sg151
(lp868
sg153
g60
sg154
Nsg155
Nsg156
Nsbag3
(g4
g5
NtRp869
(dp870
g8
g10
sg134
Nsg135
(dp871
sg137
Nsg25
g27
sg138
(lp872
I5
aI10
asg140
Nsg141
VTosefta Demai 5:10
p873
sg143
(lp874
sg145
g99
sg146
Nsg147
(lp875
I5
aI10
asg149
Nsg150
g873
sg151
(lp876
sg153
g60
sg154
Nsg155
Nsg156
Nsbag3
(g4
g5
NtRp877
(dp878
g8
g10
sg134
Nsg135
(dp879
sg137
Nsg25
g27
sg138
(lp880
I5
aI11
asg140
Nsg141
VTosefta Demai 5:11
p881
sg143
(lp882
sg145
g99
sg146
Nsg147
(lp883
I5
aI11
asg149
Nsg150
g881
sg151
(lp884
sg153
g60
sg154
Nsg155
Nsg156
Nsbag3
(g4
g5
NtRp885
(dp886
g8
g10
sg134
Nsg135
(dp887
sg137
Nsg25
g27
sg138
(lp888
I5
aI12
asg140
Nsg141
VTosefta Demai 5:12
p889
sg143
(lp890
sg145
g99
sg146
Nsg147
(lp891
I5
aI12
asg149
Nsg150
g889
sg151
(lp892
sg153
g60
sg154
Nsg155
Nsg156
Nsbag3
(g4
g5
NtRp893
(dp894
g8
g10
sg134
Nsg135
(dp895
sg137
Nsg25
g27
sg138
(lp896
I5
aI13
asg140
Nsg141
VTosefta Demai 5:13
p897
sg143
(lp898
sg145
g99
sg146
Nsg147
(lp899
I5
aI13
asg149
Nsg150
g897
sg151
(lp900
sg153
g60
sg154
Nsg155
Nsg156
Nsbag3
(g4
g5
NtRp901
(dp902
g8
g10
sg134
Nsg135
(dp903
sg137
Nsg25
g27
sg138
(lp904
I5
aI14
asg140
Nsg141
VTosefta Demai 5:14
p905
sg143
(lp906
sg145
g99
sg146
Nsg147
(lp907
I5
aI14
asg149
Nsg150
g905
sg151
(lp908
sg153
g60
sg154
Nsg155
Nsg156
Nsbag3
(g4
g5
NtRp909
(dp910
g8
g10
sg134
Nsg135
(dp911
sg137
Nsg25
g27
sg138
(lp912
I5
aI15
asg140
Nsg141
VTosefta Demai 5:15
p913
sg143
(lp914
sg145
g99
sg146
Nsg147
(lp915
I5
aI15
asg149
Nsg150
g913
sg151
(lp916
sg153
g60
sg154
Nsg155
Nsg156
Nsbag3
(g4
g5
NtRp917
(dp918
g8
g10
sg134
Nsg135
(dp919
sg137
Nsg25
g27
sg138
(lp920
I5
aI16
asg140
Nsg141
VTosefta Demai 5:16
p921
sg143
(lp922
sg145
g99
sg146
Nsg147
(lp923
I5
aI16
asg149
Nsg150
g921
sg151
(lp924
sg153
g60
sg154
Nsg155
Nsg156
Nsbag3
(g4
g5
NtRp925
(dp926
g8
g10
sg134
Nsg135
(dp927
sg137
Nsg25
g27
sg138
(lp928
I5
aI17
asg140
Nsg141
VTosefta Demai 5:17
p929
sg143
(lp930
sg145
g99
sg146
Nsg147
(lp931
I5
aI17
asg149
Nsg150
g929
sg151
(lp932
sg153
g60
sg154
Nsg155
Nsg156
Nsbag3
(g4
g5
NtRp933
(dp934
g8
g10
sg134
Nsg135
(dp935
sg137
Nsg25
g27
sg138
(lp936
I5
aI18
asg140
Nsg141
VTosefta Demai 5:18
p937
sg143
(lp938
sg145
g99
sg146
Nsg147
(lp939
I5
aI18
asg149
Nsg150
g937
sg151
(lp940
sg153
g60
sg154
Nsg155
Nsg156
Nsbag3
(g4
g5
NtRp941
(dp942
g8
g10
sg134
Nsg135
(dp943
sg137
Nsg25
g27
sg138
(lp944
I5
aI19
asg140
Nsg141
VTosefta Demai 5:19
p945
sg143
(lp946
sg145
g99
sg146
Nsg147
(lp947
I5
aI19
asg149
Nsg150
g945
sg151
(lp948
sg153
g60
sg154
Nsg155
Nsg156
Nsbag3
(g4
g5
NtRp949
(dp950
g8
g10
sg134
Nsg135
(dp951
sg137
Nsg25
g27
sg138
(lp952
I5
aI20
asg140
Nsg141
VTosefta Demai 5:20
p953
sg143
(lp954
sg145
g99
sg146
Nsg147
(lp955
I5
aI20
asg149
Nsg150
g953
sg151
(lp956
sg153
g60
sg154
Nsg155
Nsg156
Nsbag3
(g4
g5
NtRp957
(dp958
g8
g10
sg134
Nsg135
(dp959
sg137
Nsg25
g27
sg138
(lp960
I5
aI21
asg140
Nsg141
VTosefta Demai 5:21
p961
sg143
(lp962
sg145
g99
sg146
Nsg147
(lp963
I5
aI21
asg149
Nsg150
g961
sg151
(lp964
sg153
g60
sg154
Nsg155
Nsg156
Nsbag3
(g4
g5
NtRp965
(dp966
g8
g10
sg134
Nsg135
(dp967
sg137
Nsg25
g27
sg138
(lp968
I5
aI22
asg140
Nsg141
VTosefta Demai 5:22
p969
sg143
(lp970
sg145
g99
sg146
Nsg147
(lp971
I5
aI22
asg149
Nsg150
g969
sg151
(lp972
sg153
g60
sg154
Nsg155
Nsg156
Nsbag3
(g4
g5
NtRp973
(dp974
g8
g10
sg134
Nsg135
(dp975
sg137
Nsg25
g27
sg138
(lp976
I5
aI23
asg140
Nsg141
VTosefta Demai 5:23
p977
sg143
(lp978
sg145
g99
sg146
Nsg147
(lp979
I5
aI23
asg149
Nsg150
g977
sg151
(lp980
sg153
g60
sg154
Nsg155
Nsg156
Nsbag3
(g4
g5
NtRp981
(dp982
g8
g10
sg134
Nsg135
(dp983
sg137
Nsg25
g27
sg138
(lp984
I5
aI24
asg140
Nsg141
VTosefta Demai 5:24
p985
sg143
(lp986
sg145
g99
sg146
Nsg147
(lp987
I5
aI24
asg149
Nsg150
g985
sg151
(lp988
sg153
g60
sg154
Nsg155
Nsg156
Nsbag3
(g4
g5
NtRp989
(dp990
g8
g10
sg134
Nsg135
(dp991
sg137
Nsg25
g27
sg138
(lp992
I5
aI25
asg140
Nsg141
VTosefta Demai 5:25
p993
sg143
(lp994
sg145
g99
sg146
Nsg147
(lp995
I5
aI25
asg149
Nsg150
g993
sg151
(lp996
sg153
g60
sg154
Nsg155
Nsg156
Nsbag3
(g4
g5
NtRp997
(dp998
g8
g10
sg134
Nsg135
(dp999
sg137
Nsg25
g27
sg138
(lp1000
I5
aI26
asg140
Nsg141
VTosefta Demai 5:26
p1001
sg143
(lp1002
sg145
g99
sg146
Nsg147
(lp1003
I5
aI26
asg149
Nsg150
g1001
sg151
(lp1004
sg153
g60
sg154
Nsg155
Nsg156
Nsbag3
(g4
g5
NtRp1005
(dp1006
g8
g10
sg134
Nsg135
(dp1007
sg137
Nsg25
g27
sg138
(lp1008
I5
aI27
asg140
Nsg141
VTosefta Demai 5:27
p1009
sg143
(lp1010
sg145
g99
sg146
Nsg147
(lp1011
I5
aI27
asg149
Nsg150
g1009
sg151
(lp1012
sg153
g60
sg154
Nsg155
Nsg156
Nsbag3
(g4
g5
NtRp1013
(dp1014
g8
g10
sg134
Nsg135
(dp1015
sg137
Nsg25
g27
sg138
(lp1016
I6
aI1
asg140
Nsg141
VTosefta Demai 6:1
p1017
sg143
(lp1018
sg145
g99
sg146
Nsg147
(lp1019
I6
aI1
asg149
Nsg150
g1017
sg151
(lp1020
sg153
g60
sg154
Nsg155
Nsg156
Nsbag3
(g4
g5
NtRp1021
(dp1022
g8
g10
sg134
Nsg135
(dp1023
sg137
Nsg25
g27
sg138
(lp1024
I6
aI2
asg140
Nsg141
VTosefta Demai 6:2
p1025
sg143
(lp1026
sg145
g99
sg146
Nsg147
(lp1027
I6
aI2
asg149
Nsg150
g1025
sg151
(lp1028
sg153
g60
sg154
Nsg155
Nsg156
Nsbag3
(g4
g5
NtRp1029
(dp1030
g8
g10
sg134
Nsg135
(dp1031
sg137
Nsg25
g27
sg138
(lp1032
I6
aI3
asg140
Nsg141
VTosefta Demai 6:3
p1033
sg143
(lp1034
sg145
g99
sg146
Nsg147
(lp1035
I6
aI3
asg149
Nsg150
g1033
sg151
(lp1036
sg153
g60
sg154
Nsg155
Nsg156
Nsbag3
(g4
g5
NtRp1037
(dp1038
g8
g10
sg134
Nsg135
(dp1039
sg137
Nsg25
g27
sg138
(lp1040
I6
aI4
asg140
Nsg141
VTosefta Demai 6:4
p1041
sg143
(lp1042
sg145
g99
sg146
Nsg147
(lp1043
I6
aI4
asg149
Nsg150
g1041
sg151
(lp1044
sg153
g60
sg154
Nsg155
Nsg156
Nsbag3
(g4
g5
NtRp1045
(dp1046
g8
g10
sg134
Nsg135
(dp1047
sg137
Nsg25
g27
sg138
(lp1048
I6
aI5
asg140
Nsg141
VTosefta Demai 6:5
p1049
sg143
(lp1050
sg145
g99
sg146
Nsg147
(lp1051
I6
aI5
asg149
Nsg150
g1049
sg151
(lp1052
sg153
g60
sg154
Nsg155
Nsg156
Nsbag3
(g4
g5
NtRp1053
(dp1054
g8
g10
sg134
Nsg135
(dp1055
sg137
Nsg25
g27
sg138
(lp1056
I6
aI6
asg140
Nsg141
VTosefta Demai 6:6
p1057
sg143
(lp1058
sg145
g99
sg146
Nsg147
(lp1059
I6
aI6
asg149
Nsg150
g1057
sg151
(lp1060
sg153
g60
sg154
Nsg155
Nsg156
Nsbag3
(g4
g5
NtRp1061
(dp1062
g8
g10
sg134
Nsg135
(dp1063
sg137
Nsg25
g27
sg138
(lp1064
I6
aI7
asg140
Nsg141
VTosefta Demai 6:7
p1065
sg143
(lp1066
sg145
g99
sg146
Nsg147
(lp1067
I6
aI7
asg149
Nsg150
g1065
sg151
(lp1068
sg153
g60
sg154
Nsg155
Nsg156
Nsbag3
(g4
g5
NtRp1069
(dp1070
g8
g10
sg134
Nsg135
(dp1071
sg137
Nsg25
g27
sg138
(lp1072
I6
aI8
asg140
Nsg141
VTosefta Demai 6:8
p1073
sg143
(lp1074
sg145
g99
sg146
Nsg147
(lp1075
I6
aI8
asg149
Nsg150
g1073
sg151
(lp1076
sg153
g60
sg154
Nsg155
Nsg156
Nsbag3
(g4
g5
NtRp1077
(dp1078
g8
g10
sg134
Nsg135
(dp1079
sg137
Nsg25
g27
sg138
(lp1080
I6
aI9
asg140
Nsg141
VTosefta Demai 6:9
p1081
sg143
(lp1082
sg145
g99
sg146
Nsg147
(lp1083
I6
aI9
asg149
Nsg150
g1081
sg151
(lp1084
sg153
g60
sg154
Nsg155
Nsg156
Nsbag3
(g4
g5
NtRp1085
(dp1086
g8
g10
sg134
Nsg135
(dp1087
sg137
Nsg25
g27
sg138
(lp1088
I6
aI10
asg140
Nsg141
VTosefta Demai 6:10
p1089
sg143
(lp1090
sg145
g99
sg146
Nsg147
(lp1091
I6
aI10
asg149
Nsg150
g1089
sg151
(lp1092
sg153
g60
sg154
Nsg155
Nsg156
Nsbag3
(g4
g5
NtRp1093
(dp1094
g8
g10
sg134
Nsg135
(dp1095
sg137
Nsg25
g27
sg138
(lp1096
I6
aI11
asg140
Nsg141
VTosefta Demai 6:11
p1097
sg143
(lp1098
sg145
g99
sg146
Nsg147
(lp1099
I6
aI11
asg149
Nsg150
g1097
sg151
(lp1100
sg153
g60
sg154
Nsg155
Nsg156
Nsbag3
(g4
g5
NtRp1101
(dp1102
g8
g10
sg134
Nsg135
(dp1103
sg137
Nsg25
g27
sg138
(lp1104
I6
aI12
asg140
Nsg141
VTosefta Demai 6:12
p1105
sg143
(lp1106
sg145
g99
sg146
Nsg147
(lp1107
I6
aI12
asg149
Nsg150
g1105
sg151
(lp1108
sg153
g60
sg154
Nsg155
Nsg156
Nsbag3
(g4
g5
NtRp1109
(dp1110
g8
g10
sg134
Nsg135
(dp1111
sg137
Nsg25
g27
sg138
(lp1112
I6
aI13
asg140
Nsg141
VTosefta Demai 6:13
p1113
sg143
(lp1114
sg145
g99
sg146
Nsg147
(lp1115
I6
aI13
asg149
Nsg150
g1113
sg151
(lp1116
sg153
g60
sg154
Nsg155
Nsg156
Nsbag3
(g4
g5
NtRp1117
(dp1118
g8
g10
sg134
Nsg135
(dp1119
sg137
Nsg25
g27
sg138
(lp1120
I6
aI14
asg140
Nsg141
VTosefta Demai 6:14
p1121
sg143
(lp1122
sg145
g99
sg146
Nsg147
(lp1123
I6
aI14
asg149
Nsg150
g1121
sg151
(lp1124
sg153
g60
sg154
Nsg155
Nsg156
Nsbag3
(g4
g5
NtRp1125
(dp1126
g8
g10
sg134
Nsg135
(dp1127
sg137
Nsg25
g27
sg138
(lp1128
I7
aI1
asg140
Nsg141
VTosefta Demai 7:1
p1129
sg143
(lp1130
sg145
g99
sg146
Nsg147
(lp1131
I7
aI1
asg149
Nsg150
g1129
sg151
(lp1132
sg153
g60
sg154
Nsg155
Nsg156
Nsbag3
(g4
g5
NtRp1133
(dp1134
g8
g10
sg134
Nsg135
(dp1135
sg137
Nsg25
g27
sg138
(lp1136
I7
aI2
asg140
Nsg141
VTosefta Demai 7:2
p1137
sg143
(lp1138
sg145
g99
sg146
Nsg147
(lp1139
I7
aI2
asg149
Nsg150
g1137
sg151
(lp1140
sg153
g60
sg154
Nsg155
Nsg156
Nsbag3
(g4
g5
NtRp1141
(dp1142
g8
g10
sg134
Nsg135
(dp1143
sg137
Nsg25
g27
sg138
(lp1144
I7
aI3
asg140
Nsg141
VTosefta Demai 7:3
p1145
sg143
(lp1146
sg145
g99
sg146
Nsg147
(lp1147
I7
aI3
asg149
Nsg150
g1145
sg151
(lp1148
sg153
g60
sg154
Nsg155
Nsg156
Nsbag3
(g4
g5
NtRp1149
(dp1150
g8
g10
sg134
Nsg135
(dp1151
sg137
Nsg25
g27
sg138
(lp1152
I7
aI4
asg140
Nsg141
VTosefta Demai 7:4
p1153
sg143
(lp1154
sg145
g99
sg146
Nsg147
(lp1155
I7
aI4
asg149
Nsg150
g1153
sg151
(lp1156
sg153
g60
sg154
Nsg155
Nsg156
Nsbag3
(g4
g5
NtRp1157
(dp1158
g8
g10
sg134
Nsg135
(dp1159
sg137
Nsg25
g27
sg138
(lp1160
I7
aI5
asg140
Nsg141
VTosefta Demai 7:5
p1161
sg143
(lp1162
sg145
g99
sg146
Nsg147
(lp1163
I7
aI5
asg149
Nsg150
g1161
sg151
(lp1164
sg153
g60
sg154
Nsg155
Nsg156
Nsbag3
(g4
g5
NtRp1165
(dp1166
g8
g10
sg134
Nsg135
(dp1167
sg137
Nsg25
g27
sg138
(lp1168
I7
aI6
asg140
Nsg141
VTosefta Demai 7:6
p1169
sg143
(lp1170
sg145
g99
sg146
Nsg147
(lp1171
I7
aI6
asg149
Nsg150
g1169
sg151
(lp1172
sg153
g60
sg154
Nsg155
Nsg156
Nsbag3
(g4
g5
NtRp1173
(dp1174
g8
g10
sg134
Nsg135
(dp1175
sg137
Nsg25
g27
sg138
(lp1176
I7
aI7
asg140
Nsg141
VTosefta Demai 7:7
p1177
sg143
(lp1178
sg145
g99
sg146
Nsg147
(lp1179
I7
aI7
asg149
Nsg150
g1177
sg151
(lp1180
sg153
g60
sg154
Nsg155
Nsg156
Nsbag3
(g4
g5
NtRp1181
(dp1182
g8
g10
sg134
Nsg135
(dp1183
sg137
Nsg25
g27
sg138
(lp1184
I7
aI8
asg140
Nsg141
VTosefta Demai 7:8
p1185
sg143
(lp1186
sg145
g99
sg146
Nsg147
(lp1187
I7
aI8
asg149
Nsg150
g1185
sg151
(lp1188
sg153
g60
sg154
Nsg155
Nsg156
Nsbag3
(g4
g5
NtRp1189
(dp1190
g8
g10
sg134
Nsg135
(dp1191
sg137
Nsg25
g27
sg138
(lp1192
I7
aI9
asg140
Nsg141
VTosefta Demai 7:9
p1193
sg143
(lp1194
sg145
g99
sg146
Nsg147
(lp1195
I7
aI9
asg149
Nsg150
g1193
sg151
(lp1196
sg153
g60
sg154
Nsg155
Nsg156
Nsbag3
(g4
g5
NtRp1197
(dp1198
g8
g10
sg134
Nsg135
(dp1199
sg137
Nsg25
g27
sg138
(lp1200
I7
aI10
asg140
Nsg141
VTosefta Demai 7:10
p1201
sg143
(lp1202
sg145
g99
sg146
Nsg147
(lp1203
I7
aI10
asg149
Nsg150
g1201
sg151
(lp1204
sg153
g60
sg154
Nsg155
Nsg156
Nsbag3
(g4
g5
NtRp1205
(dp1206
g8
g10
sg134
Nsg135
(dp1207
sg137
Nsg25
g27
sg138
(lp1208
I7
aI11
asg140
Nsg141
VTosefta Demai 7:11
p1209
sg143
(lp1210
sg145
g99
sg146
Nsg147
(lp1211
I7
aI11
asg149
Nsg150
g1209
sg151
(lp1212
sg153
g60
sg154
Nsg155
Nsg156
Nsbag3
(g4
g5
NtRp1213
(dp1214
g8
g10
sg134
Nsg135
(dp1215
sg137
Nsg25
g27
sg138
(lp1216
I7
aI12
asg140
Nsg141
VTosefta Demai 7:12
p1217
sg143
(lp1218
sg145
g99
sg146
Nsg147
(lp1219
I7
aI12
asg149
Nsg150
g1217
sg151
(lp1220
sg153
g60
sg154
Nsg155
Nsg156
Nsbag3
(g4
g5
NtRp1221
(dp1222
g8
g10
sg134
Nsg135
(dp1223
sg137
Nsg25
g27
sg138
(lp1224
I7
aI13
asg140
Nsg141
VTosefta Demai 7:13
p1225
sg143
(lp1226
sg145
g99
sg146
Nsg147
(lp1227
I7
aI13
asg149
Nsg150
g1225
sg151
(lp1228
sg153
g60
sg154
Nsg155
Nsg156
Nsbag3
(g4
g5
NtRp1229
(dp1230
g8
g10
sg134
Nsg135
(dp1231
sg137
Nsg25
g27
sg138
(lp1232
I8
aI1
asg140
Nsg141
VTosefta Demai 8:1
p1233
sg143
(lp1234
sg145
g99
sg146
Nsg147
(lp1235
I8
aI1
asg149
Nsg150
g1233
sg151
(lp1236
sg153
g60
sg154
Nsg155
Nsg156
Nsbag3
(g4
g5
NtRp1237
(dp1238
g8
g10
sg134
Nsg135
(dp1239
sg137
Nsg25
g27
sg138
(lp1240
I8
aI2
asg140
Nsg141
VTosefta Demai 8:2
p1241
sg143
(lp1242
sg145
g99
sg146
Nsg147
(lp1243
I8
aI2
asg149
Nsg150
g1241
sg151
(lp1244
sg153
g60
sg154
Nsg155
Nsg156
Nsbag3
(g4
g5
NtRp1245
(dp1246
g8
g10
sg134
Nsg135
(dp1247
sg137
Nsg25
g27
sg138
(lp1248
I8
aI3
asg140
Nsg141
VTosefta Demai 8:3
p1249
sg143
(lp1250
sg145
g99
sg146
Nsg147
(lp1251
I8
aI3
asg149
Nsg150
g1249
sg151
(lp1252
sg153
g60
sg154
Nsg155
Nsg156
Nsbag3
(g4
g5
NtRp1253
(dp1254
g8
g10
sg134
Nsg135
(dp1255
sg137
Nsg25
g27
sg138
(lp1256
I8
aI4
asg140
Nsg141
VTosefta Demai 8:4
p1257
sg143
(lp1258
sg145
g99
sg146
Nsg147
(lp1259
I8
aI4
asg149
Nsg150
g1257
sg151
(lp1260
sg153
g60
sg154
Nsg155
Nsg156
Nsbag3
(g4
g5
NtRp1261
(dp1262
g8
g10
sg134
Nsg135
(dp1263
sg137
Nsg25
g27
sg138
(lp1264
I8
aI5
asg140
Nsg141
VTosefta Demai 8:5
p1265
sg143
(lp1266
sg145
g99
sg146
Nsg147
(lp1267
I8
aI5
asg149
Nsg150
g1265
sg151
(lp1268
sg153
g60
sg154
Nsg155
Nsg156
Nsbag3
(g4
g5
NtRp1269
(dp1270
g8
g10
sg134
Nsg135
(dp1271
sg137
Nsg25
g27
sg138
(lp1272
I8
aI6
asg140
Nsg141
VTosefta Demai 8:6
p1273
sg143
(lp1274
sg145
g99
sg146
Nsg147
(lp1275
I8
aI6
asg149
Nsg150
g1273
sg151
(lp1276
sg153
g60
sg154
Nsg155
Nsg156
Nsbag3
(g4
g5
NtRp1277
(dp1278
g8
g10
sg134
Nsg135
(dp1279
sg137
Nsg25
g27
sg138
(lp1280
I8
aI7
asg140
Nsg141
VTosefta Demai 8:7
p1281
sg143
(lp1282
sg145
g99
sg146
Nsg147
(lp1283
I8
aI7
asg149
Nsg150
g1281
sg151
(lp1284
sg153
g60
sg154
Nsg155
Nsg156
Nsbag3
(g4
g5
NtRp1285
(dp1286
g8
g10
sg134
Nsg135
(dp1287
sg137
Nsg25
g27
sg138
(lp1288
I8
aI8
asg140
Nsg141
VTosefta Demai 8:8
p1289
sg143
(lp1290
sg145
g99
sg146
Nsg147
(lp1291
I8
aI8
asg149
Nsg150
g1289
sg151
(lp1292
sg153
g60
sg154
Nsg155
Nsg156
Nsbag3
(g4
g5
NtRp1293
(dp1294
g8
g10
sg134
Nsg135
(dp1295
sg137
Nsg25
g27
sg138
(lp1296
I8
aI9
asg140
Nsg141
VTosefta Demai 8:9
p1297
sg143
(lp1298
sg145
g99
sg146
Nsg147
(lp1299
I8
aI9
asg149
Nsg150
g1297
sg151
(lp1300
sg153
g60
sg154
Nsg155
Nsg156
Nsbag3
(g4
g5
NtRp1301
(dp1302
g8
g10
sg134
Nsg135
(dp1303
sg137
Nsg25
g27
sg138
(lp1304
I8
aI10
asg140
Nsg141
VTosefta Demai 8:10
p1305
sg143
(lp1306
sg145
g99
sg146
Nsg147
(lp1307
I8
aI10
asg149
Nsg150
g1305
sg151
(lp1308
sg153
g60
sg154
Nsg155
Nsg156
Nsbag3
(g4
g5
NtRp1309
(dp1310
g8
g10
sg134
Nsg135
(dp1311
sg137
Nsg25
g27
sg138
(lp1312
I8
aI11
asg140
Nsg141
VTosefta Demai 8:11
p1313
sg143
(lp1314
sg145
g99
sg146
Nsg147
(lp1315
I8
aI11
asg149
Nsg150
g1313
sg151
(lp1316
sg153
g60
sg154
Nsg155
Nsg156
Nsbag3
(g4
g5
NtRp1317
(dp1318
g8
g10
sg134
Nsg135
(dp1319
sg137
Nsg25
g27
sg138
(lp1320
I8
aI12
asg140
Nsg141
VTosefta Demai 8:12
p1321
sg143
(lp1322
sg145
g99
sg146
Nsg147
(lp1323
I8
aI12
asg149
Nsg150
g1321
sg151
(lp1324
sg153
g60
sg154
Nsg155
Nsg156
Nsbag3
(g4
g5
NtRp1325
(dp1326
g8
g10
sg134
Nsg135
(dp1327
sg137
Nsg25
g27
sg138
(lp1328
I8
aI13
asg140
Nsg141
VTosefta Demai 8:13
p1329
sg143
(lp1330
sg145
g99
sg146
Nsg147
(lp1331
I8
aI13
asg149
Nsg150
g1329
sg151
(lp1332
sg153
g60
sg154
Nsg155
Nsg156
Nsbag3
(g4
g5
NtRp1333
(dp1334
g8
g10
sg134
Nsg135
(dp1335
sg137
Nsg25
g27
sg138
(lp1336
I8
aI14
asg140
Nsg141
VTosefta Demai 8:14
p1337
sg143
(lp1338
sg145
g99
sg146
Nsg147
(lp1339
I8
aI14
asg149
Nsg150
g1337
sg151
(lp1340
sg153
g60
sg154
Nsg155
Nsg156
Nsbag3
(g4
g5
NtRp1341
(dp1342
g8
g10
sg134
Nsg135
(dp1343
sg137
Nsg25
g27
sg138
(lp1344
I8
aI15
asg140
Nsg141
VTosefta Demai 8:15
p1345
sg143
(lp1346
sg145
g99
sg146
Nsg147
(lp1347
I8
aI15
asg149
Nsg150
g1345
sg151
(lp1348
sg153
g60
sg154
Nsg155
Nsg156
Nsbag3
(g4
g5
NtRp1349
(dp1350
g8
g10
sg134
Nsg135
(dp1351
sg137
Nsg25
g27
sg138
(lp1352
I8
aI16
asg140
Nsg141
VTosefta Demai 8:16
p1353
sg143
(lp1354
sg145
g99
sg146
Nsg147
(lp1355
I8
aI16
asg149
Nsg150
g1353
sg151
(lp1356
sg153
g60
sg154
Nsg155
Nsg156
NsbaI6683
t.