((lp1
I0
aI72
aI136
aI195
aI261
aI332
aI395
aI430
aI539
aI569
aI632
aI698
aI715
aI764
aI839
aI971
aI1002
aI1101
aI1171
aI1274
aI1390
aI1449
aI1540
aI1609
aI1658
aI1723
aI1764
aI1850
aI1934
aI1974
aI2068
aI2207
aI2331
aI2475
aI2551
aI2603
aI2726
aI2778
aI2860
aI2944
aI2977
aI3018
aI3114
aI3168
aI3196
aI3294
aI3383
aI3411
aI3453
aI3584
aI3619
aI3658
aI3681
aI3795
aI3861
aI3972
aI4007
aI4038
aI4064
aI4113
aI4161
aI4218
aI4308
aI4343
aI4374
aI4459
aI4515
aI4629
aI4677
aI4697
aI4858
a(lp2
ccopy_reg
_reconstructor
p3
(csefaria.model.text
Ref
p4
c__builtin__
object
p5
NtRp6
(dp7
S'index_node'
p8
g3
(csefaria.model.schema
JaggedArrayNode
p9
g5
NtRp10
(dp11
S'_address'
p12
(lp13
VTosefta Niddah
p14
asS'_full_titles'
p15
(dp16
sVnodeType
p17
VJaggedArrayNode
p18
sS'parent'
p19
NsVaddressTypes
p20
(lp21
VInteger
p22
aVInteger
p23
asS'default'
p24
I00
sS'index'
p25
g3
(csefaria.model.text
Index
p26
g5
NtRp27
(dp28
S'struct_objs'
p29
(dp30
sS'_id'
p31
g3
(cbson.objectid
ObjectId
p32
g5
NtRp33
S'S7\xaa\t\xfb\xfb\xa2 \xb6\t\xce\x9f'
p34
bsS'pkeys_orig_values'
p35
(dp36
S'title'
p37
VTosefta Niddah
p38
ssS'pubDate'
p39
V1521
p40
sS'transliteratedTitle'
p41
VTosefta Niddah
p42
sS'pubPlace'
p43
VVenice
p44
sS'compPlace'
p45
VTalmudic Israel
p46
sS'enDesc'
p47
VThe Tosefta (Supplement, addition") is a compilation of the Jewish oral law. Opinions differ widely as to when the Tosefta was redacted and how it relates to the Mishnah. However it closely corresponds to the Mishnah in structure and style, with the same divisions for sedarim ("orders") and masekhot ("tractates"). In many ways, the Tosefta acts as a supplement to the Mishnah. It is mainly written in Mishnaic Hebrew, with some Aramaic. Niddah (Separation) belongs to the sixth order, Tahorot (Purities) and discusses a Niddah, a woman either during her menstrual cycle or shortly after having given birth. It has nine chapters.
p48
sS'order'
p49
(lp50
I7
asS'era'
p51
VT
sS'compDate'
p52
V210
p53
sS'nodes'
p54
g10
sS'errorMargin'
p55
V20
p56
sS'_title'
p57
g38
sS'categories'
p58
(lp59
VTosefta
p60
aVSeder Toharot
p61
asS'schema'
p62
(dp63
g17
g18
sg20
g21
sVlengths
p64
(lp65
I9
asVdepth
p66
I2
sVtitles
p67
(lp68
(dp69
Vlang
p70
Ven
p71
sVtext
p72
VTos. Nidah
p73
sa(dp74
Vlang
p75
Ven
p76
sVtext
p77
VTos. Niddah
p78
sa(dp79
Vlang
p80
Ven
p81
sVtext
p82
VT. Niddah
p83
sa(dp84
Vlang
p85
Ven
p86
sVtext
p87
VT. Nidah
p88
sa(dp89
Vlang
p90
Ven
p91
sVtext
p92
VTosefta Nidah
p93
sa(dp94
Vlang
p95
Vhe
p96
sVtext
p97
V\u05ea\u05d5\u05e1\u05e4\u05ea\u05d0 \u05e0\u05d3\u05d4
p98
sVprimary
p99
I01
sa(dp100
Vlang
p101
Ven
p102
sVtext
p103
VTosefta Niddah
p104
sVprimary
p105
I01
sasVkey
p106
g14
sVsectionNames
p107
(lp108
VChapter
p109
aVTosefta
p110
assbsS'_primary_title'
p111
(dp112
sS'title_group'
p113
g3
(csefaria.model.schema
TitleGroup
p114
g5
NtRp115
(dp116
g111
(dp117
S'en'
p118
g104
ssS'titles'
p119
g68
sbsS'_addressTypes'
p120
(lp121
g3
(csefaria.model.schema
AddressInteger
p122
g5
NtRp123
(dp124
S'length'
p125
I9
sg49
I0
sbag3
(g122
g5
NtRp126
(dp127
g125
Nsg49
I1
sbasS'sharedTitle'
p128
Nsg64
g65
sg66
I2
sS'_full_title'
p129
(dp130
g118
g104
ssS'key'
p131
g14
sS'checkFirst'
p132
NsS'_regexes'
p133
(dp134
sS'_leaf_nodes'
p135
(lp136
sg107
g108
sS'children'
p137
(lp138
sbsS'_range_index'
p139
NsS'_context'
p140
(dp141
sS'_padded'
p142
Nsg25
g27
sS'sections'
p143
(lp144
I1
aI1
asS'_first_spanned_ref'
p145
NsS'tref'
p146
VTosefta Niddah 1:1
p147
sS'_spanned_refs'
p148
(lp149
sS'book'
p150
g104
sS'_range_depth'
p151
NsS'toSections'
p152
(lp153
I1
aI1
asS'_url'
p154
NsS'_normal'
p155
g147
sS'_ranged_refs'
p156
(lp157
sS'type'
p158
g60
sS'_prev'
p159
NsS'_he_normal'
p160
NsS'_next'
p161
Nsbag3
(g4
g5
NtRp162
(dp163
g8
g10
sg139
Nsg140
(dp164
sg142
Nsg25
g27
sg143
(lp165
I1
aI2
asg145
Nsg146
VTosefta Niddah 1:2
p166
sg148
(lp167
sg150
g104
sg151
Nsg152
(lp168
I1
aI2
asg154
Nsg155
g166
sg156
(lp169
sg158
g60
sg159
Nsg160
Nsg161
Nsbag3
(g4
g5
NtRp170
(dp171
g8
g10
sg139
Nsg140
(dp172
sg142
Nsg25
g27
sg143
(lp173
I1
aI3
asg145
Nsg146
VTosefta Niddah 1:3
p174
sg148
(lp175
sg150
g104
sg151
Nsg152
(lp176
I1
aI3
asg154
Nsg155
g174
sg156
(lp177
sg158
g60
sg159
Nsg160
Nsg161
Nsbag3
(g4
g5
NtRp178
(dp179
g8
g10
sg139
Nsg140
(dp180
sg142
Nsg25
g27
sg143
(lp181
I1
aI4
asg145
Nsg146
VTosefta Niddah 1:4
p182
sg148
(lp183
sg150
g104
sg151
Nsg152
(lp184
I1
aI4
asg154
Nsg155
g182
sg156
(lp185
sg158
g60
sg159
Nsg160
Nsg161
Nsbag3
(g4
g5
NtRp186
(dp187
g8
g10
sg139
Nsg140
(dp188
sg142
Nsg25
g27
sg143
(lp189
I1
aI5
asg145
Nsg146
VTosefta Niddah 1:5
p190
sg148
(lp191
sg150
g104
sg151
Nsg152
(lp192
I1
aI5
asg154
Nsg155
g190
sg156
(lp193
sg158
g60
sg159
Nsg160
Nsg161
Nsbag3
(g4
g5
NtRp194
(dp195
g8
g10
sg139
Nsg140
(dp196
sg142
Nsg25
g27
sg143
(lp197
I1
aI6
asg145
Nsg146
VTosefta Niddah 1:6
p198
sg148
(lp199
sg150
g104
sg151
Nsg152
(lp200
I1
aI6
asg154
Nsg155
g198
sg156
(lp201
sg158
g60
sg159
Nsg160
Nsg161
Nsbag3
(g4
g5
NtRp202
(dp203
g8
g10
sg139
Nsg140
(dp204
sg142
Nsg25
g27
sg143
(lp205
I1
aI7
asg145
Nsg146
VTosefta Niddah 1:7
p206
sg148
(lp207
sg150
g104
sg151
Nsg152
(lp208
I1
aI7
asg154
Nsg155
g206
sg156
(lp209
sg158
g60
sg159
Nsg160
Nsg161
Nsbag3
(g4
g5
NtRp210
(dp211
g8
g10
sg139
Nsg140
(dp212
sg142
Nsg25
g27
sg143
(lp213
I2
aI1
asg145
Nsg146
VTosefta Niddah 2:1
p214
sg148
(lp215
sg150
g104
sg151
Nsg152
(lp216
I2
aI1
asg154
Nsg155
g214
sg156
(lp217
sg158
g60
sg159
Nsg160
Nsg161
Nsbag3
(g4
g5
NtRp218
(dp219
g8
g10
sg139
Nsg140
(dp220
sg142
Nsg25
g27
sg143
(lp221
I2
aI2
asg145
Nsg146
VTosefta Niddah 2:2
p222
sg148
(lp223
sg150
g104
sg151
Nsg152
(lp224
I2
aI2
asg154
Nsg155
g222
sg156
(lp225
sg158
g60
sg159
Nsg160
Nsg161
Nsbag3
(g4
g5
NtRp226
(dp227
g8
g10
sg139
Nsg140
(dp228
sg142
Nsg25
g27
sg143
(lp229
I2
aI3
asg145
Nsg146
VTosefta Niddah 2:3
p230
sg148
(lp231
sg150
g104
sg151
Nsg152
(lp232
I2
aI3
asg154
Nsg155
g230
sg156
(lp233
sg158
g60
sg159
Nsg160
Nsg161
Nsbag3
(g4
g5
NtRp234
(dp235
g8
g10
sg139
Nsg140
(dp236
sg142
Nsg25
g27
sg143
(lp237
I2
aI4
asg145
Nsg146
VTosefta Niddah 2:4
p238
sg148
(lp239
sg150
g104
sg151
Nsg152
(lp240
I2
aI4
asg154
Nsg155
g238
sg156
(lp241
sg158
g60
sg159
Nsg160
Nsg161
Nsbag3
(g4
g5
NtRp242
(dp243
g8
g10
sg139
Nsg140
(dp244
sg142
Nsg25
g27
sg143
(lp245
I2
aI5
asg145
Nsg146
VTosefta Niddah 2:5
p246
sg148
(lp247
sg150
g104
sg151
Nsg152
(lp248
I2
aI5
asg154
Nsg155
g246
sg156
(lp249
sg158
g60
sg159
Nsg160
Nsg161
Nsbag3
(g4
g5
NtRp250
(dp251
g8
g10
sg139
Nsg140
(dp252
sg142
Nsg25
g27
sg143
(lp253
I2
aI6
asg145
Nsg146
VTosefta Niddah 2:6
p254
sg148
(lp255
sg150
g104
sg151
Nsg152
(lp256
I2
aI6
asg154
Nsg155
g254
sg156
(lp257
sg158
g60
sg159
Nsg160
Nsg161
Nsbag3
(g4
g5
NtRp258
(dp259
g8
g10
sg139
Nsg140
(dp260
sg142
Nsg25
g27
sg143
(lp261
I2
aI7
asg145
Nsg146
VTosefta Niddah 2:7
p262
sg148
(lp263
sg150
g104
sg151
Nsg152
(lp264
I2
aI7
asg154
Nsg155
g262
sg156
(lp265
sg158
g60
sg159
Nsg160
Nsg161
Nsbag3
(g4
g5
NtRp266
(dp267
g8
g10
sg139
Nsg140
(dp268
sg142
Nsg25
g27
sg143
(lp269
I3
aI1
asg145
Nsg146
VTosefta Niddah 3:1
p270
sg148
(lp271
sg150
g104
sg151
Nsg152
(lp272
I3
aI1
asg154
Nsg155
g270
sg156
(lp273
sg158
g60
sg159
Nsg160
Nsg161
Nsbag3
(g4
g5
NtRp274
(dp275
g8
g10
sg139
Nsg140
(dp276
sg142
Nsg25
g27
sg143
(lp277
I3
aI2
asg145
Nsg146
VTosefta Niddah 3:2
p278
sg148
(lp279
sg150
g104
sg151
Nsg152
(lp280
I3
aI2
asg154
Nsg155
g278
sg156
(lp281
sg158
g60
sg159
Nsg160
Nsg161
Nsbag3
(g4
g5
NtRp282
(dp283
g8
g10
sg139
Nsg140
(dp284
sg142
Nsg25
g27
sg143
(lp285
I3
aI3
asg145
Nsg146
VTosefta Niddah 3:3
p286
sg148
(lp287
sg150
g104
sg151
Nsg152
(lp288
I3
aI3
asg154
Nsg155
g286
sg156
(lp289
sg158
g60
sg159
Nsg160
Nsg161
Nsbag3
(g4
g5
NtRp290
(dp291
g8
g10
sg139
Nsg140
(dp292
sg142
Nsg25
g27
sg143
(lp293
I3
aI4
asg145
Nsg146
VTosefta Niddah 3:4
p294
sg148
(lp295
sg150
g104
sg151
Nsg152
(lp296
I3
aI4
asg154
Nsg155
g294
sg156
(lp297
sg158
g60
sg159
Nsg160
Nsg161
Nsbag3
(g4
g5
NtRp298
(dp299
g8
g10
sg139
Nsg140
(dp300
sg142
Nsg25
g27
sg143
(lp301
I3
aI5
asg145
Nsg146
VTosefta Niddah 3:5
p302
sg148
(lp303
sg150
g104
sg151
Nsg152
(lp304
I3
aI5
asg154
Nsg155
g302
sg156
(lp305
sg158
g60
sg159
Nsg160
Nsg161
Nsbag3
(g4
g5
NtRp306
(dp307
g8
g10
sg139
Nsg140
(dp308
sg142
Nsg25
g27
sg143
(lp309
I4
aI1
asg145
Nsg146
VTosefta Niddah 4:1
p310
sg148
(lp311
sg150
g104
sg151
Nsg152
(lp312
I4
aI1
asg154
Nsg155
g310
sg156
(lp313
sg158
g60
sg159
Nsg160
Nsg161
Nsbag3
(g4
g5
NtRp314
(dp315
g8
g10
sg139
Nsg140
(dp316
sg142
Nsg25
g27
sg143
(lp317
I4
aI2
asg145
Nsg146
VTosefta Niddah 4:2
p318
sg148
(lp319
sg150
g104
sg151
Nsg152
(lp320
I4
aI2
asg154
Nsg155
g318
sg156
(lp321
sg158
g60
sg159
Nsg160
Nsg161
Nsbag3
(g4
g5
NtRp322
(dp323
g8
g10
sg139
Nsg140
(dp324
sg142
Nsg25
g27
sg143
(lp325
I4
aI3
asg145
Nsg146
VTosefta Niddah 4:3
p326
sg148
(lp327
sg150
g104
sg151
Nsg152
(lp328
I4
aI3
asg154
Nsg155
g326
sg156
(lp329
sg158
g60
sg159
Nsg160
Nsg161
Nsbag3
(g4
g5
NtRp330
(dp331
g8
g10
sg139
Nsg140
(dp332
sg142
Nsg25
g27
sg143
(lp333
I4
aI4
asg145
Nsg146
VTosefta Niddah 4:4
p334
sg148
(lp335
sg150
g104
sg151
Nsg152
(lp336
I4
aI4
asg154
Nsg155
g334
sg156
(lp337
sg158
g60
sg159
Nsg160
Nsg161
Nsbag3
(g4
g5
NtRp338
(dp339
g8
g10
sg139
Nsg140
(dp340
sg142
Nsg25
g27
sg143
(lp341
I4
aI5
asg145
Nsg146
VTosefta Niddah 4:5
p342
sg148
(lp343
sg150
g104
sg151
Nsg152
(lp344
I4
aI5
asg154
Nsg155
g342
sg156
(lp345
sg158
g60
sg159
Nsg160
Nsg161
Nsbag3
(g4
g5
NtRp346
(dp347
g8
g10
sg139
Nsg140
(dp348
sg142
Nsg25
g27
sg143
(lp349
I4
aI6
asg145
Nsg146
VTosefta Niddah 4:6
p350
sg148
(lp351
sg150
g104
sg151
Nsg152
(lp352
I4
aI6
asg154
Nsg155
g350
sg156
(lp353
sg158
g60
sg159
Nsg160
Nsg161
Nsbag3
(g4
g5
NtRp354
(dp355
g8
g10
sg139
Nsg140
(dp356
sg142
Nsg25
g27
sg143
(lp357
I4
aI7
asg145
Nsg146
VTosefta Niddah 4:7
p358
sg148
(lp359
sg150
g104
sg151
Nsg152
(lp360
I4
aI7
asg154
Nsg155
g358
sg156
(lp361
sg158
g60
sg159
Nsg160
Nsg161
Nsbag3
(g4
g5
NtRp362
(dp363
g8
g10
sg139
Nsg140
(dp364
sg142
Nsg25
g27
sg143
(lp365
I4
aI8
asg145
Nsg146
VTosefta Niddah 4:8
p366
sg148
(lp367
sg150
g104
sg151
Nsg152
(lp368
I4
aI8
asg154
Nsg155
g366
sg156
(lp369
sg158
g60
sg159
Nsg160
Nsg161
Nsbag3
(g4
g5
NtRp370
(dp371
g8
g10
sg139
Nsg140
(dp372
sg142
Nsg25
g27
sg143
(lp373
I5
aI1
asg145
Nsg146
VTosefta Niddah 5:1
p374
sg148
(lp375
sg150
g104
sg151
Nsg152
(lp376
I5
aI1
asg154
Nsg155
g374
sg156
(lp377
sg158
g60
sg159
Nsg160
Nsg161
Nsbag3
(g4
g5
NtRp378
(dp379
g8
g10
sg139
Nsg140
(dp380
sg142
Nsg25
g27
sg143
(lp381
I5
aI2
asg145
Nsg146
VTosefta Niddah 5:2
p382
sg148
(lp383
sg150
g104
sg151
Nsg152
(lp384
I5
aI2
asg154
Nsg155
g382
sg156
(lp385
sg158
g60
sg159
Nsg160
Nsg161
Nsbag3
(g4
g5
NtRp386
(dp387
g8
g10
sg139
Nsg140
(dp388
sg142
Nsg25
g27
sg143
(lp389
I5
aI3
asg145
Nsg146
VTosefta Niddah 5:3
p390
sg148
(lp391
sg150
g104
sg151
Nsg152
(lp392
I5
aI3
asg154
Nsg155
g390
sg156
(lp393
sg158
g60
sg159
Nsg160
Nsg161
Nsbag3
(g4
g5
NtRp394
(dp395
g8
g10
sg139
Nsg140
(dp396
sg142
Nsg25
g27
sg143
(lp397
I5
aI4
asg145
Nsg146
VTosefta Niddah 5:4
p398
sg148
(lp399
sg150
g104
sg151
Nsg152
(lp400
I5
aI4
asg154
Nsg155
g398
sg156
(lp401
sg158
g60
sg159
Nsg160
Nsg161
Nsbag3
(g4
g5
NtRp402
(dp403
g8
g10
sg139
Nsg140
(dp404
sg142
Nsg25
g27
sg143
(lp405
I5
aI5
asg145
Nsg146
VTosefta Niddah 5:5
p406
sg148
(lp407
sg150
g104
sg151
Nsg152
(lp408
I5
aI5
asg154
Nsg155
g406
sg156
(lp409
sg158
g60
sg159
Nsg160
Nsg161
Nsbag3
(g4
g5
NtRp410
(dp411
g8
g10
sg139
Nsg140
(dp412
sg142
Nsg25
g27
sg143
(lp413
I5
aI6
asg145
Nsg146
VTosefta Niddah 5:6
p414
sg148
(lp415
sg150
g104
sg151
Nsg152
(lp416
I5
aI6
asg154
Nsg155
g414
sg156
(lp417
sg158
g60
sg159
Nsg160
Nsg161
Nsbag3
(g4
g5
NtRp418
(dp419
g8
g10
sg139
Nsg140
(dp420
sg142
Nsg25
g27
sg143
(lp421
I5
aI7
asg145
Nsg146
VTosefta Niddah 5:7
p422
sg148
(lp423
sg150
g104
sg151
Nsg152
(lp424
I5
aI7
asg154
Nsg155
g422
sg156
(lp425
sg158
g60
sg159
Nsg160
Nsg161
Nsbag3
(g4
g5
NtRp426
(dp427
g8
g10
sg139
Nsg140
(dp428
sg142
Nsg25
g27
sg143
(lp429
I6
aI1
asg145
Nsg146
VTosefta Niddah 6:1
p430
sg148
(lp431
sg150
g104
sg151
Nsg152
(lp432
I6
aI1
asg154
Nsg155
g430
sg156
(lp433
sg158
g60
sg159
Nsg160
Nsg161
Nsbag3
(g4
g5
NtRp434
(dp435
g8
g10
sg139
Nsg140
(dp436
sg142
Nsg25
g27
sg143
(lp437
I6
aI2
asg145
Nsg146
VTosefta Niddah 6:2
p438
sg148
(lp439
sg150
g104
sg151
Nsg152
(lp440
I6
aI2
asg154
Nsg155
g438
sg156
(lp441
sg158
g60
sg159
Nsg160
Nsg161
Nsbag3
(g4
g5
NtRp442
(dp443
g8
g10
sg139
Nsg140
(dp444
sg142
Nsg25
g27
sg143
(lp445
I6
aI3
asg145
Nsg146
VTosefta Niddah 6:3
p446
sg148
(lp447
sg150
g104
sg151
Nsg152
(lp448
I6
aI3
asg154
Nsg155
g446
sg156
(lp449
sg158
g60
sg159
Nsg160
Nsg161
Nsbag3
(g4
g5
NtRp450
(dp451
g8
g10
sg139
Nsg140
(dp452
sg142
Nsg25
g27
sg143
(lp453
I6
aI4
asg145
Nsg146
VTosefta Niddah 6:4
p454
sg148
(lp455
sg150
g104
sg151
Nsg152
(lp456
I6
aI4
asg154
Nsg155
g454
sg156
(lp457
sg158
g60
sg159
Nsg160
Nsg161
Nsbag3
(g4
g5
NtRp458
(dp459
g8
g10
sg139
Nsg140
(dp460
sg142
Nsg25
g27
sg143
(lp461
I6
aI5
asg145
Nsg146
VTosefta Niddah 6:5
p462
sg148
(lp463
sg150
g104
sg151
Nsg152
(lp464
I6
aI5
asg154
Nsg155
g462
sg156
(lp465
sg158
g60
sg159
Nsg160
Nsg161
Nsbag3
(g4
g5
NtRp466
(dp467
g8
g10
sg139
Nsg140
(dp468
sg142
Nsg25
g27
sg143
(lp469
I6
aI6
asg145
Nsg146
VTosefta Niddah 6:6
p470
sg148
(lp471
sg150
g104
sg151
Nsg152
(lp472
I6
aI6
asg154
Nsg155
g470
sg156
(lp473
sg158
g60
sg159
Nsg160
Nsg161
Nsbag3
(g4
g5
NtRp474
(dp475
g8
g10
sg139
Nsg140
(dp476
sg142
Nsg25
g27
sg143
(lp477
I6
aI7
asg145
Nsg146
VTosefta Niddah 6:7
p478
sg148
(lp479
sg150
g104
sg151
Nsg152
(lp480
I6
aI7
asg154
Nsg155
g478
sg156
(lp481
sg158
g60
sg159
Nsg160
Nsg161
Nsbag3
(g4
g5
NtRp482
(dp483
g8
g10
sg139
Nsg140
(dp484
sg142
Nsg25
g27
sg143
(lp485
I6
aI8
asg145
Nsg146
VTosefta Niddah 6:8
p486
sg148
(lp487
sg150
g104
sg151
Nsg152
(lp488
I6
aI8
asg154
Nsg155
g486
sg156
(lp489
sg158
g60
sg159
Nsg160
Nsg161
Nsbag3
(g4
g5
NtRp490
(dp491
g8
g10
sg139
Nsg140
(dp492
sg142
Nsg25
g27
sg143
(lp493
I6
aI9
asg145
Nsg146
VTosefta Niddah 6:9
p494
sg148
(lp495
sg150
g104
sg151
Nsg152
(lp496
I6
aI9
asg154
Nsg155
g494
sg156
(lp497
sg158
g60
sg159
Nsg160
Nsg161
Nsbag3
(g4
g5
NtRp498
(dp499
g8
g10
sg139
Nsg140
(dp500
sg142
Nsg25
g27
sg143
(lp501
I6
aI10
asg145
Nsg146
VTosefta Niddah 6:10
p502
sg148
(lp503
sg150
g104
sg151
Nsg152
(lp504
I6
aI10
asg154
Nsg155
g502
sg156
(lp505
sg158
g60
sg159
Nsg160
Nsg161
Nsbag3
(g4
g5
NtRp506
(dp507
g8
g10
sg139
Nsg140
(dp508
sg142
Nsg25
g27
sg143
(lp509
I6
aI11
asg145
Nsg146
VTosefta Niddah 6:11
p510
sg148
(lp511
sg150
g104
sg151
Nsg152
(lp512
I6
aI11
asg154
Nsg155
g510
sg156
(lp513
sg158
g60
sg159
Nsg160
Nsg161
Nsbag3
(g4
g5
NtRp514
(dp515
g8
g10
sg139
Nsg140
(dp516
sg142
Nsg25
g27
sg143
(lp517
I6
aI12
asg145
Nsg146
VTosefta Niddah 6:12
p518
sg148
(lp519
sg150
g104
sg151
Nsg152
(lp520
I6
aI12
asg154
Nsg155
g518
sg156
(lp521
sg158
g60
sg159
Nsg160
Nsg161
Nsbag3
(g4
g5
NtRp522
(dp523
g8
g10
sg139
Nsg140
(dp524
sg142
Nsg25
g27
sg143
(lp525
I7
aI1
asg145
Nsg146
VTosefta Niddah 7:1
p526
sg148
(lp527
sg150
g104
sg151
Nsg152
(lp528
I7
aI1
asg154
Nsg155
g526
sg156
(lp529
sg158
g60
sg159
Nsg160
Nsg161
Nsbag3
(g4
g5
NtRp530
(dp531
g8
g10
sg139
Nsg140
(dp532
sg142
Nsg25
g27
sg143
(lp533
I7
aI2
asg145
Nsg146
VTosefta Niddah 7:2
p534
sg148
(lp535
sg150
g104
sg151
Nsg152
(lp536
I7
aI2
asg154
Nsg155
g534
sg156
(lp537
sg158
g60
sg159
Nsg160
Nsg161
Nsbag3
(g4
g5
NtRp538
(dp539
g8
g10
sg139
Nsg140
(dp540
sg142
Nsg25
g27
sg143
(lp541
I7
aI3
asg145
Nsg146
VTosefta Niddah 7:3
p542
sg148
(lp543
sg150
g104
sg151
Nsg152
(lp544
I7
aI3
asg154
Nsg155
g542
sg156
(lp545
sg158
g60
sg159
Nsg160
Nsg161
Nsbag3
(g4
g5
NtRp546
(dp547
g8
g10
sg139
Nsg140
(dp548
sg142
Nsg25
g27
sg143
(lp549
I7
aI4
asg145
Nsg146
VTosefta Niddah 7:4
p550
sg148
(lp551
sg150
g104
sg151
Nsg152
(lp552
I7
aI4
asg154
Nsg155
g550
sg156
(lp553
sg158
g60
sg159
Nsg160
Nsg161
Nsbag3
(g4
g5
NtRp554
(dp555
g8
g10
sg139
Nsg140
(dp556
sg142
Nsg25
g27
sg143
(lp557
I7
aI5
asg145
Nsg146
VTosefta Niddah 7:5
p558
sg148
(lp559
sg150
g104
sg151
Nsg152
(lp560
I7
aI5
asg154
Nsg155
g558
sg156
(lp561
sg158
g60
sg159
Nsg160
Nsg161
Nsbag3
(g4
g5
NtRp562
(dp563
g8
g10
sg139
Nsg140
(dp564
sg142
Nsg25
g27
sg143
(lp565
I7
aI6
asg145
Nsg146
VTosefta Niddah 7:6
p566
sg148
(lp567
sg150
g104
sg151
Nsg152
(lp568
I7
aI6
asg154
Nsg155
g566
sg156
(lp569
sg158
g60
sg159
Nsg160
Nsg161
Nsbag3
(g4
g5
NtRp570
(dp571
g8
g10
sg139
Nsg140
(dp572
sg142
Nsg25
g27
sg143
(lp573
I8
aI1
asg145
Nsg146
VTosefta Niddah 8:1
p574
sg148
(lp575
sg150
g104
sg151
Nsg152
(lp576
I8
aI1
asg154
Nsg155
g574
sg156
(lp577
sg158
g60
sg159
Nsg160
Nsg161
Nsbag3
(g4
g5
NtRp578
(dp579
g8
g10
sg139
Nsg140
(dp580
sg142
Nsg25
g27
sg143
(lp581
I8
aI2
asg145
Nsg146
VTosefta Niddah 8:2
p582
sg148
(lp583
sg150
g104
sg151
Nsg152
(lp584
I8
aI2
asg154
Nsg155
g582
sg156
(lp585
sg158
g60
sg159
Nsg160
Nsg161
Nsbag3
(g4
g5
NtRp586
(dp587
g8
g10
sg139
Nsg140
(dp588
sg142
Nsg25
g27
sg143
(lp589
I8
aI3
asg145
Nsg146
VTosefta Niddah 8:3
p590
sg148
(lp591
sg150
g104
sg151
Nsg152
(lp592
I8
aI3
asg154
Nsg155
g590
sg156
(lp593
sg158
g60
sg159
Nsg160
Nsg161
Nsbag3
(g4
g5
NtRp594
(dp595
g8
g10
sg139
Nsg140
(dp596
sg142
Nsg25
g27
sg143
(lp597
I8
aI4
asg145
Nsg146
VTosefta Niddah 8:4
p598
sg148
(lp599
sg150
g104
sg151
Nsg152
(lp600
I8
aI4
asg154
Nsg155
g598
sg156
(lp601
sg158
g60
sg159
Nsg160
Nsg161
Nsbag3
(g4
g5
NtRp602
(dp603
g8
g10
sg139
Nsg140
(dp604
sg142
Nsg25
g27
sg143
(lp605
I8
aI5
asg145
Nsg146
VTosefta Niddah 8:5
p606
sg148
(lp607
sg150
g104
sg151
Nsg152
(lp608
I8
aI5
asg154
Nsg155
g606
sg156
(lp609
sg158
g60
sg159
Nsg160
Nsg161
Nsbag3
(g4
g5
NtRp610
(dp611
g8
g10
sg139
Nsg140
(dp612
sg142
Nsg25
g27
sg143
(lp613
I8
aI6
asg145
Nsg146
VTosefta Niddah 8:6
p614
sg148
(lp615
sg150
g104
sg151
Nsg152
(lp616
I8
aI6
asg154
Nsg155
g614
sg156
(lp617
sg158
g60
sg159
Nsg160
Nsg161
Nsbag3
(g4
g5
NtRp618
(dp619
g8
g10
sg139
Nsg140
(dp620
sg142
Nsg25
g27
sg143
(lp621
I8
aI7
asg145
Nsg146
VTosefta Niddah 8:7
p622
sg148
(lp623
sg150
g104
sg151
Nsg152
(lp624
I8
aI7
asg154
Nsg155
g622
sg156
(lp625
sg158
g60
sg159
Nsg160
Nsg161
Nsbag3
(g4
g5
NtRp626
(dp627
g8
g10
sg139
Nsg140
(dp628
sg142
Nsg25
g27
sg143
(lp629
I9
aI1
asg145
Nsg146
VTosefta Niddah 9:1
p630
sg148
(lp631
sg150
g104
sg151
Nsg152
(lp632
I9
aI1
asg154
Nsg155
g630
sg156
(lp633
sg158
g60
sg159
Nsg160
Nsg161
Nsbag3
(g4
g5
NtRp634
(dp635
g8
g10
sg139
Nsg140
(dp636
sg142
Nsg25
g27
sg143
(lp637
I9
aI2
asg145
Nsg146
VTosefta Niddah 9:2
p638
sg148
(lp639
sg150
g104
sg151
Nsg152
(lp640
I9
aI2
asg154
Nsg155
g638
sg156
(lp641
sg158
g60
sg159
Nsg160
Nsg161
Nsbag3
(g4
g5
NtRp642
(dp643
g8
g10
sg139
Nsg140
(dp644
sg142
Nsg25
g27
sg143
(lp645
I9
aI3
asg145
Nsg146
VTosefta Niddah 9:3
p646
sg148
(lp647
sg150
g104
sg151
Nsg152
(lp648
I9
aI3
asg154
Nsg155
g646
sg156
(lp649
sg158
g60
sg159
Nsg160
Nsg161
Nsbag3
(g4
g5
NtRp650
(dp651
g8
g10
sg139
Nsg140
(dp652
sg142
Nsg25
g27
sg143
(lp653
I9
aI4
asg145
Nsg146
VTosefta Niddah 9:4
p654
sg148
(lp655
sg150
g104
sg151
Nsg152
(lp656
I9
aI4
asg154
Nsg155
g654
sg156
(lp657
sg158
g60
sg159
Nsg160
Nsg161
Nsbag3
(g4
g5
NtRp658
(dp659
g8
g10
sg139
Nsg140
(dp660
sg142
Nsg25
g27
sg143
(lp661
I9
aI5
asg145
Nsg146
VTosefta Niddah 9:5
p662
sg148
(lp663
sg150
g104
sg151
Nsg152
(lp664
I9
aI5
asg154
Nsg155
g662
sg156
(lp665
sg158
g60
sg159
Nsg160
Nsg161
Nsbag3
(g4
g5
NtRp666
(dp667
g8
g10
sg139
Nsg140
(dp668
sg142
Nsg25
g27
sg143
(lp669
I9
aI6
asg145
Nsg146
VTosefta Niddah 9:6
p670
sg148
(lp671
sg150
g104
sg151
Nsg152
(lp672
I9
aI6
asg154
Nsg155
g670
sg156
(lp673
sg158
g60
sg159
Nsg160
Nsg161
Nsbag3
(g4
g5
NtRp674
(dp675
g8
g10
sg139
Nsg140
(dp676
sg142
Nsg25
g27
sg143
(lp677
I9
aI7
asg145
Nsg146
VTosefta Niddah 9:7
p678
sg148
(lp679
sg150
g104
sg151
Nsg152
(lp680
I9
aI7
asg154
Nsg155
g678
sg156
(lp681
sg158
g60
sg159
Nsg160
Nsg161
Nsbag3
(g4
g5
NtRp682
(dp683
g8
g10
sg139
Nsg140
(dp684
sg142
Nsg25
g27
sg143
(lp685
I9
aI8
asg145
Nsg146
VTosefta Niddah 9:8
p686
sg148
(lp687
sg150
g104
sg151
Nsg152
(lp688
I9
aI8
asg154
Nsg155
g686
sg156
(lp689
sg158
g60
sg159
Nsg160
Nsg161
Nsbag3
(g4
g5
NtRp690
(dp691
g8
g10
sg139
Nsg140
(dp692
sg142
Nsg25
g27
sg143
(lp693
I9
aI9
asg145
Nsg146
VTosefta Niddah 9:9
p694
sg148
(lp695
sg150
g104
sg151
Nsg152
(lp696
I9
aI9
asg154
Nsg155
g694
sg156
(lp697
sg158
g60
sg159
Nsg160
Nsg161
Nsbag3
(g4
g5
NtRp698
(dp699
g8
g10
sg139
Nsg140
(dp700
sg142
Nsg25
g27
sg143
(lp701
I9
aI10
asg145
Nsg146
VTosefta Niddah 9:10
p702
sg148
(lp703
sg150
g104
sg151
Nsg152
(lp704
I9
aI10
asg154
Nsg155
g702
sg156
(lp705
sg158
g60
sg159
Nsg160
Nsg161
Nsbag3
(g4
g5
NtRp706
(dp707
g8
g10
sg139
Nsg140
(dp708
sg142
Nsg25
g27
sg143
(lp709
I9
aI11
asg145
Nsg146
VTosefta Niddah 9:11
p710
sg148
(lp711
sg150
g104
sg151
Nsg152
(lp712
I9
aI11
asg154
Nsg155
g710
sg156
(lp713
sg158
g60
sg159
Nsg160
Nsg161
Nsbag3
(g4
g5
NtRp714
(dp715
g8
g10
sg139
Nsg140
(dp716
sg142
Nsg25
g27
sg143
(lp717
I9
aI12
asg145
Nsg146
VTosefta Niddah 9:12
p718
sg148
(lp719
sg150
g104
sg151
Nsg152
(lp720
I9
aI12
asg154
Nsg155
g718
sg156
(lp721
sg158
g60
sg159
Nsg160
Nsg161
NsbaI4943
t.