((lp1
I0
aI119
aI246
aI338
aI401
aI536
aI566
aI633
aI767
aI782
aI827
aI930
aI983
aI1022
aI1062
aI1224
aI1292
aI1472
aI1551
aI1654
aI1807
aI1850
a(lp2
ccopy_reg
_reconstructor
p3
(csefaria.model.text
Ref
p4
c__builtin__
object
p5
NtRp6
(dp7
S'index_node'
p8
g3
(csefaria.model.schema
JaggedArrayNode
p9
g5
NtRp10
(dp11
S'_address'
p12
(lp13
VTosefta Meilah
p14
asS'_full_titles'
p15
(dp16
sVnodeType
p17
VJaggedArrayNode
p18
sS'parent'
p19
NsVaddressTypes
p20
(lp21
VInteger
p22
aVInteger
p23
asS'default'
p24
I00
sS'index'
p25
g3
(csefaria.model.text
Index
p26
g5
NtRp27
(dp28
S'struct_objs'
p29
(dp30
sS'_id'
p31
g3
(cbson.objectid
ObjectId
p32
g5
NtRp33
S'S2\xdcG\xfb\xfb\xa2db\x83\xcdA'
p34
bsS'pkeys_orig_values'
p35
(dp36
S'title'
p37
VTosefta Meilah
p38
ssS'pubDate'
p39
V1521
p40
sS'transliteratedTitle'
p41
VTosefta Me'ilah
p42
sS'pubPlace'
p43
VVenice
p44
sS'compPlace'
p45
VTalmudic Israel
p46
sS'enDesc'
p47
VThe Tosefta (Supplement, addition") is a compilation of the Jewish oral law. Opinions differ widely as to when the Tosefta was redacted and how it relates to the Mishnah. However it closely corresponds to the Mishnah in structure and style, with the same divisions for sedarim ("orders") and masekhot ("tractates"). In many ways, the Tosefta acts as a supplement to the Mishnah. It is mainly written in Mishnaic Hebrew, with some Aramaic. Keritot (Excisions) belongs to the fifth order, Kodshim (Holy things) and discusses the commandments for which the penalty is karet "excision") as well as the sacrifices associated with their (mostly unwitting) transgression. It has three chapters.
p48
sS'order'
p49
(lp50
I7
asS'era'
p51
VT
sS'compDate'
p52
V210
p53
sS'nodes'
p54
g10
sS'errorMargin'
p55
V20
p56
sS'_title'
p57
g38
sS'categories'
p58
(lp59
VTosefta
p60
aVSeder Kodashim
p61
asS'schema'
p62
(dp63
g17
g18
sg20
g21
sVlengths
p64
(lp65
I3
asVdepth
p66
I2
sVtitles
p67
(lp68
(dp69
Vlang
p70
Ven
p71
sVtext
p72
VTosefta Me'ilah
p73
sa(dp74
Vlang
p75
Ven
p76
sVtext
p77
VT. Meilah
p78
sa(dp79
Vlang
p80
Ven
p81
sVtext
p82
VTos. Meilah
p83
sa(dp84
Vlang
p85
Vhe
p86
sVtext
p87
V\u05ea\u05d5\u05e1\u05e4\u05ea\u05d0 \u05de\u05e2\u05d9\u05dc\u05d4
p88
sVprimary
p89
I01
sa(dp90
Vlang
p91
Ven
p92
sVtext
p93
VTosefta Meilah
p94
sVprimary
p95
I01
sasVkey
p96
g14
sVsectionNames
p97
(lp98
VChapter
p99
aVTosefta
p100
assbsS'_primary_title'
p101
(dp102
sS'title_group'
p103
g3
(csefaria.model.schema
TitleGroup
p104
g5
NtRp105
(dp106
g101
(dp107
S'en'
p108
g94
ssS'titles'
p109
g68
sbsS'_addressTypes'
p110
(lp111
g3
(csefaria.model.schema
AddressInteger
p112
g5
NtRp113
(dp114
S'length'
p115
I3
sg49
I0
sbag3
(g112
g5
NtRp116
(dp117
g115
Nsg49
I1
sbasS'sharedTitle'
p118
Nsg64
g65
sg66
I2
sS'_full_title'
p119
(dp120
g108
g94
ssS'key'
p121
g14
sS'checkFirst'
p122
NsS'_regexes'
p123
(dp124
sS'_leaf_nodes'
p125
(lp126
sg97
g98
sS'children'
p127
(lp128
sbsS'_range_index'
p129
NsS'_context'
p130
(dp131
sS'_padded'
p132
Nsg25
g27
sS'sections'
p133
(lp134
I1
aI1
asS'_first_spanned_ref'
p135
NsS'tref'
p136
VTosefta Meilah 1:1
p137
sS'_spanned_refs'
p138
(lp139
sS'book'
p140
g94
sS'_range_depth'
p141
NsS'toSections'
p142
(lp143
I1
aI1
asS'_url'
p144
NsS'_normal'
p145
g137
sS'_ranged_refs'
p146
(lp147
sS'type'
p148
g60
sS'_prev'
p149
NsS'_he_normal'
p150
NsS'_next'
p151
Nsbag3
(g4
g5
NtRp152
(dp153
g8
g10
sg129
Nsg130
(dp154
sg132
Nsg25
g27
sg133
(lp155
I1
aI2
asg135
Nsg136
VTosefta Meilah 1:2
p156
sg138
(lp157
sg140
g94
sg141
Nsg142
(lp158
I1
aI2
asg144
Nsg145
g156
sg146
(lp159
sg148
g60
sg149
Nsg150
Nsg151
Nsbag3
(g4
g5
NtRp160
(dp161
g8
g10
sg129
Nsg130
(dp162
sg132
Nsg25
g27
sg133
(lp163
I1
aI3
asg135
Nsg136
VTosefta Meilah 1:3
p164
sg138
(lp165
sg140
g94
sg141
Nsg142
(lp166
I1
aI3
asg144
Nsg145
g164
sg146
(lp167
sg148
g60
sg149
Nsg150
Nsg151
Nsbag3
(g4
g5
NtRp168
(dp169
g8
g10
sg129
Nsg130
(dp170
sg132
Nsg25
g27
sg133
(lp171
I1
aI4
asg135
Nsg136
VTosefta Meilah 1:4
p172
sg138
(lp173
sg140
g94
sg141
Nsg142
(lp174
I1
aI4
asg144
Nsg145
g172
sg146
(lp175
sg148
g60
sg149
Nsg150
Nsg151
Nsbag3
(g4
g5
NtRp176
(dp177
g8
g10
sg129
Nsg130
(dp178
sg132
Nsg25
g27
sg133
(lp179
I1
aI5
asg135
Nsg136
VTosefta Meilah 1:5
p180
sg138
(lp181
sg140
g94
sg141
Nsg142
(lp182
I1
aI5
asg144
Nsg145
g180
sg146
(lp183
sg148
g60
sg149
Nsg150
Nsg151
Nsbag3
(g4
g5
NtRp184
(dp185
g8
g10
sg129
Nsg130
(dp186
sg132
Nsg25
g27
sg133
(lp187
I1
aI6
asg135
Nsg136
VTosefta Meilah 1:6
p188
sg138
(lp189
sg140
g94
sg141
Nsg142
(lp190
I1
aI6
asg144
Nsg145
g188
sg146
(lp191
sg148
g60
sg149
Nsg150
Nsg151
Nsbag3
(g4
g5
NtRp192
(dp193
g8
g10
sg129
Nsg130
(dp194
sg132
Nsg25
g27
sg133
(lp195
I1
aI7
asg135
Nsg136
VTosefta Meilah 1:7
p196
sg138
(lp197
sg140
g94
sg141
Nsg142
(lp198
I1
aI7
asg144
Nsg145
g196
sg146
(lp199
sg148
g60
sg149
Nsg150
Nsg151
Nsbag3
(g4
g5
NtRp200
(dp201
g8
g10
sg129
Nsg130
(dp202
sg132
Nsg25
g27
sg133
(lp203
I1
aI8
asg135
Nsg136
VTosefta Meilah 1:8
p204
sg138
(lp205
sg140
g94
sg141
Nsg142
(lp206
I1
aI8
asg144
Nsg145
g204
sg146
(lp207
sg148
g60
sg149
Nsg150
Nsg151
Nsbag3
(g4
g5
NtRp208
(dp209
g8
g10
sg129
Nsg130
(dp210
sg132
Nsg25
g27
sg133
(lp211
I1
aI9
asg135
Nsg136
VTosefta Meilah 1:9
p212
sg138
(lp213
sg140
g94
sg141
Nsg142
(lp214
I1
aI9
asg144
Nsg145
g212
sg146
(lp215
sg148
g60
sg149
Nsg150
Nsg151
Nsbag3
(g4
g5
NtRp216
(dp217
g8
g10
sg129
Nsg130
(dp218
sg132
Nsg25
g27
sg133
(lp219
I1
aI10
asg135
Nsg136
VTosefta Meilah 1:10
p220
sg138
(lp221
sg140
g94
sg141
Nsg142
(lp222
I1
aI10
asg144
Nsg145
g220
sg146
(lp223
sg148
g60
sg149
Nsg150
Nsg151
Nsbag3
(g4
g5
NtRp224
(dp225
g8
g10
sg129
Nsg130
(dp226
sg132
Nsg25
g27
sg133
(lp227
I1
aI11
asg135
Nsg136
VTosefta Meilah 1:11
p228
sg138
(lp229
sg140
g94
sg141
Nsg142
(lp230
I1
aI11
asg144
Nsg145
g228
sg146
(lp231
sg148
g60
sg149
Nsg150
Nsg151
Nsbag3
(g4
g5
NtRp232
(dp233
g8
g10
sg129
Nsg130
(dp234
sg132
Nsg25
g27
sg133
(lp235
I1
aI12
asg135
Nsg136
VTosefta Meilah 1:12
p236
sg138
(lp237
sg140
g94
sg141
Nsg142
(lp238
I1
aI12
asg144
Nsg145
g236
sg146
(lp239
sg148
g60
sg149
Nsg150
Nsg151
Nsbag3
(g4
g5
NtRp240
(dp241
g8
g10
sg129
Nsg130
(dp242
sg132
Nsg25
g27
sg133
(lp243
I1
aI13
asg135
Nsg136
VTosefta Meilah 1:13
p244
sg138
(lp245
sg140
g94
sg141
Nsg142
(lp246
I1
aI13
asg144
Nsg145
g244
sg146
(lp247
sg148
g60
sg149
Nsg150
Nsg151
Nsbag3
(g4
g5
NtRp248
(dp249
g8
g10
sg129
Nsg130
(dp250
sg132
Nsg25
g27
sg133
(lp251
I1
aI14
asg135
Nsg136
VTosefta Meilah 1:14
p252
sg138
(lp253
sg140
g94
sg141
Nsg142
(lp254
I1
aI14
asg144
Nsg145
g252
sg146
(lp255
sg148
g60
sg149
Nsg150
Nsg151
Nsbag3
(g4
g5
NtRp256
(dp257
g8
g10
sg129
Nsg130
(dp258
sg132
Nsg25
g27
sg133
(lp259
I1
aI15
asg135
Nsg136
VTosefta Meilah 1:15
p260
sg138
(lp261
sg140
g94
sg141
Nsg142
(lp262
I1
aI15
asg144
Nsg145
g260
sg146
(lp263
sg148
g60
sg149
Nsg150
Nsg151
Nsbag3
(g4
g5
NtRp264
(dp265
g8
g10
sg129
Nsg130
(dp266
sg132
Nsg25
g27
sg133
(lp267
I1
aI16
asg135
Nsg136
VTosefta Meilah 1:16
p268
sg138
(lp269
sg140
g94
sg141
Nsg142
(lp270
I1
aI16
asg144
Nsg145
g268
sg146
(lp271
sg148
g60
sg149
Nsg150
Nsg151
Nsbag3
(g4
g5
NtRp272
(dp273
g8
g10
sg129
Nsg130
(dp274
sg132
Nsg25
g27
sg133
(lp275
I2
aI1
asg135
Nsg136
VTosefta Meilah 2:1
p276
sg138
(lp277
sg140
g94
sg141
Nsg142
(lp278
I2
aI1
asg144
Nsg145
g276
sg146
(lp279
sg148
g60
sg149
Nsg150
Nsg151
Nsbag3
(g4
g5
NtRp280
(dp281
g8
g10
sg129
Nsg130
(dp282
sg132
Nsg25
g27
sg133
(lp283
I2
aI2
asg135
Nsg136
VTosefta Meilah 2:2
p284
sg138
(lp285
sg140
g94
sg141
Nsg142
(lp286
I2
aI2
asg144
Nsg145
g284
sg146
(lp287
sg148
g60
sg149
Nsg150
Nsg151
Nsbag3
(g4
g5
NtRp288
(dp289
g8
g10
sg129
Nsg130
(dp290
sg132
Nsg25
g27
sg133
(lp291
I2
aI3
asg135
Nsg136
VTosefta Meilah 2:3
p292
sg138
(lp293
sg140
g94
sg141
Nsg142
(lp294
I2
aI3
asg144
Nsg145
g292
sg146
(lp295
sg148
g60
sg149
Nsg150
Nsg151
Nsbag3
(g4
g5
NtRp296
(dp297
g8
g10
sg129
Nsg130
(dp298
sg132
Nsg25
g27
sg133
(lp299
I2
aI4
asg135
Nsg136
VTosefta Meilah 2:4
p300
sg138
(lp301
sg140
g94
sg141
Nsg142
(lp302
I2
aI4
asg144
Nsg145
g300
sg146
(lp303
sg148
g60
sg149
Nsg150
Nsg151
Nsbag3
(g4
g5
NtRp304
(dp305
g8
g10
sg129
Nsg130
(dp306
sg132
Nsg25
g27
sg133
(lp307
I2
aI5
asg135
Nsg136
VTosefta Meilah 2:5
p308
sg138
(lp309
sg140
g94
sg141
Nsg142
(lp310
I2
aI5
asg144
Nsg145
g308
sg146
(lp311
sg148
g60
sg149
Nsg150
Nsg151
Nsbag3
(g4
g5
NtRp312
(dp313
g8
g10
sg129
Nsg130
(dp314
sg132
Nsg25
g27
sg133
(lp315
I3
aI1
asg135
Nsg136
VTosefta Meilah 3:1
p316
sg138
(lp317
sg140
g94
sg141
Nsg142
(lp318
I3
aI1
asg144
Nsg145
g316
sg146
(lp319
sg148
g60
sg149
Nsg150
Nsg151
NsbaI1953
t.