((lp1
I0
aI23
aI70
aI136
aI214
aI244
aI279
aI295
aI341
aI403
aI443
aI484
aI558
aI581
aI620
aI681
aI780
aI834
aI878
aI928
aI971
aI992
aI1036
aI1152
aI1193
aI1302
aI1359
aI1470
aI1561
aI1600
aI1738
aI1886
aI1921
aI1983
aI2049
aI2116
aI2247
aI2345
aI2421
aI2473
aI2510
aI2535
aI2611
aI2723
aI2875
aI3065
aI3490
aI3541
aI3696
aI3774
a(lp2
ccopy_reg
_reconstructor
p3
(csefaria.model.text
Ref
p4
c__builtin__
object
p5
NtRp6
(dp7
S'index_node'
p8
g3
(csefaria.model.schema
JaggedArrayNode
p9
g5
NtRp10
(dp11
S'_address'
p12
(lp13
VTosefta Nazir
p14
asS'_full_titles'
p15
(dp16
sVnodeType
p17
VJaggedArrayNode
p18
sS'parent'
p19
NsVaddressTypes
p20
(lp21
VInteger
p22
aVInteger
p23
asS'default'
p24
I00
sS'index'
p25
g3
(csefaria.model.text
Index
p26
g5
NtRp27
(dp28
S'struct_objs'
p29
(dp30
sS'_id'
p31
g3
(cbson.objectid
ObjectId
p32
g5
NtRp33
S'S-\xe8\x05\xfb\xfb\xa2\x0eR\x907Q'
p34
bsS'pkeys_orig_values'
p35
(dp36
S'title'
p37
VTosefta Nazir
p38
ssS'pubDate'
p39
V1521
p40
sS'transliteratedTitle'
p41
VTosefta Nazir
p42
sS'pubPlace'
p43
VVenice
p44
sS'compPlace'
p45
VTalmudic Israel
p46
sS'enDesc'
p47
VThe Tosefta (Supplement, addition") is a compilation of the Jewish oral law. Opinions differ widely as to when the Tosefta was redacted and how it relates to the Mishnah. However it closely corresponds to the Mishnah in structure and style, with the same divisions for sedarim ("orders") and masekhot ("tractates"). In many ways, the Tosefta acts as a supplement to the Mishnah. It is mainly written in Mishnaic Hebrew, with some Aramaic. Nazir (One who abstains) belongs to the third order, Nashim (Women) and discusses details of the Nazirite vow and being a Nazirite (Num 6). It has six chapters.
p48
sS'order'
p49
(lp50
I4
asS'era'
p51
VT
sS'compDate'
p52
V210
p53
sS'nodes'
p54
g10
sS'errorMargin'
p55
V20
p56
sS'_title'
p57
g38
sS'categories'
p58
(lp59
VTosefta
p60
aVSeder Nashim
p61
asS'schema'
p62
(dp63
g17
g18
sg20
g21
sVlengths
p64
(lp65
I6
asVdepth
p66
I2
sVtitles
p67
(lp68
(dp69
Vlang
p70
Ven
p71
sVtext
p72
VT. Nazir
p73
sa(dp74
Vlang
p75
Ven
p76
sVtext
p77
VTos. Nazir
p78
sa(dp79
Vlang
p80
Vhe
p81
sVtext
p82
V\u05ea\u05d5\u05e1\u05e4\u05ea\u05d0 \u05e0\u05d6\u05d9\u05e8
p83
sVprimary
p84
I01
sa(dp85
Vlang
p86
Ven
p87
sVtext
p88
VTosefta Nazir
p89
sVprimary
p90
I01
sasVkey
p91
g14
sVsectionNames
p92
(lp93
VChapter
p94
aVTosefta
p95
assbsS'_primary_title'
p96
(dp97
sS'title_group'
p98
g3
(csefaria.model.schema
TitleGroup
p99
g5
NtRp100
(dp101
g96
(dp102
S'en'
p103
g89
ssS'titles'
p104
g68
sbsS'_addressTypes'
p105
(lp106
g3
(csefaria.model.schema
AddressInteger
p107
g5
NtRp108
(dp109
S'length'
p110
I6
sg49
I0
sbag3
(g107
g5
NtRp111
(dp112
g110
Nsg49
I1
sbasS'sharedTitle'
p113
Nsg64
g65
sg66
I2
sS'_full_title'
p114
(dp115
g103
g89
ssS'key'
p116
g14
sS'checkFirst'
p117
NsS'_regexes'
p118
(dp119
sS'_leaf_nodes'
p120
(lp121
sg92
g93
sS'children'
p122
(lp123
sbsS'_range_index'
p124
NsS'_context'
p125
(dp126
sS'_padded'
p127
Nsg25
g27
sS'sections'
p128
(lp129
I1
aI1
asS'_first_spanned_ref'
p130
NsS'tref'
p131
VTosefta Nazir 1:1
p132
sS'_spanned_refs'
p133
(lp134
sS'book'
p135
g89
sS'_range_depth'
p136
NsS'toSections'
p137
(lp138
I1
aI1
asS'_url'
p139
NsS'_normal'
p140
g132
sS'_ranged_refs'
p141
(lp142
sS'type'
p143
g60
sS'_prev'
p144
NsS'_he_normal'
p145
NsS'_next'
p146
Nsbag3
(g4
g5
NtRp147
(dp148
g8
g10
sg124
Nsg125
(dp149
sg127
Nsg25
g27
sg128
(lp150
I1
aI2
asg130
Nsg131
VTosefta Nazir 1:2
p151
sg133
(lp152
sg135
g89
sg136
Nsg137
(lp153
I1
aI2
asg139
Nsg140
g151
sg141
(lp154
sg143
g60
sg144
Nsg145
Nsg146
Nsbag3
(g4
g5
NtRp155
(dp156
g8
g10
sg124
Nsg125
(dp157
sg127
Nsg25
g27
sg128
(lp158
I1
aI3
asg130
Nsg131
VTosefta Nazir 1:3
p159
sg133
(lp160
sg135
g89
sg136
Nsg137
(lp161
I1
aI3
asg139
Nsg140
g159
sg141
(lp162
sg143
g60
sg144
Nsg145
Nsg146
Nsbag3
(g4
g5
NtRp163
(dp164
g8
g10
sg124
Nsg125
(dp165
sg127
Nsg25
g27
sg128
(lp166
I1
aI4
asg130
Nsg131
VTosefta Nazir 1:4
p167
sg133
(lp168
sg135
g89
sg136
Nsg137
(lp169
I1
aI4
asg139
Nsg140
g167
sg141
(lp170
sg143
g60
sg144
Nsg145
Nsg146
Nsbag3
(g4
g5
NtRp171
(dp172
g8
g10
sg124
Nsg125
(dp173
sg127
Nsg25
g27
sg128
(lp174
I1
aI5
asg130
Nsg131
VTosefta Nazir 1:5
p175
sg133
(lp176
sg135
g89
sg136
Nsg137
(lp177
I1
aI5
asg139
Nsg140
g175
sg141
(lp178
sg143
g60
sg144
Nsg145
Nsg146
Nsbag3
(g4
g5
NtRp179
(dp180
g8
g10
sg124
Nsg125
(dp181
sg127
Nsg25
g27
sg128
(lp182
I1
aI6
asg130
Nsg131
VTosefta Nazir 1:6
p183
sg133
(lp184
sg135
g89
sg136
Nsg137
(lp185
I1
aI6
asg139
Nsg140
g183
sg141
(lp186
sg143
g60
sg144
Nsg145
Nsg146
Nsbag3
(g4
g5
NtRp187
(dp188
g8
g10
sg124
Nsg125
(dp189
sg127
Nsg25
g27
sg128
(lp190
I1
aI7
asg130
Nsg131
VTosefta Nazir 1:7
p191
sg133
(lp192
sg135
g89
sg136
Nsg137
(lp193
I1
aI7
asg139
Nsg140
g191
sg141
(lp194
sg143
g60
sg144
Nsg145
Nsg146
Nsbag3
(g4
g5
NtRp195
(dp196
g8
g10
sg124
Nsg125
(dp197
sg127
Nsg25
g27
sg128
(lp198
I1
aI8
asg130
Nsg131
VTosefta Nazir 1:8
p199
sg133
(lp200
sg135
g89
sg136
Nsg137
(lp201
I1
aI8
asg139
Nsg140
g199
sg141
(lp202
sg143
g60
sg144
Nsg145
Nsg146
Nsbag3
(g4
g5
NtRp203
(dp204
g8
g10
sg124
Nsg125
(dp205
sg127
Nsg25
g27
sg128
(lp206
I2
aI1
asg130
Nsg131
VTosefta Nazir 2:1
p207
sg133
(lp208
sg135
g89
sg136
Nsg137
(lp209
I2
aI1
asg139
Nsg140
g207
sg141
(lp210
sg143
g60
sg144
Nsg145
Nsg146
Nsbag3
(g4
g5
NtRp211
(dp212
g8
g10
sg124
Nsg125
(dp213
sg127
Nsg25
g27
sg128
(lp214
I2
aI2
asg130
Nsg131
VTosefta Nazir 2:2
p215
sg133
(lp216
sg135
g89
sg136
Nsg137
(lp217
I2
aI2
asg139
Nsg140
g215
sg141
(lp218
sg143
g60
sg144
Nsg145
Nsg146
Nsbag3
(g4
g5
NtRp219
(dp220
g8
g10
sg124
Nsg125
(dp221
sg127
Nsg25
g27
sg128
(lp222
I2
aI3
asg130
Nsg131
VTosefta Nazir 2:3
p223
sg133
(lp224
sg135
g89
sg136
Nsg137
(lp225
I2
aI3
asg139
Nsg140
g223
sg141
(lp226
sg143
g60
sg144
Nsg145
Nsg146
Nsbag3
(g4
g5
NtRp227
(dp228
g8
g10
sg124
Nsg125
(dp229
sg127
Nsg25
g27
sg128
(lp230
I2
aI4
asg130
Nsg131
VTosefta Nazir 2:4
p231
sg133
(lp232
sg135
g89
sg136
Nsg137
(lp233
I2
aI4
asg139
Nsg140
g231
sg141
(lp234
sg143
g60
sg144
Nsg145
Nsg146
Nsbag3
(g4
g5
NtRp235
(dp236
g8
g10
sg124
Nsg125
(dp237
sg127
Nsg25
g27
sg128
(lp238
I2
aI5
asg130
Nsg131
VTosefta Nazir 2:5
p239
sg133
(lp240
sg135
g89
sg136
Nsg137
(lp241
I2
aI5
asg139
Nsg140
g239
sg141
(lp242
sg143
g60
sg144
Nsg145
Nsg146
Nsbag3
(g4
g5
NtRp243
(dp244
g8
g10
sg124
Nsg125
(dp245
sg127
Nsg25
g27
sg128
(lp246
I2
aI6
asg130
Nsg131
VTosefta Nazir 2:6
p247
sg133
(lp248
sg135
g89
sg136
Nsg137
(lp249
I2
aI6
asg139
Nsg140
g247
sg141
(lp250
sg143
g60
sg144
Nsg145
Nsg146
Nsbag3
(g4
g5
NtRp251
(dp252
g8
g10
sg124
Nsg125
(dp253
sg127
Nsg25
g27
sg128
(lp254
I2
aI7
asg130
Nsg131
VTosefta Nazir 2:7
p255
sg133
(lp256
sg135
g89
sg136
Nsg137
(lp257
I2
aI7
asg139
Nsg140
g255
sg141
(lp258
sg143
g60
sg144
Nsg145
Nsg146
Nsbag3
(g4
g5
NtRp259
(dp260
g8
g10
sg124
Nsg125
(dp261
sg127
Nsg25
g27
sg128
(lp262
I2
aI8
asg130
Nsg131
VTosefta Nazir 2:8
p263
sg133
(lp264
sg135
g89
sg136
Nsg137
(lp265
I2
aI8
asg139
Nsg140
g263
sg141
(lp266
sg143
g60
sg144
Nsg145
Nsg146
Nsbag3
(g4
g5
NtRp267
(dp268
g8
g10
sg124
Nsg125
(dp269
sg127
Nsg25
g27
sg128
(lp270
I2
aI9
asg130
Nsg131
VTosefta Nazir 2:9
p271
sg133
(lp272
sg135
g89
sg136
Nsg137
(lp273
I2
aI9
asg139
Nsg140
g271
sg141
(lp274
sg143
g60
sg144
Nsg145
Nsg146
Nsbag3
(g4
g5
NtRp275
(dp276
g8
g10
sg124
Nsg125
(dp277
sg127
Nsg25
g27
sg128
(lp278
I2
aI10
asg130
Nsg131
VTosefta Nazir 2:10
p279
sg133
(lp280
sg135
g89
sg136
Nsg137
(lp281
I2
aI10
asg139
Nsg140
g279
sg141
(lp282
sg143
g60
sg144
Nsg145
Nsg146
Nsbag3
(g4
g5
NtRp283
(dp284
g8
g10
sg124
Nsg125
(dp285
sg127
Nsg25
g27
sg128
(lp286
I2
aI11
asg130
Nsg131
VTosefta Nazir 2:11
p287
sg133
(lp288
sg135
g89
sg136
Nsg137
(lp289
I2
aI11
asg139
Nsg140
g287
sg141
(lp290
sg143
g60
sg144
Nsg145
Nsg146
Nsbag3
(g4
g5
NtRp291
(dp292
g8
g10
sg124
Nsg125
(dp293
sg127
Nsg25
g27
sg128
(lp294
I3
aI1
asg130
Nsg131
VTosefta Nazir 3:1
p295
sg133
(lp296
sg135
g89
sg136
Nsg137
(lp297
I3
aI1
asg139
Nsg140
g295
sg141
(lp298
sg143
g60
sg144
Nsg145
Nsg146
Nsbag3
(g4
g5
NtRp299
(dp300
g8
g10
sg124
Nsg125
(dp301
sg127
Nsg25
g27
sg128
(lp302
I3
aI2
asg130
Nsg131
VTosefta Nazir 3:2
p303
sg133
(lp304
sg135
g89
sg136
Nsg137
(lp305
I3
aI2
asg139
Nsg140
g303
sg141
(lp306
sg143
g60
sg144
Nsg145
Nsg146
Nsbag3
(g4
g5
NtRp307
(dp308
g8
g10
sg124
Nsg125
(dp309
sg127
Nsg25
g27
sg128
(lp310
I3
aI3
asg130
Nsg131
VTosefta Nazir 3:3
p311
sg133
(lp312
sg135
g89
sg136
Nsg137
(lp313
I3
aI3
asg139
Nsg140
g311
sg141
(lp314
sg143
g60
sg144
Nsg145
Nsg146
Nsbag3
(g4
g5
NtRp315
(dp316
g8
g10
sg124
Nsg125
(dp317
sg127
Nsg25
g27
sg128
(lp318
I3
aI4
asg130
Nsg131
VTosefta Nazir 3:4
p319
sg133
(lp320
sg135
g89
sg136
Nsg137
(lp321
I3
aI4
asg139
Nsg140
g319
sg141
(lp322
sg143
g60
sg144
Nsg145
Nsg146
Nsbag3
(g4
g5
NtRp323
(dp324
g8
g10
sg124
Nsg125
(dp325
sg127
Nsg25
g27
sg128
(lp326
I3
aI5
asg130
Nsg131
VTosefta Nazir 3:5
p327
sg133
(lp328
sg135
g89
sg136
Nsg137
(lp329
I3
aI5
asg139
Nsg140
g327
sg141
(lp330
sg143
g60
sg144
Nsg145
Nsg146
Nsbag3
(g4
g5
NtRp331
(dp332
g8
g10
sg124
Nsg125
(dp333
sg127
Nsg25
g27
sg128
(lp334
I3
aI6
asg130
Nsg131
VTosefta Nazir 3:6
p335
sg133
(lp336
sg135
g89
sg136
Nsg137
(lp337
I3
aI6
asg139
Nsg140
g335
sg141
(lp338
sg143
g60
sg144
Nsg145
Nsg146
Nsbag3
(g4
g5
NtRp339
(dp340
g8
g10
sg124
Nsg125
(dp341
sg127
Nsg25
g27
sg128
(lp342
I3
aI7
asg130
Nsg131
VTosefta Nazir 3:7
p343
sg133
(lp344
sg135
g89
sg136
Nsg137
(lp345
I3
aI7
asg139
Nsg140
g343
sg141
(lp346
sg143
g60
sg144
Nsg145
Nsg146
Nsbag3
(g4
g5
NtRp347
(dp348
g8
g10
sg124
Nsg125
(dp349
sg127
Nsg25
g27
sg128
(lp350
I3
aI8
asg130
Nsg131
VTosefta Nazir 3:8
p351
sg133
(lp352
sg135
g89
sg136
Nsg137
(lp353
I3
aI8
asg139
Nsg140
g351
sg141
(lp354
sg143
g60
sg144
Nsg145
Nsg146
Nsbag3
(g4
g5
NtRp355
(dp356
g8
g10
sg124
Nsg125
(dp357
sg127
Nsg25
g27
sg128
(lp358
I3
aI9
asg130
Nsg131
VTosefta Nazir 3:9
p359
sg133
(lp360
sg135
g89
sg136
Nsg137
(lp361
I3
aI9
asg139
Nsg140
g359
sg141
(lp362
sg143
g60
sg144
Nsg145
Nsg146
Nsbag3
(g4
g5
NtRp363
(dp364
g8
g10
sg124
Nsg125
(dp365
sg127
Nsg25
g27
sg128
(lp366
I3
aI10
asg130
Nsg131
VTosefta Nazir 3:10
p367
sg133
(lp368
sg135
g89
sg136
Nsg137
(lp369
I3
aI10
asg139
Nsg140
g367
sg141
(lp370
sg143
g60
sg144
Nsg145
Nsg146
Nsbag3
(g4
g5
NtRp371
(dp372
g8
g10
sg124
Nsg125
(dp373
sg127
Nsg25
g27
sg128
(lp374
I3
aI11
asg130
Nsg131
VTosefta Nazir 3:11
p375
sg133
(lp376
sg135
g89
sg136
Nsg137
(lp377
I3
aI11
asg139
Nsg140
g375
sg141
(lp378
sg143
g60
sg144
Nsg145
Nsg146
Nsbag3
(g4
g5
NtRp379
(dp380
g8
g10
sg124
Nsg125
(dp381
sg127
Nsg25
g27
sg128
(lp382
I4
aI1
asg130
Nsg131
VTosefta Nazir 4:1
p383
sg133
(lp384
sg135
g89
sg136
Nsg137
(lp385
I4
aI1
asg139
Nsg140
g383
sg141
(lp386
sg143
g60
sg144
Nsg145
Nsg146
Nsbag3
(g4
g5
NtRp387
(dp388
g8
g10
sg124
Nsg125
(dp389
sg127
Nsg25
g27
sg128
(lp390
I4
aI2
asg130
Nsg131
VTosefta Nazir 4:2
p391
sg133
(lp392
sg135
g89
sg136
Nsg137
(lp393
I4
aI2
asg139
Nsg140
g391
sg141
(lp394
sg143
g60
sg144
Nsg145
Nsg146
Nsbag3
(g4
g5
NtRp395
(dp396
g8
g10
sg124
Nsg125
(dp397
sg127
Nsg25
g27
sg128
(lp398
I4
aI3
asg130
Nsg131
VTosefta Nazir 4:3
p399
sg133
(lp400
sg135
g89
sg136
Nsg137
(lp401
I4
aI3
asg139
Nsg140
g399
sg141
(lp402
sg143
g60
sg144
Nsg145
Nsg146
Nsbag3
(g4
g5
NtRp403
(dp404
g8
g10
sg124
Nsg125
(dp405
sg127
Nsg25
g27
sg128
(lp406
I4
aI4
asg130
Nsg131
VTosefta Nazir 4:4
p407
sg133
(lp408
sg135
g89
sg136
Nsg137
(lp409
I4
aI4
asg139
Nsg140
g407
sg141
(lp410
sg143
g60
sg144
Nsg145
Nsg146
Nsbag3
(g4
g5
NtRp411
(dp412
g8
g10
sg124
Nsg125
(dp413
sg127
Nsg25
g27
sg128
(lp414
I4
aI5
asg130
Nsg131
VTosefta Nazir 4:5
p415
sg133
(lp416
sg135
g89
sg136
Nsg137
(lp417
I4
aI5
asg139
Nsg140
g415
sg141
(lp418
sg143
g60
sg144
Nsg145
Nsg146
Nsbag3
(g4
g5
NtRp419
(dp420
g8
g10
sg124
Nsg125
(dp421
sg127
Nsg25
g27
sg128
(lp422
I4
aI6
asg130
Nsg131
VTosefta Nazir 4:6
p423
sg133
(lp424
sg135
g89
sg136
Nsg137
(lp425
I4
aI6
asg139
Nsg140
g423
sg141
(lp426
sg143
g60
sg144
Nsg145
Nsg146
Nsbag3
(g4
g5
NtRp427
(dp428
g8
g10
sg124
Nsg125
(dp429
sg127
Nsg25
g27
sg128
(lp430
I4
aI7
asg130
Nsg131
VTosefta Nazir 4:7
p431
sg133
(lp432
sg135
g89
sg136
Nsg137
(lp433
I4
aI7
asg139
Nsg140
g431
sg141
(lp434
sg143
g60
sg144
Nsg145
Nsg146
Nsbag3
(g4
g5
NtRp435
(dp436
g8
g10
sg124
Nsg125
(dp437
sg127
Nsg25
g27
sg128
(lp438
I4
aI8
asg130
Nsg131
VTosefta Nazir 4:8
p439
sg133
(lp440
sg135
g89
sg136
Nsg137
(lp441
I4
aI8
asg139
Nsg140
g439
sg141
(lp442
sg143
g60
sg144
Nsg145
Nsg146
Nsbag3
(g4
g5
NtRp443
(dp444
g8
g10
sg124
Nsg125
(dp445
sg127
Nsg25
g27
sg128
(lp446
I4
aI9
asg130
Nsg131
VTosefta Nazir 4:9
p447
sg133
(lp448
sg135
g89
sg136
Nsg137
(lp449
I4
aI9
asg139
Nsg140
g447
sg141
(lp450
sg143
g60
sg144
Nsg145
Nsg146
Nsbag3
(g4
g5
NtRp451
(dp452
g8
g10
sg124
Nsg125
(dp453
sg127
Nsg25
g27
sg128
(lp454
I4
aI10
asg130
Nsg131
VTosefta Nazir 4:10
p455
sg133
(lp456
sg135
g89
sg136
Nsg137
(lp457
I4
aI10
asg139
Nsg140
g455
sg141
(lp458
sg143
g60
sg144
Nsg145
Nsg146
Nsbag3
(g4
g5
NtRp459
(dp460
g8
g10
sg124
Nsg125
(dp461
sg127
Nsg25
g27
sg128
(lp462
I5
aI1
asg130
Nsg131
VTosefta Nazir 5:1
p463
sg133
(lp464
sg135
g89
sg136
Nsg137
(lp465
I5
aI1
asg139
Nsg140
g463
sg141
(lp466
sg143
g60
sg144
Nsg145
Nsg146
Nsbag3
(g4
g5
NtRp467
(dp468
g8
g10
sg124
Nsg125
(dp469
sg127
Nsg25
g27
sg128
(lp470
I5
aI2
asg130
Nsg131
VTosefta Nazir 5:2
p471
sg133
(lp472
sg135
g89
sg136
Nsg137
(lp473
I5
aI2
asg139
Nsg140
g471
sg141
(lp474
sg143
g60
sg144
Nsg145
Nsg146
Nsbag3
(g4
g5
NtRp475
(dp476
g8
g10
sg124
Nsg125
(dp477
sg127
Nsg25
g27
sg128
(lp478
I5
aI3
asg130
Nsg131
VTosefta Nazir 5:3
p479
sg133
(lp480
sg135
g89
sg136
Nsg137
(lp481
I5
aI3
asg139
Nsg140
g479
sg141
(lp482
sg143
g60
sg144
Nsg145
Nsg146
Nsbag3
(g4
g5
NtRp483
(dp484
g8
g10
sg124
Nsg125
(dp485
sg127
Nsg25
g27
sg128
(lp486
I5
aI4
asg130
Nsg131
VTosefta Nazir 5:4
p487
sg133
(lp488
sg135
g89
sg136
Nsg137
(lp489
I5
aI4
asg139
Nsg140
g487
sg141
(lp490
sg143
g60
sg144
Nsg145
Nsg146
Nsbag3
(g4
g5
NtRp491
(dp492
g8
g10
sg124
Nsg125
(dp493
sg127
Nsg25
g27
sg128
(lp494
I5
aI5
asg130
Nsg131
VTosefta Nazir 5:5
p495
sg133
(lp496
sg135
g89
sg136
Nsg137
(lp497
I5
aI5
asg139
Nsg140
g495
sg141
(lp498
sg143
g60
sg144
Nsg145
Nsg146
Nsbag3
(g4
g5
NtRp499
(dp500
g8
g10
sg124
Nsg125
(dp501
sg127
Nsg25
g27
sg128
(lp502
I6
aI1
asg130
Nsg131
VTosefta Nazir 6:1
p503
sg133
(lp504
sg135
g89
sg136
Nsg137
(lp505
I6
aI1
asg139
Nsg140
g503
sg141
(lp506
sg143
g60
sg144
Nsg145
Nsg146
Nsbag3
(g4
g5
NtRp507
(dp508
g8
g10
sg124
Nsg125
(dp509
sg127
Nsg25
g27
sg128
(lp510
I6
aI2
asg130
Nsg131
VTosefta Nazir 6:2
p511
sg133
(lp512
sg135
g89
sg136
Nsg137
(lp513
I6
aI2
asg139
Nsg140
g511
sg141
(lp514
sg143
g60
sg144
Nsg145
Nsg146
Nsbag3
(g4
g5
NtRp515
(dp516
g8
g10
sg124
Nsg125
(dp517
sg127
Nsg25
g27
sg128
(lp518
I6
aI3
asg130
Nsg131
VTosefta Nazir 6:3
p519
sg133
(lp520
sg135
g89
sg136
Nsg137
(lp521
I6
aI3
asg139
Nsg140
g519
sg141
(lp522
sg143
g60
sg144
Nsg145
Nsg146
Nsbag3
(g4
g5
NtRp523
(dp524
g8
g10
sg124
Nsg125
(dp525
sg127
Nsg25
g27
sg128
(lp526
I6
aI4
asg130
Nsg131
VTosefta Nazir 6:4
p527
sg133
(lp528
sg135
g89
sg136
Nsg137
(lp529
I6
aI4
asg139
Nsg140
g527
sg141
(lp530
sg143
g60
sg144
Nsg145
Nsg146
Nsbag3
(g4
g5
NtRp531
(dp532
g8
g10
sg124
Nsg125
(dp533
sg127
Nsg25
g27
sg128
(lp534
I6
aI5
asg130
Nsg131
VTosefta Nazir 6:5
p535
sg133
(lp536
sg135
g89
sg136
Nsg137
(lp537
I6
aI5
asg139
Nsg140
g535
sg141
(lp538
sg143
g60
sg144
Nsg145
Nsg146
NsbaI3793
t.