((lp1
I0
aI70
aI119
aI169
aI186
aI253
aI334
aI379
aI462
aI535
aI597
aI647
aI689
aI719
aI839
aI863
aI904
aI944
aI970
aI1030
aI1068
aI1155
aI1225
aI1306
aI1325
aI1344
aI1417
aI1456
aI1514
aI1548
aI1608
aI1664
aI1688
aI1727
aI1740
aI1802
aI1868
aI1901
aI1950
aI2001
aI2027
aI2058
aI2082
aI2111
aI2151
aI2185
aI2238
aI2268
aI2314
aI2368
aI2431
aI2511
aI2550
aI2581
aI2687
aI2747
aI2782
aI2821
aI2872
aI2911
aI2975
aI3046
aI3105
aI3144
aI3185
aI3236
aI3266
aI3309
aI3329
aI3403
aI3428
aI3477
aI3525
aI3566
aI3612
aI3628
aI3654
aI3694
aI3745
aI3827
aI3880
aI3903
aI3928
aI3949
aI4030
aI4100
aI4166
aI4234
aI4256
aI4303
aI4349
aI4450
aI4486
aI4509
aI4597
aI4626
aI4705
aI4724
aI4754
aI4783
aI4863
aI4946
aI4997
aI5045
aI5095
aI5113
aI5129
aI5185
aI5221
aI5265
aI5332
aI5387
aI5403
aI5446
aI5486
aI5572
aI5643
aI5680
aI5792
aI5856
aI5916
aI5947
aI5971
aI6001
aI6080
aI6121
aI6146
aI6266
aI6325
aI6408
aI6500
aI6580
aI6634
aI6658
aI6713
aI6747
aI6868
aI6917
aI6942
aI6972
aI7030
aI7073
aI7192
aI7223
aI7286
aI7346
aI7376
aI7436
aI7465
aI7492
aI7526
aI7560
aI7616
aI7642
aI7687
aI7758
aI7797
aI7895
aI7961
aI8083
aI8133
aI8188
aI8231
aI8254
aI8301
aI8332
aI8382
aI8417
aI8485
aI8521
aI8597
aI8655
aI8725
aI8818
aI8862
aI8885
aI8899
aI8933
aI8973
aI8999
aI9036
aI9102
aI9132
aI9182
aI9258
aI9305
aI9330
aI9408
aI9428
aI9579
aI9692
aI9728
aI9782
aI9849
aI9973
aI10052
aI10074
aI10123
aI10245
aI10337
aI10384
aI10424
aI10470
aI10508
aI10529
aI10562
aI10585
aI10643
aI10667
aI10700
aI10781
aI10807
aI10837
aI10877
aI10913
aI10947
aI10963
aI11058
aI11118
aI11162
aI11196
aI11223
aI11256
aI11307
aI11337
aI11366
aI11394
aI11526
aI11576
aI11625
aI11645
aI11665
aI11723
a(lp2
ccopy_reg
_reconstructor
p3
(csefaria.model.text
Ref
p4
c__builtin__
object
p5
NtRp6
(dp7
S'index_node'
p8
g3
(csefaria.model.schema
JaggedArrayNode
p9
g5
NtRp10
(dp11
S'_address'
p12
(lp13
VTosefta Shabbat
p14
asS'_full_titles'
p15
(dp16
sVnodeType
p17
VJaggedArrayNode
p18
sS'parent'
p19
NsVaddressTypes
p20
(lp21
VInteger
p22
aVInteger
p23
asS'default'
p24
I00
sS'index'
p25
g3
(csefaria.model.text
Index
p26
g5
NtRp27
(dp28
S'struct_objs'
p29
(dp30
sS'_id'
p31
g3
(cbson.objectid
ObjectId
p32
g5
NtRp33
S'Q\xf5C\xa6\xed\xba\xb4k\xf0c\xd3o'
p34
bsS'pkeys_orig_values'
p35
(dp36
S'title'
p37
VTosefta Shabbat
p38
ssS'pubDate'
p39
V1521
p40
sS'transliteratedTitle'
p41
VTosefta Shabbat
p42
sS'pubPlace'
p43
VVenice
p44
sS'compPlace'
p45
VTalmudic Israel
p46
sS'enDesc'
p47
VThe Tosefta (Supplement, addition") is a compilation of the Jewish oral law. Opinions differ widely as to when the Tosefta was redacted and how it relates to the Mishnah. However it closely corresponds to the Mishnah in structure and style, with the same divisions for sedarim ("orders") and masekhot ("tractates"). In many ways, the Tosefta acts as a supplement to the Mishnah. It is mainly written in Mishnaic Hebrew, with some Aramaic. Shabbat (Sabbath) belongs to the second order, Moed (Festivals) and discusses the 39 prohibitions of "work" on the Shabbat. It has eighteen chapters.
p48
sS'order'
p49
(lp50
I1
asS'era'
p51
VT
sS'compDate'
p52
V210
p53
sS'nodes'
p54
g10
sS'errorMargin'
p55
V20
p56
sS'_title'
p57
g38
sS'categories'
p58
(lp59
VTosefta
p60
aVSeder Moed
p61
asS'schema'
p62
(dp63
g17
g18
sg20
g21
sVlengths
p64
(lp65
I18
asVdepth
p66
I2
sVtitles
p67
(lp68
(dp69
Vlang
p70
Ven
p71
sVtext
p72
VTos. Shabbos
p73
sa(dp74
Vlang
p75
Ven
p76
sVtext
p77
VT. Shabbat
p78
sa(dp79
Vlang
p80
Ven
p81
sVtext
p82
VTosefta Shabbos
p83
sa(dp84
Vlang
p85
Ven
p86
sVtext
p87
VTos. Shabbat
p88
sa(dp89
Vlang
p90
Vhe
p91
sVtext
p92
V\u05ea\u05d5\u05e1\u05e4\u05ea\u05d0 \u05e9\u05d1\u05ea
p93
sVprimary
p94
I01
sa(dp95
Vlang
p96
Ven
p97
sVtext
p98
VTosefta Shabbat
p99
sVprimary
p100
I01
sasVkey
p101
g14
sVsectionNames
p102
(lp103
VChapter
p104
aVTosefta
p105
assbsS'_primary_title'
p106
(dp107
sS'title_group'
p108
g3
(csefaria.model.schema
TitleGroup
p109
g5
NtRp110
(dp111
g106
(dp112
S'en'
p113
g99
ssS'titles'
p114
g68
sbsS'_addressTypes'
p115
(lp116
g3
(csefaria.model.schema
AddressInteger
p117
g5
NtRp118
(dp119
S'length'
p120
I18
sg49
I0
sbag3
(g117
g5
NtRp121
(dp122
g120
Nsg49
I1
sbasS'sharedTitle'
p123
Nsg64
g65
sg66
I2
sS'_full_title'
p124
(dp125
g113
g99
ssS'key'
p126
g14
sS'checkFirst'
p127
NsS'_regexes'
p128
(dp129
sS'_leaf_nodes'
p130
(lp131
sg102
g103
sS'children'
p132
(lp133
sbsS'_range_index'
p134
NsS'_context'
p135
(dp136
sS'_padded'
p137
Nsg25
g27
sS'sections'
p138
(lp139
I1
aI1
asS'_first_spanned_ref'
p140
NsS'tref'
p141
VTosefta Shabbat 1:1
p142
sS'_spanned_refs'
p143
(lp144
sS'book'
p145
g99
sS'_range_depth'
p146
NsS'toSections'
p147
(lp148
I1
aI1
asS'_url'
p149
NsS'_normal'
p150
g142
sS'_ranged_refs'
p151
(lp152
sS'type'
p153
g60
sS'_prev'
p154
NsS'_he_normal'
p155
NsS'_next'
p156
Nsbag3
(g4
g5
NtRp157
(dp158
g8
g10
sg134
Nsg135
(dp159
sg137
Nsg25
g27
sg138
(lp160
I1
aI2
asg140
Nsg141
VTosefta Shabbat 1:2
p161
sg143
(lp162
sg145
g99
sg146
Nsg147
(lp163
I1
aI2
asg149
Nsg150
g161
sg151
(lp164
sg153
g60
sg154
Nsg155
Nsg156
Nsbag3
(g4
g5
NtRp165
(dp166
g8
g10
sg134
Nsg135
(dp167
sg137
Nsg25
g27
sg138
(lp168
I1
aI3
asg140
Nsg141
VTosefta Shabbat 1:3
p169
sg143
(lp170
sg145
g99
sg146
Nsg147
(lp171
I1
aI3
asg149
Nsg150
g169
sg151
(lp172
sg153
g60
sg154
Nsg155
Nsg156
Nsbag3
(g4
g5
NtRp173
(dp174
g8
g10
sg134
Nsg135
(dp175
sg137
Nsg25
g27
sg138
(lp176
I1
aI4
asg140
Nsg141
VTosefta Shabbat 1:4
p177
sg143
(lp178
sg145
g99
sg146
Nsg147
(lp179
I1
aI4
asg149
Nsg150
g177
sg151
(lp180
sg153
g60
sg154
Nsg155
Nsg156
Nsbag3
(g4
g5
NtRp181
(dp182
g8
g10
sg134
Nsg135
(dp183
sg137
Nsg25
g27
sg138
(lp184
I1
aI5
asg140
Nsg141
VTosefta Shabbat 1:5
p185
sg143
(lp186
sg145
g99
sg146
Nsg147
(lp187
I1
aI5
asg149
Nsg150
g185
sg151
(lp188
sg153
g60
sg154
Nsg155
Nsg156
Nsbag3
(g4
g5
NtRp189
(dp190
g8
g10
sg134
Nsg135
(dp191
sg137
Nsg25
g27
sg138
(lp192
I1
aI6
asg140
Nsg141
VTosefta Shabbat 1:6
p193
sg143
(lp194
sg145
g99
sg146
Nsg147
(lp195
I1
aI6
asg149
Nsg150
g193
sg151
(lp196
sg153
g60
sg154
Nsg155
Nsg156
Nsbag3
(g4
g5
NtRp197
(dp198
g8
g10
sg134
Nsg135
(dp199
sg137
Nsg25
g27
sg138
(lp200
I1
aI7
asg140
Nsg141
VTosefta Shabbat 1:7
p201
sg143
(lp202
sg145
g99
sg146
Nsg147
(lp203
I1
aI7
asg149
Nsg150
g201
sg151
(lp204
sg153
g60
sg154
Nsg155
Nsg156
Nsbag3
(g4
g5
NtRp205
(dp206
g8
g10
sg134
Nsg135
(dp207
sg137
Nsg25
g27
sg138
(lp208
I1
aI8
asg140
Nsg141
VTosefta Shabbat 1:8
p209
sg143
(lp210
sg145
g99
sg146
Nsg147
(lp211
I1
aI8
asg149
Nsg150
g209
sg151
(lp212
sg153
g60
sg154
Nsg155
Nsg156
Nsbag3
(g4
g5
NtRp213
(dp214
g8
g10
sg134
Nsg135
(dp215
sg137
Nsg25
g27
sg138
(lp216
I1
aI9
asg140
Nsg141
VTosefta Shabbat 1:9
p217
sg143
(lp218
sg145
g99
sg146
Nsg147
(lp219
I1
aI9
asg149
Nsg150
g217
sg151
(lp220
sg153
g60
sg154
Nsg155
Nsg156
Nsbag3
(g4
g5
NtRp221
(dp222
g8
g10
sg134
Nsg135
(dp223
sg137
Nsg25
g27
sg138
(lp224
I1
aI10
asg140
Nsg141
VTosefta Shabbat 1:10
p225
sg143
(lp226
sg145
g99
sg146
Nsg147
(lp227
I1
aI10
asg149
Nsg150
g225
sg151
(lp228
sg153
g60
sg154
Nsg155
Nsg156
Nsbag3
(g4
g5
NtRp229
(dp230
g8
g10
sg134
Nsg135
(dp231
sg137
Nsg25
g27
sg138
(lp232
I1
aI11
asg140
Nsg141
VTosefta Shabbat 1:11
p233
sg143
(lp234
sg145
g99
sg146
Nsg147
(lp235
I1
aI11
asg149
Nsg150
g233
sg151
(lp236
sg153
g60
sg154
Nsg155
Nsg156
Nsbag3
(g4
g5
NtRp237
(dp238
g8
g10
sg134
Nsg135
(dp239
sg137
Nsg25
g27
sg138
(lp240
I2
aI1
asg140
Nsg141
VTosefta Shabbat 2:1
p241
sg143
(lp242
sg145
g99
sg146
Nsg147
(lp243
I2
aI1
asg149
Nsg150
g241
sg151
(lp244
sg153
g60
sg154
Nsg155
Nsg156
Nsbag3
(g4
g5
NtRp245
(dp246
g8
g10
sg134
Nsg135
(dp247
sg137
Nsg25
g27
sg138
(lp248
I2
aI2
asg140
Nsg141
VTosefta Shabbat 2:2
p249
sg143
(lp250
sg145
g99
sg146
Nsg147
(lp251
I2
aI2
asg149
Nsg150
g249
sg151
(lp252
sg153
g60
sg154
Nsg155
Nsg156
Nsbag3
(g4
g5
NtRp253
(dp254
g8
g10
sg134
Nsg135
(dp255
sg137
Nsg25
g27
sg138
(lp256
I2
aI3
asg140
Nsg141
VTosefta Shabbat 2:3
p257
sg143
(lp258
sg145
g99
sg146
Nsg147
(lp259
I2
aI3
asg149
Nsg150
g257
sg151
(lp260
sg153
g60
sg154
Nsg155
Nsg156
Nsbag3
(g4
g5
NtRp261
(dp262
g8
g10
sg134
Nsg135
(dp263
sg137
Nsg25
g27
sg138
(lp264
I2
aI4
asg140
Nsg141
VTosefta Shabbat 2:4
p265
sg143
(lp266
sg145
g99
sg146
Nsg147
(lp267
I2
aI4
asg149
Nsg150
g265
sg151
(lp268
sg153
g60
sg154
Nsg155
Nsg156
Nsbag3
(g4
g5
NtRp269
(dp270
g8
g10
sg134
Nsg135
(dp271
sg137
Nsg25
g27
sg138
(lp272
I2
aI5
asg140
Nsg141
VTosefta Shabbat 2:5
p273
sg143
(lp274
sg145
g99
sg146
Nsg147
(lp275
I2
aI5
asg149
Nsg150
g273
sg151
(lp276
sg153
g60
sg154
Nsg155
Nsg156
Nsbag3
(g4
g5
NtRp277
(dp278
g8
g10
sg134
Nsg135
(dp279
sg137
Nsg25
g27
sg138
(lp280
I2
aI6
asg140
Nsg141
VTosefta Shabbat 2:6
p281
sg143
(lp282
sg145
g99
sg146
Nsg147
(lp283
I2
aI6
asg149
Nsg150
g281
sg151
(lp284
sg153
g60
sg154
Nsg155
Nsg156
Nsbag3
(g4
g5
NtRp285
(dp286
g8
g10
sg134
Nsg135
(dp287
sg137
Nsg25
g27
sg138
(lp288
I2
aI7
asg140
Nsg141
VTosefta Shabbat 2:7
p289
sg143
(lp290
sg145
g99
sg146
Nsg147
(lp291
I2
aI7
asg149
Nsg150
g289
sg151
(lp292
sg153
g60
sg154
Nsg155
Nsg156
Nsbag3
(g4
g5
NtRp293
(dp294
g8
g10
sg134
Nsg135
(dp295
sg137
Nsg25
g27
sg138
(lp296
I2
aI8
asg140
Nsg141
VTosefta Shabbat 2:8
p297
sg143
(lp298
sg145
g99
sg146
Nsg147
(lp299
I2
aI8
asg149
Nsg150
g297
sg151
(lp300
sg153
g60
sg154
Nsg155
Nsg156
Nsbag3
(g4
g5
NtRp301
(dp302
g8
g10
sg134
Nsg135
(dp303
sg137
Nsg25
g27
sg138
(lp304
I2
aI9
asg140
Nsg141
VTosefta Shabbat 2:9
p305
sg143
(lp306
sg145
g99
sg146
Nsg147
(lp307
I2
aI9
asg149
Nsg150
g305
sg151
(lp308
sg153
g60
sg154
Nsg155
Nsg156
Nsbag3
(g4
g5
NtRp309
(dp310
g8
g10
sg134
Nsg135
(dp311
sg137
Nsg25
g27
sg138
(lp312
I3
aI1
asg140
Nsg141
VTosefta Shabbat 3:1
p313
sg143
(lp314
sg145
g99
sg146
Nsg147
(lp315
I3
aI1
asg149
Nsg150
g313
sg151
(lp316
sg153
g60
sg154
Nsg155
Nsg156
Nsbag3
(g4
g5
NtRp317
(dp318
g8
g10
sg134
Nsg135
(dp319
sg137
Nsg25
g27
sg138
(lp320
I3
aI2
asg140
Nsg141
VTosefta Shabbat 3:2
p321
sg143
(lp322
sg145
g99
sg146
Nsg147
(lp323
I3
aI2
asg149
Nsg150
g321
sg151
(lp324
sg153
g60
sg154
Nsg155
Nsg156
Nsbag3
(g4
g5
NtRp325
(dp326
g8
g10
sg134
Nsg135
(dp327
sg137
Nsg25
g27
sg138
(lp328
I3
aI3
asg140
Nsg141
VTosefta Shabbat 3:3
p329
sg143
(lp330
sg145
g99
sg146
Nsg147
(lp331
I3
aI3
asg149
Nsg150
g329
sg151
(lp332
sg153
g60
sg154
Nsg155
Nsg156
Nsbag3
(g4
g5
NtRp333
(dp334
g8
g10
sg134
Nsg135
(dp335
sg137
Nsg25
g27
sg138
(lp336
I3
aI4
asg140
Nsg141
VTosefta Shabbat 3:4
p337
sg143
(lp338
sg145
g99
sg146
Nsg147
(lp339
I3
aI4
asg149
Nsg150
g337
sg151
(lp340
sg153
g60
sg154
Nsg155
Nsg156
Nsbag3
(g4
g5
NtRp341
(dp342
g8
g10
sg134
Nsg135
(dp343
sg137
Nsg25
g27
sg138
(lp344
I3
aI5
asg140
Nsg141
VTosefta Shabbat 3:5
p345
sg143
(lp346
sg145
g99
sg146
Nsg147
(lp347
I3
aI5
asg149
Nsg150
g345
sg151
(lp348
sg153
g60
sg154
Nsg155
Nsg156
Nsbag3
(g4
g5
NtRp349
(dp350
g8
g10
sg134
Nsg135
(dp351
sg137
Nsg25
g27
sg138
(lp352
I3
aI6
asg140
Nsg141
VTosefta Shabbat 3:6
p353
sg143
(lp354
sg145
g99
sg146
Nsg147
(lp355
I3
aI6
asg149
Nsg150
g353
sg151
(lp356
sg153
g60
sg154
Nsg155
Nsg156
Nsbag3
(g4
g5
NtRp357
(dp358
g8
g10
sg134
Nsg135
(dp359
sg137
Nsg25
g27
sg138
(lp360
I4
aI1
asg140
Nsg141
VTosefta Shabbat 4:1
p361
sg143
(lp362
sg145
g99
sg146
Nsg147
(lp363
I4
aI1
asg149
Nsg150
g361
sg151
(lp364
sg153
g60
sg154
Nsg155
Nsg156
Nsbag3
(g4
g5
NtRp365
(dp366
g8
g10
sg134
Nsg135
(dp367
sg137
Nsg25
g27
sg138
(lp368
I4
aI2
asg140
Nsg141
VTosefta Shabbat 4:2
p369
sg143
(lp370
sg145
g99
sg146
Nsg147
(lp371
I4
aI2
asg149
Nsg150
g369
sg151
(lp372
sg153
g60
sg154
Nsg155
Nsg156
Nsbag3
(g4
g5
NtRp373
(dp374
g8
g10
sg134
Nsg135
(dp375
sg137
Nsg25
g27
sg138
(lp376
I4
aI3
asg140
Nsg141
VTosefta Shabbat 4:3
p377
sg143
(lp378
sg145
g99
sg146
Nsg147
(lp379
I4
aI3
asg149
Nsg150
g377
sg151
(lp380
sg153
g60
sg154
Nsg155
Nsg156
Nsbag3
(g4
g5
NtRp381
(dp382
g8
g10
sg134
Nsg135
(dp383
sg137
Nsg25
g27
sg138
(lp384
I4
aI4
asg140
Nsg141
VTosefta Shabbat 4:4
p385
sg143
(lp386
sg145
g99
sg146
Nsg147
(lp387
I4
aI4
asg149
Nsg150
g385
sg151
(lp388
sg153
g60
sg154
Nsg155
Nsg156
Nsbag3
(g4
g5
NtRp389
(dp390
g8
g10
sg134
Nsg135
(dp391
sg137
Nsg25
g27
sg138
(lp392
I4
aI5
asg140
Nsg141
VTosefta Shabbat 4:5
p393
sg143
(lp394
sg145
g99
sg146
Nsg147
(lp395
I4
aI5
asg149
Nsg150
g393
sg151
(lp396
sg153
g60
sg154
Nsg155
Nsg156
Nsbag3
(g4
g5
NtRp397
(dp398
g8
g10
sg134
Nsg135
(dp399
sg137
Nsg25
g27
sg138
(lp400
I4
aI6
asg140
Nsg141
VTosefta Shabbat 4:6
p401
sg143
(lp402
sg145
g99
sg146
Nsg147
(lp403
I4
aI6
asg149
Nsg150
g401
sg151
(lp404
sg153
g60
sg154
Nsg155
Nsg156
Nsbag3
(g4
g5
NtRp405
(dp406
g8
g10
sg134
Nsg135
(dp407
sg137
Nsg25
g27
sg138
(lp408
I4
aI7
asg140
Nsg141
VTosefta Shabbat 4:7
p409
sg143
(lp410
sg145
g99
sg146
Nsg147
(lp411
I4
aI7
asg149
Nsg150
g409
sg151
(lp412
sg153
g60
sg154
Nsg155
Nsg156
Nsbag3
(g4
g5
NtRp413
(dp414
g8
g10
sg134
Nsg135
(dp415
sg137
Nsg25
g27
sg138
(lp416
I4
aI8
asg140
Nsg141
VTosefta Shabbat 4:8
p417
sg143
(lp418
sg145
g99
sg146
Nsg147
(lp419
I4
aI8
asg149
Nsg150
g417
sg151
(lp420
sg153
g60
sg154
Nsg155
Nsg156
Nsbag3
(g4
g5
NtRp421
(dp422
g8
g10
sg134
Nsg135
(dp423
sg137
Nsg25
g27
sg138
(lp424
I4
aI9
asg140
Nsg141
VTosefta Shabbat 4:9
p425
sg143
(lp426
sg145
g99
sg146
Nsg147
(lp427
I4
aI9
asg149
Nsg150
g425
sg151
(lp428
sg153
g60
sg154
Nsg155
Nsg156
Nsbag3
(g4
g5
NtRp429
(dp430
g8
g10
sg134
Nsg135
(dp431
sg137
Nsg25
g27
sg138
(lp432
I4
aI10
asg140
Nsg141
VTosefta Shabbat 4:10
p433
sg143
(lp434
sg145
g99
sg146
Nsg147
(lp435
I4
aI10
asg149
Nsg150
g433
sg151
(lp436
sg153
g60
sg154
Nsg155
Nsg156
Nsbag3
(g4
g5
NtRp437
(dp438
g8
g10
sg134
Nsg135
(dp439
sg137
Nsg25
g27
sg138
(lp440
I4
aI11
asg140
Nsg141
VTosefta Shabbat 4:11
p441
sg143
(lp442
sg145
g99
sg146
Nsg147
(lp443
I4
aI11
asg149
Nsg150
g441
sg151
(lp444
sg153
g60
sg154
Nsg155
Nsg156
Nsbag3
(g4
g5
NtRp445
(dp446
g8
g10
sg134
Nsg135
(dp447
sg137
Nsg25
g27
sg138
(lp448
I4
aI12
asg140
Nsg141
VTosefta Shabbat 4:12
p449
sg143
(lp450
sg145
g99
sg146
Nsg147
(lp451
I4
aI12
asg149
Nsg150
g449
sg151
(lp452
sg153
g60
sg154
Nsg155
Nsg156
Nsbag3
(g4
g5
NtRp453
(dp454
g8
g10
sg134
Nsg135
(dp455
sg137
Nsg25
g27
sg138
(lp456
I4
aI13
asg140
Nsg141
VTosefta Shabbat 4:13
p457
sg143
(lp458
sg145
g99
sg146
Nsg147
(lp459
I4
aI13
asg149
Nsg150
g457
sg151
(lp460
sg153
g60
sg154
Nsg155
Nsg156
Nsbag3
(g4
g5
NtRp461
(dp462
g8
g10
sg134
Nsg135
(dp463
sg137
Nsg25
g27
sg138
(lp464
I4
aI14
asg140
Nsg141
VTosefta Shabbat 4:14
p465
sg143
(lp466
sg145
g99
sg146
Nsg147
(lp467
I4
aI14
asg149
Nsg150
g465
sg151
(lp468
sg153
g60
sg154
Nsg155
Nsg156
Nsbag3
(g4
g5
NtRp469
(dp470
g8
g10
sg134
Nsg135
(dp471
sg137
Nsg25
g27
sg138
(lp472
I4
aI15
asg140
Nsg141
VTosefta Shabbat 4:15
p473
sg143
(lp474
sg145
g99
sg146
Nsg147
(lp475
I4
aI15
asg149
Nsg150
g473
sg151
(lp476
sg153
g60
sg154
Nsg155
Nsg156
Nsbag3
(g4
g5
NtRp477
(dp478
g8
g10
sg134
Nsg135
(dp479
sg137
Nsg25
g27
sg138
(lp480
I5
aI1
asg140
Nsg141
VTosefta Shabbat 5:1
p481
sg143
(lp482
sg145
g99
sg146
Nsg147
(lp483
I5
aI1
asg149
Nsg150
g481
sg151
(lp484
sg153
g60
sg154
Nsg155
Nsg156
Nsbag3
(g4
g5
NtRp485
(dp486
g8
g10
sg134
Nsg135
(dp487
sg137
Nsg25
g27
sg138
(lp488
I5
aI2
asg140
Nsg141
VTosefta Shabbat 5:2
p489
sg143
(lp490
sg145
g99
sg146
Nsg147
(lp491
I5
aI2
asg149
Nsg150
g489
sg151
(lp492
sg153
g60
sg154
Nsg155
Nsg156
Nsbag3
(g4
g5
NtRp493
(dp494
g8
g10
sg134
Nsg135
(dp495
sg137
Nsg25
g27
sg138
(lp496
I5
aI3
asg140
Nsg141
VTosefta Shabbat 5:3
p497
sg143
(lp498
sg145
g99
sg146
Nsg147
(lp499
I5
aI3
asg149
Nsg150
g497
sg151
(lp500
sg153
g60
sg154
Nsg155
Nsg156
Nsbag3
(g4
g5
NtRp501
(dp502
g8
g10
sg134
Nsg135
(dp503
sg137
Nsg25
g27
sg138
(lp504
I5
aI4
asg140
Nsg141
VTosefta Shabbat 5:4
p505
sg143
(lp506
sg145
g99
sg146
Nsg147
(lp507
I5
aI4
asg149
Nsg150
g505
sg151
(lp508
sg153
g60
sg154
Nsg155
Nsg156
Nsbag3
(g4
g5
NtRp509
(dp510
g8
g10
sg134
Nsg135
(dp511
sg137
Nsg25
g27
sg138
(lp512
I5
aI5
asg140
Nsg141
VTosefta Shabbat 5:5
p513
sg143
(lp514
sg145
g99
sg146
Nsg147
(lp515
I5
aI5
asg149
Nsg150
g513
sg151
(lp516
sg153
g60
sg154
Nsg155
Nsg156
Nsbag3
(g4
g5
NtRp517
(dp518
g8
g10
sg134
Nsg135
(dp519
sg137
Nsg25
g27
sg138
(lp520
I5
aI6
asg140
Nsg141
VTosefta Shabbat 5:6
p521
sg143
(lp522
sg145
g99
sg146
Nsg147
(lp523
I5
aI6
asg149
Nsg150
g521
sg151
(lp524
sg153
g60
sg154
Nsg155
Nsg156
Nsbag3
(g4
g5
NtRp525
(dp526
g8
g10
sg134
Nsg135
(dp527
sg137
Nsg25
g27
sg138
(lp528
I5
aI7
asg140
Nsg141
VTosefta Shabbat 5:7
p529
sg143
(lp530
sg145
g99
sg146
Nsg147
(lp531
I5
aI7
asg149
Nsg150
g529
sg151
(lp532
sg153
g60
sg154
Nsg155
Nsg156
Nsbag3
(g4
g5
NtRp533
(dp534
g8
g10
sg134
Nsg135
(dp535
sg137
Nsg25
g27
sg138
(lp536
I5
aI8
asg140
Nsg141
VTosefta Shabbat 5:8
p537
sg143
(lp538
sg145
g99
sg146
Nsg147
(lp539
I5
aI8
asg149
Nsg150
g537
sg151
(lp540
sg153
g60
sg154
Nsg155
Nsg156
Nsbag3
(g4
g5
NtRp541
(dp542
g8
g10
sg134
Nsg135
(dp543
sg137
Nsg25
g27
sg138
(lp544
I5
aI9
asg140
Nsg141
VTosefta Shabbat 5:9
p545
sg143
(lp546
sg145
g99
sg146
Nsg147
(lp547
I5
aI9
asg149
Nsg150
g545
sg151
(lp548
sg153
g60
sg154
Nsg155
Nsg156
Nsbag3
(g4
g5
NtRp549
(dp550
g8
g10
sg134
Nsg135
(dp551
sg137
Nsg25
g27
sg138
(lp552
I5
aI10
asg140
Nsg141
VTosefta Shabbat 5:10
p553
sg143
(lp554
sg145
g99
sg146
Nsg147
(lp555
I5
aI10
asg149
Nsg150
g553
sg151
(lp556
sg153
g60
sg154
Nsg155
Nsg156
Nsbag3
(g4
g5
NtRp557
(dp558
g8
g10
sg134
Nsg135
(dp559
sg137
Nsg25
g27
sg138
(lp560
I6
aI1
asg140
Nsg141
VTosefta Shabbat 6:1
p561
sg143
(lp562
sg145
g99
sg146
Nsg147
(lp563
I6
aI1
asg149
Nsg150
g561
sg151
(lp564
sg153
g60
sg154
Nsg155
Nsg156
Nsbag3
(g4
g5
NtRp565
(dp566
g8
g10
sg134
Nsg135
(dp567
sg137
Nsg25
g27
sg138
(lp568
I6
aI2
asg140
Nsg141
VTosefta Shabbat 6:2
p569
sg143
(lp570
sg145
g99
sg146
Nsg147
(lp571
I6
aI2
asg149
Nsg150
g569
sg151
(lp572
sg153
g60
sg154
Nsg155
Nsg156
Nsbag3
(g4
g5
NtRp573
(dp574
g8
g10
sg134
Nsg135
(dp575
sg137
Nsg25
g27
sg138
(lp576
I6
aI3
asg140
Nsg141
VTosefta Shabbat 6:3
p577
sg143
(lp578
sg145
g99
sg146
Nsg147
(lp579
I6
aI3
asg149
Nsg150
g577
sg151
(lp580
sg153
g60
sg154
Nsg155
Nsg156
Nsbag3
(g4
g5
NtRp581
(dp582
g8
g10
sg134
Nsg135
(dp583
sg137
Nsg25
g27
sg138
(lp584
I6
aI4
asg140
Nsg141
VTosefta Shabbat 6:4
p585
sg143
(lp586
sg145
g99
sg146
Nsg147
(lp587
I6
aI4
asg149
Nsg150
g585
sg151
(lp588
sg153
g60
sg154
Nsg155
Nsg156
Nsbag3
(g4
g5
NtRp589
(dp590
g8
g10
sg134
Nsg135
(dp591
sg137
Nsg25
g27
sg138
(lp592
I6
aI5
asg140
Nsg141
VTosefta Shabbat 6:5
p593
sg143
(lp594
sg145
g99
sg146
Nsg147
(lp595
I6
aI5
asg149
Nsg150
g593
sg151
(lp596
sg153
g60
sg154
Nsg155
Nsg156
Nsbag3
(g4
g5
NtRp597
(dp598
g8
g10
sg134
Nsg135
(dp599
sg137
Nsg25
g27
sg138
(lp600
I6
aI6
asg140
Nsg141
VTosefta Shabbat 6:6
p601
sg143
(lp602
sg145
g99
sg146
Nsg147
(lp603
I6
aI6
asg149
Nsg150
g601
sg151
(lp604
sg153
g60
sg154
Nsg155
Nsg156
Nsbag3
(g4
g5
NtRp605
(dp606
g8
g10
sg134
Nsg135
(dp607
sg137
Nsg25
g27
sg138
(lp608
I6
aI7
asg140
Nsg141
VTosefta Shabbat 6:7
p609
sg143
(lp610
sg145
g99
sg146
Nsg147
(lp611
I6
aI7
asg149
Nsg150
g609
sg151
(lp612
sg153
g60
sg154
Nsg155
Nsg156
Nsbag3
(g4
g5
NtRp613
(dp614
g8
g10
sg134
Nsg135
(dp615
sg137
Nsg25
g27
sg138
(lp616
I7
aI1
asg140
Nsg141
VTosefta Shabbat 7:1
p617
sg143
(lp618
sg145
g99
sg146
Nsg147
(lp619
I7
aI1
asg149
Nsg150
g617
sg151
(lp620
sg153
g60
sg154
Nsg155
Nsg156
Nsbag3
(g4
g5
NtRp621
(dp622
g8
g10
sg134
Nsg135
(dp623
sg137
Nsg25
g27
sg138
(lp624
I7
aI2
asg140
Nsg141
VTosefta Shabbat 7:2
p625
sg143
(lp626
sg145
g99
sg146
Nsg147
(lp627
I7
aI2
asg149
Nsg150
g625
sg151
(lp628
sg153
g60
sg154
Nsg155
Nsg156
Nsbag3
(g4
g5
NtRp629
(dp630
g8
g10
sg134
Nsg135
(dp631
sg137
Nsg25
g27
sg138
(lp632
I7
aI3
asg140
Nsg141
VTosefta Shabbat 7:3
p633
sg143
(lp634
sg145
g99
sg146
Nsg147
(lp635
I7
aI3
asg149
Nsg150
g633
sg151
(lp636
sg153
g60
sg154
Nsg155
Nsg156
Nsbag3
(g4
g5
NtRp637
(dp638
g8
g10
sg134
Nsg135
(dp639
sg137
Nsg25
g27
sg138
(lp640
I7
aI4
asg140
Nsg141
VTosefta Shabbat 7:4
p641
sg143
(lp642
sg145
g99
sg146
Nsg147
(lp643
I7
aI4
asg149
Nsg150
g641
sg151
(lp644
sg153
g60
sg154
Nsg155
Nsg156
Nsbag3
(g4
g5
NtRp645
(dp646
g8
g10
sg134
Nsg135
(dp647
sg137
Nsg25
g27
sg138
(lp648
I7
aI5
asg140
Nsg141
VTosefta Shabbat 7:5
p649
sg143
(lp650
sg145
g99
sg146
Nsg147
(lp651
I7
aI5
asg149
Nsg150
g649
sg151
(lp652
sg153
g60
sg154
Nsg155
Nsg156
Nsbag3
(g4
g5
NtRp653
(dp654
g8
g10
sg134
Nsg135
(dp655
sg137
Nsg25
g27
sg138
(lp656
I7
aI6
asg140
Nsg141
VTosefta Shabbat 7:6
p657
sg143
(lp658
sg145
g99
sg146
Nsg147
(lp659
I7
aI6
asg149
Nsg150
g657
sg151
(lp660
sg153
g60
sg154
Nsg155
Nsg156
Nsbag3
(g4
g5
NtRp661
(dp662
g8
g10
sg134
Nsg135
(dp663
sg137
Nsg25
g27
sg138
(lp664
I7
aI7
asg140
Nsg141
VTosefta Shabbat 7:7
p665
sg143
(lp666
sg145
g99
sg146
Nsg147
(lp667
I7
aI7
asg149
Nsg150
g665
sg151
(lp668
sg153
g60
sg154
Nsg155
Nsg156
Nsbag3
(g4
g5
NtRp669
(dp670
g8
g10
sg134
Nsg135
(dp671
sg137
Nsg25
g27
sg138
(lp672
I7
aI8
asg140
Nsg141
VTosefta Shabbat 7:8
p673
sg143
(lp674
sg145
g99
sg146
Nsg147
(lp675
I7
aI8
asg149
Nsg150
g673
sg151
(lp676
sg153
g60
sg154
Nsg155
Nsg156
Nsbag3
(g4
g5
NtRp677
(dp678
g8
g10
sg134
Nsg135
(dp679
sg137
Nsg25
g27
sg138
(lp680
I7
aI9
asg140
Nsg141
VTosefta Shabbat 7:9
p681
sg143
(lp682
sg145
g99
sg146
Nsg147
(lp683
I7
aI9
asg149
Nsg150
g681
sg151
(lp684
sg153
g60
sg154
Nsg155
Nsg156
Nsbag3
(g4
g5
NtRp685
(dp686
g8
g10
sg134
Nsg135
(dp687
sg137
Nsg25
g27
sg138
(lp688
I7
aI10
asg140
Nsg141
VTosefta Shabbat 7:10
p689
sg143
(lp690
sg145
g99
sg146
Nsg147
(lp691
I7
aI10
asg149
Nsg150
g689
sg151
(lp692
sg153
g60
sg154
Nsg155
Nsg156
Nsbag3
(g4
g5
NtRp693
(dp694
g8
g10
sg134
Nsg135
(dp695
sg137
Nsg25
g27
sg138
(lp696
I8
aI1
asg140
Nsg141
VTosefta Shabbat 8:1
p697
sg143
(lp698
sg145
g99
sg146
Nsg147
(lp699
I8
aI1
asg149
Nsg150
g697
sg151
(lp700
sg153
g60
sg154
Nsg155
Nsg156
Nsbag3
(g4
g5
NtRp701
(dp702
g8
g10
sg134
Nsg135
(dp703
sg137
Nsg25
g27
sg138
(lp704
I8
aI2
asg140
Nsg141
VTosefta Shabbat 8:2
p705
sg143
(lp706
sg145
g99
sg146
Nsg147
(lp707
I8
aI2
asg149
Nsg150
g705
sg151
(lp708
sg153
g60
sg154
Nsg155
Nsg156
Nsbag3
(g4
g5
NtRp709
(dp710
g8
g10
sg134
Nsg135
(dp711
sg137
Nsg25
g27
sg138
(lp712
I8
aI3
asg140
Nsg141
VTosefta Shabbat 8:3
p713
sg143
(lp714
sg145
g99
sg146
Nsg147
(lp715
I8
aI3
asg149
Nsg150
g713
sg151
(lp716
sg153
g60
sg154
Nsg155
Nsg156
Nsbag3
(g4
g5
NtRp717
(dp718
g8
g10
sg134
Nsg135
(dp719
sg137
Nsg25
g27
sg138
(lp720
I8
aI4
asg140
Nsg141
VTosefta Shabbat 8:4
p721
sg143
(lp722
sg145
g99
sg146
Nsg147
(lp723
I8
aI4
asg149
Nsg150
g721
sg151
(lp724
sg153
g60
sg154
Nsg155
Nsg156
Nsbag3
(g4
g5
NtRp725
(dp726
g8
g10
sg134
Nsg135
(dp727
sg137
Nsg25
g27
sg138
(lp728
I8
aI5
asg140
Nsg141
VTosefta Shabbat 8:5
p729
sg143
(lp730
sg145
g99
sg146
Nsg147
(lp731
I8
aI5
asg149
Nsg150
g729
sg151
(lp732
sg153
g60
sg154
Nsg155
Nsg156
Nsbag3
(g4
g5
NtRp733
(dp734
g8
g10
sg134
Nsg135
(dp735
sg137
Nsg25
g27
sg138
(lp736
I8
aI6
asg140
Nsg141
VTosefta Shabbat 8:6
p737
sg143
(lp738
sg145
g99
sg146
Nsg147
(lp739
I8
aI6
asg149
Nsg150
g737
sg151
(lp740
sg153
g60
sg154
Nsg155
Nsg156
Nsbag3
(g4
g5
NtRp741
(dp742
g8
g10
sg134
Nsg135
(dp743
sg137
Nsg25
g27
sg138
(lp744
I8
aI7
asg140
Nsg141
VTosefta Shabbat 8:7
p745
sg143
(lp746
sg145
g99
sg146
Nsg147
(lp747
I8
aI7
asg149
Nsg150
g745
sg151
(lp748
sg153
g60
sg154
Nsg155
Nsg156
Nsbag3
(g4
g5
NtRp749
(dp750
g8
g10
sg134
Nsg135
(dp751
sg137
Nsg25
g27
sg138
(lp752
I8
aI8
asg140
Nsg141
VTosefta Shabbat 8:8
p753
sg143
(lp754
sg145
g99
sg146
Nsg147
(lp755
I8
aI8
asg149
Nsg150
g753
sg151
(lp756
sg153
g60
sg154
Nsg155
Nsg156
Nsbag3
(g4
g5
NtRp757
(dp758
g8
g10
sg134
Nsg135
(dp759
sg137
Nsg25
g27
sg138
(lp760
I8
aI9
asg140
Nsg141
VTosefta Shabbat 8:9
p761
sg143
(lp762
sg145
g99
sg146
Nsg147
(lp763
I8
aI9
asg149
Nsg150
g761
sg151
(lp764
sg153
g60
sg154
Nsg155
Nsg156
Nsbag3
(g4
g5
NtRp765
(dp766
g8
g10
sg134
Nsg135
(dp767
sg137
Nsg25
g27
sg138
(lp768
I8
aI10
asg140
Nsg141
VTosefta Shabbat 8:10
p769
sg143
(lp770
sg145
g99
sg146
Nsg147
(lp771
I8
aI10
asg149
Nsg150
g769
sg151
(lp772
sg153
g60
sg154
Nsg155
Nsg156
Nsbag3
(g4
g5
NtRp773
(dp774
g8
g10
sg134
Nsg135
(dp775
sg137
Nsg25
g27
sg138
(lp776
I8
aI11
asg140
Nsg141
VTosefta Shabbat 8:11
p777
sg143
(lp778
sg145
g99
sg146
Nsg147
(lp779
I8
aI11
asg149
Nsg150
g777
sg151
(lp780
sg153
g60
sg154
Nsg155
Nsg156
Nsbag3
(g4
g5
NtRp781
(dp782
g8
g10
sg134
Nsg135
(dp783
sg137
Nsg25
g27
sg138
(lp784
I8
aI12
asg140
Nsg141
VTosefta Shabbat 8:12
p785
sg143
(lp786
sg145
g99
sg146
Nsg147
(lp787
I8
aI12
asg149
Nsg150
g785
sg151
(lp788
sg153
g60
sg154
Nsg155
Nsg156
Nsbag3
(g4
g5
NtRp789
(dp790
g8
g10
sg134
Nsg135
(dp791
sg137
Nsg25
g27
sg138
(lp792
I9
aI1
asg140
Nsg141
VTosefta Shabbat 9:1
p793
sg143
(lp794
sg145
g99
sg146
Nsg147
(lp795
I9
aI1
asg149
Nsg150
g793
sg151
(lp796
sg153
g60
sg154
Nsg155
Nsg156
Nsbag3
(g4
g5
NtRp797
(dp798
g8
g10
sg134
Nsg135
(dp799
sg137
Nsg25
g27
sg138
(lp800
I9
aI2
asg140
Nsg141
VTosefta Shabbat 9:2
p801
sg143
(lp802
sg145
g99
sg146
Nsg147
(lp803
I9
aI2
asg149
Nsg150
g801
sg151
(lp804
sg153
g60
sg154
Nsg155
Nsg156
Nsbag3
(g4
g5
NtRp805
(dp806
g8
g10
sg134
Nsg135
(dp807
sg137
Nsg25
g27
sg138
(lp808
I9
aI3
asg140
Nsg141
VTosefta Shabbat 9:3
p809
sg143
(lp810
sg145
g99
sg146
Nsg147
(lp811
I9
aI3
asg149
Nsg150
g809
sg151
(lp812
sg153
g60
sg154
Nsg155
Nsg156
Nsbag3
(g4
g5
NtRp813
(dp814
g8
g10
sg134
Nsg135
(dp815
sg137
Nsg25
g27
sg138
(lp816
I9
aI4
asg140
Nsg141
VTosefta Shabbat 9:4
p817
sg143
(lp818
sg145
g99
sg146
Nsg147
(lp819
I9
aI4
asg149
Nsg150
g817
sg151
(lp820
sg153
g60
sg154
Nsg155
Nsg156
Nsbag3
(g4
g5
NtRp821
(dp822
g8
g10
sg134
Nsg135
(dp823
sg137
Nsg25
g27
sg138
(lp824
I9
aI5
asg140
Nsg141
VTosefta Shabbat 9:5
p825
sg143
(lp826
sg145
g99
sg146
Nsg147
(lp827
I9
aI5
asg149
Nsg150
g825
sg151
(lp828
sg153
g60
sg154
Nsg155
Nsg156
Nsbag3
(g4
g5
NtRp829
(dp830
g8
g10
sg134
Nsg135
(dp831
sg137
Nsg25
g27
sg138
(lp832
I9
aI6
asg140
Nsg141
VTosefta Shabbat 9:6
p833
sg143
(lp834
sg145
g99
sg146
Nsg147
(lp835
I9
aI6
asg149
Nsg150
g833
sg151
(lp836
sg153
g60
sg154
Nsg155
Nsg156
Nsbag3
(g4
g5
NtRp837
(dp838
g8
g10
sg134
Nsg135
(dp839
sg137
Nsg25
g27
sg138
(lp840
I9
aI7
asg140
Nsg141
VTosefta Shabbat 9:7
p841
sg143
(lp842
sg145
g99
sg146
Nsg147
(lp843
I9
aI7
asg149
Nsg150
g841
sg151
(lp844
sg153
g60
sg154
Nsg155
Nsg156
Nsbag3
(g4
g5
NtRp845
(dp846
g8
g10
sg134
Nsg135
(dp847
sg137
Nsg25
g27
sg138
(lp848
I9
aI8
asg140
Nsg141
VTosefta Shabbat 9:8
p849
sg143
(lp850
sg145
g99
sg146
Nsg147
(lp851
I9
aI8
asg149
Nsg150
g849
sg151
(lp852
sg153
g60
sg154
Nsg155
Nsg156
Nsbag3
(g4
g5
NtRp853
(dp854
g8
g10
sg134
Nsg135
(dp855
sg137
Nsg25
g27
sg138
(lp856
I9
aI9
asg140
Nsg141
VTosefta Shabbat 9:9
p857
sg143
(lp858
sg145
g99
sg146
Nsg147
(lp859
I9
aI9
asg149
Nsg150
g857
sg151
(lp860
sg153
g60
sg154
Nsg155
Nsg156
Nsbag3
(g4
g5
NtRp861
(dp862
g8
g10
sg134
Nsg135
(dp863
sg137
Nsg25
g27
sg138
(lp864
I9
aI10
asg140
Nsg141
VTosefta Shabbat 9:10
p865
sg143
(lp866
sg145
g99
sg146
Nsg147
(lp867
I9
aI10
asg149
Nsg150
g865
sg151
(lp868
sg153
g60
sg154
Nsg155
Nsg156
Nsbag3
(g4
g5
NtRp869
(dp870
g8
g10
sg134
Nsg135
(dp871
sg137
Nsg25
g27
sg138
(lp872
I9
aI11
asg140
Nsg141
VTosefta Shabbat 9:11
p873
sg143
(lp874
sg145
g99
sg146
Nsg147
(lp875
I9
aI11
asg149
Nsg150
g873
sg151
(lp876
sg153
g60
sg154
Nsg155
Nsg156
Nsbag3
(g4
g5
NtRp877
(dp878
g8
g10
sg134
Nsg135
(dp879
sg137
Nsg25
g27
sg138
(lp880
I9
aI12
asg140
Nsg141
VTosefta Shabbat 9:12
p881
sg143
(lp882
sg145
g99
sg146
Nsg147
(lp883
I9
aI12
asg149
Nsg150
g881
sg151
(lp884
sg153
g60
sg154
Nsg155
Nsg156
Nsbag3
(g4
g5
NtRp885
(dp886
g8
g10
sg134
Nsg135
(dp887
sg137
Nsg25
g27
sg138
(lp888
I9
aI13
asg140
Nsg141
VTosefta Shabbat 9:13
p889
sg143
(lp890
sg145
g99
sg146
Nsg147
(lp891
I9
aI13
asg149
Nsg150
g889
sg151
(lp892
sg153
g60
sg154
Nsg155
Nsg156
Nsbag3
(g4
g5
NtRp893
(dp894
g8
g10
sg134
Nsg135
(dp895
sg137
Nsg25
g27
sg138
(lp896
I9
aI14
asg140
Nsg141
VTosefta Shabbat 9:14
p897
sg143
(lp898
sg145
g99
sg146
Nsg147
(lp899
I9
aI14
asg149
Nsg150
g897
sg151
(lp900
sg153
g60
sg154
Nsg155
Nsg156
Nsbag3
(g4
g5
NtRp901
(dp902
g8
g10
sg134
Nsg135
(dp903
sg137
Nsg25
g27
sg138
(lp904
I9
aI15
asg140
Nsg141
VTosefta Shabbat 9:15
p905
sg143
(lp906
sg145
g99
sg146
Nsg147
(lp907
I9
aI15
asg149
Nsg150
g905
sg151
(lp908
sg153
g60
sg154
Nsg155
Nsg156
Nsbag3
(g4
g5
NtRp909
(dp910
g8
g10
sg134
Nsg135
(dp911
sg137
Nsg25
g27
sg138
(lp912
I9
aI16
asg140
Nsg141
VTosefta Shabbat 9:16
p913
sg143
(lp914
sg145
g99
sg146
Nsg147
(lp915
I9
aI16
asg149
Nsg150
g913
sg151
(lp916
sg153
g60
sg154
Nsg155
Nsg156
Nsbag3
(g4
g5
NtRp917
(dp918
g8
g10
sg134
Nsg135
(dp919
sg137
Nsg25
g27
sg138
(lp920
I9
aI17
asg140
Nsg141
VTosefta Shabbat 9:17
p921
sg143
(lp922
sg145
g99
sg146
Nsg147
(lp923
I9
aI17
asg149
Nsg150
g921
sg151
(lp924
sg153
g60
sg154
Nsg155
Nsg156
Nsbag3
(g4
g5
NtRp925
(dp926
g8
g10
sg134
Nsg135
(dp927
sg137
Nsg25
g27
sg138
(lp928
I10
aI1
asg140
Nsg141
VTosefta Shabbat 10:1
p929
sg143
(lp930
sg145
g99
sg146
Nsg147
(lp931
I10
aI1
asg149
Nsg150
g929
sg151
(lp932
sg153
g60
sg154
Nsg155
Nsg156
Nsbag3
(g4
g5
NtRp933
(dp934
g8
g10
sg134
Nsg135
(dp935
sg137
Nsg25
g27
sg138
(lp936
I10
aI2
asg140
Nsg141
VTosefta Shabbat 10:2
p937
sg143
(lp938
sg145
g99
sg146
Nsg147
(lp939
I10
aI2
asg149
Nsg150
g937
sg151
(lp940
sg153
g60
sg154
Nsg155
Nsg156
Nsbag3
(g4
g5
NtRp941
(dp942
g8
g10
sg134
Nsg135
(dp943
sg137
Nsg25
g27
sg138
(lp944
I10
aI3
asg140
Nsg141
VTosefta Shabbat 10:3
p945
sg143
(lp946
sg145
g99
sg146
Nsg147
(lp947
I10
aI3
asg149
Nsg150
g945
sg151
(lp948
sg153
g60
sg154
Nsg155
Nsg156
Nsbag3
(g4
g5
NtRp949
(dp950
g8
g10
sg134
Nsg135
(dp951
sg137
Nsg25
g27
sg138
(lp952
I10
aI4
asg140
Nsg141
VTosefta Shabbat 10:4
p953
sg143
(lp954
sg145
g99
sg146
Nsg147
(lp955
I10
aI4
asg149
Nsg150
g953
sg151
(lp956
sg153
g60
sg154
Nsg155
Nsg156
Nsbag3
(g4
g5
NtRp957
(dp958
g8
g10
sg134
Nsg135
(dp959
sg137
Nsg25
g27
sg138
(lp960
I10
aI5
asg140
Nsg141
VTosefta Shabbat 10:5
p961
sg143
(lp962
sg145
g99
sg146
Nsg147
(lp963
I10
aI5
asg149
Nsg150
g961
sg151
(lp964
sg153
g60
sg154
Nsg155
Nsg156
Nsbag3
(g4
g5
NtRp965
(dp966
g8
g10
sg134
Nsg135
(dp967
sg137
Nsg25
g27
sg138
(lp968
I10
aI6
asg140
Nsg141
VTosefta Shabbat 10:6
p969
sg143
(lp970
sg145
g99
sg146
Nsg147
(lp971
I10
aI6
asg149
Nsg150
g969
sg151
(lp972
sg153
g60
sg154
Nsg155
Nsg156
Nsbag3
(g4
g5
NtRp973
(dp974
g8
g10
sg134
Nsg135
(dp975
sg137
Nsg25
g27
sg138
(lp976
I10
aI7
asg140
Nsg141
VTosefta Shabbat 10:7
p977
sg143
(lp978
sg145
g99
sg146
Nsg147
(lp979
I10
aI7
asg149
Nsg150
g977
sg151
(lp980
sg153
g60
sg154
Nsg155
Nsg156
Nsbag3
(g4
g5
NtRp981
(dp982
g8
g10
sg134
Nsg135
(dp983
sg137
Nsg25
g27
sg138
(lp984
I10
aI8
asg140
Nsg141
VTosefta Shabbat 10:8
p985
sg143
(lp986
sg145
g99
sg146
Nsg147
(lp987
I10
aI8
asg149
Nsg150
g985
sg151
(lp988
sg153
g60
sg154
Nsg155
Nsg156
Nsbag3
(g4
g5
NtRp989
(dp990
g8
g10
sg134
Nsg135
(dp991
sg137
Nsg25
g27
sg138
(lp992
I10
aI9
asg140
Nsg141
VTosefta Shabbat 10:9
p993
sg143
(lp994
sg145
g99
sg146
Nsg147
(lp995
I10
aI9
asg149
Nsg150
g993
sg151
(lp996
sg153
g60
sg154
Nsg155
Nsg156
Nsbag3
(g4
g5
NtRp997
(dp998
g8
g10
sg134
Nsg135
(dp999
sg137
Nsg25
g27
sg138
(lp1000
I10
aI10
asg140
Nsg141
VTosefta Shabbat 10:10
p1001
sg143
(lp1002
sg145
g99
sg146
Nsg147
(lp1003
I10
aI10
asg149
Nsg150
g1001
sg151
(lp1004
sg153
g60
sg154
Nsg155
Nsg156
Nsbag3
(g4
g5
NtRp1005
(dp1006
g8
g10
sg134
Nsg135
(dp1007
sg137
Nsg25
g27
sg138
(lp1008
I10
aI11
asg140
Nsg141
VTosefta Shabbat 10:11
p1009
sg143
(lp1010
sg145
g99
sg146
Nsg147
(lp1011
I10
aI11
asg149
Nsg150
g1009
sg151
(lp1012
sg153
g60
sg154
Nsg155
Nsg156
Nsbag3
(g4
g5
NtRp1013
(dp1014
g8
g10
sg134
Nsg135
(dp1015
sg137
Nsg25
g27
sg138
(lp1016
I10
aI12
asg140
Nsg141
VTosefta Shabbat 10:12
p1017
sg143
(lp1018
sg145
g99
sg146
Nsg147
(lp1019
I10
aI12
asg149
Nsg150
g1017
sg151
(lp1020
sg153
g60
sg154
Nsg155
Nsg156
Nsbag3
(g4
g5
NtRp1021
(dp1022
g8
g10
sg134
Nsg135
(dp1023
sg137
Nsg25
g27
sg138
(lp1024
I10
aI13
asg140
Nsg141
VTosefta Shabbat 10:13
p1025
sg143
(lp1026
sg145
g99
sg146
Nsg147
(lp1027
I10
aI13
asg149
Nsg150
g1025
sg151
(lp1028
sg153
g60
sg154
Nsg155
Nsg156
Nsbag3
(g4
g5
NtRp1029
(dp1030
g8
g10
sg134
Nsg135
(dp1031
sg137
Nsg25
g27
sg138
(lp1032
I10
aI14
asg140
Nsg141
VTosefta Shabbat 10:14
p1033
sg143
(lp1034
sg145
g99
sg146
Nsg147
(lp1035
I10
aI14
asg149
Nsg150
g1033
sg151
(lp1036
sg153
g60
sg154
Nsg155
Nsg156
Nsbag3
(g4
g5
NtRp1037
(dp1038
g8
g10
sg134
Nsg135
(dp1039
sg137
Nsg25
g27
sg138
(lp1040
I11
aI1
asg140
Nsg141
VTosefta Shabbat 11:1
p1041
sg143
(lp1042
sg145
g99
sg146
Nsg147
(lp1043
I11
aI1
asg149
Nsg150
g1041
sg151
(lp1044
sg153
g60
sg154
Nsg155
Nsg156
Nsbag3
(g4
g5
NtRp1045
(dp1046
g8
g10
sg134
Nsg135
(dp1047
sg137
Nsg25
g27
sg138
(lp1048
I11
aI2
asg140
Nsg141
VTosefta Shabbat 11:2
p1049
sg143
(lp1050
sg145
g99
sg146
Nsg147
(lp1051
I11
aI2
asg149
Nsg150
g1049
sg151
(lp1052
sg153
g60
sg154
Nsg155
Nsg156
Nsbag3
(g4
g5
NtRp1053
(dp1054
g8
g10
sg134
Nsg135
(dp1055
sg137
Nsg25
g27
sg138
(lp1056
I11
aI3
asg140
Nsg141
VTosefta Shabbat 11:3
p1057
sg143
(lp1058
sg145
g99
sg146
Nsg147
(lp1059
I11
aI3
asg149
Nsg150
g1057
sg151
(lp1060
sg153
g60
sg154
Nsg155
Nsg156
Nsbag3
(g4
g5
NtRp1061
(dp1062
g8
g10
sg134
Nsg135
(dp1063
sg137
Nsg25
g27
sg138
(lp1064
I11
aI4
asg140
Nsg141
VTosefta Shabbat 11:4
p1065
sg143
(lp1066
sg145
g99
sg146
Nsg147
(lp1067
I11
aI4
asg149
Nsg150
g1065
sg151
(lp1068
sg153
g60
sg154
Nsg155
Nsg156
Nsbag3
(g4
g5
NtRp1069
(dp1070
g8
g10
sg134
Nsg135
(dp1071
sg137
Nsg25
g27
sg138
(lp1072
I11
aI5
asg140
Nsg141
VTosefta Shabbat 11:5
p1073
sg143
(lp1074
sg145
g99
sg146
Nsg147
(lp1075
I11
aI5
asg149
Nsg150
g1073
sg151
(lp1076
sg153
g60
sg154
Nsg155
Nsg156
Nsbag3
(g4
g5
NtRp1077
(dp1078
g8
g10
sg134
Nsg135
(dp1079
sg137
Nsg25
g27
sg138
(lp1080
I11
aI6
asg140
Nsg141
VTosefta Shabbat 11:6
p1081
sg143
(lp1082
sg145
g99
sg146
Nsg147
(lp1083
I11
aI6
asg149
Nsg150
g1081
sg151
(lp1084
sg153
g60
sg154
Nsg155
Nsg156
Nsbag3
(g4
g5
NtRp1085
(dp1086
g8
g10
sg134
Nsg135
(dp1087
sg137
Nsg25
g27
sg138
(lp1088
I11
aI7
asg140
Nsg141
VTosefta Shabbat 11:7
p1089
sg143
(lp1090
sg145
g99
sg146
Nsg147
(lp1091
I11
aI7
asg149
Nsg150
g1089
sg151
(lp1092
sg153
g60
sg154
Nsg155
Nsg156
Nsbag3
(g4
g5
NtRp1093
(dp1094
g8
g10
sg134
Nsg135
(dp1095
sg137
Nsg25
g27
sg138
(lp1096
I11
aI8
asg140
Nsg141
VTosefta Shabbat 11:8
p1097
sg143
(lp1098
sg145
g99
sg146
Nsg147
(lp1099
I11
aI8
asg149
Nsg150
g1097
sg151
(lp1100
sg153
g60
sg154
Nsg155
Nsg156
Nsbag3
(g4
g5
NtRp1101
(dp1102
g8
g10
sg134
Nsg135
(dp1103
sg137
Nsg25
g27
sg138
(lp1104
I11
aI9
asg140
Nsg141
VTosefta Shabbat 11:9
p1105
sg143
(lp1106
sg145
g99
sg146
Nsg147
(lp1107
I11
aI9
asg149
Nsg150
g1105
sg151
(lp1108
sg153
g60
sg154
Nsg155
Nsg156
Nsbag3
(g4
g5
NtRp1109
(dp1110
g8
g10
sg134
Nsg135
(dp1111
sg137
Nsg25
g27
sg138
(lp1112
I11
aI10
asg140
Nsg141
VTosefta Shabbat 11:10
p1113
sg143
(lp1114
sg145
g99
sg146
Nsg147
(lp1115
I11
aI10
asg149
Nsg150
g1113
sg151
(lp1116
sg153
g60
sg154
Nsg155
Nsg156
Nsbag3
(g4
g5
NtRp1117
(dp1118
g8
g10
sg134
Nsg135
(dp1119
sg137
Nsg25
g27
sg138
(lp1120
I11
aI11
asg140
Nsg141
VTosefta Shabbat 11:11
p1121
sg143
(lp1122
sg145
g99
sg146
Nsg147
(lp1123
I11
aI11
asg149
Nsg150
g1121
sg151
(lp1124
sg153
g60
sg154
Nsg155
Nsg156
Nsbag3
(g4
g5
NtRp1125
(dp1126
g8
g10
sg134
Nsg135
(dp1127
sg137
Nsg25
g27
sg138
(lp1128
I11
aI12
asg140
Nsg141
VTosefta Shabbat 11:12
p1129
sg143
(lp1130
sg145
g99
sg146
Nsg147
(lp1131
I11
aI12
asg149
Nsg150
g1129
sg151
(lp1132
sg153
g60
sg154
Nsg155
Nsg156
Nsbag3
(g4
g5
NtRp1133
(dp1134
g8
g10
sg134
Nsg135
(dp1135
sg137
Nsg25
g27
sg138
(lp1136
I11
aI13
asg140
Nsg141
VTosefta Shabbat 11:13
p1137
sg143
(lp1138
sg145
g99
sg146
Nsg147
(lp1139
I11
aI13
asg149
Nsg150
g1137
sg151
(lp1140
sg153
g60
sg154
Nsg155
Nsg156
Nsbag3
(g4
g5
NtRp1141
(dp1142
g8
g10
sg134
Nsg135
(dp1143
sg137
Nsg25
g27
sg138
(lp1144
I12
aI1
asg140
Nsg141
VTosefta Shabbat 12:1
p1145
sg143
(lp1146
sg145
g99
sg146
Nsg147
(lp1147
I12
aI1
asg149
Nsg150
g1145
sg151
(lp1148
sg153
g60
sg154
Nsg155
Nsg156
Nsbag3
(g4
g5
NtRp1149
(dp1150
g8
g10
sg134
Nsg135
(dp1151
sg137
Nsg25
g27
sg138
(lp1152
I12
aI2
asg140
Nsg141
VTosefta Shabbat 12:2
p1153
sg143
(lp1154
sg145
g99
sg146
Nsg147
(lp1155
I12
aI2
asg149
Nsg150
g1153
sg151
(lp1156
sg153
g60
sg154
Nsg155
Nsg156
Nsbag3
(g4
g5
NtRp1157
(dp1158
g8
g10
sg134
Nsg135
(dp1159
sg137
Nsg25
g27
sg138
(lp1160
I12
aI3
asg140
Nsg141
VTosefta Shabbat 12:3
p1161
sg143
(lp1162
sg145
g99
sg146
Nsg147
(lp1163
I12
aI3
asg149
Nsg150
g1161
sg151
(lp1164
sg153
g60
sg154
Nsg155
Nsg156
Nsbag3
(g4
g5
NtRp1165
(dp1166
g8
g10
sg134
Nsg135
(dp1167
sg137
Nsg25
g27
sg138
(lp1168
I12
aI4
asg140
Nsg141
VTosefta Shabbat 12:4
p1169
sg143
(lp1170
sg145
g99
sg146
Nsg147
(lp1171
I12
aI4
asg149
Nsg150
g1169
sg151
(lp1172
sg153
g60
sg154
Nsg155
Nsg156
Nsbag3
(g4
g5
NtRp1173
(dp1174
g8
g10
sg134
Nsg135
(dp1175
sg137
Nsg25
g27
sg138
(lp1176
I12
aI5
asg140
Nsg141
VTosefta Shabbat 12:5
p1177
sg143
(lp1178
sg145
g99
sg146
Nsg147
(lp1179
I12
aI5
asg149
Nsg150
g1177
sg151
(lp1180
sg153
g60
sg154
Nsg155
Nsg156
Nsbag3
(g4
g5
NtRp1181
(dp1182
g8
g10
sg134
Nsg135
(dp1183
sg137
Nsg25
g27
sg138
(lp1184
I12
aI6
asg140
Nsg141
VTosefta Shabbat 12:6
p1185
sg143
(lp1186
sg145
g99
sg146
Nsg147
(lp1187
I12
aI6
asg149
Nsg150
g1185
sg151
(lp1188
sg153
g60
sg154
Nsg155
Nsg156
Nsbag3
(g4
g5
NtRp1189
(dp1190
g8
g10
sg134
Nsg135
(dp1191
sg137
Nsg25
g27
sg138
(lp1192
I12
aI7
asg140
Nsg141
VTosefta Shabbat 12:7
p1193
sg143
(lp1194
sg145
g99
sg146
Nsg147
(lp1195
I12
aI7
asg149
Nsg150
g1193
sg151
(lp1196
sg153
g60
sg154
Nsg155
Nsg156
Nsbag3
(g4
g5
NtRp1197
(dp1198
g8
g10
sg134
Nsg135
(dp1199
sg137
Nsg25
g27
sg138
(lp1200
I12
aI8
asg140
Nsg141
VTosefta Shabbat 12:8
p1201
sg143
(lp1202
sg145
g99
sg146
Nsg147
(lp1203
I12
aI8
asg149
Nsg150
g1201
sg151
(lp1204
sg153
g60
sg154
Nsg155
Nsg156
Nsbag3
(g4
g5
NtRp1205
(dp1206
g8
g10
sg134
Nsg135
(dp1207
sg137
Nsg25
g27
sg138
(lp1208
I12
aI9
asg140
Nsg141
VTosefta Shabbat 12:9
p1209
sg143
(lp1210
sg145
g99
sg146
Nsg147
(lp1211
I12
aI9
asg149
Nsg150
g1209
sg151
(lp1212
sg153
g60
sg154
Nsg155
Nsg156
Nsbag3
(g4
g5
NtRp1213
(dp1214
g8
g10
sg134
Nsg135
(dp1215
sg137
Nsg25
g27
sg138
(lp1216
I12
aI10
asg140
Nsg141
VTosefta Shabbat 12:10
p1217
sg143
(lp1218
sg145
g99
sg146
Nsg147
(lp1219
I12
aI10
asg149
Nsg150
g1217
sg151
(lp1220
sg153
g60
sg154
Nsg155
Nsg156
Nsbag3
(g4
g5
NtRp1221
(dp1222
g8
g10
sg134
Nsg135
(dp1223
sg137
Nsg25
g27
sg138
(lp1224
I12
aI11
asg140
Nsg141
VTosefta Shabbat 12:11
p1225
sg143
(lp1226
sg145
g99
sg146
Nsg147
(lp1227
I12
aI11
asg149
Nsg150
g1225
sg151
(lp1228
sg153
g60
sg154
Nsg155
Nsg156
Nsbag3
(g4
g5
NtRp1229
(dp1230
g8
g10
sg134
Nsg135
(dp1231
sg137
Nsg25
g27
sg138
(lp1232
I12
aI12
asg140
Nsg141
VTosefta Shabbat 12:12
p1233
sg143
(lp1234
sg145
g99
sg146
Nsg147
(lp1235
I12
aI12
asg149
Nsg150
g1233
sg151
(lp1236
sg153
g60
sg154
Nsg155
Nsg156
Nsbag3
(g4
g5
NtRp1237
(dp1238
g8
g10
sg134
Nsg135
(dp1239
sg137
Nsg25
g27
sg138
(lp1240
I13
aI1
asg140
Nsg141
VTosefta Shabbat 13:1
p1241
sg143
(lp1242
sg145
g99
sg146
Nsg147
(lp1243
I13
aI1
asg149
Nsg150
g1241
sg151
(lp1244
sg153
g60
sg154
Nsg155
Nsg156
Nsbag3
(g4
g5
NtRp1245
(dp1246
g8
g10
sg134
Nsg135
(dp1247
sg137
Nsg25
g27
sg138
(lp1248
I13
aI2
asg140
Nsg141
VTosefta Shabbat 13:2
p1249
sg143
(lp1250
sg145
g99
sg146
Nsg147
(lp1251
I13
aI2
asg149
Nsg150
g1249
sg151
(lp1252
sg153
g60
sg154
Nsg155
Nsg156
Nsbag3
(g4
g5
NtRp1253
(dp1254
g8
g10
sg134
Nsg135
(dp1255
sg137
Nsg25
g27
sg138
(lp1256
I13
aI3
asg140
Nsg141
VTosefta Shabbat 13:3
p1257
sg143
(lp1258
sg145
g99
sg146
Nsg147
(lp1259
I13
aI3
asg149
Nsg150
g1257
sg151
(lp1260
sg153
g60
sg154
Nsg155
Nsg156
Nsbag3
(g4
g5
NtRp1261
(dp1262
g8
g10
sg134
Nsg135
(dp1263
sg137
Nsg25
g27
sg138
(lp1264
I13
aI4
asg140
Nsg141
VTosefta Shabbat 13:4
p1265
sg143
(lp1266
sg145
g99
sg146
Nsg147
(lp1267
I13
aI4
asg149
Nsg150
g1265
sg151
(lp1268
sg153
g60
sg154
Nsg155
Nsg156
Nsbag3
(g4
g5
NtRp1269
(dp1270
g8
g10
sg134
Nsg135
(dp1271
sg137
Nsg25
g27
sg138
(lp1272
I13
aI5
asg140
Nsg141
VTosefta Shabbat 13:5
p1273
sg143
(lp1274
sg145
g99
sg146
Nsg147
(lp1275
I13
aI5
asg149
Nsg150
g1273
sg151
(lp1276
sg153
g60
sg154
Nsg155
Nsg156
Nsbag3
(g4
g5
NtRp1277
(dp1278
g8
g10
sg134
Nsg135
(dp1279
sg137
Nsg25
g27
sg138
(lp1280
I13
aI6
asg140
Nsg141
VTosefta Shabbat 13:6
p1281
sg143
(lp1282
sg145
g99
sg146
Nsg147
(lp1283
I13
aI6
asg149
Nsg150
g1281
sg151
(lp1284
sg153
g60
sg154
Nsg155
Nsg156
Nsbag3
(g4
g5
NtRp1285
(dp1286
g8
g10
sg134
Nsg135
(dp1287
sg137
Nsg25
g27
sg138
(lp1288
I13
aI7
asg140
Nsg141
VTosefta Shabbat 13:7
p1289
sg143
(lp1290
sg145
g99
sg146
Nsg147
(lp1291
I13
aI7
asg149
Nsg150
g1289
sg151
(lp1292
sg153
g60
sg154
Nsg155
Nsg156
Nsbag3
(g4
g5
NtRp1293
(dp1294
g8
g10
sg134
Nsg135
(dp1295
sg137
Nsg25
g27
sg138
(lp1296
I13
aI8
asg140
Nsg141
VTosefta Shabbat 13:8
p1297
sg143
(lp1298
sg145
g99
sg146
Nsg147
(lp1299
I13
aI8
asg149
Nsg150
g1297
sg151
(lp1300
sg153
g60
sg154
Nsg155
Nsg156
Nsbag3
(g4
g5
NtRp1301
(dp1302
g8
g10
sg134
Nsg135
(dp1303
sg137
Nsg25
g27
sg138
(lp1304
I13
aI9
asg140
Nsg141
VTosefta Shabbat 13:9
p1305
sg143
(lp1306
sg145
g99
sg146
Nsg147
(lp1307
I13
aI9
asg149
Nsg150
g1305
sg151
(lp1308
sg153
g60
sg154
Nsg155
Nsg156
Nsbag3
(g4
g5
NtRp1309
(dp1310
g8
g10
sg134
Nsg135
(dp1311
sg137
Nsg25
g27
sg138
(lp1312
I13
aI10
asg140
Nsg141
VTosefta Shabbat 13:10
p1313
sg143
(lp1314
sg145
g99
sg146
Nsg147
(lp1315
I13
aI10
asg149
Nsg150
g1313
sg151
(lp1316
sg153
g60
sg154
Nsg155
Nsg156
Nsbag3
(g4
g5
NtRp1317
(dp1318
g8
g10
sg134
Nsg135
(dp1319
sg137
Nsg25
g27
sg138
(lp1320
I13
aI11
asg140
Nsg141
VTosefta Shabbat 13:11
p1321
sg143
(lp1322
sg145
g99
sg146
Nsg147
(lp1323
I13
aI11
asg149
Nsg150
g1321
sg151
(lp1324
sg153
g60
sg154
Nsg155
Nsg156
Nsbag3
(g4
g5
NtRp1325
(dp1326
g8
g10
sg134
Nsg135
(dp1327
sg137
Nsg25
g27
sg138
(lp1328
I13
aI12
asg140
Nsg141
VTosefta Shabbat 13:12
p1329
sg143
(lp1330
sg145
g99
sg146
Nsg147
(lp1331
I13
aI12
asg149
Nsg150
g1329
sg151
(lp1332
sg153
g60
sg154
Nsg155
Nsg156
Nsbag3
(g4
g5
NtRp1333
(dp1334
g8
g10
sg134
Nsg135
(dp1335
sg137
Nsg25
g27
sg138
(lp1336
I13
aI13
asg140
Nsg141
VTosefta Shabbat 13:13
p1337
sg143
(lp1338
sg145
g99
sg146
Nsg147
(lp1339
I13
aI13
asg149
Nsg150
g1337
sg151
(lp1340
sg153
g60
sg154
Nsg155
Nsg156
Nsbag3
(g4
g5
NtRp1341
(dp1342
g8
g10
sg134
Nsg135
(dp1343
sg137
Nsg25
g27
sg138
(lp1344
I13
aI14
asg140
Nsg141
VTosefta Shabbat 13:14
p1345
sg143
(lp1346
sg145
g99
sg146
Nsg147
(lp1347
I13
aI14
asg149
Nsg150
g1345
sg151
(lp1348
sg153
g60
sg154
Nsg155
Nsg156
Nsbag3
(g4
g5
NtRp1349
(dp1350
g8
g10
sg134
Nsg135
(dp1351
sg137
Nsg25
g27
sg138
(lp1352
I13
aI15
asg140
Nsg141
VTosefta Shabbat 13:15
p1353
sg143
(lp1354
sg145
g99
sg146
Nsg147
(lp1355
I13
aI15
asg149
Nsg150
g1353
sg151
(lp1356
sg153
g60
sg154
Nsg155
Nsg156
Nsbag3
(g4
g5
NtRp1357
(dp1358
g8
g10
sg134
Nsg135
(dp1359
sg137
Nsg25
g27
sg138
(lp1360
I13
aI16
asg140
Nsg141
VTosefta Shabbat 13:16
p1361
sg143
(lp1362
sg145
g99
sg146
Nsg147
(lp1363
I13
aI16
asg149
Nsg150
g1361
sg151
(lp1364
sg153
g60
sg154
Nsg155
Nsg156
Nsbag3
(g4
g5
NtRp1365
(dp1366
g8
g10
sg134
Nsg135
(dp1367
sg137
Nsg25
g27
sg138
(lp1368
I13
aI17
asg140
Nsg141
VTosefta Shabbat 13:17
p1369
sg143
(lp1370
sg145
g99
sg146
Nsg147
(lp1371
I13
aI17
asg149
Nsg150
g1369
sg151
(lp1372
sg153
g60
sg154
Nsg155
Nsg156
Nsbag3
(g4
g5
NtRp1373
(dp1374
g8
g10
sg134
Nsg135
(dp1375
sg137
Nsg25
g27
sg138
(lp1376
I13
aI18
asg140
Nsg141
VTosefta Shabbat 13:18
p1377
sg143
(lp1378
sg145
g99
sg146
Nsg147
(lp1379
I13
aI18
asg149
Nsg150
g1377
sg151
(lp1380
sg153
g60
sg154
Nsg155
Nsg156
Nsbag3
(g4
g5
NtRp1381
(dp1382
g8
g10
sg134
Nsg135
(dp1383
sg137
Nsg25
g27
sg138
(lp1384
I13
aI19
asg140
Nsg141
VTosefta Shabbat 13:19
p1385
sg143
(lp1386
sg145
g99
sg146
Nsg147
(lp1387
I13
aI19
asg149
Nsg150
g1385
sg151
(lp1388
sg153
g60
sg154
Nsg155
Nsg156
Nsbag3
(g4
g5
NtRp1389
(dp1390
g8
g10
sg134
Nsg135
(dp1391
sg137
Nsg25
g27
sg138
(lp1392
I14
aI1
asg140
Nsg141
VTosefta Shabbat 14:1
p1393
sg143
(lp1394
sg145
g99
sg146
Nsg147
(lp1395
I14
aI1
asg149
Nsg150
g1393
sg151
(lp1396
sg153
g60
sg154
Nsg155
Nsg156
Nsbag3
(g4
g5
NtRp1397
(dp1398
g8
g10
sg134
Nsg135
(dp1399
sg137
Nsg25
g27
sg138
(lp1400
I14
aI2
asg140
Nsg141
VTosefta Shabbat 14:2
p1401
sg143
(lp1402
sg145
g99
sg146
Nsg147
(lp1403
I14
aI2
asg149
Nsg150
g1401
sg151
(lp1404
sg153
g60
sg154
Nsg155
Nsg156
Nsbag3
(g4
g5
NtRp1405
(dp1406
g8
g10
sg134
Nsg135
(dp1407
sg137
Nsg25
g27
sg138
(lp1408
I14
aI3
asg140
Nsg141
VTosefta Shabbat 14:3
p1409
sg143
(lp1410
sg145
g99
sg146
Nsg147
(lp1411
I14
aI3
asg149
Nsg150
g1409
sg151
(lp1412
sg153
g60
sg154
Nsg155
Nsg156
Nsbag3
(g4
g5
NtRp1413
(dp1414
g8
g10
sg134
Nsg135
(dp1415
sg137
Nsg25
g27
sg138
(lp1416
I14
aI4
asg140
Nsg141
VTosefta Shabbat 14:4
p1417
sg143
(lp1418
sg145
g99
sg146
Nsg147
(lp1419
I14
aI4
asg149
Nsg150
g1417
sg151
(lp1420
sg153
g60
sg154
Nsg155
Nsg156
Nsbag3
(g4
g5
NtRp1421
(dp1422
g8
g10
sg134
Nsg135
(dp1423
sg137
Nsg25
g27
sg138
(lp1424
I14
aI5
asg140
Nsg141
VTosefta Shabbat 14:5
p1425
sg143
(lp1426
sg145
g99
sg146
Nsg147
(lp1427
I14
aI5
asg149
Nsg150
g1425
sg151
(lp1428
sg153
g60
sg154
Nsg155
Nsg156
Nsbag3
(g4
g5
NtRp1429
(dp1430
g8
g10
sg134
Nsg135
(dp1431
sg137
Nsg25
g27
sg138
(lp1432
I14
aI6
asg140
Nsg141
VTosefta Shabbat 14:6
p1433
sg143
(lp1434
sg145
g99
sg146
Nsg147
(lp1435
I14
aI6
asg149
Nsg150
g1433
sg151
(lp1436
sg153
g60
sg154
Nsg155
Nsg156
Nsbag3
(g4
g5
NtRp1437
(dp1438
g8
g10
sg134
Nsg135
(dp1439
sg137
Nsg25
g27
sg138
(lp1440
I14
aI7
asg140
Nsg141
VTosefta Shabbat 14:7
p1441
sg143
(lp1442
sg145
g99
sg146
Nsg147
(lp1443
I14
aI7
asg149
Nsg150
g1441
sg151
(lp1444
sg153
g60
sg154
Nsg155
Nsg156
Nsbag3
(g4
g5
NtRp1445
(dp1446
g8
g10
sg134
Nsg135
(dp1447
sg137
Nsg25
g27
sg138
(lp1448
I14
aI8
asg140
Nsg141
VTosefta Shabbat 14:8
p1449
sg143
(lp1450
sg145
g99
sg146
Nsg147
(lp1451
I14
aI8
asg149
Nsg150
g1449
sg151
(lp1452
sg153
g60
sg154
Nsg155
Nsg156
Nsbag3
(g4
g5
NtRp1453
(dp1454
g8
g10
sg134
Nsg135
(dp1455
sg137
Nsg25
g27
sg138
(lp1456
I14
aI9
asg140
Nsg141
VTosefta Shabbat 14:9
p1457
sg143
(lp1458
sg145
g99
sg146
Nsg147
(lp1459
I14
aI9
asg149
Nsg150
g1457
sg151
(lp1460
sg153
g60
sg154
Nsg155
Nsg156
Nsbag3
(g4
g5
NtRp1461
(dp1462
g8
g10
sg134
Nsg135
(dp1463
sg137
Nsg25
g27
sg138
(lp1464
I14
aI10
asg140
Nsg141
VTosefta Shabbat 14:10
p1465
sg143
(lp1466
sg145
g99
sg146
Nsg147
(lp1467
I14
aI10
asg149
Nsg150
g1465
sg151
(lp1468
sg153
g60
sg154
Nsg155
Nsg156
Nsbag3
(g4
g5
NtRp1469
(dp1470
g8
g10
sg134
Nsg135
(dp1471
sg137
Nsg25
g27
sg138
(lp1472
I14
aI11
asg140
Nsg141
VTosefta Shabbat 14:11
p1473
sg143
(lp1474
sg145
g99
sg146
Nsg147
(lp1475
I14
aI11
asg149
Nsg150
g1473
sg151
(lp1476
sg153
g60
sg154
Nsg155
Nsg156
Nsbag3
(g4
g5
NtRp1477
(dp1478
g8
g10
sg134
Nsg135
(dp1479
sg137
Nsg25
g27
sg138
(lp1480
I14
aI12
asg140
Nsg141
VTosefta Shabbat 14:12
p1481
sg143
(lp1482
sg145
g99
sg146
Nsg147
(lp1483
I14
aI12
asg149
Nsg150
g1481
sg151
(lp1484
sg153
g60
sg154
Nsg155
Nsg156
Nsbag3
(g4
g5
NtRp1485
(dp1486
g8
g10
sg134
Nsg135
(dp1487
sg137
Nsg25
g27
sg138
(lp1488
I14
aI13
asg140
Nsg141
VTosefta Shabbat 14:13
p1489
sg143
(lp1490
sg145
g99
sg146
Nsg147
(lp1491
I14
aI13
asg149
Nsg150
g1489
sg151
(lp1492
sg153
g60
sg154
Nsg155
Nsg156
Nsbag3
(g4
g5
NtRp1493
(dp1494
g8
g10
sg134
Nsg135
(dp1495
sg137
Nsg25
g27
sg138
(lp1496
I14
aI14
asg140
Nsg141
VTosefta Shabbat 14:14
p1497
sg143
(lp1498
sg145
g99
sg146
Nsg147
(lp1499
I14
aI14
asg149
Nsg150
g1497
sg151
(lp1500
sg153
g60
sg154
Nsg155
Nsg156
Nsbag3
(g4
g5
NtRp1501
(dp1502
g8
g10
sg134
Nsg135
(dp1503
sg137
Nsg25
g27
sg138
(lp1504
I14
aI15
asg140
Nsg141
VTosefta Shabbat 14:15
p1505
sg143
(lp1506
sg145
g99
sg146
Nsg147
(lp1507
I14
aI15
asg149
Nsg150
g1505
sg151
(lp1508
sg153
g60
sg154
Nsg155
Nsg156
Nsbag3
(g4
g5
NtRp1509
(dp1510
g8
g10
sg134
Nsg135
(dp1511
sg137
Nsg25
g27
sg138
(lp1512
I14
aI16
asg140
Nsg141
VTosefta Shabbat 14:16
p1513
sg143
(lp1514
sg145
g99
sg146
Nsg147
(lp1515
I14
aI16
asg149
Nsg150
g1513
sg151
(lp1516
sg153
g60
sg154
Nsg155
Nsg156
Nsbag3
(g4
g5
NtRp1517
(dp1518
g8
g10
sg134
Nsg135
(dp1519
sg137
Nsg25
g27
sg138
(lp1520
I15
aI1
asg140
Nsg141
VTosefta Shabbat 15:1
p1521
sg143
(lp1522
sg145
g99
sg146
Nsg147
(lp1523
I15
aI1
asg149
Nsg150
g1521
sg151
(lp1524
sg153
g60
sg154
Nsg155
Nsg156
Nsbag3
(g4
g5
NtRp1525
(dp1526
g8
g10
sg134
Nsg135
(dp1527
sg137
Nsg25
g27
sg138
(lp1528
I15
aI2
asg140
Nsg141
VTosefta Shabbat 15:2
p1529
sg143
(lp1530
sg145
g99
sg146
Nsg147
(lp1531
I15
aI2
asg149
Nsg150
g1529
sg151
(lp1532
sg153
g60
sg154
Nsg155
Nsg156
Nsbag3
(g4
g5
NtRp1533
(dp1534
g8
g10
sg134
Nsg135
(dp1535
sg137
Nsg25
g27
sg138
(lp1536
I15
aI3
asg140
Nsg141
VTosefta Shabbat 15:3
p1537
sg143
(lp1538
sg145
g99
sg146
Nsg147
(lp1539
I15
aI3
asg149
Nsg150
g1537
sg151
(lp1540
sg153
g60
sg154
Nsg155
Nsg156
Nsbag3
(g4
g5
NtRp1541
(dp1542
g8
g10
sg134
Nsg135
(dp1543
sg137
Nsg25
g27
sg138
(lp1544
I15
aI4
asg140
Nsg141
VTosefta Shabbat 15:4
p1545
sg143
(lp1546
sg145
g99
sg146
Nsg147
(lp1547
I15
aI4
asg149
Nsg150
g1545
sg151
(lp1548
sg153
g60
sg154
Nsg155
Nsg156
Nsbag3
(g4
g5
NtRp1549
(dp1550
g8
g10
sg134
Nsg135
(dp1551
sg137
Nsg25
g27
sg138
(lp1552
I15
aI5
asg140
Nsg141
VTosefta Shabbat 15:5
p1553
sg143
(lp1554
sg145
g99
sg146
Nsg147
(lp1555
I15
aI5
asg149
Nsg150
g1553
sg151
(lp1556
sg153
g60
sg154
Nsg155
Nsg156
Nsbag3
(g4
g5
NtRp1557
(dp1558
g8
g10
sg134
Nsg135
(dp1559
sg137
Nsg25
g27
sg138
(lp1560
I15
aI6
asg140
Nsg141
VTosefta Shabbat 15:6
p1561
sg143
(lp1562
sg145
g99
sg146
Nsg147
(lp1563
I15
aI6
asg149
Nsg150
g1561
sg151
(lp1564
sg153
g60
sg154
Nsg155
Nsg156
Nsbag3
(g4
g5
NtRp1565
(dp1566
g8
g10
sg134
Nsg135
(dp1567
sg137
Nsg25
g27
sg138
(lp1568
I15
aI7
asg140
Nsg141
VTosefta Shabbat 15:7
p1569
sg143
(lp1570
sg145
g99
sg146
Nsg147
(lp1571
I15
aI7
asg149
Nsg150
g1569
sg151
(lp1572
sg153
g60
sg154
Nsg155
Nsg156
Nsbag3
(g4
g5
NtRp1573
(dp1574
g8
g10
sg134
Nsg135
(dp1575
sg137
Nsg25
g27
sg138
(lp1576
I15
aI8
asg140
Nsg141
VTosefta Shabbat 15:8
p1577
sg143
(lp1578
sg145
g99
sg146
Nsg147
(lp1579
I15
aI8
asg149
Nsg150
g1577
sg151
(lp1580
sg153
g60
sg154
Nsg155
Nsg156
Nsbag3
(g4
g5
NtRp1581
(dp1582
g8
g10
sg134
Nsg135
(dp1583
sg137
Nsg25
g27
sg138
(lp1584
I15
aI9
asg140
Nsg141
VTosefta Shabbat 15:9
p1585
sg143
(lp1586
sg145
g99
sg146
Nsg147
(lp1587
I15
aI9
asg149
Nsg150
g1585
sg151
(lp1588
sg153
g60
sg154
Nsg155
Nsg156
Nsbag3
(g4
g5
NtRp1589
(dp1590
g8
g10
sg134
Nsg135
(dp1591
sg137
Nsg25
g27
sg138
(lp1592
I15
aI10
asg140
Nsg141
VTosefta Shabbat 15:10
p1593
sg143
(lp1594
sg145
g99
sg146
Nsg147
(lp1595
I15
aI10
asg149
Nsg150
g1593
sg151
(lp1596
sg153
g60
sg154
Nsg155
Nsg156
Nsbag3
(g4
g5
NtRp1597
(dp1598
g8
g10
sg134
Nsg135
(dp1599
sg137
Nsg25
g27
sg138
(lp1600
I15
aI11
asg140
Nsg141
VTosefta Shabbat 15:11
p1601
sg143
(lp1602
sg145
g99
sg146
Nsg147
(lp1603
I15
aI11
asg149
Nsg150
g1601
sg151
(lp1604
sg153
g60
sg154
Nsg155
Nsg156
Nsbag3
(g4
g5
NtRp1605
(dp1606
g8
g10
sg134
Nsg135
(dp1607
sg137
Nsg25
g27
sg138
(lp1608
I15
aI12
asg140
Nsg141
VTosefta Shabbat 15:12
p1609
sg143
(lp1610
sg145
g99
sg146
Nsg147
(lp1611
I15
aI12
asg149
Nsg150
g1609
sg151
(lp1612
sg153
g60
sg154
Nsg155
Nsg156
Nsbag3
(g4
g5
NtRp1613
(dp1614
g8
g10
sg134
Nsg135
(dp1615
sg137
Nsg25
g27
sg138
(lp1616
I15
aI13
asg140
Nsg141
VTosefta Shabbat 15:13
p1617
sg143
(lp1618
sg145
g99
sg146
Nsg147
(lp1619
I15
aI13
asg149
Nsg150
g1617
sg151
(lp1620
sg153
g60
sg154
Nsg155
Nsg156
Nsbag3
(g4
g5
NtRp1621
(dp1622
g8
g10
sg134
Nsg135
(dp1623
sg137
Nsg25
g27
sg138
(lp1624
I15
aI14
asg140
Nsg141
VTosefta Shabbat 15:14
p1625
sg143
(lp1626
sg145
g99
sg146
Nsg147
(lp1627
I15
aI14
asg149
Nsg150
g1625
sg151
(lp1628
sg153
g60
sg154
Nsg155
Nsg156
Nsbag3
(g4
g5
NtRp1629
(dp1630
g8
g10
sg134
Nsg135
(dp1631
sg137
Nsg25
g27
sg138
(lp1632
I16
aI1
asg140
Nsg141
VTosefta Shabbat 16:1
p1633
sg143
(lp1634
sg145
g99
sg146
Nsg147
(lp1635
I16
aI1
asg149
Nsg150
g1633
sg151
(lp1636
sg153
g60
sg154
Nsg155
Nsg156
Nsbag3
(g4
g5
NtRp1637
(dp1638
g8
g10
sg134
Nsg135
(dp1639
sg137
Nsg25
g27
sg138
(lp1640
I16
aI2
asg140
Nsg141
VTosefta Shabbat 16:2
p1641
sg143
(lp1642
sg145
g99
sg146
Nsg147
(lp1643
I16
aI2
asg149
Nsg150
g1641
sg151
(lp1644
sg153
g60
sg154
Nsg155
Nsg156
Nsbag3
(g4
g5
NtRp1645
(dp1646
g8
g10
sg134
Nsg135
(dp1647
sg137
Nsg25
g27
sg138
(lp1648
I16
aI3
asg140
Nsg141
VTosefta Shabbat 16:3
p1649
sg143
(lp1650
sg145
g99
sg146
Nsg147
(lp1651
I16
aI3
asg149
Nsg150
g1649
sg151
(lp1652
sg153
g60
sg154
Nsg155
Nsg156
Nsbag3
(g4
g5
NtRp1653
(dp1654
g8
g10
sg134
Nsg135
(dp1655
sg137
Nsg25
g27
sg138
(lp1656
I16
aI4
asg140
Nsg141
VTosefta Shabbat 16:4
p1657
sg143
(lp1658
sg145
g99
sg146
Nsg147
(lp1659
I16
aI4
asg149
Nsg150
g1657
sg151
(lp1660
sg153
g60
sg154
Nsg155
Nsg156
Nsbag3
(g4
g5
NtRp1661
(dp1662
g8
g10
sg134
Nsg135
(dp1663
sg137
Nsg25
g27
sg138
(lp1664
I16
aI5
asg140
Nsg141
VTosefta Shabbat 16:5
p1665
sg143
(lp1666
sg145
g99
sg146
Nsg147
(lp1667
I16
aI5
asg149
Nsg150
g1665
sg151
(lp1668
sg153
g60
sg154
Nsg155
Nsg156
Nsbag3
(g4
g5
NtRp1669
(dp1670
g8
g10
sg134
Nsg135
(dp1671
sg137
Nsg25
g27
sg138
(lp1672
I16
aI6
asg140
Nsg141
VTosefta Shabbat 16:6
p1673
sg143
(lp1674
sg145
g99
sg146
Nsg147
(lp1675
I16
aI6
asg149
Nsg150
g1673
sg151
(lp1676
sg153
g60
sg154
Nsg155
Nsg156
Nsbag3
(g4
g5
NtRp1677
(dp1678
g8
g10
sg134
Nsg135
(dp1679
sg137
Nsg25
g27
sg138
(lp1680
I16
aI7
asg140
Nsg141
VTosefta Shabbat 16:7
p1681
sg143
(lp1682
sg145
g99
sg146
Nsg147
(lp1683
I16
aI7
asg149
Nsg150
g1681
sg151
(lp1684
sg153
g60
sg154
Nsg155
Nsg156
Nsbag3
(g4
g5
NtRp1685
(dp1686
g8
g10
sg134
Nsg135
(dp1687
sg137
Nsg25
g27
sg138
(lp1688
I16
aI8
asg140
Nsg141
VTosefta Shabbat 16:8
p1689
sg143
(lp1690
sg145
g99
sg146
Nsg147
(lp1691
I16
aI8
asg149
Nsg150
g1689
sg151
(lp1692
sg153
g60
sg154
Nsg155
Nsg156
Nsbag3
(g4
g5
NtRp1693
(dp1694
g8
g10
sg134
Nsg135
(dp1695
sg137
Nsg25
g27
sg138
(lp1696
I16
aI9
asg140
Nsg141
VTosefta Shabbat 16:9
p1697
sg143
(lp1698
sg145
g99
sg146
Nsg147
(lp1699
I16
aI9
asg149
Nsg150
g1697
sg151
(lp1700
sg153
g60
sg154
Nsg155
Nsg156
Nsbag3
(g4
g5
NtRp1701
(dp1702
g8
g10
sg134
Nsg135
(dp1703
sg137
Nsg25
g27
sg138
(lp1704
I16
aI10
asg140
Nsg141
VTosefta Shabbat 16:10
p1705
sg143
(lp1706
sg145
g99
sg146
Nsg147
(lp1707
I16
aI10
asg149
Nsg150
g1705
sg151
(lp1708
sg153
g60
sg154
Nsg155
Nsg156
Nsbag3
(g4
g5
NtRp1709
(dp1710
g8
g10
sg134
Nsg135
(dp1711
sg137
Nsg25
g27
sg138
(lp1712
I16
aI11
asg140
Nsg141
VTosefta Shabbat 16:11
p1713
sg143
(lp1714
sg145
g99
sg146
Nsg147
(lp1715
I16
aI11
asg149
Nsg150
g1713
sg151
(lp1716
sg153
g60
sg154
Nsg155
Nsg156
Nsbag3
(g4
g5
NtRp1717
(dp1718
g8
g10
sg134
Nsg135
(dp1719
sg137
Nsg25
g27
sg138
(lp1720
I16
aI12
asg140
Nsg141
VTosefta Shabbat 16:12
p1721
sg143
(lp1722
sg145
g99
sg146
Nsg147
(lp1723
I16
aI12
asg149
Nsg150
g1721
sg151
(lp1724
sg153
g60
sg154
Nsg155
Nsg156
Nsbag3
(g4
g5
NtRp1725
(dp1726
g8
g10
sg134
Nsg135
(dp1727
sg137
Nsg25
g27
sg138
(lp1728
I16
aI13
asg140
Nsg141
VTosefta Shabbat 16:13
p1729
sg143
(lp1730
sg145
g99
sg146
Nsg147
(lp1731
I16
aI13
asg149
Nsg150
g1729
sg151
(lp1732
sg153
g60
sg154
Nsg155
Nsg156
Nsbag3
(g4
g5
NtRp1733
(dp1734
g8
g10
sg134
Nsg135
(dp1735
sg137
Nsg25
g27
sg138
(lp1736
I16
aI14
asg140
Nsg141
VTosefta Shabbat 16:14
p1737
sg143
(lp1738
sg145
g99
sg146
Nsg147
(lp1739
I16
aI14
asg149
Nsg150
g1737
sg151
(lp1740
sg153
g60
sg154
Nsg155
Nsg156
Nsbag3
(g4
g5
NtRp1741
(dp1742
g8
g10
sg134
Nsg135
(dp1743
sg137
Nsg25
g27
sg138
(lp1744
I17
aI1
asg140
Nsg141
VTosefta Shabbat 17:1
p1745
sg143
(lp1746
sg145
g99
sg146
Nsg147
(lp1747
I17
aI1
asg149
Nsg150
g1745
sg151
(lp1748
sg153
g60
sg154
Nsg155
Nsg156
Nsbag3
(g4
g5
NtRp1749
(dp1750
g8
g10
sg134
Nsg135
(dp1751
sg137
Nsg25
g27
sg138
(lp1752
I17
aI2
asg140
Nsg141
VTosefta Shabbat 17:2
p1753
sg143
(lp1754
sg145
g99
sg146
Nsg147
(lp1755
I17
aI2
asg149
Nsg150
g1753
sg151
(lp1756
sg153
g60
sg154
Nsg155
Nsg156
Nsbag3
(g4
g5
NtRp1757
(dp1758
g8
g10
sg134
Nsg135
(dp1759
sg137
Nsg25
g27
sg138
(lp1760
I17
aI3
asg140
Nsg141
VTosefta Shabbat 17:3
p1761
sg143
(lp1762
sg145
g99
sg146
Nsg147
(lp1763
I17
aI3
asg149
Nsg150
g1761
sg151
(lp1764
sg153
g60
sg154
Nsg155
Nsg156
Nsbag3
(g4
g5
NtRp1765
(dp1766
g8
g10
sg134
Nsg135
(dp1767
sg137
Nsg25
g27
sg138
(lp1768
I17
aI4
asg140
Nsg141
VTosefta Shabbat 17:4
p1769
sg143
(lp1770
sg145
g99
sg146
Nsg147
(lp1771
I17
aI4
asg149
Nsg150
g1769
sg151
(lp1772
sg153
g60
sg154
Nsg155
Nsg156
Nsbag3
(g4
g5
NtRp1773
(dp1774
g8
g10
sg134
Nsg135
(dp1775
sg137
Nsg25
g27
sg138
(lp1776
I17
aI5
asg140
Nsg141
VTosefta Shabbat 17:5
p1777
sg143
(lp1778
sg145
g99
sg146
Nsg147
(lp1779
I17
aI5
asg149
Nsg150
g1777
sg151
(lp1780
sg153
g60
sg154
Nsg155
Nsg156
Nsbag3
(g4
g5
NtRp1781
(dp1782
g8
g10
sg134
Nsg135
(dp1783
sg137
Nsg25
g27
sg138
(lp1784
I17
aI6
asg140
Nsg141
VTosefta Shabbat 17:6
p1785
sg143
(lp1786
sg145
g99
sg146
Nsg147
(lp1787
I17
aI6
asg149
Nsg150
g1785
sg151
(lp1788
sg153
g60
sg154
Nsg155
Nsg156
Nsbag3
(g4
g5
NtRp1789
(dp1790
g8
g10
sg134
Nsg135
(dp1791
sg137
Nsg25
g27
sg138
(lp1792
I17
aI7
asg140
Nsg141
VTosefta Shabbat 17:7
p1793
sg143
(lp1794
sg145
g99
sg146
Nsg147
(lp1795
I17
aI7
asg149
Nsg150
g1793
sg151
(lp1796
sg153
g60
sg154
Nsg155
Nsg156
Nsbag3
(g4
g5
NtRp1797
(dp1798
g8
g10
sg134
Nsg135
(dp1799
sg137
Nsg25
g27
sg138
(lp1800
I17
aI8
asg140
Nsg141
VTosefta Shabbat 17:8
p1801
sg143
(lp1802
sg145
g99
sg146
Nsg147
(lp1803
I17
aI8
asg149
Nsg150
g1801
sg151
(lp1804
sg153
g60
sg154
Nsg155
Nsg156
Nsbag3
(g4
g5
NtRp1805
(dp1806
g8
g10
sg134
Nsg135
(dp1807
sg137
Nsg25
g27
sg138
(lp1808
I17
aI9
asg140
Nsg141
VTosefta Shabbat 17:9
p1809
sg143
(lp1810
sg145
g99
sg146
Nsg147
(lp1811
I17
aI9
asg149
Nsg150
g1809
sg151
(lp1812
sg153
g60
sg154
Nsg155
Nsg156
Nsbag3
(g4
g5
NtRp1813
(dp1814
g8
g10
sg134
Nsg135
(dp1815
sg137
Nsg25
g27
sg138
(lp1816
I17
aI10
asg140
Nsg141
VTosefta Shabbat 17:10
p1817
sg143
(lp1818
sg145
g99
sg146
Nsg147
(lp1819
I17
aI10
asg149
Nsg150
g1817
sg151
(lp1820
sg153
g60
sg154
Nsg155
Nsg156
Nsbag3
(g4
g5
NtRp1821
(dp1822
g8
g10
sg134
Nsg135
(dp1823
sg137
Nsg25
g27
sg138
(lp1824
I17
aI11
asg140
Nsg141
VTosefta Shabbat 17:11
p1825
sg143
(lp1826
sg145
g99
sg146
Nsg147
(lp1827
I17
aI11
asg149
Nsg150
g1825
sg151
(lp1828
sg153
g60
sg154
Nsg155
Nsg156
Nsbag3
(g4
g5
NtRp1829
(dp1830
g8
g10
sg134
Nsg135
(dp1831
sg137
Nsg25
g27
sg138
(lp1832
I17
aI12
asg140
Nsg141
VTosefta Shabbat 17:12
p1833
sg143
(lp1834
sg145
g99
sg146
Nsg147
(lp1835
I17
aI12
asg149
Nsg150
g1833
sg151
(lp1836
sg153
g60
sg154
Nsg155
Nsg156
Nsbag3
(g4
g5
NtRp1837
(dp1838
g8
g10
sg134
Nsg135
(dp1839
sg137
Nsg25
g27
sg138
(lp1840
I17
aI13
asg140
Nsg141
VTosefta Shabbat 17:13
p1841
sg143
(lp1842
sg145
g99
sg146
Nsg147
(lp1843
I17
aI13
asg149
Nsg150
g1841
sg151
(lp1844
sg153
g60
sg154
Nsg155
Nsg156
Nsbag3
(g4
g5
NtRp1845
(dp1846
g8
g10
sg134
Nsg135
(dp1847
sg137
Nsg25
g27
sg138
(lp1848
I17
aI14
asg140
Nsg141
VTosefta Shabbat 17:14
p1849
sg143
(lp1850
sg145
g99
sg146
Nsg147
(lp1851
I17
aI14
asg149
Nsg150
g1849
sg151
(lp1852
sg153
g60
sg154
Nsg155
Nsg156
Nsbag3
(g4
g5
NtRp1853
(dp1854
g8
g10
sg134
Nsg135
(dp1855
sg137
Nsg25
g27
sg138
(lp1856
I17
aI15
asg140
Nsg141
VTosefta Shabbat 17:15
p1857
sg143
(lp1858
sg145
g99
sg146
Nsg147
(lp1859
I17
aI15
asg149
Nsg150
g1857
sg151
(lp1860
sg153
g60
sg154
Nsg155
Nsg156
Nsbag3
(g4
g5
NtRp1861
(dp1862
g8
g10
sg134
Nsg135
(dp1863
sg137
Nsg25
g27
sg138
(lp1864
I17
aI16
asg140
Nsg141
VTosefta Shabbat 17:16
p1865
sg143
(lp1866
sg145
g99
sg146
Nsg147
(lp1867
I17
aI16
asg149
Nsg150
g1865
sg151
(lp1868
sg153
g60
sg154
Nsg155
Nsg156
Nsbag3
(g4
g5
NtRp1869
(dp1870
g8
g10
sg134
Nsg135
(dp1871
sg137
Nsg25
g27
sg138
(lp1872
I17
aI17
asg140
Nsg141
VTosefta Shabbat 17:17
p1873
sg143
(lp1874
sg145
g99
sg146
Nsg147
(lp1875
I17
aI17
asg149
Nsg150
g1873
sg151
(lp1876
sg153
g60
sg154
Nsg155
Nsg156
Nsbag3
(g4
g5
NtRp1877
(dp1878
g8
g10
sg134
Nsg135
(dp1879
sg137
Nsg25
g27
sg138
(lp1880
I18
aI1
asg140
Nsg141
VTosefta Shabbat 18:1
p1881
sg143
(lp1882
sg145
g99
sg146
Nsg147
(lp1883
I18
aI1
asg149
Nsg150
g1881
sg151
(lp1884
sg153
g60
sg154
Nsg155
Nsg156
Nsbag3
(g4
g5
NtRp1885
(dp1886
g8
g10
sg134
Nsg135
(dp1887
sg137
Nsg25
g27
sg138
(lp1888
I18
aI2
asg140
Nsg141
VTosefta Shabbat 18:2
p1889
sg143
(lp1890
sg145
g99
sg146
Nsg147
(lp1891
I18
aI2
asg149
Nsg150
g1889
sg151
(lp1892
sg153
g60
sg154
Nsg155
Nsg156
Nsbag3
(g4
g5
NtRp1893
(dp1894
g8
g10
sg134
Nsg135
(dp1895
sg137
Nsg25
g27
sg138
(lp1896
I18
aI3
asg140
Nsg141
VTosefta Shabbat 18:3
p1897
sg143
(lp1898
sg145
g99
sg146
Nsg147
(lp1899
I18
aI3
asg149
Nsg150
g1897
sg151
(lp1900
sg153
g60
sg154
Nsg155
Nsg156
Nsbag3
(g4
g5
NtRp1901
(dp1902
g8
g10
sg134
Nsg135
(dp1903
sg137
Nsg25
g27
sg138
(lp1904
I18
aI4
asg140
Nsg141
VTosefta Shabbat 18:4
p1905
sg143
(lp1906
sg145
g99
sg146
Nsg147
(lp1907
I18
aI4
asg149
Nsg150
g1905
sg151
(lp1908
sg153
g60
sg154
Nsg155
Nsg156
Nsbag3
(g4
g5
NtRp1909
(dp1910
g8
g10
sg134
Nsg135
(dp1911
sg137
Nsg25
g27
sg138
(lp1912
I18
aI5
asg140
Nsg141
VTosefta Shabbat 18:5
p1913
sg143
(lp1914
sg145
g99
sg146
Nsg147
(lp1915
I18
aI5
asg149
Nsg150
g1913
sg151
(lp1916
sg153
g60
sg154
Nsg155
Nsg156
Nsbag3
(g4
g5
NtRp1917
(dp1918
g8
g10
sg134
Nsg135
(dp1919
sg137
Nsg25
g27
sg138
(lp1920
I18
aI6
asg140
Nsg141
VTosefta Shabbat 18:6
p1921
sg143
(lp1922
sg145
g99
sg146
Nsg147
(lp1923
I18
aI6
asg149
Nsg150
g1921
sg151
(lp1924
sg153
g60
sg154
Nsg155
Nsg156
Nsbag3
(g4
g5
NtRp1925
(dp1926
g8
g10
sg134
Nsg135
(dp1927
sg137
Nsg25
g27
sg138
(lp1928
I18
aI7
asg140
Nsg141
VTosefta Shabbat 18:7
p1929
sg143
(lp1930
sg145
g99
sg146
Nsg147
(lp1931
I18
aI7
asg149
Nsg150
g1929
sg151
(lp1932
sg153
g60
sg154
Nsg155
Nsg156
Nsbag3
(g4
g5
NtRp1933
(dp1934
g8
g10
sg134
Nsg135
(dp1935
sg137
Nsg25
g27
sg138
(lp1936
I18
aI8
asg140
Nsg141
VTosefta Shabbat 18:8
p1937
sg143
(lp1938
sg145
g99
sg146
Nsg147
(lp1939
I18
aI8
asg149
Nsg150
g1937
sg151
(lp1940
sg153
g60
sg154
Nsg155
Nsg156
Nsbag3
(g4
g5
NtRp1941
(dp1942
g8
g10
sg134
Nsg135
(dp1943
sg137
Nsg25
g27
sg138
(lp1944
I18
aI9
asg140
Nsg141
VTosefta Shabbat 18:9
p1945
sg143
(lp1946
sg145
g99
sg146
Nsg147
(lp1947
I18
aI9
asg149
Nsg150
g1945
sg151
(lp1948
sg153
g60
sg154
Nsg155
Nsg156
Nsbag3
(g4
g5
NtRp1949
(dp1950
g8
g10
sg134
Nsg135
(dp1951
sg137
Nsg25
g27
sg138
(lp1952
I18
aI10
asg140
Nsg141
VTosefta Shabbat 18:10
p1953
sg143
(lp1954
sg145
g99
sg146
Nsg147
(lp1955
I18
aI10
asg149
Nsg150
g1953
sg151
(lp1956
sg153
g60
sg154
Nsg155
Nsg156
Nsbag3
(g4
g5
NtRp1957
(dp1958
g8
g10
sg134
Nsg135
(dp1959
sg137
Nsg25
g27
sg138
(lp1960
I18
aI11
asg140
Nsg141
VTosefta Shabbat 18:11
p1961
sg143
(lp1962
sg145
g99
sg146
Nsg147
(lp1963
I18
aI11
asg149
Nsg150
g1961
sg151
(lp1964
sg153
g60
sg154
Nsg155
Nsg156
Nsbag3
(g4
g5
NtRp1965
(dp1966
g8
g10
sg134
Nsg135
(dp1967
sg137
Nsg25
g27
sg138
(lp1968
I18
aI12
asg140
Nsg141
VTosefta Shabbat 18:12
p1969
sg143
(lp1970
sg145
g99
sg146
Nsg147
(lp1971
I18
aI12
asg149
Nsg150
g1969
sg151
(lp1972
sg153
g60
sg154
Nsg155
Nsg156
Nsbag3
(g4
g5
NtRp1973
(dp1974
g8
g10
sg134
Nsg135
(dp1975
sg137
Nsg25
g27
sg138
(lp1976
I18
aI13
asg140
Nsg141
VTosefta Shabbat 18:13
p1977
sg143
(lp1978
sg145
g99
sg146
Nsg147
(lp1979
I18
aI13
asg149
Nsg150
g1977
sg151
(lp1980
sg153
g60
sg154
Nsg155
Nsg156
Nsbag3
(g4
g5
NtRp1981
(dp1982
g8
g10
sg134
Nsg135
(dp1983
sg137
Nsg25
g27
sg138
(lp1984
I18
aI14
asg140
Nsg141
VTosefta Shabbat 18:14
p1985
sg143
(lp1986
sg145
g99
sg146
Nsg147
(lp1987
I18
aI14
asg149
Nsg150
g1985
sg151
(lp1988
sg153
g60
sg154
Nsg155
Nsg156
Nsbag3
(g4
g5
NtRp1989
(dp1990
g8
g10
sg134
Nsg135
(dp1991
sg137
Nsg25
g27
sg138
(lp1992
I18
aI15
asg140
Nsg141
VTosefta Shabbat 18:15
p1993
sg143
(lp1994
sg145
g99
sg146
Nsg147
(lp1995
I18
aI15
asg149
Nsg150
g1993
sg151
(lp1996
sg153
g60
sg154
Nsg155
Nsg156
Nsbag3
(g4
g5
NtRp1997
(dp1998
g8
g10
sg134
Nsg135
(dp1999
sg137
Nsg25
g27
sg138
(lp2000
I18
aI16
asg140
Nsg141
VTosefta Shabbat 18:16
p2001
sg143
(lp2002
sg145
g99
sg146
Nsg147
(lp2003
I18
aI16
asg149
Nsg150
g2001
sg151
(lp2004
sg153
g60
sg154
Nsg155
Nsg156
Nsbag3
(g4
g5
NtRp2005
(dp2006
g8
g10
sg134
Nsg135
(dp2007
sg137
Nsg25
g27
sg138
(lp2008
I18
aI17
asg140
Nsg141
VTosefta Shabbat 18:17
p2009
sg143
(lp2010
sg145
g99
sg146
Nsg147
(lp2011
I18
aI17
asg149
Nsg150
g2009
sg151
(lp2012
sg153
g60
sg154
Nsg155
Nsg156
NsbaI11747
t.