((lp1
I0
aI131
aI320
aI490
aI592
aI767
aI853
aI896
aI1103
aI1250
aI1392
aI1529
aI1659
aI1790
aI1904
aI2017
aI2199
aI2344
aI2507
aI2605
aI2740
aI2861
aI2961
aI3054
aI3133
aI3165
aI3254
aI3454
aI3555
a(lp2
ccopy_reg
_reconstructor
p3
(csefaria.model.text
Ref
p4
c__builtin__
object
p5
NtRp6
(dp7
S'index_node'
p8
g3
(csefaria.model.schema
JaggedArrayNode
p9
g5
NtRp10
(dp11
S'_address'
p12
(lp13
VTosefta Keilim Batra
p14
asS'_full_titles'
p15
(dp16
sVnodeType
p17
VJaggedArrayNode
p18
sS'parent'
p19
NsVaddressTypes
p20
(lp21
VInteger
p22
aVInteger
p23
asS'default'
p24
I00
sS'index'
p25
g3
(csefaria.model.text
Index
p26
g5
NtRp27
(dp28
S'_id'
p29
g3
(cbson.objectid
ObjectId
p30
g5
NtRp31
S'S3\x17\xfb\xfb\xfb\xa2db\x83\xda4'
p32
bsS'pkeys_orig_values'
p33
(dp34
S'title'
p35
VTosefta Keilim Batra
p36
ssS'pubDate'
p37
V1521
p38
sS'compDate'
p39
V210
p40
sS'pubPlace'
p41
VVenice
p42
sS'compPlace'
p43
VTalmudic Israel
p44
sS'enDesc'
p45
VThe Tosefta (Supplement, addition") is a compilation of the Jewish oral law. Opinions differ widely as to when the Tosefta was redacted and how it relates to the Mishnah. However it closely corresponds to the Mishnah in structure and style, with the same divisions for sedarim ("orders") and masekhot ("tractates"). In many ways, the Tosefta acts as a supplement to the Mishnah. It is mainly written in Mishnaic Hebrew, with some Aramaic. Kelim Batra (Vessels) belongs to the sixth order, Tahorot (Purities) and discusses a large array of various utensils and how they fare in terms of purity. It has seven chapters. It is the largest order of the Mishnah.
p46
sS'order'
p47
(lp48
I3
asS'era'
p49
VT
sS'struct_objs'
p50
(dp51
sS'nodes'
p52
g10
sS'errorMargin'
p53
V20
p54
sS'_title'
p55
g36
sS'categories'
p56
(lp57
VTosefta
p58
aVSeder Toharot
p59
asS'schema'
p60
(dp61
g17
g18
sg20
g21
sVlengths
p62
(lp63
I7
asVdepth
p64
I2
sVtitles
p65
(lp66
(dp67
Vlang
p68
Ven
p69
sVtext
p70
VTosefta Keilim Basra
p71
sa(dp72
Vlang
p73
Ven
p74
sVtext
p75
VTos. Keilim Batra
p76
sa(dp77
Vlang
p78
Ven
p79
sVtext
p80
VT. Keilim Batra
p81
sa(dp82
Vlang
p83
Ven
p84
sVtext
p85
VTos. Keilim Basra
p86
sa(dp87
Vlang
p88
Vhe
p89
sVtext
p90
V\u05ea\u05d5\u05e1\u05e4\u05ea\u05d0 \u05db\u05dc\u05d9\u05dd \u05d1\u05ea\u05e8\u05d0
p91
sVprimary
p92
I01
sa(dp93
Vlang
p94
Ven
p95
sVtext
p96
VTosefta Keilim Batra
p97
sVprimary
p98
I01
sasVkey
p99
g14
sVsectionNames
p100
(lp101
VChapter
p102
aVTosefta
p103
assbsS'_primary_title'
p104
(dp105
sS'title_group'
p106
g3
(csefaria.model.schema
TitleGroup
p107
g5
NtRp108
(dp109
g104
(dp110
S'en'
p111
g97
ssS'titles'
p112
g66
sbsS'_addressTypes'
p113
(lp114
g3
(csefaria.model.schema
AddressInteger
p115
g5
NtRp116
(dp117
S'length'
p118
I7
sg47
I0
sbag3
(g115
g5
NtRp119
(dp120
g118
Nsg47
I1
sbasS'sharedTitle'
p121
Nsg62
g63
sg64
I2
sS'_full_title'
p122
(dp123
g111
g97
ssS'key'
p124
g14
sS'checkFirst'
p125
NsS'_regexes'
p126
(dp127
sS'_leaf_nodes'
p128
(lp129
sg100
g101
sS'children'
p130
(lp131
sbsS'_range_index'
p132
NsS'_context'
p133
(dp134
sS'_padded'
p135
Nsg25
g27
sS'sections'
p136
(lp137
I1
aI1
asS'_first_spanned_ref'
p138
NsS'tref'
p139
VTosefta Keilim Batra 1:1
p140
sS'_spanned_refs'
p141
(lp142
sS'book'
p143
g97
sS'_range_depth'
p144
NsS'toSections'
p145
(lp146
I1
aI1
asS'_url'
p147
NsS'_normal'
p148
g140
sS'_ranged_refs'
p149
(lp150
sS'type'
p151
g58
sS'_prev'
p152
NsS'_he_normal'
p153
NsS'_next'
p154
Nsbag3
(g4
g5
NtRp155
(dp156
g8
g10
sg132
Nsg133
(dp157
sg135
Nsg25
g27
sg136
(lp158
I1
aI2
asg138
Nsg139
VTosefta Keilim Batra 1:2
p159
sg141
(lp160
sg143
g97
sg144
Nsg145
(lp161
I1
aI2
asg147
Nsg148
g159
sg149
(lp162
sg151
g58
sg152
Nsg153
Nsg154
Nsbag3
(g4
g5
NtRp163
(dp164
g8
g10
sg132
Nsg133
(dp165
sg135
Nsg25
g27
sg136
(lp166
I1
aI3
asg138
Nsg139
VTosefta Keilim Batra 1:3
p167
sg141
(lp168
sg143
g97
sg144
Nsg145
(lp169
I1
aI3
asg147
Nsg148
g167
sg149
(lp170
sg151
g58
sg152
Nsg153
Nsg154
Nsbag3
(g4
g5
NtRp171
(dp172
g8
g10
sg132
Nsg133
(dp173
sg135
Nsg25
g27
sg136
(lp174
I1
aI4
asg138
Nsg139
VTosefta Keilim Batra 1:4
p175
sg141
(lp176
sg143
g97
sg144
Nsg145
(lp177
I1
aI4
asg147
Nsg148
g175
sg149
(lp178
sg151
g58
sg152
Nsg153
Nsg154
Nsbag3
(g4
g5
NtRp179
(dp180
g8
g10
sg132
Nsg133
(dp181
sg135
Nsg25
g27
sg136
(lp182
I2
aI1
asg138
Nsg139
VTosefta Keilim Batra 2:1
p183
sg141
(lp184
sg143
g97
sg144
Nsg145
(lp185
I2
aI1
asg147
Nsg148
g183
sg149
(lp186
sg151
g58
sg152
Nsg153
Nsg154
Nsbag3
(g4
g5
NtRp187
(dp188
g8
g10
sg132
Nsg133
(dp189
sg135
Nsg25
g27
sg136
(lp190
I2
aI2
asg138
Nsg139
VTosefta Keilim Batra 2:2
p191
sg141
(lp192
sg143
g97
sg144
Nsg145
(lp193
I2
aI2
asg147
Nsg148
g191
sg149
(lp194
sg151
g58
sg152
Nsg153
Nsg154
Nsbag3
(g4
g5
NtRp195
(dp196
g8
g10
sg132
Nsg133
(dp197
sg135
Nsg25
g27
sg136
(lp198
I2
aI3
asg138
Nsg139
VTosefta Keilim Batra 2:3
p199
sg141
(lp200
sg143
g97
sg144
Nsg145
(lp201
I2
aI3
asg147
Nsg148
g199
sg149
(lp202
sg151
g58
sg152
Nsg153
Nsg154
Nsbag3
(g4
g5
NtRp203
(dp204
g8
g10
sg132
Nsg133
(dp205
sg135
Nsg25
g27
sg136
(lp206
I2
aI4
asg138
Nsg139
VTosefta Keilim Batra 2:4
p207
sg141
(lp208
sg143
g97
sg144
Nsg145
(lp209
I2
aI4
asg147
Nsg148
g207
sg149
(lp210
sg151
g58
sg152
Nsg153
Nsg154
Nsbag3
(g4
g5
NtRp211
(dp212
g8
g10
sg132
Nsg133
(dp213
sg135
Nsg25
g27
sg136
(lp214
I3
aI1
asg138
Nsg139
VTosefta Keilim Batra 3:1
p215
sg141
(lp216
sg143
g97
sg144
Nsg145
(lp217
I3
aI1
asg147
Nsg148
g215
sg149
(lp218
sg151
g58
sg152
Nsg153
Nsg154
Nsbag3
(g4
g5
NtRp219
(dp220
g8
g10
sg132
Nsg133
(dp221
sg135
Nsg25
g27
sg136
(lp222
I3
aI2
asg138
Nsg139
VTosefta Keilim Batra 3:2
p223
sg141
(lp224
sg143
g97
sg144
Nsg145
(lp225
I3
aI2
asg147
Nsg148
g223
sg149
(lp226
sg151
g58
sg152
Nsg153
Nsg154
Nsbag3
(g4
g5
NtRp227
(dp228
g8
g10
sg132
Nsg133
(dp229
sg135
Nsg25
g27
sg136
(lp230
I3
aI3
asg138
Nsg139
VTosefta Keilim Batra 3:3
p231
sg141
(lp232
sg143
g97
sg144
Nsg145
(lp233
I3
aI3
asg147
Nsg148
g231
sg149
(lp234
sg151
g58
sg152
Nsg153
Nsg154
Nsbag3
(g4
g5
NtRp235
(dp236
g8
g10
sg132
Nsg133
(dp237
sg135
Nsg25
g27
sg136
(lp238
I3
aI4
asg138
Nsg139
VTosefta Keilim Batra 3:4
p239
sg141
(lp240
sg143
g97
sg144
Nsg145
(lp241
I3
aI4
asg147
Nsg148
g239
sg149
(lp242
sg151
g58
sg152
Nsg153
Nsg154
Nsbag3
(g4
g5
NtRp243
(dp244
g8
g10
sg132
Nsg133
(dp245
sg135
Nsg25
g27
sg136
(lp246
I4
aI1
asg138
Nsg139
VTosefta Keilim Batra 4:1
p247
sg141
(lp248
sg143
g97
sg144
Nsg145
(lp249
I4
aI1
asg147
Nsg148
g247
sg149
(lp250
sg151
g58
sg152
Nsg153
Nsg154
Nsbag3
(g4
g5
NtRp251
(dp252
g8
g10
sg132
Nsg133
(dp253
sg135
Nsg25
g27
sg136
(lp254
I4
aI2
asg138
Nsg139
VTosefta Keilim Batra 4:2
p255
sg141
(lp256
sg143
g97
sg144
Nsg145
(lp257
I4
aI2
asg147
Nsg148
g255
sg149
(lp258
sg151
g58
sg152
Nsg153
Nsg154
Nsbag3
(g4
g5
NtRp259
(dp260
g8
g10
sg132
Nsg133
(dp261
sg135
Nsg25
g27
sg136
(lp262
I4
aI3
asg138
Nsg139
VTosefta Keilim Batra 4:3
p263
sg141
(lp264
sg143
g97
sg144
Nsg145
(lp265
I4
aI3
asg147
Nsg148
g263
sg149
(lp266
sg151
g58
sg152
Nsg153
Nsg154
Nsbag3
(g4
g5
NtRp267
(dp268
g8
g10
sg132
Nsg133
(dp269
sg135
Nsg25
g27
sg136
(lp270
I4
aI4
asg138
Nsg139
VTosefta Keilim Batra 4:4
p271
sg141
(lp272
sg143
g97
sg144
Nsg145
(lp273
I4
aI4
asg147
Nsg148
g271
sg149
(lp274
sg151
g58
sg152
Nsg153
Nsg154
Nsbag3
(g4
g5
NtRp275
(dp276
g8
g10
sg132
Nsg133
(dp277
sg135
Nsg25
g27
sg136
(lp278
I5
aI1
asg138
Nsg139
VTosefta Keilim Batra 5:1
p279
sg141
(lp280
sg143
g97
sg144
Nsg145
(lp281
I5
aI1
asg147
Nsg148
g279
sg149
(lp282
sg151
g58
sg152
Nsg153
Nsg154
Nsbag3
(g4
g5
NtRp283
(dp284
g8
g10
sg132
Nsg133
(dp285
sg135
Nsg25
g27
sg136
(lp286
I5
aI2
asg138
Nsg139
VTosefta Keilim Batra 5:2
p287
sg141
(lp288
sg143
g97
sg144
Nsg145
(lp289
I5
aI2
asg147
Nsg148
g287
sg149
(lp290
sg151
g58
sg152
Nsg153
Nsg154
Nsbag3
(g4
g5
NtRp291
(dp292
g8
g10
sg132
Nsg133
(dp293
sg135
Nsg25
g27
sg136
(lp294
I5
aI3
asg138
Nsg139
VTosefta Keilim Batra 5:3
p295
sg141
(lp296
sg143
g97
sg144
Nsg145
(lp297
I5
aI3
asg147
Nsg148
g295
sg149
(lp298
sg151
g58
sg152
Nsg153
Nsg154
Nsbag3
(g4
g5
NtRp299
(dp300
g8
g10
sg132
Nsg133
(dp301
sg135
Nsg25
g27
sg136
(lp302
I5
aI4
asg138
Nsg139
VTosefta Keilim Batra 5:4
p303
sg141
(lp304
sg143
g97
sg144
Nsg145
(lp305
I5
aI4
asg147
Nsg148
g303
sg149
(lp306
sg151
g58
sg152
Nsg153
Nsg154
Nsbag3
(g4
g5
NtRp307
(dp308
g8
g10
sg132
Nsg133
(dp309
sg135
Nsg25
g27
sg136
(lp310
I6
aI1
asg138
Nsg139
VTosefta Keilim Batra 6:1
p311
sg141
(lp312
sg143
g97
sg144
Nsg145
(lp313
I6
aI1
asg147
Nsg148
g311
sg149
(lp314
sg151
g58
sg152
Nsg153
Nsg154
Nsbag3
(g4
g5
NtRp315
(dp316
g8
g10
sg132
Nsg133
(dp317
sg135
Nsg25
g27
sg136
(lp318
I6
aI2
asg138
Nsg139
VTosefta Keilim Batra 6:2
p319
sg141
(lp320
sg143
g97
sg144
Nsg145
(lp321
I6
aI2
asg147
Nsg148
g319
sg149
(lp322
sg151
g58
sg152
Nsg153
Nsg154
Nsbag3
(g4
g5
NtRp323
(dp324
g8
g10
sg132
Nsg133
(dp325
sg135
Nsg25
g27
sg136
(lp326
I6
aI3
asg138
Nsg139
VTosefta Keilim Batra 6:3
p327
sg141
(lp328
sg143
g97
sg144
Nsg145
(lp329
I6
aI3
asg147
Nsg148
g327
sg149
(lp330
sg151
g58
sg152
Nsg153
Nsg154
Nsbag3
(g4
g5
NtRp331
(dp332
g8
g10
sg132
Nsg133
(dp333
sg135
Nsg25
g27
sg136
(lp334
I6
aI4
asg138
Nsg139
VTosefta Keilim Batra 6:4
p335
sg141
(lp336
sg143
g97
sg144
Nsg145
(lp337
I6
aI4
asg147
Nsg148
g335
sg149
(lp338
sg151
g58
sg152
Nsg153
Nsg154
Nsbag3
(g4
g5
NtRp339
(dp340
g8
g10
sg132
Nsg133
(dp341
sg135
Nsg25
g27
sg136
(lp342
I6
aI5
asg138
Nsg139
VTosefta Keilim Batra 6:5
p343
sg141
(lp344
sg143
g97
sg144
Nsg145
(lp345
I6
aI5
asg147
Nsg148
g343
sg149
(lp346
sg151
g58
sg152
Nsg153
Nsg154
Nsbag3
(g4
g5
NtRp347
(dp348
g8
g10
sg132
Nsg133
(dp349
sg135
Nsg25
g27
sg136
(lp350
I7
aI1
asg138
Nsg139
VTosefta Keilim Batra 7:1
p351
sg141
(lp352
sg143
g97
sg144
Nsg145
(lp353
I7
aI1
asg147
Nsg148
g351
sg149
(lp354
sg151
g58
sg152
Nsg153
Nsg154
Nsbag3
(g4
g5
NtRp355
(dp356
g8
g10
sg132
Nsg133
(dp357
sg135
Nsg25
g27
sg136
(lp358
I7
aI2
asg138
Nsg139
VTosefta Keilim Batra 7:2
p359
sg141
(lp360
sg143
g97
sg144
Nsg145
(lp361
I7
aI2
asg147
Nsg148
g359
sg149
(lp362
sg151
g58
sg152
Nsg153
Nsg154
Nsbag3
(g4
g5
NtRp363
(dp364
g8
g10
sg132
Nsg133
(dp365
sg135
Nsg25
g27
sg136
(lp366
I7
aI3
asg138
Nsg139
VTosefta Keilim Batra 7:3
p367
sg141
(lp368
sg143
g97
sg144
Nsg145
(lp369
I7
aI3
asg147
Nsg148
g367
sg149
(lp370
sg151
g58
sg152
Nsg153
Nsg154
Nsbag3
(g4
g5
NtRp371
(dp372
g8
g10
sg132
Nsg133
(dp373
sg135
Nsg25
g27
sg136
(lp374
I7
aI4
asg138
Nsg139
VTosefta Keilim Batra 7:4
p375
sg141
(lp376
sg143
g97
sg144
Nsg145
(lp377
I7
aI4
asg147
Nsg148
g375
sg149
(lp378
sg151
g58
sg152
Nsg153
Nsg154
NsbaI3696
t.