((lp1
I0
aI60
aI113
aI184
aI230
aI306
aI475
aI560
aI634
aI685
aI739
aI767
aI880
aI924
aI1002
aI1039
aI1067
aI1204
aI1355
aI1391
aI1454
aI1543
aI1726
aI1763
aI1831
aI2049
aI2184
aI2374
aI2416
a(lp2
ccopy_reg
_reconstructor
p3
(csefaria.model.text
Ref
p4
c__builtin__
object
p5
NtRp6
(dp7
S'index_node'
p8
g3
(csefaria.model.schema
JaggedArrayNode
p9
g5
NtRp10
(dp11
S'_address'
p12
(lp13
VTosefta Temurah
p14
asS'_full_titles'
p15
(dp16
sVnodeType
p17
VJaggedArrayNode
p18
sS'parent'
p19
NsVaddressTypes
p20
(lp21
VInteger
p22
aVInteger
p23
asS'default'
p24
I00
sS'index'
p25
g3
(csefaria.model.text
Index
p26
g5
NtRp27
(dp28
S'struct_objs'
p29
(dp30
sS'_id'
p31
g3
(cbson.objectid
ObjectId
p32
g5
NtRp33
S'S2\xda\x01\xfb\xfb\xa2db\x83\xcc\xe8'
p34
bsS'pkeys_orig_values'
p35
(dp36
S'title'
p37
VTosefta Temurah
p38
ssS'pubDate'
p39
V1521
p40
sS'transliteratedTitle'
p41
VTosefta Temurah
p42
sS'pubPlace'
p43
VVenice
p44
sS'compPlace'
p45
VTalmudic Israel
p46
sS'enDesc'
p47
VThe Tosefta (Supplement, addition") is a compilation of the Jewish oral law. Opinions differ widely as to when the Tosefta was redacted and how it relates to the Mishnah. However it closely corresponds to the Mishnah in structure and style, with the same divisions for sedarim ("orders") and masekhot ("tractates"). In many ways, the Tosefta acts as a supplement to the Mishnah. It is mainly written in Mishnaic Hebrew, with some Aramaic. Temurah (Substitution) belongs to the fifth order, Nezikin (The Order of Damages) and discusses the laws of what happens if an animal is substituted for an animal dedicated for a sacrifice. It has four chapters.
p48
sS'order'
p49
(lp50
I6
asS'era'
p51
VT
sS'compDate'
p52
V210
p53
sS'nodes'
p54
g10
sS'errorMargin'
p55
V20
p56
sS'_title'
p57
g38
sS'categories'
p58
(lp59
VTosefta
p60
aVSeder Kodashim
p61
asS'schema'
p62
(dp63
g17
g18
sg20
g21
sVlengths
p64
(lp65
I4
asVdepth
p66
I2
sVtitles
p67
(lp68
(dp69
Vlang
p70
Ven
p71
sVtext
p72
VT. Temurah
p73
sa(dp74
Vlang
p75
Ven
p76
sVtext
p77
VTos. Temurah
p78
sa(dp79
Vlang
p80
Ven
p81
sVtext
p82
VTosefta Tmurah
p83
sa(dp84
Vlang
p85
Ven
p86
sVtext
p87
VTos. Tmurah
p88
sa(dp89
Vlang
p90
Vhe
p91
sVtext
p92
V\u05ea\u05d5\u05e1\u05e4\u05ea\u05d0 \u05ea\u05de\u05d5\u05e8\u05d4
p93
sVprimary
p94
I01
sa(dp95
Vlang
p96
Ven
p97
sVtext
p98
VTosefta Temurah
p99
sVprimary
p100
I01
sasVkey
p101
g14
sVsectionNames
p102
(lp103
VChapter
p104
aVTosefta
p105
assbsS'_primary_title'
p106
(dp107
sS'title_group'
p108
g3
(csefaria.model.schema
TitleGroup
p109
g5
NtRp110
(dp111
g106
(dp112
S'en'
p113
g99
ssS'titles'
p114
g68
sbsS'_addressTypes'
p115
(lp116
g3
(csefaria.model.schema
AddressInteger
p117
g5
NtRp118
(dp119
S'length'
p120
I4
sg49
I0
sbag3
(g117
g5
NtRp121
(dp122
g120
Nsg49
I1
sbasS'sharedTitle'
p123
Nsg64
g65
sg66
I2
sS'_full_title'
p124
(dp125
g113
g99
ssS'key'
p126
g14
sS'checkFirst'
p127
NsS'_regexes'
p128
(dp129
sS'_leaf_nodes'
p130
(lp131
sg102
g103
sS'children'
p132
(lp133
sbsS'_range_index'
p134
NsS'_context'
p135
(dp136
sS'_padded'
p137
Nsg25
g27
sS'sections'
p138
(lp139
I1
aI1
asS'_first_spanned_ref'
p140
NsS'tref'
p141
VTosefta Temurah 1:1
p142
sS'_spanned_refs'
p143
(lp144
sS'book'
p145
g99
sS'_range_depth'
p146
NsS'toSections'
p147
(lp148
I1
aI1
asS'_url'
p149
NsS'_normal'
p150
g142
sS'_ranged_refs'
p151
(lp152
sS'type'
p153
g60
sS'_prev'
p154
NsS'_he_normal'
p155
NsS'_next'
p156
Nsbag3
(g4
g5
NtRp157
(dp158
g8
g10
sg134
Nsg135
(dp159
sg137
Nsg25
g27
sg138
(lp160
I1
aI2
asg140
Nsg141
VTosefta Temurah 1:2
p161
sg143
(lp162
sg145
g99
sg146
Nsg147
(lp163
I1
aI2
asg149
Nsg150
g161
sg151
(lp164
sg153
g60
sg154
Nsg155
Nsg156
Nsbag3
(g4
g5
NtRp165
(dp166
g8
g10
sg134
Nsg135
(dp167
sg137
Nsg25
g27
sg138
(lp168
I1
aI3
asg140
Nsg141
VTosefta Temurah 1:3
p169
sg143
(lp170
sg145
g99
sg146
Nsg147
(lp171
I1
aI3
asg149
Nsg150
g169
sg151
(lp172
sg153
g60
sg154
Nsg155
Nsg156
Nsbag3
(g4
g5
NtRp173
(dp174
g8
g10
sg134
Nsg135
(dp175
sg137
Nsg25
g27
sg138
(lp176
I1
aI4
asg140
Nsg141
VTosefta Temurah 1:4
p177
sg143
(lp178
sg145
g99
sg146
Nsg147
(lp179
I1
aI4
asg149
Nsg150
g177
sg151
(lp180
sg153
g60
sg154
Nsg155
Nsg156
Nsbag3
(g4
g5
NtRp181
(dp182
g8
g10
sg134
Nsg135
(dp183
sg137
Nsg25
g27
sg138
(lp184
I1
aI5
asg140
Nsg141
VTosefta Temurah 1:5
p185
sg143
(lp186
sg145
g99
sg146
Nsg147
(lp187
I1
aI5
asg149
Nsg150
g185
sg151
(lp188
sg153
g60
sg154
Nsg155
Nsg156
Nsbag3
(g4
g5
NtRp189
(dp190
g8
g10
sg134
Nsg135
(dp191
sg137
Nsg25
g27
sg138
(lp192
I1
aI6
asg140
Nsg141
VTosefta Temurah 1:6
p193
sg143
(lp194
sg145
g99
sg146
Nsg147
(lp195
I1
aI6
asg149
Nsg150
g193
sg151
(lp196
sg153
g60
sg154
Nsg155
Nsg156
Nsbag3
(g4
g5
NtRp197
(dp198
g8
g10
sg134
Nsg135
(dp199
sg137
Nsg25
g27
sg138
(lp200
I1
aI7
asg140
Nsg141
VTosefta Temurah 1:7
p201
sg143
(lp202
sg145
g99
sg146
Nsg147
(lp203
I1
aI7
asg149
Nsg150
g201
sg151
(lp204
sg153
g60
sg154
Nsg155
Nsg156
Nsbag3
(g4
g5
NtRp205
(dp206
g8
g10
sg134
Nsg135
(dp207
sg137
Nsg25
g27
sg138
(lp208
I1
aI8
asg140
Nsg141
VTosefta Temurah 1:8
p209
sg143
(lp210
sg145
g99
sg146
Nsg147
(lp211
I1
aI8
asg149
Nsg150
g209
sg151
(lp212
sg153
g60
sg154
Nsg155
Nsg156
Nsbag3
(g4
g5
NtRp213
(dp214
g8
g10
sg134
Nsg135
(dp215
sg137
Nsg25
g27
sg138
(lp216
I1
aI9
asg140
Nsg141
VTosefta Temurah 1:9
p217
sg143
(lp218
sg145
g99
sg146
Nsg147
(lp219
I1
aI9
asg149
Nsg150
g217
sg151
(lp220
sg153
g60
sg154
Nsg155
Nsg156
Nsbag3
(g4
g5
NtRp221
(dp222
g8
g10
sg134
Nsg135
(dp223
sg137
Nsg25
g27
sg138
(lp224
I1
aI10
asg140
Nsg141
VTosefta Temurah 1:10
p225
sg143
(lp226
sg145
g99
sg146
Nsg147
(lp227
I1
aI10
asg149
Nsg150
g225
sg151
(lp228
sg153
g60
sg154
Nsg155
Nsg156
Nsbag3
(g4
g5
NtRp229
(dp230
g8
g10
sg134
Nsg135
(dp231
sg137
Nsg25
g27
sg138
(lp232
I1
aI11
asg140
Nsg141
VTosefta Temurah 1:11
p233
sg143
(lp234
sg145
g99
sg146
Nsg147
(lp235
I1
aI11
asg149
Nsg150
g233
sg151
(lp236
sg153
g60
sg154
Nsg155
Nsg156
Nsbag3
(g4
g5
NtRp237
(dp238
g8
g10
sg134
Nsg135
(dp239
sg137
Nsg25
g27
sg138
(lp240
I1
aI12
asg140
Nsg141
VTosefta Temurah 1:12
p241
sg143
(lp242
sg145
g99
sg146
Nsg147
(lp243
I1
aI12
asg149
Nsg150
g241
sg151
(lp244
sg153
g60
sg154
Nsg155
Nsg156
Nsbag3
(g4
g5
NtRp245
(dp246
g8
g10
sg134
Nsg135
(dp247
sg137
Nsg25
g27
sg138
(lp248
I2
aI1
asg140
Nsg141
VTosefta Temurah 2:1
p249
sg143
(lp250
sg145
g99
sg146
Nsg147
(lp251
I2
aI1
asg149
Nsg150
g249
sg151
(lp252
sg153
g60
sg154
Nsg155
Nsg156
Nsbag3
(g4
g5
NtRp253
(dp254
g8
g10
sg134
Nsg135
(dp255
sg137
Nsg25
g27
sg138
(lp256
I2
aI2
asg140
Nsg141
VTosefta Temurah 2:2
p257
sg143
(lp258
sg145
g99
sg146
Nsg147
(lp259
I2
aI2
asg149
Nsg150
g257
sg151
(lp260
sg153
g60
sg154
Nsg155
Nsg156
Nsbag3
(g4
g5
NtRp261
(dp262
g8
g10
sg134
Nsg135
(dp263
sg137
Nsg25
g27
sg138
(lp264
I2
aI3
asg140
Nsg141
VTosefta Temurah 2:3
p265
sg143
(lp266
sg145
g99
sg146
Nsg147
(lp267
I2
aI3
asg149
Nsg150
g265
sg151
(lp268
sg153
g60
sg154
Nsg155
Nsg156
Nsbag3
(g4
g5
NtRp269
(dp270
g8
g10
sg134
Nsg135
(dp271
sg137
Nsg25
g27
sg138
(lp272
I2
aI4
asg140
Nsg141
VTosefta Temurah 2:4
p273
sg143
(lp274
sg145
g99
sg146
Nsg147
(lp275
I2
aI4
asg149
Nsg150
g273
sg151
(lp276
sg153
g60
sg154
Nsg155
Nsg156
Nsbag3
(g4
g5
NtRp277
(dp278
g8
g10
sg134
Nsg135
(dp279
sg137
Nsg25
g27
sg138
(lp280
I2
aI5
asg140
Nsg141
VTosefta Temurah 2:5
p281
sg143
(lp282
sg145
g99
sg146
Nsg147
(lp283
I2
aI5
asg149
Nsg150
g281
sg151
(lp284
sg153
g60
sg154
Nsg155
Nsg156
Nsbag3
(g4
g5
NtRp285
(dp286
g8
g10
sg134
Nsg135
(dp287
sg137
Nsg25
g27
sg138
(lp288
I2
aI6
asg140
Nsg141
VTosefta Temurah 2:6
p289
sg143
(lp290
sg145
g99
sg146
Nsg147
(lp291
I2
aI6
asg149
Nsg150
g289
sg151
(lp292
sg153
g60
sg154
Nsg155
Nsg156
Nsbag3
(g4
g5
NtRp293
(dp294
g8
g10
sg134
Nsg135
(dp295
sg137
Nsg25
g27
sg138
(lp296
I2
aI7
asg140
Nsg141
VTosefta Temurah 2:7
p297
sg143
(lp298
sg145
g99
sg146
Nsg147
(lp299
I2
aI7
asg149
Nsg150
g297
sg151
(lp300
sg153
g60
sg154
Nsg155
Nsg156
Nsbag3
(g4
g5
NtRp301
(dp302
g8
g10
sg134
Nsg135
(dp303
sg137
Nsg25
g27
sg138
(lp304
I3
aI1
asg140
Nsg141
VTosefta Temurah 3:1
p305
sg143
(lp306
sg145
g99
sg146
Nsg147
(lp307
I3
aI1
asg149
Nsg150
g305
sg151
(lp308
sg153
g60
sg154
Nsg155
Nsg156
Nsbag3
(g4
g5
NtRp309
(dp310
g8
g10
sg134
Nsg135
(dp311
sg137
Nsg25
g27
sg138
(lp312
I3
aI2
asg140
Nsg141
VTosefta Temurah 3:2
p313
sg143
(lp314
sg145
g99
sg146
Nsg147
(lp315
I3
aI2
asg149
Nsg150
g313
sg151
(lp316
sg153
g60
sg154
Nsg155
Nsg156
Nsbag3
(g4
g5
NtRp317
(dp318
g8
g10
sg134
Nsg135
(dp319
sg137
Nsg25
g27
sg138
(lp320
I3
aI3
asg140
Nsg141
VTosefta Temurah 3:3
p321
sg143
(lp322
sg145
g99
sg146
Nsg147
(lp323
I3
aI3
asg149
Nsg150
g321
sg151
(lp324
sg153
g60
sg154
Nsg155
Nsg156
Nsbag3
(g4
g5
NtRp325
(dp326
g8
g10
sg134
Nsg135
(dp327
sg137
Nsg25
g27
sg138
(lp328
I3
aI4
asg140
Nsg141
VTosefta Temurah 3:4
p329
sg143
(lp330
sg145
g99
sg146
Nsg147
(lp331
I3
aI4
asg149
Nsg150
g329
sg151
(lp332
sg153
g60
sg154
Nsg155
Nsg156
Nsbag3
(g4
g5
NtRp333
(dp334
g8
g10
sg134
Nsg135
(dp335
sg137
Nsg25
g27
sg138
(lp336
I3
aI5
asg140
Nsg141
VTosefta Temurah 3:5
p337
sg143
(lp338
sg145
g99
sg146
Nsg147
(lp339
I3
aI5
asg149
Nsg150
g337
sg151
(lp340
sg153
g60
sg154
Nsg155
Nsg156
Nsbag3
(g4
g5
NtRp341
(dp342
g8
g10
sg134
Nsg135
(dp343
sg137
Nsg25
g27
sg138
(lp344
I3
aI6
asg140
Nsg141
VTosefta Temurah 3:6
p345
sg143
(lp346
sg145
g99
sg146
Nsg147
(lp347
I3
aI6
asg149
Nsg150
g345
sg151
(lp348
sg153
g60
sg154
Nsg155
Nsg156
Nsbag3
(g4
g5
NtRp349
(dp350
g8
g10
sg134
Nsg135
(dp351
sg137
Nsg25
g27
sg138
(lp352
I4
aI1
asg140
Nsg141
VTosefta Temurah 4:1
p353
sg143
(lp354
sg145
g99
sg146
Nsg147
(lp355
I4
aI1
asg149
Nsg150
g353
sg151
(lp356
sg153
g60
sg154
Nsg155
Nsg156
Nsbag3
(g4
g5
NtRp357
(dp358
g8
g10
sg134
Nsg135
(dp359
sg137
Nsg25
g27
sg138
(lp360
I4
aI2
asg140
Nsg141
VTosefta Temurah 4:2
p361
sg143
(lp362
sg145
g99
sg146
Nsg147
(lp363
I4
aI2
asg149
Nsg150
g361
sg151
(lp364
sg153
g60
sg154
Nsg155
Nsg156
Nsbag3
(g4
g5
NtRp365
(dp366
g8
g10
sg134
Nsg135
(dp367
sg137
Nsg25
g27
sg138
(lp368
I4
aI3
asg140
Nsg141
VTosefta Temurah 4:3
p369
sg143
(lp370
sg145
g99
sg146
Nsg147
(lp371
I4
aI3
asg149
Nsg150
g369
sg151
(lp372
sg153
g60
sg154
Nsg155
Nsg156
Nsbag3
(g4
g5
NtRp373
(dp374
g8
g10
sg134
Nsg135
(dp375
sg137
Nsg25
g27
sg138
(lp376
I4
aI4
asg140
Nsg141
VTosefta Temurah 4:4
p377
sg143
(lp378
sg145
g99
sg146
Nsg147
(lp379
I4
aI4
asg149
Nsg150
g377
sg151
(lp380
sg153
g60
sg154
Nsg155
Nsg156
NsbaI2639
t.