((lp1
I0
aI79
aI139
aI233
aI324
aI412
aI553
aI583
aI927
aI1036
aI1171
aI1191
aI1265
aI1335
aI1404
aI1453
aI1590
aI1725
aI1784
aI1892
aI1981
aI2051
aI2135
aI2234
aI2330
aI2436
aI2524
a(lp2
ccopy_reg
_reconstructor
p3
(csefaria.model.text
Ref
p4
c__builtin__
object
p5
NtRp6
(dp7
S'index_node'
p8
g3
(csefaria.model.schema
JaggedArrayNode
p9
g5
NtRp10
(dp11
S'_address'
p12
(lp13
VTosefta Makkot
p14
asS'_full_titles'
p15
(dp16
sVnodeType
p17
VJaggedArrayNode
p18
sS'parent'
p19
NsVaddressTypes
p20
(lp21
VInteger
p22
aVInteger
p23
asS'default'
p24
I00
sS'index'
p25
g3
(csefaria.model.text
Index
p26
g5
NtRp27
(dp28
S'struct_objs'
p29
(dp30
sS'_id'
p31
g3
(cbson.objectid
ObjectId
p32
g5
NtRp33
S'S0\x01#\xfb\xfb\xa2l+\xb6\x89\xaa'
p34
bsS'pkeys_orig_values'
p35
(dp36
S'title'
p37
VTosefta Makkot
p38
ssS'pubDate'
p39
V1521
p40
sS'transliteratedTitle'
p41
VTosefta Makkot
p42
sS'pubPlace'
p43
VVenice
p44
sS'compPlace'
p45
VTalmudic Israel
p46
sS'enDesc'
p47
VThe Tosefta (Supplement, addition") is a compilation of the Jewish oral law. Opinions differ widely as to when the Tosefta was redacted and how it relates to the Mishnah. However it closely corresponds to the Mishnah in structure and style, with the same divisions for sedarim ("orders") and masekhot ("tractates"). In many ways, the Tosefta acts as a supplement to the Mishnah. It is mainly written in Mishnaic Hebrew, with some Aramaic. Makkot (Lashes) belongs to the fourth order, Nezikin (The Order of Damages) and discusses collusive witnesses, cities of refuge and the punishment of lashes. It has four chapters.
p48
sS'order'
p49
(lp50
I5
asS'era'
p51
VT
sS'compDate'
p52
V210
p53
sS'nodes'
p54
g10
sS'errorMargin'
p55
V20
p56
sS'_title'
p57
g38
sS'categories'
p58
(lp59
VTosefta
p60
aVSeder Nezikin
p61
asS'schema'
p62
(dp63
g17
g18
sg20
g21
sVlengths
p64
(lp65
I4
asVdepth
p66
I2
sVtitles
p67
(lp68
(dp69
Vlang
p70
Ven
p71
sVtext
p72
VTos. Makot
p73
sa(dp74
Vlang
p75
Ven
p76
sVtext
p77
VTos. Makkot
p78
sa(dp79
Vlang
p80
Ven
p81
sVtext
p82
VT. Makkot
p83
sa(dp84
Vlang
p85
Ven
p86
sVtext
p87
VT. Makot
p88
sa(dp89
Vlang
p90
Ven
p91
sVtext
p92
VTosefta Makot
p93
sa(dp94
Vlang
p95
Vhe
p96
sVtext
p97
V\u05ea\u05d5\u05e1\u05e4\u05ea\u05d0 \u05de\u05db\u05d5\u05ea
p98
sVprimary
p99
I01
sa(dp100
Vlang
p101
Ven
p102
sVtext
p103
VTosefta Makkot
p104
sVprimary
p105
I01
sasVkey
p106
g14
sVsectionNames
p107
(lp108
VChapter
p109
aVTosefta
p110
assbsS'_primary_title'
p111
(dp112
sS'title_group'
p113
g3
(csefaria.model.schema
TitleGroup
p114
g5
NtRp115
(dp116
g111
(dp117
S'en'
p118
g104
ssS'titles'
p119
g68
sbsS'_addressTypes'
p120
(lp121
g3
(csefaria.model.schema
AddressInteger
p122
g5
NtRp123
(dp124
S'length'
p125
I4
sg49
I0
sbag3
(g122
g5
NtRp126
(dp127
g125
Nsg49
I1
sbasS'sharedTitle'
p128
Nsg64
g65
sg66
I2
sS'_full_title'
p129
(dp130
g118
g104
ssS'key'
p131
g14
sS'checkFirst'
p132
NsS'_regexes'
p133
(dp134
sS'_leaf_nodes'
p135
(lp136
sg107
g108
sS'children'
p137
(lp138
sbsS'_range_index'
p139
NsS'_context'
p140
(dp141
sS'_padded'
p142
Nsg25
g27
sS'sections'
p143
(lp144
I1
aI1
asS'_first_spanned_ref'
p145
NsS'tref'
p146
VTosefta Makkot 1:1
p147
sS'_spanned_refs'
p148
(lp149
sS'book'
p150
g104
sS'_range_depth'
p151
NsS'toSections'
p152
(lp153
I1
aI1
asS'_url'
p154
NsS'_normal'
p155
g147
sS'_ranged_refs'
p156
(lp157
sS'type'
p158
g60
sS'_prev'
p159
NsS'_he_normal'
p160
NsS'_next'
p161
Nsbag3
(g4
g5
NtRp162
(dp163
g8
g10
sg139
Nsg140
(dp164
sg142
Nsg25
g27
sg143
(lp165
I1
aI2
asg145
Nsg146
VTosefta Makkot 1:2
p166
sg148
(lp167
sg150
g104
sg151
Nsg152
(lp168
I1
aI2
asg154
Nsg155
g166
sg156
(lp169
sg158
g60
sg159
Nsg160
Nsg161
Nsbag3
(g4
g5
NtRp170
(dp171
g8
g10
sg139
Nsg140
(dp172
sg142
Nsg25
g27
sg143
(lp173
I1
aI3
asg145
Nsg146
VTosefta Makkot 1:3
p174
sg148
(lp175
sg150
g104
sg151
Nsg152
(lp176
I1
aI3
asg154
Nsg155
g174
sg156
(lp177
sg158
g60
sg159
Nsg160
Nsg161
Nsbag3
(g4
g5
NtRp178
(dp179
g8
g10
sg139
Nsg140
(dp180
sg142
Nsg25
g27
sg143
(lp181
I1
aI4
asg145
Nsg146
VTosefta Makkot 1:4
p182
sg148
(lp183
sg150
g104
sg151
Nsg152
(lp184
I1
aI4
asg154
Nsg155
g182
sg156
(lp185
sg158
g60
sg159
Nsg160
Nsg161
Nsbag3
(g4
g5
NtRp186
(dp187
g8
g10
sg139
Nsg140
(dp188
sg142
Nsg25
g27
sg143
(lp189
I1
aI5
asg145
Nsg146
VTosefta Makkot 1:5
p190
sg148
(lp191
sg150
g104
sg151
Nsg152
(lp192
I1
aI5
asg154
Nsg155
g190
sg156
(lp193
sg158
g60
sg159
Nsg160
Nsg161
Nsbag3
(g4
g5
NtRp194
(dp195
g8
g10
sg139
Nsg140
(dp196
sg142
Nsg25
g27
sg143
(lp197
I1
aI6
asg145
Nsg146
VTosefta Makkot 1:6
p198
sg148
(lp199
sg150
g104
sg151
Nsg152
(lp200
I1
aI6
asg154
Nsg155
g198
sg156
(lp201
sg158
g60
sg159
Nsg160
Nsg161
Nsbag3
(g4
g5
NtRp202
(dp203
g8
g10
sg139
Nsg140
(dp204
sg142
Nsg25
g27
sg143
(lp205
I2
aI1
asg145
Nsg146
VTosefta Makkot 2:1
p206
sg148
(lp207
sg150
g104
sg151
Nsg152
(lp208
I2
aI1
asg154
Nsg155
g206
sg156
(lp209
sg158
g60
sg159
Nsg160
Nsg161
Nsbag3
(g4
g5
NtRp210
(dp211
g8
g10
sg139
Nsg140
(dp212
sg142
Nsg25
g27
sg143
(lp213
I2
aI2
asg145
Nsg146
VTosefta Makkot 2:2
p214
sg148
(lp215
sg150
g104
sg151
Nsg152
(lp216
I2
aI2
asg154
Nsg155
g214
sg156
(lp217
sg158
g60
sg159
Nsg160
Nsg161
Nsbag3
(g4
g5
NtRp218
(dp219
g8
g10
sg139
Nsg140
(dp220
sg142
Nsg25
g27
sg143
(lp221
I2
aI3
asg145
Nsg146
VTosefta Makkot 2:3
p222
sg148
(lp223
sg150
g104
sg151
Nsg152
(lp224
I2
aI3
asg154
Nsg155
g222
sg156
(lp225
sg158
g60
sg159
Nsg160
Nsg161
Nsbag3
(g4
g5
NtRp226
(dp227
g8
g10
sg139
Nsg140
(dp228
sg142
Nsg25
g27
sg143
(lp229
I3
aI1
asg145
Nsg146
VTosefta Makkot 3:1
p230
sg148
(lp231
sg150
g104
sg151
Nsg152
(lp232
I3
aI1
asg154
Nsg155
g230
sg156
(lp233
sg158
g60
sg159
Nsg160
Nsg161
Nsbag3
(g4
g5
NtRp234
(dp235
g8
g10
sg139
Nsg140
(dp236
sg142
Nsg25
g27
sg143
(lp237
I3
aI2
asg145
Nsg146
VTosefta Makkot 3:2
p238
sg148
(lp239
sg150
g104
sg151
Nsg152
(lp240
I3
aI2
asg154
Nsg155
g238
sg156
(lp241
sg158
g60
sg159
Nsg160
Nsg161
Nsbag3
(g4
g5
NtRp242
(dp243
g8
g10
sg139
Nsg140
(dp244
sg142
Nsg25
g27
sg143
(lp245
I3
aI3
asg145
Nsg146
VTosefta Makkot 3:3
p246
sg148
(lp247
sg150
g104
sg151
Nsg152
(lp248
I3
aI3
asg154
Nsg155
g246
sg156
(lp249
sg158
g60
sg159
Nsg160
Nsg161
Nsbag3
(g4
g5
NtRp250
(dp251
g8
g10
sg139
Nsg140
(dp252
sg142
Nsg25
g27
sg143
(lp253
I3
aI4
asg145
Nsg146
VTosefta Makkot 3:4
p254
sg148
(lp255
sg150
g104
sg151
Nsg152
(lp256
I3
aI4
asg154
Nsg155
g254
sg156
(lp257
sg158
g60
sg159
Nsg160
Nsg161
Nsbag3
(g4
g5
NtRp258
(dp259
g8
g10
sg139
Nsg140
(dp260
sg142
Nsg25
g27
sg143
(lp261
I3
aI5
asg145
Nsg146
VTosefta Makkot 3:5
p262
sg148
(lp263
sg150
g104
sg151
Nsg152
(lp264
I3
aI5
asg154
Nsg155
g262
sg156
(lp265
sg158
g60
sg159
Nsg160
Nsg161
Nsbag3
(g4
g5
NtRp266
(dp267
g8
g10
sg139
Nsg140
(dp268
sg142
Nsg25
g27
sg143
(lp269
I3
aI6
asg145
Nsg146
VTosefta Makkot 3:6
p270
sg148
(lp271
sg150
g104
sg151
Nsg152
(lp272
I3
aI6
asg154
Nsg155
g270
sg156
(lp273
sg158
g60
sg159
Nsg160
Nsg161
Nsbag3
(g4
g5
NtRp274
(dp275
g8
g10
sg139
Nsg140
(dp276
sg142
Nsg25
g27
sg143
(lp277
I3
aI7
asg145
Nsg146
VTosefta Makkot 3:7
p278
sg148
(lp279
sg150
g104
sg151
Nsg152
(lp280
I3
aI7
asg154
Nsg155
g278
sg156
(lp281
sg158
g60
sg159
Nsg160
Nsg161
Nsbag3
(g4
g5
NtRp282
(dp283
g8
g10
sg139
Nsg140
(dp284
sg142
Nsg25
g27
sg143
(lp285
I3
aI8
asg145
Nsg146
VTosefta Makkot 3:8
p286
sg148
(lp287
sg150
g104
sg151
Nsg152
(lp288
I3
aI8
asg154
Nsg155
g286
sg156
(lp289
sg158
g60
sg159
Nsg160
Nsg161
Nsbag3
(g4
g5
NtRp290
(dp291
g8
g10
sg139
Nsg140
(dp292
sg142
Nsg25
g27
sg143
(lp293
I3
aI9
asg145
Nsg146
VTosefta Makkot 3:9
p294
sg148
(lp295
sg150
g104
sg151
Nsg152
(lp296
I3
aI9
asg154
Nsg155
g294
sg156
(lp297
sg158
g60
sg159
Nsg160
Nsg161
Nsbag3
(g4
g5
NtRp298
(dp299
g8
g10
sg139
Nsg140
(dp300
sg142
Nsg25
g27
sg143
(lp301
I3
aI10
asg145
Nsg146
VTosefta Makkot 3:10
p302
sg148
(lp303
sg150
g104
sg151
Nsg152
(lp304
I3
aI10
asg154
Nsg155
g302
sg156
(lp305
sg158
g60
sg159
Nsg160
Nsg161
Nsbag3
(g4
g5
NtRp306
(dp307
g8
g10
sg139
Nsg140
(dp308
sg142
Nsg25
g27
sg143
(lp309
I4
aI1
asg145
Nsg146
VTosefta Makkot 4:1
p310
sg148
(lp311
sg150
g104
sg151
Nsg152
(lp312
I4
aI1
asg154
Nsg155
g310
sg156
(lp313
sg158
g60
sg159
Nsg160
Nsg161
Nsbag3
(g4
g5
NtRp314
(dp315
g8
g10
sg139
Nsg140
(dp316
sg142
Nsg25
g27
sg143
(lp317
I4
aI2
asg145
Nsg146
VTosefta Makkot 4:2
p318
sg148
(lp319
sg150
g104
sg151
Nsg152
(lp320
I4
aI2
asg154
Nsg155
g318
sg156
(lp321
sg158
g60
sg159
Nsg160
Nsg161
Nsbag3
(g4
g5
NtRp322
(dp323
g8
g10
sg139
Nsg140
(dp324
sg142
Nsg25
g27
sg143
(lp325
I4
aI3
asg145
Nsg146
VTosefta Makkot 4:3
p326
sg148
(lp327
sg150
g104
sg151
Nsg152
(lp328
I4
aI3
asg154
Nsg155
g326
sg156
(lp329
sg158
g60
sg159
Nsg160
Nsg161
Nsbag3
(g4
g5
NtRp330
(dp331
g8
g10
sg139
Nsg140
(dp332
sg142
Nsg25
g27
sg143
(lp333
I4
aI4
asg145
Nsg146
VTosefta Makkot 4:4
p334
sg148
(lp335
sg150
g104
sg151
Nsg152
(lp336
I4
aI4
asg154
Nsg155
g334
sg156
(lp337
sg158
g60
sg159
Nsg160
Nsg161
Nsbag3
(g4
g5
NtRp338
(dp339
g8
g10
sg139
Nsg140
(dp340
sg142
Nsg25
g27
sg143
(lp341
I4
aI5
asg145
Nsg146
VTosefta Makkot 4:5
p342
sg148
(lp343
sg150
g104
sg151
Nsg152
(lp344
I4
aI5
asg154
Nsg155
g342
sg156
(lp345
sg158
g60
sg159
Nsg160
Nsg161
Nsbag3
(g4
g5
NtRp346
(dp347
g8
g10
sg139
Nsg140
(dp348
sg142
Nsg25
g27
sg143
(lp349
I4
aI6
asg145
Nsg146
VTosefta Makkot 4:6
p350
sg148
(lp351
sg150
g104
sg151
Nsg152
(lp352
I4
aI6
asg154
Nsg155
g350
sg156
(lp353
sg158
g60
sg159
Nsg160
Nsg161
Nsbag3
(g4
g5
NtRp354
(dp355
g8
g10
sg139
Nsg140
(dp356
sg142
Nsg25
g27
sg143
(lp357
I4
aI7
asg145
Nsg146
VTosefta Makkot 4:7
p358
sg148
(lp359
sg150
g104
sg151
Nsg152
(lp360
I4
aI7
asg154
Nsg155
g358
sg156
(lp361
sg158
g60
sg159
Nsg160
Nsg161
Nsbag3
(g4
g5
NtRp362
(dp363
g8
g10
sg139
Nsg140
(dp364
sg142
Nsg25
g27
sg143
(lp365
I4
aI8
asg145
Nsg146
VTosefta Makkot 4:8
p366
sg148
(lp367
sg150
g104
sg151
Nsg152
(lp368
I4
aI8
asg154
Nsg155
g366
sg156
(lp369
sg158
g60
sg159
Nsg160
Nsg161
NsbaI2589
t.