((lp1
I0
aI33
aI139
aI187
aI399
aI415
aI485
aI579
aI650
aI705
aI737
aI817
aI931
aI1138
aI1171
aI1255
aI1282
aI1291
aI1347
aI1374
aI1548
aI1623
aI1692
aI1783
aI1927
aI2069
aI2136
aI2226
aI2389
aI2406
aI2528
aI2622
aI2846
aI2943
aI2976
aI3010
aI3109
aI3207
aI3301
aI3433
aI3493
aI3539
aI3754
aI3810
a(lp2
ccopy_reg
_reconstructor
p3
(csefaria.model.text
Ref
p4
c__builtin__
object
p5
NtRp6
(dp7
S'index_node'
p8
g3
(csefaria.model.schema
JaggedArrayNode
p9
g5
NtRp10
(dp11
S'_address'
p12
(lp13
VTosefta Arakhin
p14
asS'_full_titles'
p15
(dp16
sVnodeType
p17
VJaggedArrayNode
p18
sS'parent'
p19
NsVaddressTypes
p20
(lp21
VInteger
p22
aVInteger
p23
asS'default'
p24
I00
sS'index'
p25
g3
(csefaria.model.text
Index
p26
g5
NtRp27
(dp28
S'struct_objs'
p29
(dp30
sS'_id'
p31
g3
(cbson.objectid
ObjectId
p32
g5
NtRp33
S'S2\xd8\xa8\xfb\xfb\xa2db\x83\xcc\xb0'
p34
bsS'pkeys_orig_values'
p35
(dp36
S'title'
p37
VTosefta Arakhin
p38
ssS'pubDate'
p39
V1521
p40
sS'transliteratedTitle'
p41
VTosefta Arakhin
p42
sS'pubPlace'
p43
VVenice
p44
sS'compPlace'
p45
VTalmudic Israel
p46
sS'enDesc'
p47
VThe Tosefta (Supplement, addition") is a compilation of the Jewish oral law. Opinions differ widely as to when the Tosefta was redacted and how it relates to the Mishnah. However it closely corresponds to the Mishnah in structure and style, with the same divisions for sedarim ("orders") and masekhot ("tractates"). In many ways, the Tosefta acts as a supplement to the Mishnah. It is mainly written in Mishnaic Hebrew, with some Aramaic. Arakhin (Dedications) belongs to the fifth order, Kodshim (Holy things) and discusses a person dedicating their value to the Temple or dedicating a field. It has five chapters.
p48
sS'order'
p49
(lp50
I5
asS'era'
p51
VT
sS'compDate'
p52
V210
p53
sS'nodes'
p54
g10
sS'errorMargin'
p55
V20
p56
sS'_title'
p57
g38
sS'categories'
p58
(lp59
VTosefta
p60
aVSeder Kodashim
p61
asS'schema'
p62
(dp63
g17
g18
sg20
g21
sVlengths
p64
(lp65
I5
asVdepth
p66
I2
sVtitles
p67
(lp68
(dp69
Vlang
p70
Ven
p71
sVtext
p72
VT. Arakhin
p73
sa(dp74
Vlang
p75
Ven
p76
sVtext
p77
VT. Arachin
p78
sa(dp79
Vlang
p80
Ven
p81
sVtext
p82
VTos. Arakhin
p83
sa(dp84
Vlang
p85
Ven
p86
sVtext
p87
VTosefta Arachin
p88
sa(dp89
Vlang
p90
Ven
p91
sVtext
p92
VTos. Arachin
p93
sa(dp94
Vlang
p95
Vhe
p96
sVtext
p97
V\u05ea\u05d5\u05e1\u05e4\u05ea\u05d0 \u05e2\u05e8\u05db\u05d9\u05df
p98
sVprimary
p99
I01
sa(dp100
Vlang
p101
Ven
p102
sVtext
p103
VTosefta Arakhin
p104
sVprimary
p105
I01
sasVkey
p106
g14
sVsectionNames
p107
(lp108
VChapter
p109
aVTosefta
p110
assbsS'_primary_title'
p111
(dp112
sS'title_group'
p113
g3
(csefaria.model.schema
TitleGroup
p114
g5
NtRp115
(dp116
g111
(dp117
S'en'
p118
g104
ssS'titles'
p119
g68
sbsS'_addressTypes'
p120
(lp121
g3
(csefaria.model.schema
AddressInteger
p122
g5
NtRp123
(dp124
S'length'
p125
I5
sg49
I0
sbag3
(g122
g5
NtRp126
(dp127
g125
Nsg49
I1
sbasS'sharedTitle'
p128
Nsg64
g65
sg66
I2
sS'_full_title'
p129
(dp130
g118
g104
ssS'key'
p131
g14
sS'checkFirst'
p132
NsS'_regexes'
p133
(dp134
sS'_leaf_nodes'
p135
(lp136
sg107
g108
sS'children'
p137
(lp138
sbsS'_range_index'
p139
NsS'_context'
p140
(dp141
sS'_padded'
p142
Nsg25
g27
sS'sections'
p143
(lp144
I1
aI1
asS'_first_spanned_ref'
p145
NsS'tref'
p146
VTosefta Arakhin 1:1
p147
sS'_spanned_refs'
p148
(lp149
sS'book'
p150
g104
sS'_range_depth'
p151
NsS'toSections'
p152
(lp153
I1
aI1
asS'_url'
p154
NsS'_normal'
p155
g147
sS'_ranged_refs'
p156
(lp157
sS'type'
p158
g60
sS'_prev'
p159
NsS'_he_normal'
p160
NsS'_next'
p161
Nsbag3
(g4
g5
NtRp162
(dp163
g8
g10
sg139
Nsg140
(dp164
sg142
Nsg25
g27
sg143
(lp165
I1
aI2
asg145
Nsg146
VTosefta Arakhin 1:2
p166
sg148
(lp167
sg150
g104
sg151
Nsg152
(lp168
I1
aI2
asg154
Nsg155
g166
sg156
(lp169
sg158
g60
sg159
Nsg160
Nsg161
Nsbag3
(g4
g5
NtRp170
(dp171
g8
g10
sg139
Nsg140
(dp172
sg142
Nsg25
g27
sg143
(lp173
I1
aI3
asg145
Nsg146
VTosefta Arakhin 1:3
p174
sg148
(lp175
sg150
g104
sg151
Nsg152
(lp176
I1
aI3
asg154
Nsg155
g174
sg156
(lp177
sg158
g60
sg159
Nsg160
Nsg161
Nsbag3
(g4
g5
NtRp178
(dp179
g8
g10
sg139
Nsg140
(dp180
sg142
Nsg25
g27
sg143
(lp181
I1
aI4
asg145
Nsg146
VTosefta Arakhin 1:4
p182
sg148
(lp183
sg150
g104
sg151
Nsg152
(lp184
I1
aI4
asg154
Nsg155
g182
sg156
(lp185
sg158
g60
sg159
Nsg160
Nsg161
Nsbag3
(g4
g5
NtRp186
(dp187
g8
g10
sg139
Nsg140
(dp188
sg142
Nsg25
g27
sg143
(lp189
I1
aI5
asg145
Nsg146
VTosefta Arakhin 1:5
p190
sg148
(lp191
sg150
g104
sg151
Nsg152
(lp192
I1
aI5
asg154
Nsg155
g190
sg156
(lp193
sg158
g60
sg159
Nsg160
Nsg161
Nsbag3
(g4
g5
NtRp194
(dp195
g8
g10
sg139
Nsg140
(dp196
sg142
Nsg25
g27
sg143
(lp197
I1
aI6
asg145
Nsg146
VTosefta Arakhin 1:6
p198
sg148
(lp199
sg150
g104
sg151
Nsg152
(lp200
I1
aI6
asg154
Nsg155
g198
sg156
(lp201
sg158
g60
sg159
Nsg160
Nsg161
Nsbag3
(g4
g5
NtRp202
(dp203
g8
g10
sg139
Nsg140
(dp204
sg142
Nsg25
g27
sg143
(lp205
I2
aI1
asg145
Nsg146
VTosefta Arakhin 2:1
p206
sg148
(lp207
sg150
g104
sg151
Nsg152
(lp208
I2
aI1
asg154
Nsg155
g206
sg156
(lp209
sg158
g60
sg159
Nsg160
Nsg161
Nsbag3
(g4
g5
NtRp210
(dp211
g8
g10
sg139
Nsg140
(dp212
sg142
Nsg25
g27
sg143
(lp213
I2
aI2
asg145
Nsg146
VTosefta Arakhin 2:2
p214
sg148
(lp215
sg150
g104
sg151
Nsg152
(lp216
I2
aI2
asg154
Nsg155
g214
sg156
(lp217
sg158
g60
sg159
Nsg160
Nsg161
Nsbag3
(g4
g5
NtRp218
(dp219
g8
g10
sg139
Nsg140
(dp220
sg142
Nsg25
g27
sg143
(lp221
I2
aI3
asg145
Nsg146
VTosefta Arakhin 2:3
p222
sg148
(lp223
sg150
g104
sg151
Nsg152
(lp224
I2
aI3
asg154
Nsg155
g222
sg156
(lp225
sg158
g60
sg159
Nsg160
Nsg161
Nsbag3
(g4
g5
NtRp226
(dp227
g8
g10
sg139
Nsg140
(dp228
sg142
Nsg25
g27
sg143
(lp229
I2
aI4
asg145
Nsg146
VTosefta Arakhin 2:4
p230
sg148
(lp231
sg150
g104
sg151
Nsg152
(lp232
I2
aI4
asg154
Nsg155
g230
sg156
(lp233
sg158
g60
sg159
Nsg160
Nsg161
Nsbag3
(g4
g5
NtRp234
(dp235
g8
g10
sg139
Nsg140
(dp236
sg142
Nsg25
g27
sg143
(lp237
I2
aI5
asg145
Nsg146
VTosefta Arakhin 2:5
p238
sg148
(lp239
sg150
g104
sg151
Nsg152
(lp240
I2
aI5
asg154
Nsg155
g238
sg156
(lp241
sg158
g60
sg159
Nsg160
Nsg161
Nsbag3
(g4
g5
NtRp242
(dp243
g8
g10
sg139
Nsg140
(dp244
sg142
Nsg25
g27
sg143
(lp245
I2
aI6
asg145
Nsg146
VTosefta Arakhin 2:6
p246
sg148
(lp247
sg150
g104
sg151
Nsg152
(lp248
I2
aI6
asg154
Nsg155
g246
sg156
(lp249
sg158
g60
sg159
Nsg160
Nsg161
Nsbag3
(g4
g5
NtRp250
(dp251
g8
g10
sg139
Nsg140
(dp252
sg142
Nsg25
g27
sg143
(lp253
I2
aI7
asg145
Nsg146
VTosefta Arakhin 2:7
p254
sg148
(lp255
sg150
g104
sg151
Nsg152
(lp256
I2
aI7
asg154
Nsg155
g254
sg156
(lp257
sg158
g60
sg159
Nsg160
Nsg161
Nsbag3
(g4
g5
NtRp258
(dp259
g8
g10
sg139
Nsg140
(dp260
sg142
Nsg25
g27
sg143
(lp261
I3
aI1
asg145
Nsg146
VTosefta Arakhin 3:1
p262
sg148
(lp263
sg150
g104
sg151
Nsg152
(lp264
I3
aI1
asg154
Nsg155
g262
sg156
(lp265
sg158
g60
sg159
Nsg160
Nsg161
Nsbag3
(g4
g5
NtRp266
(dp267
g8
g10
sg139
Nsg140
(dp268
sg142
Nsg25
g27
sg143
(lp269
I3
aI2
asg145
Nsg146
VTosefta Arakhin 3:2
p270
sg148
(lp271
sg150
g104
sg151
Nsg152
(lp272
I3
aI2
asg154
Nsg155
g270
sg156
(lp273
sg158
g60
sg159
Nsg160
Nsg161
Nsbag3
(g4
g5
NtRp274
(dp275
g8
g10
sg139
Nsg140
(dp276
sg142
Nsg25
g27
sg143
(lp277
I3
aI3
asg145
Nsg146
VTosefta Arakhin 3:3
p278
sg148
(lp279
sg150
g104
sg151
Nsg152
(lp280
I3
aI3
asg154
Nsg155
g278
sg156
(lp281
sg158
g60
sg159
Nsg160
Nsg161
Nsbag3
(g4
g5
NtRp282
(dp283
g8
g10
sg139
Nsg140
(dp284
sg142
Nsg25
g27
sg143
(lp285
I3
aI4
asg145
Nsg146
VTosefta Arakhin 3:4
p286
sg148
(lp287
sg150
g104
sg151
Nsg152
(lp288
I3
aI4
asg154
Nsg155
g286
sg156
(lp289
sg158
g60
sg159
Nsg160
Nsg161
Nsbag3
(g4
g5
NtRp290
(dp291
g8
g10
sg139
Nsg140
(dp292
sg142
Nsg25
g27
sg143
(lp293
I3
aI5
asg145
Nsg146
VTosefta Arakhin 3:5
p294
sg148
(lp295
sg150
g104
sg151
Nsg152
(lp296
I3
aI5
asg154
Nsg155
g294
sg156
(lp297
sg158
g60
sg159
Nsg160
Nsg161
Nsbag3
(g4
g5
NtRp298
(dp299
g8
g10
sg139
Nsg140
(dp300
sg142
Nsg25
g27
sg143
(lp301
I3
aI6
asg145
Nsg146
VTosefta Arakhin 3:6
p302
sg148
(lp303
sg150
g104
sg151
Nsg152
(lp304
I3
aI6
asg154
Nsg155
g302
sg156
(lp305
sg158
g60
sg159
Nsg160
Nsg161
Nsbag3
(g4
g5
NtRp306
(dp307
g8
g10
sg139
Nsg140
(dp308
sg142
Nsg25
g27
sg143
(lp309
I3
aI7
asg145
Nsg146
VTosefta Arakhin 3:7
p310
sg148
(lp311
sg150
g104
sg151
Nsg152
(lp312
I3
aI7
asg154
Nsg155
g310
sg156
(lp313
sg158
g60
sg159
Nsg160
Nsg161
Nsbag3
(g4
g5
NtRp314
(dp315
g8
g10
sg139
Nsg140
(dp316
sg142
Nsg25
g27
sg143
(lp317
I3
aI8
asg145
Nsg146
VTosefta Arakhin 3:8
p318
sg148
(lp319
sg150
g104
sg151
Nsg152
(lp320
I3
aI8
asg154
Nsg155
g318
sg156
(lp321
sg158
g60
sg159
Nsg160
Nsg161
Nsbag3
(g4
g5
NtRp322
(dp323
g8
g10
sg139
Nsg140
(dp324
sg142
Nsg25
g27
sg143
(lp325
I3
aI9
asg145
Nsg146
VTosefta Arakhin 3:9
p326
sg148
(lp327
sg150
g104
sg151
Nsg152
(lp328
I3
aI9
asg154
Nsg155
g326
sg156
(lp329
sg158
g60
sg159
Nsg160
Nsg161
Nsbag3
(g4
g5
NtRp330
(dp331
g8
g10
sg139
Nsg140
(dp332
sg142
Nsg25
g27
sg143
(lp333
I4
aI1
asg145
Nsg146
VTosefta Arakhin 4:1
p334
sg148
(lp335
sg150
g104
sg151
Nsg152
(lp336
I4
aI1
asg154
Nsg155
g334
sg156
(lp337
sg158
g60
sg159
Nsg160
Nsg161
Nsbag3
(g4
g5
NtRp338
(dp339
g8
g10
sg139
Nsg140
(dp340
sg142
Nsg25
g27
sg143
(lp341
I4
aI2
asg145
Nsg146
VTosefta Arakhin 4:2
p342
sg148
(lp343
sg150
g104
sg151
Nsg152
(lp344
I4
aI2
asg154
Nsg155
g342
sg156
(lp345
sg158
g60
sg159
Nsg160
Nsg161
Nsbag3
(g4
g5
NtRp346
(dp347
g8
g10
sg139
Nsg140
(dp348
sg142
Nsg25
g27
sg143
(lp349
I4
aI3
asg145
Nsg146
VTosefta Arakhin 4:3
p350
sg148
(lp351
sg150
g104
sg151
Nsg152
(lp352
I4
aI3
asg154
Nsg155
g350
sg156
(lp353
sg158
g60
sg159
Nsg160
Nsg161
Nsbag3
(g4
g5
NtRp354
(dp355
g8
g10
sg139
Nsg140
(dp356
sg142
Nsg25
g27
sg143
(lp357
I4
aI4
asg145
Nsg146
VTosefta Arakhin 4:4
p358
sg148
(lp359
sg150
g104
sg151
Nsg152
(lp360
I4
aI4
asg154
Nsg155
g358
sg156
(lp361
sg158
g60
sg159
Nsg160
Nsg161
Nsbag3
(g4
g5
NtRp362
(dp363
g8
g10
sg139
Nsg140
(dp364
sg142
Nsg25
g27
sg143
(lp365
I4
aI5
asg145
Nsg146
VTosefta Arakhin 4:5
p366
sg148
(lp367
sg150
g104
sg151
Nsg152
(lp368
I4
aI5
asg154
Nsg155
g366
sg156
(lp369
sg158
g60
sg159
Nsg160
Nsg161
Nsbag3
(g4
g5
NtRp370
(dp371
g8
g10
sg139
Nsg140
(dp372
sg142
Nsg25
g27
sg143
(lp373
I4
aI6
asg145
Nsg146
VTosefta Arakhin 4:6
p374
sg148
(lp375
sg150
g104
sg151
Nsg152
(lp376
I4
aI6
asg154
Nsg155
g374
sg156
(lp377
sg158
g60
sg159
Nsg160
Nsg161
Nsbag3
(g4
g5
NtRp378
(dp379
g8
g10
sg139
Nsg140
(dp380
sg142
Nsg25
g27
sg143
(lp381
I4
aI7
asg145
Nsg146
VTosefta Arakhin 4:7
p382
sg148
(lp383
sg150
g104
sg151
Nsg152
(lp384
I4
aI7
asg154
Nsg155
g382
sg156
(lp385
sg158
g60
sg159
Nsg160
Nsg161
Nsbag3
(g4
g5
NtRp386
(dp387
g8
g10
sg139
Nsg140
(dp388
sg142
Nsg25
g27
sg143
(lp389
I4
aI8
asg145
Nsg146
VTosefta Arakhin 4:8
p390
sg148
(lp391
sg150
g104
sg151
Nsg152
(lp392
I4
aI8
asg154
Nsg155
g390
sg156
(lp393
sg158
g60
sg159
Nsg160
Nsg161
Nsbag3
(g4
g5
NtRp394
(dp395
g8
g10
sg139
Nsg140
(dp396
sg142
Nsg25
g27
sg143
(lp397
I4
aI9
asg145
Nsg146
VTosefta Arakhin 4:9
p398
sg148
(lp399
sg150
g104
sg151
Nsg152
(lp400
I4
aI9
asg154
Nsg155
g398
sg156
(lp401
sg158
g60
sg159
Nsg160
Nsg161
Nsbag3
(g4
g5
NtRp402
(dp403
g8
g10
sg139
Nsg140
(dp404
sg142
Nsg25
g27
sg143
(lp405
I4
aI10
asg145
Nsg146
VTosefta Arakhin 4:10
p406
sg148
(lp407
sg150
g104
sg151
Nsg152
(lp408
I4
aI10
asg154
Nsg155
g406
sg156
(lp409
sg158
g60
sg159
Nsg160
Nsg161
Nsbag3
(g4
g5
NtRp410
(dp411
g8
g10
sg139
Nsg140
(dp412
sg142
Nsg25
g27
sg143
(lp413
I4
aI11
asg145
Nsg146
VTosefta Arakhin 4:11
p414
sg148
(lp415
sg150
g104
sg151
Nsg152
(lp416
I4
aI11
asg154
Nsg155
g414
sg156
(lp417
sg158
g60
sg159
Nsg160
Nsg161
Nsbag3
(g4
g5
NtRp418
(dp419
g8
g10
sg139
Nsg140
(dp420
sg142
Nsg25
g27
sg143
(lp421
I4
aI12
asg145
Nsg146
VTosefta Arakhin 4:12
p422
sg148
(lp423
sg150
g104
sg151
Nsg152
(lp424
I4
aI12
asg154
Nsg155
g422
sg156
(lp425
sg158
g60
sg159
Nsg160
Nsg161
Nsbag3
(g4
g5
NtRp426
(dp427
g8
g10
sg139
Nsg140
(dp428
sg142
Nsg25
g27
sg143
(lp429
I4
aI13
asg145
Nsg146
VTosefta Arakhin 4:13
p430
sg148
(lp431
sg150
g104
sg151
Nsg152
(lp432
I4
aI13
asg154
Nsg155
g430
sg156
(lp433
sg158
g60
sg159
Nsg160
Nsg161
Nsbag3
(g4
g5
NtRp434
(dp435
g8
g10
sg139
Nsg140
(dp436
sg142
Nsg25
g27
sg143
(lp437
I5
aI1
asg145
Nsg146
VTosefta Arakhin 5:1
p438
sg148
(lp439
sg150
g104
sg151
Nsg152
(lp440
I5
aI1
asg154
Nsg155
g438
sg156
(lp441
sg158
g60
sg159
Nsg160
Nsg161
Nsbag3
(g4
g5
NtRp442
(dp443
g8
g10
sg139
Nsg140
(dp444
sg142
Nsg25
g27
sg143
(lp445
I5
aI2
asg145
Nsg146
VTosefta Arakhin 5:2
p446
sg148
(lp447
sg150
g104
sg151
Nsg152
(lp448
I5
aI2
asg154
Nsg155
g446
sg156
(lp449
sg158
g60
sg159
Nsg160
Nsg161
Nsbag3
(g4
g5
NtRp450
(dp451
g8
g10
sg139
Nsg140
(dp452
sg142
Nsg25
g27
sg143
(lp453
I5
aI3
asg145
Nsg146
VTosefta Arakhin 5:3
p454
sg148
(lp455
sg150
g104
sg151
Nsg152
(lp456
I5
aI3
asg154
Nsg155
g454
sg156
(lp457
sg158
g60
sg159
Nsg160
Nsg161
Nsbag3
(g4
g5
NtRp458
(dp459
g8
g10
sg139
Nsg140
(dp460
sg142
Nsg25
g27
sg143
(lp461
I5
aI4
asg145
Nsg146
VTosefta Arakhin 5:4
p462
sg148
(lp463
sg150
g104
sg151
Nsg152
(lp464
I5
aI4
asg154
Nsg155
g462
sg156
(lp465
sg158
g60
sg159
Nsg160
Nsg161
Nsbag3
(g4
g5
NtRp466
(dp467
g8
g10
sg139
Nsg140
(dp468
sg142
Nsg25
g27
sg143
(lp469
I5
aI5
asg145
Nsg146
VTosefta Arakhin 5:5
p470
sg148
(lp471
sg150
g104
sg151
Nsg152
(lp472
I5
aI5
asg154
Nsg155
g470
sg156
(lp473
sg158
g60
sg159
Nsg160
Nsg161
Nsbag3
(g4
g5
NtRp474
(dp475
g8
g10
sg139
Nsg140
(dp476
sg142
Nsg25
g27
sg143
(lp477
I5
aI6
asg145
Nsg146
VTosefta Arakhin 5:6
p478
sg148
(lp479
sg150
g104
sg151
Nsg152
(lp480
I5
aI6
asg154
Nsg155
g478
sg156
(lp481
sg158
g60
sg159
Nsg160
Nsg161
Nsbag3
(g4
g5
NtRp482
(dp483
g8
g10
sg139
Nsg140
(dp484
sg142
Nsg25
g27
sg143
(lp485
I5
aI7
asg145
Nsg146
VTosefta Arakhin 5:7
p486
sg148
(lp487
sg150
g104
sg151
Nsg152
(lp488
I5
aI7
asg154
Nsg155
g486
sg156
(lp489
sg158
g60
sg159
Nsg160
Nsg161
Nsbag3
(g4
g5
NtRp490
(dp491
g8
g10
sg139
Nsg140
(dp492
sg142
Nsg25
g27
sg143
(lp493
I5
aI8
asg145
Nsg146
VTosefta Arakhin 5:8
p494
sg148
(lp495
sg150
g104
sg151
Nsg152
(lp496
I5
aI8
asg154
Nsg155
g494
sg156
(lp497
sg158
g60
sg159
Nsg160
Nsg161
Nsbag3
(g4
g5
NtRp498
(dp499
g8
g10
sg139
Nsg140
(dp500
sg142
Nsg25
g27
sg143
(lp501
I5
aI9
asg145
Nsg146
VTosefta Arakhin 5:9
p502
sg148
(lp503
sg150
g104
sg151
Nsg152
(lp504
I5
aI9
asg154
Nsg155
g502
sg156
(lp505
sg158
g60
sg159
Nsg160
Nsg161
NsbaI3897
t.