((lp1
I0
aI196
aI384
aI495
aI624
aI679
aI890
aI1006
aI1052
aI1226
aI1348
aI1543
aI1568
aI1609
aI1670
aI1738
aI1805
aI1862
aI1995
aI2026
aI2346
aI2399
aI2445
aI2476
aI2561
aI2671
aI2717
aI2767
aI2821
aI2873
aI2913
aI3036
aI3074
aI3221
aI3310
aI3575
aI3711
aI3760
aI3819
aI3863
aI4026
aI4106
aI4188
aI4222
aI4250
aI4293
aI4353
aI4402
aI4436
aI4489
aI4652
aI4712
aI4784
aI4843
aI4921
aI4972
aI5013
aI5071
aI5136
aI5146
aI5209
aI5280
aI5439
aI5612
aI5640
aI5680
aI5807
aI5862
aI5885
aI5964
aI6020
aI6131
aI6220
aI6336
aI6356
aI6375
aI6515
aI6578
aI6619
aI6641
aI6689
aI6721
aI6836
aI6926
aI7010
aI7075
aI7126
aI7172
aI7230
aI7291
aI7355
aI7436
aI7460
aI7561
aI7667
aI7695
aI7717
aI7745
aI7801
aI7894
aI7946
aI8090
aI8162
a(lp2
ccopy_reg
_reconstructor
p3
(csefaria.model.text
Ref
p4
c__builtin__
object
p5
NtRp6
(dp7
S'index_node'
p8
g3
(csefaria.model.schema
JaggedArrayNode
p9
g5
NtRp10
(dp11
S'_address'
p12
(lp13
VTosefta Yevamot
p14
asS'_full_titles'
p15
(dp16
sVnodeType
p17
VJaggedArrayNode
p18
sS'parent'
p19
NsVaddressTypes
p20
(lp21
VInteger
p22
aVInteger
p23
asS'default'
p24
I00
sS'index'
p25
g3
(csefaria.model.text
Index
p26
g5
NtRp27
(dp28
S'struct_objs'
p29
(dp30
sS'_id'
p31
g3
(cbson.objectid
ObjectId
p32
g5
NtRp33
S"S+'\x85\xfb\xfb\xa2M\x19\x8eS|"
p34
bsS'pkeys_orig_values'
p35
(dp36
S'title'
p37
VTosefta Yevamot
p38
ssS'pubDate'
p39
V1521
p40
sS'transliteratedTitle'
p41
VTosefta Yevamot
p42
sS'pubPlace'
p43
VVenice
p44
sS'compPlace'
p45
VTalmudic Israel
p46
sS'enDesc'
p47
VThe Tosefta (Supplement, addition") is a compilation of the Jewish oral law. Opinions differ widely as to when the Tosefta was redacted and how it relates to the Mishnah. However it closely corresponds to the Mishnah in structure and style, with the same divisions for sedarim ("orders") and masekhot ("tractates"). In many ways, the Tosefta acts as a supplement to the Mishnah. It is mainly written in Mishnaic Hebrew, with some Aramaic. Yevamot (Levirate marriage) belongs to the third order, Nashim (Women) and discusses the mandated marriage of a widow to her brother-in-law, deals with the Jewish law of levirate marriage (Deut. 25:5\u201310) and other topics, such as the status of minors. It has fourteen chapters.
p48
sS'order'
p49
(lp50
I1
asS'era'
p51
VT
sS'compDate'
p52
V210
p53
sS'nodes'
p54
g10
sS'errorMargin'
p55
V20
p56
sS'_title'
p57
g38
sS'categories'
p58
(lp59
VTosefta
p60
aVSeder Nashim
p61
asS'schema'
p62
(dp63
g17
g18
sg20
g21
sVlengths
p64
(lp65
I14
asVdepth
p66
I2
sVtitles
p67
(lp68
(dp69
Vlang
p70
Ven
p71
sVtext
p72
VTosefta Yevamos
p73
sa(dp74
Vlang
p75
Ven
p76
sVtext
p77
VT. Yevamot
p78
sa(dp79
Vlang
p80
Ven
p81
sVtext
p82
VTos. Yevamos
p83
sa(dp84
Vlang
p85
Ven
p86
sVtext
p87
VTos. Yevamot
p88
sa(dp89
Vlang
p90
Vhe
p91
sVtext
p92
V\u05ea\u05d5\u05e1\u05e4\u05ea\u05d0 \u05d9\u05d1\u05de\u05d5\u05ea
p93
sVprimary
p94
I01
sa(dp95
Vlang
p96
Ven
p97
sVtext
p98
VTosefta Yevamot
p99
sVprimary
p100
I01
sasVkey
p101
g14
sVsectionNames
p102
(lp103
VChapter
p104
aVTosefta
p105
assbsS'_primary_title'
p106
(dp107
sS'title_group'
p108
g3
(csefaria.model.schema
TitleGroup
p109
g5
NtRp110
(dp111
g106
(dp112
S'en'
p113
g99
ssS'titles'
p114
g68
sbsS'_addressTypes'
p115
(lp116
g3
(csefaria.model.schema
AddressInteger
p117
g5
NtRp118
(dp119
S'length'
p120
I14
sg49
I0
sbag3
(g117
g5
NtRp121
(dp122
g120
Nsg49
I1
sbasS'sharedTitle'
p123
Nsg64
g65
sg66
I2
sS'_full_title'
p124
(dp125
g113
g99
ssS'key'
p126
g14
sS'checkFirst'
p127
NsS'_regexes'
p128
(dp129
sS'_leaf_nodes'
p130
(lp131
sg102
g103
sS'children'
p132
(lp133
sbsS'_range_index'
p134
NsS'_context'
p135
(dp136
sS'_padded'
p137
Nsg25
g27
sS'sections'
p138
(lp139
I1
aI1
asS'_first_spanned_ref'
p140
NsS'tref'
p141
VTosefta Yevamot 1:1
p142
sS'_spanned_refs'
p143
(lp144
sS'book'
p145
g99
sS'_range_depth'
p146
NsS'toSections'
p147
(lp148
I1
aI1
asS'_url'
p149
NsS'_normal'
p150
g142
sS'_ranged_refs'
p151
(lp152
sS'type'
p153
g60
sS'_prev'
p154
NsS'_he_normal'
p155
NsS'_next'
p156
Nsbag3
(g4
g5
NtRp157
(dp158
g8
g10
sg134
Nsg135
(dp159
sg137
Nsg25
g27
sg138
(lp160
I1
aI2
asg140
Nsg141
VTosefta Yevamot 1:2
p161
sg143
(lp162
sg145
g99
sg146
Nsg147
(lp163
I1
aI2
asg149
Nsg150
g161
sg151
(lp164
sg153
g60
sg154
Nsg155
Nsg156
Nsbag3
(g4
g5
NtRp165
(dp166
g8
g10
sg134
Nsg135
(dp167
sg137
Nsg25
g27
sg138
(lp168
I1
aI3
asg140
Nsg141
VTosefta Yevamot 1:3
p169
sg143
(lp170
sg145
g99
sg146
Nsg147
(lp171
I1
aI3
asg149
Nsg150
g169
sg151
(lp172
sg153
g60
sg154
Nsg155
Nsg156
Nsbag3
(g4
g5
NtRp173
(dp174
g8
g10
sg134
Nsg135
(dp175
sg137
Nsg25
g27
sg138
(lp176
I2
aI1
asg140
Nsg141
VTosefta Yevamot 2:1
p177
sg143
(lp178
sg145
g99
sg146
Nsg147
(lp179
I2
aI1
asg149
Nsg150
g177
sg151
(lp180
sg153
g60
sg154
Nsg155
Nsg156
Nsbag3
(g4
g5
NtRp181
(dp182
g8
g10
sg134
Nsg135
(dp183
sg137
Nsg25
g27
sg138
(lp184
I2
aI2
asg140
Nsg141
VTosefta Yevamot 2:2
p185
sg143
(lp186
sg145
g99
sg146
Nsg147
(lp187
I2
aI2
asg149
Nsg150
g185
sg151
(lp188
sg153
g60
sg154
Nsg155
Nsg156
Nsbag3
(g4
g5
NtRp189
(dp190
g8
g10
sg134
Nsg135
(dp191
sg137
Nsg25
g27
sg138
(lp192
I2
aI3
asg140
Nsg141
VTosefta Yevamot 2:3
p193
sg143
(lp194
sg145
g99
sg146
Nsg147
(lp195
I2
aI3
asg149
Nsg150
g193
sg151
(lp196
sg153
g60
sg154
Nsg155
Nsg156
Nsbag3
(g4
g5
NtRp197
(dp198
g8
g10
sg134
Nsg135
(dp199
sg137
Nsg25
g27
sg138
(lp200
I2
aI4
asg140
Nsg141
VTosefta Yevamot 2:4
p201
sg143
(lp202
sg145
g99
sg146
Nsg147
(lp203
I2
aI4
asg149
Nsg150
g201
sg151
(lp204
sg153
g60
sg154
Nsg155
Nsg156
Nsbag3
(g4
g5
NtRp205
(dp206
g8
g10
sg134
Nsg135
(dp207
sg137
Nsg25
g27
sg138
(lp208
I3
aI1
asg140
Nsg141
VTosefta Yevamot 3:1
p209
sg143
(lp210
sg145
g99
sg146
Nsg147
(lp211
I3
aI1
asg149
Nsg150
g209
sg151
(lp212
sg153
g60
sg154
Nsg155
Nsg156
Nsbag3
(g4
g5
NtRp213
(dp214
g8
g10
sg134
Nsg135
(dp215
sg137
Nsg25
g27
sg138
(lp216
I3
aI2
asg140
Nsg141
VTosefta Yevamot 3:2
p217
sg143
(lp218
sg145
g99
sg146
Nsg147
(lp219
I3
aI2
asg149
Nsg150
g217
sg151
(lp220
sg153
g60
sg154
Nsg155
Nsg156
Nsbag3
(g4
g5
NtRp221
(dp222
g8
g10
sg134
Nsg135
(dp223
sg137
Nsg25
g27
sg138
(lp224
I3
aI3
asg140
Nsg141
VTosefta Yevamot 3:3
p225
sg143
(lp226
sg145
g99
sg146
Nsg147
(lp227
I3
aI3
asg149
Nsg150
g225
sg151
(lp228
sg153
g60
sg154
Nsg155
Nsg156
Nsbag3
(g4
g5
NtRp229
(dp230
g8
g10
sg134
Nsg135
(dp231
sg137
Nsg25
g27
sg138
(lp232
I4
aI1
asg140
Nsg141
VTosefta Yevamot 4:1
p233
sg143
(lp234
sg145
g99
sg146
Nsg147
(lp235
I4
aI1
asg149
Nsg150
g233
sg151
(lp236
sg153
g60
sg154
Nsg155
Nsg156
Nsbag3
(g4
g5
NtRp237
(dp238
g8
g10
sg134
Nsg135
(dp239
sg137
Nsg25
g27
sg138
(lp240
I4
aI2
asg140
Nsg141
VTosefta Yevamot 4:2
p241
sg143
(lp242
sg145
g99
sg146
Nsg147
(lp243
I4
aI2
asg149
Nsg150
g241
sg151
(lp244
sg153
g60
sg154
Nsg155
Nsg156
Nsbag3
(g4
g5
NtRp245
(dp246
g8
g10
sg134
Nsg135
(dp247
sg137
Nsg25
g27
sg138
(lp248
I4
aI3
asg140
Nsg141
VTosefta Yevamot 4:3
p249
sg143
(lp250
sg145
g99
sg146
Nsg147
(lp251
I4
aI3
asg149
Nsg150
g249
sg151
(lp252
sg153
g60
sg154
Nsg155
Nsg156
Nsbag3
(g4
g5
NtRp253
(dp254
g8
g10
sg134
Nsg135
(dp255
sg137
Nsg25
g27
sg138
(lp256
I4
aI4
asg140
Nsg141
VTosefta Yevamot 4:4
p257
sg143
(lp258
sg145
g99
sg146
Nsg147
(lp259
I4
aI4
asg149
Nsg150
g257
sg151
(lp260
sg153
g60
sg154
Nsg155
Nsg156
Nsbag3
(g4
g5
NtRp261
(dp262
g8
g10
sg134
Nsg135
(dp263
sg137
Nsg25
g27
sg138
(lp264
I4
aI5
asg140
Nsg141
VTosefta Yevamot 4:5
p265
sg143
(lp266
sg145
g99
sg146
Nsg147
(lp267
I4
aI5
asg149
Nsg150
g265
sg151
(lp268
sg153
g60
sg154
Nsg155
Nsg156
Nsbag3
(g4
g5
NtRp269
(dp270
g8
g10
sg134
Nsg135
(dp271
sg137
Nsg25
g27
sg138
(lp272
I4
aI6
asg140
Nsg141
VTosefta Yevamot 4:6
p273
sg143
(lp274
sg145
g99
sg146
Nsg147
(lp275
I4
aI6
asg149
Nsg150
g273
sg151
(lp276
sg153
g60
sg154
Nsg155
Nsg156
Nsbag3
(g4
g5
NtRp277
(dp278
g8
g10
sg134
Nsg135
(dp279
sg137
Nsg25
g27
sg138
(lp280
I4
aI7
asg140
Nsg141
VTosefta Yevamot 4:7
p281
sg143
(lp282
sg145
g99
sg146
Nsg147
(lp283
I4
aI7
asg149
Nsg150
g281
sg151
(lp284
sg153
g60
sg154
Nsg155
Nsg156
Nsbag3
(g4
g5
NtRp285
(dp286
g8
g10
sg134
Nsg135
(dp287
sg137
Nsg25
g27
sg138
(lp288
I5
aI1
asg140
Nsg141
VTosefta Yevamot 5:1
p289
sg143
(lp290
sg145
g99
sg146
Nsg147
(lp291
I5
aI1
asg149
Nsg150
g289
sg151
(lp292
sg153
g60
sg154
Nsg155
Nsg156
Nsbag3
(g4
g5
NtRp293
(dp294
g8
g10
sg134
Nsg135
(dp295
sg137
Nsg25
g27
sg138
(lp296
I5
aI2
asg140
Nsg141
VTosefta Yevamot 5:2
p297
sg143
(lp298
sg145
g99
sg146
Nsg147
(lp299
I5
aI2
asg149
Nsg150
g297
sg151
(lp300
sg153
g60
sg154
Nsg155
Nsg156
Nsbag3
(g4
g5
NtRp301
(dp302
g8
g10
sg134
Nsg135
(dp303
sg137
Nsg25
g27
sg138
(lp304
I5
aI3
asg140
Nsg141
VTosefta Yevamot 5:3
p305
sg143
(lp306
sg145
g99
sg146
Nsg147
(lp307
I5
aI3
asg149
Nsg150
g305
sg151
(lp308
sg153
g60
sg154
Nsg155
Nsg156
Nsbag3
(g4
g5
NtRp309
(dp310
g8
g10
sg134
Nsg135
(dp311
sg137
Nsg25
g27
sg138
(lp312
I5
aI4
asg140
Nsg141
VTosefta Yevamot 5:4
p313
sg143
(lp314
sg145
g99
sg146
Nsg147
(lp315
I5
aI4
asg149
Nsg150
g313
sg151
(lp316
sg153
g60
sg154
Nsg155
Nsg156
Nsbag3
(g4
g5
NtRp317
(dp318
g8
g10
sg134
Nsg135
(dp319
sg137
Nsg25
g27
sg138
(lp320
I5
aI5
asg140
Nsg141
VTosefta Yevamot 5:5
p321
sg143
(lp322
sg145
g99
sg146
Nsg147
(lp323
I5
aI5
asg149
Nsg150
g321
sg151
(lp324
sg153
g60
sg154
Nsg155
Nsg156
Nsbag3
(g4
g5
NtRp325
(dp326
g8
g10
sg134
Nsg135
(dp327
sg137
Nsg25
g27
sg138
(lp328
I5
aI6
asg140
Nsg141
VTosefta Yevamot 5:6
p329
sg143
(lp330
sg145
g99
sg146
Nsg147
(lp331
I5
aI6
asg149
Nsg150
g329
sg151
(lp332
sg153
g60
sg154
Nsg155
Nsg156
Nsbag3
(g4
g5
NtRp333
(dp334
g8
g10
sg134
Nsg135
(dp335
sg137
Nsg25
g27
sg138
(lp336
I5
aI7
asg140
Nsg141
VTosefta Yevamot 5:7
p337
sg143
(lp338
sg145
g99
sg146
Nsg147
(lp339
I5
aI7
asg149
Nsg150
g337
sg151
(lp340
sg153
g60
sg154
Nsg155
Nsg156
Nsbag3
(g4
g5
NtRp341
(dp342
g8
g10
sg134
Nsg135
(dp343
sg137
Nsg25
g27
sg138
(lp344
I6
aI1
asg140
Nsg141
VTosefta Yevamot 6:1
p345
sg143
(lp346
sg145
g99
sg146
Nsg147
(lp347
I6
aI1
asg149
Nsg150
g345
sg151
(lp348
sg153
g60
sg154
Nsg155
Nsg156
Nsbag3
(g4
g5
NtRp349
(dp350
g8
g10
sg134
Nsg135
(dp351
sg137
Nsg25
g27
sg138
(lp352
I6
aI2
asg140
Nsg141
VTosefta Yevamot 6:2
p353
sg143
(lp354
sg145
g99
sg146
Nsg147
(lp355
I6
aI2
asg149
Nsg150
g353
sg151
(lp356
sg153
g60
sg154
Nsg155
Nsg156
Nsbag3
(g4
g5
NtRp357
(dp358
g8
g10
sg134
Nsg135
(dp359
sg137
Nsg25
g27
sg138
(lp360
I6
aI3
asg140
Nsg141
VTosefta Yevamot 6:3
p361
sg143
(lp362
sg145
g99
sg146
Nsg147
(lp363
I6
aI3
asg149
Nsg150
g361
sg151
(lp364
sg153
g60
sg154
Nsg155
Nsg156
Nsbag3
(g4
g5
NtRp365
(dp366
g8
g10
sg134
Nsg135
(dp367
sg137
Nsg25
g27
sg138
(lp368
I6
aI4
asg140
Nsg141
VTosefta Yevamot 6:4
p369
sg143
(lp370
sg145
g99
sg146
Nsg147
(lp371
I6
aI4
asg149
Nsg150
g369
sg151
(lp372
sg153
g60
sg154
Nsg155
Nsg156
Nsbag3
(g4
g5
NtRp373
(dp374
g8
g10
sg134
Nsg135
(dp375
sg137
Nsg25
g27
sg138
(lp376
I6
aI5
asg140
Nsg141
VTosefta Yevamot 6:5
p377
sg143
(lp378
sg145
g99
sg146
Nsg147
(lp379
I6
aI5
asg149
Nsg150
g377
sg151
(lp380
sg153
g60
sg154
Nsg155
Nsg156
Nsbag3
(g4
g5
NtRp381
(dp382
g8
g10
sg134
Nsg135
(dp383
sg137
Nsg25
g27
sg138
(lp384
I6
aI6
asg140
Nsg141
VTosefta Yevamot 6:6
p385
sg143
(lp386
sg145
g99
sg146
Nsg147
(lp387
I6
aI6
asg149
Nsg150
g385
sg151
(lp388
sg153
g60
sg154
Nsg155
Nsg156
Nsbag3
(g4
g5
NtRp389
(dp390
g8
g10
sg134
Nsg135
(dp391
sg137
Nsg25
g27
sg138
(lp392
I6
aI7
asg140
Nsg141
VTosefta Yevamot 6:7
p393
sg143
(lp394
sg145
g99
sg146
Nsg147
(lp395
I6
aI7
asg149
Nsg150
g393
sg151
(lp396
sg153
g60
sg154
Nsg155
Nsg156
Nsbag3
(g4
g5
NtRp397
(dp398
g8
g10
sg134
Nsg135
(dp399
sg137
Nsg25
g27
sg138
(lp400
I6
aI8
asg140
Nsg141
VTosefta Yevamot 6:8
p401
sg143
(lp402
sg145
g99
sg146
Nsg147
(lp403
I6
aI8
asg149
Nsg150
g401
sg151
(lp404
sg153
g60
sg154
Nsg155
Nsg156
Nsbag3
(g4
g5
NtRp405
(dp406
g8
g10
sg134
Nsg135
(dp407
sg137
Nsg25
g27
sg138
(lp408
I6
aI9
asg140
Nsg141
VTosefta Yevamot 6:9
p409
sg143
(lp410
sg145
g99
sg146
Nsg147
(lp411
I6
aI9
asg149
Nsg150
g409
sg151
(lp412
sg153
g60
sg154
Nsg155
Nsg156
Nsbag3
(g4
g5
NtRp413
(dp414
g8
g10
sg134
Nsg135
(dp415
sg137
Nsg25
g27
sg138
(lp416
I6
aI10
asg140
Nsg141
VTosefta Yevamot 6:10
p417
sg143
(lp418
sg145
g99
sg146
Nsg147
(lp419
I6
aI10
asg149
Nsg150
g417
sg151
(lp420
sg153
g60
sg154
Nsg155
Nsg156
Nsbag3
(g4
g5
NtRp421
(dp422
g8
g10
sg134
Nsg135
(dp423
sg137
Nsg25
g27
sg138
(lp424
I7
aI1
asg140
Nsg141
VTosefta Yevamot 7:1
p425
sg143
(lp426
sg145
g99
sg146
Nsg147
(lp427
I7
aI1
asg149
Nsg150
g425
sg151
(lp428
sg153
g60
sg154
Nsg155
Nsg156
Nsbag3
(g4
g5
NtRp429
(dp430
g8
g10
sg134
Nsg135
(dp431
sg137
Nsg25
g27
sg138
(lp432
I8
aI1
asg140
Nsg141
VTosefta Yevamot 8:1
p433
sg143
(lp434
sg145
g99
sg146
Nsg147
(lp435
I8
aI1
asg149
Nsg150
g433
sg151
(lp436
sg153
g60
sg154
Nsg155
Nsg156
Nsbag3
(g4
g5
NtRp437
(dp438
g8
g10
sg134
Nsg135
(dp439
sg137
Nsg25
g27
sg138
(lp440
I8
aI2
asg140
Nsg141
VTosefta Yevamot 8:2
p441
sg143
(lp442
sg145
g99
sg146
Nsg147
(lp443
I8
aI2
asg149
Nsg150
g441
sg151
(lp444
sg153
g60
sg154
Nsg155
Nsg156
Nsbag3
(g4
g5
NtRp445
(dp446
g8
g10
sg134
Nsg135
(dp447
sg137
Nsg25
g27
sg138
(lp448
I8
aI3
asg140
Nsg141
VTosefta Yevamot 8:3
p449
sg143
(lp450
sg145
g99
sg146
Nsg147
(lp451
I8
aI3
asg149
Nsg150
g449
sg151
(lp452
sg153
g60
sg154
Nsg155
Nsg156
Nsbag3
(g4
g5
NtRp453
(dp454
g8
g10
sg134
Nsg135
(dp455
sg137
Nsg25
g27
sg138
(lp456
I8
aI4
asg140
Nsg141
VTosefta Yevamot 8:4
p457
sg143
(lp458
sg145
g99
sg146
Nsg147
(lp459
I8
aI4
asg149
Nsg150
g457
sg151
(lp460
sg153
g60
sg154
Nsg155
Nsg156
Nsbag3
(g4
g5
NtRp461
(dp462
g8
g10
sg134
Nsg135
(dp463
sg137
Nsg25
g27
sg138
(lp464
I8
aI5
asg140
Nsg141
VTosefta Yevamot 8:5
p465
sg143
(lp466
sg145
g99
sg146
Nsg147
(lp467
I8
aI5
asg149
Nsg150
g465
sg151
(lp468
sg153
g60
sg154
Nsg155
Nsg156
Nsbag3
(g4
g5
NtRp469
(dp470
g8
g10
sg134
Nsg135
(dp471
sg137
Nsg25
g27
sg138
(lp472
I9
aI1
asg140
Nsg141
VTosefta Yevamot 9:1
p473
sg143
(lp474
sg145
g99
sg146
Nsg147
(lp475
I9
aI1
asg149
Nsg150
g473
sg151
(lp476
sg153
g60
sg154
Nsg155
Nsg156
Nsbag3
(g4
g5
NtRp477
(dp478
g8
g10
sg134
Nsg135
(dp479
sg137
Nsg25
g27
sg138
(lp480
I9
aI2
asg140
Nsg141
VTosefta Yevamot 9:2
p481
sg143
(lp482
sg145
g99
sg146
Nsg147
(lp483
I9
aI2
asg149
Nsg150
g481
sg151
(lp484
sg153
g60
sg154
Nsg155
Nsg156
Nsbag3
(g4
g5
NtRp485
(dp486
g8
g10
sg134
Nsg135
(dp487
sg137
Nsg25
g27
sg138
(lp488
I9
aI3
asg140
Nsg141
VTosefta Yevamot 9:3
p489
sg143
(lp490
sg145
g99
sg146
Nsg147
(lp491
I9
aI3
asg149
Nsg150
g489
sg151
(lp492
sg153
g60
sg154
Nsg155
Nsg156
Nsbag3
(g4
g5
NtRp493
(dp494
g8
g10
sg134
Nsg135
(dp495
sg137
Nsg25
g27
sg138
(lp496
I9
aI4
asg140
Nsg141
VTosefta Yevamot 9:4
p497
sg143
(lp498
sg145
g99
sg146
Nsg147
(lp499
I9
aI4
asg149
Nsg150
g497
sg151
(lp500
sg153
g60
sg154
Nsg155
Nsg156
Nsbag3
(g4
g5
NtRp501
(dp502
g8
g10
sg134
Nsg135
(dp503
sg137
Nsg25
g27
sg138
(lp504
I9
aI5
asg140
Nsg141
VTosefta Yevamot 9:5
p505
sg143
(lp506
sg145
g99
sg146
Nsg147
(lp507
I9
aI5
asg149
Nsg150
g505
sg151
(lp508
sg153
g60
sg154
Nsg155
Nsg156
Nsbag3
(g4
g5
NtRp509
(dp510
g8
g10
sg134
Nsg135
(dp511
sg137
Nsg25
g27
sg138
(lp512
I9
aI6
asg140
Nsg141
VTosefta Yevamot 9:6
p513
sg143
(lp514
sg145
g99
sg146
Nsg147
(lp515
I9
aI6
asg149
Nsg150
g513
sg151
(lp516
sg153
g60
sg154
Nsg155
Nsg156
Nsbag3
(g4
g5
NtRp517
(dp518
g8
g10
sg134
Nsg135
(dp519
sg137
Nsg25
g27
sg138
(lp520
I9
aI7
asg140
Nsg141
VTosefta Yevamot 9:7
p521
sg143
(lp522
sg145
g99
sg146
Nsg147
(lp523
I9
aI7
asg149
Nsg150
g521
sg151
(lp524
sg153
g60
sg154
Nsg155
Nsg156
Nsbag3
(g4
g5
NtRp525
(dp526
g8
g10
sg134
Nsg135
(dp527
sg137
Nsg25
g27
sg138
(lp528
I9
aI8
asg140
Nsg141
VTosefta Yevamot 9:8
p529
sg143
(lp530
sg145
g99
sg146
Nsg147
(lp531
I9
aI8
asg149
Nsg150
g529
sg151
(lp532
sg153
g60
sg154
Nsg155
Nsg156
Nsbag3
(g4
g5
NtRp533
(dp534
g8
g10
sg134
Nsg135
(dp535
sg137
Nsg25
g27
sg138
(lp536
I9
aI9
asg140
Nsg141
VTosefta Yevamot 9:9
p537
sg143
(lp538
sg145
g99
sg146
Nsg147
(lp539
I9
aI9
asg149
Nsg150
g537
sg151
(lp540
sg153
g60
sg154
Nsg155
Nsg156
Nsbag3
(g4
g5
NtRp541
(dp542
g8
g10
sg134
Nsg135
(dp543
sg137
Nsg25
g27
sg138
(lp544
I10
aI1
asg140
Nsg141
VTosefta Yevamot 10:1
p545
sg143
(lp546
sg145
g99
sg146
Nsg147
(lp547
I10
aI1
asg149
Nsg150
g545
sg151
(lp548
sg153
g60
sg154
Nsg155
Nsg156
Nsbag3
(g4
g5
NtRp549
(dp550
g8
g10
sg134
Nsg135
(dp551
sg137
Nsg25
g27
sg138
(lp552
I10
aI2
asg140
Nsg141
VTosefta Yevamot 10:2
p553
sg143
(lp554
sg145
g99
sg146
Nsg147
(lp555
I10
aI2
asg149
Nsg150
g553
sg151
(lp556
sg153
g60
sg154
Nsg155
Nsg156
Nsbag3
(g4
g5
NtRp557
(dp558
g8
g10
sg134
Nsg135
(dp559
sg137
Nsg25
g27
sg138
(lp560
I10
aI3
asg140
Nsg141
VTosefta Yevamot 10:3
p561
sg143
(lp562
sg145
g99
sg146
Nsg147
(lp563
I10
aI3
asg149
Nsg150
g561
sg151
(lp564
sg153
g60
sg154
Nsg155
Nsg156
Nsbag3
(g4
g5
NtRp565
(dp566
g8
g10
sg134
Nsg135
(dp567
sg137
Nsg25
g27
sg138
(lp568
I10
aI4
asg140
Nsg141
VTosefta Yevamot 10:4
p569
sg143
(lp570
sg145
g99
sg146
Nsg147
(lp571
I10
aI4
asg149
Nsg150
g569
sg151
(lp572
sg153
g60
sg154
Nsg155
Nsg156
Nsbag3
(g4
g5
NtRp573
(dp574
g8
g10
sg134
Nsg135
(dp575
sg137
Nsg25
g27
sg138
(lp576
I10
aI5
asg140
Nsg141
VTosefta Yevamot 10:5
p577
sg143
(lp578
sg145
g99
sg146
Nsg147
(lp579
I10
aI5
asg149
Nsg150
g577
sg151
(lp580
sg153
g60
sg154
Nsg155
Nsg156
Nsbag3
(g4
g5
NtRp581
(dp582
g8
g10
sg134
Nsg135
(dp583
sg137
Nsg25
g27
sg138
(lp584
I10
aI6
asg140
Nsg141
VTosefta Yevamot 10:6
p585
sg143
(lp586
sg145
g99
sg146
Nsg147
(lp587
I10
aI6
asg149
Nsg150
g585
sg151
(lp588
sg153
g60
sg154
Nsg155
Nsg156
Nsbag3
(g4
g5
NtRp589
(dp590
g8
g10
sg134
Nsg135
(dp591
sg137
Nsg25
g27
sg138
(lp592
I11
aI1
asg140
Nsg141
VTosefta Yevamot 11:1
p593
sg143
(lp594
sg145
g99
sg146
Nsg147
(lp595
I11
aI1
asg149
Nsg150
g593
sg151
(lp596
sg153
g60
sg154
Nsg155
Nsg156
Nsbag3
(g4
g5
NtRp597
(dp598
g8
g10
sg134
Nsg135
(dp599
sg137
Nsg25
g27
sg138
(lp600
I11
aI2
asg140
Nsg141
VTosefta Yevamot 11:2
p601
sg143
(lp602
sg145
g99
sg146
Nsg147
(lp603
I11
aI2
asg149
Nsg150
g601
sg151
(lp604
sg153
g60
sg154
Nsg155
Nsg156
Nsbag3
(g4
g5
NtRp605
(dp606
g8
g10
sg134
Nsg135
(dp607
sg137
Nsg25
g27
sg138
(lp608
I11
aI3
asg140
Nsg141
VTosefta Yevamot 11:3
p609
sg143
(lp610
sg145
g99
sg146
Nsg147
(lp611
I11
aI3
asg149
Nsg150
g609
sg151
(lp612
sg153
g60
sg154
Nsg155
Nsg156
Nsbag3
(g4
g5
NtRp613
(dp614
g8
g10
sg134
Nsg135
(dp615
sg137
Nsg25
g27
sg138
(lp616
I11
aI4
asg140
Nsg141
VTosefta Yevamot 11:4
p617
sg143
(lp618
sg145
g99
sg146
Nsg147
(lp619
I11
aI4
asg149
Nsg150
g617
sg151
(lp620
sg153
g60
sg154
Nsg155
Nsg156
Nsbag3
(g4
g5
NtRp621
(dp622
g8
g10
sg134
Nsg135
(dp623
sg137
Nsg25
g27
sg138
(lp624
I11
aI5
asg140
Nsg141
VTosefta Yevamot 11:5
p625
sg143
(lp626
sg145
g99
sg146
Nsg147
(lp627
I11
aI5
asg149
Nsg150
g625
sg151
(lp628
sg153
g60
sg154
Nsg155
Nsg156
Nsbag3
(g4
g5
NtRp629
(dp630
g8
g10
sg134
Nsg135
(dp631
sg137
Nsg25
g27
sg138
(lp632
I11
aI6
asg140
Nsg141
VTosefta Yevamot 11:6
p633
sg143
(lp634
sg145
g99
sg146
Nsg147
(lp635
I11
aI6
asg149
Nsg150
g633
sg151
(lp636
sg153
g60
sg154
Nsg155
Nsg156
Nsbag3
(g4
g5
NtRp637
(dp638
g8
g10
sg134
Nsg135
(dp639
sg137
Nsg25
g27
sg138
(lp640
I11
aI7
asg140
Nsg141
VTosefta Yevamot 11:7
p641
sg143
(lp642
sg145
g99
sg146
Nsg147
(lp643
I11
aI7
asg149
Nsg150
g641
sg151
(lp644
sg153
g60
sg154
Nsg155
Nsg156
Nsbag3
(g4
g5
NtRp645
(dp646
g8
g10
sg134
Nsg135
(dp647
sg137
Nsg25
g27
sg138
(lp648
I11
aI8
asg140
Nsg141
VTosefta Yevamot 11:8
p649
sg143
(lp650
sg145
g99
sg146
Nsg147
(lp651
I11
aI8
asg149
Nsg150
g649
sg151
(lp652
sg153
g60
sg154
Nsg155
Nsg156
Nsbag3
(g4
g5
NtRp653
(dp654
g8
g10
sg134
Nsg135
(dp655
sg137
Nsg25
g27
sg138
(lp656
I11
aI9
asg140
Nsg141
VTosefta Yevamot 11:9
p657
sg143
(lp658
sg145
g99
sg146
Nsg147
(lp659
I11
aI9
asg149
Nsg150
g657
sg151
(lp660
sg153
g60
sg154
Nsg155
Nsg156
Nsbag3
(g4
g5
NtRp661
(dp662
g8
g10
sg134
Nsg135
(dp663
sg137
Nsg25
g27
sg138
(lp664
I11
aI10
asg140
Nsg141
VTosefta Yevamot 11:10
p665
sg143
(lp666
sg145
g99
sg146
Nsg147
(lp667
I11
aI10
asg149
Nsg150
g665
sg151
(lp668
sg153
g60
sg154
Nsg155
Nsg156
Nsbag3
(g4
g5
NtRp669
(dp670
g8
g10
sg134
Nsg135
(dp671
sg137
Nsg25
g27
sg138
(lp672
I11
aI11
asg140
Nsg141
VTosefta Yevamot 11:11
p673
sg143
(lp674
sg145
g99
sg146
Nsg147
(lp675
I11
aI11
asg149
Nsg150
g673
sg151
(lp676
sg153
g60
sg154
Nsg155
Nsg156
Nsbag3
(g4
g5
NtRp677
(dp678
g8
g10
sg134
Nsg135
(dp679
sg137
Nsg25
g27
sg138
(lp680
I11
aI12
asg140
Nsg141
VTosefta Yevamot 11:12
p681
sg143
(lp682
sg145
g99
sg146
Nsg147
(lp683
I11
aI12
asg149
Nsg150
g681
sg151
(lp684
sg153
g60
sg154
Nsg155
Nsg156
Nsbag3
(g4
g5
NtRp685
(dp686
g8
g10
sg134
Nsg135
(dp687
sg137
Nsg25
g27
sg138
(lp688
I11
aI13
asg140
Nsg141
VTosefta Yevamot 11:13
p689
sg143
(lp690
sg145
g99
sg146
Nsg147
(lp691
I11
aI13
asg149
Nsg150
g689
sg151
(lp692
sg153
g60
sg154
Nsg155
Nsg156
Nsbag3
(g4
g5
NtRp693
(dp694
g8
g10
sg134
Nsg135
(dp695
sg137
Nsg25
g27
sg138
(lp696
I12
aI1
asg140
Nsg141
VTosefta Yevamot 12:1
p697
sg143
(lp698
sg145
g99
sg146
Nsg147
(lp699
I12
aI1
asg149
Nsg150
g697
sg151
(lp700
sg153
g60
sg154
Nsg155
Nsg156
Nsbag3
(g4
g5
NtRp701
(dp702
g8
g10
sg134
Nsg135
(dp703
sg137
Nsg25
g27
sg138
(lp704
I12
aI2
asg140
Nsg141
VTosefta Yevamot 12:2
p705
sg143
(lp706
sg145
g99
sg146
Nsg147
(lp707
I12
aI2
asg149
Nsg150
g705
sg151
(lp708
sg153
g60
sg154
Nsg155
Nsg156
Nsbag3
(g4
g5
NtRp709
(dp710
g8
g10
sg134
Nsg135
(dp711
sg137
Nsg25
g27
sg138
(lp712
I12
aI3
asg140
Nsg141
VTosefta Yevamot 12:3
p713
sg143
(lp714
sg145
g99
sg146
Nsg147
(lp715
I12
aI3
asg149
Nsg150
g713
sg151
(lp716
sg153
g60
sg154
Nsg155
Nsg156
Nsbag3
(g4
g5
NtRp717
(dp718
g8
g10
sg134
Nsg135
(dp719
sg137
Nsg25
g27
sg138
(lp720
I12
aI4
asg140
Nsg141
VTosefta Yevamot 12:4
p721
sg143
(lp722
sg145
g99
sg146
Nsg147
(lp723
I12
aI4
asg149
Nsg150
g721
sg151
(lp724
sg153
g60
sg154
Nsg155
Nsg156
Nsbag3
(g4
g5
NtRp725
(dp726
g8
g10
sg134
Nsg135
(dp727
sg137
Nsg25
g27
sg138
(lp728
I12
aI5
asg140
Nsg141
VTosefta Yevamot 12:5
p729
sg143
(lp730
sg145
g99
sg146
Nsg147
(lp731
I12
aI5
asg149
Nsg150
g729
sg151
(lp732
sg153
g60
sg154
Nsg155
Nsg156
Nsbag3
(g4
g5
NtRp733
(dp734
g8
g10
sg134
Nsg135
(dp735
sg137
Nsg25
g27
sg138
(lp736
I12
aI6
asg140
Nsg141
VTosefta Yevamot 12:6
p737
sg143
(lp738
sg145
g99
sg146
Nsg147
(lp739
I12
aI6
asg149
Nsg150
g737
sg151
(lp740
sg153
g60
sg154
Nsg155
Nsg156
Nsbag3
(g4
g5
NtRp741
(dp742
g8
g10
sg134
Nsg135
(dp743
sg137
Nsg25
g27
sg138
(lp744
I12
aI7
asg140
Nsg141
VTosefta Yevamot 12:7
p745
sg143
(lp746
sg145
g99
sg146
Nsg147
(lp747
I12
aI7
asg149
Nsg150
g745
sg151
(lp748
sg153
g60
sg154
Nsg155
Nsg156
Nsbag3
(g4
g5
NtRp749
(dp750
g8
g10
sg134
Nsg135
(dp751
sg137
Nsg25
g27
sg138
(lp752
I12
aI8
asg140
Nsg141
VTosefta Yevamot 12:8
p753
sg143
(lp754
sg145
g99
sg146
Nsg147
(lp755
I12
aI8
asg149
Nsg150
g753
sg151
(lp756
sg153
g60
sg154
Nsg155
Nsg156
Nsbag3
(g4
g5
NtRp757
(dp758
g8
g10
sg134
Nsg135
(dp759
sg137
Nsg25
g27
sg138
(lp760
I12
aI9
asg140
Nsg141
VTosefta Yevamot 12:9
p761
sg143
(lp762
sg145
g99
sg146
Nsg147
(lp763
I12
aI9
asg149
Nsg150
g761
sg151
(lp764
sg153
g60
sg154
Nsg155
Nsg156
Nsbag3
(g4
g5
NtRp765
(dp766
g8
g10
sg134
Nsg135
(dp767
sg137
Nsg25
g27
sg138
(lp768
I12
aI10
asg140
Nsg141
VTosefta Yevamot 12:10
p769
sg143
(lp770
sg145
g99
sg146
Nsg147
(lp771
I12
aI10
asg149
Nsg150
g769
sg151
(lp772
sg153
g60
sg154
Nsg155
Nsg156
Nsbag3
(g4
g5
NtRp773
(dp774
g8
g10
sg134
Nsg135
(dp775
sg137
Nsg25
g27
sg138
(lp776
I12
aI11
asg140
Nsg141
VTosefta Yevamot 12:11
p777
sg143
(lp778
sg145
g99
sg146
Nsg147
(lp779
I12
aI11
asg149
Nsg150
g777
sg151
(lp780
sg153
g60
sg154
Nsg155
Nsg156
Nsbag3
(g4
g5
NtRp781
(dp782
g8
g10
sg134
Nsg135
(dp783
sg137
Nsg25
g27
sg138
(lp784
I12
aI12
asg140
Nsg141
VTosefta Yevamot 12:12
p785
sg143
(lp786
sg145
g99
sg146
Nsg147
(lp787
I12
aI12
asg149
Nsg150
g785
sg151
(lp788
sg153
g60
sg154
Nsg155
Nsg156
Nsbag3
(g4
g5
NtRp789
(dp790
g8
g10
sg134
Nsg135
(dp791
sg137
Nsg25
g27
sg138
(lp792
I12
aI13
asg140
Nsg141
VTosefta Yevamot 12:13
p793
sg143
(lp794
sg145
g99
sg146
Nsg147
(lp795
I12
aI13
asg149
Nsg150
g793
sg151
(lp796
sg153
g60
sg154
Nsg155
Nsg156
Nsbag3
(g4
g5
NtRp797
(dp798
g8
g10
sg134
Nsg135
(dp799
sg137
Nsg25
g27
sg138
(lp800
I13
aI1
asg140
Nsg141
VTosefta Yevamot 13:1
p801
sg143
(lp802
sg145
g99
sg146
Nsg147
(lp803
I13
aI1
asg149
Nsg150
g801
sg151
(lp804
sg153
g60
sg154
Nsg155
Nsg156
Nsbag3
(g4
g5
NtRp805
(dp806
g8
g10
sg134
Nsg135
(dp807
sg137
Nsg25
g27
sg138
(lp808
I13
aI2
asg140
Nsg141
VTosefta Yevamot 13:2
p809
sg143
(lp810
sg145
g99
sg146
Nsg147
(lp811
I13
aI2
asg149
Nsg150
g809
sg151
(lp812
sg153
g60
sg154
Nsg155
Nsg156
Nsbag3
(g4
g5
NtRp813
(dp814
g8
g10
sg134
Nsg135
(dp815
sg137
Nsg25
g27
sg138
(lp816
I13
aI3
asg140
Nsg141
VTosefta Yevamot 13:3
p817
sg143
(lp818
sg145
g99
sg146
Nsg147
(lp819
I13
aI3
asg149
Nsg150
g817
sg151
(lp820
sg153
g60
sg154
Nsg155
Nsg156
Nsbag3
(g4
g5
NtRp821
(dp822
g8
g10
sg134
Nsg135
(dp823
sg137
Nsg25
g27
sg138
(lp824
I13
aI4
asg140
Nsg141
VTosefta Yevamot 13:4
p825
sg143
(lp826
sg145
g99
sg146
Nsg147
(lp827
I13
aI4
asg149
Nsg150
g825
sg151
(lp828
sg153
g60
sg154
Nsg155
Nsg156
Nsbag3
(g4
g5
NtRp829
(dp830
g8
g10
sg134
Nsg135
(dp831
sg137
Nsg25
g27
sg138
(lp832
I13
aI5
asg140
Nsg141
VTosefta Yevamot 13:5
p833
sg143
(lp834
sg145
g99
sg146
Nsg147
(lp835
I13
aI5
asg149
Nsg150
g833
sg151
(lp836
sg153
g60
sg154
Nsg155
Nsg156
Nsbag3
(g4
g5
NtRp837
(dp838
g8
g10
sg134
Nsg135
(dp839
sg137
Nsg25
g27
sg138
(lp840
I13
aI6
asg140
Nsg141
VTosefta Yevamot 13:6
p841
sg143
(lp842
sg145
g99
sg146
Nsg147
(lp843
I13
aI6
asg149
Nsg150
g841
sg151
(lp844
sg153
g60
sg154
Nsg155
Nsg156
Nsbag3
(g4
g5
NtRp845
(dp846
g8
g10
sg134
Nsg135
(dp847
sg137
Nsg25
g27
sg138
(lp848
I13
aI7
asg140
Nsg141
VTosefta Yevamot 13:7
p849
sg143
(lp850
sg145
g99
sg146
Nsg147
(lp851
I13
aI7
asg149
Nsg150
g849
sg151
(lp852
sg153
g60
sg154
Nsg155
Nsg156
Nsbag3
(g4
g5
NtRp853
(dp854
g8
g10
sg134
Nsg135
(dp855
sg137
Nsg25
g27
sg138
(lp856
I13
aI8
asg140
Nsg141
VTosefta Yevamot 13:8
p857
sg143
(lp858
sg145
g99
sg146
Nsg147
(lp859
I13
aI8
asg149
Nsg150
g857
sg151
(lp860
sg153
g60
sg154
Nsg155
Nsg156
Nsbag3
(g4
g5
NtRp861
(dp862
g8
g10
sg134
Nsg135
(dp863
sg137
Nsg25
g27
sg138
(lp864
I13
aI9
asg140
Nsg141
VTosefta Yevamot 13:9
p865
sg143
(lp866
sg145
g99
sg146
Nsg147
(lp867
I13
aI9
asg149
Nsg150
g865
sg151
(lp868
sg153
g60
sg154
Nsg155
Nsg156
Nsbag3
(g4
g5
NtRp869
(dp870
g8
g10
sg134
Nsg135
(dp871
sg137
Nsg25
g27
sg138
(lp872
I13
aI10
asg140
Nsg141
VTosefta Yevamot 13:10
p873
sg143
(lp874
sg145
g99
sg146
Nsg147
(lp875
I13
aI10
asg149
Nsg150
g873
sg151
(lp876
sg153
g60
sg154
Nsg155
Nsg156
Nsbag3
(g4
g5
NtRp877
(dp878
g8
g10
sg134
Nsg135
(dp879
sg137
Nsg25
g27
sg138
(lp880
I14
aI1
asg140
Nsg141
VTosefta Yevamot 14:1
p881
sg143
(lp882
sg145
g99
sg146
Nsg147
(lp883
I14
aI1
asg149
Nsg150
g881
sg151
(lp884
sg153
g60
sg154
Nsg155
Nsg156
Nsbag3
(g4
g5
NtRp885
(dp886
g8
g10
sg134
Nsg135
(dp887
sg137
Nsg25
g27
sg138
(lp888
I14
aI2
asg140
Nsg141
VTosefta Yevamot 14:2
p889
sg143
(lp890
sg145
g99
sg146
Nsg147
(lp891
I14
aI2
asg149
Nsg150
g889
sg151
(lp892
sg153
g60
sg154
Nsg155
Nsg156
Nsbag3
(g4
g5
NtRp893
(dp894
g8
g10
sg134
Nsg135
(dp895
sg137
Nsg25
g27
sg138
(lp896
I14
aI3
asg140
Nsg141
VTosefta Yevamot 14:3
p897
sg143
(lp898
sg145
g99
sg146
Nsg147
(lp899
I14
aI3
asg149
Nsg150
g897
sg151
(lp900
sg153
g60
sg154
Nsg155
Nsg156
Nsbag3
(g4
g5
NtRp901
(dp902
g8
g10
sg134
Nsg135
(dp903
sg137
Nsg25
g27
sg138
(lp904
I14
aI4
asg140
Nsg141
VTosefta Yevamot 14:4
p905
sg143
(lp906
sg145
g99
sg146
Nsg147
(lp907
I14
aI4
asg149
Nsg150
g905
sg151
(lp908
sg153
g60
sg154
Nsg155
Nsg156
Nsbag3
(g4
g5
NtRp909
(dp910
g8
g10
sg134
Nsg135
(dp911
sg137
Nsg25
g27
sg138
(lp912
I14
aI5
asg140
Nsg141
VTosefta Yevamot 14:5
p913
sg143
(lp914
sg145
g99
sg146
Nsg147
(lp915
I14
aI5
asg149
Nsg150
g913
sg151
(lp916
sg153
g60
sg154
Nsg155
Nsg156
Nsbag3
(g4
g5
NtRp917
(dp918
g8
g10
sg134
Nsg135
(dp919
sg137
Nsg25
g27
sg138
(lp920
I14
aI6
asg140
Nsg141
VTosefta Yevamot 14:6
p921
sg143
(lp922
sg145
g99
sg146
Nsg147
(lp923
I14
aI6
asg149
Nsg150
g921
sg151
(lp924
sg153
g60
sg154
Nsg155
Nsg156
Nsbag3
(g4
g5
NtRp925
(dp926
g8
g10
sg134
Nsg135
(dp927
sg137
Nsg25
g27
sg138
(lp928
I14
aI7
asg140
Nsg141
VTosefta Yevamot 14:7
p929
sg143
(lp930
sg145
g99
sg146
Nsg147
(lp931
I14
aI7
asg149
Nsg150
g929
sg151
(lp932
sg153
g60
sg154
Nsg155
Nsg156
Nsbag3
(g4
g5
NtRp933
(dp934
g8
g10
sg134
Nsg135
(dp935
sg137
Nsg25
g27
sg138
(lp936
I14
aI8
asg140
Nsg141
VTosefta Yevamot 14:8
p937
sg143
(lp938
sg145
g99
sg146
Nsg147
(lp939
I14
aI8
asg149
Nsg150
g937
sg151
(lp940
sg153
g60
sg154
Nsg155
Nsg156
Nsbag3
(g4
g5
NtRp941
(dp942
g8
g10
sg134
Nsg135
(dp943
sg137
Nsg25
g27
sg138
(lp944
I14
aI9
asg140
Nsg141
VTosefta Yevamot 14:9
p945
sg143
(lp946
sg145
g99
sg146
Nsg147
(lp947
I14
aI9
asg149
Nsg150
g945
sg151
(lp948
sg153
g60
sg154
Nsg155
Nsg156
Nsbag3
(g4
g5
NtRp949
(dp950
g8
g10
sg134
Nsg135
(dp951
sg137
Nsg25
g27
sg138
(lp952
I14
aI10
asg140
Nsg141
VTosefta Yevamot 14:10
p953
sg143
(lp954
sg145
g99
sg146
Nsg147
(lp955
I14
aI10
asg149
Nsg150
g953
sg151
(lp956
sg153
g60
sg154
Nsg155
Nsg156
Nsbag3
(g4
g5
NtRp957
(dp958
g8
g10
sg134
Nsg135
(dp959
sg137
Nsg25
g27
sg138
(lp960
I14
aI11
asg140
Nsg141
VTosefta Yevamot 14:11
p961
sg143
(lp962
sg145
g99
sg146
Nsg147
(lp963
I14
aI11
asg149
Nsg150
g961
sg151
(lp964
sg153
g60
sg154
Nsg155
Nsg156
Nsbag3
(g4
g5
NtRp965
(dp966
g8
g10
sg134
Nsg135
(dp967
sg137
Nsg25
g27
sg138
(lp968
I14
aI12
asg140
Nsg141
VTosefta Yevamot 14:12
p969
sg143
(lp970
sg145
g99
sg146
Nsg147
(lp971
I14
aI12
asg149
Nsg150
g969
sg151
(lp972
sg153
g60
sg154
Nsg155
Nsg156
NsbaI8272
t.