((lp1
I0
aI95
aI130
aI221
aI250
aI297
aI312
aI363
aI441
aI469
aI532
aI566
aI632
aI717
aI795
aI864
aI998
a(lp2
ccopy_reg
_reconstructor
p3
(csefaria.model.text
Ref
p4
c__builtin__
object
p5
NtRp6
(dp7
S'index_node'
p8
g3
(csefaria.model.schema
JaggedArrayNode
p9
g5
NtRp10
(dp11
S'_address'
p12
(lp13
VTosefta Moed Kattan
p14
asS'_full_titles'
p15
(dp16
sVnodeType
p17
VJaggedArrayNode
p18
sS'parent'
p19
NsVaddressTypes
p20
(lp21
VInteger
p22
aVInteger
p23
asS'default'
p24
I00
sS'index'
p25
g3
(csefaria.model.text
Index
p26
g5
NtRp27
(dp28
S'struct_objs'
p29
(dp30
sS'_id'
p31
g3
(cbson.objectid
ObjectId
p32
g5
NtRp33
S'S*\xed$\xfb\xfb\xa2M\x19\x8eQ\xac'
p34
bsS'pkeys_orig_values'
p35
(dp36
S'title'
p37
VTosefta Moed Kattan
p38
ssS'pubDate'
p39
V1521
p40
sS'transliteratedTitle'
p41
VTosefta Mo'ed Kattan
p42
sS'pubPlace'
p43
VVenice
p44
sS'compPlace'
p45
VTalmudic Israel
p46
sS'enDesc'
p47
VThe Tosefta (Supplement, addition") is a compilation of the Jewish oral law. Opinions differ widely as to when the Tosefta was redacted and how it relates to the Mishnah. However it closely corresponds to the Mishnah in structure and style, with the same divisions for sedarim ("orders") and masekhot ("tractates"). In many ways, the Tosefta acts as a supplement to the Mishnah. It is mainly written in Mishnaic Hebrew, with some Aramaic. Moed Qatan (Little Festival) belongs to the second order, Moed (Festivals) and discusses Hol Hamoed, the intermediate festival days of Pesach and Sukkot and the laws of mourning. It has two chapters.
p48
sS'order'
p49
(lp50
I11
asS'era'
p51
VT
sS'compDate'
p52
V210
p53
sS'nodes'
p54
g10
sS'errorMargin'
p55
V20
p56
sS'_title'
p57
g38
sS'categories'
p58
(lp59
VTosefta
p60
aVSeder Moed
p61
asS'schema'
p62
(dp63
g17
g18
sg20
g21
sVlengths
p64
(lp65
I2
asVdepth
p66
I2
sVtitles
p67
(lp68
(dp69
Vlang
p70
Ven
p71
sVtext
p72
VTosefta Mo'ed Kattan
p73
sa(dp74
Vlang
p75
Ven
p76
sVtext
p77
VT. Moed Katan
p78
sa(dp79
Vlang
p80
Ven
p81
sVtext
p82
VT. Moed Kattan
p83
sa(dp84
Vlang
p85
Ven
p86
sVtext
p87
VTosefta Moed Katan
p88
sa(dp89
Vlang
p90
Ven
p91
sVtext
p92
VTos. Moed Kattan
p93
sa(dp94
Vlang
p95
Ven
p96
sVtext
p97
VTos. Moed Katan
p98
sa(dp99
Vlang
p100
Vhe
p101
sVtext
p102
V\u05ea\u05d5\u05e1\u05e4\u05ea\u05d0 \u05de\u05d5\u05e2\u05d3 \u05e7\u05d8\u05df
p103
sVprimary
p104
I01
sa(dp105
Vlang
p106
Ven
p107
sVtext
p108
VTosefta Moed Kattan
p109
sVprimary
p110
I01
sasVkey
p111
g14
sVsectionNames
p112
(lp113
VChapter
p114
aVTosefta
p115
assbsS'_primary_title'
p116
(dp117
sS'title_group'
p118
g3
(csefaria.model.schema
TitleGroup
p119
g5
NtRp120
(dp121
g116
(dp122
S'en'
p123
g109
ssS'titles'
p124
g68
sbsS'_addressTypes'
p125
(lp126
g3
(csefaria.model.schema
AddressInteger
p127
g5
NtRp128
(dp129
S'length'
p130
I2
sg49
I0
sbag3
(g127
g5
NtRp131
(dp132
g130
Nsg49
I1
sbasS'sharedTitle'
p133
Nsg64
g65
sg66
I2
sS'_full_title'
p134
(dp135
g123
g109
ssS'key'
p136
g14
sS'checkFirst'
p137
NsS'_regexes'
p138
(dp139
sS'_leaf_nodes'
p140
(lp141
sg112
g113
sS'children'
p142
(lp143
sbsS'_range_index'
p144
NsS'_context'
p145
(dp146
sS'_padded'
p147
Nsg25
g27
sS'sections'
p148
(lp149
I1
aI1
asS'_first_spanned_ref'
p150
NsS'tref'
p151
VTosefta Moed Kattan 1:1
p152
sS'_spanned_refs'
p153
(lp154
sS'book'
p155
g109
sS'_range_depth'
p156
NsS'toSections'
p157
(lp158
I1
aI1
asS'_url'
p159
NsS'_normal'
p160
g152
sS'_ranged_refs'
p161
(lp162
sS'type'
p163
g60
sS'_prev'
p164
NsS'_he_normal'
p165
NsS'_next'
p166
Nsbag3
(g4
g5
NtRp167
(dp168
g8
g10
sg144
Nsg145
(dp169
sg147
Nsg25
g27
sg148
(lp170
I1
aI2
asg150
Nsg151
VTosefta Moed Kattan 1:2
p171
sg153
(lp172
sg155
g109
sg156
Nsg157
(lp173
I1
aI2
asg159
Nsg160
g171
sg161
(lp174
sg163
g60
sg164
Nsg165
Nsg166
Nsbag3
(g4
g5
NtRp175
(dp176
g8
g10
sg144
Nsg145
(dp177
sg147
Nsg25
g27
sg148
(lp178
I1
aI3
asg150
Nsg151
VTosefta Moed Kattan 1:3
p179
sg153
(lp180
sg155
g109
sg156
Nsg157
(lp181
I1
aI3
asg159
Nsg160
g179
sg161
(lp182
sg163
g60
sg164
Nsg165
Nsg166
Nsbag3
(g4
g5
NtRp183
(dp184
g8
g10
sg144
Nsg145
(dp185
sg147
Nsg25
g27
sg148
(lp186
I1
aI4
asg150
Nsg151
VTosefta Moed Kattan 1:4
p187
sg153
(lp188
sg155
g109
sg156
Nsg157
(lp189
I1
aI4
asg159
Nsg160
g187
sg161
(lp190
sg163
g60
sg164
Nsg165
Nsg166
Nsbag3
(g4
g5
NtRp191
(dp192
g8
g10
sg144
Nsg145
(dp193
sg147
Nsg25
g27
sg148
(lp194
I1
aI5
asg150
Nsg151
VTosefta Moed Kattan 1:5
p195
sg153
(lp196
sg155
g109
sg156
Nsg157
(lp197
I1
aI5
asg159
Nsg160
g195
sg161
(lp198
sg163
g60
sg164
Nsg165
Nsg166
Nsbag3
(g4
g5
NtRp199
(dp200
g8
g10
sg144
Nsg145
(dp201
sg147
Nsg25
g27
sg148
(lp202
I1
aI6
asg150
Nsg151
VTosefta Moed Kattan 1:6
p203
sg153
(lp204
sg155
g109
sg156
Nsg157
(lp205
I1
aI6
asg159
Nsg160
g203
sg161
(lp206
sg163
g60
sg164
Nsg165
Nsg166
Nsbag3
(g4
g5
NtRp207
(dp208
g8
g10
sg144
Nsg145
(dp209
sg147
Nsg25
g27
sg148
(lp210
I1
aI7
asg150
Nsg151
VTosefta Moed Kattan 1:7
p211
sg153
(lp212
sg155
g109
sg156
Nsg157
(lp213
I1
aI7
asg159
Nsg160
g211
sg161
(lp214
sg163
g60
sg164
Nsg165
Nsg166
Nsbag3
(g4
g5
NtRp215
(dp216
g8
g10
sg144
Nsg145
(dp217
sg147
Nsg25
g27
sg148
(lp218
I1
aI8
asg150
Nsg151
VTosefta Moed Kattan 1:8
p219
sg153
(lp220
sg155
g109
sg156
Nsg157
(lp221
I1
aI8
asg159
Nsg160
g219
sg161
(lp222
sg163
g60
sg164
Nsg165
Nsg166
Nsbag3
(g4
g5
NtRp223
(dp224
g8
g10
sg144
Nsg145
(dp225
sg147
Nsg25
g27
sg148
(lp226
I2
aI1
asg150
Nsg151
VTosefta Moed Kattan 2:1
p227
sg153
(lp228
sg155
g109
sg156
Nsg157
(lp229
I2
aI1
asg159
Nsg160
g227
sg161
(lp230
sg163
g60
sg164
Nsg165
Nsg166
Nsbag3
(g4
g5
NtRp231
(dp232
g8
g10
sg144
Nsg145
(dp233
sg147
Nsg25
g27
sg148
(lp234
I2
aI2
asg150
Nsg151
VTosefta Moed Kattan 2:2
p235
sg153
(lp236
sg155
g109
sg156
Nsg157
(lp237
I2
aI2
asg159
Nsg160
g235
sg161
(lp238
sg163
g60
sg164
Nsg165
Nsg166
Nsbag3
(g4
g5
NtRp239
(dp240
g8
g10
sg144
Nsg145
(dp241
sg147
Nsg25
g27
sg148
(lp242
I2
aI3
asg150
Nsg151
VTosefta Moed Kattan 2:3
p243
sg153
(lp244
sg155
g109
sg156
Nsg157
(lp245
I2
aI3
asg159
Nsg160
g243
sg161
(lp246
sg163
g60
sg164
Nsg165
Nsg166
Nsbag3
(g4
g5
NtRp247
(dp248
g8
g10
sg144
Nsg145
(dp249
sg147
Nsg25
g27
sg148
(lp250
I2
aI4
asg150
Nsg151
VTosefta Moed Kattan 2:4
p251
sg153
(lp252
sg155
g109
sg156
Nsg157
(lp253
I2
aI4
asg159
Nsg160
g251
sg161
(lp254
sg163
g60
sg164
Nsg165
Nsg166
Nsbag3
(g4
g5
NtRp255
(dp256
g8
g10
sg144
Nsg145
(dp257
sg147
Nsg25
g27
sg148
(lp258
I2
aI5
asg150
Nsg151
VTosefta Moed Kattan 2:5
p259
sg153
(lp260
sg155
g109
sg156
Nsg157
(lp261
I2
aI5
asg159
Nsg160
g259
sg161
(lp262
sg163
g60
sg164
Nsg165
Nsg166
Nsbag3
(g4
g5
NtRp263
(dp264
g8
g10
sg144
Nsg145
(dp265
sg147
Nsg25
g27
sg148
(lp266
I2
aI6
asg150
Nsg151
VTosefta Moed Kattan 2:6
p267
sg153
(lp268
sg155
g109
sg156
Nsg157
(lp269
I2
aI6
asg159
Nsg160
g267
sg161
(lp270
sg163
g60
sg164
Nsg165
Nsg166
Nsbag3
(g4
g5
NtRp271
(dp272
g8
g10
sg144
Nsg145
(dp273
sg147
Nsg25
g27
sg148
(lp274
I2
aI7
asg150
Nsg151
VTosefta Moed Kattan 2:7
p275
sg153
(lp276
sg155
g109
sg156
Nsg157
(lp277
I2
aI7
asg159
Nsg160
g275
sg161
(lp278
sg163
g60
sg164
Nsg165
Nsg166
Nsbag3
(g4
g5
NtRp279
(dp280
g8
g10
sg144
Nsg145
(dp281
sg147
Nsg25
g27
sg148
(lp282
I2
aI8
asg150
Nsg151
VTosefta Moed Kattan 2:8
p283
sg153
(lp284
sg155
g109
sg156
Nsg157
(lp285
I2
aI8
asg159
Nsg160
g283
sg161
(lp286
sg163
g60
sg164
Nsg165
Nsg166
Nsbag3
(g4
g5
NtRp287
(dp288
g8
g10
sg144
Nsg145
(dp289
sg147
Nsg25
g27
sg148
(lp290
I2
aI9
asg150
Nsg151
VTosefta Moed Kattan 2:9
p291
sg153
(lp292
sg155
g109
sg156
Nsg157
(lp293
I2
aI9
asg159
Nsg160
g291
sg161
(lp294
sg163
g60
sg164
Nsg165
Nsg166
NsbaI1042
t.