((lp1
I0
aI40
aI58
aI101
aI132
aI177
aI194
aI222
a(lp2
ccopy_reg
_reconstructor
p3
(csefaria.model.text
Ref
p4
c__builtin__
object
p5
NtRp6
(dp7
S'index_node'
p8
g3
(csefaria.model.schema
JaggedArrayNode
p9
g5
NtRp10
(dp11
S'_address'
p12
(lp13
VTosefta Orlah
p14
asS'_full_titles'
p15
(dp16
sVnodeType
p17
VJaggedArrayNode
p18
sS'parent'
p19
NsVaddressTypes
p20
(lp21
VInteger
p22
aVInteger
p23
asS'default'
p24
I00
sS'index'
p25
g3
(csefaria.model.text
Index
p26
g5
NtRp27
(dp28
S'struct_objs'
p29
(dp30
sS'_id'
p31
g3
(cbson.objectid
ObjectId
p32
g5
NtRp33
S'Q\xdb\x83\xb7\xed\xba\xb4R<\xea.\xcb'
p34
bsS'pkeys_orig_values'
p35
(dp36
S'title'
p37
VTosefta Orlah
p38
ssS'pubDate'
p39
V1521
p40
sS'transliteratedTitle'
p41
VTosefta Orlah
p42
sS'pubPlace'
p43
VVenice
p44
sS'compPlace'
p45
VTalmudic Israel
p46
sS'enDesc'
p47
VThe Tosefta (Supplement, addition") is a compilation of the Jewish oral law. Opinions differ widely as to when the Tosefta was redacted and how it relates to the Mishnah. However it closely corresponds to the Mishnah in structure and style, with the same divisions for sedarim ("orders") and masekhot ("tractates"). In many ways, the Tosefta acts as a supplement to the Mishnah. It is mainly written in Mishnaic Hebrew, with some Aramaic. Orlah (Blockage [of Trees]) belongs to the first order, Zera'im (seeds) and discusses the first-fruit gifts to the Kohanim and Temple, as stated in Exodus 23:19; Deuteronomy 26:1. It consists of three to one chapters.
p48
sS'order'
p49
(lp50
I9
asS'era'
p51
VT
sS'compDate'
p52
V210
p53
sS'nodes'
p54
g10
sS'errorMargin'
p55
V20
p56
sS'_title'
p57
g38
sS'categories'
p58
(lp59
VTosefta
p60
aVSeder Zeraim
p61
asS'schema'
p62
(dp63
g17
g18
sg20
g21
sVlengths
p64
(lp65
I1
asVdepth
p66
I2
sVtitles
p67
(lp68
(dp69
Vlang
p70
Ven
p71
sVtext
p72
VT. Orlah
p73
sa(dp74
Vlang
p75
Ven
p76
sVtext
p77
VTos. Orlah
p78
sa(dp79
Vlang
p80
Vhe
p81
sVtext
p82
V\u05ea\u05d5\u05e1\u05e4\u05ea\u05d0 \u05e2\u05e8\u05dc\u05d4
p83
sVprimary
p84
I01
sa(dp85
Vlang
p86
Ven
p87
sVtext
p88
VTosefta Orlah
p89
sVprimary
p90
I01
sasVkey
p91
g14
sVsectionNames
p92
(lp93
VChapter
p94
aVTosefta
p95
assbsS'_primary_title'
p96
(dp97
sS'title_group'
p98
g3
(csefaria.model.schema
TitleGroup
p99
g5
NtRp100
(dp101
g96
(dp102
S'en'
p103
g89
ssS'titles'
p104
g68
sbsS'_addressTypes'
p105
(lp106
g3
(csefaria.model.schema
AddressInteger
p107
g5
NtRp108
(dp109
S'length'
p110
I1
sg49
I0
sbag3
(g107
g5
NtRp111
(dp112
g110
Nsg49
I1
sbasS'sharedTitle'
p113
Nsg64
g65
sg66
I2
sS'_full_title'
p114
(dp115
g103
g89
ssS'key'
p116
g14
sS'checkFirst'
p117
NsS'_regexes'
p118
(dp119
sS'_leaf_nodes'
p120
(lp121
sg92
g93
sS'children'
p122
(lp123
sbsS'_range_index'
p124
NsS'_context'
p125
(dp126
sS'_padded'
p127
Nsg25
g27
sS'sections'
p128
(lp129
I1
aI1
asS'_first_spanned_ref'
p130
NsS'tref'
p131
VTosefta Orlah 1:1
p132
sS'_spanned_refs'
p133
(lp134
sS'book'
p135
g89
sS'_range_depth'
p136
NsS'toSections'
p137
(lp138
I1
aI1
asS'_url'
p139
NsS'_normal'
p140
g132
sS'_ranged_refs'
p141
(lp142
sS'type'
p143
g60
sS'_prev'
p144
NsS'_he_normal'
p145
NsS'_next'
p146
Nsbag3
(g4
g5
NtRp147
(dp148
g8
g10
sg124
Nsg125
(dp149
sg127
Nsg25
g27
sg128
(lp150
I1
aI2
asg130
Nsg131
VTosefta Orlah 1:2
p151
sg133
(lp152
sg135
g89
sg136
Nsg137
(lp153
I1
aI2
asg139
Nsg140
g151
sg141
(lp154
sg143
g60
sg144
Nsg145
Nsg146
Nsbag3
(g4
g5
NtRp155
(dp156
g8
g10
sg124
Nsg125
(dp157
sg127
Nsg25
g27
sg128
(lp158
I1
aI3
asg130
Nsg131
VTosefta Orlah 1:3
p159
sg133
(lp160
sg135
g89
sg136
Nsg137
(lp161
I1
aI3
asg139
Nsg140
g159
sg141
(lp162
sg143
g60
sg144
Nsg145
Nsg146
Nsbag3
(g4
g5
NtRp163
(dp164
g8
g10
sg124
Nsg125
(dp165
sg127
Nsg25
g27
sg128
(lp166
I1
aI4
asg130
Nsg131
VTosefta Orlah 1:4
p167
sg133
(lp168
sg135
g89
sg136
Nsg137
(lp169
I1
aI4
asg139
Nsg140
g167
sg141
(lp170
sg143
g60
sg144
Nsg145
Nsg146
Nsbag3
(g4
g5
NtRp171
(dp172
g8
g10
sg124
Nsg125
(dp173
sg127
Nsg25
g27
sg128
(lp174
I1
aI5
asg130
Nsg131
VTosefta Orlah 1:5
p175
sg133
(lp176
sg135
g89
sg136
Nsg137
(lp177
I1
aI5
asg139
Nsg140
g175
sg141
(lp178
sg143
g60
sg144
Nsg145
Nsg146
Nsbag3
(g4
g5
NtRp179
(dp180
g8
g10
sg124
Nsg125
(dp181
sg127
Nsg25
g27
sg128
(lp182
I1
aI6
asg130
Nsg131
VTosefta Orlah 1:6
p183
sg133
(lp184
sg135
g89
sg136
Nsg137
(lp185
I1
aI6
asg139
Nsg140
g183
sg141
(lp186
sg143
g60
sg144
Nsg145
Nsg146
Nsbag3
(g4
g5
NtRp187
(dp188
g8
g10
sg124
Nsg125
(dp189
sg127
Nsg25
g27
sg128
(lp190
I1
aI7
asg130
Nsg131
VTosefta Orlah 1:7
p191
sg133
(lp192
sg135
g89
sg136
Nsg137
(lp193
I1
aI7
asg139
Nsg140
g191
sg141
(lp194
sg143
g60
sg144
Nsg145
Nsg146
Nsbag3
(g4
g5
NtRp195
(dp196
g8
g10
sg124
Nsg125
(dp197
sg127
Nsg25
g27
sg128
(lp198
I1
aI8
asg130
Nsg131
VTosefta Orlah 1:8
p199
sg133
(lp200
sg135
g89
sg136
Nsg137
(lp201
I1
aI8
asg139
Nsg140
g199
sg141
(lp202
sg143
g60
sg144
Nsg145
Nsg146
NsbaI307
t.