((lp1
I0
aI92
aI254
aI410
aI540
aI622
aI709
aI767
aI881
aI1014
aI1170
aI1313
aI1358
aI1394
aI1421
aI1447
aI1508
aI1658
aI1680
aI1749
aI1796
aI1898
aI1942
aI2128
aI2167
aI2249
aI2303
aI2379
aI2511
aI2556
aI2612
aI2676
aI2682
aI2707
aI2774
aI2845
aI2967
aI2989
aI3079
aI3180
aI3341
aI3422
aI3483
aI3619
aI3728
aI3807
aI4019
aI4179
aI4338
aI4396
aI4531
aI4658
aI4750
aI4886
aI5015
aI5149
aI5294
aI5380
aI5490
a(lp2
ccopy_reg
_reconstructor
p3
(csefaria.model.text
Ref
p4
c__builtin__
object
p5
NtRp6
(dp7
S'index_node'
p8
g3
(csefaria.model.schema
JaggedArrayNode
p9
g5
NtRp10
(dp11
S'_address'
p12
(lp13
VTosefta Keilim Metsia
p14
asS'_full_titles'
p15
(dp16
sVnodeType
p17
VJaggedArrayNode
p18
sS'parent'
p19
NsVaddressTypes
p20
(lp21
VInteger
p22
aVInteger
p23
asS'default'
p24
I00
sS'index'
p25
g3
(csefaria.model.text
Index
p26
g5
NtRp27
(dp28
S'_id'
p29
g3
(cbson.objectid
ObjectId
p30
g5
NtRp31
S'S3\x167\xfb\xfb\xa2db\x83\xd9\xe6'
p32
bsS'pkeys_orig_values'
p33
(dp34
S'title'
p35
VTosefta Keilim Metsia
p36
ssS'pubDate'
p37
V1521
p38
sS'compDate'
p39
V210
p40
sS'pubPlace'
p41
VVenice
p42
sS'compPlace'
p43
VTalmudic Israel
p44
sS'enDesc'
p45
VThe Tosefta (Supplement, addition") is a compilation of the Jewish oral law. Opinions differ widely as to when the Tosefta was redacted and how it relates to the Mishnah. However it closely corresponds to the Mishnah in structure and style, with the same divisions for sedarim ("orders") and masekhot ("tractates"). In many ways, the Tosefta acts as a supplement to the Mishnah. It is mainly written in Mishnaic Hebrew, with some Aramaic. Kelim Meziah (Vessels) belongs to the sixth order, Tahorot (Purities) and discusses a large array of various utensils and how they fare in terms of purity. It has eleven chapters. It is the largest order of the Mishnah.
p46
sS'order'
p47
(lp48
I2
asS'era'
p49
VT
sS'struct_objs'
p50
(dp51
sS'nodes'
p52
g10
sS'errorMargin'
p53
V20
p54
sS'_title'
p55
g36
sS'categories'
p56
(lp57
VTosefta
p58
aVSeder Toharot
p59
asS'schema'
p60
(dp61
g17
g18
sg20
g21
sVlengths
p62
(lp63
I11
asVdepth
p64
I2
sVtitles
p65
(lp66
(dp67
Vlang
p68
Ven
p69
sVtext
p70
VTos. Keilim Metzia
p71
sa(dp72
Vlang
p73
Ven
p74
sVtext
p75
VTos. Keilim Metsia
p76
sa(dp77
Vlang
p78
Ven
p79
sVtext
p80
VT. Keilim Metsia
p81
sa(dp82
Vlang
p83
Ven
p84
sVtext
p85
VT. Keilim Metzia
p86
sa(dp87
Vlang
p88
Vhe
p89
sVtext
p90
V\u05ea\u05d5\u05e1\u05e4\u05ea\u05d0 \u05db\u05dc\u05d9\u05dd \u05de\u05e6\u05d9\u05e2\u05d0
p91
sVprimary
p92
I01
sa(dp93
Vlang
p94
Ven
p95
sVtext
p96
VTosefta Keilim Metsia
p97
sVprimary
p98
I01
sasVkey
p99
g14
sVsectionNames
p100
(lp101
VChapter
p102
aVTosefta
p103
assbsS'_primary_title'
p104
(dp105
sS'title_group'
p106
g3
(csefaria.model.schema
TitleGroup
p107
g5
NtRp108
(dp109
g104
(dp110
S'en'
p111
g97
ssS'titles'
p112
g66
sbsS'_addressTypes'
p113
(lp114
g3
(csefaria.model.schema
AddressInteger
p115
g5
NtRp116
(dp117
S'length'
p118
I11
sg47
I0
sbag3
(g115
g5
NtRp119
(dp120
g118
Nsg47
I1
sbasS'sharedTitle'
p121
Nsg62
g63
sg64
I2
sS'_full_title'
p122
(dp123
g111
g97
ssS'key'
p124
g14
sS'checkFirst'
p125
NsS'_regexes'
p126
(dp127
sS'_leaf_nodes'
p128
(lp129
sg100
g101
sS'children'
p130
(lp131
sbsS'_range_index'
p132
NsS'_context'
p133
(dp134
sS'_padded'
p135
Nsg25
g27
sS'sections'
p136
(lp137
I1
aI1
asS'_first_spanned_ref'
p138
NsS'tref'
p139
VTosefta Keilim Metsia 1:1
p140
sS'_spanned_refs'
p141
(lp142
sS'book'
p143
g97
sS'_range_depth'
p144
NsS'toSections'
p145
(lp146
I1
aI1
asS'_url'
p147
NsS'_normal'
p148
g140
sS'_ranged_refs'
p149
(lp150
sS'type'
p151
g58
sS'_prev'
p152
NsS'_he_normal'
p153
NsS'_next'
p154
Nsbag3
(g4
g5
NtRp155
(dp156
g8
g10
sg132
Nsg133
(dp157
sg135
Nsg25
g27
sg136
(lp158
I1
aI2
asg138
Nsg139
VTosefta Keilim Metsia 1:2
p159
sg141
(lp160
sg143
g97
sg144
Nsg145
(lp161
I1
aI2
asg147
Nsg148
g159
sg149
(lp162
sg151
g58
sg152
Nsg153
Nsg154
Nsbag3
(g4
g5
NtRp163
(dp164
g8
g10
sg132
Nsg133
(dp165
sg135
Nsg25
g27
sg136
(lp166
I1
aI3
asg138
Nsg139
VTosefta Keilim Metsia 1:3
p167
sg141
(lp168
sg143
g97
sg144
Nsg145
(lp169
I1
aI3
asg147
Nsg148
g167
sg149
(lp170
sg151
g58
sg152
Nsg153
Nsg154
Nsbag3
(g4
g5
NtRp171
(dp172
g8
g10
sg132
Nsg133
(dp173
sg135
Nsg25
g27
sg136
(lp174
I1
aI4
asg138
Nsg139
VTosefta Keilim Metsia 1:4
p175
sg141
(lp176
sg143
g97
sg144
Nsg145
(lp177
I1
aI4
asg147
Nsg148
g175
sg149
(lp178
sg151
g58
sg152
Nsg153
Nsg154
Nsbag3
(g4
g5
NtRp179
(dp180
g8
g10
sg132
Nsg133
(dp181
sg135
Nsg25
g27
sg136
(lp182
I1
aI5
asg138
Nsg139
VTosefta Keilim Metsia 1:5
p183
sg141
(lp184
sg143
g97
sg144
Nsg145
(lp185
I1
aI5
asg147
Nsg148
g183
sg149
(lp186
sg151
g58
sg152
Nsg153
Nsg154
Nsbag3
(g4
g5
NtRp187
(dp188
g8
g10
sg132
Nsg133
(dp189
sg135
Nsg25
g27
sg136
(lp190
I2
aI1
asg138
Nsg139
VTosefta Keilim Metsia 2:1
p191
sg141
(lp192
sg143
g97
sg144
Nsg145
(lp193
I2
aI1
asg147
Nsg148
g191
sg149
(lp194
sg151
g58
sg152
Nsg153
Nsg154
Nsbag3
(g4
g5
NtRp195
(dp196
g8
g10
sg132
Nsg133
(dp197
sg135
Nsg25
g27
sg136
(lp198
I2
aI2
asg138
Nsg139
VTosefta Keilim Metsia 2:2
p199
sg141
(lp200
sg143
g97
sg144
Nsg145
(lp201
I2
aI2
asg147
Nsg148
g199
sg149
(lp202
sg151
g58
sg152
Nsg153
Nsg154
Nsbag3
(g4
g5
NtRp203
(dp204
g8
g10
sg132
Nsg133
(dp205
sg135
Nsg25
g27
sg136
(lp206
I2
aI3
asg138
Nsg139
VTosefta Keilim Metsia 2:3
p207
sg141
(lp208
sg143
g97
sg144
Nsg145
(lp209
I2
aI3
asg147
Nsg148
g207
sg149
(lp210
sg151
g58
sg152
Nsg153
Nsg154
Nsbag3
(g4
g5
NtRp211
(dp212
g8
g10
sg132
Nsg133
(dp213
sg135
Nsg25
g27
sg136
(lp214
I2
aI4
asg138
Nsg139
VTosefta Keilim Metsia 2:4
p215
sg141
(lp216
sg143
g97
sg144
Nsg145
(lp217
I2
aI4
asg147
Nsg148
g215
sg149
(lp218
sg151
g58
sg152
Nsg153
Nsg154
Nsbag3
(g4
g5
NtRp219
(dp220
g8
g10
sg132
Nsg133
(dp221
sg135
Nsg25
g27
sg136
(lp222
I2
aI5
asg138
Nsg139
VTosefta Keilim Metsia 2:5
p223
sg141
(lp224
sg143
g97
sg144
Nsg145
(lp225
I2
aI5
asg147
Nsg148
g223
sg149
(lp226
sg151
g58
sg152
Nsg153
Nsg154
Nsbag3
(g4
g5
NtRp227
(dp228
g8
g10
sg132
Nsg133
(dp229
sg135
Nsg25
g27
sg136
(lp230
I2
aI6
asg138
Nsg139
VTosefta Keilim Metsia 2:6
p231
sg141
(lp232
sg143
g97
sg144
Nsg145
(lp233
I2
aI6
asg147
Nsg148
g231
sg149
(lp234
sg151
g58
sg152
Nsg153
Nsg154
Nsbag3
(g4
g5
NtRp235
(dp236
g8
g10
sg132
Nsg133
(dp237
sg135
Nsg25
g27
sg136
(lp238
I3
aI1
asg138
Nsg139
VTosefta Keilim Metsia 3:1
p239
sg141
(lp240
sg143
g97
sg144
Nsg145
(lp241
I3
aI1
asg147
Nsg148
g239
sg149
(lp242
sg151
g58
sg152
Nsg153
Nsg154
Nsbag3
(g4
g5
NtRp243
(dp244
g8
g10
sg132
Nsg133
(dp245
sg135
Nsg25
g27
sg136
(lp246
I3
aI2
asg138
Nsg139
VTosefta Keilim Metsia 3:2
p247
sg141
(lp248
sg143
g97
sg144
Nsg145
(lp249
I3
aI2
asg147
Nsg148
g247
sg149
(lp250
sg151
g58
sg152
Nsg153
Nsg154
Nsbag3
(g4
g5
NtRp251
(dp252
g8
g10
sg132
Nsg133
(dp253
sg135
Nsg25
g27
sg136
(lp254
I3
aI3
asg138
Nsg139
VTosefta Keilim Metsia 3:3
p255
sg141
(lp256
sg143
g97
sg144
Nsg145
(lp257
I3
aI3
asg147
Nsg148
g255
sg149
(lp258
sg151
g58
sg152
Nsg153
Nsg154
Nsbag3
(g4
g5
NtRp259
(dp260
g8
g10
sg132
Nsg133
(dp261
sg135
Nsg25
g27
sg136
(lp262
I3
aI4
asg138
Nsg139
VTosefta Keilim Metsia 3:4
p263
sg141
(lp264
sg143
g97
sg144
Nsg145
(lp265
I3
aI4
asg147
Nsg148
g263
sg149
(lp266
sg151
g58
sg152
Nsg153
Nsg154
Nsbag3
(g4
g5
NtRp267
(dp268
g8
g10
sg132
Nsg133
(dp269
sg135
Nsg25
g27
sg136
(lp270
I3
aI5
asg138
Nsg139
VTosefta Keilim Metsia 3:5
p271
sg141
(lp272
sg143
g97
sg144
Nsg145
(lp273
I3
aI5
asg147
Nsg148
g271
sg149
(lp274
sg151
g58
sg152
Nsg153
Nsg154
Nsbag3
(g4
g5
NtRp275
(dp276
g8
g10
sg132
Nsg133
(dp277
sg135
Nsg25
g27
sg136
(lp278
I3
aI6
asg138
Nsg139
VTosefta Keilim Metsia 3:6
p279
sg141
(lp280
sg143
g97
sg144
Nsg145
(lp281
I3
aI6
asg147
Nsg148
g279
sg149
(lp282
sg151
g58
sg152
Nsg153
Nsg154
Nsbag3
(g4
g5
NtRp283
(dp284
g8
g10
sg132
Nsg133
(dp285
sg135
Nsg25
g27
sg136
(lp286
I3
aI7
asg138
Nsg139
VTosefta Keilim Metsia 3:7
p287
sg141
(lp288
sg143
g97
sg144
Nsg145
(lp289
I3
aI7
asg147
Nsg148
g287
sg149
(lp290
sg151
g58
sg152
Nsg153
Nsg154
Nsbag3
(g4
g5
NtRp291
(dp292
g8
g10
sg132
Nsg133
(dp293
sg135
Nsg25
g27
sg136
(lp294
I3
aI8
asg138
Nsg139
VTosefta Keilim Metsia 3:8
p295
sg141
(lp296
sg143
g97
sg144
Nsg145
(lp297
I3
aI8
asg147
Nsg148
g295
sg149
(lp298
sg151
g58
sg152
Nsg153
Nsg154
Nsbag3
(g4
g5
NtRp299
(dp300
g8
g10
sg132
Nsg133
(dp301
sg135
Nsg25
g27
sg136
(lp302
I3
aI9
asg138
Nsg139
VTosefta Keilim Metsia 3:9
p303
sg141
(lp304
sg143
g97
sg144
Nsg145
(lp305
I3
aI9
asg147
Nsg148
g303
sg149
(lp306
sg151
g58
sg152
Nsg153
Nsg154
Nsbag3
(g4
g5
NtRp307
(dp308
g8
g10
sg132
Nsg133
(dp309
sg135
Nsg25
g27
sg136
(lp310
I4
aI1
asg138
Nsg139
VTosefta Keilim Metsia 4:1
p311
sg141
(lp312
sg143
g97
sg144
Nsg145
(lp313
I4
aI1
asg147
Nsg148
g311
sg149
(lp314
sg151
g58
sg152
Nsg153
Nsg154
Nsbag3
(g4
g5
NtRp315
(dp316
g8
g10
sg132
Nsg133
(dp317
sg135
Nsg25
g27
sg136
(lp318
I4
aI2
asg138
Nsg139
VTosefta Keilim Metsia 4:2
p319
sg141
(lp320
sg143
g97
sg144
Nsg145
(lp321
I4
aI2
asg147
Nsg148
g319
sg149
(lp322
sg151
g58
sg152
Nsg153
Nsg154
Nsbag3
(g4
g5
NtRp323
(dp324
g8
g10
sg132
Nsg133
(dp325
sg135
Nsg25
g27
sg136
(lp326
I4
aI3
asg138
Nsg139
VTosefta Keilim Metsia 4:3
p327
sg141
(lp328
sg143
g97
sg144
Nsg145
(lp329
I4
aI3
asg147
Nsg148
g327
sg149
(lp330
sg151
g58
sg152
Nsg153
Nsg154
Nsbag3
(g4
g5
NtRp331
(dp332
g8
g10
sg132
Nsg133
(dp333
sg135
Nsg25
g27
sg136
(lp334
I4
aI4
asg138
Nsg139
VTosefta Keilim Metsia 4:4
p335
sg141
(lp336
sg143
g97
sg144
Nsg145
(lp337
I4
aI4
asg147
Nsg148
g335
sg149
(lp338
sg151
g58
sg152
Nsg153
Nsg154
Nsbag3
(g4
g5
NtRp339
(dp340
g8
g10
sg132
Nsg133
(dp341
sg135
Nsg25
g27
sg136
(lp342
I4
aI5
asg138
Nsg139
VTosefta Keilim Metsia 4:5
p343
sg141
(lp344
sg143
g97
sg144
Nsg145
(lp345
I4
aI5
asg147
Nsg148
g343
sg149
(lp346
sg151
g58
sg152
Nsg153
Nsg154
Nsbag3
(g4
g5
NtRp347
(dp348
g8
g10
sg132
Nsg133
(dp349
sg135
Nsg25
g27
sg136
(lp350
I4
aI6
asg138
Nsg139
VTosefta Keilim Metsia 4:6
p351
sg141
(lp352
sg143
g97
sg144
Nsg145
(lp353
I4
aI6
asg147
Nsg148
g351
sg149
(lp354
sg151
g58
sg152
Nsg153
Nsg154
Nsbag3
(g4
g5
NtRp355
(dp356
g8
g10
sg132
Nsg133
(dp357
sg135
Nsg25
g27
sg136
(lp358
I4
aI7
asg138
Nsg139
VTosefta Keilim Metsia 4:7
p359
sg141
(lp360
sg143
g97
sg144
Nsg145
(lp361
I4
aI7
asg147
Nsg148
g359
sg149
(lp362
sg151
g58
sg152
Nsg153
Nsg154
Nsbag3
(g4
g5
NtRp363
(dp364
g8
g10
sg132
Nsg133
(dp365
sg135
Nsg25
g27
sg136
(lp366
I5
aI1
asg138
Nsg139
VTosefta Keilim Metsia 5:1
p367
sg141
(lp368
sg143
g97
sg144
Nsg145
(lp369
I5
aI1
asg147
Nsg148
g367
sg149
(lp370
sg151
g58
sg152
Nsg153
Nsg154
Nsbag3
(g4
g5
NtRp371
(dp372
g8
g10
sg132
Nsg133
(dp373
sg135
Nsg25
g27
sg136
(lp374
I5
aI2
asg138
Nsg139
VTosefta Keilim Metsia 5:2
p375
sg141
(lp376
sg143
g97
sg144
Nsg145
(lp377
I5
aI2
asg147
Nsg148
g375
sg149
(lp378
sg151
g58
sg152
Nsg153
Nsg154
Nsbag3
(g4
g5
NtRp379
(dp380
g8
g10
sg132
Nsg133
(dp381
sg135
Nsg25
g27
sg136
(lp382
I5
aI3
asg138
Nsg139
VTosefta Keilim Metsia 5:3
p383
sg141
(lp384
sg143
g97
sg144
Nsg145
(lp385
I5
aI3
asg147
Nsg148
g383
sg149
(lp386
sg151
g58
sg152
Nsg153
Nsg154
Nsbag3
(g4
g5
NtRp387
(dp388
g8
g10
sg132
Nsg133
(dp389
sg135
Nsg25
g27
sg136
(lp390
I5
aI4
asg138
Nsg139
VTosefta Keilim Metsia 5:4
p391
sg141
(lp392
sg143
g97
sg144
Nsg145
(lp393
I5
aI4
asg147
Nsg148
g391
sg149
(lp394
sg151
g58
sg152
Nsg153
Nsg154
Nsbag3
(g4
g5
NtRp395
(dp396
g8
g10
sg132
Nsg133
(dp397
sg135
Nsg25
g27
sg136
(lp398
I5
aI5
asg138
Nsg139
VTosefta Keilim Metsia 5:5
p399
sg141
(lp400
sg143
g97
sg144
Nsg145
(lp401
I5
aI5
asg147
Nsg148
g399
sg149
(lp402
sg151
g58
sg152
Nsg153
Nsg154
Nsbag3
(g4
g5
NtRp403
(dp404
g8
g10
sg132
Nsg133
(dp405
sg135
Nsg25
g27
sg136
(lp406
I5
aI6
asg138
Nsg139
VTosefta Keilim Metsia 5:6
p407
sg141
(lp408
sg143
g97
sg144
Nsg145
(lp409
I5
aI6
asg147
Nsg148
g407
sg149
(lp410
sg151
g58
sg152
Nsg153
Nsg154
Nsbag3
(g4
g5
NtRp411
(dp412
g8
g10
sg132
Nsg133
(dp413
sg135
Nsg25
g27
sg136
(lp414
I5
aI7
asg138
Nsg139
VTosefta Keilim Metsia 5:7
p415
sg141
(lp416
sg143
g97
sg144
Nsg145
(lp417
I5
aI7
asg147
Nsg148
g415
sg149
(lp418
sg151
g58
sg152
Nsg153
Nsg154
Nsbag3
(g4
g5
NtRp419
(dp420
g8
g10
sg132
Nsg133
(dp421
sg135
Nsg25
g27
sg136
(lp422
I5
aI8
asg138
Nsg139
VTosefta Keilim Metsia 5:8
p423
sg141
(lp424
sg143
g97
sg144
Nsg145
(lp425
I5
aI8
asg147
Nsg148
g423
sg149
(lp426
sg151
g58
sg152
Nsg153
Nsg154
Nsbag3
(g4
g5
NtRp427
(dp428
g8
g10
sg132
Nsg133
(dp429
sg135
Nsg25
g27
sg136
(lp430
I5
aI9
asg138
Nsg139
VTosefta Keilim Metsia 5:9
p431
sg141
(lp432
sg143
g97
sg144
Nsg145
(lp433
I5
aI9
asg147
Nsg148
g431
sg149
(lp434
sg151
g58
sg152
Nsg153
Nsg154
Nsbag3
(g4
g5
NtRp435
(dp436
g8
g10
sg132
Nsg133
(dp437
sg135
Nsg25
g27
sg136
(lp438
I5
aI10
asg138
Nsg139
VTosefta Keilim Metsia 5:10
p439
sg141
(lp440
sg143
g97
sg144
Nsg145
(lp441
I5
aI10
asg147
Nsg148
g439
sg149
(lp442
sg151
g58
sg152
Nsg153
Nsg154
Nsbag3
(g4
g5
NtRp443
(dp444
g8
g10
sg132
Nsg133
(dp445
sg135
Nsg25
g27
sg136
(lp446
I6
aI1
asg138
Nsg139
VTosefta Keilim Metsia 6:1
p447
sg141
(lp448
sg143
g97
sg144
Nsg145
(lp449
I6
aI1
asg147
Nsg148
g447
sg149
(lp450
sg151
g58
sg152
Nsg153
Nsg154
Nsbag3
(g4
g5
NtRp451
(dp452
g8
g10
sg132
Nsg133
(dp453
sg135
Nsg25
g27
sg136
(lp454
I6
aI2
asg138
Nsg139
VTosefta Keilim Metsia 6:2
p455
sg141
(lp456
sg143
g97
sg144
Nsg145
(lp457
I6
aI2
asg147
Nsg148
g455
sg149
(lp458
sg151
g58
sg152
Nsg153
Nsg154
Nsbag3
(g4
g5
NtRp459
(dp460
g8
g10
sg132
Nsg133
(dp461
sg135
Nsg25
g27
sg136
(lp462
I6
aI3
asg138
Nsg139
VTosefta Keilim Metsia 6:3
p463
sg141
(lp464
sg143
g97
sg144
Nsg145
(lp465
I6
aI3
asg147
Nsg148
g463
sg149
(lp466
sg151
g58
sg152
Nsg153
Nsg154
Nsbag3
(g4
g5
NtRp467
(dp468
g8
g10
sg132
Nsg133
(dp469
sg135
Nsg25
g27
sg136
(lp470
I6
aI4
asg138
Nsg139
VTosefta Keilim Metsia 6:4
p471
sg141
(lp472
sg143
g97
sg144
Nsg145
(lp473
I6
aI4
asg147
Nsg148
g471
sg149
(lp474
sg151
g58
sg152
Nsg153
Nsg154
Nsbag3
(g4
g5
NtRp475
(dp476
g8
g10
sg132
Nsg133
(dp477
sg135
Nsg25
g27
sg136
(lp478
I6
aI5
asg138
Nsg139
VTosefta Keilim Metsia 6:5
p479
sg141
(lp480
sg143
g97
sg144
Nsg145
(lp481
I6
aI5
asg147
Nsg148
g479
sg149
(lp482
sg151
g58
sg152
Nsg153
Nsg154
Nsbag3
(g4
g5
NtRp483
(dp484
g8
g10
sg132
Nsg133
(dp485
sg135
Nsg25
g27
sg136
(lp486
I7
aI1
asg138
Nsg139
VTosefta Keilim Metsia 7:1
p487
sg141
(lp488
sg143
g97
sg144
Nsg145
(lp489
I7
aI1
asg147
Nsg148
g487
sg149
(lp490
sg151
g58
sg152
Nsg153
Nsg154
Nsbag3
(g4
g5
NtRp491
(dp492
g8
g10
sg132
Nsg133
(dp493
sg135
Nsg25
g27
sg136
(lp494
I7
aI2
asg138
Nsg139
VTosefta Keilim Metsia 7:2
p495
sg141
(lp496
sg143
g97
sg144
Nsg145
(lp497
I7
aI2
asg147
Nsg148
g495
sg149
(lp498
sg151
g58
sg152
Nsg153
Nsg154
Nsbag3
(g4
g5
NtRp499
(dp500
g8
g10
sg132
Nsg133
(dp501
sg135
Nsg25
g27
sg136
(lp502
I7
aI3
asg138
Nsg139
VTosefta Keilim Metsia 7:3
p503
sg141
(lp504
sg143
g97
sg144
Nsg145
(lp505
I7
aI3
asg147
Nsg148
g503
sg149
(lp506
sg151
g58
sg152
Nsg153
Nsg154
Nsbag3
(g4
g5
NtRp507
(dp508
g8
g10
sg132
Nsg133
(dp509
sg135
Nsg25
g27
sg136
(lp510
I7
aI4
asg138
Nsg139
VTosefta Keilim Metsia 7:4
p511
sg141
(lp512
sg143
g97
sg144
Nsg145
(lp513
I7
aI4
asg147
Nsg148
g511
sg149
(lp514
sg151
g58
sg152
Nsg153
Nsg154
Nsbag3
(g4
g5
NtRp515
(dp516
g8
g10
sg132
Nsg133
(dp517
sg135
Nsg25
g27
sg136
(lp518
I8
aI1
asg138
Nsg139
VTosefta Keilim Metsia 8:1
p519
sg141
(lp520
sg143
g97
sg144
Nsg145
(lp521
I8
aI1
asg147
Nsg148
g519
sg149
(lp522
sg151
g58
sg152
Nsg153
Nsg154
Nsbag3
(g4
g5
NtRp523
(dp524
g8
g10
sg132
Nsg133
(dp525
sg135
Nsg25
g27
sg136
(lp526
I8
aI2
asg138
Nsg139
VTosefta Keilim Metsia 8:2
p527
sg141
(lp528
sg143
g97
sg144
Nsg145
(lp529
I8
aI2
asg147
Nsg148
g527
sg149
(lp530
sg151
g58
sg152
Nsg153
Nsg154
Nsbag3
(g4
g5
NtRp531
(dp532
g8
g10
sg132
Nsg133
(dp533
sg135
Nsg25
g27
sg136
(lp534
I8
aI3
asg138
Nsg139
VTosefta Keilim Metsia 8:3
p535
sg141
(lp536
sg143
g97
sg144
Nsg145
(lp537
I8
aI3
asg147
Nsg148
g535
sg149
(lp538
sg151
g58
sg152
Nsg153
Nsg154
Nsbag3
(g4
g5
NtRp539
(dp540
g8
g10
sg132
Nsg133
(dp541
sg135
Nsg25
g27
sg136
(lp542
I9
aI1
asg138
Nsg139
VTosefta Keilim Metsia 9:1
p543
sg141
(lp544
sg143
g97
sg144
Nsg145
(lp545
I9
aI1
asg147
Nsg148
g543
sg149
(lp546
sg151
g58
sg152
Nsg153
Nsg154
Nsbag3
(g4
g5
NtRp547
(dp548
g8
g10
sg132
Nsg133
(dp549
sg135
Nsg25
g27
sg136
(lp550
I9
aI2
asg138
Nsg139
VTosefta Keilim Metsia 9:2
p551
sg141
(lp552
sg143
g97
sg144
Nsg145
(lp553
I9
aI2
asg147
Nsg148
g551
sg149
(lp554
sg151
g58
sg152
Nsg153
Nsg154
Nsbag3
(g4
g5
NtRp555
(dp556
g8
g10
sg132
Nsg133
(dp557
sg135
Nsg25
g27
sg136
(lp558
I9
aI3
asg138
Nsg139
VTosefta Keilim Metsia 9:3
p559
sg141
(lp560
sg143
g97
sg144
Nsg145
(lp561
I9
aI3
asg147
Nsg148
g559
sg149
(lp562
sg151
g58
sg152
Nsg153
Nsg154
Nsbag3
(g4
g5
NtRp563
(dp564
g8
g10
sg132
Nsg133
(dp565
sg135
Nsg25
g27
sg136
(lp566
I10
aI1
asg138
Nsg139
VTosefta Keilim Metsia 10:1
p567
sg141
(lp568
sg143
g97
sg144
Nsg145
(lp569
I10
aI1
asg147
Nsg148
g567
sg149
(lp570
sg151
g58
sg152
Nsg153
Nsg154
Nsbag3
(g4
g5
NtRp571
(dp572
g8
g10
sg132
Nsg133
(dp573
sg135
Nsg25
g27
sg136
(lp574
I10
aI2
asg138
Nsg139
VTosefta Keilim Metsia 10:2
p575
sg141
(lp576
sg143
g97
sg144
Nsg145
(lp577
I10
aI2
asg147
Nsg148
g575
sg149
(lp578
sg151
g58
sg152
Nsg153
Nsg154
Nsbag3
(g4
g5
NtRp579
(dp580
g8
g10
sg132
Nsg133
(dp581
sg135
Nsg25
g27
sg136
(lp582
I11
aI1
asg138
Nsg139
VTosefta Keilim Metsia 11:1
p583
sg141
(lp584
sg143
g97
sg144
Nsg145
(lp585
I11
aI1
asg147
Nsg148
g583
sg149
(lp586
sg151
g58
sg152
Nsg153
Nsg154
Nsbag3
(g4
g5
NtRp587
(dp588
g8
g10
sg132
Nsg133
(dp589
sg135
Nsg25
g27
sg136
(lp590
I11
aI2
asg138
Nsg139
VTosefta Keilim Metsia 11:2
p591
sg141
(lp592
sg143
g97
sg144
Nsg145
(lp593
I11
aI2
asg147
Nsg148
g591
sg149
(lp594
sg151
g58
sg152
Nsg153
Nsg154
Nsbag3
(g4
g5
NtRp595
(dp596
g8
g10
sg132
Nsg133
(dp597
sg135
Nsg25
g27
sg136
(lp598
I11
aI3
asg138
Nsg139
VTosefta Keilim Metsia 11:3
p599
sg141
(lp600
sg143
g97
sg144
Nsg145
(lp601
I11
aI3
asg147
Nsg148
g599
sg149
(lp602
sg151
g58
sg152
Nsg153
Nsg154
Nsbag3
(g4
g5
NtRp603
(dp604
g8
g10
sg132
Nsg133
(dp605
sg135
Nsg25
g27
sg136
(lp606
I11
aI4
asg138
Nsg139
VTosefta Keilim Metsia 11:4
p607
sg141
(lp608
sg143
g97
sg144
Nsg145
(lp609
I11
aI4
asg147
Nsg148
g607
sg149
(lp610
sg151
g58
sg152
Nsg153
Nsg154
Nsbag3
(g4
g5
NtRp611
(dp612
g8
g10
sg132
Nsg133
(dp613
sg135
Nsg25
g27
sg136
(lp614
I11
aI5
asg138
Nsg139
VTosefta Keilim Metsia 11:5
p615
sg141
(lp616
sg143
g97
sg144
Nsg145
(lp617
I11
aI5
asg147
Nsg148
g615
sg149
(lp618
sg151
g58
sg152
Nsg153
Nsg154
NsbaI5608
t.