((lp1
I0
aI31
aI82
aI177
aI198
aI241
aI354
aI453
aI524
aI601
aI674
aI739
aI983
aI1070
aI1167
aI1290
aI1347
aI1370
aI1524
aI1622
aI1709
aI1763
aI1820
aI1876
aI1966
aI2059
aI2117
aI2131
aI2246
aI2379
aI2431
aI2621
aI2658
aI2686
aI2753
aI2803
aI2841
aI2929
aI2962
aI3041
aI3219
aI3254
aI3304
aI3383
aI3437
aI3470
aI3564
aI3706
aI3755
aI3839
aI3879
aI3958
aI3988
aI4057
aI4126
aI4221
aI4246
aI4298
a(lp2
ccopy_reg
_reconstructor
p3
(csefaria.model.text
Ref
p4
c__builtin__
object
p5
NtRp6
(dp7
S'index_node'
p8
g3
(csefaria.model.schema
JaggedArrayNode
p9
g5
NtRp10
(dp11
S'_address'
p12
(lp13
VTosefta Keilim Kamma
p14
asS'_full_titles'
p15
(dp16
sVnodeType
p17
VJaggedArrayNode
p18
sS'parent'
p19
NsVaddressTypes
p20
(lp21
VInteger
p22
aVInteger
p23
asS'default'
p24
I00
sS'index'
p25
g3
(csefaria.model.text
Index
p26
g5
NtRp27
(dp28
S'struct_objs'
p29
(dp30
sS'_id'
p31
g3
(cbson.objectid
ObjectId
p32
g5
NtRp33
S'S3\x14\x89\xfb\xfb\xa2db\x83\xd9Z'
p34
bsS'pkeys_orig_values'
p35
(dp36
S'title'
p37
VTosefta Keilim Kamma
p38
ssS'pubDate'
p39
V1521
p40
sS'transliteratedTitle'
p41
VTosefta Keilim
p42
sS'pubPlace'
p43
VVenice
p44
sS'compPlace'
p45
VTalmudic Israel
p46
sS'enDesc'
p47
VThe Tosefta (Supplement, addition") is a compilation of the Jewish oral law. Opinions differ widely as to when the Tosefta was redacted and how it relates to the Mishnah. However it closely corresponds to the Mishnah in structure and style, with the same divisions for sedarim ("orders") and masekhot ("tractates"). In many ways, the Tosefta acts as a supplement to the Mishnah. It is mainly written in Mishnaic Hebrew, with some Aramaic. Kelim Kamma (Vessels) belongs to the sixth order, Tahorot (Purities) and discusses a large array of various utensils and how they fare in terms of purity. It has seven chapters. It is the largest order of the Mishnah.
p48
sS'order'
p49
(lp50
I1
asS'era'
p51
VT
sS'compDate'
p52
V210
p53
sS'nodes'
p54
g10
sS'errorMargin'
p55
V20
p56
sS'_title'
p57
g38
sS'categories'
p58
(lp59
VTosefta
p60
aVSeder Toharot
p61
asS'schema'
p62
(dp63
g17
g18
sg20
g21
sVlengths
p64
(lp65
I7
asVdepth
p66
I2
sVtitles
p67
(lp68
(dp69
Vlang
p70
Ven
p71
sVtext
p72
VTosefta Keilim
p73
sa(dp74
Vlang
p75
Ven
p76
sVtext
p77
VT. Keilim Kama
p78
sa(dp79
Vlang
p80
Ven
p81
sVtext
p82
VTos. Keilim Kamma
p83
sa(dp84
Vlang
p85
Ven
p86
sVtext
p87
VT. Keilim Kamma
p88
sa(dp89
Vlang
p90
Ven
p91
sVtext
p92
VTosefta Keilim Kama
p93
sa(dp94
Vlang
p95
Ven
p96
sVtext
p97
VTos. Keilim Kama
p98
sa(dp99
Vlang
p100
Vhe
p101
sVtext
p102
V\u05ea\u05d5\u05e1\u05e4\u05ea\u05d0 \u05db\u05dc\u05d9\u05dd
p103
sVprimary
p104
I01
sa(dp105
Vlang
p106
Ven
p107
sVtext
p108
VTosefta Keilim Kamma
p109
sVprimary
p110
I01
sasVkey
p111
g14
sVsectionNames
p112
(lp113
VChapter
p114
aVTosefta
p115
assbsS'_primary_title'
p116
(dp117
sS'title_group'
p118
g3
(csefaria.model.schema
TitleGroup
p119
g5
NtRp120
(dp121
g116
(dp122
S'en'
p123
g109
ssS'titles'
p124
g68
sbsS'_addressTypes'
p125
(lp126
g3
(csefaria.model.schema
AddressInteger
p127
g5
NtRp128
(dp129
S'length'
p130
I7
sg49
I0
sbag3
(g127
g5
NtRp131
(dp132
g130
Nsg49
I1
sbasS'sharedTitle'
p133
Nsg64
g65
sg66
I2
sS'_full_title'
p134
(dp135
g123
g109
ssS'key'
p136
g14
sS'checkFirst'
p137
NsS'_regexes'
p138
(dp139
sS'_leaf_nodes'
p140
(lp141
sg112
g113
sS'children'
p142
(lp143
sbsS'_range_index'
p144
NsS'_context'
p145
(dp146
sS'_padded'
p147
Nsg25
g27
sS'sections'
p148
(lp149
I1
aI1
asS'_first_spanned_ref'
p150
NsS'tref'
p151
VTosefta Keilim Kamma 1:1
p152
sS'_spanned_refs'
p153
(lp154
sS'book'
p155
g109
sS'_range_depth'
p156
NsS'toSections'
p157
(lp158
I1
aI1
asS'_url'
p159
NsS'_normal'
p160
g152
sS'_ranged_refs'
p161
(lp162
sS'type'
p163
g60
sS'_prev'
p164
NsS'_he_normal'
p165
NsS'_next'
p166
Nsbag3
(g4
g5
NtRp167
(dp168
g8
g10
sg144
Nsg145
(dp169
sg147
Nsg25
g27
sg148
(lp170
I1
aI2
asg150
Nsg151
VTosefta Keilim Kamma 1:2
p171
sg153
(lp172
sg155
g109
sg156
Nsg157
(lp173
I1
aI2
asg159
Nsg160
g171
sg161
(lp174
sg163
g60
sg164
Nsg165
Nsg166
Nsbag3
(g4
g5
NtRp175
(dp176
g8
g10
sg144
Nsg145
(dp177
sg147
Nsg25
g27
sg148
(lp178
I1
aI3
asg150
Nsg151
VTosefta Keilim Kamma 1:3
p179
sg153
(lp180
sg155
g109
sg156
Nsg157
(lp181
I1
aI3
asg159
Nsg160
g179
sg161
(lp182
sg163
g60
sg164
Nsg165
Nsg166
Nsbag3
(g4
g5
NtRp183
(dp184
g8
g10
sg144
Nsg145
(dp185
sg147
Nsg25
g27
sg148
(lp186
I1
aI4
asg150
Nsg151
VTosefta Keilim Kamma 1:4
p187
sg153
(lp188
sg155
g109
sg156
Nsg157
(lp189
I1
aI4
asg159
Nsg160
g187
sg161
(lp190
sg163
g60
sg164
Nsg165
Nsg166
Nsbag3
(g4
g5
NtRp191
(dp192
g8
g10
sg144
Nsg145
(dp193
sg147
Nsg25
g27
sg148
(lp194
I1
aI5
asg150
Nsg151
VTosefta Keilim Kamma 1:5
p195
sg153
(lp196
sg155
g109
sg156
Nsg157
(lp197
I1
aI5
asg159
Nsg160
g195
sg161
(lp198
sg163
g60
sg164
Nsg165
Nsg166
Nsbag3
(g4
g5
NtRp199
(dp200
g8
g10
sg144
Nsg145
(dp201
sg147
Nsg25
g27
sg148
(lp202
I1
aI6
asg150
Nsg151
VTosefta Keilim Kamma 1:6
p203
sg153
(lp204
sg155
g109
sg156
Nsg157
(lp205
I1
aI6
asg159
Nsg160
g203
sg161
(lp206
sg163
g60
sg164
Nsg165
Nsg166
Nsbag3
(g4
g5
NtRp207
(dp208
g8
g10
sg144
Nsg145
(dp209
sg147
Nsg25
g27
sg148
(lp210
I1
aI7
asg150
Nsg151
VTosefta Keilim Kamma 1:7
p211
sg153
(lp212
sg155
g109
sg156
Nsg157
(lp213
I1
aI7
asg159
Nsg160
g211
sg161
(lp214
sg163
g60
sg164
Nsg165
Nsg166
Nsbag3
(g4
g5
NtRp215
(dp216
g8
g10
sg144
Nsg145
(dp217
sg147
Nsg25
g27
sg148
(lp218
I1
aI8
asg150
Nsg151
VTosefta Keilim Kamma 1:8
p219
sg153
(lp220
sg155
g109
sg156
Nsg157
(lp221
I1
aI8
asg159
Nsg160
g219
sg161
(lp222
sg163
g60
sg164
Nsg165
Nsg166
Nsbag3
(g4
g5
NtRp223
(dp224
g8
g10
sg144
Nsg145
(dp225
sg147
Nsg25
g27
sg148
(lp226
I1
aI9
asg150
Nsg151
VTosefta Keilim Kamma 1:9
p227
sg153
(lp228
sg155
g109
sg156
Nsg157
(lp229
I1
aI9
asg159
Nsg160
g227
sg161
(lp230
sg163
g60
sg164
Nsg165
Nsg166
Nsbag3
(g4
g5
NtRp231
(dp232
g8
g10
sg144
Nsg145
(dp233
sg147
Nsg25
g27
sg148
(lp234
I1
aI10
asg150
Nsg151
VTosefta Keilim Kamma 1:10
p235
sg153
(lp236
sg155
g109
sg156
Nsg157
(lp237
I1
aI10
asg159
Nsg160
g235
sg161
(lp238
sg163
g60
sg164
Nsg165
Nsg166
Nsbag3
(g4
g5
NtRp239
(dp240
g8
g10
sg144
Nsg145
(dp241
sg147
Nsg25
g27
sg148
(lp242
I1
aI11
asg150
Nsg151
VTosefta Keilim Kamma 1:11
p243
sg153
(lp244
sg155
g109
sg156
Nsg157
(lp245
I1
aI11
asg159
Nsg160
g243
sg161
(lp246
sg163
g60
sg164
Nsg165
Nsg166
Nsbag3
(g4
g5
NtRp247
(dp248
g8
g10
sg144
Nsg145
(dp249
sg147
Nsg25
g27
sg148
(lp250
I2
aI1
asg150
Nsg151
VTosefta Keilim Kamma 2:1
p251
sg153
(lp252
sg155
g109
sg156
Nsg157
(lp253
I2
aI1
asg159
Nsg160
g251
sg161
(lp254
sg163
g60
sg164
Nsg165
Nsg166
Nsbag3
(g4
g5
NtRp255
(dp256
g8
g10
sg144
Nsg145
(dp257
sg147
Nsg25
g27
sg148
(lp258
I2
aI2
asg150
Nsg151
VTosefta Keilim Kamma 2:2
p259
sg153
(lp260
sg155
g109
sg156
Nsg157
(lp261
I2
aI2
asg159
Nsg160
g259
sg161
(lp262
sg163
g60
sg164
Nsg165
Nsg166
Nsbag3
(g4
g5
NtRp263
(dp264
g8
g10
sg144
Nsg145
(dp265
sg147
Nsg25
g27
sg148
(lp266
I2
aI3
asg150
Nsg151
VTosefta Keilim Kamma 2:3
p267
sg153
(lp268
sg155
g109
sg156
Nsg157
(lp269
I2
aI3
asg159
Nsg160
g267
sg161
(lp270
sg163
g60
sg164
Nsg165
Nsg166
Nsbag3
(g4
g5
NtRp271
(dp272
g8
g10
sg144
Nsg145
(dp273
sg147
Nsg25
g27
sg148
(lp274
I3
aI1
asg150
Nsg151
VTosefta Keilim Kamma 3:1
p275
sg153
(lp276
sg155
g109
sg156
Nsg157
(lp277
I3
aI1
asg159
Nsg160
g275
sg161
(lp278
sg163
g60
sg164
Nsg165
Nsg166
Nsbag3
(g4
g5
NtRp279
(dp280
g8
g10
sg144
Nsg145
(dp281
sg147
Nsg25
g27
sg148
(lp282
I3
aI2
asg150
Nsg151
VTosefta Keilim Kamma 3:2
p283
sg153
(lp284
sg155
g109
sg156
Nsg157
(lp285
I3
aI2
asg159
Nsg160
g283
sg161
(lp286
sg163
g60
sg164
Nsg165
Nsg166
Nsbag3
(g4
g5
NtRp287
(dp288
g8
g10
sg144
Nsg145
(dp289
sg147
Nsg25
g27
sg148
(lp290
I3
aI3
asg150
Nsg151
VTosefta Keilim Kamma 3:3
p291
sg153
(lp292
sg155
g109
sg156
Nsg157
(lp293
I3
aI3
asg159
Nsg160
g291
sg161
(lp294
sg163
g60
sg164
Nsg165
Nsg166
Nsbag3
(g4
g5
NtRp295
(dp296
g8
g10
sg144
Nsg145
(dp297
sg147
Nsg25
g27
sg148
(lp298
I3
aI4
asg150
Nsg151
VTosefta Keilim Kamma 3:4
p299
sg153
(lp300
sg155
g109
sg156
Nsg157
(lp301
I3
aI4
asg159
Nsg160
g299
sg161
(lp302
sg163
g60
sg164
Nsg165
Nsg166
Nsbag3
(g4
g5
NtRp303
(dp304
g8
g10
sg144
Nsg145
(dp305
sg147
Nsg25
g27
sg148
(lp306
I3
aI5
asg150
Nsg151
VTosefta Keilim Kamma 3:5
p307
sg153
(lp308
sg155
g109
sg156
Nsg157
(lp309
I3
aI5
asg159
Nsg160
g307
sg161
(lp310
sg163
g60
sg164
Nsg165
Nsg166
Nsbag3
(g4
g5
NtRp311
(dp312
g8
g10
sg144
Nsg145
(dp313
sg147
Nsg25
g27
sg148
(lp314
I3
aI6
asg150
Nsg151
VTosefta Keilim Kamma 3:6
p315
sg153
(lp316
sg155
g109
sg156
Nsg157
(lp317
I3
aI6
asg159
Nsg160
g315
sg161
(lp318
sg163
g60
sg164
Nsg165
Nsg166
Nsbag3
(g4
g5
NtRp319
(dp320
g8
g10
sg144
Nsg145
(dp321
sg147
Nsg25
g27
sg148
(lp322
I3
aI7
asg150
Nsg151
VTosefta Keilim Kamma 3:7
p323
sg153
(lp324
sg155
g109
sg156
Nsg157
(lp325
I3
aI7
asg159
Nsg160
g323
sg161
(lp326
sg163
g60
sg164
Nsg165
Nsg166
Nsbag3
(g4
g5
NtRp327
(dp328
g8
g10
sg144
Nsg145
(dp329
sg147
Nsg25
g27
sg148
(lp330
I4
aI1
asg150
Nsg151
VTosefta Keilim Kamma 4:1
p331
sg153
(lp332
sg155
g109
sg156
Nsg157
(lp333
I4
aI1
asg159
Nsg160
g331
sg161
(lp334
sg163
g60
sg164
Nsg165
Nsg166
Nsbag3
(g4
g5
NtRp335
(dp336
g8
g10
sg144
Nsg145
(dp337
sg147
Nsg25
g27
sg148
(lp338
I4
aI2
asg150
Nsg151
VTosefta Keilim Kamma 4:2
p339
sg153
(lp340
sg155
g109
sg156
Nsg157
(lp341
I4
aI2
asg159
Nsg160
g339
sg161
(lp342
sg163
g60
sg164
Nsg165
Nsg166
Nsbag3
(g4
g5
NtRp343
(dp344
g8
g10
sg144
Nsg145
(dp345
sg147
Nsg25
g27
sg148
(lp346
I4
aI3
asg150
Nsg151
VTosefta Keilim Kamma 4:3
p347
sg153
(lp348
sg155
g109
sg156
Nsg157
(lp349
I4
aI3
asg159
Nsg160
g347
sg161
(lp350
sg163
g60
sg164
Nsg165
Nsg166
Nsbag3
(g4
g5
NtRp351
(dp352
g8
g10
sg144
Nsg145
(dp353
sg147
Nsg25
g27
sg148
(lp354
I4
aI4
asg150
Nsg151
VTosefta Keilim Kamma 4:4
p355
sg153
(lp356
sg155
g109
sg156
Nsg157
(lp357
I4
aI4
asg159
Nsg160
g355
sg161
(lp358
sg163
g60
sg164
Nsg165
Nsg166
Nsbag3
(g4
g5
NtRp359
(dp360
g8
g10
sg144
Nsg145
(dp361
sg147
Nsg25
g27
sg148
(lp362
I4
aI5
asg150
Nsg151
VTosefta Keilim Kamma 4:5
p363
sg153
(lp364
sg155
g109
sg156
Nsg157
(lp365
I4
aI5
asg159
Nsg160
g363
sg161
(lp366
sg163
g60
sg164
Nsg165
Nsg166
Nsbag3
(g4
g5
NtRp367
(dp368
g8
g10
sg144
Nsg145
(dp369
sg147
Nsg25
g27
sg148
(lp370
I4
aI6
asg150
Nsg151
VTosefta Keilim Kamma 4:6
p371
sg153
(lp372
sg155
g109
sg156
Nsg157
(lp373
I4
aI6
asg159
Nsg160
g371
sg161
(lp374
sg163
g60
sg164
Nsg165
Nsg166
Nsbag3
(g4
g5
NtRp375
(dp376
g8
g10
sg144
Nsg145
(dp377
sg147
Nsg25
g27
sg148
(lp378
I4
aI7
asg150
Nsg151
VTosefta Keilim Kamma 4:7
p379
sg153
(lp380
sg155
g109
sg156
Nsg157
(lp381
I4
aI7
asg159
Nsg160
g379
sg161
(lp382
sg163
g60
sg164
Nsg165
Nsg166
Nsbag3
(g4
g5
NtRp383
(dp384
g8
g10
sg144
Nsg145
(dp385
sg147
Nsg25
g27
sg148
(lp386
I4
aI8
asg150
Nsg151
VTosefta Keilim Kamma 4:8
p387
sg153
(lp388
sg155
g109
sg156
Nsg157
(lp389
I4
aI8
asg159
Nsg160
g387
sg161
(lp390
sg163
g60
sg164
Nsg165
Nsg166
Nsbag3
(g4
g5
NtRp391
(dp392
g8
g10
sg144
Nsg145
(dp393
sg147
Nsg25
g27
sg148
(lp394
I4
aI9
asg150
Nsg151
VTosefta Keilim Kamma 4:9
p395
sg153
(lp396
sg155
g109
sg156
Nsg157
(lp397
I4
aI9
asg159
Nsg160
g395
sg161
(lp398
sg163
g60
sg164
Nsg165
Nsg166
Nsbag3
(g4
g5
NtRp399
(dp400
g8
g10
sg144
Nsg145
(dp401
sg147
Nsg25
g27
sg148
(lp402
I4
aI10
asg150
Nsg151
VTosefta Keilim Kamma 4:10
p403
sg153
(lp404
sg155
g109
sg156
Nsg157
(lp405
I4
aI10
asg159
Nsg160
g403
sg161
(lp406
sg163
g60
sg164
Nsg165
Nsg166
Nsbag3
(g4
g5
NtRp407
(dp408
g8
g10
sg144
Nsg145
(dp409
sg147
Nsg25
g27
sg148
(lp410
I5
aI1
asg150
Nsg151
VTosefta Keilim Kamma 5:1
p411
sg153
(lp412
sg155
g109
sg156
Nsg157
(lp413
I5
aI1
asg159
Nsg160
g411
sg161
(lp414
sg163
g60
sg164
Nsg165
Nsg166
Nsbag3
(g4
g5
NtRp415
(dp416
g8
g10
sg144
Nsg145
(dp417
sg147
Nsg25
g27
sg148
(lp418
I5
aI2
asg150
Nsg151
VTosefta Keilim Kamma 5:2
p419
sg153
(lp420
sg155
g109
sg156
Nsg157
(lp421
I5
aI2
asg159
Nsg160
g419
sg161
(lp422
sg163
g60
sg164
Nsg165
Nsg166
Nsbag3
(g4
g5
NtRp423
(dp424
g8
g10
sg144
Nsg145
(dp425
sg147
Nsg25
g27
sg148
(lp426
I5
aI3
asg150
Nsg151
VTosefta Keilim Kamma 5:3
p427
sg153
(lp428
sg155
g109
sg156
Nsg157
(lp429
I5
aI3
asg159
Nsg160
g427
sg161
(lp430
sg163
g60
sg164
Nsg165
Nsg166
Nsbag3
(g4
g5
NtRp431
(dp432
g8
g10
sg144
Nsg145
(dp433
sg147
Nsg25
g27
sg148
(lp434
I5
aI4
asg150
Nsg151
VTosefta Keilim Kamma 5:4
p435
sg153
(lp436
sg155
g109
sg156
Nsg157
(lp437
I5
aI4
asg159
Nsg160
g435
sg161
(lp438
sg163
g60
sg164
Nsg165
Nsg166
Nsbag3
(g4
g5
NtRp439
(dp440
g8
g10
sg144
Nsg145
(dp441
sg147
Nsg25
g27
sg148
(lp442
I5
aI5
asg150
Nsg151
VTosefta Keilim Kamma 5:5
p443
sg153
(lp444
sg155
g109
sg156
Nsg157
(lp445
I5
aI5
asg159
Nsg160
g443
sg161
(lp446
sg163
g60
sg164
Nsg165
Nsg166
Nsbag3
(g4
g5
NtRp447
(dp448
g8
g10
sg144
Nsg145
(dp449
sg147
Nsg25
g27
sg148
(lp450
I5
aI6
asg150
Nsg151
VTosefta Keilim Kamma 5:6
p451
sg153
(lp452
sg155
g109
sg156
Nsg157
(lp453
I5
aI6
asg159
Nsg160
g451
sg161
(lp454
sg163
g60
sg164
Nsg165
Nsg166
Nsbag3
(g4
g5
NtRp455
(dp456
g8
g10
sg144
Nsg145
(dp457
sg147
Nsg25
g27
sg148
(lp458
I5
aI7
asg150
Nsg151
VTosefta Keilim Kamma 5:7
p459
sg153
(lp460
sg155
g109
sg156
Nsg157
(lp461
I5
aI7
asg159
Nsg160
g459
sg161
(lp462
sg163
g60
sg164
Nsg165
Nsg166
Nsbag3
(g4
g5
NtRp463
(dp464
g8
g10
sg144
Nsg145
(dp465
sg147
Nsg25
g27
sg148
(lp466
I6
aI1
asg150
Nsg151
VTosefta Keilim Kamma 6:1
p467
sg153
(lp468
sg155
g109
sg156
Nsg157
(lp469
I6
aI1
asg159
Nsg160
g467
sg161
(lp470
sg163
g60
sg164
Nsg165
Nsg166
Nsbag3
(g4
g5
NtRp471
(dp472
g8
g10
sg144
Nsg145
(dp473
sg147
Nsg25
g27
sg148
(lp474
I6
aI2
asg150
Nsg151
VTosefta Keilim Kamma 6:2
p475
sg153
(lp476
sg155
g109
sg156
Nsg157
(lp477
I6
aI2
asg159
Nsg160
g475
sg161
(lp478
sg163
g60
sg164
Nsg165
Nsg166
Nsbag3
(g4
g5
NtRp479
(dp480
g8
g10
sg144
Nsg145
(dp481
sg147
Nsg25
g27
sg148
(lp482
I6
aI3
asg150
Nsg151
VTosefta Keilim Kamma 6:3
p483
sg153
(lp484
sg155
g109
sg156
Nsg157
(lp485
I6
aI3
asg159
Nsg160
g483
sg161
(lp486
sg163
g60
sg164
Nsg165
Nsg166
Nsbag3
(g4
g5
NtRp487
(dp488
g8
g10
sg144
Nsg145
(dp489
sg147
Nsg25
g27
sg148
(lp490
I6
aI4
asg150
Nsg151
VTosefta Keilim Kamma 6:4
p491
sg153
(lp492
sg155
g109
sg156
Nsg157
(lp493
I6
aI4
asg159
Nsg160
g491
sg161
(lp494
sg163
g60
sg164
Nsg165
Nsg166
Nsbag3
(g4
g5
NtRp495
(dp496
g8
g10
sg144
Nsg145
(dp497
sg147
Nsg25
g27
sg148
(lp498
I6
aI5
asg150
Nsg151
VTosefta Keilim Kamma 6:5
p499
sg153
(lp500
sg155
g109
sg156
Nsg157
(lp501
I6
aI5
asg159
Nsg160
g499
sg161
(lp502
sg163
g60
sg164
Nsg165
Nsg166
Nsbag3
(g4
g5
NtRp503
(dp504
g8
g10
sg144
Nsg145
(dp505
sg147
Nsg25
g27
sg148
(lp506
I6
aI6
asg150
Nsg151
VTosefta Keilim Kamma 6:6
p507
sg153
(lp508
sg155
g109
sg156
Nsg157
(lp509
I6
aI6
asg159
Nsg160
g507
sg161
(lp510
sg163
g60
sg164
Nsg165
Nsg166
Nsbag3
(g4
g5
NtRp511
(dp512
g8
g10
sg144
Nsg145
(dp513
sg147
Nsg25
g27
sg148
(lp514
I6
aI7
asg150
Nsg151
VTosefta Keilim Kamma 6:7
p515
sg153
(lp516
sg155
g109
sg156
Nsg157
(lp517
I6
aI7
asg159
Nsg160
g515
sg161
(lp518
sg163
g60
sg164
Nsg165
Nsg166
Nsbag3
(g4
g5
NtRp519
(dp520
g8
g10
sg144
Nsg145
(dp521
sg147
Nsg25
g27
sg148
(lp522
I6
aI8
asg150
Nsg151
VTosefta Keilim Kamma 6:8
p523
sg153
(lp524
sg155
g109
sg156
Nsg157
(lp525
I6
aI8
asg159
Nsg160
g523
sg161
(lp526
sg163
g60
sg164
Nsg165
Nsg166
Nsbag3
(g4
g5
NtRp527
(dp528
g8
g10
sg144
Nsg145
(dp529
sg147
Nsg25
g27
sg148
(lp530
I6
aI9
asg150
Nsg151
VTosefta Keilim Kamma 6:9
p531
sg153
(lp532
sg155
g109
sg156
Nsg157
(lp533
I6
aI9
asg159
Nsg160
g531
sg161
(lp534
sg163
g60
sg164
Nsg165
Nsg166
Nsbag3
(g4
g5
NtRp535
(dp536
g8
g10
sg144
Nsg145
(dp537
sg147
Nsg25
g27
sg148
(lp538
I6
aI10
asg150
Nsg151
VTosefta Keilim Kamma 6:10
p539
sg153
(lp540
sg155
g109
sg156
Nsg157
(lp541
I6
aI10
asg159
Nsg160
g539
sg161
(lp542
sg163
g60
sg164
Nsg165
Nsg166
Nsbag3
(g4
g5
NtRp543
(dp544
g8
g10
sg144
Nsg145
(dp545
sg147
Nsg25
g27
sg148
(lp546
I7
aI1
asg150
Nsg151
VTosefta Keilim Kamma 7:1
p547
sg153
(lp548
sg155
g109
sg156
Nsg157
(lp549
I7
aI1
asg159
Nsg160
g547
sg161
(lp550
sg163
g60
sg164
Nsg165
Nsg166
Nsbag3
(g4
g5
NtRp551
(dp552
g8
g10
sg144
Nsg145
(dp553
sg147
Nsg25
g27
sg148
(lp554
I7
aI2
asg150
Nsg151
VTosefta Keilim Kamma 7:2
p555
sg153
(lp556
sg155
g109
sg156
Nsg157
(lp557
I7
aI2
asg159
Nsg160
g555
sg161
(lp558
sg163
g60
sg164
Nsg165
Nsg166
Nsbag3
(g4
g5
NtRp559
(dp560
g8
g10
sg144
Nsg145
(dp561
sg147
Nsg25
g27
sg148
(lp562
I7
aI3
asg150
Nsg151
VTosefta Keilim Kamma 7:3
p563
sg153
(lp564
sg155
g109
sg156
Nsg157
(lp565
I7
aI3
asg159
Nsg160
g563
sg161
(lp566
sg163
g60
sg164
Nsg165
Nsg166
Nsbag3
(g4
g5
NtRp567
(dp568
g8
g10
sg144
Nsg145
(dp569
sg147
Nsg25
g27
sg148
(lp570
I7
aI4
asg150
Nsg151
VTosefta Keilim Kamma 7:4
p571
sg153
(lp572
sg155
g109
sg156
Nsg157
(lp573
I7
aI4
asg159
Nsg160
g571
sg161
(lp574
sg163
g60
sg164
Nsg165
Nsg166
Nsbag3
(g4
g5
NtRp575
(dp576
g8
g10
sg144
Nsg145
(dp577
sg147
Nsg25
g27
sg148
(lp578
I7
aI5
asg150
Nsg151
VTosefta Keilim Kamma 7:5
p579
sg153
(lp580
sg155
g109
sg156
Nsg157
(lp581
I7
aI5
asg159
Nsg160
g579
sg161
(lp582
sg163
g60
sg164
Nsg165
Nsg166
Nsbag3
(g4
g5
NtRp583
(dp584
g8
g10
sg144
Nsg145
(dp585
sg147
Nsg25
g27
sg148
(lp586
I7
aI6
asg150
Nsg151
VTosefta Keilim Kamma 7:6
p587
sg153
(lp588
sg155
g109
sg156
Nsg157
(lp589
I7
aI6
asg159
Nsg160
g587
sg161
(lp590
sg163
g60
sg164
Nsg165
Nsg166
Nsbag3
(g4
g5
NtRp591
(dp592
g8
g10
sg144
Nsg145
(dp593
sg147
Nsg25
g27
sg148
(lp594
I7
aI7
asg150
Nsg151
VTosefta Keilim Kamma 7:7
p595
sg153
(lp596
sg155
g109
sg156
Nsg157
(lp597
I7
aI7
asg159
Nsg160
g595
sg161
(lp598
sg163
g60
sg164
Nsg165
Nsg166
Nsbag3
(g4
g5
NtRp599
(dp600
g8
g10
sg144
Nsg145
(dp601
sg147
Nsg25
g27
sg148
(lp602
I7
aI8
asg150
Nsg151
VTosefta Keilim Kamma 7:8
p603
sg153
(lp604
sg155
g109
sg156
Nsg157
(lp605
I7
aI8
asg159
Nsg160
g603
sg161
(lp606
sg163
g60
sg164
Nsg165
Nsg166
Nsbag3
(g4
g5
NtRp607
(dp608
g8
g10
sg144
Nsg145
(dp609
sg147
Nsg25
g27
sg148
(lp610
I7
aI9
asg150
Nsg151
VTosefta Keilim Kamma 7:9
p611
sg153
(lp612
sg155
g109
sg156
Nsg157
(lp613
I7
aI9
asg159
Nsg160
g611
sg161
(lp614
sg163
g60
sg164
Nsg165
Nsg166
Nsbag3
(g4
g5
NtRp615
(dp616
g8
g10
sg144
Nsg145
(dp617
sg147
Nsg25
g27
sg148
(lp618
I7
aI10
asg150
Nsg151
VTosefta Keilim Kamma 7:10
p619
sg153
(lp620
sg155
g109
sg156
Nsg157
(lp621
I7
aI10
asg159
Nsg160
g619
sg161
(lp622
sg163
g60
sg164
Nsg165
Nsg166
NsbaI4433
t.