((lp1
I0
aI105
aI183
aI234
aI375
aI461
aI482
aI527
aI602
aI723
aI783
aI898
aI1009
aI1160
aI1189
aI1272
aI1343
aI1454
aI1603
aI1616
aI1790
aI1942
aI1986
aI2078
aI2151
aI2207
aI2250
aI2304
aI2354
aI2377
aI2407
aI2542
aI2607
aI2649
aI2724
aI2832
aI2978
aI3045
aI3087
aI3203
aI3269
aI3300
aI3408
aI3472
aI3512
aI3548
aI3658
aI3726
aI3763
aI3829
aI3929
aI3991
aI4043
aI4062
aI4108
aI4139
aI4228
aI4309
aI4432
aI4464
aI4578
aI4688
aI4761
aI4916
aI4947
aI5028
aI5206
aI5224
aI5261
aI5309
aI5410
aI5503
aI5546
aI5576
aI5611
aI5687
aI5712
aI5735
aI5783
aI5831
aI5882
aI5926
aI5976
aI6025
aI6057
aI6100
aI6159
aI6238
aI6281
aI6330
aI6379
aI6434
aI6547
aI6651
aI6711
aI6738
aI6764
aI6786
aI6819
aI6865
aI6900
aI6948
aI6993
aI7028
aI7059
aI7140
aI7165
aI7201
aI7271
aI7353
aI7427
aI7471
aI7538
aI7562
aI7775
aI7861
aI7897
aI7977
aI8117
aI8205
aI8298
aI8415
aI8477
aI8523
aI8589
aI8625
aI8654
aI8688
aI8719
aI8773
aI8823
aI8879
aI8941
aI8968
aI9014
aI9107
aI9232
aI9263
aI9384
aI9398
aI9414
aI9496
aI9521
aI9562
aI9637
a(lp2
ccopy_reg
_reconstructor
p3
(csefaria.model.text
Ref
p4
c__builtin__
object
p5
NtRp6
(dp7
S'index_node'
p8
g3
(csefaria.model.schema
JaggedArrayNode
p9
g5
NtRp10
(dp11
S'_address'
p12
(lp13
VTosefta Ohalot
p14
asS'_full_titles'
p15
(dp16
sVnodeType
p17
VJaggedArrayNode
p18
sS'parent'
p19
NsVaddressTypes
p20
(lp21
VInteger
p22
aVInteger
p23
asS'default'
p24
I00
sS'index'
p25
g3
(csefaria.model.text
Index
p26
g5
NtRp27
(dp28
S'struct_objs'
p29
(dp30
sS'_id'
p31
g3
(cbson.objectid
ObjectId
p32
g5
NtRp33
S'S3\x19;\xfb\xfb\xa2db\x83\xda['
p34
bsS'pkeys_orig_values'
p35
(dp36
S'title'
p37
VTosefta Ohalot
p38
ssS'pubDate'
p39
V1521
p40
sS'transliteratedTitle'
p41
VTosefta Ohalot
p42
sS'pubPlace'
p43
VVenice
p44
sS'compPlace'
p45
VTalmudic Israel
p46
sS'enDesc'
p47
VThe Tosefta (Supplement, addition") is a compilation of the Jewish oral law. Opinions differ widely as to when the Tosefta was redacted and how it relates to the Mishnah. However it closely corresponds to the Mishnah in structure and style, with the same divisions for sedarim ("orders") and masekhot ("tractates"). In many ways, the Tosefta acts as a supplement to the Mishnah. It is mainly written in Mishnaic Hebrew, with some Aramaic. Ohalot (Tents) belongs to the sixth order, Tahorot (Purities) and discusses with the laws of the Zaraath (an unknown skin disease). It has eighteen chapters.
p48
sS'order'
p49
(lp50
I4
asS'era'
p51
VT
sS'compDate'
p52
V210
p53
sS'nodes'
p54
g10
sS'errorMargin'
p55
V20
p56
sS'_title'
p57
g38
sS'categories'
p58
(lp59
VTosefta
p60
aVSeder Toharot
p61
asS'schema'
p62
(dp63
g17
g18
sg20
g21
sVlengths
p64
(lp65
I18
asVdepth
p66
I2
sVtitles
p67
(lp68
(dp69
Vlang
p70
Ven
p71
sVtext
p72
VT. Ohalot
p73
sa(dp74
Vlang
p75
Ven
p76
sVtext
p77
VTos. Ohalot
p78
sa(dp79
Vlang
p80
Ven
p81
sVtext
p82
VTos. Ohalos
p83
sa(dp84
Vlang
p85
Ven
p86
sVtext
p87
VTosefta Ohalos
p88
sa(dp89
Vlang
p90
Vhe
p91
sVtext
p92
V\u05ea\u05d5\u05e1\u05e4\u05ea\u05d0 \u05d0\u05d4\u05dc\u05d5\u05ea
p93
sVprimary
p94
I01
sa(dp95
Vlang
p96
Ven
p97
sVtext
p98
VTosefta Ohalot
p99
sVprimary
p100
I01
sasVkey
p101
g14
sVsectionNames
p102
(lp103
VChapter
p104
aVTosefta
p105
assbsS'_primary_title'
p106
(dp107
sS'title_group'
p108
g3
(csefaria.model.schema
TitleGroup
p109
g5
NtRp110
(dp111
g106
(dp112
S'en'
p113
g99
ssS'titles'
p114
g68
sbsS'_addressTypes'
p115
(lp116
g3
(csefaria.model.schema
AddressInteger
p117
g5
NtRp118
(dp119
S'length'
p120
I18
sg49
I0
sbag3
(g117
g5
NtRp121
(dp122
g120
Nsg49
I1
sbasS'sharedTitle'
p123
Nsg64
g65
sg66
I2
sS'_full_title'
p124
(dp125
g113
g99
ssS'key'
p126
g14
sS'checkFirst'
p127
NsS'_regexes'
p128
(dp129
sS'_leaf_nodes'
p130
(lp131
sg102
g103
sS'children'
p132
(lp133
sbsS'_range_index'
p134
NsS'_context'
p135
(dp136
sS'_padded'
p137
Nsg25
g27
sS'sections'
p138
(lp139
I1
aI1
asS'_first_spanned_ref'
p140
NsS'tref'
p141
VTosefta Ohalot 1:1
p142
sS'_spanned_refs'
p143
(lp144
sS'book'
p145
g99
sS'_range_depth'
p146
NsS'toSections'
p147
(lp148
I1
aI1
asS'_url'
p149
NsS'_normal'
p150
g142
sS'_ranged_refs'
p151
(lp152
sS'type'
p153
g60
sS'_prev'
p154
NsS'_he_normal'
p155
NsS'_next'
p156
Nsbag3
(g4
g5
NtRp157
(dp158
g8
g10
sg134
Nsg135
(dp159
sg137
Nsg25
g27
sg138
(lp160
I1
aI2
asg140
Nsg141
VTosefta Ohalot 1:2
p161
sg143
(lp162
sg145
g99
sg146
Nsg147
(lp163
I1
aI2
asg149
Nsg150
g161
sg151
(lp164
sg153
g60
sg154
Nsg155
Nsg156
Nsbag3
(g4
g5
NtRp165
(dp166
g8
g10
sg134
Nsg135
(dp167
sg137
Nsg25
g27
sg138
(lp168
I1
aI3
asg140
Nsg141
VTosefta Ohalot 1:3
p169
sg143
(lp170
sg145
g99
sg146
Nsg147
(lp171
I1
aI3
asg149
Nsg150
g169
sg151
(lp172
sg153
g60
sg154
Nsg155
Nsg156
Nsbag3
(g4
g5
NtRp173
(dp174
g8
g10
sg134
Nsg135
(dp175
sg137
Nsg25
g27
sg138
(lp176
I2
aI1
asg140
Nsg141
VTosefta Ohalot 2:1
p177
sg143
(lp178
sg145
g99
sg146
Nsg147
(lp179
I2
aI1
asg149
Nsg150
g177
sg151
(lp180
sg153
g60
sg154
Nsg155
Nsg156
Nsbag3
(g4
g5
NtRp181
(dp182
g8
g10
sg134
Nsg135
(dp183
sg137
Nsg25
g27
sg138
(lp184
I2
aI2
asg140
Nsg141
VTosefta Ohalot 2:2
p185
sg143
(lp186
sg145
g99
sg146
Nsg147
(lp187
I2
aI2
asg149
Nsg150
g185
sg151
(lp188
sg153
g60
sg154
Nsg155
Nsg156
Nsbag3
(g4
g5
NtRp189
(dp190
g8
g10
sg134
Nsg135
(dp191
sg137
Nsg25
g27
sg138
(lp192
I2
aI3
asg140
Nsg141
VTosefta Ohalot 2:3
p193
sg143
(lp194
sg145
g99
sg146
Nsg147
(lp195
I2
aI3
asg149
Nsg150
g193
sg151
(lp196
sg153
g60
sg154
Nsg155
Nsg156
Nsbag3
(g4
g5
NtRp197
(dp198
g8
g10
sg134
Nsg135
(dp199
sg137
Nsg25
g27
sg138
(lp200
I2
aI4
asg140
Nsg141
VTosefta Ohalot 2:4
p201
sg143
(lp202
sg145
g99
sg146
Nsg147
(lp203
I2
aI4
asg149
Nsg150
g201
sg151
(lp204
sg153
g60
sg154
Nsg155
Nsg156
Nsbag3
(g4
g5
NtRp205
(dp206
g8
g10
sg134
Nsg135
(dp207
sg137
Nsg25
g27
sg138
(lp208
I2
aI5
asg140
Nsg141
VTosefta Ohalot 2:5
p209
sg143
(lp210
sg145
g99
sg146
Nsg147
(lp211
I2
aI5
asg149
Nsg150
g209
sg151
(lp212
sg153
g60
sg154
Nsg155
Nsg156
Nsbag3
(g4
g5
NtRp213
(dp214
g8
g10
sg134
Nsg135
(dp215
sg137
Nsg25
g27
sg138
(lp216
I2
aI6
asg140
Nsg141
VTosefta Ohalot 2:6
p217
sg143
(lp218
sg145
g99
sg146
Nsg147
(lp219
I2
aI6
asg149
Nsg150
g217
sg151
(lp220
sg153
g60
sg154
Nsg155
Nsg156
Nsbag3
(g4
g5
NtRp221
(dp222
g8
g10
sg134
Nsg135
(dp223
sg137
Nsg25
g27
sg138
(lp224
I3
aI1
asg140
Nsg141
VTosefta Ohalot 3:1
p225
sg143
(lp226
sg145
g99
sg146
Nsg147
(lp227
I3
aI1
asg149
Nsg150
g225
sg151
(lp228
sg153
g60
sg154
Nsg155
Nsg156
Nsbag3
(g4
g5
NtRp229
(dp230
g8
g10
sg134
Nsg135
(dp231
sg137
Nsg25
g27
sg138
(lp232
I3
aI2
asg140
Nsg141
VTosefta Ohalot 3:2
p233
sg143
(lp234
sg145
g99
sg146
Nsg147
(lp235
I3
aI2
asg149
Nsg150
g233
sg151
(lp236
sg153
g60
sg154
Nsg155
Nsg156
Nsbag3
(g4
g5
NtRp237
(dp238
g8
g10
sg134
Nsg135
(dp239
sg137
Nsg25
g27
sg138
(lp240
I3
aI3
asg140
Nsg141
VTosefta Ohalot 3:3
p241
sg143
(lp242
sg145
g99
sg146
Nsg147
(lp243
I3
aI3
asg149
Nsg150
g241
sg151
(lp244
sg153
g60
sg154
Nsg155
Nsg156
Nsbag3
(g4
g5
NtRp245
(dp246
g8
g10
sg134
Nsg135
(dp247
sg137
Nsg25
g27
sg138
(lp248
I3
aI4
asg140
Nsg141
VTosefta Ohalot 3:4
p249
sg143
(lp250
sg145
g99
sg146
Nsg147
(lp251
I3
aI4
asg149
Nsg150
g249
sg151
(lp252
sg153
g60
sg154
Nsg155
Nsg156
Nsbag3
(g4
g5
NtRp253
(dp254
g8
g10
sg134
Nsg135
(dp255
sg137
Nsg25
g27
sg138
(lp256
I3
aI5
asg140
Nsg141
VTosefta Ohalot 3:5
p257
sg143
(lp258
sg145
g99
sg146
Nsg147
(lp259
I3
aI5
asg149
Nsg150
g257
sg151
(lp260
sg153
g60
sg154
Nsg155
Nsg156
Nsbag3
(g4
g5
NtRp261
(dp262
g8
g10
sg134
Nsg135
(dp263
sg137
Nsg25
g27
sg138
(lp264
I4
aI1
asg140
Nsg141
VTosefta Ohalot 4:1
p265
sg143
(lp266
sg145
g99
sg146
Nsg147
(lp267
I4
aI1
asg149
Nsg150
g265
sg151
(lp268
sg153
g60
sg154
Nsg155
Nsg156
Nsbag3
(g4
g5
NtRp269
(dp270
g8
g10
sg134
Nsg135
(dp271
sg137
Nsg25
g27
sg138
(lp272
I4
aI2
asg140
Nsg141
VTosefta Ohalot 4:2
p273
sg143
(lp274
sg145
g99
sg146
Nsg147
(lp275
I4
aI2
asg149
Nsg150
g273
sg151
(lp276
sg153
g60
sg154
Nsg155
Nsg156
Nsbag3
(g4
g5
NtRp277
(dp278
g8
g10
sg134
Nsg135
(dp279
sg137
Nsg25
g27
sg138
(lp280
I4
aI3
asg140
Nsg141
VTosefta Ohalot 4:3
p281
sg143
(lp282
sg145
g99
sg146
Nsg147
(lp283
I4
aI3
asg149
Nsg150
g281
sg151
(lp284
sg153
g60
sg154
Nsg155
Nsg156
Nsbag3
(g4
g5
NtRp285
(dp286
g8
g10
sg134
Nsg135
(dp287
sg137
Nsg25
g27
sg138
(lp288
I4
aI4
asg140
Nsg141
VTosefta Ohalot 4:4
p289
sg143
(lp290
sg145
g99
sg146
Nsg147
(lp291
I4
aI4
asg149
Nsg150
g289
sg151
(lp292
sg153
g60
sg154
Nsg155
Nsg156
Nsbag3
(g4
g5
NtRp293
(dp294
g8
g10
sg134
Nsg135
(dp295
sg137
Nsg25
g27
sg138
(lp296
I4
aI5
asg140
Nsg141
VTosefta Ohalot 4:5
p297
sg143
(lp298
sg145
g99
sg146
Nsg147
(lp299
I4
aI5
asg149
Nsg150
g297
sg151
(lp300
sg153
g60
sg154
Nsg155
Nsg156
Nsbag3
(g4
g5
NtRp301
(dp302
g8
g10
sg134
Nsg135
(dp303
sg137
Nsg25
g27
sg138
(lp304
I4
aI6
asg140
Nsg141
VTosefta Ohalot 4:6
p305
sg143
(lp306
sg145
g99
sg146
Nsg147
(lp307
I4
aI6
asg149
Nsg150
g305
sg151
(lp308
sg153
g60
sg154
Nsg155
Nsg156
Nsbag3
(g4
g5
NtRp309
(dp310
g8
g10
sg134
Nsg135
(dp311
sg137
Nsg25
g27
sg138
(lp312
I4
aI7
asg140
Nsg141
VTosefta Ohalot 4:7
p313
sg143
(lp314
sg145
g99
sg146
Nsg147
(lp315
I4
aI7
asg149
Nsg150
g313
sg151
(lp316
sg153
g60
sg154
Nsg155
Nsg156
Nsbag3
(g4
g5
NtRp317
(dp318
g8
g10
sg134
Nsg135
(dp319
sg137
Nsg25
g27
sg138
(lp320
I5
aI1
asg140
Nsg141
VTosefta Ohalot 5:1
p321
sg143
(lp322
sg145
g99
sg146
Nsg147
(lp323
I5
aI1
asg149
Nsg150
g321
sg151
(lp324
sg153
g60
sg154
Nsg155
Nsg156
Nsbag3
(g4
g5
NtRp325
(dp326
g8
g10
sg134
Nsg135
(dp327
sg137
Nsg25
g27
sg138
(lp328
I5
aI2
asg140
Nsg141
VTosefta Ohalot 5:2
p329
sg143
(lp330
sg145
g99
sg146
Nsg147
(lp331
I5
aI2
asg149
Nsg150
g329
sg151
(lp332
sg153
g60
sg154
Nsg155
Nsg156
Nsbag3
(g4
g5
NtRp333
(dp334
g8
g10
sg134
Nsg135
(dp335
sg137
Nsg25
g27
sg138
(lp336
I5
aI3
asg140
Nsg141
VTosefta Ohalot 5:3
p337
sg143
(lp338
sg145
g99
sg146
Nsg147
(lp339
I5
aI3
asg149
Nsg150
g337
sg151
(lp340
sg153
g60
sg154
Nsg155
Nsg156
Nsbag3
(g4
g5
NtRp341
(dp342
g8
g10
sg134
Nsg135
(dp343
sg137
Nsg25
g27
sg138
(lp344
I5
aI4
asg140
Nsg141
VTosefta Ohalot 5:4
p345
sg143
(lp346
sg145
g99
sg146
Nsg147
(lp347
I5
aI4
asg149
Nsg150
g345
sg151
(lp348
sg153
g60
sg154
Nsg155
Nsg156
Nsbag3
(g4
g5
NtRp349
(dp350
g8
g10
sg134
Nsg135
(dp351
sg137
Nsg25
g27
sg138
(lp352
I5
aI5
asg140
Nsg141
VTosefta Ohalot 5:5
p353
sg143
(lp354
sg145
g99
sg146
Nsg147
(lp355
I5
aI5
asg149
Nsg150
g353
sg151
(lp356
sg153
g60
sg154
Nsg155
Nsg156
Nsbag3
(g4
g5
NtRp357
(dp358
g8
g10
sg134
Nsg135
(dp359
sg137
Nsg25
g27
sg138
(lp360
I5
aI6
asg140
Nsg141
VTosefta Ohalot 5:6
p361
sg143
(lp362
sg145
g99
sg146
Nsg147
(lp363
I5
aI6
asg149
Nsg150
g361
sg151
(lp364
sg153
g60
sg154
Nsg155
Nsg156
Nsbag3
(g4
g5
NtRp365
(dp366
g8
g10
sg134
Nsg135
(dp367
sg137
Nsg25
g27
sg138
(lp368
I5
aI7
asg140
Nsg141
VTosefta Ohalot 5:7
p369
sg143
(lp370
sg145
g99
sg146
Nsg147
(lp371
I5
aI7
asg149
Nsg150
g369
sg151
(lp372
sg153
g60
sg154
Nsg155
Nsg156
Nsbag3
(g4
g5
NtRp373
(dp374
g8
g10
sg134
Nsg135
(dp375
sg137
Nsg25
g27
sg138
(lp376
I5
aI8
asg140
Nsg141
VTosefta Ohalot 5:8
p377
sg143
(lp378
sg145
g99
sg146
Nsg147
(lp379
I5
aI8
asg149
Nsg150
g377
sg151
(lp380
sg153
g60
sg154
Nsg155
Nsg156
Nsbag3
(g4
g5
NtRp381
(dp382
g8
g10
sg134
Nsg135
(dp383
sg137
Nsg25
g27
sg138
(lp384
I5
aI9
asg140
Nsg141
VTosefta Ohalot 5:9
p385
sg143
(lp386
sg145
g99
sg146
Nsg147
(lp387
I5
aI9
asg149
Nsg150
g385
sg151
(lp388
sg153
g60
sg154
Nsg155
Nsg156
Nsbag3
(g4
g5
NtRp389
(dp390
g8
g10
sg134
Nsg135
(dp391
sg137
Nsg25
g27
sg138
(lp392
I5
aI10
asg140
Nsg141
VTosefta Ohalot 5:10
p393
sg143
(lp394
sg145
g99
sg146
Nsg147
(lp395
I5
aI10
asg149
Nsg150
g393
sg151
(lp396
sg153
g60
sg154
Nsg155
Nsg156
Nsbag3
(g4
g5
NtRp397
(dp398
g8
g10
sg134
Nsg135
(dp399
sg137
Nsg25
g27
sg138
(lp400
I6
aI1
asg140
Nsg141
VTosefta Ohalot 6:1
p401
sg143
(lp402
sg145
g99
sg146
Nsg147
(lp403
I6
aI1
asg149
Nsg150
g401
sg151
(lp404
sg153
g60
sg154
Nsg155
Nsg156
Nsbag3
(g4
g5
NtRp405
(dp406
g8
g10
sg134
Nsg135
(dp407
sg137
Nsg25
g27
sg138
(lp408
I6
aI2
asg140
Nsg141
VTosefta Ohalot 6:2
p409
sg143
(lp410
sg145
g99
sg146
Nsg147
(lp411
I6
aI2
asg149
Nsg150
g409
sg151
(lp412
sg153
g60
sg154
Nsg155
Nsg156
Nsbag3
(g4
g5
NtRp413
(dp414
g8
g10
sg134
Nsg135
(dp415
sg137
Nsg25
g27
sg138
(lp416
I6
aI3
asg140
Nsg141
VTosefta Ohalot 6:3
p417
sg143
(lp418
sg145
g99
sg146
Nsg147
(lp419
I6
aI3
asg149
Nsg150
g417
sg151
(lp420
sg153
g60
sg154
Nsg155
Nsg156
Nsbag3
(g4
g5
NtRp421
(dp422
g8
g10
sg134
Nsg135
(dp423
sg137
Nsg25
g27
sg138
(lp424
I6
aI4
asg140
Nsg141
VTosefta Ohalot 6:4
p425
sg143
(lp426
sg145
g99
sg146
Nsg147
(lp427
I6
aI4
asg149
Nsg150
g425
sg151
(lp428
sg153
g60
sg154
Nsg155
Nsg156
Nsbag3
(g4
g5
NtRp429
(dp430
g8
g10
sg134
Nsg135
(dp431
sg137
Nsg25
g27
sg138
(lp432
I7
aI1
asg140
Nsg141
VTosefta Ohalot 7:1
p433
sg143
(lp434
sg145
g99
sg146
Nsg147
(lp435
I7
aI1
asg149
Nsg150
g433
sg151
(lp436
sg153
g60
sg154
Nsg155
Nsg156
Nsbag3
(g4
g5
NtRp437
(dp438
g8
g10
sg134
Nsg135
(dp439
sg137
Nsg25
g27
sg138
(lp440
I7
aI2
asg140
Nsg141
VTosefta Ohalot 7:2
p441
sg143
(lp442
sg145
g99
sg146
Nsg147
(lp443
I7
aI2
asg149
Nsg150
g441
sg151
(lp444
sg153
g60
sg154
Nsg155
Nsg156
Nsbag3
(g4
g5
NtRp445
(dp446
g8
g10
sg134
Nsg135
(dp447
sg137
Nsg25
g27
sg138
(lp448
I7
aI3
asg140
Nsg141
VTosefta Ohalot 7:3
p449
sg143
(lp450
sg145
g99
sg146
Nsg147
(lp451
I7
aI3
asg149
Nsg150
g449
sg151
(lp452
sg153
g60
sg154
Nsg155
Nsg156
Nsbag3
(g4
g5
NtRp453
(dp454
g8
g10
sg134
Nsg135
(dp455
sg137
Nsg25
g27
sg138
(lp456
I7
aI4
asg140
Nsg141
VTosefta Ohalot 7:4
p457
sg143
(lp458
sg145
g99
sg146
Nsg147
(lp459
I7
aI4
asg149
Nsg150
g457
sg151
(lp460
sg153
g60
sg154
Nsg155
Nsg156
Nsbag3
(g4
g5
NtRp461
(dp462
g8
g10
sg134
Nsg135
(dp463
sg137
Nsg25
g27
sg138
(lp464
I7
aI5
asg140
Nsg141
VTosefta Ohalot 7:5
p465
sg143
(lp466
sg145
g99
sg146
Nsg147
(lp467
I7
aI5
asg149
Nsg150
g465
sg151
(lp468
sg153
g60
sg154
Nsg155
Nsg156
Nsbag3
(g4
g5
NtRp469
(dp470
g8
g10
sg134
Nsg135
(dp471
sg137
Nsg25
g27
sg138
(lp472
I7
aI6
asg140
Nsg141
VTosefta Ohalot 7:6
p473
sg143
(lp474
sg145
g99
sg146
Nsg147
(lp475
I7
aI6
asg149
Nsg150
g473
sg151
(lp476
sg153
g60
sg154
Nsg155
Nsg156
Nsbag3
(g4
g5
NtRp477
(dp478
g8
g10
sg134
Nsg135
(dp479
sg137
Nsg25
g27
sg138
(lp480
I7
aI7
asg140
Nsg141
VTosefta Ohalot 7:7
p481
sg143
(lp482
sg145
g99
sg146
Nsg147
(lp483
I7
aI7
asg149
Nsg150
g481
sg151
(lp484
sg153
g60
sg154
Nsg155
Nsg156
Nsbag3
(g4
g5
NtRp485
(dp486
g8
g10
sg134
Nsg135
(dp487
sg137
Nsg25
g27
sg138
(lp488
I7
aI8
asg140
Nsg141
VTosefta Ohalot 7:8
p489
sg143
(lp490
sg145
g99
sg146
Nsg147
(lp491
I7
aI8
asg149
Nsg150
g489
sg151
(lp492
sg153
g60
sg154
Nsg155
Nsg156
Nsbag3
(g4
g5
NtRp493
(dp494
g8
g10
sg134
Nsg135
(dp495
sg137
Nsg25
g27
sg138
(lp496
I7
aI9
asg140
Nsg141
VTosefta Ohalot 7:9
p497
sg143
(lp498
sg145
g99
sg146
Nsg147
(lp499
I7
aI9
asg149
Nsg150
g497
sg151
(lp500
sg153
g60
sg154
Nsg155
Nsg156
Nsbag3
(g4
g5
NtRp501
(dp502
g8
g10
sg134
Nsg135
(dp503
sg137
Nsg25
g27
sg138
(lp504
I7
aI10
asg140
Nsg141
VTosefta Ohalot 7:10
p505
sg143
(lp506
sg145
g99
sg146
Nsg147
(lp507
I7
aI10
asg149
Nsg150
g505
sg151
(lp508
sg153
g60
sg154
Nsg155
Nsg156
Nsbag3
(g4
g5
NtRp509
(dp510
g8
g10
sg134
Nsg135
(dp511
sg137
Nsg25
g27
sg138
(lp512
I7
aI11
asg140
Nsg141
VTosefta Ohalot 7:11
p513
sg143
(lp514
sg145
g99
sg146
Nsg147
(lp515
I7
aI11
asg149
Nsg150
g513
sg151
(lp516
sg153
g60
sg154
Nsg155
Nsg156
Nsbag3
(g4
g5
NtRp517
(dp518
g8
g10
sg134
Nsg135
(dp519
sg137
Nsg25
g27
sg138
(lp520
I8
aI1
asg140
Nsg141
VTosefta Ohalot 8:1
p521
sg143
(lp522
sg145
g99
sg146
Nsg147
(lp523
I8
aI1
asg149
Nsg150
g521
sg151
(lp524
sg153
g60
sg154
Nsg155
Nsg156
Nsbag3
(g4
g5
NtRp525
(dp526
g8
g10
sg134
Nsg135
(dp527
sg137
Nsg25
g27
sg138
(lp528
I8
aI2
asg140
Nsg141
VTosefta Ohalot 8:2
p529
sg143
(lp530
sg145
g99
sg146
Nsg147
(lp531
I8
aI2
asg149
Nsg150
g529
sg151
(lp532
sg153
g60
sg154
Nsg155
Nsg156
Nsbag3
(g4
g5
NtRp533
(dp534
g8
g10
sg134
Nsg135
(dp535
sg137
Nsg25
g27
sg138
(lp536
I8
aI3
asg140
Nsg141
VTosefta Ohalot 8:3
p537
sg143
(lp538
sg145
g99
sg146
Nsg147
(lp539
I8
aI3
asg149
Nsg150
g537
sg151
(lp540
sg153
g60
sg154
Nsg155
Nsg156
Nsbag3
(g4
g5
NtRp541
(dp542
g8
g10
sg134
Nsg135
(dp543
sg137
Nsg25
g27
sg138
(lp544
I8
aI4
asg140
Nsg141
VTosefta Ohalot 8:4
p545
sg143
(lp546
sg145
g99
sg146
Nsg147
(lp547
I8
aI4
asg149
Nsg150
g545
sg151
(lp548
sg153
g60
sg154
Nsg155
Nsg156
Nsbag3
(g4
g5
NtRp549
(dp550
g8
g10
sg134
Nsg135
(dp551
sg137
Nsg25
g27
sg138
(lp552
I8
aI5
asg140
Nsg141
VTosefta Ohalot 8:5
p553
sg143
(lp554
sg145
g99
sg146
Nsg147
(lp555
I8
aI5
asg149
Nsg150
g553
sg151
(lp556
sg153
g60
sg154
Nsg155
Nsg156
Nsbag3
(g4
g5
NtRp557
(dp558
g8
g10
sg134
Nsg135
(dp559
sg137
Nsg25
g27
sg138
(lp560
I8
aI6
asg140
Nsg141
VTosefta Ohalot 8:6
p561
sg143
(lp562
sg145
g99
sg146
Nsg147
(lp563
I8
aI6
asg149
Nsg150
g561
sg151
(lp564
sg153
g60
sg154
Nsg155
Nsg156
Nsbag3
(g4
g5
NtRp565
(dp566
g8
g10
sg134
Nsg135
(dp567
sg137
Nsg25
g27
sg138
(lp568
I9
aI1
asg140
Nsg141
VTosefta Ohalot 9:1
p569
sg143
(lp570
sg145
g99
sg146
Nsg147
(lp571
I9
aI1
asg149
Nsg150
g569
sg151
(lp572
sg153
g60
sg154
Nsg155
Nsg156
Nsbag3
(g4
g5
NtRp573
(dp574
g8
g10
sg134
Nsg135
(dp575
sg137
Nsg25
g27
sg138
(lp576
I9
aI2
asg140
Nsg141
VTosefta Ohalot 9:2
p577
sg143
(lp578
sg145
g99
sg146
Nsg147
(lp579
I9
aI2
asg149
Nsg150
g577
sg151
(lp580
sg153
g60
sg154
Nsg155
Nsg156
Nsbag3
(g4
g5
NtRp581
(dp582
g8
g10
sg134
Nsg135
(dp583
sg137
Nsg25
g27
sg138
(lp584
I9
aI3
asg140
Nsg141
VTosefta Ohalot 9:3
p585
sg143
(lp586
sg145
g99
sg146
Nsg147
(lp587
I9
aI3
asg149
Nsg150
g585
sg151
(lp588
sg153
g60
sg154
Nsg155
Nsg156
Nsbag3
(g4
g5
NtRp589
(dp590
g8
g10
sg134
Nsg135
(dp591
sg137
Nsg25
g27
sg138
(lp592
I9
aI4
asg140
Nsg141
VTosefta Ohalot 9:4
p593
sg143
(lp594
sg145
g99
sg146
Nsg147
(lp595
I9
aI4
asg149
Nsg150
g593
sg151
(lp596
sg153
g60
sg154
Nsg155
Nsg156
Nsbag3
(g4
g5
NtRp597
(dp598
g8
g10
sg134
Nsg135
(dp599
sg137
Nsg25
g27
sg138
(lp600
I9
aI5
asg140
Nsg141
VTosefta Ohalot 9:5
p601
sg143
(lp602
sg145
g99
sg146
Nsg147
(lp603
I9
aI5
asg149
Nsg150
g601
sg151
(lp604
sg153
g60
sg154
Nsg155
Nsg156
Nsbag3
(g4
g5
NtRp605
(dp606
g8
g10
sg134
Nsg135
(dp607
sg137
Nsg25
g27
sg138
(lp608
I9
aI6
asg140
Nsg141
VTosefta Ohalot 9:6
p609
sg143
(lp610
sg145
g99
sg146
Nsg147
(lp611
I9
aI6
asg149
Nsg150
g609
sg151
(lp612
sg153
g60
sg154
Nsg155
Nsg156
Nsbag3
(g4
g5
NtRp613
(dp614
g8
g10
sg134
Nsg135
(dp615
sg137
Nsg25
g27
sg138
(lp616
I10
aI1
asg140
Nsg141
VTosefta Ohalot 10:1
p617
sg143
(lp618
sg145
g99
sg146
Nsg147
(lp619
I10
aI1
asg149
Nsg150
g617
sg151
(lp620
sg153
g60
sg154
Nsg155
Nsg156
Nsbag3
(g4
g5
NtRp621
(dp622
g8
g10
sg134
Nsg135
(dp623
sg137
Nsg25
g27
sg138
(lp624
I10
aI2
asg140
Nsg141
VTosefta Ohalot 10:2
p625
sg143
(lp626
sg145
g99
sg146
Nsg147
(lp627
I10
aI2
asg149
Nsg150
g625
sg151
(lp628
sg153
g60
sg154
Nsg155
Nsg156
Nsbag3
(g4
g5
NtRp629
(dp630
g8
g10
sg134
Nsg135
(dp631
sg137
Nsg25
g27
sg138
(lp632
I10
aI3
asg140
Nsg141
VTosefta Ohalot 10:3
p633
sg143
(lp634
sg145
g99
sg146
Nsg147
(lp635
I10
aI3
asg149
Nsg150
g633
sg151
(lp636
sg153
g60
sg154
Nsg155
Nsg156
Nsbag3
(g4
g5
NtRp637
(dp638
g8
g10
sg134
Nsg135
(dp639
sg137
Nsg25
g27
sg138
(lp640
I10
aI4
asg140
Nsg141
VTosefta Ohalot 10:4
p641
sg143
(lp642
sg145
g99
sg146
Nsg147
(lp643
I10
aI4
asg149
Nsg150
g641
sg151
(lp644
sg153
g60
sg154
Nsg155
Nsg156
Nsbag3
(g4
g5
NtRp645
(dp646
g8
g10
sg134
Nsg135
(dp647
sg137
Nsg25
g27
sg138
(lp648
I10
aI5
asg140
Nsg141
VTosefta Ohalot 10:5
p649
sg143
(lp650
sg145
g99
sg146
Nsg147
(lp651
I10
aI5
asg149
Nsg150
g649
sg151
(lp652
sg153
g60
sg154
Nsg155
Nsg156
Nsbag3
(g4
g5
NtRp653
(dp654
g8
g10
sg134
Nsg135
(dp655
sg137
Nsg25
g27
sg138
(lp656
I10
aI6
asg140
Nsg141
VTosefta Ohalot 10:6
p657
sg143
(lp658
sg145
g99
sg146
Nsg147
(lp659
I10
aI6
asg149
Nsg150
g657
sg151
(lp660
sg153
g60
sg154
Nsg155
Nsg156
Nsbag3
(g4
g5
NtRp661
(dp662
g8
g10
sg134
Nsg135
(dp663
sg137
Nsg25
g27
sg138
(lp664
I10
aI7
asg140
Nsg141
VTosefta Ohalot 10:7
p665
sg143
(lp666
sg145
g99
sg146
Nsg147
(lp667
I10
aI7
asg149
Nsg150
g665
sg151
(lp668
sg153
g60
sg154
Nsg155
Nsg156
Nsbag3
(g4
g5
NtRp669
(dp670
g8
g10
sg134
Nsg135
(dp671
sg137
Nsg25
g27
sg138
(lp672
I10
aI8
asg140
Nsg141
VTosefta Ohalot 10:8
p673
sg143
(lp674
sg145
g99
sg146
Nsg147
(lp675
I10
aI8
asg149
Nsg150
g673
sg151
(lp676
sg153
g60
sg154
Nsg155
Nsg156
Nsbag3
(g4
g5
NtRp677
(dp678
g8
g10
sg134
Nsg135
(dp679
sg137
Nsg25
g27
sg138
(lp680
I11
aI1
asg140
Nsg141
VTosefta Ohalot 11:1
p681
sg143
(lp682
sg145
g99
sg146
Nsg147
(lp683
I11
aI1
asg149
Nsg150
g681
sg151
(lp684
sg153
g60
sg154
Nsg155
Nsg156
Nsbag3
(g4
g5
NtRp685
(dp686
g8
g10
sg134
Nsg135
(dp687
sg137
Nsg25
g27
sg138
(lp688
I11
aI2
asg140
Nsg141
VTosefta Ohalot 11:2
p689
sg143
(lp690
sg145
g99
sg146
Nsg147
(lp691
I11
aI2
asg149
Nsg150
g689
sg151
(lp692
sg153
g60
sg154
Nsg155
Nsg156
Nsbag3
(g4
g5
NtRp693
(dp694
g8
g10
sg134
Nsg135
(dp695
sg137
Nsg25
g27
sg138
(lp696
I11
aI3
asg140
Nsg141
VTosefta Ohalot 11:3
p697
sg143
(lp698
sg145
g99
sg146
Nsg147
(lp699
I11
aI3
asg149
Nsg150
g697
sg151
(lp700
sg153
g60
sg154
Nsg155
Nsg156
Nsbag3
(g4
g5
NtRp701
(dp702
g8
g10
sg134
Nsg135
(dp703
sg137
Nsg25
g27
sg138
(lp704
I11
aI4
asg140
Nsg141
VTosefta Ohalot 11:4
p705
sg143
(lp706
sg145
g99
sg146
Nsg147
(lp707
I11
aI4
asg149
Nsg150
g705
sg151
(lp708
sg153
g60
sg154
Nsg155
Nsg156
Nsbag3
(g4
g5
NtRp709
(dp710
g8
g10
sg134
Nsg135
(dp711
sg137
Nsg25
g27
sg138
(lp712
I11
aI5
asg140
Nsg141
VTosefta Ohalot 11:5
p713
sg143
(lp714
sg145
g99
sg146
Nsg147
(lp715
I11
aI5
asg149
Nsg150
g713
sg151
(lp716
sg153
g60
sg154
Nsg155
Nsg156
Nsbag3
(g4
g5
NtRp717
(dp718
g8
g10
sg134
Nsg135
(dp719
sg137
Nsg25
g27
sg138
(lp720
I11
aI6
asg140
Nsg141
VTosefta Ohalot 11:6
p721
sg143
(lp722
sg145
g99
sg146
Nsg147
(lp723
I11
aI6
asg149
Nsg150
g721
sg151
(lp724
sg153
g60
sg154
Nsg155
Nsg156
Nsbag3
(g4
g5
NtRp725
(dp726
g8
g10
sg134
Nsg135
(dp727
sg137
Nsg25
g27
sg138
(lp728
I11
aI7
asg140
Nsg141
VTosefta Ohalot 11:7
p729
sg143
(lp730
sg145
g99
sg146
Nsg147
(lp731
I11
aI7
asg149
Nsg150
g729
sg151
(lp732
sg153
g60
sg154
Nsg155
Nsg156
Nsbag3
(g4
g5
NtRp733
(dp734
g8
g10
sg134
Nsg135
(dp735
sg137
Nsg25
g27
sg138
(lp736
I11
aI8
asg140
Nsg141
VTosefta Ohalot 11:8
p737
sg143
(lp738
sg145
g99
sg146
Nsg147
(lp739
I11
aI8
asg149
Nsg150
g737
sg151
(lp740
sg153
g60
sg154
Nsg155
Nsg156
Nsbag3
(g4
g5
NtRp741
(dp742
g8
g10
sg134
Nsg135
(dp743
sg137
Nsg25
g27
sg138
(lp744
I11
aI9
asg140
Nsg141
VTosefta Ohalot 11:9
p745
sg143
(lp746
sg145
g99
sg146
Nsg147
(lp747
I11
aI9
asg149
Nsg150
g745
sg151
(lp748
sg153
g60
sg154
Nsg155
Nsg156
Nsbag3
(g4
g5
NtRp749
(dp750
g8
g10
sg134
Nsg135
(dp751
sg137
Nsg25
g27
sg138
(lp752
I11
aI10
asg140
Nsg141
VTosefta Ohalot 11:10
p753
sg143
(lp754
sg145
g99
sg146
Nsg147
(lp755
I11
aI10
asg149
Nsg150
g753
sg151
(lp756
sg153
g60
sg154
Nsg155
Nsg156
Nsbag3
(g4
g5
NtRp757
(dp758
g8
g10
sg134
Nsg135
(dp759
sg137
Nsg25
g27
sg138
(lp760
I11
aI11
asg140
Nsg141
VTosefta Ohalot 11:11
p761
sg143
(lp762
sg145
g99
sg146
Nsg147
(lp763
I11
aI11
asg149
Nsg150
g761
sg151
(lp764
sg153
g60
sg154
Nsg155
Nsg156
Nsbag3
(g4
g5
NtRp765
(dp766
g8
g10
sg134
Nsg135
(dp767
sg137
Nsg25
g27
sg138
(lp768
I11
aI12
asg140
Nsg141
VTosefta Ohalot 11:12
p769
sg143
(lp770
sg145
g99
sg146
Nsg147
(lp771
I11
aI12
asg149
Nsg150
g769
sg151
(lp772
sg153
g60
sg154
Nsg155
Nsg156
Nsbag3
(g4
g5
NtRp773
(dp774
g8
g10
sg134
Nsg135
(dp775
sg137
Nsg25
g27
sg138
(lp776
I11
aI13
asg140
Nsg141
VTosefta Ohalot 11:13
p777
sg143
(lp778
sg145
g99
sg146
Nsg147
(lp779
I11
aI13
asg149
Nsg150
g777
sg151
(lp780
sg153
g60
sg154
Nsg155
Nsg156
Nsbag3
(g4
g5
NtRp781
(dp782
g8
g10
sg134
Nsg135
(dp783
sg137
Nsg25
g27
sg138
(lp784
I11
aI14
asg140
Nsg141
VTosefta Ohalot 11:14
p785
sg143
(lp786
sg145
g99
sg146
Nsg147
(lp787
I11
aI14
asg149
Nsg150
g785
sg151
(lp788
sg153
g60
sg154
Nsg155
Nsg156
Nsbag3
(g4
g5
NtRp789
(dp790
g8
g10
sg134
Nsg135
(dp791
sg137
Nsg25
g27
sg138
(lp792
I12
aI1
asg140
Nsg141
VTosefta Ohalot 12:1
p793
sg143
(lp794
sg145
g99
sg146
Nsg147
(lp795
I12
aI1
asg149
Nsg150
g793
sg151
(lp796
sg153
g60
sg154
Nsg155
Nsg156
Nsbag3
(g4
g5
NtRp797
(dp798
g8
g10
sg134
Nsg135
(dp799
sg137
Nsg25
g27
sg138
(lp800
I12
aI2
asg140
Nsg141
VTosefta Ohalot 12:2
p801
sg143
(lp802
sg145
g99
sg146
Nsg147
(lp803
I12
aI2
asg149
Nsg150
g801
sg151
(lp804
sg153
g60
sg154
Nsg155
Nsg156
Nsbag3
(g4
g5
NtRp805
(dp806
g8
g10
sg134
Nsg135
(dp807
sg137
Nsg25
g27
sg138
(lp808
I12
aI3
asg140
Nsg141
VTosefta Ohalot 12:3
p809
sg143
(lp810
sg145
g99
sg146
Nsg147
(lp811
I12
aI3
asg149
Nsg150
g809
sg151
(lp812
sg153
g60
sg154
Nsg155
Nsg156
Nsbag3
(g4
g5
NtRp813
(dp814
g8
g10
sg134
Nsg135
(dp815
sg137
Nsg25
g27
sg138
(lp816
I12
aI4
asg140
Nsg141
VTosefta Ohalot 12:4
p817
sg143
(lp818
sg145
g99
sg146
Nsg147
(lp819
I12
aI4
asg149
Nsg150
g817
sg151
(lp820
sg153
g60
sg154
Nsg155
Nsg156
Nsbag3
(g4
g5
NtRp821
(dp822
g8
g10
sg134
Nsg135
(dp823
sg137
Nsg25
g27
sg138
(lp824
I12
aI5
asg140
Nsg141
VTosefta Ohalot 12:5
p825
sg143
(lp826
sg145
g99
sg146
Nsg147
(lp827
I12
aI5
asg149
Nsg150
g825
sg151
(lp828
sg153
g60
sg154
Nsg155
Nsg156
Nsbag3
(g4
g5
NtRp829
(dp830
g8
g10
sg134
Nsg135
(dp831
sg137
Nsg25
g27
sg138
(lp832
I12
aI6
asg140
Nsg141
VTosefta Ohalot 12:6
p833
sg143
(lp834
sg145
g99
sg146
Nsg147
(lp835
I12
aI6
asg149
Nsg150
g833
sg151
(lp836
sg153
g60
sg154
Nsg155
Nsg156
Nsbag3
(g4
g5
NtRp837
(dp838
g8
g10
sg134
Nsg135
(dp839
sg137
Nsg25
g27
sg138
(lp840
I13
aI1
asg140
Nsg141
VTosefta Ohalot 13:1
p841
sg143
(lp842
sg145
g99
sg146
Nsg147
(lp843
I13
aI1
asg149
Nsg150
g841
sg151
(lp844
sg153
g60
sg154
Nsg155
Nsg156
Nsbag3
(g4
g5
NtRp845
(dp846
g8
g10
sg134
Nsg135
(dp847
sg137
Nsg25
g27
sg138
(lp848
I13
aI2
asg140
Nsg141
VTosefta Ohalot 13:2
p849
sg143
(lp850
sg145
g99
sg146
Nsg147
(lp851
I13
aI2
asg149
Nsg150
g849
sg151
(lp852
sg153
g60
sg154
Nsg155
Nsg156
Nsbag3
(g4
g5
NtRp853
(dp854
g8
g10
sg134
Nsg135
(dp855
sg137
Nsg25
g27
sg138
(lp856
I13
aI3
asg140
Nsg141
VTosefta Ohalot 13:3
p857
sg143
(lp858
sg145
g99
sg146
Nsg147
(lp859
I13
aI3
asg149
Nsg150
g857
sg151
(lp860
sg153
g60
sg154
Nsg155
Nsg156
Nsbag3
(g4
g5
NtRp861
(dp862
g8
g10
sg134
Nsg135
(dp863
sg137
Nsg25
g27
sg138
(lp864
I13
aI4
asg140
Nsg141
VTosefta Ohalot 13:4
p865
sg143
(lp866
sg145
g99
sg146
Nsg147
(lp867
I13
aI4
asg149
Nsg150
g865
sg151
(lp868
sg153
g60
sg154
Nsg155
Nsg156
Nsbag3
(g4
g5
NtRp869
(dp870
g8
g10
sg134
Nsg135
(dp871
sg137
Nsg25
g27
sg138
(lp872
I13
aI5
asg140
Nsg141
VTosefta Ohalot 13:5
p873
sg143
(lp874
sg145
g99
sg146
Nsg147
(lp875
I13
aI5
asg149
Nsg150
g873
sg151
(lp876
sg153
g60
sg154
Nsg155
Nsg156
Nsbag3
(g4
g5
NtRp877
(dp878
g8
g10
sg134
Nsg135
(dp879
sg137
Nsg25
g27
sg138
(lp880
I13
aI6
asg140
Nsg141
VTosefta Ohalot 13:6
p881
sg143
(lp882
sg145
g99
sg146
Nsg147
(lp883
I13
aI6
asg149
Nsg150
g881
sg151
(lp884
sg153
g60
sg154
Nsg155
Nsg156
Nsbag3
(g4
g5
NtRp885
(dp886
g8
g10
sg134
Nsg135
(dp887
sg137
Nsg25
g27
sg138
(lp888
I13
aI7
asg140
Nsg141
VTosefta Ohalot 13:7
p889
sg143
(lp890
sg145
g99
sg146
Nsg147
(lp891
I13
aI7
asg149
Nsg150
g889
sg151
(lp892
sg153
g60
sg154
Nsg155
Nsg156
Nsbag3
(g4
g5
NtRp893
(dp894
g8
g10
sg134
Nsg135
(dp895
sg137
Nsg25
g27
sg138
(lp896
I13
aI8
asg140
Nsg141
VTosefta Ohalot 13:8
p897
sg143
(lp898
sg145
g99
sg146
Nsg147
(lp899
I13
aI8
asg149
Nsg150
g897
sg151
(lp900
sg153
g60
sg154
Nsg155
Nsg156
Nsbag3
(g4
g5
NtRp901
(dp902
g8
g10
sg134
Nsg135
(dp903
sg137
Nsg25
g27
sg138
(lp904
I13
aI9
asg140
Nsg141
VTosefta Ohalot 13:9
p905
sg143
(lp906
sg145
g99
sg146
Nsg147
(lp907
I13
aI9
asg149
Nsg150
g905
sg151
(lp908
sg153
g60
sg154
Nsg155
Nsg156
Nsbag3
(g4
g5
NtRp909
(dp910
g8
g10
sg134
Nsg135
(dp911
sg137
Nsg25
g27
sg138
(lp912
I13
aI10
asg140
Nsg141
VTosefta Ohalot 13:10
p913
sg143
(lp914
sg145
g99
sg146
Nsg147
(lp915
I13
aI10
asg149
Nsg150
g913
sg151
(lp916
sg153
g60
sg154
Nsg155
Nsg156
Nsbag3
(g4
g5
NtRp917
(dp918
g8
g10
sg134
Nsg135
(dp919
sg137
Nsg25
g27
sg138
(lp920
I14
aI1
asg140
Nsg141
VTosefta Ohalot 14:1
p921
sg143
(lp922
sg145
g99
sg146
Nsg147
(lp923
I14
aI1
asg149
Nsg150
g921
sg151
(lp924
sg153
g60
sg154
Nsg155
Nsg156
Nsbag3
(g4
g5
NtRp925
(dp926
g8
g10
sg134
Nsg135
(dp927
sg137
Nsg25
g27
sg138
(lp928
I14
aI2
asg140
Nsg141
VTosefta Ohalot 14:2
p929
sg143
(lp930
sg145
g99
sg146
Nsg147
(lp931
I14
aI2
asg149
Nsg150
g929
sg151
(lp932
sg153
g60
sg154
Nsg155
Nsg156
Nsbag3
(g4
g5
NtRp933
(dp934
g8
g10
sg134
Nsg135
(dp935
sg137
Nsg25
g27
sg138
(lp936
I14
aI3
asg140
Nsg141
VTosefta Ohalot 14:3
p937
sg143
(lp938
sg145
g99
sg146
Nsg147
(lp939
I14
aI3
asg149
Nsg150
g937
sg151
(lp940
sg153
g60
sg154
Nsg155
Nsg156
Nsbag3
(g4
g5
NtRp941
(dp942
g8
g10
sg134
Nsg135
(dp943
sg137
Nsg25
g27
sg138
(lp944
I14
aI4
asg140
Nsg141
VTosefta Ohalot 14:4
p945
sg143
(lp946
sg145
g99
sg146
Nsg147
(lp947
I14
aI4
asg149
Nsg150
g945
sg151
(lp948
sg153
g60
sg154
Nsg155
Nsg156
Nsbag3
(g4
g5
NtRp949
(dp950
g8
g10
sg134
Nsg135
(dp951
sg137
Nsg25
g27
sg138
(lp952
I14
aI5
asg140
Nsg141
VTosefta Ohalot 14:5
p953
sg143
(lp954
sg145
g99
sg146
Nsg147
(lp955
I14
aI5
asg149
Nsg150
g953
sg151
(lp956
sg153
g60
sg154
Nsg155
Nsg156
Nsbag3
(g4
g5
NtRp957
(dp958
g8
g10
sg134
Nsg135
(dp959
sg137
Nsg25
g27
sg138
(lp960
I14
aI6
asg140
Nsg141
VTosefta Ohalot 14:6
p961
sg143
(lp962
sg145
g99
sg146
Nsg147
(lp963
I14
aI6
asg149
Nsg150
g961
sg151
(lp964
sg153
g60
sg154
Nsg155
Nsg156
Nsbag3
(g4
g5
NtRp965
(dp966
g8
g10
sg134
Nsg135
(dp967
sg137
Nsg25
g27
sg138
(lp968
I14
aI7
asg140
Nsg141
VTosefta Ohalot 14:7
p969
sg143
(lp970
sg145
g99
sg146
Nsg147
(lp971
I14
aI7
asg149
Nsg150
g969
sg151
(lp972
sg153
g60
sg154
Nsg155
Nsg156
Nsbag3
(g4
g5
NtRp973
(dp974
g8
g10
sg134
Nsg135
(dp975
sg137
Nsg25
g27
sg138
(lp976
I14
aI8
asg140
Nsg141
VTosefta Ohalot 14:8
p977
sg143
(lp978
sg145
g99
sg146
Nsg147
(lp979
I14
aI8
asg149
Nsg150
g977
sg151
(lp980
sg153
g60
sg154
Nsg155
Nsg156
Nsbag3
(g4
g5
NtRp981
(dp982
g8
g10
sg134
Nsg135
(dp983
sg137
Nsg25
g27
sg138
(lp984
I14
aI9
asg140
Nsg141
VTosefta Ohalot 14:9
p985
sg143
(lp986
sg145
g99
sg146
Nsg147
(lp987
I14
aI9
asg149
Nsg150
g985
sg151
(lp988
sg153
g60
sg154
Nsg155
Nsg156
Nsbag3
(g4
g5
NtRp989
(dp990
g8
g10
sg134
Nsg135
(dp991
sg137
Nsg25
g27
sg138
(lp992
I14
aI10
asg140
Nsg141
VTosefta Ohalot 14:10
p993
sg143
(lp994
sg145
g99
sg146
Nsg147
(lp995
I14
aI10
asg149
Nsg150
g993
sg151
(lp996
sg153
g60
sg154
Nsg155
Nsg156
Nsbag3
(g4
g5
NtRp997
(dp998
g8
g10
sg134
Nsg135
(dp999
sg137
Nsg25
g27
sg138
(lp1000
I15
aI1
asg140
Nsg141
VTosefta Ohalot 15:1
p1001
sg143
(lp1002
sg145
g99
sg146
Nsg147
(lp1003
I15
aI1
asg149
Nsg150
g1001
sg151
(lp1004
sg153
g60
sg154
Nsg155
Nsg156
Nsbag3
(g4
g5
NtRp1005
(dp1006
g8
g10
sg134
Nsg135
(dp1007
sg137
Nsg25
g27
sg138
(lp1008
I15
aI2
asg140
Nsg141
VTosefta Ohalot 15:2
p1009
sg143
(lp1010
sg145
g99
sg146
Nsg147
(lp1011
I15
aI2
asg149
Nsg150
g1009
sg151
(lp1012
sg153
g60
sg154
Nsg155
Nsg156
Nsbag3
(g4
g5
NtRp1013
(dp1014
g8
g10
sg134
Nsg135
(dp1015
sg137
Nsg25
g27
sg138
(lp1016
I15
aI3
asg140
Nsg141
VTosefta Ohalot 15:3
p1017
sg143
(lp1018
sg145
g99
sg146
Nsg147
(lp1019
I15
aI3
asg149
Nsg150
g1017
sg151
(lp1020
sg153
g60
sg154
Nsg155
Nsg156
Nsbag3
(g4
g5
NtRp1021
(dp1022
g8
g10
sg134
Nsg135
(dp1023
sg137
Nsg25
g27
sg138
(lp1024
I15
aI4
asg140
Nsg141
VTosefta Ohalot 15:4
p1025
sg143
(lp1026
sg145
g99
sg146
Nsg147
(lp1027
I15
aI4
asg149
Nsg150
g1025
sg151
(lp1028
sg153
g60
sg154
Nsg155
Nsg156
Nsbag3
(g4
g5
NtRp1029
(dp1030
g8
g10
sg134
Nsg135
(dp1031
sg137
Nsg25
g27
sg138
(lp1032
I15
aI5
asg140
Nsg141
VTosefta Ohalot 15:5
p1033
sg143
(lp1034
sg145
g99
sg146
Nsg147
(lp1035
I15
aI5
asg149
Nsg150
g1033
sg151
(lp1036
sg153
g60
sg154
Nsg155
Nsg156
Nsbag3
(g4
g5
NtRp1037
(dp1038
g8
g10
sg134
Nsg135
(dp1039
sg137
Nsg25
g27
sg138
(lp1040
I15
aI6
asg140
Nsg141
VTosefta Ohalot 15:6
p1041
sg143
(lp1042
sg145
g99
sg146
Nsg147
(lp1043
I15
aI6
asg149
Nsg150
g1041
sg151
(lp1044
sg153
g60
sg154
Nsg155
Nsg156
Nsbag3
(g4
g5
NtRp1045
(dp1046
g8
g10
sg134
Nsg135
(dp1047
sg137
Nsg25
g27
sg138
(lp1048
I15
aI7
asg140
Nsg141
VTosefta Ohalot 15:7
p1049
sg143
(lp1050
sg145
g99
sg146
Nsg147
(lp1051
I15
aI7
asg149
Nsg150
g1049
sg151
(lp1052
sg153
g60
sg154
Nsg155
Nsg156
Nsbag3
(g4
g5
NtRp1053
(dp1054
g8
g10
sg134
Nsg135
(dp1055
sg137
Nsg25
g27
sg138
(lp1056
I15
aI8
asg140
Nsg141
VTosefta Ohalot 15:8
p1057
sg143
(lp1058
sg145
g99
sg146
Nsg147
(lp1059
I15
aI8
asg149
Nsg150
g1057
sg151
(lp1060
sg153
g60
sg154
Nsg155
Nsg156
Nsbag3
(g4
g5
NtRp1061
(dp1062
g8
g10
sg134
Nsg135
(dp1063
sg137
Nsg25
g27
sg138
(lp1064
I15
aI9
asg140
Nsg141
VTosefta Ohalot 15:9
p1065
sg143
(lp1066
sg145
g99
sg146
Nsg147
(lp1067
I15
aI9
asg149
Nsg150
g1065
sg151
(lp1068
sg153
g60
sg154
Nsg155
Nsg156
Nsbag3
(g4
g5
NtRp1069
(dp1070
g8
g10
sg134
Nsg135
(dp1071
sg137
Nsg25
g27
sg138
(lp1072
I15
aI10
asg140
Nsg141
VTosefta Ohalot 15:10
p1073
sg143
(lp1074
sg145
g99
sg146
Nsg147
(lp1075
I15
aI10
asg149
Nsg150
g1073
sg151
(lp1076
sg153
g60
sg154
Nsg155
Nsg156
Nsbag3
(g4
g5
NtRp1077
(dp1078
g8
g10
sg134
Nsg135
(dp1079
sg137
Nsg25
g27
sg138
(lp1080
I16
aI1
asg140
Nsg141
VTosefta Ohalot 16:1
p1081
sg143
(lp1082
sg145
g99
sg146
Nsg147
(lp1083
I16
aI1
asg149
Nsg150
g1081
sg151
(lp1084
sg153
g60
sg154
Nsg155
Nsg156
Nsbag3
(g4
g5
NtRp1085
(dp1086
g8
g10
sg134
Nsg135
(dp1087
sg137
Nsg25
g27
sg138
(lp1088
I16
aI2
asg140
Nsg141
VTosefta Ohalot 16:2
p1089
sg143
(lp1090
sg145
g99
sg146
Nsg147
(lp1091
I16
aI2
asg149
Nsg150
g1089
sg151
(lp1092
sg153
g60
sg154
Nsg155
Nsg156
Nsbag3
(g4
g5
NtRp1093
(dp1094
g8
g10
sg134
Nsg135
(dp1095
sg137
Nsg25
g27
sg138
(lp1096
I16
aI3
asg140
Nsg141
VTosefta Ohalot 16:3
p1097
sg143
(lp1098
sg145
g99
sg146
Nsg147
(lp1099
I16
aI3
asg149
Nsg150
g1097
sg151
(lp1100
sg153
g60
sg154
Nsg155
Nsg156
Nsbag3
(g4
g5
NtRp1101
(dp1102
g8
g10
sg134
Nsg135
(dp1103
sg137
Nsg25
g27
sg138
(lp1104
I16
aI4
asg140
Nsg141
VTosefta Ohalot 16:4
p1105
sg143
(lp1106
sg145
g99
sg146
Nsg147
(lp1107
I16
aI4
asg149
Nsg150
g1105
sg151
(lp1108
sg153
g60
sg154
Nsg155
Nsg156
Nsbag3
(g4
g5
NtRp1109
(dp1110
g8
g10
sg134
Nsg135
(dp1111
sg137
Nsg25
g27
sg138
(lp1112
I16
aI5
asg140
Nsg141
VTosefta Ohalot 16:5
p1113
sg143
(lp1114
sg145
g99
sg146
Nsg147
(lp1115
I16
aI5
asg149
Nsg150
g1113
sg151
(lp1116
sg153
g60
sg154
Nsg155
Nsg156
Nsbag3
(g4
g5
NtRp1117
(dp1118
g8
g10
sg134
Nsg135
(dp1119
sg137
Nsg25
g27
sg138
(lp1120
I16
aI6
asg140
Nsg141
VTosefta Ohalot 16:6
p1121
sg143
(lp1122
sg145
g99
sg146
Nsg147
(lp1123
I16
aI6
asg149
Nsg150
g1121
sg151
(lp1124
sg153
g60
sg154
Nsg155
Nsg156
Nsbag3
(g4
g5
NtRp1125
(dp1126
g8
g10
sg134
Nsg135
(dp1127
sg137
Nsg25
g27
sg138
(lp1128
I16
aI7
asg140
Nsg141
VTosefta Ohalot 16:7
p1129
sg143
(lp1130
sg145
g99
sg146
Nsg147
(lp1131
I16
aI7
asg149
Nsg150
g1129
sg151
(lp1132
sg153
g60
sg154
Nsg155
Nsg156
Nsbag3
(g4
g5
NtRp1133
(dp1134
g8
g10
sg134
Nsg135
(dp1135
sg137
Nsg25
g27
sg138
(lp1136
I17
aI1
asg140
Nsg141
VTosefta Ohalot 17:1
p1137
sg143
(lp1138
sg145
g99
sg146
Nsg147
(lp1139
I17
aI1
asg149
Nsg150
g1137
sg151
(lp1140
sg153
g60
sg154
Nsg155
Nsg156
Nsbag3
(g4
g5
NtRp1141
(dp1142
g8
g10
sg134
Nsg135
(dp1143
sg137
Nsg25
g27
sg138
(lp1144
I17
aI2
asg140
Nsg141
VTosefta Ohalot 17:2
p1145
sg143
(lp1146
sg145
g99
sg146
Nsg147
(lp1147
I17
aI2
asg149
Nsg150
g1145
sg151
(lp1148
sg153
g60
sg154
Nsg155
Nsg156
Nsbag3
(g4
g5
NtRp1149
(dp1150
g8
g10
sg134
Nsg135
(dp1151
sg137
Nsg25
g27
sg138
(lp1152
I17
aI3
asg140
Nsg141
VTosefta Ohalot 17:3
p1153
sg143
(lp1154
sg145
g99
sg146
Nsg147
(lp1155
I17
aI3
asg149
Nsg150
g1153
sg151
(lp1156
sg153
g60
sg154
Nsg155
Nsg156
Nsbag3
(g4
g5
NtRp1157
(dp1158
g8
g10
sg134
Nsg135
(dp1159
sg137
Nsg25
g27
sg138
(lp1160
I17
aI4
asg140
Nsg141
VTosefta Ohalot 17:4
p1161
sg143
(lp1162
sg145
g99
sg146
Nsg147
(lp1163
I17
aI4
asg149
Nsg150
g1161
sg151
(lp1164
sg153
g60
sg154
Nsg155
Nsg156
Nsbag3
(g4
g5
NtRp1165
(dp1166
g8
g10
sg134
Nsg135
(dp1167
sg137
Nsg25
g27
sg138
(lp1168
I17
aI5
asg140
Nsg141
VTosefta Ohalot 17:5
p1169
sg143
(lp1170
sg145
g99
sg146
Nsg147
(lp1171
I17
aI5
asg149
Nsg150
g1169
sg151
(lp1172
sg153
g60
sg154
Nsg155
Nsg156
Nsbag3
(g4
g5
NtRp1173
(dp1174
g8
g10
sg134
Nsg135
(dp1175
sg137
Nsg25
g27
sg138
(lp1176
I17
aI6
asg140
Nsg141
VTosefta Ohalot 17:6
p1177
sg143
(lp1178
sg145
g99
sg146
Nsg147
(lp1179
I17
aI6
asg149
Nsg150
g1177
sg151
(lp1180
sg153
g60
sg154
Nsg155
Nsg156
Nsbag3
(g4
g5
NtRp1181
(dp1182
g8
g10
sg134
Nsg135
(dp1183
sg137
Nsg25
g27
sg138
(lp1184
I17
aI7
asg140
Nsg141
VTosefta Ohalot 17:7
p1185
sg143
(lp1186
sg145
g99
sg146
Nsg147
(lp1187
I17
aI7
asg149
Nsg150
g1185
sg151
(lp1188
sg153
g60
sg154
Nsg155
Nsg156
Nsbag3
(g4
g5
NtRp1189
(dp1190
g8
g10
sg134
Nsg135
(dp1191
sg137
Nsg25
g27
sg138
(lp1192
I17
aI8
asg140
Nsg141
VTosefta Ohalot 17:8
p1193
sg143
(lp1194
sg145
g99
sg146
Nsg147
(lp1195
I17
aI8
asg149
Nsg150
g1193
sg151
(lp1196
sg153
g60
sg154
Nsg155
Nsg156
Nsbag3
(g4
g5
NtRp1197
(dp1198
g8
g10
sg134
Nsg135
(dp1199
sg137
Nsg25
g27
sg138
(lp1200
I17
aI9
asg140
Nsg141
VTosefta Ohalot 17:9
p1201
sg143
(lp1202
sg145
g99
sg146
Nsg147
(lp1203
I17
aI9
asg149
Nsg150
g1201
sg151
(lp1204
sg153
g60
sg154
Nsg155
Nsg156
Nsbag3
(g4
g5
NtRp1205
(dp1206
g8
g10
sg134
Nsg135
(dp1207
sg137
Nsg25
g27
sg138
(lp1208
I17
aI10
asg140
Nsg141
VTosefta Ohalot 17:10
p1209
sg143
(lp1210
sg145
g99
sg146
Nsg147
(lp1211
I17
aI10
asg149
Nsg150
g1209
sg151
(lp1212
sg153
g60
sg154
Nsg155
Nsg156
Nsbag3
(g4
g5
NtRp1213
(dp1214
g8
g10
sg134
Nsg135
(dp1215
sg137
Nsg25
g27
sg138
(lp1216
I17
aI11
asg140
Nsg141
VTosefta Ohalot 17:11
p1217
sg143
(lp1218
sg145
g99
sg146
Nsg147
(lp1219
I17
aI11
asg149
Nsg150
g1217
sg151
(lp1220
sg153
g60
sg154
Nsg155
Nsg156
Nsbag3
(g4
g5
NtRp1221
(dp1222
g8
g10
sg134
Nsg135
(dp1223
sg137
Nsg25
g27
sg138
(lp1224
I17
aI12
asg140
Nsg141
VTosefta Ohalot 17:12
p1225
sg143
(lp1226
sg145
g99
sg146
Nsg147
(lp1227
I17
aI12
asg149
Nsg150
g1225
sg151
(lp1228
sg153
g60
sg154
Nsg155
Nsg156
Nsbag3
(g4
g5
NtRp1229
(dp1230
g8
g10
sg134
Nsg135
(dp1231
sg137
Nsg25
g27
sg138
(lp1232
I18
aI1
asg140
Nsg141
VTosefta Ohalot 18:1
p1233
sg143
(lp1234
sg145
g99
sg146
Nsg147
(lp1235
I18
aI1
asg149
Nsg150
g1233
sg151
(lp1236
sg153
g60
sg154
Nsg155
Nsg156
Nsbag3
(g4
g5
NtRp1237
(dp1238
g8
g10
sg134
Nsg135
(dp1239
sg137
Nsg25
g27
sg138
(lp1240
I18
aI2
asg140
Nsg141
VTosefta Ohalot 18:2
p1241
sg143
(lp1242
sg145
g99
sg146
Nsg147
(lp1243
I18
aI2
asg149
Nsg150
g1241
sg151
(lp1244
sg153
g60
sg154
Nsg155
Nsg156
Nsbag3
(g4
g5
NtRp1245
(dp1246
g8
g10
sg134
Nsg135
(dp1247
sg137
Nsg25
g27
sg138
(lp1248
I18
aI3
asg140
Nsg141
VTosefta Ohalot 18:3
p1249
sg143
(lp1250
sg145
g99
sg146
Nsg147
(lp1251
I18
aI3
asg149
Nsg150
g1249
sg151
(lp1252
sg153
g60
sg154
Nsg155
Nsg156
Nsbag3
(g4
g5
NtRp1253
(dp1254
g8
g10
sg134
Nsg135
(dp1255
sg137
Nsg25
g27
sg138
(lp1256
I18
aI4
asg140
Nsg141
VTosefta Ohalot 18:4
p1257
sg143
(lp1258
sg145
g99
sg146
Nsg147
(lp1259
I18
aI4
asg149
Nsg150
g1257
sg151
(lp1260
sg153
g60
sg154
Nsg155
Nsg156
Nsbag3
(g4
g5
NtRp1261
(dp1262
g8
g10
sg134
Nsg135
(dp1263
sg137
Nsg25
g27
sg138
(lp1264
I18
aI5
asg140
Nsg141
VTosefta Ohalot 18:5
p1265
sg143
(lp1266
sg145
g99
sg146
Nsg147
(lp1267
I18
aI5
asg149
Nsg150
g1265
sg151
(lp1268
sg153
g60
sg154
Nsg155
Nsg156
Nsbag3
(g4
g5
NtRp1269
(dp1270
g8
g10
sg134
Nsg135
(dp1271
sg137
Nsg25
g27
sg138
(lp1272
I18
aI6
asg140
Nsg141
VTosefta Ohalot 18:6
p1273
sg143
(lp1274
sg145
g99
sg146
Nsg147
(lp1275
I18
aI6
asg149
Nsg150
g1273
sg151
(lp1276
sg153
g60
sg154
Nsg155
Nsg156
Nsbag3
(g4
g5
NtRp1277
(dp1278
g8
g10
sg134
Nsg135
(dp1279
sg137
Nsg25
g27
sg138
(lp1280
I18
aI7
asg140
Nsg141
VTosefta Ohalot 18:7
p1281
sg143
(lp1282
sg145
g99
sg146
Nsg147
(lp1283
I18
aI7
asg149
Nsg150
g1281
sg151
(lp1284
sg153
g60
sg154
Nsg155
Nsg156
Nsbag3
(g4
g5
NtRp1285
(dp1286
g8
g10
sg134
Nsg135
(dp1287
sg137
Nsg25
g27
sg138
(lp1288
I18
aI8
asg140
Nsg141
VTosefta Ohalot 18:8
p1289
sg143
(lp1290
sg145
g99
sg146
Nsg147
(lp1291
I18
aI8
asg149
Nsg150
g1289
sg151
(lp1292
sg153
g60
sg154
Nsg155
Nsg156
Nsbag3
(g4
g5
NtRp1293
(dp1294
g8
g10
sg134
Nsg135
(dp1295
sg137
Nsg25
g27
sg138
(lp1296
I18
aI9
asg140
Nsg141
VTosefta Ohalot 18:9
p1297
sg143
(lp1298
sg145
g99
sg146
Nsg147
(lp1299
I18
aI9
asg149
Nsg150
g1297
sg151
(lp1300
sg153
g60
sg154
Nsg155
Nsg156
Nsbag3
(g4
g5
NtRp1301
(dp1302
g8
g10
sg134
Nsg135
(dp1303
sg137
Nsg25
g27
sg138
(lp1304
I18
aI10
asg140
Nsg141
VTosefta Ohalot 18:10
p1305
sg143
(lp1306
sg145
g99
sg146
Nsg147
(lp1307
I18
aI10
asg149
Nsg150
g1305
sg151
(lp1308
sg153
g60
sg154
Nsg155
Nsg156
NsbaI9716
t.