((lp1
I0
aI51
aI85
aI109
aI129
aI160
aI231
aI283
aI326
aI377
aI482
aI526
aI564
aI609
aI681
aI754
aI817
aI884
aI954
aI980
aI1013
aI1083
aI1154
aI1246
aI1306
aI1337
aI1389
aI1447
aI1524
aI1553
aI1581
aI1616
aI1662
aI1720
aI1764
aI1877
aI1930
aI1987
aI2026
aI2225
aI2259
aI2310
aI2355
aI2436
aI2509
aI2547
aI2633
aI2718
aI2776
aI2820
aI2899
aI2967
aI3002
aI3027
aI3072
aI3147
aI3175
aI3215
aI3264
aI3286
aI3311
aI3353
aI3375
aI3450
aI3513
aI3555
aI3601
aI3650
aI3703
aI3791
aI3930
aI4044
aI4074
aI4125
aI4177
aI4228
aI4271
aI4324
aI4375
aI4472
aI4512
aI4556
aI4610
aI4657
aI4731
aI4796
aI4827
aI4875
aI4941
aI4971
aI5019
aI5130
aI5210
aI5245
aI5275
aI5304
aI5354
aI5436
aI5530
aI5646
aI5771
aI5821
aI5907
aI5976
aI5989
aI6088
aI6201
aI6262
aI6286
aI6338
aI6385
aI6430
aI6454
aI6472
aI6517
aI6533
aI6544
a(lp2
ccopy_reg
_reconstructor
p3
(csefaria.model.text
Ref
p4
c__builtin__
object
p5
NtRp6
(dp7
S'index_node'
p8
g3
(csefaria.model.schema
JaggedArrayNode
p9
g5
NtRp10
(dp11
S'_address'
p12
(lp13
VTosefta Eiruvin
p14
asS'_full_titles'
p15
(dp16
sVnodeType
p17
VJaggedArrayNode
p18
sS'parent'
p19
NsVaddressTypes
p20
(lp21
VInteger
p22
aVInteger
p23
asS'default'
p24
I00
sS'index'
p25
g3
(csefaria.model.text
Index
p26
g5
NtRp27
(dp28
S'struct_objs'
p29
(dp30
sS'_id'
p31
g3
(cbson.objectid
ObjectId
p32
g5
NtRp33
S'Q\xf5d0\xed\xba\xb4k\xf0c\xd5\x97'
p34
bsS'pkeys_orig_values'
p35
(dp36
S'title'
p37
VTosefta Eiruvin
p38
ssS'pubDate'
p39
V1521
p40
sS'transliteratedTitle'
p41
VTosefta Eiruvin
p42
sS'pubPlace'
p43
VVenice
p44
sS'compPlace'
p45
VTalmudic Israel
p46
sS'enDesc'
p47
VThe Tosefta (Supplement, addition") is a compilation of the Jewish oral law. Opinions differ widely as to when the Tosefta was redacted and how it relates to the Mishnah. However it closely corresponds to the Mishnah in structure and style, with the same divisions for sedarim ("orders") and masekhot ("tractates"). In many ways, the Tosefta acts as a supplement to the Mishnah. It is mainly written in Mishnaic Hebrew, with some Aramaic. Eruvim (Mixtures) belongs to the second order, Moed (Festivals) and discusses the Eruv or Sabbath-bound - a category of constructions/delineations that alter the domains of the Sabbath for carrying and travel. It has eight chapters.
p48
sS'order'
p49
(lp50
I2
asS'era'
p51
VT
sS'compDate'
p52
V210
p53
sS'nodes'
p54
g10
sS'errorMargin'
p55
V20
p56
sS'_title'
p57
g38
sS'categories'
p58
(lp59
VTosefta
p60
aVSeder Moed
p61
asS'schema'
p62
(dp63
g17
g18
sg20
g21
sVlengths
p64
(lp65
I8
asVdepth
p66
I2
sVtitles
p67
(lp68
(dp69
Vlang
p70
Ven
p71
sVtext
p72
VTos. Eiruvin
p73
sa(dp74
Vlang
p75
Ven
p76
sVtext
p77
VT. Eruvin
p78
sa(dp79
Vlang
p80
Ven
p81
sVtext
p82
VTosefta Eruvin
p83
sa(dp84
Vlang
p85
Ven
p86
sVtext
p87
VT. Eiruvin
p88
sa(dp89
Vlang
p90
Ven
p91
sVtext
p92
VTos. Eruvin
p93
sa(dp94
Vlang
p95
Vhe
p96
sVtext
p97
V\u05ea\u05d5\u05e1\u05e4\u05ea\u05d0 \u05e2\u05d9\u05e8\u05d5\u05d1\u05d9\u05df
p98
sVprimary
p99
I01
sa(dp100
Vlang
p101
Ven
p102
sVtext
p103
VTosefta Eiruvin
p104
sVprimary
p105
I01
sasVkey
p106
g14
sVsectionNames
p107
(lp108
VChapter
p109
aVTosefta
p110
assbsS'_primary_title'
p111
(dp112
sS'title_group'
p113
g3
(csefaria.model.schema
TitleGroup
p114
g5
NtRp115
(dp116
g111
(dp117
S'en'
p118
g104
ssS'titles'
p119
g68
sbsS'_addressTypes'
p120
(lp121
g3
(csefaria.model.schema
AddressInteger
p122
g5
NtRp123
(dp124
S'length'
p125
I8
sg49
I0
sbag3
(g122
g5
NtRp126
(dp127
g125
Nsg49
I1
sbasS'sharedTitle'
p128
Nsg64
g65
sg66
I2
sS'_full_title'
p129
(dp130
g118
g104
ssS'key'
p131
g14
sS'checkFirst'
p132
NsS'_regexes'
p133
(dp134
sS'_leaf_nodes'
p135
(lp136
sg107
g108
sS'children'
p137
(lp138
sbsS'_range_index'
p139
NsS'_context'
p140
(dp141
sS'_padded'
p142
Nsg25
g27
sS'sections'
p143
(lp144
I1
aI1
asS'_first_spanned_ref'
p145
NsS'tref'
p146
VTosefta Eiruvin 1:1
p147
sS'_spanned_refs'
p148
(lp149
sS'book'
p150
g104
sS'_range_depth'
p151
NsS'toSections'
p152
(lp153
I1
aI1
asS'_url'
p154
NsS'_normal'
p155
g147
sS'_ranged_refs'
p156
(lp157
sS'type'
p158
g60
sS'_prev'
p159
NsS'_he_normal'
p160
NsS'_next'
p161
Nsbag3
(g4
g5
NtRp162
(dp163
g8
g10
sg139
Nsg140
(dp164
sg142
Nsg25
g27
sg143
(lp165
I1
aI2
asg145
Nsg146
VTosefta Eiruvin 1:2
p166
sg148
(lp167
sg150
g104
sg151
Nsg152
(lp168
I1
aI2
asg154
Nsg155
g166
sg156
(lp169
sg158
g60
sg159
Nsg160
Nsg161
Nsbag3
(g4
g5
NtRp170
(dp171
g8
g10
sg139
Nsg140
(dp172
sg142
Nsg25
g27
sg143
(lp173
I1
aI3
asg145
Nsg146
VTosefta Eiruvin 1:3
p174
sg148
(lp175
sg150
g104
sg151
Nsg152
(lp176
I1
aI3
asg154
Nsg155
g174
sg156
(lp177
sg158
g60
sg159
Nsg160
Nsg161
Nsbag3
(g4
g5
NtRp178
(dp179
g8
g10
sg139
Nsg140
(dp180
sg142
Nsg25
g27
sg143
(lp181
I1
aI4
asg145
Nsg146
VTosefta Eiruvin 1:4
p182
sg148
(lp183
sg150
g104
sg151
Nsg152
(lp184
I1
aI4
asg154
Nsg155
g182
sg156
(lp185
sg158
g60
sg159
Nsg160
Nsg161
Nsbag3
(g4
g5
NtRp186
(dp187
g8
g10
sg139
Nsg140
(dp188
sg142
Nsg25
g27
sg143
(lp189
I1
aI5
asg145
Nsg146
VTosefta Eiruvin 1:5
p190
sg148
(lp191
sg150
g104
sg151
Nsg152
(lp192
I1
aI5
asg154
Nsg155
g190
sg156
(lp193
sg158
g60
sg159
Nsg160
Nsg161
Nsbag3
(g4
g5
NtRp194
(dp195
g8
g10
sg139
Nsg140
(dp196
sg142
Nsg25
g27
sg143
(lp197
I1
aI6
asg145
Nsg146
VTosefta Eiruvin 1:6
p198
sg148
(lp199
sg150
g104
sg151
Nsg152
(lp200
I1
aI6
asg154
Nsg155
g198
sg156
(lp201
sg158
g60
sg159
Nsg160
Nsg161
Nsbag3
(g4
g5
NtRp202
(dp203
g8
g10
sg139
Nsg140
(dp204
sg142
Nsg25
g27
sg143
(lp205
I1
aI7
asg145
Nsg146
VTosefta Eiruvin 1:7
p206
sg148
(lp207
sg150
g104
sg151
Nsg152
(lp208
I1
aI7
asg154
Nsg155
g206
sg156
(lp209
sg158
g60
sg159
Nsg160
Nsg161
Nsbag3
(g4
g5
NtRp210
(dp211
g8
g10
sg139
Nsg140
(dp212
sg142
Nsg25
g27
sg143
(lp213
I1
aI8
asg145
Nsg146
VTosefta Eiruvin 1:8
p214
sg148
(lp215
sg150
g104
sg151
Nsg152
(lp216
I1
aI8
asg154
Nsg155
g214
sg156
(lp217
sg158
g60
sg159
Nsg160
Nsg161
Nsbag3
(g4
g5
NtRp218
(dp219
g8
g10
sg139
Nsg140
(dp220
sg142
Nsg25
g27
sg143
(lp221
I1
aI9
asg145
Nsg146
VTosefta Eiruvin 1:9
p222
sg148
(lp223
sg150
g104
sg151
Nsg152
(lp224
I1
aI9
asg154
Nsg155
g222
sg156
(lp225
sg158
g60
sg159
Nsg160
Nsg161
Nsbag3
(g4
g5
NtRp226
(dp227
g8
g10
sg139
Nsg140
(dp228
sg142
Nsg25
g27
sg143
(lp229
I1
aI10
asg145
Nsg146
VTosefta Eiruvin 1:10
p230
sg148
(lp231
sg150
g104
sg151
Nsg152
(lp232
I1
aI10
asg154
Nsg155
g230
sg156
(lp233
sg158
g60
sg159
Nsg160
Nsg161
Nsbag3
(g4
g5
NtRp234
(dp235
g8
g10
sg139
Nsg140
(dp236
sg142
Nsg25
g27
sg143
(lp237
I1
aI11
asg145
Nsg146
VTosefta Eiruvin 1:11
p238
sg148
(lp239
sg150
g104
sg151
Nsg152
(lp240
I1
aI11
asg154
Nsg155
g238
sg156
(lp241
sg158
g60
sg159
Nsg160
Nsg161
Nsbag3
(g4
g5
NtRp242
(dp243
g8
g10
sg139
Nsg140
(dp244
sg142
Nsg25
g27
sg143
(lp245
I1
aI12
asg145
Nsg146
VTosefta Eiruvin 1:12
p246
sg148
(lp247
sg150
g104
sg151
Nsg152
(lp248
I1
aI12
asg154
Nsg155
g246
sg156
(lp249
sg158
g60
sg159
Nsg160
Nsg161
Nsbag3
(g4
g5
NtRp250
(dp251
g8
g10
sg139
Nsg140
(dp252
sg142
Nsg25
g27
sg143
(lp253
I2
aI1
asg145
Nsg146
VTosefta Eiruvin 2:1
p254
sg148
(lp255
sg150
g104
sg151
Nsg152
(lp256
I2
aI1
asg154
Nsg155
g254
sg156
(lp257
sg158
g60
sg159
Nsg160
Nsg161
Nsbag3
(g4
g5
NtRp258
(dp259
g8
g10
sg139
Nsg140
(dp260
sg142
Nsg25
g27
sg143
(lp261
I2
aI2
asg145
Nsg146
VTosefta Eiruvin 2:2
p262
sg148
(lp263
sg150
g104
sg151
Nsg152
(lp264
I2
aI2
asg154
Nsg155
g262
sg156
(lp265
sg158
g60
sg159
Nsg160
Nsg161
Nsbag3
(g4
g5
NtRp266
(dp267
g8
g10
sg139
Nsg140
(dp268
sg142
Nsg25
g27
sg143
(lp269
I2
aI3
asg145
Nsg146
VTosefta Eiruvin 2:3
p270
sg148
(lp271
sg150
g104
sg151
Nsg152
(lp272
I2
aI3
asg154
Nsg155
g270
sg156
(lp273
sg158
g60
sg159
Nsg160
Nsg161
Nsbag3
(g4
g5
NtRp274
(dp275
g8
g10
sg139
Nsg140
(dp276
sg142
Nsg25
g27
sg143
(lp277
I2
aI4
asg145
Nsg146
VTosefta Eiruvin 2:4
p278
sg148
(lp279
sg150
g104
sg151
Nsg152
(lp280
I2
aI4
asg154
Nsg155
g278
sg156
(lp281
sg158
g60
sg159
Nsg160
Nsg161
Nsbag3
(g4
g5
NtRp282
(dp283
g8
g10
sg139
Nsg140
(dp284
sg142
Nsg25
g27
sg143
(lp285
I2
aI5
asg145
Nsg146
VTosefta Eiruvin 2:5
p286
sg148
(lp287
sg150
g104
sg151
Nsg152
(lp288
I2
aI5
asg154
Nsg155
g286
sg156
(lp289
sg158
g60
sg159
Nsg160
Nsg161
Nsbag3
(g4
g5
NtRp290
(dp291
g8
g10
sg139
Nsg140
(dp292
sg142
Nsg25
g27
sg143
(lp293
I2
aI6
asg145
Nsg146
VTosefta Eiruvin 2:6
p294
sg148
(lp295
sg150
g104
sg151
Nsg152
(lp296
I2
aI6
asg154
Nsg155
g294
sg156
(lp297
sg158
g60
sg159
Nsg160
Nsg161
Nsbag3
(g4
g5
NtRp298
(dp299
g8
g10
sg139
Nsg140
(dp300
sg142
Nsg25
g27
sg143
(lp301
I2
aI7
asg145
Nsg146
VTosefta Eiruvin 2:7
p302
sg148
(lp303
sg150
g104
sg151
Nsg152
(lp304
I2
aI7
asg154
Nsg155
g302
sg156
(lp305
sg158
g60
sg159
Nsg160
Nsg161
Nsbag3
(g4
g5
NtRp306
(dp307
g8
g10
sg139
Nsg140
(dp308
sg142
Nsg25
g27
sg143
(lp309
I2
aI8
asg145
Nsg146
VTosefta Eiruvin 2:8
p310
sg148
(lp311
sg150
g104
sg151
Nsg152
(lp312
I2
aI8
asg154
Nsg155
g310
sg156
(lp313
sg158
g60
sg159
Nsg160
Nsg161
Nsbag3
(g4
g5
NtRp314
(dp315
g8
g10
sg139
Nsg140
(dp316
sg142
Nsg25
g27
sg143
(lp317
I2
aI9
asg145
Nsg146
VTosefta Eiruvin 2:9
p318
sg148
(lp319
sg150
g104
sg151
Nsg152
(lp320
I2
aI9
asg154
Nsg155
g318
sg156
(lp321
sg158
g60
sg159
Nsg160
Nsg161
Nsbag3
(g4
g5
NtRp322
(dp323
g8
g10
sg139
Nsg140
(dp324
sg142
Nsg25
g27
sg143
(lp325
I2
aI10
asg145
Nsg146
VTosefta Eiruvin 2:10
p326
sg148
(lp327
sg150
g104
sg151
Nsg152
(lp328
I2
aI10
asg154
Nsg155
g326
sg156
(lp329
sg158
g60
sg159
Nsg160
Nsg161
Nsbag3
(g4
g5
NtRp330
(dp331
g8
g10
sg139
Nsg140
(dp332
sg142
Nsg25
g27
sg143
(lp333
I2
aI11
asg145
Nsg146
VTosefta Eiruvin 2:11
p334
sg148
(lp335
sg150
g104
sg151
Nsg152
(lp336
I2
aI11
asg154
Nsg155
g334
sg156
(lp337
sg158
g60
sg159
Nsg160
Nsg161
Nsbag3
(g4
g5
NtRp338
(dp339
g8
g10
sg139
Nsg140
(dp340
sg142
Nsg25
g27
sg143
(lp341
I3
aI1
asg145
Nsg146
VTosefta Eiruvin 3:1
p342
sg148
(lp343
sg150
g104
sg151
Nsg152
(lp344
I3
aI1
asg154
Nsg155
g342
sg156
(lp345
sg158
g60
sg159
Nsg160
Nsg161
Nsbag3
(g4
g5
NtRp346
(dp347
g8
g10
sg139
Nsg140
(dp348
sg142
Nsg25
g27
sg143
(lp349
I3
aI2
asg145
Nsg146
VTosefta Eiruvin 3:2
p350
sg148
(lp351
sg150
g104
sg151
Nsg152
(lp352
I3
aI2
asg154
Nsg155
g350
sg156
(lp353
sg158
g60
sg159
Nsg160
Nsg161
Nsbag3
(g4
g5
NtRp354
(dp355
g8
g10
sg139
Nsg140
(dp356
sg142
Nsg25
g27
sg143
(lp357
I3
aI3
asg145
Nsg146
VTosefta Eiruvin 3:3
p358
sg148
(lp359
sg150
g104
sg151
Nsg152
(lp360
I3
aI3
asg154
Nsg155
g358
sg156
(lp361
sg158
g60
sg159
Nsg160
Nsg161
Nsbag3
(g4
g5
NtRp362
(dp363
g8
g10
sg139
Nsg140
(dp364
sg142
Nsg25
g27
sg143
(lp365
I3
aI4
asg145
Nsg146
VTosefta Eiruvin 3:4
p366
sg148
(lp367
sg150
g104
sg151
Nsg152
(lp368
I3
aI4
asg154
Nsg155
g366
sg156
(lp369
sg158
g60
sg159
Nsg160
Nsg161
Nsbag3
(g4
g5
NtRp370
(dp371
g8
g10
sg139
Nsg140
(dp372
sg142
Nsg25
g27
sg143
(lp373
I3
aI5
asg145
Nsg146
VTosefta Eiruvin 3:5
p374
sg148
(lp375
sg150
g104
sg151
Nsg152
(lp376
I3
aI5
asg154
Nsg155
g374
sg156
(lp377
sg158
g60
sg159
Nsg160
Nsg161
Nsbag3
(g4
g5
NtRp378
(dp379
g8
g10
sg139
Nsg140
(dp380
sg142
Nsg25
g27
sg143
(lp381
I3
aI6
asg145
Nsg146
VTosefta Eiruvin 3:6
p382
sg148
(lp383
sg150
g104
sg151
Nsg152
(lp384
I3
aI6
asg154
Nsg155
g382
sg156
(lp385
sg158
g60
sg159
Nsg160
Nsg161
Nsbag3
(g4
g5
NtRp386
(dp387
g8
g10
sg139
Nsg140
(dp388
sg142
Nsg25
g27
sg143
(lp389
I3
aI7
asg145
Nsg146
VTosefta Eiruvin 3:7
p390
sg148
(lp391
sg150
g104
sg151
Nsg152
(lp392
I3
aI7
asg154
Nsg155
g390
sg156
(lp393
sg158
g60
sg159
Nsg160
Nsg161
Nsbag3
(g4
g5
NtRp394
(dp395
g8
g10
sg139
Nsg140
(dp396
sg142
Nsg25
g27
sg143
(lp397
I3
aI8
asg145
Nsg146
VTosefta Eiruvin 3:8
p398
sg148
(lp399
sg150
g104
sg151
Nsg152
(lp400
I3
aI8
asg154
Nsg155
g398
sg156
(lp401
sg158
g60
sg159
Nsg160
Nsg161
Nsbag3
(g4
g5
NtRp402
(dp403
g8
g10
sg139
Nsg140
(dp404
sg142
Nsg25
g27
sg143
(lp405
I3
aI9
asg145
Nsg146
VTosefta Eiruvin 3:9
p406
sg148
(lp407
sg150
g104
sg151
Nsg152
(lp408
I3
aI9
asg154
Nsg155
g406
sg156
(lp409
sg158
g60
sg159
Nsg160
Nsg161
Nsbag3
(g4
g5
NtRp410
(dp411
g8
g10
sg139
Nsg140
(dp412
sg142
Nsg25
g27
sg143
(lp413
I3
aI10
asg145
Nsg146
VTosefta Eiruvin 3:10
p414
sg148
(lp415
sg150
g104
sg151
Nsg152
(lp416
I3
aI10
asg154
Nsg155
g414
sg156
(lp417
sg158
g60
sg159
Nsg160
Nsg161
Nsbag3
(g4
g5
NtRp418
(dp419
g8
g10
sg139
Nsg140
(dp420
sg142
Nsg25
g27
sg143
(lp421
I3
aI11
asg145
Nsg146
VTosefta Eiruvin 3:11
p422
sg148
(lp423
sg150
g104
sg151
Nsg152
(lp424
I3
aI11
asg154
Nsg155
g422
sg156
(lp425
sg158
g60
sg159
Nsg160
Nsg161
Nsbag3
(g4
g5
NtRp426
(dp427
g8
g10
sg139
Nsg140
(dp428
sg142
Nsg25
g27
sg143
(lp429
I3
aI12
asg145
Nsg146
VTosefta Eiruvin 3:12
p430
sg148
(lp431
sg150
g104
sg151
Nsg152
(lp432
I3
aI12
asg154
Nsg155
g430
sg156
(lp433
sg158
g60
sg159
Nsg160
Nsg161
Nsbag3
(g4
g5
NtRp434
(dp435
g8
g10
sg139
Nsg140
(dp436
sg142
Nsg25
g27
sg143
(lp437
I3
aI13
asg145
Nsg146
VTosefta Eiruvin 3:13
p438
sg148
(lp439
sg150
g104
sg151
Nsg152
(lp440
I3
aI13
asg154
Nsg155
g438
sg156
(lp441
sg158
g60
sg159
Nsg160
Nsg161
Nsbag3
(g4
g5
NtRp442
(dp443
g8
g10
sg139
Nsg140
(dp444
sg142
Nsg25
g27
sg143
(lp445
I3
aI14
asg145
Nsg146
VTosefta Eiruvin 3:14
p446
sg148
(lp447
sg150
g104
sg151
Nsg152
(lp448
I3
aI14
asg154
Nsg155
g446
sg156
(lp449
sg158
g60
sg159
Nsg160
Nsg161
Nsbag3
(g4
g5
NtRp450
(dp451
g8
g10
sg139
Nsg140
(dp452
sg142
Nsg25
g27
sg143
(lp453
I3
aI15
asg145
Nsg146
VTosefta Eiruvin 3:15
p454
sg148
(lp455
sg150
g104
sg151
Nsg152
(lp456
I3
aI15
asg154
Nsg155
g454
sg156
(lp457
sg158
g60
sg159
Nsg160
Nsg161
Nsbag3
(g4
g5
NtRp458
(dp459
g8
g10
sg139
Nsg140
(dp460
sg142
Nsg25
g27
sg143
(lp461
I4
aI1
asg145
Nsg146
VTosefta Eiruvin 4:1
p462
sg148
(lp463
sg150
g104
sg151
Nsg152
(lp464
I4
aI1
asg154
Nsg155
g462
sg156
(lp465
sg158
g60
sg159
Nsg160
Nsg161
Nsbag3
(g4
g5
NtRp466
(dp467
g8
g10
sg139
Nsg140
(dp468
sg142
Nsg25
g27
sg143
(lp469
I4
aI2
asg145
Nsg146
VTosefta Eiruvin 4:2
p470
sg148
(lp471
sg150
g104
sg151
Nsg152
(lp472
I4
aI2
asg154
Nsg155
g470
sg156
(lp473
sg158
g60
sg159
Nsg160
Nsg161
Nsbag3
(g4
g5
NtRp474
(dp475
g8
g10
sg139
Nsg140
(dp476
sg142
Nsg25
g27
sg143
(lp477
I4
aI3
asg145
Nsg146
VTosefta Eiruvin 4:3
p478
sg148
(lp479
sg150
g104
sg151
Nsg152
(lp480
I4
aI3
asg154
Nsg155
g478
sg156
(lp481
sg158
g60
sg159
Nsg160
Nsg161
Nsbag3
(g4
g5
NtRp482
(dp483
g8
g10
sg139
Nsg140
(dp484
sg142
Nsg25
g27
sg143
(lp485
I4
aI4
asg145
Nsg146
VTosefta Eiruvin 4:4
p486
sg148
(lp487
sg150
g104
sg151
Nsg152
(lp488
I4
aI4
asg154
Nsg155
g486
sg156
(lp489
sg158
g60
sg159
Nsg160
Nsg161
Nsbag3
(g4
g5
NtRp490
(dp491
g8
g10
sg139
Nsg140
(dp492
sg142
Nsg25
g27
sg143
(lp493
I4
aI5
asg145
Nsg146
VTosefta Eiruvin 4:5
p494
sg148
(lp495
sg150
g104
sg151
Nsg152
(lp496
I4
aI5
asg154
Nsg155
g494
sg156
(lp497
sg158
g60
sg159
Nsg160
Nsg161
Nsbag3
(g4
g5
NtRp498
(dp499
g8
g10
sg139
Nsg140
(dp500
sg142
Nsg25
g27
sg143
(lp501
I4
aI6
asg145
Nsg146
VTosefta Eiruvin 4:6
p502
sg148
(lp503
sg150
g104
sg151
Nsg152
(lp504
I4
aI6
asg154
Nsg155
g502
sg156
(lp505
sg158
g60
sg159
Nsg160
Nsg161
Nsbag3
(g4
g5
NtRp506
(dp507
g8
g10
sg139
Nsg140
(dp508
sg142
Nsg25
g27
sg143
(lp509
I4
aI7
asg145
Nsg146
VTosefta Eiruvin 4:7
p510
sg148
(lp511
sg150
g104
sg151
Nsg152
(lp512
I4
aI7
asg154
Nsg155
g510
sg156
(lp513
sg158
g60
sg159
Nsg160
Nsg161
Nsbag3
(g4
g5
NtRp514
(dp515
g8
g10
sg139
Nsg140
(dp516
sg142
Nsg25
g27
sg143
(lp517
I4
aI8
asg145
Nsg146
VTosefta Eiruvin 4:8
p518
sg148
(lp519
sg150
g104
sg151
Nsg152
(lp520
I4
aI8
asg154
Nsg155
g518
sg156
(lp521
sg158
g60
sg159
Nsg160
Nsg161
Nsbag3
(g4
g5
NtRp522
(dp523
g8
g10
sg139
Nsg140
(dp524
sg142
Nsg25
g27
sg143
(lp525
I4
aI9
asg145
Nsg146
VTosefta Eiruvin 4:9
p526
sg148
(lp527
sg150
g104
sg151
Nsg152
(lp528
I4
aI9
asg154
Nsg155
g526
sg156
(lp529
sg158
g60
sg159
Nsg160
Nsg161
Nsbag3
(g4
g5
NtRp530
(dp531
g8
g10
sg139
Nsg140
(dp532
sg142
Nsg25
g27
sg143
(lp533
I4
aI10
asg145
Nsg146
VTosefta Eiruvin 4:10
p534
sg148
(lp535
sg150
g104
sg151
Nsg152
(lp536
I4
aI10
asg154
Nsg155
g534
sg156
(lp537
sg158
g60
sg159
Nsg160
Nsg161
Nsbag3
(g4
g5
NtRp538
(dp539
g8
g10
sg139
Nsg140
(dp540
sg142
Nsg25
g27
sg143
(lp541
I4
aI11
asg145
Nsg146
VTosefta Eiruvin 4:11
p542
sg148
(lp543
sg150
g104
sg151
Nsg152
(lp544
I4
aI11
asg154
Nsg155
g542
sg156
(lp545
sg158
g60
sg159
Nsg160
Nsg161
Nsbag3
(g4
g5
NtRp546
(dp547
g8
g10
sg139
Nsg140
(dp548
sg142
Nsg25
g27
sg143
(lp549
I4
aI12
asg145
Nsg146
VTosefta Eiruvin 4:12
p550
sg148
(lp551
sg150
g104
sg151
Nsg152
(lp552
I4
aI12
asg154
Nsg155
g550
sg156
(lp553
sg158
g60
sg159
Nsg160
Nsg161
Nsbag3
(g4
g5
NtRp554
(dp555
g8
g10
sg139
Nsg140
(dp556
sg142
Nsg25
g27
sg143
(lp557
I4
aI13
asg145
Nsg146
VTosefta Eiruvin 4:13
p558
sg148
(lp559
sg150
g104
sg151
Nsg152
(lp560
I4
aI13
asg154
Nsg155
g558
sg156
(lp561
sg158
g60
sg159
Nsg160
Nsg161
Nsbag3
(g4
g5
NtRp562
(dp563
g8
g10
sg139
Nsg140
(dp564
sg142
Nsg25
g27
sg143
(lp565
I5
aI1
asg145
Nsg146
VTosefta Eiruvin 5:1
p566
sg148
(lp567
sg150
g104
sg151
Nsg152
(lp568
I5
aI1
asg154
Nsg155
g566
sg156
(lp569
sg158
g60
sg159
Nsg160
Nsg161
Nsbag3
(g4
g5
NtRp570
(dp571
g8
g10
sg139
Nsg140
(dp572
sg142
Nsg25
g27
sg143
(lp573
I5
aI2
asg145
Nsg146
VTosefta Eiruvin 5:2
p574
sg148
(lp575
sg150
g104
sg151
Nsg152
(lp576
I5
aI2
asg154
Nsg155
g574
sg156
(lp577
sg158
g60
sg159
Nsg160
Nsg161
Nsbag3
(g4
g5
NtRp578
(dp579
g8
g10
sg139
Nsg140
(dp580
sg142
Nsg25
g27
sg143
(lp581
I5
aI3
asg145
Nsg146
VTosefta Eiruvin 5:3
p582
sg148
(lp583
sg150
g104
sg151
Nsg152
(lp584
I5
aI3
asg154
Nsg155
g582
sg156
(lp585
sg158
g60
sg159
Nsg160
Nsg161
Nsbag3
(g4
g5
NtRp586
(dp587
g8
g10
sg139
Nsg140
(dp588
sg142
Nsg25
g27
sg143
(lp589
I5
aI4
asg145
Nsg146
VTosefta Eiruvin 5:4
p590
sg148
(lp591
sg150
g104
sg151
Nsg152
(lp592
I5
aI4
asg154
Nsg155
g590
sg156
(lp593
sg158
g60
sg159
Nsg160
Nsg161
Nsbag3
(g4
g5
NtRp594
(dp595
g8
g10
sg139
Nsg140
(dp596
sg142
Nsg25
g27
sg143
(lp597
I5
aI5
asg145
Nsg146
VTosefta Eiruvin 5:5
p598
sg148
(lp599
sg150
g104
sg151
Nsg152
(lp600
I5
aI5
asg154
Nsg155
g598
sg156
(lp601
sg158
g60
sg159
Nsg160
Nsg161
Nsbag3
(g4
g5
NtRp602
(dp603
g8
g10
sg139
Nsg140
(dp604
sg142
Nsg25
g27
sg143
(lp605
I5
aI6
asg145
Nsg146
VTosefta Eiruvin 5:6
p606
sg148
(lp607
sg150
g104
sg151
Nsg152
(lp608
I5
aI6
asg154
Nsg155
g606
sg156
(lp609
sg158
g60
sg159
Nsg160
Nsg161
Nsbag3
(g4
g5
NtRp610
(dp611
g8
g10
sg139
Nsg140
(dp612
sg142
Nsg25
g27
sg143
(lp613
I5
aI7
asg145
Nsg146
VTosefta Eiruvin 5:7
p614
sg148
(lp615
sg150
g104
sg151
Nsg152
(lp616
I5
aI7
asg154
Nsg155
g614
sg156
(lp617
sg158
g60
sg159
Nsg160
Nsg161
Nsbag3
(g4
g5
NtRp618
(dp619
g8
g10
sg139
Nsg140
(dp620
sg142
Nsg25
g27
sg143
(lp621
I5
aI8
asg145
Nsg146
VTosefta Eiruvin 5:8
p622
sg148
(lp623
sg150
g104
sg151
Nsg152
(lp624
I5
aI8
asg154
Nsg155
g622
sg156
(lp625
sg158
g60
sg159
Nsg160
Nsg161
Nsbag3
(g4
g5
NtRp626
(dp627
g8
g10
sg139
Nsg140
(dp628
sg142
Nsg25
g27
sg143
(lp629
I5
aI9
asg145
Nsg146
VTosefta Eiruvin 5:9
p630
sg148
(lp631
sg150
g104
sg151
Nsg152
(lp632
I5
aI9
asg154
Nsg155
g630
sg156
(lp633
sg158
g60
sg159
Nsg160
Nsg161
Nsbag3
(g4
g5
NtRp634
(dp635
g8
g10
sg139
Nsg140
(dp636
sg142
Nsg25
g27
sg143
(lp637
I5
aI10
asg145
Nsg146
VTosefta Eiruvin 5:10
p638
sg148
(lp639
sg150
g104
sg151
Nsg152
(lp640
I5
aI10
asg154
Nsg155
g638
sg156
(lp641
sg158
g60
sg159
Nsg160
Nsg161
Nsbag3
(g4
g5
NtRp642
(dp643
g8
g10
sg139
Nsg140
(dp644
sg142
Nsg25
g27
sg143
(lp645
I5
aI11
asg145
Nsg146
VTosefta Eiruvin 5:11
p646
sg148
(lp647
sg150
g104
sg151
Nsg152
(lp648
I5
aI11
asg154
Nsg155
g646
sg156
(lp649
sg158
g60
sg159
Nsg160
Nsg161
Nsbag3
(g4
g5
NtRp650
(dp651
g8
g10
sg139
Nsg140
(dp652
sg142
Nsg25
g27
sg143
(lp653
I5
aI12
asg145
Nsg146
VTosefta Eiruvin 5:12
p654
sg148
(lp655
sg150
g104
sg151
Nsg152
(lp656
I5
aI12
asg154
Nsg155
g654
sg156
(lp657
sg158
g60
sg159
Nsg160
Nsg161
Nsbag3
(g4
g5
NtRp658
(dp659
g8
g10
sg139
Nsg140
(dp660
sg142
Nsg25
g27
sg143
(lp661
I5
aI13
asg145
Nsg146
VTosefta Eiruvin 5:13
p662
sg148
(lp663
sg150
g104
sg151
Nsg152
(lp664
I5
aI13
asg154
Nsg155
g662
sg156
(lp665
sg158
g60
sg159
Nsg160
Nsg161
Nsbag3
(g4
g5
NtRp666
(dp667
g8
g10
sg139
Nsg140
(dp668
sg142
Nsg25
g27
sg143
(lp669
I5
aI14
asg145
Nsg146
VTosefta Eiruvin 5:14
p670
sg148
(lp671
sg150
g104
sg151
Nsg152
(lp672
I5
aI14
asg154
Nsg155
g670
sg156
(lp673
sg158
g60
sg159
Nsg160
Nsg161
Nsbag3
(g4
g5
NtRp674
(dp675
g8
g10
sg139
Nsg140
(dp676
sg142
Nsg25
g27
sg143
(lp677
I5
aI15
asg145
Nsg146
VTosefta Eiruvin 5:15
p678
sg148
(lp679
sg150
g104
sg151
Nsg152
(lp680
I5
aI15
asg154
Nsg155
g678
sg156
(lp681
sg158
g60
sg159
Nsg160
Nsg161
Nsbag3
(g4
g5
NtRp682
(dp683
g8
g10
sg139
Nsg140
(dp684
sg142
Nsg25
g27
sg143
(lp685
I5
aI16
asg145
Nsg146
VTosefta Eiruvin 5:16
p686
sg148
(lp687
sg150
g104
sg151
Nsg152
(lp688
I5
aI16
asg154
Nsg155
g686
sg156
(lp689
sg158
g60
sg159
Nsg160
Nsg161
Nsbag3
(g4
g5
NtRp690
(dp691
g8
g10
sg139
Nsg140
(dp692
sg142
Nsg25
g27
sg143
(lp693
I5
aI17
asg145
Nsg146
VTosefta Eiruvin 5:17
p694
sg148
(lp695
sg150
g104
sg151
Nsg152
(lp696
I5
aI17
asg154
Nsg155
g694
sg156
(lp697
sg158
g60
sg159
Nsg160
Nsg161
Nsbag3
(g4
g5
NtRp698
(dp699
g8
g10
sg139
Nsg140
(dp700
sg142
Nsg25
g27
sg143
(lp701
I5
aI18
asg145
Nsg146
VTosefta Eiruvin 5:18
p702
sg148
(lp703
sg150
g104
sg151
Nsg152
(lp704
I5
aI18
asg154
Nsg155
g702
sg156
(lp705
sg158
g60
sg159
Nsg160
Nsg161
Nsbag3
(g4
g5
NtRp706
(dp707
g8
g10
sg139
Nsg140
(dp708
sg142
Nsg25
g27
sg143
(lp709
I5
aI19
asg145
Nsg146
VTosefta Eiruvin 5:19
p710
sg148
(lp711
sg150
g104
sg151
Nsg152
(lp712
I5
aI19
asg154
Nsg155
g710
sg156
(lp713
sg158
g60
sg159
Nsg160
Nsg161
Nsbag3
(g4
g5
NtRp714
(dp715
g8
g10
sg139
Nsg140
(dp716
sg142
Nsg25
g27
sg143
(lp717
I6
aI1
asg145
Nsg146
VTosefta Eiruvin 6:1
p718
sg148
(lp719
sg150
g104
sg151
Nsg152
(lp720
I6
aI1
asg154
Nsg155
g718
sg156
(lp721
sg158
g60
sg159
Nsg160
Nsg161
Nsbag3
(g4
g5
NtRp722
(dp723
g8
g10
sg139
Nsg140
(dp724
sg142
Nsg25
g27
sg143
(lp725
I6
aI2
asg145
Nsg146
VTosefta Eiruvin 6:2
p726
sg148
(lp727
sg150
g104
sg151
Nsg152
(lp728
I6
aI2
asg154
Nsg155
g726
sg156
(lp729
sg158
g60
sg159
Nsg160
Nsg161
Nsbag3
(g4
g5
NtRp730
(dp731
g8
g10
sg139
Nsg140
(dp732
sg142
Nsg25
g27
sg143
(lp733
I6
aI3
asg145
Nsg146
VTosefta Eiruvin 6:3
p734
sg148
(lp735
sg150
g104
sg151
Nsg152
(lp736
I6
aI3
asg154
Nsg155
g734
sg156
(lp737
sg158
g60
sg159
Nsg160
Nsg161
Nsbag3
(g4
g5
NtRp738
(dp739
g8
g10
sg139
Nsg140
(dp740
sg142
Nsg25
g27
sg143
(lp741
I6
aI4
asg145
Nsg146
VTosefta Eiruvin 6:4
p742
sg148
(lp743
sg150
g104
sg151
Nsg152
(lp744
I6
aI4
asg154
Nsg155
g742
sg156
(lp745
sg158
g60
sg159
Nsg160
Nsg161
Nsbag3
(g4
g5
NtRp746
(dp747
g8
g10
sg139
Nsg140
(dp748
sg142
Nsg25
g27
sg143
(lp749
I6
aI5
asg145
Nsg146
VTosefta Eiruvin 6:5
p750
sg148
(lp751
sg150
g104
sg151
Nsg152
(lp752
I6
aI5
asg154
Nsg155
g750
sg156
(lp753
sg158
g60
sg159
Nsg160
Nsg161
Nsbag3
(g4
g5
NtRp754
(dp755
g8
g10
sg139
Nsg140
(dp756
sg142
Nsg25
g27
sg143
(lp757
I6
aI6
asg145
Nsg146
VTosefta Eiruvin 6:6
p758
sg148
(lp759
sg150
g104
sg151
Nsg152
(lp760
I6
aI6
asg154
Nsg155
g758
sg156
(lp761
sg158
g60
sg159
Nsg160
Nsg161
Nsbag3
(g4
g5
NtRp762
(dp763
g8
g10
sg139
Nsg140
(dp764
sg142
Nsg25
g27
sg143
(lp765
I6
aI7
asg145
Nsg146
VTosefta Eiruvin 6:7
p766
sg148
(lp767
sg150
g104
sg151
Nsg152
(lp768
I6
aI7
asg154
Nsg155
g766
sg156
(lp769
sg158
g60
sg159
Nsg160
Nsg161
Nsbag3
(g4
g5
NtRp770
(dp771
g8
g10
sg139
Nsg140
(dp772
sg142
Nsg25
g27
sg143
(lp773
I6
aI8
asg145
Nsg146
VTosefta Eiruvin 6:8
p774
sg148
(lp775
sg150
g104
sg151
Nsg152
(lp776
I6
aI8
asg154
Nsg155
g774
sg156
(lp777
sg158
g60
sg159
Nsg160
Nsg161
Nsbag3
(g4
g5
NtRp778
(dp779
g8
g10
sg139
Nsg140
(dp780
sg142
Nsg25
g27
sg143
(lp781
I6
aI9
asg145
Nsg146
VTosefta Eiruvin 6:9
p782
sg148
(lp783
sg150
g104
sg151
Nsg152
(lp784
I6
aI9
asg154
Nsg155
g782
sg156
(lp785
sg158
g60
sg159
Nsg160
Nsg161
Nsbag3
(g4
g5
NtRp786
(dp787
g8
g10
sg139
Nsg140
(dp788
sg142
Nsg25
g27
sg143
(lp789
I6
aI10
asg145
Nsg146
VTosefta Eiruvin 6:10
p790
sg148
(lp791
sg150
g104
sg151
Nsg152
(lp792
I6
aI10
asg154
Nsg155
g790
sg156
(lp793
sg158
g60
sg159
Nsg160
Nsg161
Nsbag3
(g4
g5
NtRp794
(dp795
g8
g10
sg139
Nsg140
(dp796
sg142
Nsg25
g27
sg143
(lp797
I6
aI11
asg145
Nsg146
VTosefta Eiruvin 6:11
p798
sg148
(lp799
sg150
g104
sg151
Nsg152
(lp800
I6
aI11
asg154
Nsg155
g798
sg156
(lp801
sg158
g60
sg159
Nsg160
Nsg161
Nsbag3
(g4
g5
NtRp802
(dp803
g8
g10
sg139
Nsg140
(dp804
sg142
Nsg25
g27
sg143
(lp805
I6
aI12
asg145
Nsg146
VTosefta Eiruvin 6:12
p806
sg148
(lp807
sg150
g104
sg151
Nsg152
(lp808
I6
aI12
asg154
Nsg155
g806
sg156
(lp809
sg158
g60
sg159
Nsg160
Nsg161
Nsbag3
(g4
g5
NtRp810
(dp811
g8
g10
sg139
Nsg140
(dp812
sg142
Nsg25
g27
sg143
(lp813
I6
aI13
asg145
Nsg146
VTosefta Eiruvin 6:13
p814
sg148
(lp815
sg150
g104
sg151
Nsg152
(lp816
I6
aI13
asg154
Nsg155
g814
sg156
(lp817
sg158
g60
sg159
Nsg160
Nsg161
Nsbag3
(g4
g5
NtRp818
(dp819
g8
g10
sg139
Nsg140
(dp820
sg142
Nsg25
g27
sg143
(lp821
I6
aI14
asg145
Nsg146
VTosefta Eiruvin 6:14
p822
sg148
(lp823
sg150
g104
sg151
Nsg152
(lp824
I6
aI14
asg154
Nsg155
g822
sg156
(lp825
sg158
g60
sg159
Nsg160
Nsg161
Nsbag3
(g4
g5
NtRp826
(dp827
g8
g10
sg139
Nsg140
(dp828
sg142
Nsg25
g27
sg143
(lp829
I6
aI15
asg145
Nsg146
VTosefta Eiruvin 6:15
p830
sg148
(lp831
sg150
g104
sg151
Nsg152
(lp832
I6
aI15
asg154
Nsg155
g830
sg156
(lp833
sg158
g60
sg159
Nsg160
Nsg161
Nsbag3
(g4
g5
NtRp834
(dp835
g8
g10
sg139
Nsg140
(dp836
sg142
Nsg25
g27
sg143
(lp837
I6
aI16
asg145
Nsg146
VTosefta Eiruvin 6:16
p838
sg148
(lp839
sg150
g104
sg151
Nsg152
(lp840
I6
aI16
asg154
Nsg155
g838
sg156
(lp841
sg158
g60
sg159
Nsg160
Nsg161
Nsbag3
(g4
g5
NtRp842
(dp843
g8
g10
sg139
Nsg140
(dp844
sg142
Nsg25
g27
sg143
(lp845
I6
aI17
asg145
Nsg146
VTosefta Eiruvin 6:17
p846
sg148
(lp847
sg150
g104
sg151
Nsg152
(lp848
I6
aI17
asg154
Nsg155
g846
sg156
(lp849
sg158
g60
sg159
Nsg160
Nsg161
Nsbag3
(g4
g5
NtRp850
(dp851
g8
g10
sg139
Nsg140
(dp852
sg142
Nsg25
g27
sg143
(lp853
I6
aI18
asg145
Nsg146
VTosefta Eiruvin 6:18
p854
sg148
(lp855
sg150
g104
sg151
Nsg152
(lp856
I6
aI18
asg154
Nsg155
g854
sg156
(lp857
sg158
g60
sg159
Nsg160
Nsg161
Nsbag3
(g4
g5
NtRp858
(dp859
g8
g10
sg139
Nsg140
(dp860
sg142
Nsg25
g27
sg143
(lp861
I6
aI19
asg145
Nsg146
VTosefta Eiruvin 6:19
p862
sg148
(lp863
sg150
g104
sg151
Nsg152
(lp864
I6
aI19
asg154
Nsg155
g862
sg156
(lp865
sg158
g60
sg159
Nsg160
Nsg161
Nsbag3
(g4
g5
NtRp866
(dp867
g8
g10
sg139
Nsg140
(dp868
sg142
Nsg25
g27
sg143
(lp869
I6
aI20
asg145
Nsg146
VTosefta Eiruvin 6:20
p870
sg148
(lp871
sg150
g104
sg151
Nsg152
(lp872
I6
aI20
asg154
Nsg155
g870
sg156
(lp873
sg158
g60
sg159
Nsg160
Nsg161
Nsbag3
(g4
g5
NtRp874
(dp875
g8
g10
sg139
Nsg140
(dp876
sg142
Nsg25
g27
sg143
(lp877
I7
aI1
asg145
Nsg146
VTosefta Eiruvin 7:1
p878
sg148
(lp879
sg150
g104
sg151
Nsg152
(lp880
I7
aI1
asg154
Nsg155
g878
sg156
(lp881
sg158
g60
sg159
Nsg160
Nsg161
Nsbag3
(g4
g5
NtRp882
(dp883
g8
g10
sg139
Nsg140
(dp884
sg142
Nsg25
g27
sg143
(lp885
I7
aI2
asg145
Nsg146
VTosefta Eiruvin 7:2
p886
sg148
(lp887
sg150
g104
sg151
Nsg152
(lp888
I7
aI2
asg154
Nsg155
g886
sg156
(lp889
sg158
g60
sg159
Nsg160
Nsg161
Nsbag3
(g4
g5
NtRp890
(dp891
g8
g10
sg139
Nsg140
(dp892
sg142
Nsg25
g27
sg143
(lp893
I7
aI3
asg145
Nsg146
VTosefta Eiruvin 7:3
p894
sg148
(lp895
sg150
g104
sg151
Nsg152
(lp896
I7
aI3
asg154
Nsg155
g894
sg156
(lp897
sg158
g60
sg159
Nsg160
Nsg161
Nsbag3
(g4
g5
NtRp898
(dp899
g8
g10
sg139
Nsg140
(dp900
sg142
Nsg25
g27
sg143
(lp901
I7
aI4
asg145
Nsg146
VTosefta Eiruvin 7:4
p902
sg148
(lp903
sg150
g104
sg151
Nsg152
(lp904
I7
aI4
asg154
Nsg155
g902
sg156
(lp905
sg158
g60
sg159
Nsg160
Nsg161
Nsbag3
(g4
g5
NtRp906
(dp907
g8
g10
sg139
Nsg140
(dp908
sg142
Nsg25
g27
sg143
(lp909
I7
aI5
asg145
Nsg146
VTosefta Eiruvin 7:5
p910
sg148
(lp911
sg150
g104
sg151
Nsg152
(lp912
I7
aI5
asg154
Nsg155
g910
sg156
(lp913
sg158
g60
sg159
Nsg160
Nsg161
Nsbag3
(g4
g5
NtRp914
(dp915
g8
g10
sg139
Nsg140
(dp916
sg142
Nsg25
g27
sg143
(lp917
I7
aI6
asg145
Nsg146
VTosefta Eiruvin 7:6
p918
sg148
(lp919
sg150
g104
sg151
Nsg152
(lp920
I7
aI6
asg154
Nsg155
g918
sg156
(lp921
sg158
g60
sg159
Nsg160
Nsg161
Nsbag3
(g4
g5
NtRp922
(dp923
g8
g10
sg139
Nsg140
(dp924
sg142
Nsg25
g27
sg143
(lp925
I7
aI7
asg145
Nsg146
VTosefta Eiruvin 7:7
p926
sg148
(lp927
sg150
g104
sg151
Nsg152
(lp928
I7
aI7
asg154
Nsg155
g926
sg156
(lp929
sg158
g60
sg159
Nsg160
Nsg161
Nsbag3
(g4
g5
NtRp930
(dp931
g8
g10
sg139
Nsg140
(dp932
sg142
Nsg25
g27
sg143
(lp933
I7
aI8
asg145
Nsg146
VTosefta Eiruvin 7:8
p934
sg148
(lp935
sg150
g104
sg151
Nsg152
(lp936
I7
aI8
asg154
Nsg155
g934
sg156
(lp937
sg158
g60
sg159
Nsg160
Nsg161
Nsbag3
(g4
g5
NtRp938
(dp939
g8
g10
sg139
Nsg140
(dp940
sg142
Nsg25
g27
sg143
(lp941
I7
aI9
asg145
Nsg146
VTosefta Eiruvin 7:9
p942
sg148
(lp943
sg150
g104
sg151
Nsg152
(lp944
I7
aI9
asg154
Nsg155
g942
sg156
(lp945
sg158
g60
sg159
Nsg160
Nsg161
Nsbag3
(g4
g5
NtRp946
(dp947
g8
g10
sg139
Nsg140
(dp948
sg142
Nsg25
g27
sg143
(lp949
I7
aI10
asg145
Nsg146
VTosefta Eiruvin 7:10
p950
sg148
(lp951
sg150
g104
sg151
Nsg152
(lp952
I7
aI10
asg154
Nsg155
g950
sg156
(lp953
sg158
g60
sg159
Nsg160
Nsg161
Nsbag3
(g4
g5
NtRp954
(dp955
g8
g10
sg139
Nsg140
(dp956
sg142
Nsg25
g27
sg143
(lp957
I8
aI1
asg145
Nsg146
VTosefta Eiruvin 8:1
p958
sg148
(lp959
sg150
g104
sg151
Nsg152
(lp960
I8
aI1
asg154
Nsg155
g958
sg156
(lp961
sg158
g60
sg159
Nsg160
Nsg161
Nsbag3
(g4
g5
NtRp962
(dp963
g8
g10
sg139
Nsg140
(dp964
sg142
Nsg25
g27
sg143
(lp965
I8
aI2
asg145
Nsg146
VTosefta Eiruvin 8:2
p966
sg148
(lp967
sg150
g104
sg151
Nsg152
(lp968
I8
aI2
asg154
Nsg155
g966
sg156
(lp969
sg158
g60
sg159
Nsg160
Nsg161
Nsbag3
(g4
g5
NtRp970
(dp971
g8
g10
sg139
Nsg140
(dp972
sg142
Nsg25
g27
sg143
(lp973
I8
aI3
asg145
Nsg146
VTosefta Eiruvin 8:3
p974
sg148
(lp975
sg150
g104
sg151
Nsg152
(lp976
I8
aI3
asg154
Nsg155
g974
sg156
(lp977
sg158
g60
sg159
Nsg160
Nsg161
Nsbag3
(g4
g5
NtRp978
(dp979
g8
g10
sg139
Nsg140
(dp980
sg142
Nsg25
g27
sg143
(lp981
I8
aI4
asg145
Nsg146
VTosefta Eiruvin 8:4
p982
sg148
(lp983
sg150
g104
sg151
Nsg152
(lp984
I8
aI4
asg154
Nsg155
g982
sg156
(lp985
sg158
g60
sg159
Nsg160
Nsg161
Nsbag3
(g4
g5
NtRp986
(dp987
g8
g10
sg139
Nsg140
(dp988
sg142
Nsg25
g27
sg143
(lp989
I8
aI5
asg145
Nsg146
VTosefta Eiruvin 8:5
p990
sg148
(lp991
sg150
g104
sg151
Nsg152
(lp992
I8
aI5
asg154
Nsg155
g990
sg156
(lp993
sg158
g60
sg159
Nsg160
Nsg161
Nsbag3
(g4
g5
NtRp994
(dp995
g8
g10
sg139
Nsg140
(dp996
sg142
Nsg25
g27
sg143
(lp997
I8
aI6
asg145
Nsg146
VTosefta Eiruvin 8:6
p998
sg148
(lp999
sg150
g104
sg151
Nsg152
(lp1000
I8
aI6
asg154
Nsg155
g998
sg156
(lp1001
sg158
g60
sg159
Nsg160
Nsg161
Nsbag3
(g4
g5
NtRp1002
(dp1003
g8
g10
sg139
Nsg140
(dp1004
sg142
Nsg25
g27
sg143
(lp1005
I8
aI7
asg145
Nsg146
VTosefta Eiruvin 8:7
p1006
sg148
(lp1007
sg150
g104
sg151
Nsg152
(lp1008
I8
aI7
asg154
Nsg155
g1006
sg156
(lp1009
sg158
g60
sg159
Nsg160
Nsg161
Nsbag3
(g4
g5
NtRp1010
(dp1011
g8
g10
sg139
Nsg140
(dp1012
sg142
Nsg25
g27
sg143
(lp1013
I8
aI8
asg145
Nsg146
VTosefta Eiruvin 8:8
p1014
sg148
(lp1015
sg150
g104
sg151
Nsg152
(lp1016
I8
aI8
asg154
Nsg155
g1014
sg156
(lp1017
sg158
g60
sg159
Nsg160
Nsg161
Nsbag3
(g4
g5
NtRp1018
(dp1019
g8
g10
sg139
Nsg140
(dp1020
sg142
Nsg25
g27
sg143
(lp1021
I8
aI9
asg145
Nsg146
VTosefta Eiruvin 8:9
p1022
sg148
(lp1023
sg150
g104
sg151
Nsg152
(lp1024
I8
aI9
asg154
Nsg155
g1022
sg156
(lp1025
sg158
g60
sg159
Nsg160
Nsg161
Nsbag3
(g4
g5
NtRp1026
(dp1027
g8
g10
sg139
Nsg140
(dp1028
sg142
Nsg25
g27
sg143
(lp1029
I8
aI10
asg145
Nsg146
VTosefta Eiruvin 8:10
p1030
sg148
(lp1031
sg150
g104
sg151
Nsg152
(lp1032
I8
aI10
asg154
Nsg155
g1030
sg156
(lp1033
sg158
g60
sg159
Nsg160
Nsg161
Nsbag3
(g4
g5
NtRp1034
(dp1035
g8
g10
sg139
Nsg140
(dp1036
sg142
Nsg25
g27
sg143
(lp1037
I8
aI11
asg145
Nsg146
VTosefta Eiruvin 8:11
p1038
sg148
(lp1039
sg150
g104
sg151
Nsg152
(lp1040
I8
aI11
asg154
Nsg155
g1038
sg156
(lp1041
sg158
g60
sg159
Nsg160
Nsg161
Nsbag3
(g4
g5
NtRp1042
(dp1043
g8
g10
sg139
Nsg140
(dp1044
sg142
Nsg25
g27
sg143
(lp1045
I8
aI12
asg145
Nsg146
VTosefta Eiruvin 8:12
p1046
sg148
(lp1047
sg150
g104
sg151
Nsg152
(lp1048
I8
aI12
asg154
Nsg155
g1046
sg156
(lp1049
sg158
g60
sg159
Nsg160
Nsg161
Nsbag3
(g4
g5
NtRp1050
(dp1051
g8
g10
sg139
Nsg140
(dp1052
sg142
Nsg25
g27
sg143
(lp1053
I8
aI13
asg145
Nsg146
VTosefta Eiruvin 8:13
p1054
sg148
(lp1055
sg150
g104
sg151
Nsg152
(lp1056
I8
aI13
asg154
Nsg155
g1054
sg156
(lp1057
sg158
g60
sg159
Nsg160
Nsg161
Nsbag3
(g4
g5
NtRp1058
(dp1059
g8
g10
sg139
Nsg140
(dp1060
sg142
Nsg25
g27
sg143
(lp1061
I8
aI14
asg145
Nsg146
VTosefta Eiruvin 8:14
p1062
sg148
(lp1063
sg150
g104
sg151
Nsg152
(lp1064
I8
aI14
asg154
Nsg155
g1062
sg156
(lp1065
sg158
g60
sg159
Nsg160
Nsg161
Nsbag3
(g4
g5
NtRp1066
(dp1067
g8
g10
sg139
Nsg140
(dp1068
sg142
Nsg25
g27
sg143
(lp1069
I8
aI15
asg145
Nsg146
VTosefta Eiruvin 8:15
p1070
sg148
(lp1071
sg150
g104
sg151
Nsg152
(lp1072
I8
aI15
asg154
Nsg155
g1070
sg156
(lp1073
sg158
g60
sg159
Nsg160
Nsg161
Nsbag3
(g4
g5
NtRp1074
(dp1075
g8
g10
sg139
Nsg140
(dp1076
sg142
Nsg25
g27
sg143
(lp1077
I8
aI16
asg145
Nsg146
VTosefta Eiruvin 8:16
p1078
sg148
(lp1079
sg150
g104
sg151
Nsg152
(lp1080
I8
aI16
asg154
Nsg155
g1078
sg156
(lp1081
sg158
g60
sg159
Nsg160
Nsg161
Nsbag3
(g4
g5
NtRp1082
(dp1083
g8
g10
sg139
Nsg140
(dp1084
sg142
Nsg25
g27
sg143
(lp1085
I8
aI17
asg145
Nsg146
VTosefta Eiruvin 8:17
p1086
sg148
(lp1087
sg150
g104
sg151
Nsg152
(lp1088
I8
aI17
asg154
Nsg155
g1086
sg156
(lp1089
sg158
g60
sg159
Nsg160
Nsg161
NsbaI6576
t.