((lp1
I0
aI42
aI69
aI104
aI165
aI185
aI251
aI301
aI339
aI366
aI389
aI437
aI548
aI618
aI673
aI741
aI837
aI861
aI885
aI897
aI952
aI976
aI1023
aI1049
aI1098
aI1120
aI1181
aI1209
aI1237
aI1296
aI1381
aI1400
aI1428
aI1449
aI1519
aI1553
aI1570
aI1640
aI1667
aI1781
aI1832
aI1848
aI1887
aI1924
aI1938
aI1968
aI2010
aI2070
aI2083
aI2171
aI2228
aI2262
aI2341
aI2401
aI2497
aI2530
aI2561
aI2607
aI2652
aI2708
aI2730
aI2772
aI2777
aI2807
aI2823
aI2859
aI2871
aI2907
aI2916
aI2993
aI3028
aI3060
aI3189
aI3217
aI3311
aI3404
aI3454
aI3505
aI3585
aI3622
aI3874
aI3909
aI3936
aI3970
aI3999
aI4055
aI4085
aI4102
aI4139
aI4167
aI4190
aI4213
aI4223
aI4235
aI4250
aI4261
aI4274
aI4289
aI4326
aI4342
aI4356
aI4375
aI4391
aI4417
aI4435
aI4454
aI4477
aI4501
aI4601
aI4641
aI4670
aI4728
aI4755
aI4807
aI4837
aI4890
aI4905
aI4929
aI4964
aI4995
aI5017
aI5061
aI5106
aI5136
aI5189
aI5359
aI5393
aI5404
aI5414
aI5435
aI5469
aI5519
aI5555
aI5603
aI5630
aI5682
aI5697
aI5760
aI5806
aI5823
aI5870
aI5928
aI5988
aI6064
aI6090
aI6152
aI6185
aI6215
aI6256
aI6274
aI6319
a(lp2
ccopy_reg
_reconstructor
p3
(csefaria.model.text
Ref
p4
c__builtin__
object
p5
NtRp6
(dp7
S'index_node'
p8
g3
(csefaria.model.schema
JaggedArrayNode
p9
g5
NtRp10
(dp11
S'_address'
p12
(lp13
VTosefta Berakhot
p14
asS'_full_titles'
p15
(dp16
sVnodeType
p17
VJaggedArrayNode
p18
sS'parent'
p19
NsVaddressTypes
p20
(lp21
VInteger
p22
aVInteger
p23
asS'default'
p24
I00
sS'index'
p25
g3
(csefaria.model.text
Index
p26
g5
NtRp27
(dp28
S'struct_objs'
p29
(dp30
sS'_id'
p31
g3
(cbson.objectid
ObjectId
p32
g5
NtRp33
S'Q\xc3jI\xed\xba\xb4m\x90\xc1\x84\xb8'
p34
bsS'pkeys_orig_values'
p35
(dp36
S'title'
p37
VTosefta Berakhot
p38
ssS'pubDate'
p39
V1521
p40
sS'transliteratedTitle'
p41
VTosefta Berakhot
p42
sS'pubPlace'
p43
VVenice
p44
sS'compPlace'
p45
VTalmudic Israel
p46
sS'enDesc'
p47
VThe Tosefta (Supplement, addition") is a compilation of the Jewish oral law. Opinions differ widely as to when the Tosefta was redacted and how it relates to the Mishnah. However it closely corresponds to the Mishnah in structure and style, with the same divisions for sedarim ("orders") and masekhot ("tractates"). In many ways, the Tosefta acts as a supplement to the Mishnah. It is mainly written in Mishnaic Hebrew, with some Aramaic. Berakhot (Blessings) belongs to the first order, Zera'im (seeds) and discusses the rules of blessings and prayers, particularly the Shema and the Amidah. It consists of six chapters.
p48
sS'order'
p49
(lp50
I1
asS'era'
p51
VT
sS'compDate'
p52
V210
p53
sS'nodes'
p54
g10
sS'errorMargin'
p55
V20
p56
sS'_title'
p57
g38
sS'categories'
p58
(lp59
VTosefta
p60
aVSeder Zeraim
p61
asS'schema'
p62
(dp63
g17
g18
sg20
g21
sVlengths
p64
(lp65
I7
asVdepth
p66
I2
sVtitles
p67
(lp68
(dp69
Vlang
p70
Ven
p71
sVtext
p72
VTos. Berakhot
p73
sa(dp74
Vlang
p75
Ven
p76
sVtext
p77
VTosefta Berachot
p78
sa(dp79
Vlang
p80
Ven
p81
sVtext
p82
VT. Berakhot
p83
sa(dp84
Vlang
p85
Ven
p86
sVtext
p87
VTosefta Brachot
p88
sa(dp89
Vlang
p90
Ven
p91
sVtext
p92
VTos. Berachot
p93
sa(dp94
Vlang
p95
Vhe
p96
sVtext
p97
V\u05ea\u05d5\u05e1\u05e4\u05ea\u05d0 \u05d1\u05e8\u05db\u05d5\u05ea
p98
sVprimary
p99
I01
sa(dp100
Vlang
p101
Ven
p102
sVtext
p103
VTosefta Berakhot
p104
sVprimary
p105
I01
sasVkey
p106
g14
sVsectionNames
p107
(lp108
VChapter
p109
aVTosefta
p110
assbsS'_primary_title'
p111
(dp112
sS'title_group'
p113
g3
(csefaria.model.schema
TitleGroup
p114
g5
NtRp115
(dp116
g111
(dp117
S'en'
p118
g104
ssS'titles'
p119
g68
sbsS'_addressTypes'
p120
(lp121
g3
(csefaria.model.schema
AddressInteger
p122
g5
NtRp123
(dp124
S'length'
p125
I7
sg49
I0
sbag3
(g122
g5
NtRp126
(dp127
g125
Nsg49
I1
sbasS'sharedTitle'
p128
Nsg64
g65
sg66
I2
sS'_full_title'
p129
(dp130
g118
g104
ssS'key'
p131
g14
sS'checkFirst'
p132
NsS'_regexes'
p133
(dp134
sS'_leaf_nodes'
p135
(lp136
sg107
g108
sS'children'
p137
(lp138
sbsS'_range_index'
p139
NsS'_context'
p140
(dp141
sS'_padded'
p142
Nsg25
g27
sS'sections'
p143
(lp144
I1
aI1
asS'_first_spanned_ref'
p145
NsS'tref'
p146
VTosefta Berakhot 1:1
p147
sS'_spanned_refs'
p148
(lp149
sS'book'
p150
g104
sS'_range_depth'
p151
NsS'toSections'
p152
(lp153
I1
aI1
asS'_url'
p154
NsS'_normal'
p155
g147
sS'_ranged_refs'
p156
(lp157
sS'type'
p158
g60
sS'_prev'
p159
NsS'_he_normal'
p160
NsS'_next'
p161
Nsbag3
(g4
g5
NtRp162
(dp163
g8
g10
sg139
Nsg140
(dp164
sg142
Nsg25
g27
sg143
(lp165
I1
aI2
asg145
Nsg146
VTosefta Berakhot 1:2
p166
sg148
(lp167
sg150
g104
sg151
Nsg152
(lp168
I1
aI2
asg154
Nsg155
g166
sg156
(lp169
sg158
g60
sg159
Nsg160
Nsg161
Nsbag3
(g4
g5
NtRp170
(dp171
g8
g10
sg139
Nsg140
(dp172
sg142
Nsg25
g27
sg143
(lp173
I1
aI3
asg145
Nsg146
VTosefta Berakhot 1:3
p174
sg148
(lp175
sg150
g104
sg151
Nsg152
(lp176
I1
aI3
asg154
Nsg155
g174
sg156
(lp177
sg158
g60
sg159
Nsg160
Nsg161
Nsbag3
(g4
g5
NtRp178
(dp179
g8
g10
sg139
Nsg140
(dp180
sg142
Nsg25
g27
sg143
(lp181
I1
aI4
asg145
Nsg146
VTosefta Berakhot 1:4
p182
sg148
(lp183
sg150
g104
sg151
Nsg152
(lp184
I1
aI4
asg154
Nsg155
g182
sg156
(lp185
sg158
g60
sg159
Nsg160
Nsg161
Nsbag3
(g4
g5
NtRp186
(dp187
g8
g10
sg139
Nsg140
(dp188
sg142
Nsg25
g27
sg143
(lp189
I1
aI5
asg145
Nsg146
VTosefta Berakhot 1:5
p190
sg148
(lp191
sg150
g104
sg151
Nsg152
(lp192
I1
aI5
asg154
Nsg155
g190
sg156
(lp193
sg158
g60
sg159
Nsg160
Nsg161
Nsbag3
(g4
g5
NtRp194
(dp195
g8
g10
sg139
Nsg140
(dp196
sg142
Nsg25
g27
sg143
(lp197
I1
aI6
asg145
Nsg146
VTosefta Berakhot 1:6
p198
sg148
(lp199
sg150
g104
sg151
Nsg152
(lp200
I1
aI6
asg154
Nsg155
g198
sg156
(lp201
sg158
g60
sg159
Nsg160
Nsg161
Nsbag3
(g4
g5
NtRp202
(dp203
g8
g10
sg139
Nsg140
(dp204
sg142
Nsg25
g27
sg143
(lp205
I1
aI7
asg145
Nsg146
VTosefta Berakhot 1:7
p206
sg148
(lp207
sg150
g104
sg151
Nsg152
(lp208
I1
aI7
asg154
Nsg155
g206
sg156
(lp209
sg158
g60
sg159
Nsg160
Nsg161
Nsbag3
(g4
g5
NtRp210
(dp211
g8
g10
sg139
Nsg140
(dp212
sg142
Nsg25
g27
sg143
(lp213
I1
aI8
asg145
Nsg146
VTosefta Berakhot 1:8
p214
sg148
(lp215
sg150
g104
sg151
Nsg152
(lp216
I1
aI8
asg154
Nsg155
g214
sg156
(lp217
sg158
g60
sg159
Nsg160
Nsg161
Nsbag3
(g4
g5
NtRp218
(dp219
g8
g10
sg139
Nsg140
(dp220
sg142
Nsg25
g27
sg143
(lp221
I1
aI9
asg145
Nsg146
VTosefta Berakhot 1:9
p222
sg148
(lp223
sg150
g104
sg151
Nsg152
(lp224
I1
aI9
asg154
Nsg155
g222
sg156
(lp225
sg158
g60
sg159
Nsg160
Nsg161
Nsbag3
(g4
g5
NtRp226
(dp227
g8
g10
sg139
Nsg140
(dp228
sg142
Nsg25
g27
sg143
(lp229
I1
aI10
asg145
Nsg146
VTosefta Berakhot 1:10
p230
sg148
(lp231
sg150
g104
sg151
Nsg152
(lp232
I1
aI10
asg154
Nsg155
g230
sg156
(lp233
sg158
g60
sg159
Nsg160
Nsg161
Nsbag3
(g4
g5
NtRp234
(dp235
g8
g10
sg139
Nsg140
(dp236
sg142
Nsg25
g27
sg143
(lp237
I1
aI11
asg145
Nsg146
VTosefta Berakhot 1:11
p238
sg148
(lp239
sg150
g104
sg151
Nsg152
(lp240
I1
aI11
asg154
Nsg155
g238
sg156
(lp241
sg158
g60
sg159
Nsg160
Nsg161
Nsbag3
(g4
g5
NtRp242
(dp243
g8
g10
sg139
Nsg140
(dp244
sg142
Nsg25
g27
sg143
(lp245
I1
aI12
asg145
Nsg146
VTosefta Berakhot 1:12
p246
sg148
(lp247
sg150
g104
sg151
Nsg152
(lp248
I1
aI12
asg154
Nsg155
g246
sg156
(lp249
sg158
g60
sg159
Nsg160
Nsg161
Nsbag3
(g4
g5
NtRp250
(dp251
g8
g10
sg139
Nsg140
(dp252
sg142
Nsg25
g27
sg143
(lp253
I1
aI13
asg145
Nsg146
VTosefta Berakhot 1:13
p254
sg148
(lp255
sg150
g104
sg151
Nsg152
(lp256
I1
aI13
asg154
Nsg155
g254
sg156
(lp257
sg158
g60
sg159
Nsg160
Nsg161
Nsbag3
(g4
g5
NtRp258
(dp259
g8
g10
sg139
Nsg140
(dp260
sg142
Nsg25
g27
sg143
(lp261
I1
aI14
asg145
Nsg146
VTosefta Berakhot 1:14
p262
sg148
(lp263
sg150
g104
sg151
Nsg152
(lp264
I1
aI14
asg154
Nsg155
g262
sg156
(lp265
sg158
g60
sg159
Nsg160
Nsg161
Nsbag3
(g4
g5
NtRp266
(dp267
g8
g10
sg139
Nsg140
(dp268
sg142
Nsg25
g27
sg143
(lp269
I1
aI15
asg145
Nsg146
VTosefta Berakhot 1:15
p270
sg148
(lp271
sg150
g104
sg151
Nsg152
(lp272
I1
aI15
asg154
Nsg155
g270
sg156
(lp273
sg158
g60
sg159
Nsg160
Nsg161
Nsbag3
(g4
g5
NtRp274
(dp275
g8
g10
sg139
Nsg140
(dp276
sg142
Nsg25
g27
sg143
(lp277
I1
aI16
asg145
Nsg146
VTosefta Berakhot 1:16
p278
sg148
(lp279
sg150
g104
sg151
Nsg152
(lp280
I1
aI16
asg154
Nsg155
g278
sg156
(lp281
sg158
g60
sg159
Nsg160
Nsg161
Nsbag3
(g4
g5
NtRp282
(dp283
g8
g10
sg139
Nsg140
(dp284
sg142
Nsg25
g27
sg143
(lp285
I2
aI1
asg145
Nsg146
VTosefta Berakhot 2:1
p286
sg148
(lp287
sg150
g104
sg151
Nsg152
(lp288
I2
aI1
asg154
Nsg155
g286
sg156
(lp289
sg158
g60
sg159
Nsg160
Nsg161
Nsbag3
(g4
g5
NtRp290
(dp291
g8
g10
sg139
Nsg140
(dp292
sg142
Nsg25
g27
sg143
(lp293
I2
aI2
asg145
Nsg146
VTosefta Berakhot 2:2
p294
sg148
(lp295
sg150
g104
sg151
Nsg152
(lp296
I2
aI2
asg154
Nsg155
g294
sg156
(lp297
sg158
g60
sg159
Nsg160
Nsg161
Nsbag3
(g4
g5
NtRp298
(dp299
g8
g10
sg139
Nsg140
(dp300
sg142
Nsg25
g27
sg143
(lp301
I2
aI3
asg145
Nsg146
VTosefta Berakhot 2:3
p302
sg148
(lp303
sg150
g104
sg151
Nsg152
(lp304
I2
aI3
asg154
Nsg155
g302
sg156
(lp305
sg158
g60
sg159
Nsg160
Nsg161
Nsbag3
(g4
g5
NtRp306
(dp307
g8
g10
sg139
Nsg140
(dp308
sg142
Nsg25
g27
sg143
(lp309
I2
aI4
asg145
Nsg146
VTosefta Berakhot 2:4
p310
sg148
(lp311
sg150
g104
sg151
Nsg152
(lp312
I2
aI4
asg154
Nsg155
g310
sg156
(lp313
sg158
g60
sg159
Nsg160
Nsg161
Nsbag3
(g4
g5
NtRp314
(dp315
g8
g10
sg139
Nsg140
(dp316
sg142
Nsg25
g27
sg143
(lp317
I2
aI5
asg145
Nsg146
VTosefta Berakhot 2:5
p318
sg148
(lp319
sg150
g104
sg151
Nsg152
(lp320
I2
aI5
asg154
Nsg155
g318
sg156
(lp321
sg158
g60
sg159
Nsg160
Nsg161
Nsbag3
(g4
g5
NtRp322
(dp323
g8
g10
sg139
Nsg140
(dp324
sg142
Nsg25
g27
sg143
(lp325
I2
aI6
asg145
Nsg146
VTosefta Berakhot 2:6
p326
sg148
(lp327
sg150
g104
sg151
Nsg152
(lp328
I2
aI6
asg154
Nsg155
g326
sg156
(lp329
sg158
g60
sg159
Nsg160
Nsg161
Nsbag3
(g4
g5
NtRp330
(dp331
g8
g10
sg139
Nsg140
(dp332
sg142
Nsg25
g27
sg143
(lp333
I2
aI7
asg145
Nsg146
VTosefta Berakhot 2:7
p334
sg148
(lp335
sg150
g104
sg151
Nsg152
(lp336
I2
aI7
asg154
Nsg155
g334
sg156
(lp337
sg158
g60
sg159
Nsg160
Nsg161
Nsbag3
(g4
g5
NtRp338
(dp339
g8
g10
sg139
Nsg140
(dp340
sg142
Nsg25
g27
sg143
(lp341
I2
aI8
asg145
Nsg146
VTosefta Berakhot 2:8
p342
sg148
(lp343
sg150
g104
sg151
Nsg152
(lp344
I2
aI8
asg154
Nsg155
g342
sg156
(lp345
sg158
g60
sg159
Nsg160
Nsg161
Nsbag3
(g4
g5
NtRp346
(dp347
g8
g10
sg139
Nsg140
(dp348
sg142
Nsg25
g27
sg143
(lp349
I2
aI9
asg145
Nsg146
VTosefta Berakhot 2:9
p350
sg148
(lp351
sg150
g104
sg151
Nsg152
(lp352
I2
aI9
asg154
Nsg155
g350
sg156
(lp353
sg158
g60
sg159
Nsg160
Nsg161
Nsbag3
(g4
g5
NtRp354
(dp355
g8
g10
sg139
Nsg140
(dp356
sg142
Nsg25
g27
sg143
(lp357
I2
aI10
asg145
Nsg146
VTosefta Berakhot 2:10
p358
sg148
(lp359
sg150
g104
sg151
Nsg152
(lp360
I2
aI10
asg154
Nsg155
g358
sg156
(lp361
sg158
g60
sg159
Nsg160
Nsg161
Nsbag3
(g4
g5
NtRp362
(dp363
g8
g10
sg139
Nsg140
(dp364
sg142
Nsg25
g27
sg143
(lp365
I2
aI11
asg145
Nsg146
VTosefta Berakhot 2:11
p366
sg148
(lp367
sg150
g104
sg151
Nsg152
(lp368
I2
aI11
asg154
Nsg155
g366
sg156
(lp369
sg158
g60
sg159
Nsg160
Nsg161
Nsbag3
(g4
g5
NtRp370
(dp371
g8
g10
sg139
Nsg140
(dp372
sg142
Nsg25
g27
sg143
(lp373
I2
aI12
asg145
Nsg146
VTosefta Berakhot 2:12
p374
sg148
(lp375
sg150
g104
sg151
Nsg152
(lp376
I2
aI12
asg154
Nsg155
g374
sg156
(lp377
sg158
g60
sg159
Nsg160
Nsg161
Nsbag3
(g4
g5
NtRp378
(dp379
g8
g10
sg139
Nsg140
(dp380
sg142
Nsg25
g27
sg143
(lp381
I2
aI13
asg145
Nsg146
VTosefta Berakhot 2:13
p382
sg148
(lp383
sg150
g104
sg151
Nsg152
(lp384
I2
aI13
asg154
Nsg155
g382
sg156
(lp385
sg158
g60
sg159
Nsg160
Nsg161
Nsbag3
(g4
g5
NtRp386
(dp387
g8
g10
sg139
Nsg140
(dp388
sg142
Nsg25
g27
sg143
(lp389
I2
aI14
asg145
Nsg146
VTosefta Berakhot 2:14
p390
sg148
(lp391
sg150
g104
sg151
Nsg152
(lp392
I2
aI14
asg154
Nsg155
g390
sg156
(lp393
sg158
g60
sg159
Nsg160
Nsg161
Nsbag3
(g4
g5
NtRp394
(dp395
g8
g10
sg139
Nsg140
(dp396
sg142
Nsg25
g27
sg143
(lp397
I2
aI15
asg145
Nsg146
VTosefta Berakhot 2:15
p398
sg148
(lp399
sg150
g104
sg151
Nsg152
(lp400
I2
aI15
asg154
Nsg155
g398
sg156
(lp401
sg158
g60
sg159
Nsg160
Nsg161
Nsbag3
(g4
g5
NtRp402
(dp403
g8
g10
sg139
Nsg140
(dp404
sg142
Nsg25
g27
sg143
(lp405
I2
aI16
asg145
Nsg146
VTosefta Berakhot 2:16
p406
sg148
(lp407
sg150
g104
sg151
Nsg152
(lp408
I2
aI16
asg154
Nsg155
g406
sg156
(lp409
sg158
g60
sg159
Nsg160
Nsg161
Nsbag3
(g4
g5
NtRp410
(dp411
g8
g10
sg139
Nsg140
(dp412
sg142
Nsg25
g27
sg143
(lp413
I2
aI17
asg145
Nsg146
VTosefta Berakhot 2:17
p414
sg148
(lp415
sg150
g104
sg151
Nsg152
(lp416
I2
aI17
asg154
Nsg155
g414
sg156
(lp417
sg158
g60
sg159
Nsg160
Nsg161
Nsbag3
(g4
g5
NtRp418
(dp419
g8
g10
sg139
Nsg140
(dp420
sg142
Nsg25
g27
sg143
(lp421
I2
aI18
asg145
Nsg146
VTosefta Berakhot 2:18
p422
sg148
(lp423
sg150
g104
sg151
Nsg152
(lp424
I2
aI18
asg154
Nsg155
g422
sg156
(lp425
sg158
g60
sg159
Nsg160
Nsg161
Nsbag3
(g4
g5
NtRp426
(dp427
g8
g10
sg139
Nsg140
(dp428
sg142
Nsg25
g27
sg143
(lp429
I2
aI19
asg145
Nsg146
VTosefta Berakhot 2:19
p430
sg148
(lp431
sg150
g104
sg151
Nsg152
(lp432
I2
aI19
asg154
Nsg155
g430
sg156
(lp433
sg158
g60
sg159
Nsg160
Nsg161
Nsbag3
(g4
g5
NtRp434
(dp435
g8
g10
sg139
Nsg140
(dp436
sg142
Nsg25
g27
sg143
(lp437
I2
aI20
asg145
Nsg146
VTosefta Berakhot 2:20
p438
sg148
(lp439
sg150
g104
sg151
Nsg152
(lp440
I2
aI20
asg154
Nsg155
g438
sg156
(lp441
sg158
g60
sg159
Nsg160
Nsg161
Nsbag3
(g4
g5
NtRp442
(dp443
g8
g10
sg139
Nsg140
(dp444
sg142
Nsg25
g27
sg143
(lp445
I2
aI21
asg145
Nsg146
VTosefta Berakhot 2:21
p446
sg148
(lp447
sg150
g104
sg151
Nsg152
(lp448
I2
aI21
asg154
Nsg155
g446
sg156
(lp449
sg158
g60
sg159
Nsg160
Nsg161
Nsbag3
(g4
g5
NtRp450
(dp451
g8
g10
sg139
Nsg140
(dp452
sg142
Nsg25
g27
sg143
(lp453
I2
aI22
asg145
Nsg146
VTosefta Berakhot 2:22
p454
sg148
(lp455
sg150
g104
sg151
Nsg152
(lp456
I2
aI22
asg154
Nsg155
g454
sg156
(lp457
sg158
g60
sg159
Nsg160
Nsg161
Nsbag3
(g4
g5
NtRp458
(dp459
g8
g10
sg139
Nsg140
(dp460
sg142
Nsg25
g27
sg143
(lp461
I3
aI1
asg145
Nsg146
VTosefta Berakhot 3:1
p462
sg148
(lp463
sg150
g104
sg151
Nsg152
(lp464
I3
aI1
asg154
Nsg155
g462
sg156
(lp465
sg158
g60
sg159
Nsg160
Nsg161
Nsbag3
(g4
g5
NtRp466
(dp467
g8
g10
sg139
Nsg140
(dp468
sg142
Nsg25
g27
sg143
(lp469
I3
aI2
asg145
Nsg146
VTosefta Berakhot 3:2
p470
sg148
(lp471
sg150
g104
sg151
Nsg152
(lp472
I3
aI2
asg154
Nsg155
g470
sg156
(lp473
sg158
g60
sg159
Nsg160
Nsg161
Nsbag3
(g4
g5
NtRp474
(dp475
g8
g10
sg139
Nsg140
(dp476
sg142
Nsg25
g27
sg143
(lp477
I3
aI3
asg145
Nsg146
VTosefta Berakhot 3:3
p478
sg148
(lp479
sg150
g104
sg151
Nsg152
(lp480
I3
aI3
asg154
Nsg155
g478
sg156
(lp481
sg158
g60
sg159
Nsg160
Nsg161
Nsbag3
(g4
g5
NtRp482
(dp483
g8
g10
sg139
Nsg140
(dp484
sg142
Nsg25
g27
sg143
(lp485
I3
aI4
asg145
Nsg146
VTosefta Berakhot 3:4
p486
sg148
(lp487
sg150
g104
sg151
Nsg152
(lp488
I3
aI4
asg154
Nsg155
g486
sg156
(lp489
sg158
g60
sg159
Nsg160
Nsg161
Nsbag3
(g4
g5
NtRp490
(dp491
g8
g10
sg139
Nsg140
(dp492
sg142
Nsg25
g27
sg143
(lp493
I3
aI5
asg145
Nsg146
VTosefta Berakhot 3:5
p494
sg148
(lp495
sg150
g104
sg151
Nsg152
(lp496
I3
aI5
asg154
Nsg155
g494
sg156
(lp497
sg158
g60
sg159
Nsg160
Nsg161
Nsbag3
(g4
g5
NtRp498
(dp499
g8
g10
sg139
Nsg140
(dp500
sg142
Nsg25
g27
sg143
(lp501
I3
aI6
asg145
Nsg146
VTosefta Berakhot 3:6
p502
sg148
(lp503
sg150
g104
sg151
Nsg152
(lp504
I3
aI6
asg154
Nsg155
g502
sg156
(lp505
sg158
g60
sg159
Nsg160
Nsg161
Nsbag3
(g4
g5
NtRp506
(dp507
g8
g10
sg139
Nsg140
(dp508
sg142
Nsg25
g27
sg143
(lp509
I3
aI7
asg145
Nsg146
VTosefta Berakhot 3:7
p510
sg148
(lp511
sg150
g104
sg151
Nsg152
(lp512
I3
aI7
asg154
Nsg155
g510
sg156
(lp513
sg158
g60
sg159
Nsg160
Nsg161
Nsbag3
(g4
g5
NtRp514
(dp515
g8
g10
sg139
Nsg140
(dp516
sg142
Nsg25
g27
sg143
(lp517
I3
aI8
asg145
Nsg146
VTosefta Berakhot 3:8
p518
sg148
(lp519
sg150
g104
sg151
Nsg152
(lp520
I3
aI8
asg154
Nsg155
g518
sg156
(lp521
sg158
g60
sg159
Nsg160
Nsg161
Nsbag3
(g4
g5
NtRp522
(dp523
g8
g10
sg139
Nsg140
(dp524
sg142
Nsg25
g27
sg143
(lp525
I3
aI9
asg145
Nsg146
VTosefta Berakhot 3:9
p526
sg148
(lp527
sg150
g104
sg151
Nsg152
(lp528
I3
aI9
asg154
Nsg155
g526
sg156
(lp529
sg158
g60
sg159
Nsg160
Nsg161
Nsbag3
(g4
g5
NtRp530
(dp531
g8
g10
sg139
Nsg140
(dp532
sg142
Nsg25
g27
sg143
(lp533
I3
aI10
asg145
Nsg146
VTosefta Berakhot 3:10
p534
sg148
(lp535
sg150
g104
sg151
Nsg152
(lp536
I3
aI10
asg154
Nsg155
g534
sg156
(lp537
sg158
g60
sg159
Nsg160
Nsg161
Nsbag3
(g4
g5
NtRp538
(dp539
g8
g10
sg139
Nsg140
(dp540
sg142
Nsg25
g27
sg143
(lp541
I3
aI11
asg145
Nsg146
VTosefta Berakhot 3:11
p542
sg148
(lp543
sg150
g104
sg151
Nsg152
(lp544
I3
aI11
asg154
Nsg155
g542
sg156
(lp545
sg158
g60
sg159
Nsg160
Nsg161
Nsbag3
(g4
g5
NtRp546
(dp547
g8
g10
sg139
Nsg140
(dp548
sg142
Nsg25
g27
sg143
(lp549
I3
aI12
asg145
Nsg146
VTosefta Berakhot 3:12
p550
sg148
(lp551
sg150
g104
sg151
Nsg152
(lp552
I3
aI12
asg154
Nsg155
g550
sg156
(lp553
sg158
g60
sg159
Nsg160
Nsg161
Nsbag3
(g4
g5
NtRp554
(dp555
g8
g10
sg139
Nsg140
(dp556
sg142
Nsg25
g27
sg143
(lp557
I3
aI13
asg145
Nsg146
VTosefta Berakhot 3:13
p558
sg148
(lp559
sg150
g104
sg151
Nsg152
(lp560
I3
aI13
asg154
Nsg155
g558
sg156
(lp561
sg158
g60
sg159
Nsg160
Nsg161
Nsbag3
(g4
g5
NtRp562
(dp563
g8
g10
sg139
Nsg140
(dp564
sg142
Nsg25
g27
sg143
(lp565
I3
aI14
asg145
Nsg146
VTosefta Berakhot 3:14
p566
sg148
(lp567
sg150
g104
sg151
Nsg152
(lp568
I3
aI14
asg154
Nsg155
g566
sg156
(lp569
sg158
g60
sg159
Nsg160
Nsg161
Nsbag3
(g4
g5
NtRp570
(dp571
g8
g10
sg139
Nsg140
(dp572
sg142
Nsg25
g27
sg143
(lp573
I3
aI15
asg145
Nsg146
VTosefta Berakhot 3:15
p574
sg148
(lp575
sg150
g104
sg151
Nsg152
(lp576
I3
aI15
asg154
Nsg155
g574
sg156
(lp577
sg158
g60
sg159
Nsg160
Nsg161
Nsbag3
(g4
g5
NtRp578
(dp579
g8
g10
sg139
Nsg140
(dp580
sg142
Nsg25
g27
sg143
(lp581
I3
aI16
asg145
Nsg146
VTosefta Berakhot 3:16
p582
sg148
(lp583
sg150
g104
sg151
Nsg152
(lp584
I3
aI16
asg154
Nsg155
g582
sg156
(lp585
sg158
g60
sg159
Nsg160
Nsg161
Nsbag3
(g4
g5
NtRp586
(dp587
g8
g10
sg139
Nsg140
(dp588
sg142
Nsg25
g27
sg143
(lp589
I3
aI17
asg145
Nsg146
VTosefta Berakhot 3:17
p590
sg148
(lp591
sg150
g104
sg151
Nsg152
(lp592
I3
aI17
asg154
Nsg155
g590
sg156
(lp593
sg158
g60
sg159
Nsg160
Nsg161
Nsbag3
(g4
g5
NtRp594
(dp595
g8
g10
sg139
Nsg140
(dp596
sg142
Nsg25
g27
sg143
(lp597
I3
aI18
asg145
Nsg146
VTosefta Berakhot 3:18
p598
sg148
(lp599
sg150
g104
sg151
Nsg152
(lp600
I3
aI18
asg154
Nsg155
g598
sg156
(lp601
sg158
g60
sg159
Nsg160
Nsg161
Nsbag3
(g4
g5
NtRp602
(dp603
g8
g10
sg139
Nsg140
(dp604
sg142
Nsg25
g27
sg143
(lp605
I3
aI19
asg145
Nsg146
VTosefta Berakhot 3:19
p606
sg148
(lp607
sg150
g104
sg151
Nsg152
(lp608
I3
aI19
asg154
Nsg155
g606
sg156
(lp609
sg158
g60
sg159
Nsg160
Nsg161
Nsbag3
(g4
g5
NtRp610
(dp611
g8
g10
sg139
Nsg140
(dp612
sg142
Nsg25
g27
sg143
(lp613
I3
aI20
asg145
Nsg146
VTosefta Berakhot 3:20
p614
sg148
(lp615
sg150
g104
sg151
Nsg152
(lp616
I3
aI20
asg154
Nsg155
g614
sg156
(lp617
sg158
g60
sg159
Nsg160
Nsg161
Nsbag3
(g4
g5
NtRp618
(dp619
g8
g10
sg139
Nsg140
(dp620
sg142
Nsg25
g27
sg143
(lp621
I3
aI21
asg145
Nsg146
VTosefta Berakhot 3:21
p622
sg148
(lp623
sg150
g104
sg151
Nsg152
(lp624
I3
aI21
asg154
Nsg155
g622
sg156
(lp625
sg158
g60
sg159
Nsg160
Nsg161
Nsbag3
(g4
g5
NtRp626
(dp627
g8
g10
sg139
Nsg140
(dp628
sg142
Nsg25
g27
sg143
(lp629
I3
aI22
asg145
Nsg146
VTosefta Berakhot 3:22
p630
sg148
(lp631
sg150
g104
sg151
Nsg152
(lp632
I3
aI22
asg154
Nsg155
g630
sg156
(lp633
sg158
g60
sg159
Nsg160
Nsg161
Nsbag3
(g4
g5
NtRp634
(dp635
g8
g10
sg139
Nsg140
(dp636
sg142
Nsg25
g27
sg143
(lp637
I3
aI23
asg145
Nsg146
VTosefta Berakhot 3:23
p638
sg148
(lp639
sg150
g104
sg151
Nsg152
(lp640
I3
aI23
asg154
Nsg155
g638
sg156
(lp641
sg158
g60
sg159
Nsg160
Nsg161
Nsbag3
(g4
g5
NtRp642
(dp643
g8
g10
sg139
Nsg140
(dp644
sg142
Nsg25
g27
sg143
(lp645
I3
aI24
asg145
Nsg146
VTosefta Berakhot 3:24
p646
sg148
(lp647
sg150
g104
sg151
Nsg152
(lp648
I3
aI24
asg154
Nsg155
g646
sg156
(lp649
sg158
g60
sg159
Nsg160
Nsg161
Nsbag3
(g4
g5
NtRp650
(dp651
g8
g10
sg139
Nsg140
(dp652
sg142
Nsg25
g27
sg143
(lp653
I3
aI25
asg145
Nsg146
VTosefta Berakhot 3:25
p654
sg148
(lp655
sg150
g104
sg151
Nsg152
(lp656
I3
aI25
asg154
Nsg155
g654
sg156
(lp657
sg158
g60
sg159
Nsg160
Nsg161
Nsbag3
(g4
g5
NtRp658
(dp659
g8
g10
sg139
Nsg140
(dp660
sg142
Nsg25
g27
sg143
(lp661
I3
aI26
asg145
Nsg146
VTosefta Berakhot 3:26
p662
sg148
(lp663
sg150
g104
sg151
Nsg152
(lp664
I3
aI26
asg154
Nsg155
g662
sg156
(lp665
sg158
g60
sg159
Nsg160
Nsg161
Nsbag3
(g4
g5
NtRp666
(dp667
g8
g10
sg139
Nsg140
(dp668
sg142
Nsg25
g27
sg143
(lp669
I4
aI1
asg145
Nsg146
VTosefta Berakhot 4:1
p670
sg148
(lp671
sg150
g104
sg151
Nsg152
(lp672
I4
aI1
asg154
Nsg155
g670
sg156
(lp673
sg158
g60
sg159
Nsg160
Nsg161
Nsbag3
(g4
g5
NtRp674
(dp675
g8
g10
sg139
Nsg140
(dp676
sg142
Nsg25
g27
sg143
(lp677
I4
aI2
asg145
Nsg146
VTosefta Berakhot 4:2
p678
sg148
(lp679
sg150
g104
sg151
Nsg152
(lp680
I4
aI2
asg154
Nsg155
g678
sg156
(lp681
sg158
g60
sg159
Nsg160
Nsg161
Nsbag3
(g4
g5
NtRp682
(dp683
g8
g10
sg139
Nsg140
(dp684
sg142
Nsg25
g27
sg143
(lp685
I4
aI3
asg145
Nsg146
VTosefta Berakhot 4:3
p686
sg148
(lp687
sg150
g104
sg151
Nsg152
(lp688
I4
aI3
asg154
Nsg155
g686
sg156
(lp689
sg158
g60
sg159
Nsg160
Nsg161
Nsbag3
(g4
g5
NtRp690
(dp691
g8
g10
sg139
Nsg140
(dp692
sg142
Nsg25
g27
sg143
(lp693
I4
aI4
asg145
Nsg146
VTosefta Berakhot 4:4
p694
sg148
(lp695
sg150
g104
sg151
Nsg152
(lp696
I4
aI4
asg154
Nsg155
g694
sg156
(lp697
sg158
g60
sg159
Nsg160
Nsg161
Nsbag3
(g4
g5
NtRp698
(dp699
g8
g10
sg139
Nsg140
(dp700
sg142
Nsg25
g27
sg143
(lp701
I4
aI5
asg145
Nsg146
VTosefta Berakhot 4:5
p702
sg148
(lp703
sg150
g104
sg151
Nsg152
(lp704
I4
aI5
asg154
Nsg155
g702
sg156
(lp705
sg158
g60
sg159
Nsg160
Nsg161
Nsbag3
(g4
g5
NtRp706
(dp707
g8
g10
sg139
Nsg140
(dp708
sg142
Nsg25
g27
sg143
(lp709
I4
aI6
asg145
Nsg146
VTosefta Berakhot 4:6
p710
sg148
(lp711
sg150
g104
sg151
Nsg152
(lp712
I4
aI6
asg154
Nsg155
g710
sg156
(lp713
sg158
g60
sg159
Nsg160
Nsg161
Nsbag3
(g4
g5
NtRp714
(dp715
g8
g10
sg139
Nsg140
(dp716
sg142
Nsg25
g27
sg143
(lp717
I4
aI7
asg145
Nsg146
VTosefta Berakhot 4:7
p718
sg148
(lp719
sg150
g104
sg151
Nsg152
(lp720
I4
aI7
asg154
Nsg155
g718
sg156
(lp721
sg158
g60
sg159
Nsg160
Nsg161
Nsbag3
(g4
g5
NtRp722
(dp723
g8
g10
sg139
Nsg140
(dp724
sg142
Nsg25
g27
sg143
(lp725
I4
aI8
asg145
Nsg146
VTosefta Berakhot 4:8
p726
sg148
(lp727
sg150
g104
sg151
Nsg152
(lp728
I4
aI8
asg154
Nsg155
g726
sg156
(lp729
sg158
g60
sg159
Nsg160
Nsg161
Nsbag3
(g4
g5
NtRp730
(dp731
g8
g10
sg139
Nsg140
(dp732
sg142
Nsg25
g27
sg143
(lp733
I4
aI9
asg145
Nsg146
VTosefta Berakhot 4:9
p734
sg148
(lp735
sg150
g104
sg151
Nsg152
(lp736
I4
aI9
asg154
Nsg155
g734
sg156
(lp737
sg158
g60
sg159
Nsg160
Nsg161
Nsbag3
(g4
g5
NtRp738
(dp739
g8
g10
sg139
Nsg140
(dp740
sg142
Nsg25
g27
sg143
(lp741
I4
aI10
asg145
Nsg146
VTosefta Berakhot 4:10
p742
sg148
(lp743
sg150
g104
sg151
Nsg152
(lp744
I4
aI10
asg154
Nsg155
g742
sg156
(lp745
sg158
g60
sg159
Nsg160
Nsg161
Nsbag3
(g4
g5
NtRp746
(dp747
g8
g10
sg139
Nsg140
(dp748
sg142
Nsg25
g27
sg143
(lp749
I4
aI11
asg145
Nsg146
VTosefta Berakhot 4:11
p750
sg148
(lp751
sg150
g104
sg151
Nsg152
(lp752
I4
aI11
asg154
Nsg155
g750
sg156
(lp753
sg158
g60
sg159
Nsg160
Nsg161
Nsbag3
(g4
g5
NtRp754
(dp755
g8
g10
sg139
Nsg140
(dp756
sg142
Nsg25
g27
sg143
(lp757
I4
aI12
asg145
Nsg146
VTosefta Berakhot 4:12
p758
sg148
(lp759
sg150
g104
sg151
Nsg152
(lp760
I4
aI12
asg154
Nsg155
g758
sg156
(lp761
sg158
g60
sg159
Nsg160
Nsg161
Nsbag3
(g4
g5
NtRp762
(dp763
g8
g10
sg139
Nsg140
(dp764
sg142
Nsg25
g27
sg143
(lp765
I4
aI13
asg145
Nsg146
VTosefta Berakhot 4:13
p766
sg148
(lp767
sg150
g104
sg151
Nsg152
(lp768
I4
aI13
asg154
Nsg155
g766
sg156
(lp769
sg158
g60
sg159
Nsg160
Nsg161
Nsbag3
(g4
g5
NtRp770
(dp771
g8
g10
sg139
Nsg140
(dp772
sg142
Nsg25
g27
sg143
(lp773
I4
aI14
asg145
Nsg146
VTosefta Berakhot 4:14
p774
sg148
(lp775
sg150
g104
sg151
Nsg152
(lp776
I4
aI14
asg154
Nsg155
g774
sg156
(lp777
sg158
g60
sg159
Nsg160
Nsg161
Nsbag3
(g4
g5
NtRp778
(dp779
g8
g10
sg139
Nsg140
(dp780
sg142
Nsg25
g27
sg143
(lp781
I4
aI15
asg145
Nsg146
VTosefta Berakhot 4:15
p782
sg148
(lp783
sg150
g104
sg151
Nsg152
(lp784
I4
aI15
asg154
Nsg155
g782
sg156
(lp785
sg158
g60
sg159
Nsg160
Nsg161
Nsbag3
(g4
g5
NtRp786
(dp787
g8
g10
sg139
Nsg140
(dp788
sg142
Nsg25
g27
sg143
(lp789
I4
aI16
asg145
Nsg146
VTosefta Berakhot 4:16
p790
sg148
(lp791
sg150
g104
sg151
Nsg152
(lp792
I4
aI16
asg154
Nsg155
g790
sg156
(lp793
sg158
g60
sg159
Nsg160
Nsg161
Nsbag3
(g4
g5
NtRp794
(dp795
g8
g10
sg139
Nsg140
(dp796
sg142
Nsg25
g27
sg143
(lp797
I4
aI17
asg145
Nsg146
VTosefta Berakhot 4:17
p798
sg148
(lp799
sg150
g104
sg151
Nsg152
(lp800
I4
aI17
asg154
Nsg155
g798
sg156
(lp801
sg158
g60
sg159
Nsg160
Nsg161
Nsbag3
(g4
g5
NtRp802
(dp803
g8
g10
sg139
Nsg140
(dp804
sg142
Nsg25
g27
sg143
(lp805
I4
aI18
asg145
Nsg146
VTosefta Berakhot 4:18
p806
sg148
(lp807
sg150
g104
sg151
Nsg152
(lp808
I4
aI18
asg154
Nsg155
g806
sg156
(lp809
sg158
g60
sg159
Nsg160
Nsg161
Nsbag3
(g4
g5
NtRp810
(dp811
g8
g10
sg139
Nsg140
(dp812
sg142
Nsg25
g27
sg143
(lp813
I4
aI19
asg145
Nsg146
VTosefta Berakhot 4:19
p814
sg148
(lp815
sg150
g104
sg151
Nsg152
(lp816
I4
aI19
asg154
Nsg155
g814
sg156
(lp817
sg158
g60
sg159
Nsg160
Nsg161
Nsbag3
(g4
g5
NtRp818
(dp819
g8
g10
sg139
Nsg140
(dp820
sg142
Nsg25
g27
sg143
(lp821
I5
aI1
asg145
Nsg146
VTosefta Berakhot 5:1
p822
sg148
(lp823
sg150
g104
sg151
Nsg152
(lp824
I5
aI1
asg154
Nsg155
g822
sg156
(lp825
sg158
g60
sg159
Nsg160
Nsg161
Nsbag3
(g4
g5
NtRp826
(dp827
g8
g10
sg139
Nsg140
(dp828
sg142
Nsg25
g27
sg143
(lp829
I5
aI2
asg145
Nsg146
VTosefta Berakhot 5:2
p830
sg148
(lp831
sg150
g104
sg151
Nsg152
(lp832
I5
aI2
asg154
Nsg155
g830
sg156
(lp833
sg158
g60
sg159
Nsg160
Nsg161
Nsbag3
(g4
g5
NtRp834
(dp835
g8
g10
sg139
Nsg140
(dp836
sg142
Nsg25
g27
sg143
(lp837
I5
aI3
asg145
Nsg146
VTosefta Berakhot 5:3
p838
sg148
(lp839
sg150
g104
sg151
Nsg152
(lp840
I5
aI3
asg154
Nsg155
g838
sg156
(lp841
sg158
g60
sg159
Nsg160
Nsg161
Nsbag3
(g4
g5
NtRp842
(dp843
g8
g10
sg139
Nsg140
(dp844
sg142
Nsg25
g27
sg143
(lp845
I5
aI4
asg145
Nsg146
VTosefta Berakhot 5:4
p846
sg148
(lp847
sg150
g104
sg151
Nsg152
(lp848
I5
aI4
asg154
Nsg155
g846
sg156
(lp849
sg158
g60
sg159
Nsg160
Nsg161
Nsbag3
(g4
g5
NtRp850
(dp851
g8
g10
sg139
Nsg140
(dp852
sg142
Nsg25
g27
sg143
(lp853
I5
aI5
asg145
Nsg146
VTosefta Berakhot 5:5
p854
sg148
(lp855
sg150
g104
sg151
Nsg152
(lp856
I5
aI5
asg154
Nsg155
g854
sg156
(lp857
sg158
g60
sg159
Nsg160
Nsg161
Nsbag3
(g4
g5
NtRp858
(dp859
g8
g10
sg139
Nsg140
(dp860
sg142
Nsg25
g27
sg143
(lp861
I5
aI6
asg145
Nsg146
VTosefta Berakhot 5:6
p862
sg148
(lp863
sg150
g104
sg151
Nsg152
(lp864
I5
aI6
asg154
Nsg155
g862
sg156
(lp865
sg158
g60
sg159
Nsg160
Nsg161
Nsbag3
(g4
g5
NtRp866
(dp867
g8
g10
sg139
Nsg140
(dp868
sg142
Nsg25
g27
sg143
(lp869
I5
aI7
asg145
Nsg146
VTosefta Berakhot 5:7
p870
sg148
(lp871
sg150
g104
sg151
Nsg152
(lp872
I5
aI7
asg154
Nsg155
g870
sg156
(lp873
sg158
g60
sg159
Nsg160
Nsg161
Nsbag3
(g4
g5
NtRp874
(dp875
g8
g10
sg139
Nsg140
(dp876
sg142
Nsg25
g27
sg143
(lp877
I5
aI8
asg145
Nsg146
VTosefta Berakhot 5:8
p878
sg148
(lp879
sg150
g104
sg151
Nsg152
(lp880
I5
aI8
asg154
Nsg155
g878
sg156
(lp881
sg158
g60
sg159
Nsg160
Nsg161
Nsbag3
(g4
g5
NtRp882
(dp883
g8
g10
sg139
Nsg140
(dp884
sg142
Nsg25
g27
sg143
(lp885
I5
aI9
asg145
Nsg146
VTosefta Berakhot 5:9
p886
sg148
(lp887
sg150
g104
sg151
Nsg152
(lp888
I5
aI9
asg154
Nsg155
g886
sg156
(lp889
sg158
g60
sg159
Nsg160
Nsg161
Nsbag3
(g4
g5
NtRp890
(dp891
g8
g10
sg139
Nsg140
(dp892
sg142
Nsg25
g27
sg143
(lp893
I5
aI10
asg145
Nsg146
VTosefta Berakhot 5:10
p894
sg148
(lp895
sg150
g104
sg151
Nsg152
(lp896
I5
aI10
asg154
Nsg155
g894
sg156
(lp897
sg158
g60
sg159
Nsg160
Nsg161
Nsbag3
(g4
g5
NtRp898
(dp899
g8
g10
sg139
Nsg140
(dp900
sg142
Nsg25
g27
sg143
(lp901
I5
aI11
asg145
Nsg146
VTosefta Berakhot 5:11
p902
sg148
(lp903
sg150
g104
sg151
Nsg152
(lp904
I5
aI11
asg154
Nsg155
g902
sg156
(lp905
sg158
g60
sg159
Nsg160
Nsg161
Nsbag3
(g4
g5
NtRp906
(dp907
g8
g10
sg139
Nsg140
(dp908
sg142
Nsg25
g27
sg143
(lp909
I5
aI12
asg145
Nsg146
VTosefta Berakhot 5:12
p910
sg148
(lp911
sg150
g104
sg151
Nsg152
(lp912
I5
aI12
asg154
Nsg155
g910
sg156
(lp913
sg158
g60
sg159
Nsg160
Nsg161
Nsbag3
(g4
g5
NtRp914
(dp915
g8
g10
sg139
Nsg140
(dp916
sg142
Nsg25
g27
sg143
(lp917
I5
aI13
asg145
Nsg146
VTosefta Berakhot 5:13
p918
sg148
(lp919
sg150
g104
sg151
Nsg152
(lp920
I5
aI13
asg154
Nsg155
g918
sg156
(lp921
sg158
g60
sg159
Nsg160
Nsg161
Nsbag3
(g4
g5
NtRp922
(dp923
g8
g10
sg139
Nsg140
(dp924
sg142
Nsg25
g27
sg143
(lp925
I5
aI14
asg145
Nsg146
VTosefta Berakhot 5:14
p926
sg148
(lp927
sg150
g104
sg151
Nsg152
(lp928
I5
aI14
asg154
Nsg155
g926
sg156
(lp929
sg158
g60
sg159
Nsg160
Nsg161
Nsbag3
(g4
g5
NtRp930
(dp931
g8
g10
sg139
Nsg140
(dp932
sg142
Nsg25
g27
sg143
(lp933
I5
aI15
asg145
Nsg146
VTosefta Berakhot 5:15
p934
sg148
(lp935
sg150
g104
sg151
Nsg152
(lp936
I5
aI15
asg154
Nsg155
g934
sg156
(lp937
sg158
g60
sg159
Nsg160
Nsg161
Nsbag3
(g4
g5
NtRp938
(dp939
g8
g10
sg139
Nsg140
(dp940
sg142
Nsg25
g27
sg143
(lp941
I5
aI16
asg145
Nsg146
VTosefta Berakhot 5:16
p942
sg148
(lp943
sg150
g104
sg151
Nsg152
(lp944
I5
aI16
asg154
Nsg155
g942
sg156
(lp945
sg158
g60
sg159
Nsg160
Nsg161
Nsbag3
(g4
g5
NtRp946
(dp947
g8
g10
sg139
Nsg140
(dp948
sg142
Nsg25
g27
sg143
(lp949
I5
aI17
asg145
Nsg146
VTosefta Berakhot 5:17
p950
sg148
(lp951
sg150
g104
sg151
Nsg152
(lp952
I5
aI17
asg154
Nsg155
g950
sg156
(lp953
sg158
g60
sg159
Nsg160
Nsg161
Nsbag3
(g4
g5
NtRp954
(dp955
g8
g10
sg139
Nsg140
(dp956
sg142
Nsg25
g27
sg143
(lp957
I5
aI18
asg145
Nsg146
VTosefta Berakhot 5:18
p958
sg148
(lp959
sg150
g104
sg151
Nsg152
(lp960
I5
aI18
asg154
Nsg155
g958
sg156
(lp961
sg158
g60
sg159
Nsg160
Nsg161
Nsbag3
(g4
g5
NtRp962
(dp963
g8
g10
sg139
Nsg140
(dp964
sg142
Nsg25
g27
sg143
(lp965
I5
aI19
asg145
Nsg146
VTosefta Berakhot 5:19
p966
sg148
(lp967
sg150
g104
sg151
Nsg152
(lp968
I5
aI19
asg154
Nsg155
g966
sg156
(lp969
sg158
g60
sg159
Nsg160
Nsg161
Nsbag3
(g4
g5
NtRp970
(dp971
g8
g10
sg139
Nsg140
(dp972
sg142
Nsg25
g27
sg143
(lp973
I5
aI20
asg145
Nsg146
VTosefta Berakhot 5:20
p974
sg148
(lp975
sg150
g104
sg151
Nsg152
(lp976
I5
aI20
asg154
Nsg155
g974
sg156
(lp977
sg158
g60
sg159
Nsg160
Nsg161
Nsbag3
(g4
g5
NtRp978
(dp979
g8
g10
sg139
Nsg140
(dp980
sg142
Nsg25
g27
sg143
(lp981
I5
aI21
asg145
Nsg146
VTosefta Berakhot 5:21
p982
sg148
(lp983
sg150
g104
sg151
Nsg152
(lp984
I5
aI21
asg154
Nsg155
g982
sg156
(lp985
sg158
g60
sg159
Nsg160
Nsg161
Nsbag3
(g4
g5
NtRp986
(dp987
g8
g10
sg139
Nsg140
(dp988
sg142
Nsg25
g27
sg143
(lp989
I5
aI22
asg145
Nsg146
VTosefta Berakhot 5:22
p990
sg148
(lp991
sg150
g104
sg151
Nsg152
(lp992
I5
aI22
asg154
Nsg155
g990
sg156
(lp993
sg158
g60
sg159
Nsg160
Nsg161
Nsbag3
(g4
g5
NtRp994
(dp995
g8
g10
sg139
Nsg140
(dp996
sg142
Nsg25
g27
sg143
(lp997
I5
aI23
asg145
Nsg146
VTosefta Berakhot 5:23
p998
sg148
(lp999
sg150
g104
sg151
Nsg152
(lp1000
I5
aI23
asg154
Nsg155
g998
sg156
(lp1001
sg158
g60
sg159
Nsg160
Nsg161
Nsbag3
(g4
g5
NtRp1002
(dp1003
g8
g10
sg139
Nsg140
(dp1004
sg142
Nsg25
g27
sg143
(lp1005
I5
aI24
asg145
Nsg146
VTosefta Berakhot 5:24
p1006
sg148
(lp1007
sg150
g104
sg151
Nsg152
(lp1008
I5
aI24
asg154
Nsg155
g1006
sg156
(lp1009
sg158
g60
sg159
Nsg160
Nsg161
Nsbag3
(g4
g5
NtRp1010
(dp1011
g8
g10
sg139
Nsg140
(dp1012
sg142
Nsg25
g27
sg143
(lp1013
I5
aI25
asg145
Nsg146
VTosefta Berakhot 5:25
p1014
sg148
(lp1015
sg150
g104
sg151
Nsg152
(lp1016
I5
aI25
asg154
Nsg155
g1014
sg156
(lp1017
sg158
g60
sg159
Nsg160
Nsg161
Nsbag3
(g4
g5
NtRp1018
(dp1019
g8
g10
sg139
Nsg140
(dp1020
sg142
Nsg25
g27
sg143
(lp1021
I5
aI26
asg145
Nsg146
VTosefta Berakhot 5:26
p1022
sg148
(lp1023
sg150
g104
sg151
Nsg152
(lp1024
I5
aI26
asg154
Nsg155
g1022
sg156
(lp1025
sg158
g60
sg159
Nsg160
Nsg161
Nsbag3
(g4
g5
NtRp1026
(dp1027
g8
g10
sg139
Nsg140
(dp1028
sg142
Nsg25
g27
sg143
(lp1029
I5
aI27
asg145
Nsg146
VTosefta Berakhot 5:27
p1030
sg148
(lp1031
sg150
g104
sg151
Nsg152
(lp1032
I5
aI27
asg154
Nsg155
g1030
sg156
(lp1033
sg158
g60
sg159
Nsg160
Nsg161
Nsbag3
(g4
g5
NtRp1034
(dp1035
g8
g10
sg139
Nsg140
(dp1036
sg142
Nsg25
g27
sg143
(lp1037
I5
aI28
asg145
Nsg146
VTosefta Berakhot 5:28
p1038
sg148
(lp1039
sg150
g104
sg151
Nsg152
(lp1040
I5
aI28
asg154
Nsg155
g1038
sg156
(lp1041
sg158
g60
sg159
Nsg160
Nsg161
Nsbag3
(g4
g5
NtRp1042
(dp1043
g8
g10
sg139
Nsg140
(dp1044
sg142
Nsg25
g27
sg143
(lp1045
I5
aI29
asg145
Nsg146
VTosefta Berakhot 5:29
p1046
sg148
(lp1047
sg150
g104
sg151
Nsg152
(lp1048
I5
aI29
asg154
Nsg155
g1046
sg156
(lp1049
sg158
g60
sg159
Nsg160
Nsg161
Nsbag3
(g4
g5
NtRp1050
(dp1051
g8
g10
sg139
Nsg140
(dp1052
sg142
Nsg25
g27
sg143
(lp1053
I5
aI30
asg145
Nsg146
VTosefta Berakhot 5:30
p1054
sg148
(lp1055
sg150
g104
sg151
Nsg152
(lp1056
I5
aI30
asg154
Nsg155
g1054
sg156
(lp1057
sg158
g60
sg159
Nsg160
Nsg161
Nsbag3
(g4
g5
NtRp1058
(dp1059
g8
g10
sg139
Nsg140
(dp1060
sg142
Nsg25
g27
sg143
(lp1061
I5
aI31
asg145
Nsg146
VTosefta Berakhot 5:31
p1062
sg148
(lp1063
sg150
g104
sg151
Nsg152
(lp1064
I5
aI31
asg154
Nsg155
g1062
sg156
(lp1065
sg158
g60
sg159
Nsg160
Nsg161
Nsbag3
(g4
g5
NtRp1066
(dp1067
g8
g10
sg139
Nsg140
(dp1068
sg142
Nsg25
g27
sg143
(lp1069
I5
aI32
asg145
Nsg146
VTosefta Berakhot 5:32
p1070
sg148
(lp1071
sg150
g104
sg151
Nsg152
(lp1072
I5
aI32
asg154
Nsg155
g1070
sg156
(lp1073
sg158
g60
sg159
Nsg160
Nsg161
Nsbag3
(g4
g5
NtRp1074
(dp1075
g8
g10
sg139
Nsg140
(dp1076
sg142
Nsg25
g27
sg143
(lp1077
I5
aI33
asg145
Nsg146
VTosefta Berakhot 5:33
p1078
sg148
(lp1079
sg150
g104
sg151
Nsg152
(lp1080
I5
aI33
asg154
Nsg155
g1078
sg156
(lp1081
sg158
g60
sg159
Nsg160
Nsg161
Nsbag3
(g4
g5
NtRp1082
(dp1083
g8
g10
sg139
Nsg140
(dp1084
sg142
Nsg25
g27
sg143
(lp1085
I5
aI34
asg145
Nsg146
VTosefta Berakhot 5:34
p1086
sg148
(lp1087
sg150
g104
sg151
Nsg152
(lp1088
I5
aI34
asg154
Nsg155
g1086
sg156
(lp1089
sg158
g60
sg159
Nsg160
Nsg161
Nsbag3
(g4
g5
NtRp1090
(dp1091
g8
g10
sg139
Nsg140
(dp1092
sg142
Nsg25
g27
sg143
(lp1093
I5
aI35
asg145
Nsg146
VTosefta Berakhot 5:35
p1094
sg148
(lp1095
sg150
g104
sg151
Nsg152
(lp1096
I5
aI35
asg154
Nsg155
g1094
sg156
(lp1097
sg158
g60
sg159
Nsg160
Nsg161
Nsbag3
(g4
g5
NtRp1098
(dp1099
g8
g10
sg139
Nsg140
(dp1100
sg142
Nsg25
g27
sg143
(lp1101
I5
aI36
asg145
Nsg146
VTosefta Berakhot 5:36
p1102
sg148
(lp1103
sg150
g104
sg151
Nsg152
(lp1104
I5
aI36
asg154
Nsg155
g1102
sg156
(lp1105
sg158
g60
sg159
Nsg160
Nsg161
Nsbag3
(g4
g5
NtRp1106
(dp1107
g8
g10
sg139
Nsg140
(dp1108
sg142
Nsg25
g27
sg143
(lp1109
I5
aI37
asg145
Nsg146
VTosefta Berakhot 5:37
p1110
sg148
(lp1111
sg150
g104
sg151
Nsg152
(lp1112
I5
aI37
asg154
Nsg155
g1110
sg156
(lp1113
sg158
g60
sg159
Nsg160
Nsg161
Nsbag3
(g4
g5
NtRp1114
(dp1115
g8
g10
sg139
Nsg140
(dp1116
sg142
Nsg25
g27
sg143
(lp1117
I6
aI1
asg145
Nsg146
VTosefta Berakhot 6:1
p1118
sg148
(lp1119
sg150
g104
sg151
Nsg152
(lp1120
I6
aI1
asg154
Nsg155
g1118
sg156
(lp1121
sg158
g60
sg159
Nsg160
Nsg161
Nsbag3
(g4
g5
NtRp1122
(dp1123
g8
g10
sg139
Nsg140
(dp1124
sg142
Nsg25
g27
sg143
(lp1125
I6
aI2
asg145
Nsg146
VTosefta Berakhot 6:2
p1126
sg148
(lp1127
sg150
g104
sg151
Nsg152
(lp1128
I6
aI2
asg154
Nsg155
g1126
sg156
(lp1129
sg158
g60
sg159
Nsg160
Nsg161
Nsbag3
(g4
g5
NtRp1130
(dp1131
g8
g10
sg139
Nsg140
(dp1132
sg142
Nsg25
g27
sg143
(lp1133
I6
aI3
asg145
Nsg146
VTosefta Berakhot 6:3
p1134
sg148
(lp1135
sg150
g104
sg151
Nsg152
(lp1136
I6
aI3
asg154
Nsg155
g1134
sg156
(lp1137
sg158
g60
sg159
Nsg160
Nsg161
Nsbag3
(g4
g5
NtRp1138
(dp1139
g8
g10
sg139
Nsg140
(dp1140
sg142
Nsg25
g27
sg143
(lp1141
I6
aI4
asg145
Nsg146
VTosefta Berakhot 6:4
p1142
sg148
(lp1143
sg150
g104
sg151
Nsg152
(lp1144
I6
aI4
asg154
Nsg155
g1142
sg156
(lp1145
sg158
g60
sg159
Nsg160
Nsg161
Nsbag3
(g4
g5
NtRp1146
(dp1147
g8
g10
sg139
Nsg140
(dp1148
sg142
Nsg25
g27
sg143
(lp1149
I6
aI5
asg145
Nsg146
VTosefta Berakhot 6:5
p1150
sg148
(lp1151
sg150
g104
sg151
Nsg152
(lp1152
I6
aI5
asg154
Nsg155
g1150
sg156
(lp1153
sg158
g60
sg159
Nsg160
Nsg161
Nsbag3
(g4
g5
NtRp1154
(dp1155
g8
g10
sg139
Nsg140
(dp1156
sg142
Nsg25
g27
sg143
(lp1157
I6
aI6
asg145
Nsg146
VTosefta Berakhot 6:6
p1158
sg148
(lp1159
sg150
g104
sg151
Nsg152
(lp1160
I6
aI6
asg154
Nsg155
g1158
sg156
(lp1161
sg158
g60
sg159
Nsg160
Nsg161
Nsbag3
(g4
g5
NtRp1162
(dp1163
g8
g10
sg139
Nsg140
(dp1164
sg142
Nsg25
g27
sg143
(lp1165
I6
aI7
asg145
Nsg146
VTosefta Berakhot 6:7
p1166
sg148
(lp1167
sg150
g104
sg151
Nsg152
(lp1168
I6
aI7
asg154
Nsg155
g1166
sg156
(lp1169
sg158
g60
sg159
Nsg160
Nsg161
Nsbag3
(g4
g5
NtRp1170
(dp1171
g8
g10
sg139
Nsg140
(dp1172
sg142
Nsg25
g27
sg143
(lp1173
I6
aI8
asg145
Nsg146
VTosefta Berakhot 6:8
p1174
sg148
(lp1175
sg150
g104
sg151
Nsg152
(lp1176
I6
aI8
asg154
Nsg155
g1174
sg156
(lp1177
sg158
g60
sg159
Nsg160
Nsg161
Nsbag3
(g4
g5
NtRp1178
(dp1179
g8
g10
sg139
Nsg140
(dp1180
sg142
Nsg25
g27
sg143
(lp1181
I6
aI9
asg145
Nsg146
VTosefta Berakhot 6:9
p1182
sg148
(lp1183
sg150
g104
sg151
Nsg152
(lp1184
I6
aI9
asg154
Nsg155
g1182
sg156
(lp1185
sg158
g60
sg159
Nsg160
Nsg161
Nsbag3
(g4
g5
NtRp1186
(dp1187
g8
g10
sg139
Nsg140
(dp1188
sg142
Nsg25
g27
sg143
(lp1189
I6
aI10
asg145
Nsg146
VTosefta Berakhot 6:10
p1190
sg148
(lp1191
sg150
g104
sg151
Nsg152
(lp1192
I6
aI10
asg154
Nsg155
g1190
sg156
(lp1193
sg158
g60
sg159
Nsg160
Nsg161
Nsbag3
(g4
g5
NtRp1194
(dp1195
g8
g10
sg139
Nsg140
(dp1196
sg142
Nsg25
g27
sg143
(lp1197
I6
aI11
asg145
Nsg146
VTosefta Berakhot 6:11
p1198
sg148
(lp1199
sg150
g104
sg151
Nsg152
(lp1200
I6
aI11
asg154
Nsg155
g1198
sg156
(lp1201
sg158
g60
sg159
Nsg160
Nsg161
Nsbag3
(g4
g5
NtRp1202
(dp1203
g8
g10
sg139
Nsg140
(dp1204
sg142
Nsg25
g27
sg143
(lp1205
I6
aI12
asg145
Nsg146
VTosefta Berakhot 6:12
p1206
sg148
(lp1207
sg150
g104
sg151
Nsg152
(lp1208
I6
aI12
asg154
Nsg155
g1206
sg156
(lp1209
sg158
g60
sg159
Nsg160
Nsg161
Nsbag3
(g4
g5
NtRp1210
(dp1211
g8
g10
sg139
Nsg140
(dp1212
sg142
Nsg25
g27
sg143
(lp1213
I6
aI13
asg145
Nsg146
VTosefta Berakhot 6:13
p1214
sg148
(lp1215
sg150
g104
sg151
Nsg152
(lp1216
I6
aI13
asg154
Nsg155
g1214
sg156
(lp1217
sg158
g60
sg159
Nsg160
Nsg161
Nsbag3
(g4
g5
NtRp1218
(dp1219
g8
g10
sg139
Nsg140
(dp1220
sg142
Nsg25
g27
sg143
(lp1221
I6
aI14
asg145
Nsg146
VTosefta Berakhot 6:14
p1222
sg148
(lp1223
sg150
g104
sg151
Nsg152
(lp1224
I6
aI14
asg154
Nsg155
g1222
sg156
(lp1225
sg158
g60
sg159
Nsg160
Nsg161
Nsbag3
(g4
g5
NtRp1226
(dp1227
g8
g10
sg139
Nsg140
(dp1228
sg142
Nsg25
g27
sg143
(lp1229
I6
aI15
asg145
Nsg146
VTosefta Berakhot 6:15
p1230
sg148
(lp1231
sg150
g104
sg151
Nsg152
(lp1232
I6
aI15
asg154
Nsg155
g1230
sg156
(lp1233
sg158
g60
sg159
Nsg160
Nsg161
Nsbag3
(g4
g5
NtRp1234
(dp1235
g8
g10
sg139
Nsg140
(dp1236
sg142
Nsg25
g27
sg143
(lp1237
I6
aI16
asg145
Nsg146
VTosefta Berakhot 6:16
p1238
sg148
(lp1239
sg150
g104
sg151
Nsg152
(lp1240
I6
aI16
asg154
Nsg155
g1238
sg156
(lp1241
sg158
g60
sg159
Nsg160
Nsg161
Nsbag3
(g4
g5
NtRp1242
(dp1243
g8
g10
sg139
Nsg140
(dp1244
sg142
Nsg25
g27
sg143
(lp1245
I6
aI17
asg145
Nsg146
VTosefta Berakhot 6:17
p1246
sg148
(lp1247
sg150
g104
sg151
Nsg152
(lp1248
I6
aI17
asg154
Nsg155
g1246
sg156
(lp1249
sg158
g60
sg159
Nsg160
Nsg161
Nsbag3
(g4
g5
NtRp1250
(dp1251
g8
g10
sg139
Nsg140
(dp1252
sg142
Nsg25
g27
sg143
(lp1253
I6
aI18
asg145
Nsg146
VTosefta Berakhot 6:18
p1254
sg148
(lp1255
sg150
g104
sg151
Nsg152
(lp1256
I6
aI18
asg154
Nsg155
g1254
sg156
(lp1257
sg158
g60
sg159
Nsg160
Nsg161
Nsbag3
(g4
g5
NtRp1258
(dp1259
g8
g10
sg139
Nsg140
(dp1260
sg142
Nsg25
g27
sg143
(lp1261
I6
aI19
asg145
Nsg146
VTosefta Berakhot 6:19
p1262
sg148
(lp1263
sg150
g104
sg151
Nsg152
(lp1264
I6
aI19
asg154
Nsg155
g1262
sg156
(lp1265
sg158
g60
sg159
Nsg160
Nsg161
Nsbag3
(g4
g5
NtRp1266
(dp1267
g8
g10
sg139
Nsg140
(dp1268
sg142
Nsg25
g27
sg143
(lp1269
I6
aI20
asg145
Nsg146
VTosefta Berakhot 6:20
p1270
sg148
(lp1271
sg150
g104
sg151
Nsg152
(lp1272
I6
aI20
asg154
Nsg155
g1270
sg156
(lp1273
sg158
g60
sg159
Nsg160
Nsg161
Nsbag3
(g4
g5
NtRp1274
(dp1275
g8
g10
sg139
Nsg140
(dp1276
sg142
Nsg25
g27
sg143
(lp1277
I6
aI21
asg145
Nsg146
VTosefta Berakhot 6:21
p1278
sg148
(lp1279
sg150
g104
sg151
Nsg152
(lp1280
I6
aI21
asg154
Nsg155
g1278
sg156
(lp1281
sg158
g60
sg159
Nsg160
Nsg161
Nsbag3
(g4
g5
NtRp1282
(dp1283
g8
g10
sg139
Nsg140
(dp1284
sg142
Nsg25
g27
sg143
(lp1285
I6
aI22
asg145
Nsg146
VTosefta Berakhot 6:22
p1286
sg148
(lp1287
sg150
g104
sg151
Nsg152
(lp1288
I6
aI22
asg154
Nsg155
g1286
sg156
(lp1289
sg158
g60
sg159
Nsg160
Nsg161
Nsbag3
(g4
g5
NtRp1290
(dp1291
g8
g10
sg139
Nsg140
(dp1292
sg142
Nsg25
g27
sg143
(lp1293
I6
aI23
asg145
Nsg146
VTosefta Berakhot 6:23
p1294
sg148
(lp1295
sg150
g104
sg151
Nsg152
(lp1296
I6
aI23
asg154
Nsg155
g1294
sg156
(lp1297
sg158
g60
sg159
Nsg160
Nsg161
Nsbag3
(g4
g5
NtRp1298
(dp1299
g8
g10
sg139
Nsg140
(dp1300
sg142
Nsg25
g27
sg143
(lp1301
I6
aI24
asg145
Nsg146
VTosefta Berakhot 6:24
p1302
sg148
(lp1303
sg150
g104
sg151
Nsg152
(lp1304
I6
aI24
asg154
Nsg155
g1302
sg156
(lp1305
sg158
g60
sg159
Nsg160
Nsg161
Nsbag3
(g4
g5
NtRp1306
(dp1307
g8
g10
sg139
Nsg140
(dp1308
sg142
Nsg25
g27
sg143
(lp1309
I6
aI25
asg145
Nsg146
VTosefta Berakhot 6:25
p1310
sg148
(lp1311
sg150
g104
sg151
Nsg152
(lp1312
I6
aI25
asg154
Nsg155
g1310
sg156
(lp1313
sg158
g60
sg159
Nsg160
Nsg161
Nsbag3
(g4
g5
NtRp1314
(dp1315
g8
g10
sg139
Nsg140
(dp1316
sg142
Nsg25
g27
sg143
(lp1317
I6
aI26
asg145
Nsg146
VTosefta Berakhot 6:26
p1318
sg148
(lp1319
sg150
g104
sg151
Nsg152
(lp1320
I6
aI26
asg154
Nsg155
g1318
sg156
(lp1321
sg158
g60
sg159
Nsg160
Nsg161
Nsbag3
(g4
g5
NtRp1322
(dp1323
g8
g10
sg139
Nsg140
(dp1324
sg142
Nsg25
g27
sg143
(lp1325
I6
aI27
asg145
Nsg146
VTosefta Berakhot 6:27
p1326
sg148
(lp1327
sg150
g104
sg151
Nsg152
(lp1328
I6
aI27
asg154
Nsg155
g1326
sg156
(lp1329
sg158
g60
sg159
Nsg160
Nsg161
Nsbag3
(g4
g5
NtRp1330
(dp1331
g8
g10
sg139
Nsg140
(dp1332
sg142
Nsg25
g27
sg143
(lp1333
I6
aI28
asg145
Nsg146
VTosefta Berakhot 6:28
p1334
sg148
(lp1335
sg150
g104
sg151
Nsg152
(lp1336
I6
aI28
asg154
Nsg155
g1334
sg156
(lp1337
sg158
g60
sg159
Nsg160
Nsg161
Nsbag3
(g4
g5
NtRp1338
(dp1339
g8
g10
sg139
Nsg140
(dp1340
sg142
Nsg25
g27
sg143
(lp1341
I6
aI29
asg145
Nsg146
VTosefta Berakhot 6:29
p1342
sg148
(lp1343
sg150
g104
sg151
Nsg152
(lp1344
I6
aI29
asg154
Nsg155
g1342
sg156
(lp1345
sg158
g60
sg159
Nsg160
Nsg161
Nsbag3
(g4
g5
NtRp1346
(dp1347
g8
g10
sg139
Nsg140
(dp1348
sg142
Nsg25
g27
sg143
(lp1349
I6
aI30
asg145
Nsg146
VTosefta Berakhot 6:30
p1350
sg148
(lp1351
sg150
g104
sg151
Nsg152
(lp1352
I6
aI30
asg154
Nsg155
g1350
sg156
(lp1353
sg158
g60
sg159
Nsg160
Nsg161
Nsbag3
(g4
g5
NtRp1354
(dp1355
g8
g10
sg139
Nsg140
(dp1356
sg142
Nsg25
g27
sg143
(lp1357
I6
aI31
asg145
Nsg146
VTosefta Berakhot 6:31
p1358
sg148
(lp1359
sg150
g104
sg151
Nsg152
(lp1360
I6
aI31
asg154
Nsg155
g1358
sg156
(lp1361
sg158
g60
sg159
Nsg160
Nsg161
NsbaI6397
t.