((lp1
I0
aI167
aI366
aI399
aI579
aI666
aI696
aI761
aI787
aI896
aI987
aI1048
aI1096
aI1190
aI1238
aI1272
aI1323
aI1401
aI1445
aI1473
aI1502
aI1543
aI1611
aI1667
aI1699
aI1726
aI1749
aI1769
aI1842
aI1909
a(lp2
ccopy_reg
_reconstructor
p3
(csefaria.model.text
Ref
p4
c__builtin__
object
p5
NtRp6
(dp7
S'index_node'
p8
g3
(csefaria.model.schema
JaggedArrayNode
p9
g5
NtRp10
(dp11
S'_address'
p12
(lp13
VTosefta Zavim
p14
asS'_full_titles'
p15
(dp16
sVnodeType
p17
VJaggedArrayNode
p18
sS'parent'
p19
NsVaddressTypes
p20
(lp21
VInteger
p22
aVInteger
p23
asS'default'
p24
I00
sS'index'
p25
g3
(csefaria.model.text
Index
p26
g5
NtRp27
(dp28
S'struct_objs'
p29
(dp30
sS'_id'
p31
g3
(cbson.objectid
ObjectId
p32
g5
NtRp33
S'S7\xb4p\xfb\xfb\xa2 \xb6\t\xcf!'
p34
bsS'pkeys_orig_values'
p35
(dp36
S'title'
p37
VTosefta Zavim
p38
ssS'pubDate'
p39
V1521
p40
sS'transliteratedTitle'
p41
VTosefta Zavim
p42
sS'pubPlace'
p43
VVenice
p44
sS'compPlace'
p45
VTalmudic Israel
p46
sS'enDesc'
p47
VThe Tosefta (Supplement, addition") is a compilation of the Jewish oral law. Opinions differ widely as to when the Tosefta was redacted and how it relates to the Mishnah. However it closely corresponds to the Mishnah in structure and style, with the same divisions for sedarim ("orders") and masekhot ("tractates"). In many ways, the Tosefta acts as a supplement to the Mishnah. It is mainly written in Mishnaic Hebrew, with some Aramaic. Zavim (Seminal Emissions) belongs to the sixth order, Tahorot (Purities) and discusses the laws of a person who has ejaculated. It has five chapters.
p48
sS'order'
p49
(lp50
I11
asS'era'
p51
VT
sS'compDate'
p52
V210
p53
sS'nodes'
p54
g10
sS'errorMargin'
p55
V20
p56
sS'_title'
p57
g38
sS'categories'
p58
(lp59
VTosefta
p60
aVSeder Toharot
p61
asS'schema'
p62
(dp63
g17
g18
sg20
g21
sVlengths
p64
(lp65
I5
asVdepth
p66
I2
sVtitles
p67
(lp68
(dp69
Vlang
p70
Ven
p71
sVtext
p72
VTos. Zavim
p73
sa(dp74
Vlang
p75
Ven
p76
sVtext
p77
VT. Zavim
p78
sa(dp79
Vlang
p80
Vhe
p81
sVtext
p82
V\u05ea\u05d5\u05e1\u05e4\u05ea\u05d0 \u05d6\u05d1\u05d9\u05dd
p83
sVprimary
p84
I01
sa(dp85
Vlang
p86
Ven
p87
sVtext
p88
VTosefta Zavim
p89
sVprimary
p90
I01
sasVkey
p91
g14
sVsectionNames
p92
(lp93
VChapter
p94
aVTosefta
p95
assbsS'_primary_title'
p96
(dp97
sS'title_group'
p98
g3
(csefaria.model.schema
TitleGroup
p99
g5
NtRp100
(dp101
g96
(dp102
S'en'
p103
g89
ssS'titles'
p104
g68
sbsS'_addressTypes'
p105
(lp106
g3
(csefaria.model.schema
AddressInteger
p107
g5
NtRp108
(dp109
S'length'
p110
I5
sg49
I0
sbag3
(g107
g5
NtRp111
(dp112
g110
Nsg49
I1
sbasS'sharedTitle'
p113
Nsg64
g65
sg66
I2
sS'_full_title'
p114
(dp115
g103
g89
ssS'key'
p116
g14
sS'checkFirst'
p117
NsS'_regexes'
p118
(dp119
sS'_leaf_nodes'
p120
(lp121
sg92
g93
sS'children'
p122
(lp123
sbsS'_range_index'
p124
NsS'_context'
p125
(dp126
sS'_padded'
p127
Nsg25
g27
sS'sections'
p128
(lp129
I1
aI1
asS'_first_spanned_ref'
p130
NsS'tref'
p131
VTosefta Zavim 1:1
p132
sS'_spanned_refs'
p133
(lp134
sS'book'
p135
g89
sS'_range_depth'
p136
NsS'toSections'
p137
(lp138
I1
aI1
asS'_url'
p139
NsS'_normal'
p140
g132
sS'_ranged_refs'
p141
(lp142
sS'type'
p143
g60
sS'_prev'
p144
NsS'_he_normal'
p145
NsS'_next'
p146
Nsbag3
(g4
g5
NtRp147
(dp148
g8
g10
sg124
Nsg125
(dp149
sg127
Nsg25
g27
sg128
(lp150
I1
aI2
asg130
Nsg131
VTosefta Zavim 1:2
p151
sg133
(lp152
sg135
g89
sg136
Nsg137
(lp153
I1
aI2
asg139
Nsg140
g151
sg141
(lp154
sg143
g60
sg144
Nsg145
Nsg146
Nsbag3
(g4
g5
NtRp155
(dp156
g8
g10
sg124
Nsg125
(dp157
sg127
Nsg25
g27
sg128
(lp158
I1
aI3
asg130
Nsg131
VTosefta Zavim 1:3
p159
sg133
(lp160
sg135
g89
sg136
Nsg137
(lp161
I1
aI3
asg139
Nsg140
g159
sg141
(lp162
sg143
g60
sg144
Nsg145
Nsg146
Nsbag3
(g4
g5
NtRp163
(dp164
g8
g10
sg124
Nsg125
(dp165
sg127
Nsg25
g27
sg128
(lp166
I1
aI4
asg130
Nsg131
VTosefta Zavim 1:4
p167
sg133
(lp168
sg135
g89
sg136
Nsg137
(lp169
I1
aI4
asg139
Nsg140
g167
sg141
(lp170
sg143
g60
sg144
Nsg145
Nsg146
Nsbag3
(g4
g5
NtRp171
(dp172
g8
g10
sg124
Nsg125
(dp173
sg127
Nsg25
g27
sg128
(lp174
I2
aI1
asg130
Nsg131
VTosefta Zavim 2:1
p175
sg133
(lp176
sg135
g89
sg136
Nsg137
(lp177
I2
aI1
asg139
Nsg140
g175
sg141
(lp178
sg143
g60
sg144
Nsg145
Nsg146
Nsbag3
(g4
g5
NtRp179
(dp180
g8
g10
sg124
Nsg125
(dp181
sg127
Nsg25
g27
sg128
(lp182
I2
aI2
asg130
Nsg131
VTosefta Zavim 2:2
p183
sg133
(lp184
sg135
g89
sg136
Nsg137
(lp185
I2
aI2
asg139
Nsg140
g183
sg141
(lp186
sg143
g60
sg144
Nsg145
Nsg146
Nsbag3
(g4
g5
NtRp187
(dp188
g8
g10
sg124
Nsg125
(dp189
sg127
Nsg25
g27
sg128
(lp190
I2
aI3
asg130
Nsg131
VTosefta Zavim 2:3
p191
sg133
(lp192
sg135
g89
sg136
Nsg137
(lp193
I2
aI3
asg139
Nsg140
g191
sg141
(lp194
sg143
g60
sg144
Nsg145
Nsg146
Nsbag3
(g4
g5
NtRp195
(dp196
g8
g10
sg124
Nsg125
(dp197
sg127
Nsg25
g27
sg128
(lp198
I2
aI4
asg130
Nsg131
VTosefta Zavim 2:4
p199
sg133
(lp200
sg135
g89
sg136
Nsg137
(lp201
I2
aI4
asg139
Nsg140
g199
sg141
(lp202
sg143
g60
sg144
Nsg145
Nsg146
Nsbag3
(g4
g5
NtRp203
(dp204
g8
g10
sg124
Nsg125
(dp205
sg127
Nsg25
g27
sg128
(lp206
I2
aI5
asg130
Nsg131
VTosefta Zavim 2:5
p207
sg133
(lp208
sg135
g89
sg136
Nsg137
(lp209
I2
aI5
asg139
Nsg140
g207
sg141
(lp210
sg143
g60
sg144
Nsg145
Nsg146
Nsbag3
(g4
g5
NtRp211
(dp212
g8
g10
sg124
Nsg125
(dp213
sg127
Nsg25
g27
sg128
(lp214
I3
aI1
asg130
Nsg131
VTosefta Zavim 3:1
p215
sg133
(lp216
sg135
g89
sg136
Nsg137
(lp217
I3
aI1
asg139
Nsg140
g215
sg141
(lp218
sg143
g60
sg144
Nsg145
Nsg146
Nsbag3
(g4
g5
NtRp219
(dp220
g8
g10
sg124
Nsg125
(dp221
sg127
Nsg25
g27
sg128
(lp222
I3
aI2
asg130
Nsg131
VTosefta Zavim 3:2
p223
sg133
(lp224
sg135
g89
sg136
Nsg137
(lp225
I3
aI2
asg139
Nsg140
g223
sg141
(lp226
sg143
g60
sg144
Nsg145
Nsg146
Nsbag3
(g4
g5
NtRp227
(dp228
g8
g10
sg124
Nsg125
(dp229
sg127
Nsg25
g27
sg128
(lp230
I3
aI3
asg130
Nsg131
VTosefta Zavim 3:3
p231
sg133
(lp232
sg135
g89
sg136
Nsg137
(lp233
I3
aI3
asg139
Nsg140
g231
sg141
(lp234
sg143
g60
sg144
Nsg145
Nsg146
Nsbag3
(g4
g5
NtRp235
(dp236
g8
g10
sg124
Nsg125
(dp237
sg127
Nsg25
g27
sg128
(lp238
I4
aI1
asg130
Nsg131
VTosefta Zavim 4:1
p239
sg133
(lp240
sg135
g89
sg136
Nsg137
(lp241
I4
aI1
asg139
Nsg140
g239
sg141
(lp242
sg143
g60
sg144
Nsg145
Nsg146
Nsbag3
(g4
g5
NtRp243
(dp244
g8
g10
sg124
Nsg125
(dp245
sg127
Nsg25
g27
sg128
(lp246
I4
aI2
asg130
Nsg131
VTosefta Zavim 4:2
p247
sg133
(lp248
sg135
g89
sg136
Nsg137
(lp249
I4
aI2
asg139
Nsg140
g247
sg141
(lp250
sg143
g60
sg144
Nsg145
Nsg146
Nsbag3
(g4
g5
NtRp251
(dp252
g8
g10
sg124
Nsg125
(dp253
sg127
Nsg25
g27
sg128
(lp254
I4
aI3
asg130
Nsg131
VTosefta Zavim 4:3
p255
sg133
(lp256
sg135
g89
sg136
Nsg137
(lp257
I4
aI3
asg139
Nsg140
g255
sg141
(lp258
sg143
g60
sg144
Nsg145
Nsg146
Nsbag3
(g4
g5
NtRp259
(dp260
g8
g10
sg124
Nsg125
(dp261
sg127
Nsg25
g27
sg128
(lp262
I4
aI4
asg130
Nsg131
VTosefta Zavim 4:4
p263
sg133
(lp264
sg135
g89
sg136
Nsg137
(lp265
I4
aI4
asg139
Nsg140
g263
sg141
(lp266
sg143
g60
sg144
Nsg145
Nsg146
Nsbag3
(g4
g5
NtRp267
(dp268
g8
g10
sg124
Nsg125
(dp269
sg127
Nsg25
g27
sg128
(lp270
I4
aI5
asg130
Nsg131
VTosefta Zavim 4:5
p271
sg133
(lp272
sg135
g89
sg136
Nsg137
(lp273
I4
aI5
asg139
Nsg140
g271
sg141
(lp274
sg143
g60
sg144
Nsg145
Nsg146
Nsbag3
(g4
g5
NtRp275
(dp276
g8
g10
sg124
Nsg125
(dp277
sg127
Nsg25
g27
sg128
(lp278
I4
aI6
asg130
Nsg131
VTosefta Zavim 4:6
p279
sg133
(lp280
sg135
g89
sg136
Nsg137
(lp281
I4
aI6
asg139
Nsg140
g279
sg141
(lp282
sg143
g60
sg144
Nsg145
Nsg146
Nsbag3
(g4
g5
NtRp283
(dp284
g8
g10
sg124
Nsg125
(dp285
sg127
Nsg25
g27
sg128
(lp286
I4
aI7
asg130
Nsg131
VTosefta Zavim 4:7
p287
sg133
(lp288
sg135
g89
sg136
Nsg137
(lp289
I4
aI7
asg139
Nsg140
g287
sg141
(lp290
sg143
g60
sg144
Nsg145
Nsg146
Nsbag3
(g4
g5
NtRp291
(dp292
g8
g10
sg124
Nsg125
(dp293
sg127
Nsg25
g27
sg128
(lp294
I5
aI1
asg130
Nsg131
VTosefta Zavim 5:1
p295
sg133
(lp296
sg135
g89
sg136
Nsg137
(lp297
I5
aI1
asg139
Nsg140
g295
sg141
(lp298
sg143
g60
sg144
Nsg145
Nsg146
Nsbag3
(g4
g5
NtRp299
(dp300
g8
g10
sg124
Nsg125
(dp301
sg127
Nsg25
g27
sg128
(lp302
I5
aI2
asg130
Nsg131
VTosefta Zavim 5:2
p303
sg133
(lp304
sg135
g89
sg136
Nsg137
(lp305
I5
aI2
asg139
Nsg140
g303
sg141
(lp306
sg143
g60
sg144
Nsg145
Nsg146
Nsbag3
(g4
g5
NtRp307
(dp308
g8
g10
sg124
Nsg125
(dp309
sg127
Nsg25
g27
sg128
(lp310
I5
aI3
asg130
Nsg131
VTosefta Zavim 5:3
p311
sg133
(lp312
sg135
g89
sg136
Nsg137
(lp313
I5
aI3
asg139
Nsg140
g311
sg141
(lp314
sg143
g60
sg144
Nsg145
Nsg146
Nsbag3
(g4
g5
NtRp315
(dp316
g8
g10
sg124
Nsg125
(dp317
sg127
Nsg25
g27
sg128
(lp318
I5
aI4
asg130
Nsg131
VTosefta Zavim 5:4
p319
sg133
(lp320
sg135
g89
sg136
Nsg137
(lp321
I5
aI4
asg139
Nsg140
g319
sg141
(lp322
sg143
g60
sg144
Nsg145
Nsg146
Nsbag3
(g4
g5
NtRp323
(dp324
g8
g10
sg124
Nsg125
(dp325
sg127
Nsg25
g27
sg128
(lp326
I5
aI5
asg130
Nsg131
VTosefta Zavim 5:5
p327
sg133
(lp328
sg135
g89
sg136
Nsg137
(lp329
I5
aI5
asg139
Nsg140
g327
sg141
(lp330
sg143
g60
sg144
Nsg145
Nsg146
Nsbag3
(g4
g5
NtRp331
(dp332
g8
g10
sg124
Nsg125
(dp333
sg127
Nsg25
g27
sg128
(lp334
I5
aI6
asg130
Nsg131
VTosefta Zavim 5:6
p335
sg133
(lp336
sg135
g89
sg136
Nsg137
(lp337
I5
aI6
asg139
Nsg140
g335
sg141
(lp338
sg143
g60
sg144
Nsg145
Nsg146
Nsbag3
(g4
g5
NtRp339
(dp340
g8
g10
sg124
Nsg125
(dp341
sg127
Nsg25
g27
sg128
(lp342
I5
aI7
asg130
Nsg131
VTosefta Zavim 5:7
p343
sg133
(lp344
sg135
g89
sg136
Nsg137
(lp345
I5
aI7
asg139
Nsg140
g343
sg141
(lp346
sg143
g60
sg144
Nsg145
Nsg146
Nsbag3
(g4
g5
NtRp347
(dp348
g8
g10
sg124
Nsg125
(dp349
sg127
Nsg25
g27
sg128
(lp350
I5
aI8
asg130
Nsg131
VTosefta Zavim 5:8
p351
sg133
(lp352
sg135
g89
sg136
Nsg137
(lp353
I5
aI8
asg139
Nsg140
g351
sg141
(lp354
sg143
g60
sg144
Nsg145
Nsg146
Nsbag3
(g4
g5
NtRp355
(dp356
g8
g10
sg124
Nsg125
(dp357
sg127
Nsg25
g27
sg128
(lp358
I5
aI9
asg130
Nsg131
VTosefta Zavim 5:9
p359
sg133
(lp360
sg135
g89
sg136
Nsg137
(lp361
I5
aI9
asg139
Nsg140
g359
sg141
(lp362
sg143
g60
sg144
Nsg145
Nsg146
Nsbag3
(g4
g5
NtRp363
(dp364
g8
g10
sg124
Nsg125
(dp365
sg127
Nsg25
g27
sg128
(lp366
I5
aI10
asg130
Nsg131
VTosefta Zavim 5:10
p367
sg133
(lp368
sg135
g89
sg136
Nsg137
(lp369
I5
aI10
asg139
Nsg140
g367
sg141
(lp370
sg143
g60
sg144
Nsg145
Nsg146
Nsbag3
(g4
g5
NtRp371
(dp372
g8
g10
sg124
Nsg125
(dp373
sg127
Nsg25
g27
sg128
(lp374
I5
aI11
asg130
Nsg131
VTosefta Zavim 5:11
p375
sg133
(lp376
sg135
g89
sg136
Nsg137
(lp377
I5
aI11
asg139
Nsg140
g375
sg141
(lp378
sg143
g60
sg144
Nsg145
Nsg146
NsbaI1948
t.