((lp1
I0
aI64
aI78
aI434
aI579
aI683
aI892
aI972
aI1032
aI1115
aI1297
aI1315
aI1326
aI1437
aI1573
aI1918
aI2073
aI2192
aI2327
aI2503
aI2723
aI2799
aI3108
aI3210
aI3335
aI3531
aI3669
aI3688
aI3700
aI3740
aI3794
aI3866
aI3936
aI4004
aI4059
aI4256
aI4539
aI4701
aI4788
aI4893
aI5189
aI5299
aI5408
aI5548
aI5637
aI5752
aI6023
aI6376
aI6495
aI6592
aI6719
aI6826
aI6919
aI7086
aI7175
aI7311
aI7360
aI7566
aI7640
aI7772
aI7853
aI7918
aI8017
aI8714
aI9052
aI9352
aI9370
a(lp2
ccopy_reg
_reconstructor
p3
(csefaria.model.text
Ref
p4
c__builtin__
object
p5
NtRp6
(dp7
S'index_node'
p8
g3
(csefaria.model.schema
JaggedArrayNode
p9
g5
NtRp10
(dp11
S'_address'
p12
(lp13
VTosefta Sanhedrin
p14
asS'_full_titles'
p15
(dp16
sVnodeType
p17
VJaggedArrayNode
p18
sS'parent'
p19
NsVaddressTypes
p20
(lp21
VInteger
p22
aVInteger
p23
asS'default'
p24
I00
sS'index'
p25
g3
(csefaria.model.text
Index
p26
g5
NtRp27
(dp28
S'struct_objs'
p29
(dp30
sS'_id'
p31
g3
(cbson.objectid
ObjectId
p32
g5
NtRp33
S'S/\xd2\x0e\xfb\xfb\xa2l+\xb6\x89$'
p34
bsS'pkeys_orig_values'
p35
(dp36
S'title'
p37
VTosefta Sanhedrin
p38
ssS'pubDate'
p39
V1521
p40
sS'transliteratedTitle'
p41
VTosefta Sandhedrin
p42
sS'pubPlace'
p43
VVenice
p44
sS'compPlace'
p45
VTalmudic Israel
p46
sS'enDesc'
p47
VThe Tosefta (Supplement, addition") is a compilation of the Jewish oral law. Opinions differ widely as to when the Tosefta was redacted and how it relates to the Mishnah. However it closely corresponds to the Mishnah in structure and style, with the same divisions for sedarim ("orders") and masekhot ("tractates"). In many ways, the Tosefta acts as a supplement to the Mishnah. It is mainly written in Mishnaic Hebrew, with some Aramaic. Sanhedrin (The Synod) belongs to the fourth order, Nezikin (The Order of Damages) and discusses the rules of court proceedings in the Sanhedrin, the death penalty, and other criminal matters. It has fourteen chapters.
p48
sS'order'
p49
(lp50
I5
asS'era'
p51
VT
sS'compDate'
p52
V210
p53
sS'nodes'
p54
g10
sS'errorMargin'
p55
V20
p56
sS'_title'
p57
g38
sS'categories'
p58
(lp59
VTosefta
p60
aVSeder Nezikin
p61
asS'schema'
p62
(dp63
g17
g18
sg20
g21
sVlengths
p64
(lp65
I14
asVdepth
p66
I2
sVtitles
p67
(lp68
(dp69
Vlang
p70
Ven
p71
sVtext
p72
VTosefta Sandhedrin
p73
sa(dp74
Vlang
p75
Ven
p76
sVtext
p77
VT. Sanhedrin
p78
sa(dp79
Vlang
p80
Ven
p81
sVtext
p82
VTos. Sanhedrin
p83
sa(dp84
Vlang
p85
Vhe
p86
sVtext
p87
V\u05ea\u05d5\u05e1\u05e4\u05ea\u05d0 \u05e1\u05e0\u05d4\u05d3\u05e8\u05d9\u05df
p88
sVprimary
p89
I01
sa(dp90
Vlang
p91
Ven
p92
sVtext
p93
VTosefta Sanhedrin
p94
sVprimary
p95
I01
sasVkey
p96
g14
sVsectionNames
p97
(lp98
VChapter
p99
aVTosefta
p100
assbsS'_primary_title'
p101
(dp102
sS'title_group'
p103
g3
(csefaria.model.schema
TitleGroup
p104
g5
NtRp105
(dp106
g101
(dp107
S'en'
p108
g94
ssS'titles'
p109
g68
sbsS'_addressTypes'
p110
(lp111
g3
(csefaria.model.schema
AddressInteger
p112
g5
NtRp113
(dp114
S'length'
p115
I14
sg49
I0
sbag3
(g112
g5
NtRp116
(dp117
g115
Nsg49
I1
sbasS'sharedTitle'
p118
Nsg64
g65
sg66
I2
sS'_full_title'
p119
(dp120
g108
g94
ssS'key'
p121
g14
sS'checkFirst'
p122
NsS'_regexes'
p123
(dp124
sS'_leaf_nodes'
p125
(lp126
sg97
g98
sS'children'
p127
(lp128
sbsS'_range_index'
p129
NsS'_context'
p130
(dp131
sS'_padded'
p132
Nsg25
g27
sS'sections'
p133
(lp134
I1
aI1
asS'_first_spanned_ref'
p135
NsS'tref'
p136
VTosefta Sanhedrin 1:1
p137
sS'_spanned_refs'
p138
(lp139
sS'book'
p140
g94
sS'_range_depth'
p141
NsS'toSections'
p142
(lp143
I1
aI1
asS'_url'
p144
NsS'_normal'
p145
g137
sS'_ranged_refs'
p146
(lp147
sS'type'
p148
g60
sS'_prev'
p149
NsS'_he_normal'
p150
NsS'_next'
p151
Nsbag3
(g4
g5
NtRp152
(dp153
g8
g10
sg129
Nsg130
(dp154
sg132
Nsg25
g27
sg133
(lp155
I1
aI2
asg135
Nsg136
VTosefta Sanhedrin 1:2
p156
sg138
(lp157
sg140
g94
sg141
Nsg142
(lp158
I1
aI2
asg144
Nsg145
g156
sg146
(lp159
sg148
g60
sg149
Nsg150
Nsg151
Nsbag3
(g4
g5
NtRp160
(dp161
g8
g10
sg129
Nsg130
(dp162
sg132
Nsg25
g27
sg133
(lp163
I1
aI3
asg135
Nsg136
VTosefta Sanhedrin 1:3
p164
sg138
(lp165
sg140
g94
sg141
Nsg142
(lp166
I1
aI3
asg144
Nsg145
g164
sg146
(lp167
sg148
g60
sg149
Nsg150
Nsg151
Nsbag3
(g4
g5
NtRp168
(dp169
g8
g10
sg129
Nsg130
(dp170
sg132
Nsg25
g27
sg133
(lp171
I1
aI4
asg135
Nsg136
VTosefta Sanhedrin 1:4
p172
sg138
(lp173
sg140
g94
sg141
Nsg142
(lp174
I1
aI4
asg144
Nsg145
g172
sg146
(lp175
sg148
g60
sg149
Nsg150
Nsg151
Nsbag3
(g4
g5
NtRp176
(dp177
g8
g10
sg129
Nsg130
(dp178
sg132
Nsg25
g27
sg133
(lp179
I2
aI1
asg135
Nsg136
VTosefta Sanhedrin 2:1
p180
sg138
(lp181
sg140
g94
sg141
Nsg142
(lp182
I2
aI1
asg144
Nsg145
g180
sg146
(lp183
sg148
g60
sg149
Nsg150
Nsg151
Nsbag3
(g4
g5
NtRp184
(dp185
g8
g10
sg129
Nsg130
(dp186
sg132
Nsg25
g27
sg133
(lp187
I2
aI2
asg135
Nsg136
VTosefta Sanhedrin 2:2
p188
sg138
(lp189
sg140
g94
sg141
Nsg142
(lp190
I2
aI2
asg144
Nsg145
g188
sg146
(lp191
sg148
g60
sg149
Nsg150
Nsg151
Nsbag3
(g4
g5
NtRp192
(dp193
g8
g10
sg129
Nsg130
(dp194
sg132
Nsg25
g27
sg133
(lp195
I2
aI3
asg135
Nsg136
VTosefta Sanhedrin 2:3
p196
sg138
(lp197
sg140
g94
sg141
Nsg142
(lp198
I2
aI3
asg144
Nsg145
g196
sg146
(lp199
sg148
g60
sg149
Nsg150
Nsg151
Nsbag3
(g4
g5
NtRp200
(dp201
g8
g10
sg129
Nsg130
(dp202
sg132
Nsg25
g27
sg133
(lp203
I2
aI4
asg135
Nsg136
VTosefta Sanhedrin 2:4
p204
sg138
(lp205
sg140
g94
sg141
Nsg142
(lp206
I2
aI4
asg144
Nsg145
g204
sg146
(lp207
sg148
g60
sg149
Nsg150
Nsg151
Nsbag3
(g4
g5
NtRp208
(dp209
g8
g10
sg129
Nsg130
(dp210
sg132
Nsg25
g27
sg133
(lp211
I2
aI5
asg135
Nsg136
VTosefta Sanhedrin 2:5
p212
sg138
(lp213
sg140
g94
sg141
Nsg142
(lp214
I2
aI5
asg144
Nsg145
g212
sg146
(lp215
sg148
g60
sg149
Nsg150
Nsg151
Nsbag3
(g4
g5
NtRp216
(dp217
g8
g10
sg129
Nsg130
(dp218
sg132
Nsg25
g27
sg133
(lp219
I2
aI6
asg135
Nsg136
VTosefta Sanhedrin 2:6
p220
sg138
(lp221
sg140
g94
sg141
Nsg142
(lp222
I2
aI6
asg144
Nsg145
g220
sg146
(lp223
sg148
g60
sg149
Nsg150
Nsg151
Nsbag3
(g4
g5
NtRp224
(dp225
g8
g10
sg129
Nsg130
(dp226
sg132
Nsg25
g27
sg133
(lp227
I2
aI7
asg135
Nsg136
VTosefta Sanhedrin 2:7
p228
sg138
(lp229
sg140
g94
sg141
Nsg142
(lp230
I2
aI7
asg144
Nsg145
g228
sg146
(lp231
sg148
g60
sg149
Nsg150
Nsg151
Nsbag3
(g4
g5
NtRp232
(dp233
g8
g10
sg129
Nsg130
(dp234
sg132
Nsg25
g27
sg133
(lp235
I2
aI8
asg135
Nsg136
VTosefta Sanhedrin 2:8
p236
sg138
(lp237
sg140
g94
sg141
Nsg142
(lp238
I2
aI8
asg144
Nsg145
g236
sg146
(lp239
sg148
g60
sg149
Nsg150
Nsg151
Nsbag3
(g4
g5
NtRp240
(dp241
g8
g10
sg129
Nsg130
(dp242
sg132
Nsg25
g27
sg133
(lp243
I3
aI1
asg135
Nsg136
VTosefta Sanhedrin 3:1
p244
sg138
(lp245
sg140
g94
sg141
Nsg142
(lp246
I3
aI1
asg144
Nsg145
g244
sg146
(lp247
sg148
g60
sg149
Nsg150
Nsg151
Nsbag3
(g4
g5
NtRp248
(dp249
g8
g10
sg129
Nsg130
(dp250
sg132
Nsg25
g27
sg133
(lp251
I3
aI2
asg135
Nsg136
VTosefta Sanhedrin 3:2
p252
sg138
(lp253
sg140
g94
sg141
Nsg142
(lp254
I3
aI2
asg144
Nsg145
g252
sg146
(lp255
sg148
g60
sg149
Nsg150
Nsg151
Nsbag3
(g4
g5
NtRp256
(dp257
g8
g10
sg129
Nsg130
(dp258
sg132
Nsg25
g27
sg133
(lp259
I3
aI3
asg135
Nsg136
VTosefta Sanhedrin 3:3
p260
sg138
(lp261
sg140
g94
sg141
Nsg142
(lp262
I3
aI3
asg144
Nsg145
g260
sg146
(lp263
sg148
g60
sg149
Nsg150
Nsg151
Nsbag3
(g4
g5
NtRp264
(dp265
g8
g10
sg129
Nsg130
(dp266
sg132
Nsg25
g27
sg133
(lp267
I3
aI4
asg135
Nsg136
VTosefta Sanhedrin 3:4
p268
sg138
(lp269
sg140
g94
sg141
Nsg142
(lp270
I3
aI4
asg144
Nsg145
g268
sg146
(lp271
sg148
g60
sg149
Nsg150
Nsg151
Nsbag3
(g4
g5
NtRp272
(dp273
g8
g10
sg129
Nsg130
(dp274
sg132
Nsg25
g27
sg133
(lp275
I3
aI5
asg135
Nsg136
VTosefta Sanhedrin 3:5
p276
sg138
(lp277
sg140
g94
sg141
Nsg142
(lp278
I3
aI5
asg144
Nsg145
g276
sg146
(lp279
sg148
g60
sg149
Nsg150
Nsg151
Nsbag3
(g4
g5
NtRp280
(dp281
g8
g10
sg129
Nsg130
(dp282
sg132
Nsg25
g27
sg133
(lp283
I4
aI1
asg135
Nsg136
VTosefta Sanhedrin 4:1
p284
sg138
(lp285
sg140
g94
sg141
Nsg142
(lp286
I4
aI1
asg144
Nsg145
g284
sg146
(lp287
sg148
g60
sg149
Nsg150
Nsg151
Nsbag3
(g4
g5
NtRp288
(dp289
g8
g10
sg129
Nsg130
(dp290
sg132
Nsg25
g27
sg133
(lp291
I4
aI2
asg135
Nsg136
VTosefta Sanhedrin 4:2
p292
sg138
(lp293
sg140
g94
sg141
Nsg142
(lp294
I4
aI2
asg144
Nsg145
g292
sg146
(lp295
sg148
g60
sg149
Nsg150
Nsg151
Nsbag3
(g4
g5
NtRp296
(dp297
g8
g10
sg129
Nsg130
(dp298
sg132
Nsg25
g27
sg133
(lp299
I4
aI3
asg135
Nsg136
VTosefta Sanhedrin 4:3
p300
sg138
(lp301
sg140
g94
sg141
Nsg142
(lp302
I4
aI3
asg144
Nsg145
g300
sg146
(lp303
sg148
g60
sg149
Nsg150
Nsg151
Nsbag3
(g4
g5
NtRp304
(dp305
g8
g10
sg129
Nsg130
(dp306
sg132
Nsg25
g27
sg133
(lp307
I4
aI4
asg135
Nsg136
VTosefta Sanhedrin 4:4
p308
sg138
(lp309
sg140
g94
sg141
Nsg142
(lp310
I4
aI4
asg144
Nsg145
g308
sg146
(lp311
sg148
g60
sg149
Nsg150
Nsg151
Nsbag3
(g4
g5
NtRp312
(dp313
g8
g10
sg129
Nsg130
(dp314
sg132
Nsg25
g27
sg133
(lp315
I4
aI5
asg135
Nsg136
VTosefta Sanhedrin 4:5
p316
sg138
(lp317
sg140
g94
sg141
Nsg142
(lp318
I4
aI5
asg144
Nsg145
g316
sg146
(lp319
sg148
g60
sg149
Nsg150
Nsg151
Nsbag3
(g4
g5
NtRp320
(dp321
g8
g10
sg129
Nsg130
(dp322
sg132
Nsg25
g27
sg133
(lp323
I4
aI6
asg135
Nsg136
VTosefta Sanhedrin 4:6
p324
sg138
(lp325
sg140
g94
sg141
Nsg142
(lp326
I4
aI6
asg144
Nsg145
g324
sg146
(lp327
sg148
g60
sg149
Nsg150
Nsg151
Nsbag3
(g4
g5
NtRp328
(dp329
g8
g10
sg129
Nsg130
(dp330
sg132
Nsg25
g27
sg133
(lp331
I5
aI1
asg135
Nsg136
VTosefta Sanhedrin 5:1
p332
sg138
(lp333
sg140
g94
sg141
Nsg142
(lp334
I5
aI1
asg144
Nsg145
g332
sg146
(lp335
sg148
g60
sg149
Nsg150
Nsg151
Nsbag3
(g4
g5
NtRp336
(dp337
g8
g10
sg129
Nsg130
(dp338
sg132
Nsg25
g27
sg133
(lp339
I5
aI2
asg135
Nsg136
VTosefta Sanhedrin 5:2
p340
sg138
(lp341
sg140
g94
sg141
Nsg142
(lp342
I5
aI2
asg144
Nsg145
g340
sg146
(lp343
sg148
g60
sg149
Nsg150
Nsg151
Nsbag3
(g4
g5
NtRp344
(dp345
g8
g10
sg129
Nsg130
(dp346
sg132
Nsg25
g27
sg133
(lp347
I5
aI3
asg135
Nsg136
VTosefta Sanhedrin 5:3
p348
sg138
(lp349
sg140
g94
sg141
Nsg142
(lp350
I5
aI3
asg144
Nsg145
g348
sg146
(lp351
sg148
g60
sg149
Nsg150
Nsg151
Nsbag3
(g4
g5
NtRp352
(dp353
g8
g10
sg129
Nsg130
(dp354
sg132
Nsg25
g27
sg133
(lp355
I5
aI4
asg135
Nsg136
VTosefta Sanhedrin 5:4
p356
sg138
(lp357
sg140
g94
sg141
Nsg142
(lp358
I5
aI4
asg144
Nsg145
g356
sg146
(lp359
sg148
g60
sg149
Nsg150
Nsg151
Nsbag3
(g4
g5
NtRp360
(dp361
g8
g10
sg129
Nsg130
(dp362
sg132
Nsg25
g27
sg133
(lp363
I5
aI5
asg135
Nsg136
VTosefta Sanhedrin 5:5
p364
sg138
(lp365
sg140
g94
sg141
Nsg142
(lp366
I5
aI5
asg144
Nsg145
g364
sg146
(lp367
sg148
g60
sg149
Nsg150
Nsg151
Nsbag3
(g4
g5
NtRp368
(dp369
g8
g10
sg129
Nsg130
(dp370
sg132
Nsg25
g27
sg133
(lp371
I5
aI6
asg135
Nsg136
VTosefta Sanhedrin 5:6
p372
sg138
(lp373
sg140
g94
sg141
Nsg142
(lp374
I5
aI6
asg144
Nsg145
g372
sg146
(lp375
sg148
g60
sg149
Nsg150
Nsg151
Nsbag3
(g4
g5
NtRp376
(dp377
g8
g10
sg129
Nsg130
(dp378
sg132
Nsg25
g27
sg133
(lp379
I6
aI1
asg135
Nsg136
VTosefta Sanhedrin 6:1
p380
sg138
(lp381
sg140
g94
sg141
Nsg142
(lp382
I6
aI1
asg144
Nsg145
g380
sg146
(lp383
sg148
g60
sg149
Nsg150
Nsg151
Nsbag3
(g4
g5
NtRp384
(dp385
g8
g10
sg129
Nsg130
(dp386
sg132
Nsg25
g27
sg133
(lp387
I6
aI2
asg135
Nsg136
VTosefta Sanhedrin 6:2
p388
sg138
(lp389
sg140
g94
sg141
Nsg142
(lp390
I6
aI2
asg144
Nsg145
g388
sg146
(lp391
sg148
g60
sg149
Nsg150
Nsg151
Nsbag3
(g4
g5
NtRp392
(dp393
g8
g10
sg129
Nsg130
(dp394
sg132
Nsg25
g27
sg133
(lp395
I6
aI3
asg135
Nsg136
VTosefta Sanhedrin 6:3
p396
sg138
(lp397
sg140
g94
sg141
Nsg142
(lp398
I6
aI3
asg144
Nsg145
g396
sg146
(lp399
sg148
g60
sg149
Nsg150
Nsg151
Nsbag3
(g4
g5
NtRp400
(dp401
g8
g10
sg129
Nsg130
(dp402
sg132
Nsg25
g27
sg133
(lp403
I6
aI4
asg135
Nsg136
VTosefta Sanhedrin 6:4
p404
sg138
(lp405
sg140
g94
sg141
Nsg142
(lp406
I6
aI4
asg144
Nsg145
g404
sg146
(lp407
sg148
g60
sg149
Nsg150
Nsg151
Nsbag3
(g4
g5
NtRp408
(dp409
g8
g10
sg129
Nsg130
(dp410
sg132
Nsg25
g27
sg133
(lp411
I6
aI5
asg135
Nsg136
VTosefta Sanhedrin 6:5
p412
sg138
(lp413
sg140
g94
sg141
Nsg142
(lp414
I6
aI5
asg144
Nsg145
g412
sg146
(lp415
sg148
g60
sg149
Nsg150
Nsg151
Nsbag3
(g4
g5
NtRp416
(dp417
g8
g10
sg129
Nsg130
(dp418
sg132
Nsg25
g27
sg133
(lp419
I6
aI6
asg135
Nsg136
VTosefta Sanhedrin 6:6
p420
sg138
(lp421
sg140
g94
sg141
Nsg142
(lp422
I6
aI6
asg144
Nsg145
g420
sg146
(lp423
sg148
g60
sg149
Nsg150
Nsg151
Nsbag3
(g4
g5
NtRp424
(dp425
g8
g10
sg129
Nsg130
(dp426
sg132
Nsg25
g27
sg133
(lp427
I7
aI1
asg135
Nsg136
VTosefta Sanhedrin 7:1
p428
sg138
(lp429
sg140
g94
sg141
Nsg142
(lp430
I7
aI1
asg144
Nsg145
g428
sg146
(lp431
sg148
g60
sg149
Nsg150
Nsg151
Nsbag3
(g4
g5
NtRp432
(dp433
g8
g10
sg129
Nsg130
(dp434
sg132
Nsg25
g27
sg133
(lp435
I7
aI2
asg135
Nsg136
VTosefta Sanhedrin 7:2
p436
sg138
(lp437
sg140
g94
sg141
Nsg142
(lp438
I7
aI2
asg144
Nsg145
g436
sg146
(lp439
sg148
g60
sg149
Nsg150
Nsg151
Nsbag3
(g4
g5
NtRp440
(dp441
g8
g10
sg129
Nsg130
(dp442
sg132
Nsg25
g27
sg133
(lp443
I7
aI3
asg135
Nsg136
VTosefta Sanhedrin 7:3
p444
sg138
(lp445
sg140
g94
sg141
Nsg142
(lp446
I7
aI3
asg144
Nsg145
g444
sg146
(lp447
sg148
g60
sg149
Nsg150
Nsg151
Nsbag3
(g4
g5
NtRp448
(dp449
g8
g10
sg129
Nsg130
(dp450
sg132
Nsg25
g27
sg133
(lp451
I7
aI4
asg135
Nsg136
VTosefta Sanhedrin 7:4
p452
sg138
(lp453
sg140
g94
sg141
Nsg142
(lp454
I7
aI4
asg144
Nsg145
g452
sg146
(lp455
sg148
g60
sg149
Nsg150
Nsg151
Nsbag3
(g4
g5
NtRp456
(dp457
g8
g10
sg129
Nsg130
(dp458
sg132
Nsg25
g27
sg133
(lp459
I7
aI5
asg135
Nsg136
VTosefta Sanhedrin 7:5
p460
sg138
(lp461
sg140
g94
sg141
Nsg142
(lp462
I7
aI5
asg144
Nsg145
g460
sg146
(lp463
sg148
g60
sg149
Nsg150
Nsg151
Nsbag3
(g4
g5
NtRp464
(dp465
g8
g10
sg129
Nsg130
(dp466
sg132
Nsg25
g27
sg133
(lp467
I8
aI1
asg135
Nsg136
VTosefta Sanhedrin 8:1
p468
sg138
(lp469
sg140
g94
sg141
Nsg142
(lp470
I8
aI1
asg144
Nsg145
g468
sg146
(lp471
sg148
g60
sg149
Nsg150
Nsg151
Nsbag3
(g4
g5
NtRp472
(dp473
g8
g10
sg129
Nsg130
(dp474
sg132
Nsg25
g27
sg133
(lp475
I8
aI2
asg135
Nsg136
VTosefta Sanhedrin 8:2
p476
sg138
(lp477
sg140
g94
sg141
Nsg142
(lp478
I8
aI2
asg144
Nsg145
g476
sg146
(lp479
sg148
g60
sg149
Nsg150
Nsg151
Nsbag3
(g4
g5
NtRp480
(dp481
g8
g10
sg129
Nsg130
(dp482
sg132
Nsg25
g27
sg133
(lp483
I8
aI3
asg135
Nsg136
VTosefta Sanhedrin 8:3
p484
sg138
(lp485
sg140
g94
sg141
Nsg142
(lp486
I8
aI3
asg144
Nsg145
g484
sg146
(lp487
sg148
g60
sg149
Nsg150
Nsg151
Nsbag3
(g4
g5
NtRp488
(dp489
g8
g10
sg129
Nsg130
(dp490
sg132
Nsg25
g27
sg133
(lp491
I8
aI4
asg135
Nsg136
VTosefta Sanhedrin 8:4
p492
sg138
(lp493
sg140
g94
sg141
Nsg142
(lp494
I8
aI4
asg144
Nsg145
g492
sg146
(lp495
sg148
g60
sg149
Nsg150
Nsg151
Nsbag3
(g4
g5
NtRp496
(dp497
g8
g10
sg129
Nsg130
(dp498
sg132
Nsg25
g27
sg133
(lp499
I9
aI1
asg135
Nsg136
VTosefta Sanhedrin 9:1
p500
sg138
(lp501
sg140
g94
sg141
Nsg142
(lp502
I9
aI1
asg144
Nsg145
g500
sg146
(lp503
sg148
g60
sg149
Nsg150
Nsg151
Nsbag3
(g4
g5
NtRp504
(dp505
g8
g10
sg129
Nsg130
(dp506
sg132
Nsg25
g27
sg133
(lp507
I9
aI2
asg135
Nsg136
VTosefta Sanhedrin 9:2
p508
sg138
(lp509
sg140
g94
sg141
Nsg142
(lp510
I9
aI2
asg144
Nsg145
g508
sg146
(lp511
sg148
g60
sg149
Nsg150
Nsg151
Nsbag3
(g4
g5
NtRp512
(dp513
g8
g10
sg129
Nsg130
(dp514
sg132
Nsg25
g27
sg133
(lp515
I9
aI3
asg135
Nsg136
VTosefta Sanhedrin 9:3
p516
sg138
(lp517
sg140
g94
sg141
Nsg142
(lp518
I9
aI3
asg144
Nsg145
g516
sg146
(lp519
sg148
g60
sg149
Nsg150
Nsg151
Nsbag3
(g4
g5
NtRp520
(dp521
g8
g10
sg129
Nsg130
(dp522
sg132
Nsg25
g27
sg133
(lp523
I10
aI1
asg135
Nsg136
VTosefta Sanhedrin 10:1
p524
sg138
(lp525
sg140
g94
sg141
Nsg142
(lp526
I10
aI1
asg144
Nsg145
g524
sg146
(lp527
sg148
g60
sg149
Nsg150
Nsg151
Nsbag3
(g4
g5
NtRp528
(dp529
g8
g10
sg129
Nsg130
(dp530
sg132
Nsg25
g27
sg133
(lp531
I10
aI2
asg135
Nsg136
VTosefta Sanhedrin 10:2
p532
sg138
(lp533
sg140
g94
sg141
Nsg142
(lp534
I10
aI2
asg144
Nsg145
g532
sg146
(lp535
sg148
g60
sg149
Nsg150
Nsg151
Nsbag3
(g4
g5
NtRp536
(dp537
g8
g10
sg129
Nsg130
(dp538
sg132
Nsg25
g27
sg133
(lp539
I10
aI3
asg135
Nsg136
VTosefta Sanhedrin 10:3
p540
sg138
(lp541
sg140
g94
sg141
Nsg142
(lp542
I10
aI3
asg144
Nsg145
g540
sg146
(lp543
sg148
g60
sg149
Nsg150
Nsg151
Nsbag3
(g4
g5
NtRp544
(dp545
g8
g10
sg129
Nsg130
(dp546
sg132
Nsg25
g27
sg133
(lp547
I10
aI4
asg135
Nsg136
VTosefta Sanhedrin 10:4
p548
sg138
(lp549
sg140
g94
sg141
Nsg142
(lp550
I10
aI4
asg144
Nsg145
g548
sg146
(lp551
sg148
g60
sg149
Nsg150
Nsg151
Nsbag3
(g4
g5
NtRp552
(dp553
g8
g10
sg129
Nsg130
(dp554
sg132
Nsg25
g27
sg133
(lp555
I10
aI5
asg135
Nsg136
VTosefta Sanhedrin 10:5
p556
sg138
(lp557
sg140
g94
sg141
Nsg142
(lp558
I10
aI5
asg144
Nsg145
g556
sg146
(lp559
sg148
g60
sg149
Nsg150
Nsg151
Nsbag3
(g4
g5
NtRp560
(dp561
g8
g10
sg129
Nsg130
(dp562
sg132
Nsg25
g27
sg133
(lp563
I11
aI1
asg135
Nsg136
VTosefta Sanhedrin 11:1
p564
sg138
(lp565
sg140
g94
sg141
Nsg142
(lp566
I11
aI1
asg144
Nsg145
g564
sg146
(lp567
sg148
g60
sg149
Nsg150
Nsg151
Nsbag3
(g4
g5
NtRp568
(dp569
g8
g10
sg129
Nsg130
(dp570
sg132
Nsg25
g27
sg133
(lp571
I11
aI2
asg135
Nsg136
VTosefta Sanhedrin 11:2
p572
sg138
(lp573
sg140
g94
sg141
Nsg142
(lp574
I11
aI2
asg144
Nsg145
g572
sg146
(lp575
sg148
g60
sg149
Nsg150
Nsg151
Nsbag3
(g4
g5
NtRp576
(dp577
g8
g10
sg129
Nsg130
(dp578
sg132
Nsg25
g27
sg133
(lp579
I11
aI3
asg135
Nsg136
VTosefta Sanhedrin 11:3
p580
sg138
(lp581
sg140
g94
sg141
Nsg142
(lp582
I11
aI3
asg144
Nsg145
g580
sg146
(lp583
sg148
g60
sg149
Nsg150
Nsg151
Nsbag3
(g4
g5
NtRp584
(dp585
g8
g10
sg129
Nsg130
(dp586
sg132
Nsg25
g27
sg133
(lp587
I11
aI4
asg135
Nsg136
VTosefta Sanhedrin 11:4
p588
sg138
(lp589
sg140
g94
sg141
Nsg142
(lp590
I11
aI4
asg144
Nsg145
g588
sg146
(lp591
sg148
g60
sg149
Nsg150
Nsg151
Nsbag3
(g4
g5
NtRp592
(dp593
g8
g10
sg129
Nsg130
(dp594
sg132
Nsg25
g27
sg133
(lp595
I11
aI5
asg135
Nsg136
VTosefta Sanhedrin 11:5
p596
sg138
(lp597
sg140
g94
sg141
Nsg142
(lp598
I11
aI5
asg144
Nsg145
g596
sg146
(lp599
sg148
g60
sg149
Nsg150
Nsg151
Nsbag3
(g4
g5
NtRp600
(dp601
g8
g10
sg129
Nsg130
(dp602
sg132
Nsg25
g27
sg133
(lp603
I12
aI1
asg135
Nsg136
VTosefta Sanhedrin 12:1
p604
sg138
(lp605
sg140
g94
sg141
Nsg142
(lp606
I12
aI1
asg144
Nsg145
g604
sg146
(lp607
sg148
g60
sg149
Nsg150
Nsg151
Nsbag3
(g4
g5
NtRp608
(dp609
g8
g10
sg129
Nsg130
(dp610
sg132
Nsg25
g27
sg133
(lp611
I12
aI2
asg135
Nsg136
VTosefta Sanhedrin 12:2
p612
sg138
(lp613
sg140
g94
sg141
Nsg142
(lp614
I12
aI2
asg144
Nsg145
g612
sg146
(lp615
sg148
g60
sg149
Nsg150
Nsg151
Nsbag3
(g4
g5
NtRp616
(dp617
g8
g10
sg129
Nsg130
(dp618
sg132
Nsg25
g27
sg133
(lp619
I12
aI3
asg135
Nsg136
VTosefta Sanhedrin 12:3
p620
sg138
(lp621
sg140
g94
sg141
Nsg142
(lp622
I12
aI3
asg144
Nsg145
g620
sg146
(lp623
sg148
g60
sg149
Nsg150
Nsg151
Nsbag3
(g4
g5
NtRp624
(dp625
g8
g10
sg129
Nsg130
(dp626
sg132
Nsg25
g27
sg133
(lp627
I12
aI4
asg135
Nsg136
VTosefta Sanhedrin 12:4
p628
sg138
(lp629
sg140
g94
sg141
Nsg142
(lp630
I12
aI4
asg144
Nsg145
g628
sg146
(lp631
sg148
g60
sg149
Nsg150
Nsg151
Nsbag3
(g4
g5
NtRp632
(dp633
g8
g10
sg129
Nsg130
(dp634
sg132
Nsg25
g27
sg133
(lp635
I12
aI5
asg135
Nsg136
VTosefta Sanhedrin 12:5
p636
sg138
(lp637
sg140
g94
sg141
Nsg142
(lp638
I12
aI5
asg144
Nsg145
g636
sg146
(lp639
sg148
g60
sg149
Nsg150
Nsg151
Nsbag3
(g4
g5
NtRp640
(dp641
g8
g10
sg129
Nsg130
(dp642
sg132
Nsg25
g27
sg133
(lp643
I13
aI1
asg135
Nsg136
VTosefta Sanhedrin 13:1
p644
sg138
(lp645
sg140
g94
sg141
Nsg142
(lp646
I13
aI1
asg144
Nsg145
g644
sg146
(lp647
sg148
g60
sg149
Nsg150
Nsg151
Nsbag3
(g4
g5
NtRp648
(dp649
g8
g10
sg129
Nsg130
(dp650
sg132
Nsg25
g27
sg133
(lp651
I14
aI1
asg135
Nsg136
VTosefta Sanhedrin 14:1
p652
sg138
(lp653
sg140
g94
sg141
Nsg142
(lp654
I14
aI1
asg144
Nsg145
g652
sg146
(lp655
sg148
g60
sg149
Nsg150
Nsg151
Nsbag3
(g4
g5
NtRp656
(dp657
g8
g10
sg129
Nsg130
(dp658
sg132
Nsg25
g27
sg133
(lp659
I14
aI2
asg135
Nsg136
VTosefta Sanhedrin 14:2
p660
sg138
(lp661
sg140
g94
sg141
Nsg142
(lp662
I14
aI2
asg144
Nsg145
g660
sg146
(lp663
sg148
g60
sg149
Nsg150
Nsg151
Nsbag3
(g4
g5
NtRp664
(dp665
g8
g10
sg129
Nsg130
(dp666
sg132
Nsg25
g27
sg133
(lp667
I14
aI3
asg135
Nsg136
VTosefta Sanhedrin 14:3
p668
sg138
(lp669
sg140
g94
sg141
Nsg142
(lp670
I14
aI3
asg144
Nsg145
g668
sg146
(lp671
sg148
g60
sg149
Nsg150
Nsg151
Nsbag3
(g4
g5
NtRp672
(dp673
g8
g10
sg129
Nsg130
(dp674
sg132
Nsg25
g27
sg133
(lp675
I14
aI4
asg135
Nsg136
VTosefta Sanhedrin 14:4
p676
sg138
(lp677
sg140
g94
sg141
Nsg142
(lp678
I14
aI4
asg144
Nsg145
g676
sg146
(lp679
sg148
g60
sg149
Nsg150
Nsg151
NsbaI9497
t.