((lp0
I0
aI22
aI35
aI51
aI58
aI74
aI90
aI96
aI111
aI130
aI136
aI158
aI164
aI183
aI195
aI202
aI218
aI230
aI238
aI262
aI268
aI285
aI304
aI316
aI333
aI347
aI359
aI369
aI379
aI390
aI403
aI412
aI430
aI443
aI449
aI462
aI477
aI491
aI504
aI515
aI534
aI544
aI556
aI578
aI587
aI603
aI617
aI633
aI648
aI656
aI669
aI683
aI700
aI728
aI744
aI760
aI780
aI797
aI811
aI832
aI843
aI854
aI869
aI876
aI895
aI909
aI915
aI933
aI941
aI947
aI968
aI981
aI990
aI1004
aI1018
aI1040
aI1047
aI1061
aI1076
aI1086
aI1092
aI1104
aI1112
aI1118
aI1127
aI1139
aI1147
aI1160
aI1177
aI1183
aI1196
aI1205
aI1216
aI1224
aI1242
aI1250
aI1269
aI1280
aI1293
aI1302
aI1320
aI1335
aI1352
aI1359
aI1375
aI1385
aI1395
aI1405
aI1426
aI1437
aI1460
aI1471
aI1487
aI1500
aI1516
aI1528
aI1542
aI1565
aI1572
aI1592
aI1605
aI1613
aI1628
aI1636
aI1645
aI1662
aI1675
aI1696
aI1717
aI1731
aI1738
aI1753
aI1777
aI1788
aI1806
aI1822
aI1838
aI1855
aI1874
aI1895
aI1912
aI1923
aI1938
aI1953
aI1971
aI1990
a(lp1
ccopy_reg
_reconstructor
p2
(csefaria.model.text
Ref
p3
c__builtin__
object
p4
Ntp5
Rp6
(dp7
S'index_node'
p8
g2
(csefaria.model.schema
JaggedArrayNode
p9
g4
Ntp10
Rp11
(dp12
S'_address'
p13
(lp14
VAmos
p15
asS'_full_titles'
p16
(dp17
sVnodeType
p18
VJaggedArrayNode
p19
sS'parent'
p20
NsVaddressTypes
p21
(lp22
VInteger
p23
aVInteger
p24
asS'default'
p25
I00
sS'index'
p26
g2
(csefaria.model.text
Index
p27
g4
Ntp28
Rp29
(dp30
S'_id'
p31
g2
(cbson.objectid
ObjectId
p32
g4
Ntp33
Rp34
S'NJ\xb8l\xed\xba\xb4X3\x00\x00\x10'
p35
bsS'pkeys_orig_values'
p36
(dp37
S'title'
p38
VAmos
p39
ssS'pubDate'
p40
V1488
p41
sS'compDate'
p42
V-800
p43
sS'pubPlace'
p44
VSoncino
p45
sS'compPlace'
p46
VJudea/Israel
p47
sS'enDesc'
p48
VThe Book of Amos is third of the Tere Asar (Twelve Minor Prophets). The term denotes the short length of the text in relation to the longer prophetic texts known as the Major Prophets. Amos was an older contemporary of Hosea and Isaiah, and was active during the reign of Jeroboam II. Amos lived in the kingdom of Judah but preached in the northern kingdom of Israel. His major themes of social justice, God's omnipotence, and divine judgment became staples of prophecy.
p49
sS'order'
p50
(lp51
I17
aI12
asS'struct_objs'
p52
(dp53
sS'nodes'
p54
g11
sS'errorMargin'
p55
V200
p56
sS'_title'
p57
g39
sS'categories'
p58
(lp59
VTanakh
p60
aVProphets
p61
asS'schema'
p62
(dp63
g18
g19
sg21
g22
sVlengths
p64
(lp65
I9
aI146
asVdepth
p66
I2
sVtitles
p67
(lp68
(dp69
Vlang
p70
Vhe
p71
sVtext
p72
V\u05e2\u05de\u05d5\u05e1
p73
sVprimary
p74
I01
sa(dp75
Vlang
p76
Ven
p77
sVtext
p78
VAmos
p79
sVprimary
p80
I01
sasVkey
p81
g15
sVsectionNames
p82
(lp83
VChapter
p84
aVVerse
p85
assbsS'_primary_title'
p86
(dp87
sS'title_group'
p88
g2
(csefaria.model.schema
TitleGroup
p89
g4
Ntp90
Rp91
(dp92
g86
(dp93
S'en'
p94
g79
ssS'titles'
p95
g68
sbsS'_addressTypes'
p96
(lp97
g2
(csefaria.model.schema
AddressInteger
p98
g4
Ntp99
Rp100
(dp101
S'length'
p102
I9
sg50
I0
sbag2
(g98
g4
Ntp103
Rp104
(dp105
g102
Nsg50
I1
sbasS'sharedTitle'
p106
Nsg64
g65
sg66
I2
sS'_full_title'
p107
(dp108
g94
g79
ssS'key'
p109
g15
sS'checkFirst'
p110
NsS'_regexes'
p111
(dp112
sS'_leaf_nodes'
p113
(lp114
sg82
g83
sS'children'
p115
(lp116
sbsS'_range_index'
p117
NsS'_context'
p118
(dp119
sS'_padded'
p120
Nsg26
g29
sS'sections'
p121
(lp122
I1
aI1
asS'_first_spanned_ref'
p123
NsS'tref'
p124
VAmos 1:1
p125
sS'_spanned_refs'
p126
(lp127
sS'book'
p128
g79
sS'_range_depth'
p129
NsS'toSections'
p130
(lp131
I1
aI1
asS'_url'
p132
NsS'_normal'
p133
g125
sS'_ranged_refs'
p134
(lp135
sS'type'
p136
g60
sS'_prev'
p137
NsS'_he_normal'
p138
NsS'_next'
p139
Nsbag2
(g3
g4
Ntp140
Rp141
(dp142
g8
g11
sg117
Nsg118
(dp143
sg120
Nsg26
g29
sg121
(lp144
I1
aI2
asg123
Nsg124
VAmos 1:2
p145
sg126
(lp146
sg128
g79
sg129
Nsg130
(lp147
I1
aI2
asg132
Nsg133
g145
sg134
(lp148
sg136
g60
sg137
Nsg138
Nsg139
Nsbag2
(g3
g4
Ntp149
Rp150
(dp151
g8
g11
sg117
Nsg118
(dp152
sg120
Nsg26
g29
sg121
(lp153
I1
aI3
asg123
Nsg124
VAmos 1:3
p154
sg126
(lp155
sg128
g79
sg129
Nsg130
(lp156
I1
aI3
asg132
Nsg133
g154
sg134
(lp157
sg136
g60
sg137
Nsg138
Nsg139
Nsbag2
(g3
g4
Ntp158
Rp159
(dp160
g8
g11
sg117
Nsg118
(dp161
sg120
Nsg26
g29
sg121
(lp162
I1
aI4
asg123
Nsg124
VAmos 1:4
p163
sg126
(lp164
sg128
g79
sg129
Nsg130
(lp165
I1
aI4
asg132
Nsg133
g163
sg134
(lp166
sg136
g60
sg137
Nsg138
Nsg139
Nsbag2
(g3
g4
Ntp167
Rp168
(dp169
g8
g11
sg117
Nsg118
(dp170
sg120
Nsg26
g29
sg121
(lp171
I1
aI5
asg123
Nsg124
VAmos 1:5
p172
sg126
(lp173
sg128
g79
sg129
Nsg130
(lp174
I1
aI5
asg132
Nsg133
g172
sg134
(lp175
sg136
g60
sg137
Nsg138
Nsg139
Nsbag2
(g3
g4
Ntp176
Rp177
(dp178
g8
g11
sg117
Nsg118
(dp179
sg120
Nsg26
g29
sg121
(lp180
I1
aI6
asg123
Nsg124
VAmos 1:6
p181
sg126
(lp182
sg128
g79
sg129
Nsg130
(lp183
I1
aI6
asg132
Nsg133
g181
sg134
(lp184
sg136
g60
sg137
Nsg138
Nsg139
Nsbag2
(g3
g4
Ntp185
Rp186
(dp187
g8
g11
sg117
Nsg118
(dp188
sg120
Nsg26
g29
sg121
(lp189
I1
aI7
asg123
Nsg124
VAmos 1:7
p190
sg126
(lp191
sg128
g79
sg129
Nsg130
(lp192
I1
aI7
asg132
Nsg133
g190
sg134
(lp193
sg136
g60
sg137
Nsg138
Nsg139
Nsbag2
(g3
g4
Ntp194
Rp195
(dp196
g8
g11
sg117
Nsg118
(dp197
sg120
Nsg26
g29
sg121
(lp198
I1
aI8
asg123
Nsg124
VAmos 1:8
p199
sg126
(lp200
sg128
g79
sg129
Nsg130
(lp201
I1
aI8
asg132
Nsg133
g199
sg134
(lp202
sg136
g60
sg137
Nsg138
Nsg139
Nsbag2
(g3
g4
Ntp203
Rp204
(dp205
g8
g11
sg117
Nsg118
(dp206
sg120
Nsg26
g29
sg121
(lp207
I1
aI9
asg123
Nsg124
VAmos 1:9
p208
sg126
(lp209
sg128
g79
sg129
Nsg130
(lp210
I1
aI9
asg132
Nsg133
g208
sg134
(lp211
sg136
g60
sg137
Nsg138
Nsg139
Nsbag2
(g3
g4
Ntp212
Rp213
(dp214
g8
g11
sg117
Nsg118
(dp215
sg120
Nsg26
g29
sg121
(lp216
I1
aI10
asg123
Nsg124
VAmos 1:10
p217
sg126
(lp218
sg128
g79
sg129
Nsg130
(lp219
I1
aI10
asg132
Nsg133
g217
sg134
(lp220
sg136
g60
sg137
Nsg138
Nsg139
Nsbag2
(g3
g4
Ntp221
Rp222
(dp223
g8
g11
sg117
Nsg118
(dp224
sg120
Nsg26
g29
sg121
(lp225
I1
aI11
asg123
Nsg124
VAmos 1:11
p226
sg126
(lp227
sg128
g79
sg129
Nsg130
(lp228
I1
aI11
asg132
Nsg133
g226
sg134
(lp229
sg136
g60
sg137
Nsg138
Nsg139
Nsbag2
(g3
g4
Ntp230
Rp231
(dp232
g8
g11
sg117
Nsg118
(dp233
sg120
Nsg26
g29
sg121
(lp234
I1
aI12
asg123
Nsg124
VAmos 1:12
p235
sg126
(lp236
sg128
g79
sg129
Nsg130
(lp237
I1
aI12
asg132
Nsg133
g235
sg134
(lp238
sg136
g60
sg137
Nsg138
Nsg139
Nsbag2
(g3
g4
Ntp239
Rp240
(dp241
g8
g11
sg117
Nsg118
(dp242
sg120
Nsg26
g29
sg121
(lp243
I1
aI13
asg123
Nsg124
VAmos 1:13
p244
sg126
(lp245
sg128
g79
sg129
Nsg130
(lp246
I1
aI13
asg132
Nsg133
g244
sg134
(lp247
sg136
g60
sg137
Nsg138
Nsg139
Nsbag2
(g3
g4
Ntp248
Rp249
(dp250
g8
g11
sg117
Nsg118
(dp251
sg120
Nsg26
g29
sg121
(lp252
I1
aI14
asg123
Nsg124
VAmos 1:14
p253
sg126
(lp254
sg128
g79
sg129
Nsg130
(lp255
I1
aI14
asg132
Nsg133
g253
sg134
(lp256
sg136
g60
sg137
Nsg138
Nsg139
Nsbag2
(g3
g4
Ntp257
Rp258
(dp259
g8
g11
sg117
Nsg118
(dp260
sg120
Nsg26
g29
sg121
(lp261
I1
aI15
asg123
Nsg124
VAmos 1:15
p262
sg126
(lp263
sg128
g79
sg129
Nsg130
(lp264
I1
aI15
asg132
Nsg133
g262
sg134
(lp265
sg136
g60
sg137
Nsg138
Nsg139
Nsbag2
(g3
g4
Ntp266
Rp267
(dp268
g8
g11
sg117
Nsg118
(dp269
sg120
Nsg26
g29
sg121
(lp270
I2
aI1
asg123
Nsg124
VAmos 2:1
p271
sg126
(lp272
sg128
g79
sg129
Nsg130
(lp273
I2
aI1
asg132
Nsg133
g271
sg134
(lp274
sg136
g60
sg137
Nsg138
Nsg139
Nsbag2
(g3
g4
Ntp275
Rp276
(dp277
g8
g11
sg117
Nsg118
(dp278
sg120
Nsg26
g29
sg121
(lp279
I2
aI2
asg123
Nsg124
VAmos 2:2
p280
sg126
(lp281
sg128
g79
sg129
Nsg130
(lp282
I2
aI2
asg132
Nsg133
g280
sg134
(lp283
sg136
g60
sg137
Nsg138
Nsg139
Nsbag2
(g3
g4
Ntp284
Rp285
(dp286
g8
g11
sg117
Nsg118
(dp287
sg120
Nsg26
g29
sg121
(lp288
I2
aI3
asg123
Nsg124
VAmos 2:3
p289
sg126
(lp290
sg128
g79
sg129
Nsg130
(lp291
I2
aI3
asg132
Nsg133
g289
sg134
(lp292
sg136
g60
sg137
Nsg138
Nsg139
Nsbag2
(g3
g4
Ntp293
Rp294
(dp295
g8
g11
sg117
Nsg118
(dp296
sg120
Nsg26
g29
sg121
(lp297
I2
aI4
asg123
Nsg124
VAmos 2:4
p298
sg126
(lp299
sg128
g79
sg129
Nsg130
(lp300
I2
aI4
asg132
Nsg133
g298
sg134
(lp301
sg136
g60
sg137
Nsg138
Nsg139
Nsbag2
(g3
g4
Ntp302
Rp303
(dp304
g8
g11
sg117
Nsg118
(dp305
sg120
Nsg26
g29
sg121
(lp306
I2
aI5
asg123
Nsg124
VAmos 2:5
p307
sg126
(lp308
sg128
g79
sg129
Nsg130
(lp309
I2
aI5
asg132
Nsg133
g307
sg134
(lp310
sg136
g60
sg137
Nsg138
Nsg139
Nsbag2
(g3
g4
Ntp311
Rp312
(dp313
g8
g11
sg117
Nsg118
(dp314
sg120
Nsg26
g29
sg121
(lp315
I2
aI6
asg123
Nsg124
VAmos 2:6
p316
sg126
(lp317
sg128
g79
sg129
Nsg130
(lp318
I2
aI6
asg132
Nsg133
g316
sg134
(lp319
sg136
g60
sg137
Nsg138
Nsg139
Nsbag2
(g3
g4
Ntp320
Rp321
(dp322
g8
g11
sg117
Nsg118
(dp323
sg120
Nsg26
g29
sg121
(lp324
I2
aI7
asg123
Nsg124
VAmos 2:7
p325
sg126
(lp326
sg128
g79
sg129
Nsg130
(lp327
I2
aI7
asg132
Nsg133
g325
sg134
(lp328
sg136
g60
sg137
Nsg138
Nsg139
Nsbag2
(g3
g4
Ntp329
Rp330
(dp331
g8
g11
sg117
Nsg118
(dp332
sg120
Nsg26
g29
sg121
(lp333
I2
aI8
asg123
Nsg124
VAmos 2:8
p334
sg126
(lp335
sg128
g79
sg129
Nsg130
(lp336
I2
aI8
asg132
Nsg133
g334
sg134
(lp337
sg136
g60
sg137
Nsg138
Nsg139
Nsbag2
(g3
g4
Ntp338
Rp339
(dp340
g8
g11
sg117
Nsg118
(dp341
sg120
Nsg26
g29
sg121
(lp342
I2
aI9
asg123
Nsg124
VAmos 2:9
p343
sg126
(lp344
sg128
g79
sg129
Nsg130
(lp345
I2
aI9
asg132
Nsg133
g343
sg134
(lp346
sg136
g60
sg137
Nsg138
Nsg139
Nsbag2
(g3
g4
Ntp347
Rp348
(dp349
g8
g11
sg117
Nsg118
(dp350
sg120
Nsg26
g29
sg121
(lp351
I2
aI10
asg123
Nsg124
VAmos 2:10
p352
sg126
(lp353
sg128
g79
sg129
Nsg130
(lp354
I2
aI10
asg132
Nsg133
g352
sg134
(lp355
sg136
g60
sg137
Nsg138
Nsg139
Nsbag2
(g3
g4
Ntp356
Rp357
(dp358
g8
g11
sg117
Nsg118
(dp359
sg120
Nsg26
g29
sg121
(lp360
I2
aI11
asg123
Nsg124
VAmos 2:11
p361
sg126
(lp362
sg128
g79
sg129
Nsg130
(lp363
I2
aI11
asg132
Nsg133
g361
sg134
(lp364
sg136
g60
sg137
Nsg138
Nsg139
Nsbag2
(g3
g4
Ntp365
Rp366
(dp367
g8
g11
sg117
Nsg118
(dp368
sg120
Nsg26
g29
sg121
(lp369
I2
aI12
asg123
Nsg124
VAmos 2:12
p370
sg126
(lp371
sg128
g79
sg129
Nsg130
(lp372
I2
aI12
asg132
Nsg133
g370
sg134
(lp373
sg136
g60
sg137
Nsg138
Nsg139
Nsbag2
(g3
g4
Ntp374
Rp375
(dp376
g8
g11
sg117
Nsg118
(dp377
sg120
Nsg26
g29
sg121
(lp378
I2
aI13
asg123
Nsg124
VAmos 2:13
p379
sg126
(lp380
sg128
g79
sg129
Nsg130
(lp381
I2
aI13
asg132
Nsg133
g379
sg134
(lp382
sg136
g60
sg137
Nsg138
Nsg139
Nsbag2
(g3
g4
Ntp383
Rp384
(dp385
g8
g11
sg117
Nsg118
(dp386
sg120
Nsg26
g29
sg121
(lp387
I2
aI14
asg123
Nsg124
VAmos 2:14
p388
sg126
(lp389
sg128
g79
sg129
Nsg130
(lp390
I2
aI14
asg132
Nsg133
g388
sg134
(lp391
sg136
g60
sg137
Nsg138
Nsg139
Nsbag2
(g3
g4
Ntp392
Rp393
(dp394
g8
g11
sg117
Nsg118
(dp395
sg120
Nsg26
g29
sg121
(lp396
I2
aI15
asg123
Nsg124
VAmos 2:15
p397
sg126
(lp398
sg128
g79
sg129
Nsg130
(lp399
I2
aI15
asg132
Nsg133
g397
sg134
(lp400
sg136
g60
sg137
Nsg138
Nsg139
Nsbag2
(g3
g4
Ntp401
Rp402
(dp403
g8
g11
sg117
Nsg118
(dp404
sg120
Nsg26
g29
sg121
(lp405
I2
aI16
asg123
Nsg124
VAmos 2:16
p406
sg126
(lp407
sg128
g79
sg129
Nsg130
(lp408
I2
aI16
asg132
Nsg133
g406
sg134
(lp409
sg136
g60
sg137
Nsg138
Nsg139
Nsbag2
(g3
g4
Ntp410
Rp411
(dp412
g8
g11
sg117
Nsg118
(dp413
sg120
Nsg26
g29
sg121
(lp414
I3
aI1
asg123
Nsg124
VAmos 3:1
p415
sg126
(lp416
sg128
g79
sg129
Nsg130
(lp417
I3
aI1
asg132
Nsg133
g415
sg134
(lp418
sg136
g60
sg137
Nsg138
Nsg139
Nsbag2
(g3
g4
Ntp419
Rp420
(dp421
g8
g11
sg117
Nsg118
(dp422
sg120
Nsg26
g29
sg121
(lp423
I3
aI2
asg123
Nsg124
VAmos 3:2
p424
sg126
(lp425
sg128
g79
sg129
Nsg130
(lp426
I3
aI2
asg132
Nsg133
g424
sg134
(lp427
sg136
g60
sg137
Nsg138
Nsg139
Nsbag2
(g3
g4
Ntp428
Rp429
(dp430
g8
g11
sg117
Nsg118
(dp431
sg120
Nsg26
g29
sg121
(lp432
I3
aI3
asg123
Nsg124
VAmos 3:3
p433
sg126
(lp434
sg128
g79
sg129
Nsg130
(lp435
I3
aI3
asg132
Nsg133
g433
sg134
(lp436
sg136
g60
sg137
Nsg138
Nsg139
Nsbag2
(g3
g4
Ntp437
Rp438
(dp439
g8
g11
sg117
Nsg118
(dp440
sg120
Nsg26
g29
sg121
(lp441
I3
aI4
asg123
Nsg124
VAmos 3:4
p442
sg126
(lp443
sg128
g79
sg129
Nsg130
(lp444
I3
aI4
asg132
Nsg133
g442
sg134
(lp445
sg136
g60
sg137
Nsg138
Nsg139
Nsbag2
(g3
g4
Ntp446
Rp447
(dp448
g8
g11
sg117
Nsg118
(dp449
sg120
Nsg26
g29
sg121
(lp450
I3
aI5
asg123
Nsg124
VAmos 3:5
p451
sg126
(lp452
sg128
g79
sg129
Nsg130
(lp453
I3
aI5
asg132
Nsg133
g451
sg134
(lp454
sg136
g60
sg137
Nsg138
Nsg139
Nsbag2
(g3
g4
Ntp455
Rp456
(dp457
g8
g11
sg117
Nsg118
(dp458
sg120
Nsg26
g29
sg121
(lp459
I3
aI6
asg123
Nsg124
VAmos 3:6
p460
sg126
(lp461
sg128
g79
sg129
Nsg130
(lp462
I3
aI6
asg132
Nsg133
g460
sg134
(lp463
sg136
g60
sg137
Nsg138
Nsg139
Nsbag2
(g3
g4
Ntp464
Rp465
(dp466
g8
g11
sg117
Nsg118
(dp467
sg120
Nsg26
g29
sg121
(lp468
I3
aI7
asg123
Nsg124
VAmos 3:7
p469
sg126
(lp470
sg128
g79
sg129
Nsg130
(lp471
I3
aI7
asg132
Nsg133
g469
sg134
(lp472
sg136
g60
sg137
Nsg138
Nsg139
Nsbag2
(g3
g4
Ntp473
Rp474
(dp475
g8
g11
sg117
Nsg118
(dp476
sg120
Nsg26
g29
sg121
(lp477
I3
aI8
asg123
Nsg124
VAmos 3:8
p478
sg126
(lp479
sg128
g79
sg129
Nsg130
(lp480
I3
aI8
asg132
Nsg133
g478
sg134
(lp481
sg136
g60
sg137
Nsg138
Nsg139
Nsbag2
(g3
g4
Ntp482
Rp483
(dp484
g8
g11
sg117
Nsg118
(dp485
sg120
Nsg26
g29
sg121
(lp486
I3
aI9
asg123
Nsg124
VAmos 3:9
p487
sg126
(lp488
sg128
g79
sg129
Nsg130
(lp489
I3
aI9
asg132
Nsg133
g487
sg134
(lp490
sg136
g60
sg137
Nsg138
Nsg139
Nsbag2
(g3
g4
Ntp491
Rp492
(dp493
g8
g11
sg117
Nsg118
(dp494
sg120
Nsg26
g29
sg121
(lp495
I3
aI10
asg123
Nsg124
VAmos 3:10
p496
sg126
(lp497
sg128
g79
sg129
Nsg130
(lp498
I3
aI10
asg132
Nsg133
g496
sg134
(lp499
sg136
g60
sg137
Nsg138
Nsg139
Nsbag2
(g3
g4
Ntp500
Rp501
(dp502
g8
g11
sg117
Nsg118
(dp503
sg120
Nsg26
g29
sg121
(lp504
I3
aI11
asg123
Nsg124
VAmos 3:11
p505
sg126
(lp506
sg128
g79
sg129
Nsg130
(lp507
I3
aI11
asg132
Nsg133
g505
sg134
(lp508
sg136
g60
sg137
Nsg138
Nsg139
Nsbag2
(g3
g4
Ntp509
Rp510
(dp511
g8
g11
sg117
Nsg118
(dp512
sg120
Nsg26
g29
sg121
(lp513
I3
aI12
asg123
Nsg124
VAmos 3:12
p514
sg126
(lp515
sg128
g79
sg129
Nsg130
(lp516
I3
aI12
asg132
Nsg133
g514
sg134
(lp517
sg136
g60
sg137
Nsg138
Nsg139
Nsbag2
(g3
g4
Ntp518
Rp519
(dp520
g8
g11
sg117
Nsg118
(dp521
sg120
Nsg26
g29
sg121
(lp522
I3
aI13
asg123
Nsg124
VAmos 3:13
p523
sg126
(lp524
sg128
g79
sg129
Nsg130
(lp525
I3
aI13
asg132
Nsg133
g523
sg134
(lp526
sg136
g60
sg137
Nsg138
Nsg139
Nsbag2
(g3
g4
Ntp527
Rp528
(dp529
g8
g11
sg117
Nsg118
(dp530
sg120
Nsg26
g29
sg121
(lp531
I3
aI14
asg123
Nsg124
VAmos 3:14
p532
sg126
(lp533
sg128
g79
sg129
Nsg130
(lp534
I3
aI14
asg132
Nsg133
g532
sg134
(lp535
sg136
g60
sg137
Nsg138
Nsg139
Nsbag2
(g3
g4
Ntp536
Rp537
(dp538
g8
g11
sg117
Nsg118
(dp539
sg120
Nsg26
g29
sg121
(lp540
I3
aI15
asg123
Nsg124
VAmos 3:15
p541
sg126
(lp542
sg128
g79
sg129
Nsg130
(lp543
I3
aI15
asg132
Nsg133
g541
sg134
(lp544
sg136
g60
sg137
Nsg138
Nsg139
Nsbag2
(g3
g4
Ntp545
Rp546
(dp547
g8
g11
sg117
Nsg118
(dp548
sg120
Nsg26
g29
sg121
(lp549
I4
aI1
asg123
Nsg124
VAmos 4:1
p550
sg126
(lp551
sg128
g79
sg129
Nsg130
(lp552
I4
aI1
asg132
Nsg133
g550
sg134
(lp553
sg136
g60
sg137
Nsg138
Nsg139
Nsbag2
(g3
g4
Ntp554
Rp555
(dp556
g8
g11
sg117
Nsg118
(dp557
sg120
Nsg26
g29
sg121
(lp558
I4
aI2
asg123
Nsg124
VAmos 4:2
p559
sg126
(lp560
sg128
g79
sg129
Nsg130
(lp561
I4
aI2
asg132
Nsg133
g559
sg134
(lp562
sg136
g60
sg137
Nsg138
Nsg139
Nsbag2
(g3
g4
Ntp563
Rp564
(dp565
g8
g11
sg117
Nsg118
(dp566
sg120
Nsg26
g29
sg121
(lp567
I4
aI3
asg123
Nsg124
VAmos 4:3
p568
sg126
(lp569
sg128
g79
sg129
Nsg130
(lp570
I4
aI3
asg132
Nsg133
g568
sg134
(lp571
sg136
g60
sg137
Nsg138
Nsg139
Nsbag2
(g3
g4
Ntp572
Rp573
(dp574
g8
g11
sg117
Nsg118
(dp575
sg120
Nsg26
g29
sg121
(lp576
I4
aI4
asg123
Nsg124
VAmos 4:4
p577
sg126
(lp578
sg128
g79
sg129
Nsg130
(lp579
I4
aI4
asg132
Nsg133
g577
sg134
(lp580
sg136
g60
sg137
Nsg138
Nsg139
Nsbag2
(g3
g4
Ntp581
Rp582
(dp583
g8
g11
sg117
Nsg118
(dp584
sg120
Nsg26
g29
sg121
(lp585
I4
aI5
asg123
Nsg124
VAmos 4:5
p586
sg126
(lp587
sg128
g79
sg129
Nsg130
(lp588
I4
aI5
asg132
Nsg133
g586
sg134
(lp589
sg136
g60
sg137
Nsg138
Nsg139
Nsbag2
(g3
g4
Ntp590
Rp591
(dp592
g8
g11
sg117
Nsg118
(dp593
sg120
Nsg26
g29
sg121
(lp594
I4
aI6
asg123
Nsg124
VAmos 4:6
p595
sg126
(lp596
sg128
g79
sg129
Nsg130
(lp597
I4
aI6
asg132
Nsg133
g595
sg134
(lp598
sg136
g60
sg137
Nsg138
Nsg139
Nsbag2
(g3
g4
Ntp599
Rp600
(dp601
g8
g11
sg117
Nsg118
(dp602
sg120
Nsg26
g29
sg121
(lp603
I4
aI7
asg123
Nsg124
VAmos 4:7
p604
sg126
(lp605
sg128
g79
sg129
Nsg130
(lp606
I4
aI7
asg132
Nsg133
g604
sg134
(lp607
sg136
g60
sg137
Nsg138
Nsg139
Nsbag2
(g3
g4
Ntp608
Rp609
(dp610
g8
g11
sg117
Nsg118
(dp611
sg120
Nsg26
g29
sg121
(lp612
I4
aI8
asg123
Nsg124
VAmos 4:8
p613
sg126
(lp614
sg128
g79
sg129
Nsg130
(lp615
I4
aI8
asg132
Nsg133
g613
sg134
(lp616
sg136
g60
sg137
Nsg138
Nsg139
Nsbag2
(g3
g4
Ntp617
Rp618
(dp619
g8
g11
sg117
Nsg118
(dp620
sg120
Nsg26
g29
sg121
(lp621
I4
aI9
asg123
Nsg124
VAmos 4:9
p622
sg126
(lp623
sg128
g79
sg129
Nsg130
(lp624
I4
aI9
asg132
Nsg133
g622
sg134
(lp625
sg136
g60
sg137
Nsg138
Nsg139
Nsbag2
(g3
g4
Ntp626
Rp627
(dp628
g8
g11
sg117
Nsg118
(dp629
sg120
Nsg26
g29
sg121
(lp630
I4
aI10
asg123
Nsg124
VAmos 4:10
p631
sg126
(lp632
sg128
g79
sg129
Nsg130
(lp633
I4
aI10
asg132
Nsg133
g631
sg134
(lp634
sg136
g60
sg137
Nsg138
Nsg139
Nsbag2
(g3
g4
Ntp635
Rp636
(dp637
g8
g11
sg117
Nsg118
(dp638
sg120
Nsg26
g29
sg121
(lp639
I4
aI11
asg123
Nsg124
VAmos 4:11
p640
sg126
(lp641
sg128
g79
sg129
Nsg130
(lp642
I4
aI11
asg132
Nsg133
g640
sg134
(lp643
sg136
g60
sg137
Nsg138
Nsg139
Nsbag2
(g3
g4
Ntp644
Rp645
(dp646
g8
g11
sg117
Nsg118
(dp647
sg120
Nsg26
g29
sg121
(lp648
I4
aI12
asg123
Nsg124
VAmos 4:12
p649
sg126
(lp650
sg128
g79
sg129
Nsg130
(lp651
I4
aI12
asg132
Nsg133
g649
sg134
(lp652
sg136
g60
sg137
Nsg138
Nsg139
Nsbag2
(g3
g4
Ntp653
Rp654
(dp655
g8
g11
sg117
Nsg118
(dp656
sg120
Nsg26
g29
sg121
(lp657
I4
aI13
asg123
Nsg124
VAmos 4:13
p658
sg126
(lp659
sg128
g79
sg129
Nsg130
(lp660
I4
aI13
asg132
Nsg133
g658
sg134
(lp661
sg136
g60
sg137
Nsg138
Nsg139
Nsbag2
(g3
g4
Ntp662
Rp663
(dp664
g8
g11
sg117
Nsg118
(dp665
sg120
Nsg26
g29
sg121
(lp666
I5
aI1
asg123
Nsg124
VAmos 5:1
p667
sg126
(lp668
sg128
g79
sg129
Nsg130
(lp669
I5
aI1
asg132
Nsg133
g667
sg134
(lp670
sg136
g60
sg137
Nsg138
Nsg139
Nsbag2
(g3
g4
Ntp671
Rp672
(dp673
g8
g11
sg117
Nsg118
(dp674
sg120
Nsg26
g29
sg121
(lp675
I5
aI2
asg123
Nsg124
VAmos 5:2
p676
sg126
(lp677
sg128
g79
sg129
Nsg130
(lp678
I5
aI2
asg132
Nsg133
g676
sg134
(lp679
sg136
g60
sg137
Nsg138
Nsg139
Nsbag2
(g3
g4
Ntp680
Rp681
(dp682
g8
g11
sg117
Nsg118
(dp683
sg120
Nsg26
g29
sg121
(lp684
I5
aI3
asg123
Nsg124
VAmos 5:3
p685
sg126
(lp686
sg128
g79
sg129
Nsg130
(lp687
I5
aI3
asg132
Nsg133
g685
sg134
(lp688
sg136
g60
sg137
Nsg138
Nsg139
Nsbag2
(g3
g4
Ntp689
Rp690
(dp691
g8
g11
sg117
Nsg118
(dp692
sg120
Nsg26
g29
sg121
(lp693
I5
aI4
asg123
Nsg124
VAmos 5:4
p694
sg126
(lp695
sg128
g79
sg129
Nsg130
(lp696
I5
aI4
asg132
Nsg133
g694
sg134
(lp697
sg136
g60
sg137
Nsg138
Nsg139
Nsbag2
(g3
g4
Ntp698
Rp699
(dp700
g8
g11
sg117
Nsg118
(dp701
sg120
Nsg26
g29
sg121
(lp702
I5
aI5
asg123
Nsg124
VAmos 5:5
p703
sg126
(lp704
sg128
g79
sg129
Nsg130
(lp705
I5
aI5
asg132
Nsg133
g703
sg134
(lp706
sg136
g60
sg137
Nsg138
Nsg139
Nsbag2
(g3
g4
Ntp707
Rp708
(dp709
g8
g11
sg117
Nsg118
(dp710
sg120
Nsg26
g29
sg121
(lp711
I5
aI6
asg123
Nsg124
VAmos 5:6
p712
sg126
(lp713
sg128
g79
sg129
Nsg130
(lp714
I5
aI6
asg132
Nsg133
g712
sg134
(lp715
sg136
g60
sg137
Nsg138
Nsg139
Nsbag2
(g3
g4
Ntp716
Rp717
(dp718
g8
g11
sg117
Nsg118
(dp719
sg120
Nsg26
g29
sg121
(lp720
I5
aI7
asg123
Nsg124
VAmos 5:7
p721
sg126
(lp722
sg128
g79
sg129
Nsg130
(lp723
I5
aI7
asg132
Nsg133
g721
sg134
(lp724
sg136
g60
sg137
Nsg138
Nsg139
Nsbag2
(g3
g4
Ntp725
Rp726
(dp727
g8
g11
sg117
Nsg118
(dp728
sg120
Nsg26
g29
sg121
(lp729
I5
aI8
asg123
Nsg124
VAmos 5:8
p730
sg126
(lp731
sg128
g79
sg129
Nsg130
(lp732
I5
aI8
asg132
Nsg133
g730
sg134
(lp733
sg136
g60
sg137
Nsg138
Nsg139
Nsbag2
(g3
g4
Ntp734
Rp735
(dp736
g8
g11
sg117
Nsg118
(dp737
sg120
Nsg26
g29
sg121
(lp738
I5
aI9
asg123
Nsg124
VAmos 5:9
p739
sg126
(lp740
sg128
g79
sg129
Nsg130
(lp741
I5
aI9
asg132
Nsg133
g739
sg134
(lp742
sg136
g60
sg137
Nsg138
Nsg139
Nsbag2
(g3
g4
Ntp743
Rp744
(dp745
g8
g11
sg117
Nsg118
(dp746
sg120
Nsg26
g29
sg121
(lp747
I5
aI10
asg123
Nsg124
VAmos 5:10
p748
sg126
(lp749
sg128
g79
sg129
Nsg130
(lp750
I5
aI10
asg132
Nsg133
g748
sg134
(lp751
sg136
g60
sg137
Nsg138
Nsg139
Nsbag2
(g3
g4
Ntp752
Rp753
(dp754
g8
g11
sg117
Nsg118
(dp755
sg120
Nsg26
g29
sg121
(lp756
I5
aI11
asg123
Nsg124
VAmos 5:11
p757
sg126
(lp758
sg128
g79
sg129
Nsg130
(lp759
I5
aI11
asg132
Nsg133
g757
sg134
(lp760
sg136
g60
sg137
Nsg138
Nsg139
Nsbag2
(g3
g4
Ntp761
Rp762
(dp763
g8
g11
sg117
Nsg118
(dp764
sg120
Nsg26
g29
sg121
(lp765
I5
aI12
asg123
Nsg124
VAmos 5:12
p766
sg126
(lp767
sg128
g79
sg129
Nsg130
(lp768
I5
aI12
asg132
Nsg133
g766
sg134
(lp769
sg136
g60
sg137
Nsg138
Nsg139
Nsbag2
(g3
g4
Ntp770
Rp771
(dp772
g8
g11
sg117
Nsg118
(dp773
sg120
Nsg26
g29
sg121
(lp774
I5
aI13
asg123
Nsg124
VAmos 5:13
p775
sg126
(lp776
sg128
g79
sg129
Nsg130
(lp777
I5
aI13
asg132
Nsg133
g775
sg134
(lp778
sg136
g60
sg137
Nsg138
Nsg139
Nsbag2
(g3
g4
Ntp779
Rp780
(dp781
g8
g11
sg117
Nsg118
(dp782
sg120
Nsg26
g29
sg121
(lp783
I5
aI14
asg123
Nsg124
VAmos 5:14
p784
sg126
(lp785
sg128
g79
sg129
Nsg130
(lp786
I5
aI14
asg132
Nsg133
g784
sg134
(lp787
sg136
g60
sg137
Nsg138
Nsg139
Nsbag2
(g3
g4
Ntp788
Rp789
(dp790
g8
g11
sg117
Nsg118
(dp791
sg120
Nsg26
g29
sg121
(lp792
I5
aI15
asg123
Nsg124
VAmos 5:15
p793
sg126
(lp794
sg128
g79
sg129
Nsg130
(lp795
I5
aI15
asg132
Nsg133
g793
sg134
(lp796
sg136
g60
sg137
Nsg138
Nsg139
Nsbag2
(g3
g4
Ntp797
Rp798
(dp799
g8
g11
sg117
Nsg118
(dp800
sg120
Nsg26
g29
sg121
(lp801
I5
aI16
asg123
Nsg124
VAmos 5:16
p802
sg126
(lp803
sg128
g79
sg129
Nsg130
(lp804
I5
aI16
asg132
Nsg133
g802
sg134
(lp805
sg136
g60
sg137
Nsg138
Nsg139
Nsbag2
(g3
g4
Ntp806
Rp807
(dp808
g8
g11
sg117
Nsg118
(dp809
sg120
Nsg26
g29
sg121
(lp810
I5
aI17
asg123
Nsg124
VAmos 5:17
p811
sg126
(lp812
sg128
g79
sg129
Nsg130
(lp813
I5
aI17
asg132
Nsg133
g811
sg134
(lp814
sg136
g60
sg137
Nsg138
Nsg139
Nsbag2
(g3
g4
Ntp815
Rp816
(dp817
g8
g11
sg117
Nsg118
(dp818
sg120
Nsg26
g29
sg121
(lp819
I5
aI18
asg123
Nsg124
VAmos 5:18
p820
sg126
(lp821
sg128
g79
sg129
Nsg130
(lp822
I5
aI18
asg132
Nsg133
g820
sg134
(lp823
sg136
g60
sg137
Nsg138
Nsg139
Nsbag2
(g3
g4
Ntp824
Rp825
(dp826
g8
g11
sg117
Nsg118
(dp827
sg120
Nsg26
g29
sg121
(lp828
I5
aI19
asg123
Nsg124
VAmos 5:19
p829
sg126
(lp830
sg128
g79
sg129
Nsg130
(lp831
I5
aI19
asg132
Nsg133
g829
sg134
(lp832
sg136
g60
sg137
Nsg138
Nsg139
Nsbag2
(g3
g4
Ntp833
Rp834
(dp835
g8
g11
sg117
Nsg118
(dp836
sg120
Nsg26
g29
sg121
(lp837
I5
aI20
asg123
Nsg124
VAmos 5:20
p838
sg126
(lp839
sg128
g79
sg129
Nsg130
(lp840
I5
aI20
asg132
Nsg133
g838
sg134
(lp841
sg136
g60
sg137
Nsg138
Nsg139
Nsbag2
(g3
g4
Ntp842
Rp843
(dp844
g8
g11
sg117
Nsg118
(dp845
sg120
Nsg26
g29
sg121
(lp846
I5
aI21
asg123
Nsg124
VAmos 5:21
p847
sg126
(lp848
sg128
g79
sg129
Nsg130
(lp849
I5
aI21
asg132
Nsg133
g847
sg134
(lp850
sg136
g60
sg137
Nsg138
Nsg139
Nsbag2
(g3
g4
Ntp851
Rp852
(dp853
g8
g11
sg117
Nsg118
(dp854
sg120
Nsg26
g29
sg121
(lp855
I5
aI22
asg123
Nsg124
VAmos 5:22
p856
sg126
(lp857
sg128
g79
sg129
Nsg130
(lp858
I5
aI22
asg132
Nsg133
g856
sg134
(lp859
sg136
g60
sg137
Nsg138
Nsg139
Nsbag2
(g3
g4
Ntp860
Rp861
(dp862
g8
g11
sg117
Nsg118
(dp863
sg120
Nsg26
g29
sg121
(lp864
I5
aI23
asg123
Nsg124
VAmos 5:23
p865
sg126
(lp866
sg128
g79
sg129
Nsg130
(lp867
I5
aI23
asg132
Nsg133
g865
sg134
(lp868
sg136
g60
sg137
Nsg138
Nsg139
Nsbag2
(g3
g4
Ntp869
Rp870
(dp871
g8
g11
sg117
Nsg118
(dp872
sg120
Nsg26
g29
sg121
(lp873
I5
aI24
asg123
Nsg124
VAmos 5:24
p874
sg126
(lp875
sg128
g79
sg129
Nsg130
(lp876
I5
aI24
asg132
Nsg133
g874
sg134
(lp877
sg136
g60
sg137
Nsg138
Nsg139
Nsbag2
(g3
g4
Ntp878
Rp879
(dp880
g8
g11
sg117
Nsg118
(dp881
sg120
Nsg26
g29
sg121
(lp882
I5
aI25
asg123
Nsg124
VAmos 5:25
p883
sg126
(lp884
sg128
g79
sg129
Nsg130
(lp885
I5
aI25
asg132
Nsg133
g883
sg134
(lp886
sg136
g60
sg137
Nsg138
Nsg139
Nsbag2
(g3
g4
Ntp887
Rp888
(dp889
g8
g11
sg117
Nsg118
(dp890
sg120
Nsg26
g29
sg121
(lp891
I5
aI26
asg123
Nsg124
VAmos 5:26
p892
sg126
(lp893
sg128
g79
sg129
Nsg130
(lp894
I5
aI26
asg132
Nsg133
g892
sg134
(lp895
sg136
g60
sg137
Nsg138
Nsg139
Nsbag2
(g3
g4
Ntp896
Rp897
(dp898
g8
g11
sg117
Nsg118
(dp899
sg120
Nsg26
g29
sg121
(lp900
I5
aI27
asg123
Nsg124
VAmos 5:27
p901
sg126
(lp902
sg128
g79
sg129
Nsg130
(lp903
I5
aI27
asg132
Nsg133
g901
sg134
(lp904
sg136
g60
sg137
Nsg138
Nsg139
Nsbag2
(g3
g4
Ntp905
Rp906
(dp907
g8
g11
sg117
Nsg118
(dp908
sg120
Nsg26
g29
sg121
(lp909
I6
aI1
asg123
Nsg124
VAmos 6:1
p910
sg126
(lp911
sg128
g79
sg129
Nsg130
(lp912
I6
aI1
asg132
Nsg133
g910
sg134
(lp913
sg136
g60
sg137
Nsg138
Nsg139
Nsbag2
(g3
g4
Ntp914
Rp915
(dp916
g8
g11
sg117
Nsg118
(dp917
sg120
Nsg26
g29
sg121
(lp918
I6
aI2
asg123
Nsg124
VAmos 6:2
p919
sg126
(lp920
sg128
g79
sg129
Nsg130
(lp921
I6
aI2
asg132
Nsg133
g919
sg134
(lp922
sg136
g60
sg137
Nsg138
Nsg139
Nsbag2
(g3
g4
Ntp923
Rp924
(dp925
g8
g11
sg117
Nsg118
(dp926
sg120
Nsg26
g29
sg121
(lp927
I6
aI3
asg123
Nsg124
VAmos 6:3
p928
sg126
(lp929
sg128
g79
sg129
Nsg130
(lp930
I6
aI3
asg132
Nsg133
g928
sg134
(lp931
sg136
g60
sg137
Nsg138
Nsg139
Nsbag2
(g3
g4
Ntp932
Rp933
(dp934
g8
g11
sg117
Nsg118
(dp935
sg120
Nsg26
g29
sg121
(lp936
I6
aI4
asg123
Nsg124
VAmos 6:4
p937
sg126
(lp938
sg128
g79
sg129
Nsg130
(lp939
I6
aI4
asg132
Nsg133
g937
sg134
(lp940
sg136
g60
sg137
Nsg138
Nsg139
Nsbag2
(g3
g4
Ntp941
Rp942
(dp943
g8
g11
sg117
Nsg118
(dp944
sg120
Nsg26
g29
sg121
(lp945
I6
aI5
asg123
Nsg124
VAmos 6:5
p946
sg126
(lp947
sg128
g79
sg129
Nsg130
(lp948
I6
aI5
asg132
Nsg133
g946
sg134
(lp949
sg136
g60
sg137
Nsg138
Nsg139
Nsbag2
(g3
g4
Ntp950
Rp951
(dp952
g8
g11
sg117
Nsg118
(dp953
sg120
Nsg26
g29
sg121
(lp954
I6
aI6
asg123
Nsg124
VAmos 6:6
p955
sg126
(lp956
sg128
g79
sg129
Nsg130
(lp957
I6
aI6
asg132
Nsg133
g955
sg134
(lp958
sg136
g60
sg137
Nsg138
Nsg139
Nsbag2
(g3
g4
Ntp959
Rp960
(dp961
g8
g11
sg117
Nsg118
(dp962
sg120
Nsg26
g29
sg121
(lp963
I6
aI7
asg123
Nsg124
VAmos 6:7
p964
sg126
(lp965
sg128
g79
sg129
Nsg130
(lp966
I6
aI7
asg132
Nsg133
g964
sg134
(lp967
sg136
g60
sg137
Nsg138
Nsg139
Nsbag2
(g3
g4
Ntp968
Rp969
(dp970
g8
g11
sg117
Nsg118
(dp971
sg120
Nsg26
g29
sg121
(lp972
I6
aI8
asg123
Nsg124
VAmos 6:8
p973
sg126
(lp974
sg128
g79
sg129
Nsg130
(lp975
I6
aI8
asg132
Nsg133
g973
sg134
(lp976
sg136
g60
sg137
Nsg138
Nsg139
Nsbag2
(g3
g4
Ntp977
Rp978
(dp979
g8
g11
sg117
Nsg118
(dp980
sg120
Nsg26
g29
sg121
(lp981
I6
aI9
asg123
Nsg124
VAmos 6:9
p982
sg126
(lp983
sg128
g79
sg129
Nsg130
(lp984
I6
aI9
asg132
Nsg133
g982
sg134
(lp985
sg136
g60
sg137
Nsg138
Nsg139
Nsbag2
(g3
g4
Ntp986
Rp987
(dp988
g8
g11
sg117
Nsg118
(dp989
sg120
Nsg26
g29
sg121
(lp990
I6
aI10
asg123
Nsg124
VAmos 6:10
p991
sg126
(lp992
sg128
g79
sg129
Nsg130
(lp993
I6
aI10
asg132
Nsg133
g991
sg134
(lp994
sg136
g60
sg137
Nsg138
Nsg139
Nsbag2
(g3
g4
Ntp995
Rp996
(dp997
g8
g11
sg117
Nsg118
(dp998
sg120
Nsg26
g29
sg121
(lp999
I6
aI11
asg123
Nsg124
VAmos 6:11
p1000
sg126
(lp1001
sg128
g79
sg129
Nsg130
(lp1002
I6
aI11
asg132
Nsg133
g1000
sg134
(lp1003
sg136
g60
sg137
Nsg138
Nsg139
Nsbag2
(g3
g4
Ntp1004
Rp1005
(dp1006
g8
g11
sg117
Nsg118
(dp1007
sg120
Nsg26
g29
sg121
(lp1008
I6
aI12
asg123
Nsg124
VAmos 6:12
p1009
sg126
(lp1010
sg128
g79
sg129
Nsg130
(lp1011
I6
aI12
asg132
Nsg133
g1009
sg134
(lp1012
sg136
g60
sg137
Nsg138
Nsg139
Nsbag2
(g3
g4
Ntp1013
Rp1014
(dp1015
g8
g11
sg117
Nsg118
(dp1016
sg120
Nsg26
g29
sg121
(lp1017
I6
aI13
asg123
Nsg124
VAmos 6:13
p1018
sg126
(lp1019
sg128
g79
sg129
Nsg130
(lp1020
I6
aI13
asg132
Nsg133
g1018
sg134
(lp1021
sg136
g60
sg137
Nsg138
Nsg139
Nsbag2
(g3
g4
Ntp1022
Rp1023
(dp1024
g8
g11
sg117
Nsg118
(dp1025
sg120
Nsg26
g29
sg121
(lp1026
I6
aI14
asg123
Nsg124
VAmos 6:14
p1027
sg126
(lp1028
sg128
g79
sg129
Nsg130
(lp1029
I6
aI14
asg132
Nsg133
g1027
sg134
(lp1030
sg136
g60
sg137
Nsg138
Nsg139
Nsbag2
(g3
g4
Ntp1031
Rp1032
(dp1033
g8
g11
sg117
Nsg118
(dp1034
sg120
Nsg26
g29
sg121
(lp1035
I7
aI1
asg123
Nsg124
VAmos 7:1
p1036
sg126
(lp1037
sg128
g79
sg129
Nsg130
(lp1038
I7
aI1
asg132
Nsg133
g1036
sg134
(lp1039
sg136
g60
sg137
Nsg138
Nsg139
Nsbag2
(g3
g4
Ntp1040
Rp1041
(dp1042
g8
g11
sg117
Nsg118
(dp1043
sg120
Nsg26
g29
sg121
(lp1044
I7
aI2
asg123
Nsg124
VAmos 7:2
p1045
sg126
(lp1046
sg128
g79
sg129
Nsg130
(lp1047
I7
aI2
asg132
Nsg133
g1045
sg134
(lp1048
sg136
g60
sg137
Nsg138
Nsg139
Nsbag2
(g3
g4
Ntp1049
Rp1050
(dp1051
g8
g11
sg117
Nsg118
(dp1052
sg120
Nsg26
g29
sg121
(lp1053
I7
aI3
asg123
Nsg124
VAmos 7:3
p1054
sg126
(lp1055
sg128
g79
sg129
Nsg130
(lp1056
I7
aI3
asg132
Nsg133
g1054
sg134
(lp1057
sg136
g60
sg137
Nsg138
Nsg139
Nsbag2
(g3
g4
Ntp1058
Rp1059
(dp1060
g8
g11
sg117
Nsg118
(dp1061
sg120
Nsg26
g29
sg121
(lp1062
I7
aI4
asg123
Nsg124
VAmos 7:4
p1063
sg126
(lp1064
sg128
g79
sg129
Nsg130
(lp1065
I7
aI4
asg132
Nsg133
g1063
sg134
(lp1066
sg136
g60
sg137
Nsg138
Nsg139
Nsbag2
(g3
g4
Ntp1067
Rp1068
(dp1069
g8
g11
sg117
Nsg118
(dp1070
sg120
Nsg26
g29
sg121
(lp1071
I7
aI5
asg123
Nsg124
VAmos 7:5
p1072
sg126
(lp1073
sg128
g79
sg129
Nsg130
(lp1074
I7
aI5
asg132
Nsg133
g1072
sg134
(lp1075
sg136
g60
sg137
Nsg138
Nsg139
Nsbag2
(g3
g4
Ntp1076
Rp1077
(dp1078
g8
g11
sg117
Nsg118
(dp1079
sg120
Nsg26
g29
sg121
(lp1080
I7
aI6
asg123
Nsg124
VAmos 7:6
p1081
sg126
(lp1082
sg128
g79
sg129
Nsg130
(lp1083
I7
aI6
asg132
Nsg133
g1081
sg134
(lp1084
sg136
g60
sg137
Nsg138
Nsg139
Nsbag2
(g3
g4
Ntp1085
Rp1086
(dp1087
g8
g11
sg117
Nsg118
(dp1088
sg120
Nsg26
g29
sg121
(lp1089
I7
aI7
asg123
Nsg124
VAmos 7:7
p1090
sg126
(lp1091
sg128
g79
sg129
Nsg130
(lp1092
I7
aI7
asg132
Nsg133
g1090
sg134
(lp1093
sg136
g60
sg137
Nsg138
Nsg139
Nsbag2
(g3
g4
Ntp1094
Rp1095
(dp1096
g8
g11
sg117
Nsg118
(dp1097
sg120
Nsg26
g29
sg121
(lp1098
I7
aI8
asg123
Nsg124
VAmos 7:8
p1099
sg126
(lp1100
sg128
g79
sg129
Nsg130
(lp1101
I7
aI8
asg132
Nsg133
g1099
sg134
(lp1102
sg136
g60
sg137
Nsg138
Nsg139
Nsbag2
(g3
g4
Ntp1103
Rp1104
(dp1105
g8
g11
sg117
Nsg118
(dp1106
sg120
Nsg26
g29
sg121
(lp1107
I7
aI9
asg123
Nsg124
VAmos 7:9
p1108
sg126
(lp1109
sg128
g79
sg129
Nsg130
(lp1110
I7
aI9
asg132
Nsg133
g1108
sg134
(lp1111
sg136
g60
sg137
Nsg138
Nsg139
Nsbag2
(g3
g4
Ntp1112
Rp1113
(dp1114
g8
g11
sg117
Nsg118
(dp1115
sg120
Nsg26
g29
sg121
(lp1116
I7
aI10
asg123
Nsg124
VAmos 7:10
p1117
sg126
(lp1118
sg128
g79
sg129
Nsg130
(lp1119
I7
aI10
asg132
Nsg133
g1117
sg134
(lp1120
sg136
g60
sg137
Nsg138
Nsg139
Nsbag2
(g3
g4
Ntp1121
Rp1122
(dp1123
g8
g11
sg117
Nsg118
(dp1124
sg120
Nsg26
g29
sg121
(lp1125
I7
aI11
asg123
Nsg124
VAmos 7:11
p1126
sg126
(lp1127
sg128
g79
sg129
Nsg130
(lp1128
I7
aI11
asg132
Nsg133
g1126
sg134
(lp1129
sg136
g60
sg137
Nsg138
Nsg139
Nsbag2
(g3
g4
Ntp1130
Rp1131
(dp1132
g8
g11
sg117
Nsg118
(dp1133
sg120
Nsg26
g29
sg121
(lp1134
I7
aI12
asg123
Nsg124
VAmos 7:12
p1135
sg126
(lp1136
sg128
g79
sg129
Nsg130
(lp1137
I7
aI12
asg132
Nsg133
g1135
sg134
(lp1138
sg136
g60
sg137
Nsg138
Nsg139
Nsbag2
(g3
g4
Ntp1139
Rp1140
(dp1141
g8
g11
sg117
Nsg118
(dp1142
sg120
Nsg26
g29
sg121
(lp1143
I7
aI13
asg123
Nsg124
VAmos 7:13
p1144
sg126
(lp1145
sg128
g79
sg129
Nsg130
(lp1146
I7
aI13
asg132
Nsg133
g1144
sg134
(lp1147
sg136
g60
sg137
Nsg138
Nsg139
Nsbag2
(g3
g4
Ntp1148
Rp1149
(dp1150
g8
g11
sg117
Nsg118
(dp1151
sg120
Nsg26
g29
sg121
(lp1152
I7
aI14
asg123
Nsg124
VAmos 7:14
p1153
sg126
(lp1154
sg128
g79
sg129
Nsg130
(lp1155
I7
aI14
asg132
Nsg133
g1153
sg134
(lp1156
sg136
g60
sg137
Nsg138
Nsg139
Nsbag2
(g3
g4
Ntp1157
Rp1158
(dp1159
g8
g11
sg117
Nsg118
(dp1160
sg120
Nsg26
g29
sg121
(lp1161
I7
aI15
asg123
Nsg124
VAmos 7:15
p1162
sg126
(lp1163
sg128
g79
sg129
Nsg130
(lp1164
I7
aI15
asg132
Nsg133
g1162
sg134
(lp1165
sg136
g60
sg137
Nsg138
Nsg139
Nsbag2
(g3
g4
Ntp1166
Rp1167
(dp1168
g8
g11
sg117
Nsg118
(dp1169
sg120
Nsg26
g29
sg121
(lp1170
I7
aI16
asg123
Nsg124
VAmos 7:16
p1171
sg126
(lp1172
sg128
g79
sg129
Nsg130
(lp1173
I7
aI16
asg132
Nsg133
g1171
sg134
(lp1174
sg136
g60
sg137
Nsg138
Nsg139
Nsbag2
(g3
g4
Ntp1175
Rp1176
(dp1177
g8
g11
sg117
Nsg118
(dp1178
sg120
Nsg26
g29
sg121
(lp1179
I7
aI17
asg123
Nsg124
VAmos 7:17
p1180
sg126
(lp1181
sg128
g79
sg129
Nsg130
(lp1182
I7
aI17
asg132
Nsg133
g1180
sg134
(lp1183
sg136
g60
sg137
Nsg138
Nsg139
Nsbag2
(g3
g4
Ntp1184
Rp1185
(dp1186
g8
g11
sg117
Nsg118
(dp1187
sg120
Nsg26
g29
sg121
(lp1188
I8
aI1
asg123
Nsg124
VAmos 8:1
p1189
sg126
(lp1190
sg128
g79
sg129
Nsg130
(lp1191
I8
aI1
asg132
Nsg133
g1189
sg134
(lp1192
sg136
g60
sg137
Nsg138
Nsg139
Nsbag2
(g3
g4
Ntp1193
Rp1194
(dp1195
g8
g11
sg117
Nsg118
(dp1196
sg120
Nsg26
g29
sg121
(lp1197
I8
aI2
asg123
Nsg124
VAmos 8:2
p1198
sg126
(lp1199
sg128
g79
sg129
Nsg130
(lp1200
I8
aI2
asg132
Nsg133
g1198
sg134
(lp1201
sg136
g60
sg137
Nsg138
Nsg139
Nsbag2
(g3
g4
Ntp1202
Rp1203
(dp1204
g8
g11
sg117
Nsg118
(dp1205
sg120
Nsg26
g29
sg121
(lp1206
I8
aI3
asg123
Nsg124
VAmos 8:3
p1207
sg126
(lp1208
sg128
g79
sg129
Nsg130
(lp1209
I8
aI3
asg132
Nsg133
g1207
sg134
(lp1210
sg136
g60
sg137
Nsg138
Nsg139
Nsbag2
(g3
g4
Ntp1211
Rp1212
(dp1213
g8
g11
sg117
Nsg118
(dp1214
sg120
Nsg26
g29
sg121
(lp1215
I8
aI4
asg123
Nsg124
VAmos 8:4
p1216
sg126
(lp1217
sg128
g79
sg129
Nsg130
(lp1218
I8
aI4
asg132
Nsg133
g1216
sg134
(lp1219
sg136
g60
sg137
Nsg138
Nsg139
Nsbag2
(g3
g4
Ntp1220
Rp1221
(dp1222
g8
g11
sg117
Nsg118
(dp1223
sg120
Nsg26
g29
sg121
(lp1224
I8
aI5
asg123
Nsg124
VAmos 8:5
p1225
sg126
(lp1226
sg128
g79
sg129
Nsg130
(lp1227
I8
aI5
asg132
Nsg133
g1225
sg134
(lp1228
sg136
g60
sg137
Nsg138
Nsg139
Nsbag2
(g3
g4
Ntp1229
Rp1230
(dp1231
g8
g11
sg117
Nsg118
(dp1232
sg120
Nsg26
g29
sg121
(lp1233
I8
aI6
asg123
Nsg124
VAmos 8:6
p1234
sg126
(lp1235
sg128
g79
sg129
Nsg130
(lp1236
I8
aI6
asg132
Nsg133
g1234
sg134
(lp1237
sg136
g60
sg137
Nsg138
Nsg139
Nsbag2
(g3
g4
Ntp1238
Rp1239
(dp1240
g8
g11
sg117
Nsg118
(dp1241
sg120
Nsg26
g29
sg121
(lp1242
I8
aI7
asg123
Nsg124
VAmos 8:7
p1243
sg126
(lp1244
sg128
g79
sg129
Nsg130
(lp1245
I8
aI7
asg132
Nsg133
g1243
sg134
(lp1246
sg136
g60
sg137
Nsg138
Nsg139
Nsbag2
(g3
g4
Ntp1247
Rp1248
(dp1249
g8
g11
sg117
Nsg118
(dp1250
sg120
Nsg26
g29
sg121
(lp1251
I8
aI8
asg123
Nsg124
VAmos 8:8
p1252
sg126
(lp1253
sg128
g79
sg129
Nsg130
(lp1254
I8
aI8
asg132
Nsg133
g1252
sg134
(lp1255
sg136
g60
sg137
Nsg138
Nsg139
Nsbag2
(g3
g4
Ntp1256
Rp1257
(dp1258
g8
g11
sg117
Nsg118
(dp1259
sg120
Nsg26
g29
sg121
(lp1260
I8
aI9
asg123
Nsg124
VAmos 8:9
p1261
sg126
(lp1262
sg128
g79
sg129
Nsg130
(lp1263
I8
aI9
asg132
Nsg133
g1261
sg134
(lp1264
sg136
g60
sg137
Nsg138
Nsg139
Nsbag2
(g3
g4
Ntp1265
Rp1266
(dp1267
g8
g11
sg117
Nsg118
(dp1268
sg120
Nsg26
g29
sg121
(lp1269
I8
aI10
asg123
Nsg124
VAmos 8:10
p1270
sg126
(lp1271
sg128
g79
sg129
Nsg130
(lp1272
I8
aI10
asg132
Nsg133
g1270
sg134
(lp1273
sg136
g60
sg137
Nsg138
Nsg139
Nsbag2
(g3
g4
Ntp1274
Rp1275
(dp1276
g8
g11
sg117
Nsg118
(dp1277
sg120
Nsg26
g29
sg121
(lp1278
I8
aI11
asg123
Nsg124
VAmos 8:11
p1279
sg126
(lp1280
sg128
g79
sg129
Nsg130
(lp1281
I8
aI11
asg132
Nsg133
g1279
sg134
(lp1282
sg136
g60
sg137
Nsg138
Nsg139
Nsbag2
(g3
g4
Ntp1283
Rp1284
(dp1285
g8
g11
sg117
Nsg118
(dp1286
sg120
Nsg26
g29
sg121
(lp1287
I8
aI12
asg123
Nsg124
VAmos 8:12
p1288
sg126
(lp1289
sg128
g79
sg129
Nsg130
(lp1290
I8
aI12
asg132
Nsg133
g1288
sg134
(lp1291
sg136
g60
sg137
Nsg138
Nsg139
Nsbag2
(g3
g4
Ntp1292
Rp1293
(dp1294
g8
g11
sg117
Nsg118
(dp1295
sg120
Nsg26
g29
sg121
(lp1296
I8
aI13
asg123
Nsg124
VAmos 8:13
p1297
sg126
(lp1298
sg128
g79
sg129
Nsg130
(lp1299
I8
aI13
asg132
Nsg133
g1297
sg134
(lp1300
sg136
g60
sg137
Nsg138
Nsg139
Nsbag2
(g3
g4
Ntp1301
Rp1302
(dp1303
g8
g11
sg117
Nsg118
(dp1304
sg120
Nsg26
g29
sg121
(lp1305
I8
aI14
asg123
Nsg124
VAmos 8:14
p1306
sg126
(lp1307
sg128
g79
sg129
Nsg130
(lp1308
I8
aI14
asg132
Nsg133
g1306
sg134
(lp1309
sg136
g60
sg137
Nsg138
Nsg139
Nsbag2
(g3
g4
Ntp1310
Rp1311
(dp1312
g8
g11
sg117
Nsg118
(dp1313
sg120
Nsg26
g29
sg121
(lp1314
I9
aI1
asg123
Nsg124
VAmos 9:1
p1315
sg126
(lp1316
sg128
g79
sg129
Nsg130
(lp1317
I9
aI1
asg132
Nsg133
g1315
sg134
(lp1318
sg136
g60
sg137
Nsg138
Nsg139
Nsbag2
(g3
g4
Ntp1319
Rp1320
(dp1321
g8
g11
sg117
Nsg118
(dp1322
sg120
Nsg26
g29
sg121
(lp1323
I9
aI2
asg123
Nsg124
VAmos 9:2
p1324
sg126
(lp1325
sg128
g79
sg129
Nsg130
(lp1326
I9
aI2
asg132
Nsg133
g1324
sg134
(lp1327
sg136
g60
sg137
Nsg138
Nsg139
Nsbag2
(g3
g4
Ntp1328
Rp1329
(dp1330
g8
g11
sg117
Nsg118
(dp1331
sg120
Nsg26
g29
sg121
(lp1332
I9
aI3
asg123
Nsg124
VAmos 9:3
p1333
sg126
(lp1334
sg128
g79
sg129
Nsg130
(lp1335
I9
aI3
asg132
Nsg133
g1333
sg134
(lp1336
sg136
g60
sg137
Nsg138
Nsg139
Nsbag2
(g3
g4
Ntp1337
Rp1338
(dp1339
g8
g11
sg117
Nsg118
(dp1340
sg120
Nsg26
g29
sg121
(lp1341
I9
aI4
asg123
Nsg124
VAmos 9:4
p1342
sg126
(lp1343
sg128
g79
sg129
Nsg130
(lp1344
I9
aI4
asg132
Nsg133
g1342
sg134
(lp1345
sg136
g60
sg137
Nsg138
Nsg139
Nsbag2
(g3
g4
Ntp1346
Rp1347
(dp1348
g8
g11
sg117
Nsg118
(dp1349
sg120
Nsg26
g29
sg121
(lp1350
I9
aI5
asg123
Nsg124
VAmos 9:5
p1351
sg126
(lp1352
sg128
g79
sg129
Nsg130
(lp1353
I9
aI5
asg132
Nsg133
g1351
sg134
(lp1354
sg136
g60
sg137
Nsg138
Nsg139
Nsbag2
(g3
g4
Ntp1355
Rp1356
(dp1357
g8
g11
sg117
Nsg118
(dp1358
sg120
Nsg26
g29
sg121
(lp1359
I9
aI6
asg123
Nsg124
VAmos 9:6
p1360
sg126
(lp1361
sg128
g79
sg129
Nsg130
(lp1362
I9
aI6
asg132
Nsg133
g1360
sg134
(lp1363
sg136
g60
sg137
Nsg138
Nsg139
Nsbag2
(g3
g4
Ntp1364
Rp1365
(dp1366
g8
g11
sg117
Nsg118
(dp1367
sg120
Nsg26
g29
sg121
(lp1368
I9
aI7
asg123
Nsg124
VAmos 9:7
p1369
sg126
(lp1370
sg128
g79
sg129
Nsg130
(lp1371
I9
aI7
asg132
Nsg133
g1369
sg134
(lp1372
sg136
g60
sg137
Nsg138
Nsg139
Nsbag2
(g3
g4
Ntp1373
Rp1374
(dp1375
g8
g11
sg117
Nsg118
(dp1376
sg120
Nsg26
g29
sg121
(lp1377
I9
aI8
asg123
Nsg124
VAmos 9:8
p1378
sg126
(lp1379
sg128
g79
sg129
Nsg130
(lp1380
I9
aI8
asg132
Nsg133
g1378
sg134
(lp1381
sg136
g60
sg137
Nsg138
Nsg139
Nsbag2
(g3
g4
Ntp1382
Rp1383
(dp1384
g8
g11
sg117
Nsg118
(dp1385
sg120
Nsg26
g29
sg121
(lp1386
I9
aI9
asg123
Nsg124
VAmos 9:9
p1387
sg126
(lp1388
sg128
g79
sg129
Nsg130
(lp1389
I9
aI9
asg132
Nsg133
g1387
sg134
(lp1390
sg136
g60
sg137
Nsg138
Nsg139
Nsbag2
(g3
g4
Ntp1391
Rp1392
(dp1393
g8
g11
sg117
Nsg118
(dp1394
sg120
Nsg26
g29
sg121
(lp1395
I9
aI10
asg123
Nsg124
VAmos 9:10
p1396
sg126
(lp1397
sg128
g79
sg129
Nsg130
(lp1398
I9
aI10
asg132
Nsg133
g1396
sg134
(lp1399
sg136
g60
sg137
Nsg138
Nsg139
Nsbag2
(g3
g4
Ntp1400
Rp1401
(dp1402
g8
g11
sg117
Nsg118
(dp1403
sg120
Nsg26
g29
sg121
(lp1404
I9
aI11
asg123
Nsg124
VAmos 9:11
p1405
sg126
(lp1406
sg128
g79
sg129
Nsg130
(lp1407
I9
aI11
asg132
Nsg133
g1405
sg134
(lp1408
sg136
g60
sg137
Nsg138
Nsg139
Nsbag2
(g3
g4
Ntp1409
Rp1410
(dp1411
g8
g11
sg117
Nsg118
(dp1412
sg120
Nsg26
g29
sg121
(lp1413
I9
aI12
asg123
Nsg124
VAmos 9:12
p1414
sg126
(lp1415
sg128
g79
sg129
Nsg130
(lp1416
I9
aI12
asg132
Nsg133
g1414
sg134
(lp1417
sg136
g60
sg137
Nsg138
Nsg139
Nsbag2
(g3
g4
Ntp1418
Rp1419
(dp1420
g8
g11
sg117
Nsg118
(dp1421
sg120
Nsg26
g29
sg121
(lp1422
I9
aI13
asg123
Nsg124
VAmos 9:13
p1423
sg126
(lp1424
sg128
g79
sg129
Nsg130
(lp1425
I9
aI13
asg132
Nsg133
g1423
sg134
(lp1426
sg136
g60
sg137
Nsg138
Nsg139
Nsbag2
(g3
g4
Ntp1427
Rp1428
(dp1429
g8
g11
sg117
Nsg118
(dp1430
sg120
Nsg26
g29
sg121
(lp1431
I9
aI14
asg123
Nsg124
VAmos 9:14
p1432
sg126
(lp1433
sg128
g79
sg129
Nsg130
(lp1434
I9
aI14
asg132
Nsg133
g1432
sg134
(lp1435
sg136
g60
sg137
Nsg138
Nsg139
Nsbag2
(g3
g4
Ntp1436
Rp1437
(dp1438
g8
g11
sg117
Nsg118
(dp1439
sg120
Nsg26
g29
sg121
(lp1440
I9
aI15
asg123
Nsg124
VAmos 9:15
p1441
sg126
(lp1442
sg128
g79
sg129
Nsg130
(lp1443
I9
aI15
asg132
Nsg133
g1441
sg134
(lp1444
sg136
g60
sg137
Nsg138
Nsg139
Nsbatp1445
.