((lp0
I0
aI23
aI55
aI71
aI100
aI118
aI152
aI186
aI189
aI204
aI240
aI281
aI302
aI328
aI343
aI389
aI413
aI443
aI461
aI481
aI516
aI528
aI554
aI563
aI573
aI598
aI602
aI611
aI642
aI687
aI719
aI757
aI778
aI806
aI815
aI848
aI854
aI906
aI953
aI986
aI1025
aI1046
aI1055
aI1073
aI1109
aI1124
aI1135
aI1159
aI1179
aI1215
aI1240
aI1260
aI1278
aI1299
aI1316
aI1337
aI1349
aI1382
aI1415
aI1444
aI1470
aI1509
aI1539
aI1551
aI1574
aI1592
aI1612
aI1642
aI1668
aI1693
aI1749
aI1784
aI1838
aI1875
aI1900
aI1910
aI1930
aI1956
aI1990
aI2030
aI2057
aI2085
aI2094
aI2129
aI2154
aI2171
aI2201
aI2224
aI2233
aI2255
aI2266
aI2283
aI2304
aI2353
aI2378
aI2412
aI2438
aI2465
aI2474
aI2519
aI2542
aI2550
aI2588
aI2612
aI2645
aI2678
aI2709
aI2734
aI2755
aI2791
aI2816
aI2843
aI2869
aI2906
aI2945
aI2981
aI2995
aI2999
aI3023
aI3047
aI3070
aI3080
aI3104
aI3123
aI3129
aI3155
aI3180
aI3215
aI3231
aI3250
aI3266
aI3284
aI3312
aI3323
aI3348
aI3360
aI3378
aI3397
aI3406
aI3429
aI3453
aI3477
aI3505
aI3524
aI3548
aI3573
aI3580
aI3597
aI3604
aI3611
aI3648
aI3659
aI3688
aI3709
aI3719
aI3751
aI3782
aI3794
aI3831
aI3844
aI3861
aI3886
aI3894
aI3914
aI3957
aI3974
aI3987
aI4019
aI4041
aI4060
aI4084
aI4098
aI4116
aI4161
aI4206
aI4226
aI4233
aI4252
aI4268
aI4294
aI4324
aI4338
aI4350
aI4364
aI4389
aI4402
aI4412
aI4420
aI4441
aI4463
aI4488
aI4506
aI4531
aI4536
aI4550
aI4559
aI4583
aI4591
aI4606
aI4614
aI4627
aI4652
aI4661
aI4666
aI4675
aI4691
aI4707
aI4725
aI4748
aI4767
aI4789
aI4809
aI4831
aI4864
aI4904
aI4914
aI4946
aI4950
aI4958
aI4963
aI4972
aI4978
aI4992
aI5004
aI5012
aI5032
aI5048
aI5056
aI5074
aI5092
aI5131
aI5177
aI5199
aI5241
aI5265
aI5294
aI5314
aI5342
aI5359
aI5373
aI5388
aI5397
aI5407
aI5435
aI5457
aI5472
aI5499
aI5529
aI5553
aI5581
aI5599
aI5616
aI5633
aI5640
aI5648
aI5652
aI5660
aI5678
aI5702
aI5728
aI5737
aI5754
aI5765
aI5785
aI5807
aI5817
aI5837
aI5851
aI5873
aI5896
aI5906
aI5942
aI5948
aI5960
aI5988
aI6005
aI6032
aI6062
aI6079
aI6086
aI6112
aI6125
aI6141
aI6147
aI6186
aI6199
aI6208
aI6226
aI6231
aI6235
aI6243
aI6246
aI6260
aI6264
aI6283
aI6312
aI6327
aI6346
aI6371
aI6387
aI6400
aI6410
aI6424
aI6439
aI6451
aI6489
aI6494
aI6503
aI6524
aI6543
aI6558
aI6571
aI6606
aI6623
aI6654
aI6687
aI6697
aI6717
aI6768
aI6801
aI6818
aI6850
aI6871
aI6881
aI6909
aI6925
aI6972
aI7029
aI7060
aI7114
aI7137
aI7157
aI7210
aI7254
aI7326
aI7357
aI7369
aI7433
aI7466
aI7489
aI7543
aI7573
aI7600
aI7657
aI7714
aI7754
aI7793
aI7829
aI7851
aI7918
aI7955
aI8031
aI8059
aI8095
aI8124
aI8167
aI8192
aI8231
aI8247
aI8277
aI8307
aI8310
aI8332
aI8354
aI8413
aI8463
aI8520
aI8572
aI8611
aI8645
aI8666
aI8703
aI8719
aI8752
aI8788
aI8837
aI8853
aI8880
aI8935
aI8969
aI9015
aI9058
aI9081
aI9126
aI9152
aI9211
aI9258
aI9293
aI9308
aI9352
aI9384
aI9451
aI9472
aI9505
aI9516
aI9562
aI9615
aI9682
aI9728
aI9776
aI9833
aI9864
aI9894
aI9919
aI9939
aI9954
aI10009
aI10055
aI10096
aI10123
aI10155
aI10188
aI10230
aI10246
aI10315
aI10361
aI10400
aI10423
aI10475
aI10518
aI10559
aI10616
aI10656
aI10674
aI10686
aI10693
aI10740
aI10804
aI10858
aI10887
aI10908
aI10934
aI10959
aI10971
aI10978
aI10987
aI11014
aI11046
aI11054
aI11068
aI11107
aI11130
aI11155
aI11197
aI11220
aI11258
aI11307
aI11347
aI11377
aI11432
aI11478
aI11485
aI11516
aI11543
aI11574
aI11586
aI11618
aI11627
aI11664
aI11675
aI11703
aI11723
aI11727
aI11740
aI11758
aI11779
aI11828
aI11847
aI11861
aI11878
aI11888
aI11906
aI11933
aI11948
aI11988
aI12013
aI12046
aI12053
aI12073
aI12075
aI12080
aI12110
aI12136
aI12150
aI12161
aI12196
aI12228
aI12258
aI12276
aI12287
aI12323
aI12332
aI12356
aI12400
aI12410
aI12459
aI12519
aI12575
aI12604
aI12637
aI12666
aI12693
aI12707
aI12741
aI12760
aI12782
aI12789
aI12820
aI12826
aI12835
aI12860
aI12866
aI12908
aI12941
aI12973
aI12992
aI12998
aI13016
aI13031
aI13050
aI13061
aI13075
aI13081
aI13094
aI13118
aI13126
aI13142
aI13147
aI13161
aI13201
aI13217
aI13234
aI13247
aI13260
aI13290
aI13293
aI13307
aI13321
aI13333
aI13350
aI13361
aI13372
aI13376
aI13408
aI13432
aI13445
aI13470
aI13487
aI13505
aI13527
aI13536
aI13564
aI13584
aI13587
aI13635
aI13665
aI13679
aI13693
aI13714
aI13723
aI13749
aI13763
aI13773
aI13781
aI13794
aI13798
aI13818
aI13833
aI13848
aI13865
aI13897
aI13906
aI13917
aI13944
aI13984
aI13997
aI14026
aI14064
aI14092
aI14097
aI14126
aI14132
aI14162
aI14172
aI14193
aI14212
aI14246
aI14269
aI14279
aI14286
aI14295
aI14302
aI14314
aI14348
aI14356
aI14358
aI14378
aI14410
aI14412
aI14419
aI14444
aI14499
aI14503
aI14531
aI14543
aI14566
aI14578
aI14604
aI14621
aI14643
aI14653
aI14658
aI14674
aI14698
aI14726
aI14733
aI14761
aI14790
aI14815
aI14831
aI14894
aI14929
aI14944
aI14954
aI14966
aI14985
aI15008
aI15013
aI15052
aI15086
aI15092
aI15110
aI15135
aI15135
aI15138
aI15159
aI15177
aI15183
aI15203
aI15221
aI15245
aI15261
aI15282
aI15285
aI15300
aI15309
aI15342
aI15358
aI15393
aI15419
aI15430
aI15450
aI15469
aI15477
aI15493
aI15515
aI15535
aI15564
aI15572
aI15578
aI15604
aI15622
aI15642
aI15651
aI15665
aI15683
aI15707
aI15711
aI15721
aI15727
aI15735
aI15757
aI15770
aI15787
aI15796
aI15811
aI15825
aI15856
aI15860
aI15887
aI15907
aI15916
aI15930
aI15939
aI15953
aI15971
aI15980
aI15994
aI16000
aI16020
aI16048
aI16083
aI16093
aI16109
aI16123
aI16140
aI16172
aI16187
aI16191
aI16236
aI16253
aI16287
aI16310
aI16343
aI16367
aI16395
aI16413
aI16436
aI16452
aI16467
aI16503
aI16520
aI16548
aI16574
aI16581
aI16595
aI16598
aI16632
aI16654
aI16673
aI16702
aI16718
aI16762
aI16785
aI16819
aI16847
aI16871
aI16895
aI16917
aI16940
aI16956
aI16963
aI16967
aI17005
aI17052
a(lp1
ccopy_reg
_reconstructor
p2
(csefaria.model.text
Ref
p3
c__builtin__
object
p4
Ntp5
Rp6
(dp7
S'index_node'
p8
g2
(csefaria.model.schema
JaggedArrayNode
p9
g4
Ntp10
Rp11
(dp12
S'_address'
p13
(lp14
VChagigah
p15
asS'_full_titles'
p16
(dp17
sVnodeType
p18
VJaggedArrayNode
p19
sS'parent'
p20
NsVaddressTypes
p21
(lp22
VTalmud
p23
aVInteger
p24
asS'default'
p25
I00
sS'index'
p26
g2
(csefaria.model.text
Index
p27
g4
Ntp28
Rp29
(dp30
S'schema'
p31
(dp32
g18
g19
sg21
g22
sVlengths
p33
(lp34
I51
aI2482
asVdepth
p35
I2
sVtitles
p36
(lp37
(dp38
Vlang
p39
Ven
p40
sVtext
p41
VTalmud Chagigah
p42
sa(dp43
Vlang
p44
Ven
p45
sVtext
p46
VChag.
p47
sa(dp48
Vlang
p49
Ven
p50
sVtext
p51
VChagiga
p52
sa(dp53
Vlang
p54
Ven
p55
sVtext
p56
VMasekhet Chagigah
p57
sa(dp58
Vlang
p59
Ven
p60
sVtext
p61
VTractate Chagigah
p62
sa(dp63
Vlang
p64
Vhe
p65
sVtext
p66
V\u05d7\u05d2\u05d9\u05d2\u05d4
p67
sVprimary
p68
I01
sa(dp69
Vlang
p70
Ven
p71
sVtext
p72
VChagigah
p73
sVprimary
p74
I01
sasVkey
p75
g15
sVcheckFirst
p76
(dp77
Ven
p78
VMishnah Chagigah
p79
sVhe
p80
V\u05de\u05e9\u05e0\u05d4 \u05d7\u05d2\u05d9\u05d2\u05d4
p81
ssVsectionNames
p82
(lp83
VDaf
p84
aVLine
p85
assS'_id'
p86
g2
(cbson.objectid
ObjectId
p87
g4
Ntp88
Rp89
S'NJ\xb8\xca\xed\xba\xb4X3\x00\x00q'
p90
bsS'pkeys_orig_values'
p91
(dp92
S'title'
p93
VChagigah
p94
ssS'alt_structs'
p95
(dp96
VChapters
p97
(dp98
Vnodes
p99
(lp100
(dp101
VnodeType
p102
VArrayMapNode
p103
sVdepth
p104
I0
sVtitles
p105
(lp106
(dp107
Vlang
p108
Ven
p109
sVtext
p110
VChapter 1
p111
sVprimary
p112
I01
sa(dp113
Vlang
p114
Vhe
p115
sVtext
p116
V\u05d4\u05db\u05dc \u05d7\u05d9\u05d9\u05d1\u05d9\u05df
p117
sVprimary
p118
I01
sasVwholeRef
p119
VChagigah 2a:1-11b:5
p120
sVincludeSections
p121
I01
sa(dp122
VnodeType
p123
VArrayMapNode
p124
sVdepth
p125
I0
sVtitles
p126
(lp127
(dp128
Vlang
p129
Ven
p130
sVtext
p131
VChapter 2
p132
sVprimary
p133
I01
sa(dp134
Vlang
p135
Vhe
p136
sVtext
p137
V\u05d0\u05d9\u05df \u05d3\u05d5\u05e8\u05e9\u05d9\u05df
p138
sVprimary
p139
I01
sasVwholeRef
p140
VChagigah 11b:6-20b:6
p141
sVincludeSections
p142
I01
sa(dp143
VnodeType
p144
VArrayMapNode
p145
sVdepth
p146
I0
sVtitles
p147
(lp148
(dp149
Vlang
p150
Ven
p151
sVtext
p152
VChapter 3
p153
sVprimary
p154
I01
sa(dp155
Vlang
p156
Vhe
p157
sVtext
p158
V\u05d7\u05d5\u05de\u05e8 \u05d1\u05e7\u05d5\u05d3\u05e9
p159
sVprimary
p160
I01
sasVwholeRef
p161
VChagigah 20b:7-27a:9
p162
sVincludeSections
p163
I01
sasssS'pubDate'
p164
V1523
p165
sS'compDate'
p166
V500
p167
sS'pubPlace'
p168
VVenice
p169
sS'compPlace'
p170
VTalmudic Babylon
p171
sS'enDesc'
p172
VThe Babylonian Talmud ("instruction, learning") is a central text of Rabbinic Judaism. Babylon refers to the geographical location of its composition and not to the empire. The Talmud has two components: the Mishnah (c. 200 CE) and the Gemara (c. 500 CE). The latter is a discussion of the Mishnah. The entire Talmud consists of 63 tractates, further subdivided into chapters and folios. Each folio is double sided and starts on page 2a. It is written in Tannaitic Hebrew and Aramaic, and contains the teachings and opinions of rabbis on a variety of subjects, including Halakha (law), Jewish ethics, philosophy, customs, history, lore and many other topics. The Talmud is the basis for all codes of Jewish law, and is widely quoted in rabbinic literature. It is also traditionally referred to as Shas, a Hebrew abbreviation of shisha sedarim, (six orders). Hagggiah (Festival Offering) belongs to the second order, Moed (Festivals) and the Three Pilgrimage Festivals (Passover, Shavuot, Sukkot) and the pilgrimage offering that men were supposed to bring in Jerusalem. It has three chapters.
p173
sS'order'
p174
(lp175
I12
aI11
asS'era'
p176
VA
p177
sS'struct_objs'
p178
(dp179
g97
g2
(csefaria.model.schema
TitledTreeNode
p180
g4
Ntp181
Rp182
(dp183
g16
(dp184
sg20
Nsg25
I00
sS'_primary_title'
p185
(dp186
sS'title_group'
p187
g2
(csefaria.model.schema
TitleGroup
p188
g4
Ntp189
Rp190
(dp191
g185
(dp192
S'en'
p193
g73
ssS'titles'
p194
g37
sbsS'sharedTitle'
p195
NsS'_full_title'
p196
(dp197
sS'_leaf_nodes'
p198
(lp199
sS'children'
p200
(lp201
g2
(csefaria.model.schema
ArrayMapNode
p202
g4
Ntp203
Rp204
(dp205
g16
(dp206
sg102
g103
sg20
g182
sg25
I00
sg185
(dp207
sg187
g2
(g188
g4
Ntp208
Rp209
(dp210
g185
(dp211
g193
g111
ssg194
g106
sbsS'_addressTypes'
p212
(lp213
sg195
Nsg104
I0
sg196
(dp214
sS'_regexes'
p215
(dp216
sg119
g120
sg198
(lp217
sg200
(lp218
sg121
I01
sbag2
(g202
g4
Ntp219
Rp220
(dp221
g16
(dp222
sg123
g124
sg20
g182
sg25
I00
sg185
(dp223
sg187
g2
(g188
g4
Ntp224
Rp225
(dp226
g185
(dp227
g193
g132
ssg194
g127
sbsg212
(lp228
sg195
Nsg125
I0
sg196
(dp229
sg215
(dp230
sg140
g141
sg198
(lp231
sg200
(lp232
sg142
I01
sbag2
(g202
g4
Ntp233
Rp234
(dp235
g16
(dp236
sg144
g145
sg20
g182
sg25
I00
sg185
(dp237
sg187
g2
(g188
g4
Ntp238
Rp239
(dp240
g185
(dp241
g193
g153
ssg194
g148
sbsg212
(lp242
sg195
Nsg146
I0
sg196
(dp243
sg215
(dp244
sg161
g162
sg198
(lp245
sg200
(lp246
sg163
I01
sbasbssS'nodes'
p247
g11
sS'errorMargin'
p248
V50
p249
sS'_title'
p250
g94
sS'categories'
p251
(lp252
VTalmud
p253
aVBavli
p254
aVSeder Moed
p255
asS'default_struct'
p256
VChapters
p257
sbsg185
(dp258
sg187
g190
sg212
(lp259
g2
(csefaria.model.schema
AddressTalmud
p260
g4
Ntp261
Rp262
(dp263
S'length'
p264
I51
sg174
I0
sbag2
(csefaria.model.schema
AddressInteger
p265
g4
Ntp266
Rp267
(dp268
g264
Nsg174
I1
sbasg195
Nsg33
g34
sg35
I2
sg196
(dp269
g193
g73
ssS'key'
p270
g15
sS'checkFirst'
p271
g77
sg215
(dp272
sg198
(lp273
sg82
g83
sg200
(lp274
sbsS'_range_index'
p275
NsS'_context'
p276
(dp277
sS'_padded'
p278
Nsg26
g29
sS'sections'
p279
(lp280
I3
aI1
asS'_first_spanned_ref'
p281
NsS'tref'
p282
VChagigah 2a:1
p283
sS'_spanned_refs'
p284
(lp285
sS'book'
p286
g73
sS'_range_depth'
p287
NsS'toSections'
p288
(lp289
I3
aI1
asS'_url'
p290
NsS'_normal'
p291
g283
sS'_ranged_refs'
p292
(lp293
sS'type'
p294
g253
sS'_prev'
p295
NsS'_he_normal'
p296
NsS'_next'
p297
Nsbag2
(g3
g4
Ntp298
Rp299
(dp300
g8
g11
sg275
Nsg276
(dp301
sg278
Nsg26
g29
sg279
(lp302
I3
aI2
asg281
Nsg282
VChagigah 2a:2
p303
sg284
(lp304
sg286
g73
sg287
Nsg288
(lp305
I3
aI2
asg290
Nsg291
g303
sg292
(lp306
sg294
g253
sg295
Nsg296
Nsg297
Nsbag2
(g3
g4
Ntp307
Rp308
(dp309
g8
g11
sg275
Nsg276
(dp310
sg278
Nsg26
g29
sg279
(lp311
I3
aI3
asg281
Nsg282
VChagigah 2a:3
p312
sg284
(lp313
sg286
g73
sg287
Nsg288
(lp314
I3
aI3
asg290
Nsg291
g312
sg292
(lp315
sg294
g253
sg295
Nsg296
Nsg297
Nsbag2
(g3
g4
Ntp316
Rp317
(dp318
g8
g11
sg275
Nsg276
(dp319
sg278
Nsg26
g29
sg279
(lp320
I3
aI4
asg281
Nsg282
VChagigah 2a:4
p321
sg284
(lp322
sg286
g73
sg287
Nsg288
(lp323
I3
aI4
asg290
Nsg291
g321
sg292
(lp324
sg294
g253
sg295
Nsg296
Nsg297
Nsbag2
(g3
g4
Ntp325
Rp326
(dp327
g8
g11
sg275
Nsg276
(dp328
sg278
Nsg26
g29
sg279
(lp329
I3
aI5
asg281
Nsg282
VChagigah 2a:5
p330
sg284
(lp331
sg286
g73
sg287
Nsg288
(lp332
I3
aI5
asg290
Nsg291
g330
sg292
(lp333
sg294
g253
sg295
Nsg296
Nsg297
Nsbag2
(g3
g4
Ntp334
Rp335
(dp336
g8
g11
sg275
Nsg276
(dp337
sg278
Nsg26
g29
sg279
(lp338
I3
aI6
asg281
Nsg282
VChagigah 2a:6
p339
sg284
(lp340
sg286
g73
sg287
Nsg288
(lp341
I3
aI6
asg290
Nsg291
g339
sg292
(lp342
sg294
g253
sg295
Nsg296
Nsg297
Nsbag2
(g3
g4
Ntp343
Rp344
(dp345
g8
g11
sg275
Nsg276
(dp346
sg278
Nsg26
g29
sg279
(lp347
I3
aI7
asg281
Nsg282
VChagigah 2a:7
p348
sg284
(lp349
sg286
g73
sg287
Nsg288
(lp350
I3
aI7
asg290
Nsg291
g348
sg292
(lp351
sg294
g253
sg295
Nsg296
Nsg297
Nsbag2
(g3
g4
Ntp352
Rp353
(dp354
g8
g11
sg275
Nsg276
(dp355
sg278
Nsg26
g29
sg279
(lp356
I3
aI8
asg281
Nsg282
VChagigah 2a:8
p357
sg284
(lp358
sg286
g73
sg287
Nsg288
(lp359
I3
aI8
asg290
Nsg291
g357
sg292
(lp360
sg294
g253
sg295
Nsg296
Nsg297
Nsbag2
(g3
g4
Ntp361
Rp362
(dp363
g8
g11
sg275
Nsg276
(dp364
sg278
Nsg26
g29
sg279
(lp365
I4
aI1
asg281
Nsg282
VChagigah 2b:1
p366
sg284
(lp367
sg286
g73
sg287
Nsg288
(lp368
I4
aI1
asg290
Nsg291
g366
sg292
(lp369
sg294
g253
sg295
Nsg296
Nsg297
Nsbag2
(g3
g4
Ntp370
Rp371
(dp372
g8
g11
sg275
Nsg276
(dp373
sg278
Nsg26
g29
sg279
(lp374
I4
aI2
asg281
Nsg282
VChagigah 2b:2
p375
sg284
(lp376
sg286
g73
sg287
Nsg288
(lp377
I4
aI2
asg290
Nsg291
g375
sg292
(lp378
sg294
g253
sg295
Nsg296
Nsg297
Nsbag2
(g3
g4
Ntp379
Rp380
(dp381
g8
g11
sg275
Nsg276
(dp382
sg278
Nsg26
g29
sg279
(lp383
I4
aI3
asg281
Nsg282
VChagigah 2b:3
p384
sg284
(lp385
sg286
g73
sg287
Nsg288
(lp386
I4
aI3
asg290
Nsg291
g384
sg292
(lp387
sg294
g253
sg295
Nsg296
Nsg297
Nsbag2
(g3
g4
Ntp388
Rp389
(dp390
g8
g11
sg275
Nsg276
(dp391
sg278
Nsg26
g29
sg279
(lp392
I4
aI4
asg281
Nsg282
VChagigah 2b:4
p393
sg284
(lp394
sg286
g73
sg287
Nsg288
(lp395
I4
aI4
asg290
Nsg291
g393
sg292
(lp396
sg294
g253
sg295
Nsg296
Nsg297
Nsbag2
(g3
g4
Ntp397
Rp398
(dp399
g8
g11
sg275
Nsg276
(dp400
sg278
Nsg26
g29
sg279
(lp401
I4
aI5
asg281
Nsg282
VChagigah 2b:5
p402
sg284
(lp403
sg286
g73
sg287
Nsg288
(lp404
I4
aI5
asg290
Nsg291
g402
sg292
(lp405
sg294
g253
sg295
Nsg296
Nsg297
Nsbag2
(g3
g4
Ntp406
Rp407
(dp408
g8
g11
sg275
Nsg276
(dp409
sg278
Nsg26
g29
sg279
(lp410
I4
aI6
asg281
Nsg282
VChagigah 2b:6
p411
sg284
(lp412
sg286
g73
sg287
Nsg288
(lp413
I4
aI6
asg290
Nsg291
g411
sg292
(lp414
sg294
g253
sg295
Nsg296
Nsg297
Nsbag2
(g3
g4
Ntp415
Rp416
(dp417
g8
g11
sg275
Nsg276
(dp418
sg278
Nsg26
g29
sg279
(lp419
I4
aI7
asg281
Nsg282
VChagigah 2b:7
p420
sg284
(lp421
sg286
g73
sg287
Nsg288
(lp422
I4
aI7
asg290
Nsg291
g420
sg292
(lp423
sg294
g253
sg295
Nsg296
Nsg297
Nsbag2
(g3
g4
Ntp424
Rp425
(dp426
g8
g11
sg275
Nsg276
(dp427
sg278
Nsg26
g29
sg279
(lp428
I4
aI8
asg281
Nsg282
VChagigah 2b:8
p429
sg284
(lp430
sg286
g73
sg287
Nsg288
(lp431
I4
aI8
asg290
Nsg291
g429
sg292
(lp432
sg294
g253
sg295
Nsg296
Nsg297
Nsbag2
(g3
g4
Ntp433
Rp434
(dp435
g8
g11
sg275
Nsg276
(dp436
sg278
Nsg26
g29
sg279
(lp437
I5
aI1
asg281
Nsg282
VChagigah 3a:1
p438
sg284
(lp439
sg286
g73
sg287
Nsg288
(lp440
I5
aI1
asg290
Nsg291
g438
sg292
(lp441
sg294
g253
sg295
Nsg296
Nsg297
Nsbag2
(g3
g4
Ntp442
Rp443
(dp444
g8
g11
sg275
Nsg276
(dp445
sg278
Nsg26
g29
sg279
(lp446
I5
aI2
asg281
Nsg282
VChagigah 3a:2
p447
sg284
(lp448
sg286
g73
sg287
Nsg288
(lp449
I5
aI2
asg290
Nsg291
g447
sg292
(lp450
sg294
g253
sg295
Nsg296
Nsg297
Nsbag2
(g3
g4
Ntp451
Rp452
(dp453
g8
g11
sg275
Nsg276
(dp454
sg278
Nsg26
g29
sg279
(lp455
I5
aI3
asg281
Nsg282
VChagigah 3a:3
p456
sg284
(lp457
sg286
g73
sg287
Nsg288
(lp458
I5
aI3
asg290
Nsg291
g456
sg292
(lp459
sg294
g253
sg295
Nsg296
Nsg297
Nsbag2
(g3
g4
Ntp460
Rp461
(dp462
g8
g11
sg275
Nsg276
(dp463
sg278
Nsg26
g29
sg279
(lp464
I5
aI4
asg281
Nsg282
VChagigah 3a:4
p465
sg284
(lp466
sg286
g73
sg287
Nsg288
(lp467
I5
aI4
asg290
Nsg291
g465
sg292
(lp468
sg294
g253
sg295
Nsg296
Nsg297
Nsbag2
(g3
g4
Ntp469
Rp470
(dp471
g8
g11
sg275
Nsg276
(dp472
sg278
Nsg26
g29
sg279
(lp473
I5
aI5
asg281
Nsg282
VChagigah 3a:5
p474
sg284
(lp475
sg286
g73
sg287
Nsg288
(lp476
I5
aI5
asg290
Nsg291
g474
sg292
(lp477
sg294
g253
sg295
Nsg296
Nsg297
Nsbag2
(g3
g4
Ntp478
Rp479
(dp480
g8
g11
sg275
Nsg276
(dp481
sg278
Nsg26
g29
sg279
(lp482
I5
aI6
asg281
Nsg282
VChagigah 3a:6
p483
sg284
(lp484
sg286
g73
sg287
Nsg288
(lp485
I5
aI6
asg290
Nsg291
g483
sg292
(lp486
sg294
g253
sg295
Nsg296
Nsg297
Nsbag2
(g3
g4
Ntp487
Rp488
(dp489
g8
g11
sg275
Nsg276
(dp490
sg278
Nsg26
g29
sg279
(lp491
I5
aI7
asg281
Nsg282
VChagigah 3a:7
p492
sg284
(lp493
sg286
g73
sg287
Nsg288
(lp494
I5
aI7
asg290
Nsg291
g492
sg292
(lp495
sg294
g253
sg295
Nsg296
Nsg297
Nsbag2
(g3
g4
Ntp496
Rp497
(dp498
g8
g11
sg275
Nsg276
(dp499
sg278
Nsg26
g29
sg279
(lp500
I5
aI8
asg281
Nsg282
VChagigah 3a:8
p501
sg284
(lp502
sg286
g73
sg287
Nsg288
(lp503
I5
aI8
asg290
Nsg291
g501
sg292
(lp504
sg294
g253
sg295
Nsg296
Nsg297
Nsbag2
(g3
g4
Ntp505
Rp506
(dp507
g8
g11
sg275
Nsg276
(dp508
sg278
Nsg26
g29
sg279
(lp509
I5
aI9
asg281
Nsg282
VChagigah 3a:9
p510
sg284
(lp511
sg286
g73
sg287
Nsg288
(lp512
I5
aI9
asg290
Nsg291
g510
sg292
(lp513
sg294
g253
sg295
Nsg296
Nsg297
Nsbag2
(g3
g4
Ntp514
Rp515
(dp516
g8
g11
sg275
Nsg276
(dp517
sg278
Nsg26
g29
sg279
(lp518
I5
aI10
asg281
Nsg282
VChagigah 3a:10
p519
sg284
(lp520
sg286
g73
sg287
Nsg288
(lp521
I5
aI10
asg290
Nsg291
g519
sg292
(lp522
sg294
g253
sg295
Nsg296
Nsg297
Nsbag2
(g3
g4
Ntp523
Rp524
(dp525
g8
g11
sg275
Nsg276
(dp526
sg278
Nsg26
g29
sg279
(lp527
I5
aI11
asg281
Nsg282
VChagigah 3a:11
p528
sg284
(lp529
sg286
g73
sg287
Nsg288
(lp530
I5
aI11
asg290
Nsg291
g528
sg292
(lp531
sg294
g253
sg295
Nsg296
Nsg297
Nsbag2
(g3
g4
Ntp532
Rp533
(dp534
g8
g11
sg275
Nsg276
(dp535
sg278
Nsg26
g29
sg279
(lp536
I5
aI12
asg281
Nsg282
VChagigah 3a:12
p537
sg284
(lp538
sg286
g73
sg287
Nsg288
(lp539
I5
aI12
asg290
Nsg291
g537
sg292
(lp540
sg294
g253
sg295
Nsg296
Nsg297
Nsbag2
(g3
g4
Ntp541
Rp542
(dp543
g8
g11
sg275
Nsg276
(dp544
sg278
Nsg26
g29
sg279
(lp545
I5
aI13
asg281
Nsg282
VChagigah 3a:13
p546
sg284
(lp547
sg286
g73
sg287
Nsg288
(lp548
I5
aI13
asg290
Nsg291
g546
sg292
(lp549
sg294
g253
sg295
Nsg296
Nsg297
Nsbag2
(g3
g4
Ntp550
Rp551
(dp552
g8
g11
sg275
Nsg276
(dp553
sg278
Nsg26
g29
sg279
(lp554
I5
aI14
asg281
Nsg282
VChagigah 3a:14
p555
sg284
(lp556
sg286
g73
sg287
Nsg288
(lp557
I5
aI14
asg290
Nsg291
g555
sg292
(lp558
sg294
g253
sg295
Nsg296
Nsg297
Nsbag2
(g3
g4
Ntp559
Rp560
(dp561
g8
g11
sg275
Nsg276
(dp562
sg278
Nsg26
g29
sg279
(lp563
I5
aI15
asg281
Nsg282
VChagigah 3a:15
p564
sg284
(lp565
sg286
g73
sg287
Nsg288
(lp566
I5
aI15
asg290
Nsg291
g564
sg292
(lp567
sg294
g253
sg295
Nsg296
Nsg297
Nsbag2
(g3
g4
Ntp568
Rp569
(dp570
g8
g11
sg275
Nsg276
(dp571
sg278
Nsg26
g29
sg279
(lp572
I5
aI16
asg281
Nsg282
VChagigah 3a:16
p573
sg284
(lp574
sg286
g73
sg287
Nsg288
(lp575
I5
aI16
asg290
Nsg291
g573
sg292
(lp576
sg294
g253
sg295
Nsg296
Nsg297
Nsbag2
(g3
g4
Ntp577
Rp578
(dp579
g8
g11
sg275
Nsg276
(dp580
sg278
Nsg26
g29
sg279
(lp581
I5
aI17
asg281
Nsg282
VChagigah 3a:17
p582
sg284
(lp583
sg286
g73
sg287
Nsg288
(lp584
I5
aI17
asg290
Nsg291
g582
sg292
(lp585
sg294
g253
sg295
Nsg296
Nsg297
Nsbag2
(g3
g4
Ntp586
Rp587
(dp588
g8
g11
sg275
Nsg276
(dp589
sg278
Nsg26
g29
sg279
(lp590
I5
aI18
asg281
Nsg282
VChagigah 3a:18
p591
sg284
(lp592
sg286
g73
sg287
Nsg288
(lp593
I5
aI18
asg290
Nsg291
g591
sg292
(lp594
sg294
g253
sg295
Nsg296
Nsg297
Nsbag2
(g3
g4
Ntp595
Rp596
(dp597
g8
g11
sg275
Nsg276
(dp598
sg278
Nsg26
g29
sg279
(lp599
I5
aI19
asg281
Nsg282
VChagigah 3a:19
p600
sg284
(lp601
sg286
g73
sg287
Nsg288
(lp602
I5
aI19
asg290
Nsg291
g600
sg292
(lp603
sg294
g253
sg295
Nsg296
Nsg297
Nsbag2
(g3
g4
Ntp604
Rp605
(dp606
g8
g11
sg275
Nsg276
(dp607
sg278
Nsg26
g29
sg279
(lp608
I6
aI1
asg281
Nsg282
VChagigah 3b:1
p609
sg284
(lp610
sg286
g73
sg287
Nsg288
(lp611
I6
aI1
asg290
Nsg291
g609
sg292
(lp612
sg294
g253
sg295
Nsg296
Nsg297
Nsbag2
(g3
g4
Ntp613
Rp614
(dp615
g8
g11
sg275
Nsg276
(dp616
sg278
Nsg26
g29
sg279
(lp617
I6
aI2
asg281
Nsg282
VChagigah 3b:2
p618
sg284
(lp619
sg286
g73
sg287
Nsg288
(lp620
I6
aI2
asg290
Nsg291
g618
sg292
(lp621
sg294
g253
sg295
Nsg296
Nsg297
Nsbag2
(g3
g4
Ntp622
Rp623
(dp624
g8
g11
sg275
Nsg276
(dp625
sg278
Nsg26
g29
sg279
(lp626
I6
aI3
asg281
Nsg282
VChagigah 3b:3
p627
sg284
(lp628
sg286
g73
sg287
Nsg288
(lp629
I6
aI3
asg290
Nsg291
g627
sg292
(lp630
sg294
g253
sg295
Nsg296
Nsg297
Nsbag2
(g3
g4
Ntp631
Rp632
(dp633
g8
g11
sg275
Nsg276
(dp634
sg278
Nsg26
g29
sg279
(lp635
I6
aI4
asg281
Nsg282
VChagigah 3b:4
p636
sg284
(lp637
sg286
g73
sg287
Nsg288
(lp638
I6
aI4
asg290
Nsg291
g636
sg292
(lp639
sg294
g253
sg295
Nsg296
Nsg297
Nsbag2
(g3
g4
Ntp640
Rp641
(dp642
g8
g11
sg275
Nsg276
(dp643
sg278
Nsg26
g29
sg279
(lp644
I6
aI5
asg281
Nsg282
VChagigah 3b:5
p645
sg284
(lp646
sg286
g73
sg287
Nsg288
(lp647
I6
aI5
asg290
Nsg291
g645
sg292
(lp648
sg294
g253
sg295
Nsg296
Nsg297
Nsbag2
(g3
g4
Ntp649
Rp650
(dp651
g8
g11
sg275
Nsg276
(dp652
sg278
Nsg26
g29
sg279
(lp653
I6
aI6
asg281
Nsg282
VChagigah 3b:6
p654
sg284
(lp655
sg286
g73
sg287
Nsg288
(lp656
I6
aI6
asg290
Nsg291
g654
sg292
(lp657
sg294
g253
sg295
Nsg296
Nsg297
Nsbag2
(g3
g4
Ntp658
Rp659
(dp660
g8
g11
sg275
Nsg276
(dp661
sg278
Nsg26
g29
sg279
(lp662
I6
aI7
asg281
Nsg282
VChagigah 3b:7
p663
sg284
(lp664
sg286
g73
sg287
Nsg288
(lp665
I6
aI7
asg290
Nsg291
g663
sg292
(lp666
sg294
g253
sg295
Nsg296
Nsg297
Nsbag2
(g3
g4
Ntp667
Rp668
(dp669
g8
g11
sg275
Nsg276
(dp670
sg278
Nsg26
g29
sg279
(lp671
I6
aI8
asg281
Nsg282
VChagigah 3b:8
p672
sg284
(lp673
sg286
g73
sg287
Nsg288
(lp674
I6
aI8
asg290
Nsg291
g672
sg292
(lp675
sg294
g253
sg295
Nsg296
Nsg297
Nsbag2
(g3
g4
Ntp676
Rp677
(dp678
g8
g11
sg275
Nsg276
(dp679
sg278
Nsg26
g29
sg279
(lp680
I6
aI9
asg281
Nsg282
VChagigah 3b:9
p681
sg284
(lp682
sg286
g73
sg287
Nsg288
(lp683
I6
aI9
asg290
Nsg291
g681
sg292
(lp684
sg294
g253
sg295
Nsg296
Nsg297
Nsbag2
(g3
g4
Ntp685
Rp686
(dp687
g8
g11
sg275
Nsg276
(dp688
sg278
Nsg26
g29
sg279
(lp689
I6
aI10
asg281
Nsg282
VChagigah 3b:10
p690
sg284
(lp691
sg286
g73
sg287
Nsg288
(lp692
I6
aI10
asg290
Nsg291
g690
sg292
(lp693
sg294
g253
sg295
Nsg296
Nsg297
Nsbag2
(g3
g4
Ntp694
Rp695
(dp696
g8
g11
sg275
Nsg276
(dp697
sg278
Nsg26
g29
sg279
(lp698
I6
aI11
asg281
Nsg282
VChagigah 3b:11
p699
sg284
(lp700
sg286
g73
sg287
Nsg288
(lp701
I6
aI11
asg290
Nsg291
g699
sg292
(lp702
sg294
g253
sg295
Nsg296
Nsg297
Nsbag2
(g3
g4
Ntp703
Rp704
(dp705
g8
g11
sg275
Nsg276
(dp706
sg278
Nsg26
g29
sg279
(lp707
I6
aI12
asg281
Nsg282
VChagigah 3b:12
p708
sg284
(lp709
sg286
g73
sg287
Nsg288
(lp710
I6
aI12
asg290
Nsg291
g708
sg292
(lp711
sg294
g253
sg295
Nsg296
Nsg297
Nsbag2
(g3
g4
Ntp712
Rp713
(dp714
g8
g11
sg275
Nsg276
(dp715
sg278
Nsg26
g29
sg279
(lp716
I6
aI13
asg281
Nsg282
VChagigah 3b:13
p717
sg284
(lp718
sg286
g73
sg287
Nsg288
(lp719
I6
aI13
asg290
Nsg291
g717
sg292
(lp720
sg294
g253
sg295
Nsg296
Nsg297
Nsbag2
(g3
g4
Ntp721
Rp722
(dp723
g8
g11
sg275
Nsg276
(dp724
sg278
Nsg26
g29
sg279
(lp725
I6
aI14
asg281
Nsg282
VChagigah 3b:14
p726
sg284
(lp727
sg286
g73
sg287
Nsg288
(lp728
I6
aI14
asg290
Nsg291
g726
sg292
(lp729
sg294
g253
sg295
Nsg296
Nsg297
Nsbag2
(g3
g4
Ntp730
Rp731
(dp732
g8
g11
sg275
Nsg276
(dp733
sg278
Nsg26
g29
sg279
(lp734
I7
aI1
asg281
Nsg282
VChagigah 4a:1
p735
sg284
(lp736
sg286
g73
sg287
Nsg288
(lp737
I7
aI1
asg290
Nsg291
g735
sg292
(lp738
sg294
g253
sg295
Nsg296
Nsg297
Nsbag2
(g3
g4
Ntp739
Rp740
(dp741
g8
g11
sg275
Nsg276
(dp742
sg278
Nsg26
g29
sg279
(lp743
I7
aI2
asg281
Nsg282
VChagigah 4a:2
p744
sg284
(lp745
sg286
g73
sg287
Nsg288
(lp746
I7
aI2
asg290
Nsg291
g744
sg292
(lp747
sg294
g253
sg295
Nsg296
Nsg297
Nsbag2
(g3
g4
Ntp748
Rp749
(dp750
g8
g11
sg275
Nsg276
(dp751
sg278
Nsg26
g29
sg279
(lp752
I7
aI3
asg281
Nsg282
VChagigah 4a:3
p753
sg284
(lp754
sg286
g73
sg287
Nsg288
(lp755
I7
aI3
asg290
Nsg291
g753
sg292
(lp756
sg294
g253
sg295
Nsg296
Nsg297
Nsbag2
(g3
g4
Ntp757
Rp758
(dp759
g8
g11
sg275
Nsg276
(dp760
sg278
Nsg26
g29
sg279
(lp761
I7
aI4
asg281
Nsg282
VChagigah 4a:4
p762
sg284
(lp763
sg286
g73
sg287
Nsg288
(lp764
I7
aI4
asg290
Nsg291
g762
sg292
(lp765
sg294
g253
sg295
Nsg296
Nsg297
Nsbag2
(g3
g4
Ntp766
Rp767
(dp768
g8
g11
sg275
Nsg276
(dp769
sg278
Nsg26
g29
sg279
(lp770
I7
aI5
asg281
Nsg282
VChagigah 4a:5
p771
sg284
(lp772
sg286
g73
sg287
Nsg288
(lp773
I7
aI5
asg290
Nsg291
g771
sg292
(lp774
sg294
g253
sg295
Nsg296
Nsg297
Nsbag2
(g3
g4
Ntp775
Rp776
(dp777
g8
g11
sg275
Nsg276
(dp778
sg278
Nsg26
g29
sg279
(lp779
I7
aI6
asg281
Nsg282
VChagigah 4a:6
p780
sg284
(lp781
sg286
g73
sg287
Nsg288
(lp782
I7
aI6
asg290
Nsg291
g780
sg292
(lp783
sg294
g253
sg295
Nsg296
Nsg297
Nsbag2
(g3
g4
Ntp784
Rp785
(dp786
g8
g11
sg275
Nsg276
(dp787
sg278
Nsg26
g29
sg279
(lp788
I7
aI7
asg281
Nsg282
VChagigah 4a:7
p789
sg284
(lp790
sg286
g73
sg287
Nsg288
(lp791
I7
aI7
asg290
Nsg291
g789
sg292
(lp792
sg294
g253
sg295
Nsg296
Nsg297
Nsbag2
(g3
g4
Ntp793
Rp794
(dp795
g8
g11
sg275
Nsg276
(dp796
sg278
Nsg26
g29
sg279
(lp797
I7
aI8
asg281
Nsg282
VChagigah 4a:8
p798
sg284
(lp799
sg286
g73
sg287
Nsg288
(lp800
I7
aI8
asg290
Nsg291
g798
sg292
(lp801
sg294
g253
sg295
Nsg296
Nsg297
Nsbag2
(g3
g4
Ntp802
Rp803
(dp804
g8
g11
sg275
Nsg276
(dp805
sg278
Nsg26
g29
sg279
(lp806
I7
aI9
asg281
Nsg282
VChagigah 4a:9
p807
sg284
(lp808
sg286
g73
sg287
Nsg288
(lp809
I7
aI9
asg290
Nsg291
g807
sg292
(lp810
sg294
g253
sg295
Nsg296
Nsg297
Nsbag2
(g3
g4
Ntp811
Rp812
(dp813
g8
g11
sg275
Nsg276
(dp814
sg278
Nsg26
g29
sg279
(lp815
I7
aI10
asg281
Nsg282
VChagigah 4a:10
p816
sg284
(lp817
sg286
g73
sg287
Nsg288
(lp818
I7
aI10
asg290
Nsg291
g816
sg292
(lp819
sg294
g253
sg295
Nsg296
Nsg297
Nsbag2
(g3
g4
Ntp820
Rp821
(dp822
g8
g11
sg275
Nsg276
(dp823
sg278
Nsg26
g29
sg279
(lp824
I7
aI11
asg281
Nsg282
VChagigah 4a:11
p825
sg284
(lp826
sg286
g73
sg287
Nsg288
(lp827
I7
aI11
asg290
Nsg291
g825
sg292
(lp828
sg294
g253
sg295
Nsg296
Nsg297
Nsbag2
(g3
g4
Ntp829
Rp830
(dp831
g8
g11
sg275
Nsg276
(dp832
sg278
Nsg26
g29
sg279
(lp833
I7
aI12
asg281
Nsg282
VChagigah 4a:12
p834
sg284
(lp835
sg286
g73
sg287
Nsg288
(lp836
I7
aI12
asg290
Nsg291
g834
sg292
(lp837
sg294
g253
sg295
Nsg296
Nsg297
Nsbag2
(g3
g4
Ntp838
Rp839
(dp840
g8
g11
sg275
Nsg276
(dp841
sg278
Nsg26
g29
sg279
(lp842
I7
aI13
asg281
Nsg282
VChagigah 4a:13
p843
sg284
(lp844
sg286
g73
sg287
Nsg288
(lp845
I7
aI13
asg290
Nsg291
g843
sg292
(lp846
sg294
g253
sg295
Nsg296
Nsg297
Nsbag2
(g3
g4
Ntp847
Rp848
(dp849
g8
g11
sg275
Nsg276
(dp850
sg278
Nsg26
g29
sg279
(lp851
I8
aI1
asg281
Nsg282
VChagigah 4b:1
p852
sg284
(lp853
sg286
g73
sg287
Nsg288
(lp854
I8
aI1
asg290
Nsg291
g852
sg292
(lp855
sg294
g253
sg295
Nsg296
Nsg297
Nsbag2
(g3
g4
Ntp856
Rp857
(dp858
g8
g11
sg275
Nsg276
(dp859
sg278
Nsg26
g29
sg279
(lp860
I8
aI2
asg281
Nsg282
VChagigah 4b:2
p861
sg284
(lp862
sg286
g73
sg287
Nsg288
(lp863
I8
aI2
asg290
Nsg291
g861
sg292
(lp864
sg294
g253
sg295
Nsg296
Nsg297
Nsbag2
(g3
g4
Ntp865
Rp866
(dp867
g8
g11
sg275
Nsg276
(dp868
sg278
Nsg26
g29
sg279
(lp869
I8
aI3
asg281
Nsg282
VChagigah 4b:3
p870
sg284
(lp871
sg286
g73
sg287
Nsg288
(lp872
I8
aI3
asg290
Nsg291
g870
sg292
(lp873
sg294
g253
sg295
Nsg296
Nsg297
Nsbag2
(g3
g4
Ntp874
Rp875
(dp876
g8
g11
sg275
Nsg276
(dp877
sg278
Nsg26
g29
sg279
(lp878
I8
aI4
asg281
Nsg282
VChagigah 4b:4
p879
sg284
(lp880
sg286
g73
sg287
Nsg288
(lp881
I8
aI4
asg290
Nsg291
g879
sg292
(lp882
sg294
g253
sg295
Nsg296
Nsg297
Nsbag2
(g3
g4
Ntp883
Rp884
(dp885
g8
g11
sg275
Nsg276
(dp886
sg278
Nsg26
g29
sg279
(lp887
I8
aI5
asg281
Nsg282
VChagigah 4b:5
p888
sg284
(lp889
sg286
g73
sg287
Nsg288
(lp890
I8
aI5
asg290
Nsg291
g888
sg292
(lp891
sg294
g253
sg295
Nsg296
Nsg297
Nsbag2
(g3
g4
Ntp892
Rp893
(dp894
g8
g11
sg275
Nsg276
(dp895
sg278
Nsg26
g29
sg279
(lp896
I8
aI6
asg281
Nsg282
VChagigah 4b:6
p897
sg284
(lp898
sg286
g73
sg287
Nsg288
(lp899
I8
aI6
asg290
Nsg291
g897
sg292
(lp900
sg294
g253
sg295
Nsg296
Nsg297
Nsbag2
(g3
g4
Ntp901
Rp902
(dp903
g8
g11
sg275
Nsg276
(dp904
sg278
Nsg26
g29
sg279
(lp905
I8
aI7
asg281
Nsg282
VChagigah 4b:7
p906
sg284
(lp907
sg286
g73
sg287
Nsg288
(lp908
I8
aI7
asg290
Nsg291
g906
sg292
(lp909
sg294
g253
sg295
Nsg296
Nsg297
Nsbag2
(g3
g4
Ntp910
Rp911
(dp912
g8
g11
sg275
Nsg276
(dp913
sg278
Nsg26
g29
sg279
(lp914
I8
aI8
asg281
Nsg282
VChagigah 4b:8
p915
sg284
(lp916
sg286
g73
sg287
Nsg288
(lp917
I8
aI8
asg290
Nsg291
g915
sg292
(lp918
sg294
g253
sg295
Nsg296
Nsg297
Nsbag2
(g3
g4
Ntp919
Rp920
(dp921
g8
g11
sg275
Nsg276
(dp922
sg278
Nsg26
g29
sg279
(lp923
I8
aI9
asg281
Nsg282
VChagigah 4b:9
p924
sg284
(lp925
sg286
g73
sg287
Nsg288
(lp926
I8
aI9
asg290
Nsg291
g924
sg292
(lp927
sg294
g253
sg295
Nsg296
Nsg297
Nsbag2
(g3
g4
Ntp928
Rp929
(dp930
g8
g11
sg275
Nsg276
(dp931
sg278
Nsg26
g29
sg279
(lp932
I8
aI10
asg281
Nsg282
VChagigah 4b:10
p933
sg284
(lp934
sg286
g73
sg287
Nsg288
(lp935
I8
aI10
asg290
Nsg291
g933
sg292
(lp936
sg294
g253
sg295
Nsg296
Nsg297
Nsbag2
(g3
g4
Ntp937
Rp938
(dp939
g8
g11
sg275
Nsg276
(dp940
sg278
Nsg26
g29
sg279
(lp941
I8
aI11
asg281
Nsg282
VChagigah 4b:11
p942
sg284
(lp943
sg286
g73
sg287
Nsg288
(lp944
I8
aI11
asg290
Nsg291
g942
sg292
(lp945
sg294
g253
sg295
Nsg296
Nsg297
Nsbag2
(g3
g4
Ntp946
Rp947
(dp948
g8
g11
sg275
Nsg276
(dp949
sg278
Nsg26
g29
sg279
(lp950
I8
aI12
asg281
Nsg282
VChagigah 4b:12
p951
sg284
(lp952
sg286
g73
sg287
Nsg288
(lp953
I8
aI12
asg290
Nsg291
g951
sg292
(lp954
sg294
g253
sg295
Nsg296
Nsg297
Nsbag2
(g3
g4
Ntp955
Rp956
(dp957
g8
g11
sg275
Nsg276
(dp958
sg278
Nsg26
g29
sg279
(lp959
I9
aI1
asg281
Nsg282
VChagigah 5a:1
p960
sg284
(lp961
sg286
g73
sg287
Nsg288
(lp962
I9
aI1
asg290
Nsg291
g960
sg292
(lp963
sg294
g253
sg295
Nsg296
Nsg297
Nsbag2
(g3
g4
Ntp964
Rp965
(dp966
g8
g11
sg275
Nsg276
(dp967
sg278
Nsg26
g29
sg279
(lp968
I9
aI2
asg281
Nsg282
VChagigah 5a:2
p969
sg284
(lp970
sg286
g73
sg287
Nsg288
(lp971
I9
aI2
asg290
Nsg291
g969
sg292
(lp972
sg294
g253
sg295
Nsg296
Nsg297
Nsbag2
(g3
g4
Ntp973
Rp974
(dp975
g8
g11
sg275
Nsg276
(dp976
sg278
Nsg26
g29
sg279
(lp977
I9
aI3
asg281
Nsg282
VChagigah 5a:3
p978
sg284
(lp979
sg286
g73
sg287
Nsg288
(lp980
I9
aI3
asg290
Nsg291
g978
sg292
(lp981
sg294
g253
sg295
Nsg296
Nsg297
Nsbag2
(g3
g4
Ntp982
Rp983
(dp984
g8
g11
sg275
Nsg276
(dp985
sg278
Nsg26
g29
sg279
(lp986
I9
aI4
asg281
Nsg282
VChagigah 5a:4
p987
sg284
(lp988
sg286
g73
sg287
Nsg288
(lp989
I9
aI4
asg290
Nsg291
g987
sg292
(lp990
sg294
g253
sg295
Nsg296
Nsg297
Nsbag2
(g3
g4
Ntp991
Rp992
(dp993
g8
g11
sg275
Nsg276
(dp994
sg278
Nsg26
g29
sg279
(lp995
I9
aI5
asg281
Nsg282
VChagigah 5a:5
p996
sg284
(lp997
sg286
g73
sg287
Nsg288
(lp998
I9
aI5
asg290
Nsg291
g996
sg292
(lp999
sg294
g253
sg295
Nsg296
Nsg297
Nsbag2
(g3
g4
Ntp1000
Rp1001
(dp1002
g8
g11
sg275
Nsg276
(dp1003
sg278
Nsg26
g29
sg279
(lp1004
I9
aI6
asg281
Nsg282
VChagigah 5a:6
p1005
sg284
(lp1006
sg286
g73
sg287
Nsg288
(lp1007
I9
aI6
asg290
Nsg291
g1005
sg292
(lp1008
sg294
g253
sg295
Nsg296
Nsg297
Nsbag2
(g3
g4
Ntp1009
Rp1010
(dp1011
g8
g11
sg275
Nsg276
(dp1012
sg278
Nsg26
g29
sg279
(lp1013
I9
aI7
asg281
Nsg282
VChagigah 5a:7
p1014
sg284
(lp1015
sg286
g73
sg287
Nsg288
(lp1016
I9
aI7
asg290
Nsg291
g1014
sg292
(lp1017
sg294
g253
sg295
Nsg296
Nsg297
Nsbag2
(g3
g4
Ntp1018
Rp1019
(dp1020
g8
g11
sg275
Nsg276
(dp1021
sg278
Nsg26
g29
sg279
(lp1022
I9
aI8
asg281
Nsg282
VChagigah 5a:8
p1023
sg284
(lp1024
sg286
g73
sg287
Nsg288
(lp1025
I9
aI8
asg290
Nsg291
g1023
sg292
(lp1026
sg294
g253
sg295
Nsg296
Nsg297
Nsbag2
(g3
g4
Ntp1027
Rp1028
(dp1029
g8
g11
sg275
Nsg276
(dp1030
sg278
Nsg26
g29
sg279
(lp1031
I9
aI9
asg281
Nsg282
VChagigah 5a:9
p1032
sg284
(lp1033
sg286
g73
sg287
Nsg288
(lp1034
I9
aI9
asg290
Nsg291
g1032
sg292
(lp1035
sg294
g253
sg295
Nsg296
Nsg297
Nsbag2
(g3
g4
Ntp1036
Rp1037
(dp1038
g8
g11
sg275
Nsg276
(dp1039
sg278
Nsg26
g29
sg279
(lp1040
I9
aI10
asg281
Nsg282
VChagigah 5a:10
p1041
sg284
(lp1042
sg286
g73
sg287
Nsg288
(lp1043
I9
aI10
asg290
Nsg291
g1041
sg292
(lp1044
sg294
g253
sg295
Nsg296
Nsg297
Nsbag2
(g3
g4
Ntp1045
Rp1046
(dp1047
g8
g11
sg275
Nsg276
(dp1048
sg278
Nsg26
g29
sg279
(lp1049
I9
aI11
asg281
Nsg282
VChagigah 5a:11
p1050
sg284
(lp1051
sg286
g73
sg287
Nsg288
(lp1052
I9
aI11
asg290
Nsg291
g1050
sg292
(lp1053
sg294
g253
sg295
Nsg296
Nsg297
Nsbag2
(g3
g4
Ntp1054
Rp1055
(dp1056
g8
g11
sg275
Nsg276
(dp1057
sg278
Nsg26
g29
sg279
(lp1058
I9
aI12
asg281
Nsg282
VChagigah 5a:12
p1059
sg284
(lp1060
sg286
g73
sg287
Nsg288
(lp1061
I9
aI12
asg290
Nsg291
g1059
sg292
(lp1062
sg294
g253
sg295
Nsg296
Nsg297
Nsbag2
(g3
g4
Ntp1063
Rp1064
(dp1065
g8
g11
sg275
Nsg276
(dp1066
sg278
Nsg26
g29
sg279
(lp1067
I9
aI13
asg281
Nsg282
VChagigah 5a:13
p1068
sg284
(lp1069
sg286
g73
sg287
Nsg288
(lp1070
I9
aI13
asg290
Nsg291
g1068
sg292
(lp1071
sg294
g253
sg295
Nsg296
Nsg297
Nsbag2
(g3
g4
Ntp1072
Rp1073
(dp1074
g8
g11
sg275
Nsg276
(dp1075
sg278
Nsg26
g29
sg279
(lp1076
I9
aI14
asg281
Nsg282
VChagigah 5a:14
p1077
sg284
(lp1078
sg286
g73
sg287
Nsg288
(lp1079
I9
aI14
asg290
Nsg291
g1077
sg292
(lp1080
sg294
g253
sg295
Nsg296
Nsg297
Nsbag2
(g3
g4
Ntp1081
Rp1082
(dp1083
g8
g11
sg275
Nsg276
(dp1084
sg278
Nsg26
g29
sg279
(lp1085
I9
aI15
asg281
Nsg282
VChagigah 5a:15
p1086
sg284
(lp1087
sg286
g73
sg287
Nsg288
(lp1088
I9
aI15
asg290
Nsg291
g1086
sg292
(lp1089
sg294
g253
sg295
Nsg296
Nsg297
Nsbag2
(g3
g4
Ntp1090
Rp1091
(dp1092
g8
g11
sg275
Nsg276
(dp1093
sg278
Nsg26
g29
sg279
(lp1094
I9
aI16
asg281
Nsg282
VChagigah 5a:16
p1095
sg284
(lp1096
sg286
g73
sg287
Nsg288
(lp1097
I9
aI16
asg290
Nsg291
g1095
sg292
(lp1098
sg294
g253
sg295
Nsg296
Nsg297
Nsbag2
(g3
g4
Ntp1099
Rp1100
(dp1101
g8
g11
sg275
Nsg276
(dp1102
sg278
Nsg26
g29
sg279
(lp1103
I9
aI17
asg281
Nsg282
VChagigah 5a:17
p1104
sg284
(lp1105
sg286
g73
sg287
Nsg288
(lp1106
I9
aI17
asg290
Nsg291
g1104
sg292
(lp1107
sg294
g253
sg295
Nsg296
Nsg297
Nsbag2
(g3
g4
Ntp1108
Rp1109
(dp1110
g8
g11
sg275
Nsg276
(dp1111
sg278
Nsg26
g29
sg279
(lp1112
I9
aI18
asg281
Nsg282
VChagigah 5a:18
p1113
sg284
(lp1114
sg286
g73
sg287
Nsg288
(lp1115
I9
aI18
asg290
Nsg291
g1113
sg292
(lp1116
sg294
g253
sg295
Nsg296
Nsg297
Nsbag2
(g3
g4
Ntp1117
Rp1118
(dp1119
g8
g11
sg275
Nsg276
(dp1120
sg278
Nsg26
g29
sg279
(lp1121
I10
aI1
asg281
Nsg282
VChagigah 5b:1
p1122
sg284
(lp1123
sg286
g73
sg287
Nsg288
(lp1124
I10
aI1
asg290
Nsg291
g1122
sg292
(lp1125
sg294
g253
sg295
Nsg296
Nsg297
Nsbag2
(g3
g4
Ntp1126
Rp1127
(dp1128
g8
g11
sg275
Nsg276
(dp1129
sg278
Nsg26
g29
sg279
(lp1130
I10
aI2
asg281
Nsg282
VChagigah 5b:2
p1131
sg284
(lp1132
sg286
g73
sg287
Nsg288
(lp1133
I10
aI2
asg290
Nsg291
g1131
sg292
(lp1134
sg294
g253
sg295
Nsg296
Nsg297
Nsbag2
(g3
g4
Ntp1135
Rp1136
(dp1137
g8
g11
sg275
Nsg276
(dp1138
sg278
Nsg26
g29
sg279
(lp1139
I10
aI3
asg281
Nsg282
VChagigah 5b:3
p1140
sg284
(lp1141
sg286
g73
sg287
Nsg288
(lp1142
I10
aI3
asg290
Nsg291
g1140
sg292
(lp1143
sg294
g253
sg295
Nsg296
Nsg297
Nsbag2
(g3
g4
Ntp1144
Rp1145
(dp1146
g8
g11
sg275
Nsg276
(dp1147
sg278
Nsg26
g29
sg279
(lp1148
I10
aI4
asg281
Nsg282
VChagigah 5b:4
p1149
sg284
(lp1150
sg286
g73
sg287
Nsg288
(lp1151
I10
aI4
asg290
Nsg291
g1149
sg292
(lp1152
sg294
g253
sg295
Nsg296
Nsg297
Nsbag2
(g3
g4
Ntp1153
Rp1154
(dp1155
g8
g11
sg275
Nsg276
(dp1156
sg278
Nsg26
g29
sg279
(lp1157
I10
aI5
asg281
Nsg282
VChagigah 5b:5
p1158
sg284
(lp1159
sg286
g73
sg287
Nsg288
(lp1160
I10
aI5
asg290
Nsg291
g1158
sg292
(lp1161
sg294
g253
sg295
Nsg296
Nsg297
Nsbag2
(g3
g4
Ntp1162
Rp1163
(dp1164
g8
g11
sg275
Nsg276
(dp1165
sg278
Nsg26
g29
sg279
(lp1166
I10
aI6
asg281
Nsg282
VChagigah 5b:6
p1167
sg284
(lp1168
sg286
g73
sg287
Nsg288
(lp1169
I10
aI6
asg290
Nsg291
g1167
sg292
(lp1170
sg294
g253
sg295
Nsg296
Nsg297
Nsbag2
(g3
g4
Ntp1171
Rp1172
(dp1173
g8
g11
sg275
Nsg276
(dp1174
sg278
Nsg26
g29
sg279
(lp1175
I10
aI7
asg281
Nsg282
VChagigah 5b:7
p1176
sg284
(lp1177
sg286
g73
sg287
Nsg288
(lp1178
I10
aI7
asg290
Nsg291
g1176
sg292
(lp1179
sg294
g253
sg295
Nsg296
Nsg297
Nsbag2
(g3
g4
Ntp1180
Rp1181
(dp1182
g8
g11
sg275
Nsg276
(dp1183
sg278
Nsg26
g29
sg279
(lp1184
I10
aI8
asg281
Nsg282
VChagigah 5b:8
p1185
sg284
(lp1186
sg286
g73
sg287
Nsg288
(lp1187
I10
aI8
asg290
Nsg291
g1185
sg292
(lp1188
sg294
g253
sg295
Nsg296
Nsg297
Nsbag2
(g3
g4
Ntp1189
Rp1190
(dp1191
g8
g11
sg275
Nsg276
(dp1192
sg278
Nsg26
g29
sg279
(lp1193
I10
aI9
asg281
Nsg282
VChagigah 5b:9
p1194
sg284
(lp1195
sg286
g73
sg287
Nsg288
(lp1196
I10
aI9
asg290
Nsg291
g1194
sg292
(lp1197
sg294
g253
sg295
Nsg296
Nsg297
Nsbag2
(g3
g4
Ntp1198
Rp1199
(dp1200
g8
g11
sg275
Nsg276
(dp1201
sg278
Nsg26
g29
sg279
(lp1202
I10
aI10
asg281
Nsg282
VChagigah 5b:10
p1203
sg284
(lp1204
sg286
g73
sg287
Nsg288
(lp1205
I10
aI10
asg290
Nsg291
g1203
sg292
(lp1206
sg294
g253
sg295
Nsg296
Nsg297
Nsbag2
(g3
g4
Ntp1207
Rp1208
(dp1209
g8
g11
sg275
Nsg276
(dp1210
sg278
Nsg26
g29
sg279
(lp1211
I10
aI11
asg281
Nsg282
VChagigah 5b:11
p1212
sg284
(lp1213
sg286
g73
sg287
Nsg288
(lp1214
I10
aI11
asg290
Nsg291
g1212
sg292
(lp1215
sg294
g253
sg295
Nsg296
Nsg297
Nsbag2
(g3
g4
Ntp1216
Rp1217
(dp1218
g8
g11
sg275
Nsg276
(dp1219
sg278
Nsg26
g29
sg279
(lp1220
I10
aI12
asg281
Nsg282
VChagigah 5b:12
p1221
sg284
(lp1222
sg286
g73
sg287
Nsg288
(lp1223
I10
aI12
asg290
Nsg291
g1221
sg292
(lp1224
sg294
g253
sg295
Nsg296
Nsg297
Nsbag2
(g3
g4
Ntp1225
Rp1226
(dp1227
g8
g11
sg275
Nsg276
(dp1228
sg278
Nsg26
g29
sg279
(lp1229
I10
aI13
asg281
Nsg282
VChagigah 5b:13
p1230
sg284
(lp1231
sg286
g73
sg287
Nsg288
(lp1232
I10
aI13
asg290
Nsg291
g1230
sg292
(lp1233
sg294
g253
sg295
Nsg296
Nsg297
Nsbag2
(g3
g4
Ntp1234
Rp1235
(dp1236
g8
g11
sg275
Nsg276
(dp1237
sg278
Nsg26
g29
sg279
(lp1238
I10
aI14
asg281
Nsg282
VChagigah 5b:14
p1239
sg284
(lp1240
sg286
g73
sg287
Nsg288
(lp1241
I10
aI14
asg290
Nsg291
g1239
sg292
(lp1242
sg294
g253
sg295
Nsg296
Nsg297
Nsbag2
(g3
g4
Ntp1243
Rp1244
(dp1245
g8
g11
sg275
Nsg276
(dp1246
sg278
Nsg26
g29
sg279
(lp1247
I10
aI15
asg281
Nsg282
VChagigah 5b:15
p1248
sg284
(lp1249
sg286
g73
sg287
Nsg288
(lp1250
I10
aI15
asg290
Nsg291
g1248
sg292
(lp1251
sg294
g253
sg295
Nsg296
Nsg297
Nsbag2
(g3
g4
Ntp1252
Rp1253
(dp1254
g8
g11
sg275
Nsg276
(dp1255
sg278
Nsg26
g29
sg279
(lp1256
I10
aI16
asg281
Nsg282
VChagigah 5b:16
p1257
sg284
(lp1258
sg286
g73
sg287
Nsg288
(lp1259
I10
aI16
asg290
Nsg291
g1257
sg292
(lp1260
sg294
g253
sg295
Nsg296
Nsg297
Nsbag2
(g3
g4
Ntp1261
Rp1262
(dp1263
g8
g11
sg275
Nsg276
(dp1264
sg278
Nsg26
g29
sg279
(lp1265
I10
aI17
asg281
Nsg282
VChagigah 5b:17
p1266
sg284
(lp1267
sg286
g73
sg287
Nsg288
(lp1268
I10
aI17
asg290
Nsg291
g1266
sg292
(lp1269
sg294
g253
sg295
Nsg296
Nsg297
Nsbag2
(g3
g4
Ntp1270
Rp1271
(dp1272
g8
g11
sg275
Nsg276
(dp1273
sg278
Nsg26
g29
sg279
(lp1274
I10
aI18
asg281
Nsg282
VChagigah 5b:18
p1275
sg284
(lp1276
sg286
g73
sg287
Nsg288
(lp1277
I10
aI18
asg290
Nsg291
g1275
sg292
(lp1278
sg294
g253
sg295
Nsg296
Nsg297
Nsbag2
(g3
g4
Ntp1279
Rp1280
(dp1281
g8
g11
sg275
Nsg276
(dp1282
sg278
Nsg26
g29
sg279
(lp1283
I10
aI19
asg281
Nsg282
VChagigah 5b:19
p1284
sg284
(lp1285
sg286
g73
sg287
Nsg288
(lp1286
I10
aI19
asg290
Nsg291
g1284
sg292
(lp1287
sg294
g253
sg295
Nsg296
Nsg297
Nsbag2
(g3
g4
Ntp1288
Rp1289
(dp1290
g8
g11
sg275
Nsg276
(dp1291
sg278
Nsg26
g29
sg279
(lp1292
I10
aI20
asg281
Nsg282
VChagigah 5b:20
p1293
sg284
(lp1294
sg286
g73
sg287
Nsg288
(lp1295
I10
aI20
asg290
Nsg291
g1293
sg292
(lp1296
sg294
g253
sg295
Nsg296
Nsg297
Nsbag2
(g3
g4
Ntp1297
Rp1298
(dp1299
g8
g11
sg275
Nsg276
(dp1300
sg278
Nsg26
g29
sg279
(lp1301
I10
aI21
asg281
Nsg282
VChagigah 5b:21
p1302
sg284
(lp1303
sg286
g73
sg287
Nsg288
(lp1304
I10
aI21
asg290
Nsg291
g1302
sg292
(lp1305
sg294
g253
sg295
Nsg296
Nsg297
Nsbag2
(g3
g4
Ntp1306
Rp1307
(dp1308
g8
g11
sg275
Nsg276
(dp1309
sg278
Nsg26
g29
sg279
(lp1310
I10
aI22
asg281
Nsg282
VChagigah 5b:22
p1311
sg284
(lp1312
sg286
g73
sg287
Nsg288
(lp1313
I10
aI22
asg290
Nsg291
g1311
sg292
(lp1314
sg294
g253
sg295
Nsg296
Nsg297
Nsbag2
(g3
g4
Ntp1315
Rp1316
(dp1317
g8
g11
sg275
Nsg276
(dp1318
sg278
Nsg26
g29
sg279
(lp1319
I10
aI23
asg281
Nsg282
VChagigah 5b:23
p1320
sg284
(lp1321
sg286
g73
sg287
Nsg288
(lp1322
I10
aI23
asg290
Nsg291
g1320
sg292
(lp1323
sg294
g253
sg295
Nsg296
Nsg297
Nsbag2
(g3
g4
Ntp1324
Rp1325
(dp1326
g8
g11
sg275
Nsg276
(dp1327
sg278
Nsg26
g29
sg279
(lp1328
I10
aI24
asg281
Nsg282
VChagigah 5b:24
p1329
sg284
(lp1330
sg286
g73
sg287
Nsg288
(lp1331
I10
aI24
asg290
Nsg291
g1329
sg292
(lp1332
sg294
g253
sg295
Nsg296
Nsg297
Nsbag2
(g3
g4
Ntp1333
Rp1334
(dp1335
g8
g11
sg275
Nsg276
(dp1336
sg278
Nsg26
g29
sg279
(lp1337
I11
aI1
asg281
Nsg282
VChagigah 6a:1
p1338
sg284
(lp1339
sg286
g73
sg287
Nsg288
(lp1340
I11
aI1
asg290
Nsg291
g1338
sg292
(lp1341
sg294
g253
sg295
Nsg296
Nsg297
Nsbag2
(g3
g4
Ntp1342
Rp1343
(dp1344
g8
g11
sg275
Nsg276
(dp1345
sg278
Nsg26
g29
sg279
(lp1346
I11
aI2
asg281
Nsg282
VChagigah 6a:2
p1347
sg284
(lp1348
sg286
g73
sg287
Nsg288
(lp1349
I11
aI2
asg290
Nsg291
g1347
sg292
(lp1350
sg294
g253
sg295
Nsg296
Nsg297
Nsbag2
(g3
g4
Ntp1351
Rp1352
(dp1353
g8
g11
sg275
Nsg276
(dp1354
sg278
Nsg26
g29
sg279
(lp1355
I11
aI3
asg281
Nsg282
VChagigah 6a:3
p1356
sg284
(lp1357
sg286
g73
sg287
Nsg288
(lp1358
I11
aI3
asg290
Nsg291
g1356
sg292
(lp1359
sg294
g253
sg295
Nsg296
Nsg297
Nsbag2
(g3
g4
Ntp1360
Rp1361
(dp1362
g8
g11
sg275
Nsg276
(dp1363
sg278
Nsg26
g29
sg279
(lp1364
I11
aI4
asg281
Nsg282
VChagigah 6a:4
p1365
sg284
(lp1366
sg286
g73
sg287
Nsg288
(lp1367
I11
aI4
asg290
Nsg291
g1365
sg292
(lp1368
sg294
g253
sg295
Nsg296
Nsg297
Nsbag2
(g3
g4
Ntp1369
Rp1370
(dp1371
g8
g11
sg275
Nsg276
(dp1372
sg278
Nsg26
g29
sg279
(lp1373
I11
aI5
asg281
Nsg282
VChagigah 6a:5
p1374
sg284
(lp1375
sg286
g73
sg287
Nsg288
(lp1376
I11
aI5
asg290
Nsg291
g1374
sg292
(lp1377
sg294
g253
sg295
Nsg296
Nsg297
Nsbag2
(g3
g4
Ntp1378
Rp1379
(dp1380
g8
g11
sg275
Nsg276
(dp1381
sg278
Nsg26
g29
sg279
(lp1382
I11
aI6
asg281
Nsg282
VChagigah 6a:6
p1383
sg284
(lp1384
sg286
g73
sg287
Nsg288
(lp1385
I11
aI6
asg290
Nsg291
g1383
sg292
(lp1386
sg294
g253
sg295
Nsg296
Nsg297
Nsbag2
(g3
g4
Ntp1387
Rp1388
(dp1389
g8
g11
sg275
Nsg276
(dp1390
sg278
Nsg26
g29
sg279
(lp1391
I11
aI7
asg281
Nsg282
VChagigah 6a:7
p1392
sg284
(lp1393
sg286
g73
sg287
Nsg288
(lp1394
I11
aI7
asg290
Nsg291
g1392
sg292
(lp1395
sg294
g253
sg295
Nsg296
Nsg297
Nsbag2
(g3
g4
Ntp1396
Rp1397
(dp1398
g8
g11
sg275
Nsg276
(dp1399
sg278
Nsg26
g29
sg279
(lp1400
I11
aI8
asg281
Nsg282
VChagigah 6a:8
p1401
sg284
(lp1402
sg286
g73
sg287
Nsg288
(lp1403
I11
aI8
asg290
Nsg291
g1401
sg292
(lp1404
sg294
g253
sg295
Nsg296
Nsg297
Nsbag2
(g3
g4
Ntp1405
Rp1406
(dp1407
g8
g11
sg275
Nsg276
(dp1408
sg278
Nsg26
g29
sg279
(lp1409
I11
aI9
asg281
Nsg282
VChagigah 6a:9
p1410
sg284
(lp1411
sg286
g73
sg287
Nsg288
(lp1412
I11
aI9
asg290
Nsg291
g1410
sg292
(lp1413
sg294
g253
sg295
Nsg296
Nsg297
Nsbag2
(g3
g4
Ntp1414
Rp1415
(dp1416
g8
g11
sg275
Nsg276
(dp1417
sg278
Nsg26
g29
sg279
(lp1418
I11
aI10
asg281
Nsg282
VChagigah 6a:10
p1419
sg284
(lp1420
sg286
g73
sg287
Nsg288
(lp1421
I11
aI10
asg290
Nsg291
g1419
sg292
(lp1422
sg294
g253
sg295
Nsg296
Nsg297
Nsbag2
(g3
g4
Ntp1423
Rp1424
(dp1425
g8
g11
sg275
Nsg276
(dp1426
sg278
Nsg26
g29
sg279
(lp1427
I11
aI11
asg281
Nsg282
VChagigah 6a:11
p1428
sg284
(lp1429
sg286
g73
sg287
Nsg288
(lp1430
I11
aI11
asg290
Nsg291
g1428
sg292
(lp1431
sg294
g253
sg295
Nsg296
Nsg297
Nsbag2
(g3
g4
Ntp1432
Rp1433
(dp1434
g8
g11
sg275
Nsg276
(dp1435
sg278
Nsg26
g29
sg279
(lp1436
I11
aI12
asg281
Nsg282
VChagigah 6a:12
p1437
sg284
(lp1438
sg286
g73
sg287
Nsg288
(lp1439
I11
aI12
asg290
Nsg291
g1437
sg292
(lp1440
sg294
g253
sg295
Nsg296
Nsg297
Nsbag2
(g3
g4
Ntp1441
Rp1442
(dp1443
g8
g11
sg275
Nsg276
(dp1444
sg278
Nsg26
g29
sg279
(lp1445
I11
aI13
asg281
Nsg282
VChagigah 6a:13
p1446
sg284
(lp1447
sg286
g73
sg287
Nsg288
(lp1448
I11
aI13
asg290
Nsg291
g1446
sg292
(lp1449
sg294
g253
sg295
Nsg296
Nsg297
Nsbag2
(g3
g4
Ntp1450
Rp1451
(dp1452
g8
g11
sg275
Nsg276
(dp1453
sg278
Nsg26
g29
sg279
(lp1454
I11
aI14
asg281
Nsg282
VChagigah 6a:14
p1455
sg284
(lp1456
sg286
g73
sg287
Nsg288
(lp1457
I11
aI14
asg290
Nsg291
g1455
sg292
(lp1458
sg294
g253
sg295
Nsg296
Nsg297
Nsbag2
(g3
g4
Ntp1459
Rp1460
(dp1461
g8
g11
sg275
Nsg276
(dp1462
sg278
Nsg26
g29
sg279
(lp1463
I11
aI15
asg281
Nsg282
VChagigah 6a:15
p1464
sg284
(lp1465
sg286
g73
sg287
Nsg288
(lp1466
I11
aI15
asg290
Nsg291
g1464
sg292
(lp1467
sg294
g253
sg295
Nsg296
Nsg297
Nsbag2
(g3
g4
Ntp1468
Rp1469
(dp1470
g8
g11
sg275
Nsg276
(dp1471
sg278
Nsg26
g29
sg279
(lp1472
I11
aI16
asg281
Nsg282
VChagigah 6a:16
p1473
sg284
(lp1474
sg286
g73
sg287
Nsg288
(lp1475
I11
aI16
asg290
Nsg291
g1473
sg292
(lp1476
sg294
g253
sg295
Nsg296
Nsg297
Nsbag2
(g3
g4
Ntp1477
Rp1478
(dp1479
g8
g11
sg275
Nsg276
(dp1480
sg278
Nsg26
g29
sg279
(lp1481
I11
aI17
asg281
Nsg282
VChagigah 6a:17
p1482
sg284
(lp1483
sg286
g73
sg287
Nsg288
(lp1484
I11
aI17
asg290
Nsg291
g1482
sg292
(lp1485
sg294
g253
sg295
Nsg296
Nsg297
Nsbag2
(g3
g4
Ntp1486
Rp1487
(dp1488
g8
g11
sg275
Nsg276
(dp1489
sg278
Nsg26
g29
sg279
(lp1490
I12
aI1
asg281
Nsg282
VChagigah 6b:1
p1491
sg284
(lp1492
sg286
g73
sg287
Nsg288
(lp1493
I12
aI1
asg290
Nsg291
g1491
sg292
(lp1494
sg294
g253
sg295
Nsg296
Nsg297
Nsbag2
(g3
g4
Ntp1495
Rp1496
(dp1497
g8
g11
sg275
Nsg276
(dp1498
sg278
Nsg26
g29
sg279
(lp1499
I12
aI2
asg281
Nsg282
VChagigah 6b:2
p1500
sg284
(lp1501
sg286
g73
sg287
Nsg288
(lp1502
I12
aI2
asg290
Nsg291
g1500
sg292
(lp1503
sg294
g253
sg295
Nsg296
Nsg297
Nsbag2
(g3
g4
Ntp1504
Rp1505
(dp1506
g8
g11
sg275
Nsg276
(dp1507
sg278
Nsg26
g29
sg279
(lp1508
I12
aI3
asg281
Nsg282
VChagigah 6b:3
p1509
sg284
(lp1510
sg286
g73
sg287
Nsg288
(lp1511
I12
aI3
asg290
Nsg291
g1509
sg292
(lp1512
sg294
g253
sg295
Nsg296
Nsg297
Nsbag2
(g3
g4
Ntp1513
Rp1514
(dp1515
g8
g11
sg275
Nsg276
(dp1516
sg278
Nsg26
g29
sg279
(lp1517
I12
aI4
asg281
Nsg282
VChagigah 6b:4
p1518
sg284
(lp1519
sg286
g73
sg287
Nsg288
(lp1520
I12
aI4
asg290
Nsg291
g1518
sg292
(lp1521
sg294
g253
sg295
Nsg296
Nsg297
Nsbag2
(g3
g4
Ntp1522
Rp1523
(dp1524
g8
g11
sg275
Nsg276
(dp1525
sg278
Nsg26
g29
sg279
(lp1526
I12
aI5
asg281
Nsg282
VChagigah 6b:5
p1527
sg284
(lp1528
sg286
g73
sg287
Nsg288
(lp1529
I12
aI5
asg290
Nsg291
g1527
sg292
(lp1530
sg294
g253
sg295
Nsg296
Nsg297
Nsbag2
(g3
g4
Ntp1531
Rp1532
(dp1533
g8
g11
sg275
Nsg276
(dp1534
sg278
Nsg26
g29
sg279
(lp1535
I12
aI6
asg281
Nsg282
VChagigah 6b:6
p1536
sg284
(lp1537
sg286
g73
sg287
Nsg288
(lp1538
I12
aI6
asg290
Nsg291
g1536
sg292
(lp1539
sg294
g253
sg295
Nsg296
Nsg297
Nsbag2
(g3
g4
Ntp1540
Rp1541
(dp1542
g8
g11
sg275
Nsg276
(dp1543
sg278
Nsg26
g29
sg279
(lp1544
I12
aI7
asg281
Nsg282
VChagigah 6b:7
p1545
sg284
(lp1546
sg286
g73
sg287
Nsg288
(lp1547
I12
aI7
asg290
Nsg291
g1545
sg292
(lp1548
sg294
g253
sg295
Nsg296
Nsg297
Nsbag2
(g3
g4
Ntp1549
Rp1550
(dp1551
g8
g11
sg275
Nsg276
(dp1552
sg278
Nsg26
g29
sg279
(lp1553
I12
aI8
asg281
Nsg282
VChagigah 6b:8
p1554
sg284
(lp1555
sg286
g73
sg287
Nsg288
(lp1556
I12
aI8
asg290
Nsg291
g1554
sg292
(lp1557
sg294
g253
sg295
Nsg296
Nsg297
Nsbag2
(g3
g4
Ntp1558
Rp1559
(dp1560
g8
g11
sg275
Nsg276
(dp1561
sg278
Nsg26
g29
sg279
(lp1562
I12
aI9
asg281
Nsg282
VChagigah 6b:9
p1563
sg284
(lp1564
sg286
g73
sg287
Nsg288
(lp1565
I12
aI9
asg290
Nsg291
g1563
sg292
(lp1566
sg294
g253
sg295
Nsg296
Nsg297
Nsbag2
(g3
g4
Ntp1567
Rp1568
(dp1569
g8
g11
sg275
Nsg276
(dp1570
sg278
Nsg26
g29
sg279
(lp1571
I12
aI10
asg281
Nsg282
VChagigah 6b:10
p1572
sg284
(lp1573
sg286
g73
sg287
Nsg288
(lp1574
I12
aI10
asg290
Nsg291
g1572
sg292
(lp1575
sg294
g253
sg295
Nsg296
Nsg297
Nsbag2
(g3
g4
Ntp1576
Rp1577
(dp1578
g8
g11
sg275
Nsg276
(dp1579
sg278
Nsg26
g29
sg279
(lp1580
I12
aI11
asg281
Nsg282
VChagigah 6b:11
p1581
sg284
(lp1582
sg286
g73
sg287
Nsg288
(lp1583
I12
aI11
asg290
Nsg291
g1581
sg292
(lp1584
sg294
g253
sg295
Nsg296
Nsg297
Nsbag2
(g3
g4
Ntp1585
Rp1586
(dp1587
g8
g11
sg275
Nsg276
(dp1588
sg278
Nsg26
g29
sg279
(lp1589
I12
aI12
asg281
Nsg282
VChagigah 6b:12
p1590
sg284
(lp1591
sg286
g73
sg287
Nsg288
(lp1592
I12
aI12
asg290
Nsg291
g1590
sg292
(lp1593
sg294
g253
sg295
Nsg296
Nsg297
Nsbag2
(g3
g4
Ntp1594
Rp1595
(dp1596
g8
g11
sg275
Nsg276
(dp1597
sg278
Nsg26
g29
sg279
(lp1598
I12
aI13
asg281
Nsg282
VChagigah 6b:13
p1599
sg284
(lp1600
sg286
g73
sg287
Nsg288
(lp1601
I12
aI13
asg290
Nsg291
g1599
sg292
(lp1602
sg294
g253
sg295
Nsg296
Nsg297
Nsbag2
(g3
g4
Ntp1603
Rp1604
(dp1605
g8
g11
sg275
Nsg276
(dp1606
sg278
Nsg26
g29
sg279
(lp1607
I12
aI14
asg281
Nsg282
VChagigah 6b:14
p1608
sg284
(lp1609
sg286
g73
sg287
Nsg288
(lp1610
I12
aI14
asg290
Nsg291
g1608
sg292
(lp1611
sg294
g253
sg295
Nsg296
Nsg297
Nsbag2
(g3
g4
Ntp1612
Rp1613
(dp1614
g8
g11
sg275
Nsg276
(dp1615
sg278
Nsg26
g29
sg279
(lp1616
I12
aI15
asg281
Nsg282
VChagigah 6b:15
p1617
sg284
(lp1618
sg286
g73
sg287
Nsg288
(lp1619
I12
aI15
asg290
Nsg291
g1617
sg292
(lp1620
sg294
g253
sg295
Nsg296
Nsg297
Nsbag2
(g3
g4
Ntp1621
Rp1622
(dp1623
g8
g11
sg275
Nsg276
(dp1624
sg278
Nsg26
g29
sg279
(lp1625
I13
aI1
asg281
Nsg282
VChagigah 7a:1
p1626
sg284
(lp1627
sg286
g73
sg287
Nsg288
(lp1628
I13
aI1
asg290
Nsg291
g1626
sg292
(lp1629
sg294
g253
sg295
Nsg296
Nsg297
Nsbag2
(g3
g4
Ntp1630
Rp1631
(dp1632
g8
g11
sg275
Nsg276
(dp1633
sg278
Nsg26
g29
sg279
(lp1634
I13
aI2
asg281
Nsg282
VChagigah 7a:2
p1635
sg284
(lp1636
sg286
g73
sg287
Nsg288
(lp1637
I13
aI2
asg290
Nsg291
g1635
sg292
(lp1638
sg294
g253
sg295
Nsg296
Nsg297
Nsbag2
(g3
g4
Ntp1639
Rp1640
(dp1641
g8
g11
sg275
Nsg276
(dp1642
sg278
Nsg26
g29
sg279
(lp1643
I13
aI3
asg281
Nsg282
VChagigah 7a:3
p1644
sg284
(lp1645
sg286
g73
sg287
Nsg288
(lp1646
I13
aI3
asg290
Nsg291
g1644
sg292
(lp1647
sg294
g253
sg295
Nsg296
Nsg297
Nsbag2
(g3
g4
Ntp1648
Rp1649
(dp1650
g8
g11
sg275
Nsg276
(dp1651
sg278
Nsg26
g29
sg279
(lp1652
I13
aI4
asg281
Nsg282
VChagigah 7a:4
p1653
sg284
(lp1654
sg286
g73
sg287
Nsg288
(lp1655
I13
aI4
asg290
Nsg291
g1653
sg292
(lp1656
sg294
g253
sg295
Nsg296
Nsg297
Nsbag2
(g3
g4
Ntp1657
Rp1658
(dp1659
g8
g11
sg275
Nsg276
(dp1660
sg278
Nsg26
g29
sg279
(lp1661
I13
aI5
asg281
Nsg282
VChagigah 7a:5
p1662
sg284
(lp1663
sg286
g73
sg287
Nsg288
(lp1664
I13
aI5
asg290
Nsg291
g1662
sg292
(lp1665
sg294
g253
sg295
Nsg296
Nsg297
Nsbag2
(g3
g4
Ntp1666
Rp1667
(dp1668
g8
g11
sg275
Nsg276
(dp1669
sg278
Nsg26
g29
sg279
(lp1670
I13
aI6
asg281
Nsg282
VChagigah 7a:6
p1671
sg284
(lp1672
sg286
g73
sg287
Nsg288
(lp1673
I13
aI6
asg290
Nsg291
g1671
sg292
(lp1674
sg294
g253
sg295
Nsg296
Nsg297
Nsbag2
(g3
g4
Ntp1675
Rp1676
(dp1677
g8
g11
sg275
Nsg276
(dp1678
sg278
Nsg26
g29
sg279
(lp1679
I13
aI7
asg281
Nsg282
VChagigah 7a:7
p1680
sg284
(lp1681
sg286
g73
sg287
Nsg288
(lp1682
I13
aI7
asg290
Nsg291
g1680
sg292
(lp1683
sg294
g253
sg295
Nsg296
Nsg297
Nsbag2
(g3
g4
Ntp1684
Rp1685
(dp1686
g8
g11
sg275
Nsg276
(dp1687
sg278
Nsg26
g29
sg279
(lp1688
I13
aI8
asg281
Nsg282
VChagigah 7a:8
p1689
sg284
(lp1690
sg286
g73
sg287
Nsg288
(lp1691
I13
aI8
asg290
Nsg291
g1689
sg292
(lp1692
sg294
g253
sg295
Nsg296
Nsg297
Nsbag2
(g3
g4
Ntp1693
Rp1694
(dp1695
g8
g11
sg275
Nsg276
(dp1696
sg278
Nsg26
g29
sg279
(lp1697
I13
aI9
asg281
Nsg282
VChagigah 7a:9
p1698
sg284
(lp1699
sg286
g73
sg287
Nsg288
(lp1700
I13
aI9
asg290
Nsg291
g1698
sg292
(lp1701
sg294
g253
sg295
Nsg296
Nsg297
Nsbag2
(g3
g4
Ntp1702
Rp1703
(dp1704
g8
g11
sg275
Nsg276
(dp1705
sg278
Nsg26
g29
sg279
(lp1706
I13
aI10
asg281
Nsg282
VChagigah 7a:10
p1707
sg284
(lp1708
sg286
g73
sg287
Nsg288
(lp1709
I13
aI10
asg290
Nsg291
g1707
sg292
(lp1710
sg294
g253
sg295
Nsg296
Nsg297
Nsbag2
(g3
g4
Ntp1711
Rp1712
(dp1713
g8
g11
sg275
Nsg276
(dp1714
sg278
Nsg26
g29
sg279
(lp1715
I13
aI11
asg281
Nsg282
VChagigah 7a:11
p1716
sg284
(lp1717
sg286
g73
sg287
Nsg288
(lp1718
I13
aI11
asg290
Nsg291
g1716
sg292
(lp1719
sg294
g253
sg295
Nsg296
Nsg297
Nsbag2
(g3
g4
Ntp1720
Rp1721
(dp1722
g8
g11
sg275
Nsg276
(dp1723
sg278
Nsg26
g29
sg279
(lp1724
I13
aI12
asg281
Nsg282
VChagigah 7a:12
p1725
sg284
(lp1726
sg286
g73
sg287
Nsg288
(lp1727
I13
aI12
asg290
Nsg291
g1725
sg292
(lp1728
sg294
g253
sg295
Nsg296
Nsg297
Nsbag2
(g3
g4
Ntp1729
Rp1730
(dp1731
g8
g11
sg275
Nsg276
(dp1732
sg278
Nsg26
g29
sg279
(lp1733
I13
aI13
asg281
Nsg282
VChagigah 7a:13
p1734
sg284
(lp1735
sg286
g73
sg287
Nsg288
(lp1736
I13
aI13
asg290
Nsg291
g1734
sg292
(lp1737
sg294
g253
sg295
Nsg296
Nsg297
Nsbag2
(g3
g4
Ntp1738
Rp1739
(dp1740
g8
g11
sg275
Nsg276
(dp1741
sg278
Nsg26
g29
sg279
(lp1742
I13
aI14
asg281
Nsg282
VChagigah 7a:14
p1743
sg284
(lp1744
sg286
g73
sg287
Nsg288
(lp1745
I13
aI14
asg290
Nsg291
g1743
sg292
(lp1746
sg294
g253
sg295
Nsg296
Nsg297
Nsbag2
(g3
g4
Ntp1747
Rp1748
(dp1749
g8
g11
sg275
Nsg276
(dp1750
sg278
Nsg26
g29
sg279
(lp1751
I13
aI15
asg281
Nsg282
VChagigah 7a:15
p1752
sg284
(lp1753
sg286
g73
sg287
Nsg288
(lp1754
I13
aI15
asg290
Nsg291
g1752
sg292
(lp1755
sg294
g253
sg295
Nsg296
Nsg297
Nsbag2
(g3
g4
Ntp1756
Rp1757
(dp1758
g8
g11
sg275
Nsg276
(dp1759
sg278
Nsg26
g29
sg279
(lp1760
I13
aI16
asg281
Nsg282
VChagigah 7a:16
p1761
sg284
(lp1762
sg286
g73
sg287
Nsg288
(lp1763
I13
aI16
asg290
Nsg291
g1761
sg292
(lp1764
sg294
g253
sg295
Nsg296
Nsg297
Nsbag2
(g3
g4
Ntp1765
Rp1766
(dp1767
g8
g11
sg275
Nsg276
(dp1768
sg278
Nsg26
g29
sg279
(lp1769
I13
aI17
asg281
Nsg282
VChagigah 7a:17
p1770
sg284
(lp1771
sg286
g73
sg287
Nsg288
(lp1772
I13
aI17
asg290
Nsg291
g1770
sg292
(lp1773
sg294
g253
sg295
Nsg296
Nsg297
Nsbag2
(g3
g4
Ntp1774
Rp1775
(dp1776
g8
g11
sg275
Nsg276
(dp1777
sg278
Nsg26
g29
sg279
(lp1778
I14
aI1
asg281
Nsg282
VChagigah 7b:1
p1779
sg284
(lp1780
sg286
g73
sg287
Nsg288
(lp1781
I14
aI1
asg290
Nsg291
g1779
sg292
(lp1782
sg294
g253
sg295
Nsg296
Nsg297
Nsbag2
(g3
g4
Ntp1783
Rp1784
(dp1785
g8
g11
sg275
Nsg276
(dp1786
sg278
Nsg26
g29
sg279
(lp1787
I14
aI2
asg281
Nsg282
VChagigah 7b:2
p1788
sg284
(lp1789
sg286
g73
sg287
Nsg288
(lp1790
I14
aI2
asg290
Nsg291
g1788
sg292
(lp1791
sg294
g253
sg295
Nsg296
Nsg297
Nsbag2
(g3
g4
Ntp1792
Rp1793
(dp1794
g8
g11
sg275
Nsg276
(dp1795
sg278
Nsg26
g29
sg279
(lp1796
I14
aI3
asg281
Nsg282
VChagigah 7b:3
p1797
sg284
(lp1798
sg286
g73
sg287
Nsg288
(lp1799
I14
aI3
asg290
Nsg291
g1797
sg292
(lp1800
sg294
g253
sg295
Nsg296
Nsg297
Nsbag2
(g3
g4
Ntp1801
Rp1802
(dp1803
g8
g11
sg275
Nsg276
(dp1804
sg278
Nsg26
g29
sg279
(lp1805
I14
aI4
asg281
Nsg282
VChagigah 7b:4
p1806
sg284
(lp1807
sg286
g73
sg287
Nsg288
(lp1808
I14
aI4
asg290
Nsg291
g1806
sg292
(lp1809
sg294
g253
sg295
Nsg296
Nsg297
Nsbag2
(g3
g4
Ntp1810
Rp1811
(dp1812
g8
g11
sg275
Nsg276
(dp1813
sg278
Nsg26
g29
sg279
(lp1814
I14
aI5
asg281
Nsg282
VChagigah 7b:5
p1815
sg284
(lp1816
sg286
g73
sg287
Nsg288
(lp1817
I14
aI5
asg290
Nsg291
g1815
sg292
(lp1818
sg294
g253
sg295
Nsg296
Nsg297
Nsbag2
(g3
g4
Ntp1819
Rp1820
(dp1821
g8
g11
sg275
Nsg276
(dp1822
sg278
Nsg26
g29
sg279
(lp1823
I14
aI6
asg281
Nsg282
VChagigah 7b:6
p1824
sg284
(lp1825
sg286
g73
sg287
Nsg288
(lp1826
I14
aI6
asg290
Nsg291
g1824
sg292
(lp1827
sg294
g253
sg295
Nsg296
Nsg297
Nsbag2
(g3
g4
Ntp1828
Rp1829
(dp1830
g8
g11
sg275
Nsg276
(dp1831
sg278
Nsg26
g29
sg279
(lp1832
I14
aI7
asg281
Nsg282
VChagigah 7b:7
p1833
sg284
(lp1834
sg286
g73
sg287
Nsg288
(lp1835
I14
aI7
asg290
Nsg291
g1833
sg292
(lp1836
sg294
g253
sg295
Nsg296
Nsg297
Nsbag2
(g3
g4
Ntp1837
Rp1838
(dp1839
g8
g11
sg275
Nsg276
(dp1840
sg278
Nsg26
g29
sg279
(lp1841
I14
aI8
asg281
Nsg282
VChagigah 7b:8
p1842
sg284
(lp1843
sg286
g73
sg287
Nsg288
(lp1844
I14
aI8
asg290
Nsg291
g1842
sg292
(lp1845
sg294
g253
sg295
Nsg296
Nsg297
Nsbag2
(g3
g4
Ntp1846
Rp1847
(dp1848
g8
g11
sg275
Nsg276
(dp1849
sg278
Nsg26
g29
sg279
(lp1850
I14
aI9
asg281
Nsg282
VChagigah 7b:9
p1851
sg284
(lp1852
sg286
g73
sg287
Nsg288
(lp1853
I14
aI9
asg290
Nsg291
g1851
sg292
(lp1854
sg294
g253
sg295
Nsg296
Nsg297
Nsbag2
(g3
g4
Ntp1855
Rp1856
(dp1857
g8
g11
sg275
Nsg276
(dp1858
sg278
Nsg26
g29
sg279
(lp1859
I14
aI10
asg281
Nsg282
VChagigah 7b:10
p1860
sg284
(lp1861
sg286
g73
sg287
Nsg288
(lp1862
I14
aI10
asg290
Nsg291
g1860
sg292
(lp1863
sg294
g253
sg295
Nsg296
Nsg297
Nsbag2
(g3
g4
Ntp1864
Rp1865
(dp1866
g8
g11
sg275
Nsg276
(dp1867
sg278
Nsg26
g29
sg279
(lp1868
I15
aI1
asg281
Nsg282
VChagigah 8a:1
p1869
sg284
(lp1870
sg286
g73
sg287
Nsg288
(lp1871
I15
aI1
asg290
Nsg291
g1869
sg292
(lp1872
sg294
g253
sg295
Nsg296
Nsg297
Nsbag2
(g3
g4
Ntp1873
Rp1874
(dp1875
g8
g11
sg275
Nsg276
(dp1876
sg278
Nsg26
g29
sg279
(lp1877
I15
aI2
asg281
Nsg282
VChagigah 8a:2
p1878
sg284
(lp1879
sg286
g73
sg287
Nsg288
(lp1880
I15
aI2
asg290
Nsg291
g1878
sg292
(lp1881
sg294
g253
sg295
Nsg296
Nsg297
Nsbag2
(g3
g4
Ntp1882
Rp1883
(dp1884
g8
g11
sg275
Nsg276
(dp1885
sg278
Nsg26
g29
sg279
(lp1886
I15
aI3
asg281
Nsg282
VChagigah 8a:3
p1887
sg284
(lp1888
sg286
g73
sg287
Nsg288
(lp1889
I15
aI3
asg290
Nsg291
g1887
sg292
(lp1890
sg294
g253
sg295
Nsg296
Nsg297
Nsbag2
(g3
g4
Ntp1891
Rp1892
(dp1893
g8
g11
sg275
Nsg276
(dp1894
sg278
Nsg26
g29
sg279
(lp1895
I15
aI4
asg281
Nsg282
VChagigah 8a:4
p1896
sg284
(lp1897
sg286
g73
sg287
Nsg288
(lp1898
I15
aI4
asg290
Nsg291
g1896
sg292
(lp1899
sg294
g253
sg295
Nsg296
Nsg297
Nsbag2
(g3
g4
Ntp1900
Rp1901
(dp1902
g8
g11
sg275
Nsg276
(dp1903
sg278
Nsg26
g29
sg279
(lp1904
I15
aI5
asg281
Nsg282
VChagigah 8a:5
p1905
sg284
(lp1906
sg286
g73
sg287
Nsg288
(lp1907
I15
aI5
asg290
Nsg291
g1905
sg292
(lp1908
sg294
g253
sg295
Nsg296
Nsg297
Nsbag2
(g3
g4
Ntp1909
Rp1910
(dp1911
g8
g11
sg275
Nsg276
(dp1912
sg278
Nsg26
g29
sg279
(lp1913
I15
aI6
asg281
Nsg282
VChagigah 8a:6
p1914
sg284
(lp1915
sg286
g73
sg287
Nsg288
(lp1916
I15
aI6
asg290
Nsg291
g1914
sg292
(lp1917
sg294
g253
sg295
Nsg296
Nsg297
Nsbag2
(g3
g4
Ntp1918
Rp1919
(dp1920
g8
g11
sg275
Nsg276
(dp1921
sg278
Nsg26
g29
sg279
(lp1922
I15
aI7
asg281
Nsg282
VChagigah 8a:7
p1923
sg284
(lp1924
sg286
g73
sg287
Nsg288
(lp1925
I15
aI7
asg290
Nsg291
g1923
sg292
(lp1926
sg294
g253
sg295
Nsg296
Nsg297
Nsbag2
(g3
g4
Ntp1927
Rp1928
(dp1929
g8
g11
sg275
Nsg276
(dp1930
sg278
Nsg26
g29
sg279
(lp1931
I15
aI8
asg281
Nsg282
VChagigah 8a:8
p1932
sg284
(lp1933
sg286
g73
sg287
Nsg288
(lp1934
I15
aI8
asg290
Nsg291
g1932
sg292
(lp1935
sg294
g253
sg295
Nsg296
Nsg297
Nsbag2
(g3
g4
Ntp1936
Rp1937
(dp1938
g8
g11
sg275
Nsg276
(dp1939
sg278
Nsg26
g29
sg279
(lp1940
I15
aI9
asg281
Nsg282
VChagigah 8a:9
p1941
sg284
(lp1942
sg286
g73
sg287
Nsg288
(lp1943
I15
aI9
asg290
Nsg291
g1941
sg292
(lp1944
sg294
g253
sg295
Nsg296
Nsg297
Nsbag2
(g3
g4
Ntp1945
Rp1946
(dp1947
g8
g11
sg275
Nsg276
(dp1948
sg278
Nsg26
g29
sg279
(lp1949
I15
aI10
asg281
Nsg282
VChagigah 8a:10
p1950
sg284
(lp1951
sg286
g73
sg287
Nsg288
(lp1952
I15
aI10
asg290
Nsg291
g1950
sg292
(lp1953
sg294
g253
sg295
Nsg296
Nsg297
Nsbag2
(g3
g4
Ntp1954
Rp1955
(dp1956
g8
g11
sg275
Nsg276
(dp1957
sg278
Nsg26
g29
sg279
(lp1958
I16
aI1
asg281
Nsg282
VChagigah 8b:1
p1959
sg284
(lp1960
sg286
g73
sg287
Nsg288
(lp1961
I16
aI1
asg290
Nsg291
g1959
sg292
(lp1962
sg294
g253
sg295
Nsg296
Nsg297
Nsbag2
(g3
g4
Ntp1963
Rp1964
(dp1965
g8
g11
sg275
Nsg276
(dp1966
sg278
Nsg26
g29
sg279
(lp1967
I16
aI2
asg281
Nsg282
VChagigah 8b:2
p1968
sg284
(lp1969
sg286
g73
sg287
Nsg288
(lp1970
I16
aI2
asg290
Nsg291
g1968
sg292
(lp1971
sg294
g253
sg295
Nsg296
Nsg297
Nsbag2
(g3
g4
Ntp1972
Rp1973
(dp1974
g8
g11
sg275
Nsg276
(dp1975
sg278
Nsg26
g29
sg279
(lp1976
I16
aI3
asg281
Nsg282
VChagigah 8b:3
p1977
sg284
(lp1978
sg286
g73
sg287
Nsg288
(lp1979
I16
aI3
asg290
Nsg291
g1977
sg292
(lp1980
sg294
g253
sg295
Nsg296
Nsg297
Nsbag2
(g3
g4
Ntp1981
Rp1982
(dp1983
g8
g11
sg275
Nsg276
(dp1984
sg278
Nsg26
g29
sg279
(lp1985
I16
aI4
asg281
Nsg282
VChagigah 8b:4
p1986
sg284
(lp1987
sg286
g73
sg287
Nsg288
(lp1988
I16
aI4
asg290
Nsg291
g1986
sg292
(lp1989
sg294
g253
sg295
Nsg296
Nsg297
Nsbag2
(g3
g4
Ntp1990
Rp1991
(dp1992
g8
g11
sg275
Nsg276
(dp1993
sg278
Nsg26
g29
sg279
(lp1994
I16
aI5
asg281
Nsg282
VChagigah 8b:5
p1995
sg284
(lp1996
sg286
g73
sg287
Nsg288
(lp1997
I16
aI5
asg290
Nsg291
g1995
sg292
(lp1998
sg294
g253
sg295
Nsg296
Nsg297
Nsbag2
(g3
g4
Ntp1999
Rp2000
(dp2001
g8
g11
sg275
Nsg276
(dp2002
sg278
Nsg26
g29
sg279
(lp2003
I16
aI6
asg281
Nsg282
VChagigah 8b:6
p2004
sg284
(lp2005
sg286
g73
sg287
Nsg288
(lp2006
I16
aI6
asg290
Nsg291
g2004
sg292
(lp2007
sg294
g253
sg295
Nsg296
Nsg297
Nsbag2
(g3
g4
Ntp2008
Rp2009
(dp2010
g8
g11
sg275
Nsg276
(dp2011
sg278
Nsg26
g29
sg279
(lp2012
I16
aI7
asg281
Nsg282
VChagigah 8b:7
p2013
sg284
(lp2014
sg286
g73
sg287
Nsg288
(lp2015
I16
aI7
asg290
Nsg291
g2013
sg292
(lp2016
sg294
g253
sg295
Nsg296
Nsg297
Nsbag2
(g3
g4
Ntp2017
Rp2018
(dp2019
g8
g11
sg275
Nsg276
(dp2020
sg278
Nsg26
g29
sg279
(lp2021
I16
aI8
asg281
Nsg282
VChagigah 8b:8
p2022
sg284
(lp2023
sg286
g73
sg287
Nsg288
(lp2024
I16
aI8
asg290
Nsg291
g2022
sg292
(lp2025
sg294
g253
sg295
Nsg296
Nsg297
Nsbag2
(g3
g4
Ntp2026
Rp2027
(dp2028
g8
g11
sg275
Nsg276
(dp2029
sg278
Nsg26
g29
sg279
(lp2030
I16
aI9
asg281
Nsg282
VChagigah 8b:9
p2031
sg284
(lp2032
sg286
g73
sg287
Nsg288
(lp2033
I16
aI9
asg290
Nsg291
g2031
sg292
(lp2034
sg294
g253
sg295
Nsg296
Nsg297
Nsbag2
(g3
g4
Ntp2035
Rp2036
(dp2037
g8
g11
sg275
Nsg276
(dp2038
sg278
Nsg26
g29
sg279
(lp2039
I16
aI10
asg281
Nsg282
VChagigah 8b:10
p2040
sg284
(lp2041
sg286
g73
sg287
Nsg288
(lp2042
I16
aI10
asg290
Nsg291
g2040
sg292
(lp2043
sg294
g253
sg295
Nsg296
Nsg297
Nsbag2
(g3
g4
Ntp2044
Rp2045
(dp2046
g8
g11
sg275
Nsg276
(dp2047
sg278
Nsg26
g29
sg279
(lp2048
I16
aI11
asg281
Nsg282
VChagigah 8b:11
p2049
sg284
(lp2050
sg286
g73
sg287
Nsg288
(lp2051
I16
aI11
asg290
Nsg291
g2049
sg292
(lp2052
sg294
g253
sg295
Nsg296
Nsg297
Nsbag2
(g3
g4
Ntp2053
Rp2054
(dp2055
g8
g11
sg275
Nsg276
(dp2056
sg278
Nsg26
g29
sg279
(lp2057
I16
aI12
asg281
Nsg282
VChagigah 8b:12
p2058
sg284
(lp2059
sg286
g73
sg287
Nsg288
(lp2060
I16
aI12
asg290
Nsg291
g2058
sg292
(lp2061
sg294
g253
sg295
Nsg296
Nsg297
Nsbag2
(g3
g4
Ntp2062
Rp2063
(dp2064
g8
g11
sg275
Nsg276
(dp2065
sg278
Nsg26
g29
sg279
(lp2066
I16
aI13
asg281
Nsg282
VChagigah 8b:13
p2067
sg284
(lp2068
sg286
g73
sg287
Nsg288
(lp2069
I16
aI13
asg290
Nsg291
g2067
sg292
(lp2070
sg294
g253
sg295
Nsg296
Nsg297
Nsbag2
(g3
g4
Ntp2071
Rp2072
(dp2073
g8
g11
sg275
Nsg276
(dp2074
sg278
Nsg26
g29
sg279
(lp2075
I16
aI14
asg281
Nsg282
VChagigah 8b:14
p2076
sg284
(lp2077
sg286
g73
sg287
Nsg288
(lp2078
I16
aI14
asg290
Nsg291
g2076
sg292
(lp2079
sg294
g253
sg295
Nsg296
Nsg297
Nsbag2
(g3
g4
Ntp2080
Rp2081
(dp2082
g8
g11
sg275
Nsg276
(dp2083
sg278
Nsg26
g29
sg279
(lp2084
I16
aI15
asg281
Nsg282
VChagigah 8b:15
p2085
sg284
(lp2086
sg286
g73
sg287
Nsg288
(lp2087
I16
aI15
asg290
Nsg291
g2085
sg292
(lp2088
sg294
g253
sg295
Nsg296
Nsg297
Nsbag2
(g3
g4
Ntp2089
Rp2090
(dp2091
g8
g11
sg275
Nsg276
(dp2092
sg278
Nsg26
g29
sg279
(lp2093
I16
aI16
asg281
Nsg282
VChagigah 8b:16
p2094
sg284
(lp2095
sg286
g73
sg287
Nsg288
(lp2096
I16
aI16
asg290
Nsg291
g2094
sg292
(lp2097
sg294
g253
sg295
Nsg296
Nsg297
Nsbag2
(g3
g4
Ntp2098
Rp2099
(dp2100
g8
g11
sg275
Nsg276
(dp2101
sg278
Nsg26
g29
sg279
(lp2102
I16
aI17
asg281
Nsg282
VChagigah 8b:17
p2103
sg284
(lp2104
sg286
g73
sg287
Nsg288
(lp2105
I16
aI17
asg290
Nsg291
g2103
sg292
(lp2106
sg294
g253
sg295
Nsg296
Nsg297
Nsbag2
(g3
g4
Ntp2107
Rp2108
(dp2109
g8
g11
sg275
Nsg276
(dp2110
sg278
Nsg26
g29
sg279
(lp2111
I16
aI18
asg281
Nsg282
VChagigah 8b:18
p2112
sg284
(lp2113
sg286
g73
sg287
Nsg288
(lp2114
I16
aI18
asg290
Nsg291
g2112
sg292
(lp2115
sg294
g253
sg295
Nsg296
Nsg297
Nsbag2
(g3
g4
Ntp2116
Rp2117
(dp2118
g8
g11
sg275
Nsg276
(dp2119
sg278
Nsg26
g29
sg279
(lp2120
I17
aI1
asg281
Nsg282
VChagigah 9a:1
p2121
sg284
(lp2122
sg286
g73
sg287
Nsg288
(lp2123
I17
aI1
asg290
Nsg291
g2121
sg292
(lp2124
sg294
g253
sg295
Nsg296
Nsg297
Nsbag2
(g3
g4
Ntp2125
Rp2126
(dp2127
g8
g11
sg275
Nsg276
(dp2128
sg278
Nsg26
g29
sg279
(lp2129
I17
aI2
asg281
Nsg282
VChagigah 9a:2
p2130
sg284
(lp2131
sg286
g73
sg287
Nsg288
(lp2132
I17
aI2
asg290
Nsg291
g2130
sg292
(lp2133
sg294
g253
sg295
Nsg296
Nsg297
Nsbag2
(g3
g4
Ntp2134
Rp2135
(dp2136
g8
g11
sg275
Nsg276
(dp2137
sg278
Nsg26
g29
sg279
(lp2138
I17
aI3
asg281
Nsg282
VChagigah 9a:3
p2139
sg284
(lp2140
sg286
g73
sg287
Nsg288
(lp2141
I17
aI3
asg290
Nsg291
g2139
sg292
(lp2142
sg294
g253
sg295
Nsg296
Nsg297
Nsbag2
(g3
g4
Ntp2143
Rp2144
(dp2145
g8
g11
sg275
Nsg276
(dp2146
sg278
Nsg26
g29
sg279
(lp2147
I17
aI4
asg281
Nsg282
VChagigah 9a:4
p2148
sg284
(lp2149
sg286
g73
sg287
Nsg288
(lp2150
I17
aI4
asg290
Nsg291
g2148
sg292
(lp2151
sg294
g253
sg295
Nsg296
Nsg297
Nsbag2
(g3
g4
Ntp2152
Rp2153
(dp2154
g8
g11
sg275
Nsg276
(dp2155
sg278
Nsg26
g29
sg279
(lp2156
I17
aI5
asg281
Nsg282
VChagigah 9a:5
p2157
sg284
(lp2158
sg286
g73
sg287
Nsg288
(lp2159
I17
aI5
asg290
Nsg291
g2157
sg292
(lp2160
sg294
g253
sg295
Nsg296
Nsg297
Nsbag2
(g3
g4
Ntp2161
Rp2162
(dp2163
g8
g11
sg275
Nsg276
(dp2164
sg278
Nsg26
g29
sg279
(lp2165
I17
aI6
asg281
Nsg282
VChagigah 9a:6
p2166
sg284
(lp2167
sg286
g73
sg287
Nsg288
(lp2168
I17
aI6
asg290
Nsg291
g2166
sg292
(lp2169
sg294
g253
sg295
Nsg296
Nsg297
Nsbag2
(g3
g4
Ntp2170
Rp2171
(dp2172
g8
g11
sg275
Nsg276
(dp2173
sg278
Nsg26
g29
sg279
(lp2174
I17
aI7
asg281
Nsg282
VChagigah 9a:7
p2175
sg284
(lp2176
sg286
g73
sg287
Nsg288
(lp2177
I17
aI7
asg290
Nsg291
g2175
sg292
(lp2178
sg294
g253
sg295
Nsg296
Nsg297
Nsbag2
(g3
g4
Ntp2179
Rp2180
(dp2181
g8
g11
sg275
Nsg276
(dp2182
sg278
Nsg26
g29
sg279
(lp2183
I17
aI8
asg281
Nsg282
VChagigah 9a:8
p2184
sg284
(lp2185
sg286
g73
sg287
Nsg288
(lp2186
I17
aI8
asg290
Nsg291
g2184
sg292
(lp2187
sg294
g253
sg295
Nsg296
Nsg297
Nsbag2
(g3
g4
Ntp2188
Rp2189
(dp2190
g8
g11
sg275
Nsg276
(dp2191
sg278
Nsg26
g29
sg279
(lp2192
I17
aI9
asg281
Nsg282
VChagigah 9a:9
p2193
sg284
(lp2194
sg286
g73
sg287
Nsg288
(lp2195
I17
aI9
asg290
Nsg291
g2193
sg292
(lp2196
sg294
g253
sg295
Nsg296
Nsg297
Nsbag2
(g3
g4
Ntp2197
Rp2198
(dp2199
g8
g11
sg275
Nsg276
(dp2200
sg278
Nsg26
g29
sg279
(lp2201
I17
aI10
asg281
Nsg282
VChagigah 9a:10
p2202
sg284
(lp2203
sg286
g73
sg287
Nsg288
(lp2204
I17
aI10
asg290
Nsg291
g2202
sg292
(lp2205
sg294
g253
sg295
Nsg296
Nsg297
Nsbag2
(g3
g4
Ntp2206
Rp2207
(dp2208
g8
g11
sg275
Nsg276
(dp2209
sg278
Nsg26
g29
sg279
(lp2210
I17
aI11
asg281
Nsg282
VChagigah 9a:11
p2211
sg284
(lp2212
sg286
g73
sg287
Nsg288
(lp2213
I17
aI11
asg290
Nsg291
g2211
sg292
(lp2214
sg294
g253
sg295
Nsg296
Nsg297
Nsbag2
(g3
g4
Ntp2215
Rp2216
(dp2217
g8
g11
sg275
Nsg276
(dp2218
sg278
Nsg26
g29
sg279
(lp2219
I17
aI12
asg281
Nsg282
VChagigah 9a:12
p2220
sg284
(lp2221
sg286
g73
sg287
Nsg288
(lp2222
I17
aI12
asg290
Nsg291
g2220
sg292
(lp2223
sg294
g253
sg295
Nsg296
Nsg297
Nsbag2
(g3
g4
Ntp2224
Rp2225
(dp2226
g8
g11
sg275
Nsg276
(dp2227
sg278
Nsg26
g29
sg279
(lp2228
I17
aI13
asg281
Nsg282
VChagigah 9a:13
p2229
sg284
(lp2230
sg286
g73
sg287
Nsg288
(lp2231
I17
aI13
asg290
Nsg291
g2229
sg292
(lp2232
sg294
g253
sg295
Nsg296
Nsg297
Nsbag2
(g3
g4
Ntp2233
Rp2234
(dp2235
g8
g11
sg275
Nsg276
(dp2236
sg278
Nsg26
g29
sg279
(lp2237
I17
aI14
asg281
Nsg282
VChagigah 9a:14
p2238
sg284
(lp2239
sg286
g73
sg287
Nsg288
(lp2240
I17
aI14
asg290
Nsg291
g2238
sg292
(lp2241
sg294
g253
sg295
Nsg296
Nsg297
Nsbag2
(g3
g4
Ntp2242
Rp2243
(dp2244
g8
g11
sg275
Nsg276
(dp2245
sg278
Nsg26
g29
sg279
(lp2246
I17
aI15
asg281
Nsg282
VChagigah 9a:15
p2247
sg284
(lp2248
sg286
g73
sg287
Nsg288
(lp2249
I17
aI15
asg290
Nsg291
g2247
sg292
(lp2250
sg294
g253
sg295
Nsg296
Nsg297
Nsbag2
(g3
g4
Ntp2251
Rp2252
(dp2253
g8
g11
sg275
Nsg276
(dp2254
sg278
Nsg26
g29
sg279
(lp2255
I17
aI16
asg281
Nsg282
VChagigah 9a:16
p2256
sg284
(lp2257
sg286
g73
sg287
Nsg288
(lp2258
I17
aI16
asg290
Nsg291
g2256
sg292
(lp2259
sg294
g253
sg295
Nsg296
Nsg297
Nsbag2
(g3
g4
Ntp2260
Rp2261
(dp2262
g8
g11
sg275
Nsg276
(dp2263
sg278
Nsg26
g29
sg279
(lp2264
I17
aI17
asg281
Nsg282
VChagigah 9a:17
p2265
sg284
(lp2266
sg286
g73
sg287
Nsg288
(lp2267
I17
aI17
asg290
Nsg291
g2265
sg292
(lp2268
sg294
g253
sg295
Nsg296
Nsg297
Nsbag2
(g3
g4
Ntp2269
Rp2270
(dp2271
g8
g11
sg275
Nsg276
(dp2272
sg278
Nsg26
g29
sg279
(lp2273
I17
aI18
asg281
Nsg282
VChagigah 9a:18
p2274
sg284
(lp2275
sg286
g73
sg287
Nsg288
(lp2276
I17
aI18
asg290
Nsg291
g2274
sg292
(lp2277
sg294
g253
sg295
Nsg296
Nsg297
Nsbag2
(g3
g4
Ntp2278
Rp2279
(dp2280
g8
g11
sg275
Nsg276
(dp2281
sg278
Nsg26
g29
sg279
(lp2282
I18
aI1
asg281
Nsg282
VChagigah 9b:1
p2283
sg284
(lp2284
sg286
g73
sg287
Nsg288
(lp2285
I18
aI1
asg290
Nsg291
g2283
sg292
(lp2286
sg294
g253
sg295
Nsg296
Nsg297
Nsbag2
(g3
g4
Ntp2287
Rp2288
(dp2289
g8
g11
sg275
Nsg276
(dp2290
sg278
Nsg26
g29
sg279
(lp2291
I18
aI2
asg281
Nsg282
VChagigah 9b:2
p2292
sg284
(lp2293
sg286
g73
sg287
Nsg288
(lp2294
I18
aI2
asg290
Nsg291
g2292
sg292
(lp2295
sg294
g253
sg295
Nsg296
Nsg297
Nsbag2
(g3
g4
Ntp2296
Rp2297
(dp2298
g8
g11
sg275
Nsg276
(dp2299
sg278
Nsg26
g29
sg279
(lp2300
I18
aI3
asg281
Nsg282
VChagigah 9b:3
p2301
sg284
(lp2302
sg286
g73
sg287
Nsg288
(lp2303
I18
aI3
asg290
Nsg291
g2301
sg292
(lp2304
sg294
g253
sg295
Nsg296
Nsg297
Nsbag2
(g3
g4
Ntp2305
Rp2306
(dp2307
g8
g11
sg275
Nsg276
(dp2308
sg278
Nsg26
g29
sg279
(lp2309
I18
aI4
asg281
Nsg282
VChagigah 9b:4
p2310
sg284
(lp2311
sg286
g73
sg287
Nsg288
(lp2312
I18
aI4
asg290
Nsg291
g2310
sg292
(lp2313
sg294
g253
sg295
Nsg296
Nsg297
Nsbag2
(g3
g4
Ntp2314
Rp2315
(dp2316
g8
g11
sg275
Nsg276
(dp2317
sg278
Nsg26
g29
sg279
(lp2318
I18
aI5
asg281
Nsg282
VChagigah 9b:5
p2319
sg284
(lp2320
sg286
g73
sg287
Nsg288
(lp2321
I18
aI5
asg290
Nsg291
g2319
sg292
(lp2322
sg294
g253
sg295
Nsg296
Nsg297
Nsbag2
(g3
g4
Ntp2323
Rp2324
(dp2325
g8
g11
sg275
Nsg276
(dp2326
sg278
Nsg26
g29
sg279
(lp2327
I18
aI6
asg281
Nsg282
VChagigah 9b:6
p2328
sg284
(lp2329
sg286
g73
sg287
Nsg288
(lp2330
I18
aI6
asg290
Nsg291
g2328
sg292
(lp2331
sg294
g253
sg295
Nsg296
Nsg297
Nsbag2
(g3
g4
Ntp2332
Rp2333
(dp2334
g8
g11
sg275
Nsg276
(dp2335
sg278
Nsg26
g29
sg279
(lp2336
I18
aI7
asg281
Nsg282
VChagigah 9b:7
p2337
sg284
(lp2338
sg286
g73
sg287
Nsg288
(lp2339
I18
aI7
asg290
Nsg291
g2337
sg292
(lp2340
sg294
g253
sg295
Nsg296
Nsg297
Nsbag2
(g3
g4
Ntp2341
Rp2342
(dp2343
g8
g11
sg275
Nsg276
(dp2344
sg278
Nsg26
g29
sg279
(lp2345
I18
aI8
asg281
Nsg282
VChagigah 9b:8
p2346
sg284
(lp2347
sg286
g73
sg287
Nsg288
(lp2348
I18
aI8
asg290
Nsg291
g2346
sg292
(lp2349
sg294
g253
sg295
Nsg296
Nsg297
Nsbag2
(g3
g4
Ntp2350
Rp2351
(dp2352
g8
g11
sg275
Nsg276
(dp2353
sg278
Nsg26
g29
sg279
(lp2354
I18
aI9
asg281
Nsg282
VChagigah 9b:9
p2355
sg284
(lp2356
sg286
g73
sg287
Nsg288
(lp2357
I18
aI9
asg290
Nsg291
g2355
sg292
(lp2358
sg294
g253
sg295
Nsg296
Nsg297
Nsbag2
(g3
g4
Ntp2359
Rp2360
(dp2361
g8
g11
sg275
Nsg276
(dp2362
sg278
Nsg26
g29
sg279
(lp2363
I18
aI10
asg281
Nsg282
VChagigah 9b:10
p2364
sg284
(lp2365
sg286
g73
sg287
Nsg288
(lp2366
I18
aI10
asg290
Nsg291
g2364
sg292
(lp2367
sg294
g253
sg295
Nsg296
Nsg297
Nsbag2
(g3
g4
Ntp2368
Rp2369
(dp2370
g8
g11
sg275
Nsg276
(dp2371
sg278
Nsg26
g29
sg279
(lp2372
I18
aI11
asg281
Nsg282
VChagigah 9b:11
p2373
sg284
(lp2374
sg286
g73
sg287
Nsg288
(lp2375
I18
aI11
asg290
Nsg291
g2373
sg292
(lp2376
sg294
g253
sg295
Nsg296
Nsg297
Nsbag2
(g3
g4
Ntp2377
Rp2378
(dp2379
g8
g11
sg275
Nsg276
(dp2380
sg278
Nsg26
g29
sg279
(lp2381
I18
aI12
asg281
Nsg282
VChagigah 9b:12
p2382
sg284
(lp2383
sg286
g73
sg287
Nsg288
(lp2384
I18
aI12
asg290
Nsg291
g2382
sg292
(lp2385
sg294
g253
sg295
Nsg296
Nsg297
Nsbag2
(g3
g4
Ntp2386
Rp2387
(dp2388
g8
g11
sg275
Nsg276
(dp2389
sg278
Nsg26
g29
sg279
(lp2390
I18
aI13
asg281
Nsg282
VChagigah 9b:13
p2391
sg284
(lp2392
sg286
g73
sg287
Nsg288
(lp2393
I18
aI13
asg290
Nsg291
g2391
sg292
(lp2394
sg294
g253
sg295
Nsg296
Nsg297
Nsbag2
(g3
g4
Ntp2395
Rp2396
(dp2397
g8
g11
sg275
Nsg276
(dp2398
sg278
Nsg26
g29
sg279
(lp2399
I18
aI14
asg281
Nsg282
VChagigah 9b:14
p2400
sg284
(lp2401
sg286
g73
sg287
Nsg288
(lp2402
I18
aI14
asg290
Nsg291
g2400
sg292
(lp2403
sg294
g253
sg295
Nsg296
Nsg297
Nsbag2
(g3
g4
Ntp2404
Rp2405
(dp2406
g8
g11
sg275
Nsg276
(dp2407
sg278
Nsg26
g29
sg279
(lp2408
I18
aI15
asg281
Nsg282
VChagigah 9b:15
p2409
sg284
(lp2410
sg286
g73
sg287
Nsg288
(lp2411
I18
aI15
asg290
Nsg291
g2409
sg292
(lp2412
sg294
g253
sg295
Nsg296
Nsg297
Nsbag2
(g3
g4
Ntp2413
Rp2414
(dp2415
g8
g11
sg275
Nsg276
(dp2416
sg278
Nsg26
g29
sg279
(lp2417
I18
aI16
asg281
Nsg282
VChagigah 9b:16
p2418
sg284
(lp2419
sg286
g73
sg287
Nsg288
(lp2420
I18
aI16
asg290
Nsg291
g2418
sg292
(lp2421
sg294
g253
sg295
Nsg296
Nsg297
Nsbag2
(g3
g4
Ntp2422
Rp2423
(dp2424
g8
g11
sg275
Nsg276
(dp2425
sg278
Nsg26
g29
sg279
(lp2426
I18
aI17
asg281
Nsg282
VChagigah 9b:17
p2427
sg284
(lp2428
sg286
g73
sg287
Nsg288
(lp2429
I18
aI17
asg290
Nsg291
g2427
sg292
(lp2430
sg294
g253
sg295
Nsg296
Nsg297
Nsbag2
(g3
g4
Ntp2431
Rp2432
(dp2433
g8
g11
sg275
Nsg276
(dp2434
sg278
Nsg26
g29
sg279
(lp2435
I19
aI1
asg281
Nsg282
VChagigah 10a:1
p2436
sg284
(lp2437
sg286
g73
sg287
Nsg288
(lp2438
I19
aI1
asg290
Nsg291
g2436
sg292
(lp2439
sg294
g253
sg295
Nsg296
Nsg297
Nsbag2
(g3
g4
Ntp2440
Rp2441
(dp2442
g8
g11
sg275
Nsg276
(dp2443
sg278
Nsg26
g29
sg279
(lp2444
I19
aI2
asg281
Nsg282
VChagigah 10a:2
p2445
sg284
(lp2446
sg286
g73
sg287
Nsg288
(lp2447
I19
aI2
asg290
Nsg291
g2445
sg292
(lp2448
sg294
g253
sg295
Nsg296
Nsg297
Nsbag2
(g3
g4
Ntp2449
Rp2450
(dp2451
g8
g11
sg275
Nsg276
(dp2452
sg278
Nsg26
g29
sg279
(lp2453
I19
aI3
asg281
Nsg282
VChagigah 10a:3
p2454
sg284
(lp2455
sg286
g73
sg287
Nsg288
(lp2456
I19
aI3
asg290
Nsg291
g2454
sg292
(lp2457
sg294
g253
sg295
Nsg296
Nsg297
Nsbag2
(g3
g4
Ntp2458
Rp2459
(dp2460
g8
g11
sg275
Nsg276
(dp2461
sg278
Nsg26
g29
sg279
(lp2462
I19
aI4
asg281
Nsg282
VChagigah 10a:4
p2463
sg284
(lp2464
sg286
g73
sg287
Nsg288
(lp2465
I19
aI4
asg290
Nsg291
g2463
sg292
(lp2466
sg294
g253
sg295
Nsg296
Nsg297
Nsbag2
(g3
g4
Ntp2467
Rp2468
(dp2469
g8
g11
sg275
Nsg276
(dp2470
sg278
Nsg26
g29
sg279
(lp2471
I19
aI5
asg281
Nsg282
VChagigah 10a:5
p2472
sg284
(lp2473
sg286
g73
sg287
Nsg288
(lp2474
I19
aI5
asg290
Nsg291
g2472
sg292
(lp2475
sg294
g253
sg295
Nsg296
Nsg297
Nsbag2
(g3
g4
Ntp2476
Rp2477
(dp2478
g8
g11
sg275
Nsg276
(dp2479
sg278
Nsg26
g29
sg279
(lp2480
I19
aI6
asg281
Nsg282
VChagigah 10a:6
p2481
sg284
(lp2482
sg286
g73
sg287
Nsg288
(lp2483
I19
aI6
asg290
Nsg291
g2481
sg292
(lp2484
sg294
g253
sg295
Nsg296
Nsg297
Nsbag2
(g3
g4
Ntp2485
Rp2486
(dp2487
g8
g11
sg275
Nsg276
(dp2488
sg278
Nsg26
g29
sg279
(lp2489
I19
aI7
asg281
Nsg282
VChagigah 10a:7
p2490
sg284
(lp2491
sg286
g73
sg287
Nsg288
(lp2492
I19
aI7
asg290
Nsg291
g2490
sg292
(lp2493
sg294
g253
sg295
Nsg296
Nsg297
Nsbag2
(g3
g4
Ntp2494
Rp2495
(dp2496
g8
g11
sg275
Nsg276
(dp2497
sg278
Nsg26
g29
sg279
(lp2498
I19
aI8
asg281
Nsg282
VChagigah 10a:8
p2499
sg284
(lp2500
sg286
g73
sg287
Nsg288
(lp2501
I19
aI8
asg290
Nsg291
g2499
sg292
(lp2502
sg294
g253
sg295
Nsg296
Nsg297
Nsbag2
(g3
g4
Ntp2503
Rp2504
(dp2505
g8
g11
sg275
Nsg276
(dp2506
sg278
Nsg26
g29
sg279
(lp2507
I19
aI9
asg281
Nsg282
VChagigah 10a:9
p2508
sg284
(lp2509
sg286
g73
sg287
Nsg288
(lp2510
I19
aI9
asg290
Nsg291
g2508
sg292
(lp2511
sg294
g253
sg295
Nsg296
Nsg297
Nsbag2
(g3
g4
Ntp2512
Rp2513
(dp2514
g8
g11
sg275
Nsg276
(dp2515
sg278
Nsg26
g29
sg279
(lp2516
I19
aI10
asg281
Nsg282
VChagigah 10a:10
p2517
sg284
(lp2518
sg286
g73
sg287
Nsg288
(lp2519
I19
aI10
asg290
Nsg291
g2517
sg292
(lp2520
sg294
g253
sg295
Nsg296
Nsg297
Nsbag2
(g3
g4
Ntp2521
Rp2522
(dp2523
g8
g11
sg275
Nsg276
(dp2524
sg278
Nsg26
g29
sg279
(lp2525
I19
aI11
asg281
Nsg282
VChagigah 10a:11
p2526
sg284
(lp2527
sg286
g73
sg287
Nsg288
(lp2528
I19
aI11
asg290
Nsg291
g2526
sg292
(lp2529
sg294
g253
sg295
Nsg296
Nsg297
Nsbag2
(g3
g4
Ntp2530
Rp2531
(dp2532
g8
g11
sg275
Nsg276
(dp2533
sg278
Nsg26
g29
sg279
(lp2534
I19
aI12
asg281
Nsg282
VChagigah 10a:12
p2535
sg284
(lp2536
sg286
g73
sg287
Nsg288
(lp2537
I19
aI12
asg290
Nsg291
g2535
sg292
(lp2538
sg294
g253
sg295
Nsg296
Nsg297
Nsbag2
(g3
g4
Ntp2539
Rp2540
(dp2541
g8
g11
sg275
Nsg276
(dp2542
sg278
Nsg26
g29
sg279
(lp2543
I19
aI13
asg281
Nsg282
VChagigah 10a:13
p2544
sg284
(lp2545
sg286
g73
sg287
Nsg288
(lp2546
I19
aI13
asg290
Nsg291
g2544
sg292
(lp2547
sg294
g253
sg295
Nsg296
Nsg297
Nsbag2
(g3
g4
Ntp2548
Rp2549
(dp2550
g8
g11
sg275
Nsg276
(dp2551
sg278
Nsg26
g29
sg279
(lp2552
I19
aI14
asg281
Nsg282
VChagigah 10a:14
p2553
sg284
(lp2554
sg286
g73
sg287
Nsg288
(lp2555
I19
aI14
asg290
Nsg291
g2553
sg292
(lp2556
sg294
g253
sg295
Nsg296
Nsg297
Nsbag2
(g3
g4
Ntp2557
Rp2558
(dp2559
g8
g11
sg275
Nsg276
(dp2560
sg278
Nsg26
g29
sg279
(lp2561
I19
aI15
asg281
Nsg282
VChagigah 10a:15
p2562
sg284
(lp2563
sg286
g73
sg287
Nsg288
(lp2564
I19
aI15
asg290
Nsg291
g2562
sg292
(lp2565
sg294
g253
sg295
Nsg296
Nsg297
Nsbag2
(g3
g4
Ntp2566
Rp2567
(dp2568
g8
g11
sg275
Nsg276
(dp2569
sg278
Nsg26
g29
sg279
(lp2570
I19
aI16
asg281
Nsg282
VChagigah 10a:16
p2571
sg284
(lp2572
sg286
g73
sg287
Nsg288
(lp2573
I19
aI16
asg290
Nsg291
g2571
sg292
(lp2574
sg294
g253
sg295
Nsg296
Nsg297
Nsbag2
(g3
g4
Ntp2575
Rp2576
(dp2577
g8
g11
sg275
Nsg276
(dp2578
sg278
Nsg26
g29
sg279
(lp2579
I19
aI17
asg281
Nsg282
VChagigah 10a:17
p2580
sg284
(lp2581
sg286
g73
sg287
Nsg288
(lp2582
I19
aI17
asg290
Nsg291
g2580
sg292
(lp2583
sg294
g253
sg295
Nsg296
Nsg297
Nsbag2
(g3
g4
Ntp2584
Rp2585
(dp2586
g8
g11
sg275
Nsg276
(dp2587
sg278
Nsg26
g29
sg279
(lp2588
I20
aI1
asg281
Nsg282
VChagigah 10b:1
p2589
sg284
(lp2590
sg286
g73
sg287
Nsg288
(lp2591
I20
aI1
asg290
Nsg291
g2589
sg292
(lp2592
sg294
g253
sg295
Nsg296
Nsg297
Nsbag2
(g3
g4
Ntp2593
Rp2594
(dp2595
g8
g11
sg275
Nsg276
(dp2596
sg278
Nsg26
g29
sg279
(lp2597
I20
aI2
asg281
Nsg282
VChagigah 10b:2
p2598
sg284
(lp2599
sg286
g73
sg287
Nsg288
(lp2600
I20
aI2
asg290
Nsg291
g2598
sg292
(lp2601
sg294
g253
sg295
Nsg296
Nsg297
Nsbag2
(g3
g4
Ntp2602
Rp2603
(dp2604
g8
g11
sg275
Nsg276
(dp2605
sg278
Nsg26
g29
sg279
(lp2606
I20
aI3
asg281
Nsg282
VChagigah 10b:3
p2607
sg284
(lp2608
sg286
g73
sg287
Nsg288
(lp2609
I20
aI3
asg290
Nsg291
g2607
sg292
(lp2610
sg294
g253
sg295
Nsg296
Nsg297
Nsbag2
(g3
g4
Ntp2611
Rp2612
(dp2613
g8
g11
sg275
Nsg276
(dp2614
sg278
Nsg26
g29
sg279
(lp2615
I20
aI4
asg281
Nsg282
VChagigah 10b:4
p2616
sg284
(lp2617
sg286
g73
sg287
Nsg288
(lp2618
I20
aI4
asg290
Nsg291
g2616
sg292
(lp2619
sg294
g253
sg295
Nsg296
Nsg297
Nsbag2
(g3
g4
Ntp2620
Rp2621
(dp2622
g8
g11
sg275
Nsg276
(dp2623
sg278
Nsg26
g29
sg279
(lp2624
I20
aI5
asg281
Nsg282
VChagigah 10b:5
p2625
sg284
(lp2626
sg286
g73
sg287
Nsg288
(lp2627
I20
aI5
asg290
Nsg291
g2625
sg292
(lp2628
sg294
g253
sg295
Nsg296
Nsg297
Nsbag2
(g3
g4
Ntp2629
Rp2630
(dp2631
g8
g11
sg275
Nsg276
(dp2632
sg278
Nsg26
g29
sg279
(lp2633
I20
aI6
asg281
Nsg282
VChagigah 10b:6
p2634
sg284
(lp2635
sg286
g73
sg287
Nsg288
(lp2636
I20
aI6
asg290
Nsg291
g2634
sg292
(lp2637
sg294
g253
sg295
Nsg296
Nsg297
Nsbag2
(g3
g4
Ntp2638
Rp2639
(dp2640
g8
g11
sg275
Nsg276
(dp2641
sg278
Nsg26
g29
sg279
(lp2642
I20
aI7
asg281
Nsg282
VChagigah 10b:7
p2643
sg284
(lp2644
sg286
g73
sg287
Nsg288
(lp2645
I20
aI7
asg290
Nsg291
g2643
sg292
(lp2646
sg294
g253
sg295
Nsg296
Nsg297
Nsbag2
(g3
g4
Ntp2647
Rp2648
(dp2649
g8
g11
sg275
Nsg276
(dp2650
sg278
Nsg26
g29
sg279
(lp2651
I20
aI8
asg281
Nsg282
VChagigah 10b:8
p2652
sg284
(lp2653
sg286
g73
sg287
Nsg288
(lp2654
I20
aI8
asg290
Nsg291
g2652
sg292
(lp2655
sg294
g253
sg295
Nsg296
Nsg297
Nsbag2
(g3
g4
Ntp2656
Rp2657
(dp2658
g8
g11
sg275
Nsg276
(dp2659
sg278
Nsg26
g29
sg279
(lp2660
I20
aI9
asg281
Nsg282
VChagigah 10b:9
p2661
sg284
(lp2662
sg286
g73
sg287
Nsg288
(lp2663
I20
aI9
asg290
Nsg291
g2661
sg292
(lp2664
sg294
g253
sg295
Nsg296
Nsg297
Nsbag2
(g3
g4
Ntp2665
Rp2666
(dp2667
g8
g11
sg275
Nsg276
(dp2668
sg278
Nsg26
g29
sg279
(lp2669
I20
aI10
asg281
Nsg282
VChagigah 10b:10
p2670
sg284
(lp2671
sg286
g73
sg287
Nsg288
(lp2672
I20
aI10
asg290
Nsg291
g2670
sg292
(lp2673
sg294
g253
sg295
Nsg296
Nsg297
Nsbag2
(g3
g4
Ntp2674
Rp2675
(dp2676
g8
g11
sg275
Nsg276
(dp2677
sg278
Nsg26
g29
sg279
(lp2678
I20
aI11
asg281
Nsg282
VChagigah 10b:11
p2679
sg284
(lp2680
sg286
g73
sg287
Nsg288
(lp2681
I20
aI11
asg290
Nsg291
g2679
sg292
(lp2682
sg294
g253
sg295
Nsg296
Nsg297
Nsbag2
(g3
g4
Ntp2683
Rp2684
(dp2685
g8
g11
sg275
Nsg276
(dp2686
sg278
Nsg26
g29
sg279
(lp2687
I20
aI12
asg281
Nsg282
VChagigah 10b:12
p2688
sg284
(lp2689
sg286
g73
sg287
Nsg288
(lp2690
I20
aI12
asg290
Nsg291
g2688
sg292
(lp2691
sg294
g253
sg295
Nsg296
Nsg297
Nsbag2
(g3
g4
Ntp2692
Rp2693
(dp2694
g8
g11
sg275
Nsg276
(dp2695
sg278
Nsg26
g29
sg279
(lp2696
I20
aI13
asg281
Nsg282
VChagigah 10b:13
p2697
sg284
(lp2698
sg286
g73
sg287
Nsg288
(lp2699
I20
aI13
asg290
Nsg291
g2697
sg292
(lp2700
sg294
g253
sg295
Nsg296
Nsg297
Nsbag2
(g3
g4
Ntp2701
Rp2702
(dp2703
g8
g11
sg275
Nsg276
(dp2704
sg278
Nsg26
g29
sg279
(lp2705
I20
aI14
asg281
Nsg282
VChagigah 10b:14
p2706
sg284
(lp2707
sg286
g73
sg287
Nsg288
(lp2708
I20
aI14
asg290
Nsg291
g2706
sg292
(lp2709
sg294
g253
sg295
Nsg296
Nsg297
Nsbag2
(g3
g4
Ntp2710
Rp2711
(dp2712
g8
g11
sg275
Nsg276
(dp2713
sg278
Nsg26
g29
sg279
(lp2714
I20
aI15
asg281
Nsg282
VChagigah 10b:15
p2715
sg284
(lp2716
sg286
g73
sg287
Nsg288
(lp2717
I20
aI15
asg290
Nsg291
g2715
sg292
(lp2718
sg294
g253
sg295
Nsg296
Nsg297
Nsbag2
(g3
g4
Ntp2719
Rp2720
(dp2721
g8
g11
sg275
Nsg276
(dp2722
sg278
Nsg26
g29
sg279
(lp2723
I20
aI16
asg281
Nsg282
VChagigah 10b:16
p2724
sg284
(lp2725
sg286
g73
sg287
Nsg288
(lp2726
I20
aI16
asg290
Nsg291
g2724
sg292
(lp2727
sg294
g253
sg295
Nsg296
Nsg297
Nsbag2
(g3
g4
Ntp2728
Rp2729
(dp2730
g8
g11
sg275
Nsg276
(dp2731
sg278
Nsg26
g29
sg279
(lp2732
I20
aI17
asg281
Nsg282
VChagigah 10b:17
p2733
sg284
(lp2734
sg286
g73
sg287
Nsg288
(lp2735
I20
aI17
asg290
Nsg291
g2733
sg292
(lp2736
sg294
g253
sg295
Nsg296
Nsg297
Nsbag2
(g3
g4
Ntp2737
Rp2738
(dp2739
g8
g11
sg275
Nsg276
(dp2740
sg278
Nsg26
g29
sg279
(lp2741
I21
aI1
asg281
Nsg282
VChagigah 11a:1
p2742
sg284
(lp2743
sg286
g73
sg287
Nsg288
(lp2744
I21
aI1
asg290
Nsg291
g2742
sg292
(lp2745
sg294
g253
sg295
Nsg296
Nsg297
Nsbag2
(g3
g4
Ntp2746
Rp2747
(dp2748
g8
g11
sg275
Nsg276
(dp2749
sg278
Nsg26
g29
sg279
(lp2750
I21
aI2
asg281
Nsg282
VChagigah 11a:2
p2751
sg284
(lp2752
sg286
g73
sg287
Nsg288
(lp2753
I21
aI2
asg290
Nsg291
g2751
sg292
(lp2754
sg294
g253
sg295
Nsg296
Nsg297
Nsbag2
(g3
g4
Ntp2755
Rp2756
(dp2757
g8
g11
sg275
Nsg276
(dp2758
sg278
Nsg26
g29
sg279
(lp2759
I21
aI3
asg281
Nsg282
VChagigah 11a:3
p2760
sg284
(lp2761
sg286
g73
sg287
Nsg288
(lp2762
I21
aI3
asg290
Nsg291
g2760
sg292
(lp2763
sg294
g253
sg295
Nsg296
Nsg297
Nsbag2
(g3
g4
Ntp2764
Rp2765
(dp2766
g8
g11
sg275
Nsg276
(dp2767
sg278
Nsg26
g29
sg279
(lp2768
I21
aI4
asg281
Nsg282
VChagigah 11a:4
p2769
sg284
(lp2770
sg286
g73
sg287
Nsg288
(lp2771
I21
aI4
asg290
Nsg291
g2769
sg292
(lp2772
sg294
g253
sg295
Nsg296
Nsg297
Nsbag2
(g3
g4
Ntp2773
Rp2774
(dp2775
g8
g11
sg275
Nsg276
(dp2776
sg278
Nsg26
g29
sg279
(lp2777
I21
aI5
asg281
Nsg282
VChagigah 11a:5
p2778
sg284
(lp2779
sg286
g73
sg287
Nsg288
(lp2780
I21
aI5
asg290
Nsg291
g2778
sg292
(lp2781
sg294
g253
sg295
Nsg296
Nsg297
Nsbag2
(g3
g4
Ntp2782
Rp2783
(dp2784
g8
g11
sg275
Nsg276
(dp2785
sg278
Nsg26
g29
sg279
(lp2786
I21
aI6
asg281
Nsg282
VChagigah 11a:6
p2787
sg284
(lp2788
sg286
g73
sg287
Nsg288
(lp2789
I21
aI6
asg290
Nsg291
g2787
sg292
(lp2790
sg294
g253
sg295
Nsg296
Nsg297
Nsbag2
(g3
g4
Ntp2791
Rp2792
(dp2793
g8
g11
sg275
Nsg276
(dp2794
sg278
Nsg26
g29
sg279
(lp2795
I21
aI7
asg281
Nsg282
VChagigah 11a:7
p2796
sg284
(lp2797
sg286
g73
sg287
Nsg288
(lp2798
I21
aI7
asg290
Nsg291
g2796
sg292
(lp2799
sg294
g253
sg295
Nsg296
Nsg297
Nsbag2
(g3
g4
Ntp2800
Rp2801
(dp2802
g8
g11
sg275
Nsg276
(dp2803
sg278
Nsg26
g29
sg279
(lp2804
I21
aI8
asg281
Nsg282
VChagigah 11a:8
p2805
sg284
(lp2806
sg286
g73
sg287
Nsg288
(lp2807
I21
aI8
asg290
Nsg291
g2805
sg292
(lp2808
sg294
g253
sg295
Nsg296
Nsg297
Nsbag2
(g3
g4
Ntp2809
Rp2810
(dp2811
g8
g11
sg275
Nsg276
(dp2812
sg278
Nsg26
g29
sg279
(lp2813
I21
aI9
asg281
Nsg282
VChagigah 11a:9
p2814
sg284
(lp2815
sg286
g73
sg287
Nsg288
(lp2816
I21
aI9
asg290
Nsg291
g2814
sg292
(lp2817
sg294
g253
sg295
Nsg296
Nsg297
Nsbag2
(g3
g4
Ntp2818
Rp2819
(dp2820
g8
g11
sg275
Nsg276
(dp2821
sg278
Nsg26
g29
sg279
(lp2822
I21
aI10
asg281
Nsg282
VChagigah 11a:10
p2823
sg284
(lp2824
sg286
g73
sg287
Nsg288
(lp2825
I21
aI10
asg290
Nsg291
g2823
sg292
(lp2826
sg294
g253
sg295
Nsg296
Nsg297
Nsbag2
(g3
g4
Ntp2827
Rp2828
(dp2829
g8
g11
sg275
Nsg276
(dp2830
sg278
Nsg26
g29
sg279
(lp2831
I21
aI11
asg281
Nsg282
VChagigah 11a:11
p2832
sg284
(lp2833
sg286
g73
sg287
Nsg288
(lp2834
I21
aI11
asg290
Nsg291
g2832
sg292
(lp2835
sg294
g253
sg295
Nsg296
Nsg297
Nsbag2
(g3
g4
Ntp2836
Rp2837
(dp2838
g8
g11
sg275
Nsg276
(dp2839
sg278
Nsg26
g29
sg279
(lp2840
I21
aI12
asg281
Nsg282
VChagigah 11a:12
p2841
sg284
(lp2842
sg286
g73
sg287
Nsg288
(lp2843
I21
aI12
asg290
Nsg291
g2841
sg292
(lp2844
sg294
g253
sg295
Nsg296
Nsg297
Nsbag2
(g3
g4
Ntp2845
Rp2846
(dp2847
g8
g11
sg275
Nsg276
(dp2848
sg278
Nsg26
g29
sg279
(lp2849
I21
aI13
asg281
Nsg282
VChagigah 11a:13
p2850
sg284
(lp2851
sg286
g73
sg287
Nsg288
(lp2852
I21
aI13
asg290
Nsg291
g2850
sg292
(lp2853
sg294
g253
sg295
Nsg296
Nsg297
Nsbag2
(g3
g4
Ntp2854
Rp2855
(dp2856
g8
g11
sg275
Nsg276
(dp2857
sg278
Nsg26
g29
sg279
(lp2858
I21
aI14
asg281
Nsg282
VChagigah 11a:14
p2859
sg284
(lp2860
sg286
g73
sg287
Nsg288
(lp2861
I21
aI14
asg290
Nsg291
g2859
sg292
(lp2862
sg294
g253
sg295
Nsg296
Nsg297
Nsbag2
(g3
g4
Ntp2863
Rp2864
(dp2865
g8
g11
sg275
Nsg276
(dp2866
sg278
Nsg26
g29
sg279
(lp2867
I21
aI15
asg281
Nsg282
VChagigah 11a:15
p2868
sg284
(lp2869
sg286
g73
sg287
Nsg288
(lp2870
I21
aI15
asg290
Nsg291
g2868
sg292
(lp2871
sg294
g253
sg295
Nsg296
Nsg297
Nsbag2
(g3
g4
Ntp2872
Rp2873
(dp2874
g8
g11
sg275
Nsg276
(dp2875
sg278
Nsg26
g29
sg279
(lp2876
I21
aI16
asg281
Nsg282
VChagigah 11a:16
p2877
sg284
(lp2878
sg286
g73
sg287
Nsg288
(lp2879
I21
aI16
asg290
Nsg291
g2877
sg292
(lp2880
sg294
g253
sg295
Nsg296
Nsg297
Nsbag2
(g3
g4
Ntp2881
Rp2882
(dp2883
g8
g11
sg275
Nsg276
(dp2884
sg278
Nsg26
g29
sg279
(lp2885
I22
aI1
asg281
Nsg282
VChagigah 11b:1
p2886
sg284
(lp2887
sg286
g73
sg287
Nsg288
(lp2888
I22
aI1
asg290
Nsg291
g2886
sg292
(lp2889
sg294
g253
sg295
Nsg296
Nsg297
Nsbag2
(g3
g4
Ntp2890
Rp2891
(dp2892
g8
g11
sg275
Nsg276
(dp2893
sg278
Nsg26
g29
sg279
(lp2894
I22
aI2
asg281
Nsg282
VChagigah 11b:2
p2895
sg284
(lp2896
sg286
g73
sg287
Nsg288
(lp2897
I22
aI2
asg290
Nsg291
g2895
sg292
(lp2898
sg294
g253
sg295
Nsg296
Nsg297
Nsbag2
(g3
g4
Ntp2899
Rp2900
(dp2901
g8
g11
sg275
Nsg276
(dp2902
sg278
Nsg26
g29
sg279
(lp2903
I22
aI3
asg281
Nsg282
VChagigah 11b:3
p2904
sg284
(lp2905
sg286
g73
sg287
Nsg288
(lp2906
I22
aI3
asg290
Nsg291
g2904
sg292
(lp2907
sg294
g253
sg295
Nsg296
Nsg297
Nsbag2
(g3
g4
Ntp2908
Rp2909
(dp2910
g8
g11
sg275
Nsg276
(dp2911
sg278
Nsg26
g29
sg279
(lp2912
I22
aI4
asg281
Nsg282
VChagigah 11b:4
p2913
sg284
(lp2914
sg286
g73
sg287
Nsg288
(lp2915
I22
aI4
asg290
Nsg291
g2913
sg292
(lp2916
sg294
g253
sg295
Nsg296
Nsg297
Nsbag2
(g3
g4
Ntp2917
Rp2918
(dp2919
g8
g11
sg275
Nsg276
(dp2920
sg278
Nsg26
g29
sg279
(lp2921
I22
aI5
asg281
Nsg282
VChagigah 11b:5
p2922
sg284
(lp2923
sg286
g73
sg287
Nsg288
(lp2924
I22
aI5
asg290
Nsg291
g2922
sg292
(lp2925
sg294
g253
sg295
Nsg296
Nsg297
Nsbag2
(g3
g4
Ntp2926
Rp2927
(dp2928
g8
g11
sg275
Nsg276
(dp2929
sg278
Nsg26
g29
sg279
(lp2930
I22
aI6
asg281
Nsg282
VChagigah 11b:6
p2931
sg284
(lp2932
sg286
g73
sg287
Nsg288
(lp2933
I22
aI6
asg290
Nsg291
g2931
sg292
(lp2934
sg294
g253
sg295
Nsg296
Nsg297
Nsbag2
(g3
g4
Ntp2935
Rp2936
(dp2937
g8
g11
sg275
Nsg276
(dp2938
sg278
Nsg26
g29
sg279
(lp2939
I22
aI7
asg281
Nsg282
VChagigah 11b:7
p2940
sg284
(lp2941
sg286
g73
sg287
Nsg288
(lp2942
I22
aI7
asg290
Nsg291
g2940
sg292
(lp2943
sg294
g253
sg295
Nsg296
Nsg297
Nsbag2
(g3
g4
Ntp2944
Rp2945
(dp2946
g8
g11
sg275
Nsg276
(dp2947
sg278
Nsg26
g29
sg279
(lp2948
I22
aI8
asg281
Nsg282
VChagigah 11b:8
p2949
sg284
(lp2950
sg286
g73
sg287
Nsg288
(lp2951
I22
aI8
asg290
Nsg291
g2949
sg292
(lp2952
sg294
g253
sg295
Nsg296
Nsg297
Nsbag2
(g3
g4
Ntp2953
Rp2954
(dp2955
g8
g11
sg275
Nsg276
(dp2956
sg278
Nsg26
g29
sg279
(lp2957
I22
aI9
asg281
Nsg282
VChagigah 11b:9
p2958
sg284
(lp2959
sg286
g73
sg287
Nsg288
(lp2960
I22
aI9
asg290
Nsg291
g2958
sg292
(lp2961
sg294
g253
sg295
Nsg296
Nsg297
Nsbag2
(g3
g4
Ntp2962
Rp2963
(dp2964
g8
g11
sg275
Nsg276
(dp2965
sg278
Nsg26
g29
sg279
(lp2966
I22
aI10
asg281
Nsg282
VChagigah 11b:10
p2967
sg284
(lp2968
sg286
g73
sg287
Nsg288
(lp2969
I22
aI10
asg290
Nsg291
g2967
sg292
(lp2970
sg294
g253
sg295
Nsg296
Nsg297
Nsbag2
(g3
g4
Ntp2971
Rp2972
(dp2973
g8
g11
sg275
Nsg276
(dp2974
sg278
Nsg26
g29
sg279
(lp2975
I22
aI11
asg281
Nsg282
VChagigah 11b:11
p2976
sg284
(lp2977
sg286
g73
sg287
Nsg288
(lp2978
I22
aI11
asg290
Nsg291
g2976
sg292
(lp2979
sg294
g253
sg295
Nsg296
Nsg297
Nsbag2
(g3
g4
Ntp2980
Rp2981
(dp2982
g8
g11
sg275
Nsg276
(dp2983
sg278
Nsg26
g29
sg279
(lp2984
I22
aI12
asg281
Nsg282
VChagigah 11b:12
p2985
sg284
(lp2986
sg286
g73
sg287
Nsg288
(lp2987
I22
aI12
asg290
Nsg291
g2985
sg292
(lp2988
sg294
g253
sg295
Nsg296
Nsg297
Nsbag2
(g3
g4
Ntp2989
Rp2990
(dp2991
g8
g11
sg275
Nsg276
(dp2992
sg278
Nsg26
g29
sg279
(lp2993
I22
aI13
asg281
Nsg282
VChagigah 11b:13
p2994
sg284
(lp2995
sg286
g73
sg287
Nsg288
(lp2996
I22
aI13
asg290
Nsg291
g2994
sg292
(lp2997
sg294
g253
sg295
Nsg296
Nsg297
Nsbag2
(g3
g4
Ntp2998
Rp2999
(dp3000
g8
g11
sg275
Nsg276
(dp3001
sg278
Nsg26
g29
sg279
(lp3002
I22
aI14
asg281
Nsg282
VChagigah 11b:14
p3003
sg284
(lp3004
sg286
g73
sg287
Nsg288
(lp3005
I22
aI14
asg290
Nsg291
g3003
sg292
(lp3006
sg294
g253
sg295
Nsg296
Nsg297
Nsbag2
(g3
g4
Ntp3007
Rp3008
(dp3009
g8
g11
sg275
Nsg276
(dp3010
sg278
Nsg26
g29
sg279
(lp3011
I22
aI15
asg281
Nsg282
VChagigah 11b:15
p3012
sg284
(lp3013
sg286
g73
sg287
Nsg288
(lp3014
I22
aI15
asg290
Nsg291
g3012
sg292
(lp3015
sg294
g253
sg295
Nsg296
Nsg297
Nsbag2
(g3
g4
Ntp3016
Rp3017
(dp3018
g8
g11
sg275
Nsg276
(dp3019
sg278
Nsg26
g29
sg279
(lp3020
I22
aI16
asg281
Nsg282
VChagigah 11b:16
p3021
sg284
(lp3022
sg286
g73
sg287
Nsg288
(lp3023
I22
aI16
asg290
Nsg291
g3021
sg292
(lp3024
sg294
g253
sg295
Nsg296
Nsg297
Nsbag2
(g3
g4
Ntp3025
Rp3026
(dp3027
g8
g11
sg275
Nsg276
(dp3028
sg278
Nsg26
g29
sg279
(lp3029
I22
aI17
asg281
Nsg282
VChagigah 11b:17
p3030
sg284
(lp3031
sg286
g73
sg287
Nsg288
(lp3032
I22
aI17
asg290
Nsg291
g3030
sg292
(lp3033
sg294
g253
sg295
Nsg296
Nsg297
Nsbag2
(g3
g4
Ntp3034
Rp3035
(dp3036
g8
g11
sg275
Nsg276
(dp3037
sg278
Nsg26
g29
sg279
(lp3038
I22
aI18
asg281
Nsg282
VChagigah 11b:18
p3039
sg284
(lp3040
sg286
g73
sg287
Nsg288
(lp3041
I22
aI18
asg290
Nsg291
g3039
sg292
(lp3042
sg294
g253
sg295
Nsg296
Nsg297
Nsbag2
(g3
g4
Ntp3043
Rp3044
(dp3045
g8
g11
sg275
Nsg276
(dp3046
sg278
Nsg26
g29
sg279
(lp3047
I22
aI19
asg281
Nsg282
VChagigah 11b:19
p3048
sg284
(lp3049
sg286
g73
sg287
Nsg288
(lp3050
I22
aI19
asg290
Nsg291
g3048
sg292
(lp3051
sg294
g253
sg295
Nsg296
Nsg297
Nsbag2
(g3
g4
Ntp3052
Rp3053
(dp3054
g8
g11
sg275
Nsg276
(dp3055
sg278
Nsg26
g29
sg279
(lp3056
I22
aI20
asg281
Nsg282
VChagigah 11b:20
p3057
sg284
(lp3058
sg286
g73
sg287
Nsg288
(lp3059
I22
aI20
asg290
Nsg291
g3057
sg292
(lp3060
sg294
g253
sg295
Nsg296
Nsg297
Nsbag2
(g3
g4
Ntp3061
Rp3062
(dp3063
g8
g11
sg275
Nsg276
(dp3064
sg278
Nsg26
g29
sg279
(lp3065
I22
aI21
asg281
Nsg282
VChagigah 11b:21
p3066
sg284
(lp3067
sg286
g73
sg287
Nsg288
(lp3068
I22
aI21
asg290
Nsg291
g3066
sg292
(lp3069
sg294
g253
sg295
Nsg296
Nsg297
Nsbag2
(g3
g4
Ntp3070
Rp3071
(dp3072
g8
g11
sg275
Nsg276
(dp3073
sg278
Nsg26
g29
sg279
(lp3074
I22
aI22
asg281
Nsg282
VChagigah 11b:22
p3075
sg284
(lp3076
sg286
g73
sg287
Nsg288
(lp3077
I22
aI22
asg290
Nsg291
g3075
sg292
(lp3078
sg294
g253
sg295
Nsg296
Nsg297
Nsbag2
(g3
g4
Ntp3079
Rp3080
(dp3081
g8
g11
sg275
Nsg276
(dp3082
sg278
Nsg26
g29
sg279
(lp3083
I22
aI23
asg281
Nsg282
VChagigah 11b:23
p3084
sg284
(lp3085
sg286
g73
sg287
Nsg288
(lp3086
I22
aI23
asg290
Nsg291
g3084
sg292
(lp3087
sg294
g253
sg295
Nsg296
Nsg297
Nsbag2
(g3
g4
Ntp3088
Rp3089
(dp3090
g8
g11
sg275
Nsg276
(dp3091
sg278
Nsg26
g29
sg279
(lp3092
I22
aI24
asg281
Nsg282
VChagigah 11b:24
p3093
sg284
(lp3094
sg286
g73
sg287
Nsg288
(lp3095
I22
aI24
asg290
Nsg291
g3093
sg292
(lp3096
sg294
g253
sg295
Nsg296
Nsg297
Nsbag2
(g3
g4
Ntp3097
Rp3098
(dp3099
g8
g11
sg275
Nsg276
(dp3100
sg278
Nsg26
g29
sg279
(lp3101
I23
aI1
asg281
Nsg282
VChagigah 12a:1
p3102
sg284
(lp3103
sg286
g73
sg287
Nsg288
(lp3104
I23
aI1
asg290
Nsg291
g3102
sg292
(lp3105
sg294
g253
sg295
Nsg296
Nsg297
Nsbag2
(g3
g4
Ntp3106
Rp3107
(dp3108
g8
g11
sg275
Nsg276
(dp3109
sg278
Nsg26
g29
sg279
(lp3110
I23
aI2
asg281
Nsg282
VChagigah 12a:2
p3111
sg284
(lp3112
sg286
g73
sg287
Nsg288
(lp3113
I23
aI2
asg290
Nsg291
g3111
sg292
(lp3114
sg294
g253
sg295
Nsg296
Nsg297
Nsbag2
(g3
g4
Ntp3115
Rp3116
(dp3117
g8
g11
sg275
Nsg276
(dp3118
sg278
Nsg26
g29
sg279
(lp3119
I23
aI3
asg281
Nsg282
VChagigah 12a:3
p3120
sg284
(lp3121
sg286
g73
sg287
Nsg288
(lp3122
I23
aI3
asg290
Nsg291
g3120
sg292
(lp3123
sg294
g253
sg295
Nsg296
Nsg297
Nsbag2
(g3
g4
Ntp3124
Rp3125
(dp3126
g8
g11
sg275
Nsg276
(dp3127
sg278
Nsg26
g29
sg279
(lp3128
I23
aI4
asg281
Nsg282
VChagigah 12a:4
p3129
sg284
(lp3130
sg286
g73
sg287
Nsg288
(lp3131
I23
aI4
asg290
Nsg291
g3129
sg292
(lp3132
sg294
g253
sg295
Nsg296
Nsg297
Nsbag2
(g3
g4
Ntp3133
Rp3134
(dp3135
g8
g11
sg275
Nsg276
(dp3136
sg278
Nsg26
g29
sg279
(lp3137
I23
aI5
asg281
Nsg282
VChagigah 12a:5
p3138
sg284
(lp3139
sg286
g73
sg287
Nsg288
(lp3140
I23
aI5
asg290
Nsg291
g3138
sg292
(lp3141
sg294
g253
sg295
Nsg296
Nsg297
Nsbag2
(g3
g4
Ntp3142
Rp3143
(dp3144
g8
g11
sg275
Nsg276
(dp3145
sg278
Nsg26
g29
sg279
(lp3146
I23
aI6
asg281
Nsg282
VChagigah 12a:6
p3147
sg284
(lp3148
sg286
g73
sg287
Nsg288
(lp3149
I23
aI6
asg290
Nsg291
g3147
sg292
(lp3150
sg294
g253
sg295
Nsg296
Nsg297
Nsbag2
(g3
g4
Ntp3151
Rp3152
(dp3153
g8
g11
sg275
Nsg276
(dp3154
sg278
Nsg26
g29
sg279
(lp3155
I23
aI7
asg281
Nsg282
VChagigah 12a:7
p3156
sg284
(lp3157
sg286
g73
sg287
Nsg288
(lp3158
I23
aI7
asg290
Nsg291
g3156
sg292
(lp3159
sg294
g253
sg295
Nsg296
Nsg297
Nsbag2
(g3
g4
Ntp3160
Rp3161
(dp3162
g8
g11
sg275
Nsg276
(dp3163
sg278
Nsg26
g29
sg279
(lp3164
I23
aI8
asg281
Nsg282
VChagigah 12a:8
p3165
sg284
(lp3166
sg286
g73
sg287
Nsg288
(lp3167
I23
aI8
asg290
Nsg291
g3165
sg292
(lp3168
sg294
g253
sg295
Nsg296
Nsg297
Nsbag2
(g3
g4
Ntp3169
Rp3170
(dp3171
g8
g11
sg275
Nsg276
(dp3172
sg278
Nsg26
g29
sg279
(lp3173
I23
aI9
asg281
Nsg282
VChagigah 12a:9
p3174
sg284
(lp3175
sg286
g73
sg287
Nsg288
(lp3176
I23
aI9
asg290
Nsg291
g3174
sg292
(lp3177
sg294
g253
sg295
Nsg296
Nsg297
Nsbag2
(g3
g4
Ntp3178
Rp3179
(dp3180
g8
g11
sg275
Nsg276
(dp3181
sg278
Nsg26
g29
sg279
(lp3182
I23
aI10
asg281
Nsg282
VChagigah 12a:10
p3183
sg284
(lp3184
sg286
g73
sg287
Nsg288
(lp3185
I23
aI10
asg290
Nsg291
g3183
sg292
(lp3186
sg294
g253
sg295
Nsg296
Nsg297
Nsbag2
(g3
g4
Ntp3187
Rp3188
(dp3189
g8
g11
sg275
Nsg276
(dp3190
sg278
Nsg26
g29
sg279
(lp3191
I23
aI11
asg281
Nsg282
VChagigah 12a:11
p3192
sg284
(lp3193
sg286
g73
sg287
Nsg288
(lp3194
I23
aI11
asg290
Nsg291
g3192
sg292
(lp3195
sg294
g253
sg295
Nsg296
Nsg297
Nsbag2
(g3
g4
Ntp3196
Rp3197
(dp3198
g8
g11
sg275
Nsg276
(dp3199
sg278
Nsg26
g29
sg279
(lp3200
I23
aI12
asg281
Nsg282
VChagigah 12a:12
p3201
sg284
(lp3202
sg286
g73
sg287
Nsg288
(lp3203
I23
aI12
asg290
Nsg291
g3201
sg292
(lp3204
sg294
g253
sg295
Nsg296
Nsg297
Nsbag2
(g3
g4
Ntp3205
Rp3206
(dp3207
g8
g11
sg275
Nsg276
(dp3208
sg278
Nsg26
g29
sg279
(lp3209
I23
aI13
asg281
Nsg282
VChagigah 12a:13
p3210
sg284
(lp3211
sg286
g73
sg287
Nsg288
(lp3212
I23
aI13
asg290
Nsg291
g3210
sg292
(lp3213
sg294
g253
sg295
Nsg296
Nsg297
Nsbag2
(g3
g4
Ntp3214
Rp3215
(dp3216
g8
g11
sg275
Nsg276
(dp3217
sg278
Nsg26
g29
sg279
(lp3218
I23
aI14
asg281
Nsg282
VChagigah 12a:14
p3219
sg284
(lp3220
sg286
g73
sg287
Nsg288
(lp3221
I23
aI14
asg290
Nsg291
g3219
sg292
(lp3222
sg294
g253
sg295
Nsg296
Nsg297
Nsbag2
(g3
g4
Ntp3223
Rp3224
(dp3225
g8
g11
sg275
Nsg276
(dp3226
sg278
Nsg26
g29
sg279
(lp3227
I23
aI15
asg281
Nsg282
VChagigah 12a:15
p3228
sg284
(lp3229
sg286
g73
sg287
Nsg288
(lp3230
I23
aI15
asg290
Nsg291
g3228
sg292
(lp3231
sg294
g253
sg295
Nsg296
Nsg297
Nsbag2
(g3
g4
Ntp3232
Rp3233
(dp3234
g8
g11
sg275
Nsg276
(dp3235
sg278
Nsg26
g29
sg279
(lp3236
I23
aI16
asg281
Nsg282
VChagigah 12a:16
p3237
sg284
(lp3238
sg286
g73
sg287
Nsg288
(lp3239
I23
aI16
asg290
Nsg291
g3237
sg292
(lp3240
sg294
g253
sg295
Nsg296
Nsg297
Nsbag2
(g3
g4
Ntp3241
Rp3242
(dp3243
g8
g11
sg275
Nsg276
(dp3244
sg278
Nsg26
g29
sg279
(lp3245
I23
aI17
asg281
Nsg282
VChagigah 12a:17
p3246
sg284
(lp3247
sg286
g73
sg287
Nsg288
(lp3248
I23
aI17
asg290
Nsg291
g3246
sg292
(lp3249
sg294
g253
sg295
Nsg296
Nsg297
Nsbag2
(g3
g4
Ntp3250
Rp3251
(dp3252
g8
g11
sg275
Nsg276
(dp3253
sg278
Nsg26
g29
sg279
(lp3254
I23
aI18
asg281
Nsg282
VChagigah 12a:18
p3255
sg284
(lp3256
sg286
g73
sg287
Nsg288
(lp3257
I23
aI18
asg290
Nsg291
g3255
sg292
(lp3258
sg294
g253
sg295
Nsg296
Nsg297
Nsbag2
(g3
g4
Ntp3259
Rp3260
(dp3261
g8
g11
sg275
Nsg276
(dp3262
sg278
Nsg26
g29
sg279
(lp3263
I23
aI19
asg281
Nsg282
VChagigah 12a:19
p3264
sg284
(lp3265
sg286
g73
sg287
Nsg288
(lp3266
I23
aI19
asg290
Nsg291
g3264
sg292
(lp3267
sg294
g253
sg295
Nsg296
Nsg297
Nsbag2
(g3
g4
Ntp3268
Rp3269
(dp3270
g8
g11
sg275
Nsg276
(dp3271
sg278
Nsg26
g29
sg279
(lp3272
I23
aI20
asg281
Nsg282
VChagigah 12a:20
p3273
sg284
(lp3274
sg286
g73
sg287
Nsg288
(lp3275
I23
aI20
asg290
Nsg291
g3273
sg292
(lp3276
sg294
g253
sg295
Nsg296
Nsg297
Nsbag2
(g3
g4
Ntp3277
Rp3278
(dp3279
g8
g11
sg275
Nsg276
(dp3280
sg278
Nsg26
g29
sg279
(lp3281
I24
aI1
asg281
Nsg282
VChagigah 12b:1
p3282
sg284
(lp3283
sg286
g73
sg287
Nsg288
(lp3284
I24
aI1
asg290
Nsg291
g3282
sg292
(lp3285
sg294
g253
sg295
Nsg296
Nsg297
Nsbag2
(g3
g4
Ntp3286
Rp3287
(dp3288
g8
g11
sg275
Nsg276
(dp3289
sg278
Nsg26
g29
sg279
(lp3290
I24
aI2
asg281
Nsg282
VChagigah 12b:2
p3291
sg284
(lp3292
sg286
g73
sg287
Nsg288
(lp3293
I24
aI2
asg290
Nsg291
g3291
sg292
(lp3294
sg294
g253
sg295
Nsg296
Nsg297
Nsbag2
(g3
g4
Ntp3295
Rp3296
(dp3297
g8
g11
sg275
Nsg276
(dp3298
sg278
Nsg26
g29
sg279
(lp3299
I24
aI3
asg281
Nsg282
VChagigah 12b:3
p3300
sg284
(lp3301
sg286
g73
sg287
Nsg288
(lp3302
I24
aI3
asg290
Nsg291
g3300
sg292
(lp3303
sg294
g253
sg295
Nsg296
Nsg297
Nsbag2
(g3
g4
Ntp3304
Rp3305
(dp3306
g8
g11
sg275
Nsg276
(dp3307
sg278
Nsg26
g29
sg279
(lp3308
I24
aI4
asg281
Nsg282
VChagigah 12b:4
p3309
sg284
(lp3310
sg286
g73
sg287
Nsg288
(lp3311
I24
aI4
asg290
Nsg291
g3309
sg292
(lp3312
sg294
g253
sg295
Nsg296
Nsg297
Nsbag2
(g3
g4
Ntp3313
Rp3314
(dp3315
g8
g11
sg275
Nsg276
(dp3316
sg278
Nsg26
g29
sg279
(lp3317
I24
aI5
asg281
Nsg282
VChagigah 12b:5
p3318
sg284
(lp3319
sg286
g73
sg287
Nsg288
(lp3320
I24
aI5
asg290
Nsg291
g3318
sg292
(lp3321
sg294
g253
sg295
Nsg296
Nsg297
Nsbag2
(g3
g4
Ntp3322
Rp3323
(dp3324
g8
g11
sg275
Nsg276
(dp3325
sg278
Nsg26
g29
sg279
(lp3326
I24
aI6
asg281
Nsg282
VChagigah 12b:6
p3327
sg284
(lp3328
sg286
g73
sg287
Nsg288
(lp3329
I24
aI6
asg290
Nsg291
g3327
sg292
(lp3330
sg294
g253
sg295
Nsg296
Nsg297
Nsbag2
(g3
g4
Ntp3331
Rp3332
(dp3333
g8
g11
sg275
Nsg276
(dp3334
sg278
Nsg26
g29
sg279
(lp3335
I24
aI7
asg281
Nsg282
VChagigah 12b:7
p3336
sg284
(lp3337
sg286
g73
sg287
Nsg288
(lp3338
I24
aI7
asg290
Nsg291
g3336
sg292
(lp3339
sg294
g253
sg295
Nsg296
Nsg297
Nsbag2
(g3
g4
Ntp3340
Rp3341
(dp3342
g8
g11
sg275
Nsg276
(dp3343
sg278
Nsg26
g29
sg279
(lp3344
I24
aI8
asg281
Nsg282
VChagigah 12b:8
p3345
sg284
(lp3346
sg286
g73
sg287
Nsg288
(lp3347
I24
aI8
asg290
Nsg291
g3345
sg292
(lp3348
sg294
g253
sg295
Nsg296
Nsg297
Nsbag2
(g3
g4
Ntp3349
Rp3350
(dp3351
g8
g11
sg275
Nsg276
(dp3352
sg278
Nsg26
g29
sg279
(lp3353
I24
aI9
asg281
Nsg282
VChagigah 12b:9
p3354
sg284
(lp3355
sg286
g73
sg287
Nsg288
(lp3356
I24
aI9
asg290
Nsg291
g3354
sg292
(lp3357
sg294
g253
sg295
Nsg296
Nsg297
Nsbag2
(g3
g4
Ntp3358
Rp3359
(dp3360
g8
g11
sg275
Nsg276
(dp3361
sg278
Nsg26
g29
sg279
(lp3362
I24
aI10
asg281
Nsg282
VChagigah 12b:10
p3363
sg284
(lp3364
sg286
g73
sg287
Nsg288
(lp3365
I24
aI10
asg290
Nsg291
g3363
sg292
(lp3366
sg294
g253
sg295
Nsg296
Nsg297
Nsbag2
(g3
g4
Ntp3367
Rp3368
(dp3369
g8
g11
sg275
Nsg276
(dp3370
sg278
Nsg26
g29
sg279
(lp3371
I24
aI11
asg281
Nsg282
VChagigah 12b:11
p3372
sg284
(lp3373
sg286
g73
sg287
Nsg288
(lp3374
I24
aI11
asg290
Nsg291
g3372
sg292
(lp3375
sg294
g253
sg295
Nsg296
Nsg297
Nsbag2
(g3
g4
Ntp3376
Rp3377
(dp3378
g8
g11
sg275
Nsg276
(dp3379
sg278
Nsg26
g29
sg279
(lp3380
I24
aI12
asg281
Nsg282
VChagigah 12b:12
p3381
sg284
(lp3382
sg286
g73
sg287
Nsg288
(lp3383
I24
aI12
asg290
Nsg291
g3381
sg292
(lp3384
sg294
g253
sg295
Nsg296
Nsg297
Nsbag2
(g3
g4
Ntp3385
Rp3386
(dp3387
g8
g11
sg275
Nsg276
(dp3388
sg278
Nsg26
g29
sg279
(lp3389
I24
aI13
asg281
Nsg282
VChagigah 12b:13
p3390
sg284
(lp3391
sg286
g73
sg287
Nsg288
(lp3392
I24
aI13
asg290
Nsg291
g3390
sg292
(lp3393
sg294
g253
sg295
Nsg296
Nsg297
Nsbag2
(g3
g4
Ntp3394
Rp3395
(dp3396
g8
g11
sg275
Nsg276
(dp3397
sg278
Nsg26
g29
sg279
(lp3398
I24
aI14
asg281
Nsg282
VChagigah 12b:14
p3399
sg284
(lp3400
sg286
g73
sg287
Nsg288
(lp3401
I24
aI14
asg290
Nsg291
g3399
sg292
(lp3402
sg294
g253
sg295
Nsg296
Nsg297
Nsbag2
(g3
g4
Ntp3403
Rp3404
(dp3405
g8
g11
sg275
Nsg276
(dp3406
sg278
Nsg26
g29
sg279
(lp3407
I24
aI15
asg281
Nsg282
VChagigah 12b:15
p3408
sg284
(lp3409
sg286
g73
sg287
Nsg288
(lp3410
I24
aI15
asg290
Nsg291
g3408
sg292
(lp3411
sg294
g253
sg295
Nsg296
Nsg297
Nsbag2
(g3
g4
Ntp3412
Rp3413
(dp3414
g8
g11
sg275
Nsg276
(dp3415
sg278
Nsg26
g29
sg279
(lp3416
I25
aI1
asg281
Nsg282
VChagigah 13a:1
p3417
sg284
(lp3418
sg286
g73
sg287
Nsg288
(lp3419
I25
aI1
asg290
Nsg291
g3417
sg292
(lp3420
sg294
g253
sg295
Nsg296
Nsg297
Nsbag2
(g3
g4
Ntp3421
Rp3422
(dp3423
g8
g11
sg275
Nsg276
(dp3424
sg278
Nsg26
g29
sg279
(lp3425
I25
aI2
asg281
Nsg282
VChagigah 13a:2
p3426
sg284
(lp3427
sg286
g73
sg287
Nsg288
(lp3428
I25
aI2
asg290
Nsg291
g3426
sg292
(lp3429
sg294
g253
sg295
Nsg296
Nsg297
Nsbag2
(g3
g4
Ntp3430
Rp3431
(dp3432
g8
g11
sg275
Nsg276
(dp3433
sg278
Nsg26
g29
sg279
(lp3434
I25
aI3
asg281
Nsg282
VChagigah 13a:3
p3435
sg284
(lp3436
sg286
g73
sg287
Nsg288
(lp3437
I25
aI3
asg290
Nsg291
g3435
sg292
(lp3438
sg294
g253
sg295
Nsg296
Nsg297
Nsbag2
(g3
g4
Ntp3439
Rp3440
(dp3441
g8
g11
sg275
Nsg276
(dp3442
sg278
Nsg26
g29
sg279
(lp3443
I25
aI4
asg281
Nsg282
VChagigah 13a:4
p3444
sg284
(lp3445
sg286
g73
sg287
Nsg288
(lp3446
I25
aI4
asg290
Nsg291
g3444
sg292
(lp3447
sg294
g253
sg295
Nsg296
Nsg297
Nsbag2
(g3
g4
Ntp3448
Rp3449
(dp3450
g8
g11
sg275
Nsg276
(dp3451
sg278
Nsg26
g29
sg279
(lp3452
I25
aI5
asg281
Nsg282
VChagigah 13a:5
p3453
sg284
(lp3454
sg286
g73
sg287
Nsg288
(lp3455
I25
aI5
asg290
Nsg291
g3453
sg292
(lp3456
sg294
g253
sg295
Nsg296
Nsg297
Nsbag2
(g3
g4
Ntp3457
Rp3458
(dp3459
g8
g11
sg275
Nsg276
(dp3460
sg278
Nsg26
g29
sg279
(lp3461
I25
aI6
asg281
Nsg282
VChagigah 13a:6
p3462
sg284
(lp3463
sg286
g73
sg287
Nsg288
(lp3464
I25
aI6
asg290
Nsg291
g3462
sg292
(lp3465
sg294
g253
sg295
Nsg296
Nsg297
Nsbag2
(g3
g4
Ntp3466
Rp3467
(dp3468
g8
g11
sg275
Nsg276
(dp3469
sg278
Nsg26
g29
sg279
(lp3470
I25
aI7
asg281
Nsg282
VChagigah 13a:7
p3471
sg284
(lp3472
sg286
g73
sg287
Nsg288
(lp3473
I25
aI7
asg290
Nsg291
g3471
sg292
(lp3474
sg294
g253
sg295
Nsg296
Nsg297
Nsbag2
(g3
g4
Ntp3475
Rp3476
(dp3477
g8
g11
sg275
Nsg276
(dp3478
sg278
Nsg26
g29
sg279
(lp3479
I25
aI8
asg281
Nsg282
VChagigah 13a:8
p3480
sg284
(lp3481
sg286
g73
sg287
Nsg288
(lp3482
I25
aI8
asg290
Nsg291
g3480
sg292
(lp3483
sg294
g253
sg295
Nsg296
Nsg297
Nsbag2
(g3
g4
Ntp3484
Rp3485
(dp3486
g8
g11
sg275
Nsg276
(dp3487
sg278
Nsg26
g29
sg279
(lp3488
I25
aI9
asg281
Nsg282
VChagigah 13a:9
p3489
sg284
(lp3490
sg286
g73
sg287
Nsg288
(lp3491
I25
aI9
asg290
Nsg291
g3489
sg292
(lp3492
sg294
g253
sg295
Nsg296
Nsg297
Nsbag2
(g3
g4
Ntp3493
Rp3494
(dp3495
g8
g11
sg275
Nsg276
(dp3496
sg278
Nsg26
g29
sg279
(lp3497
I25
aI10
asg281
Nsg282
VChagigah 13a:10
p3498
sg284
(lp3499
sg286
g73
sg287
Nsg288
(lp3500
I25
aI10
asg290
Nsg291
g3498
sg292
(lp3501
sg294
g253
sg295
Nsg296
Nsg297
Nsbag2
(g3
g4
Ntp3502
Rp3503
(dp3504
g8
g11
sg275
Nsg276
(dp3505
sg278
Nsg26
g29
sg279
(lp3506
I25
aI11
asg281
Nsg282
VChagigah 13a:11
p3507
sg284
(lp3508
sg286
g73
sg287
Nsg288
(lp3509
I25
aI11
asg290
Nsg291
g3507
sg292
(lp3510
sg294
g253
sg295
Nsg296
Nsg297
Nsbag2
(g3
g4
Ntp3511
Rp3512
(dp3513
g8
g11
sg275
Nsg276
(dp3514
sg278
Nsg26
g29
sg279
(lp3515
I25
aI12
asg281
Nsg282
VChagigah 13a:12
p3516
sg284
(lp3517
sg286
g73
sg287
Nsg288
(lp3518
I25
aI12
asg290
Nsg291
g3516
sg292
(lp3519
sg294
g253
sg295
Nsg296
Nsg297
Nsbag2
(g3
g4
Ntp3520
Rp3521
(dp3522
g8
g11
sg275
Nsg276
(dp3523
sg278
Nsg26
g29
sg279
(lp3524
I25
aI13
asg281
Nsg282
VChagigah 13a:13
p3525
sg284
(lp3526
sg286
g73
sg287
Nsg288
(lp3527
I25
aI13
asg290
Nsg291
g3525
sg292
(lp3528
sg294
g253
sg295
Nsg296
Nsg297
Nsbag2
(g3
g4
Ntp3529
Rp3530
(dp3531
g8
g11
sg275
Nsg276
(dp3532
sg278
Nsg26
g29
sg279
(lp3533
I25
aI14
asg281
Nsg282
VChagigah 13a:14
p3534
sg284
(lp3535
sg286
g73
sg287
Nsg288
(lp3536
I25
aI14
asg290
Nsg291
g3534
sg292
(lp3537
sg294
g253
sg295
Nsg296
Nsg297
Nsbag2
(g3
g4
Ntp3538
Rp3539
(dp3540
g8
g11
sg275
Nsg276
(dp3541
sg278
Nsg26
g29
sg279
(lp3542
I26
aI1
asg281
Nsg282
VChagigah 13b:1
p3543
sg284
(lp3544
sg286
g73
sg287
Nsg288
(lp3545
I26
aI1
asg290
Nsg291
g3543
sg292
(lp3546
sg294
g253
sg295
Nsg296
Nsg297
Nsbag2
(g3
g4
Ntp3547
Rp3548
(dp3549
g8
g11
sg275
Nsg276
(dp3550
sg278
Nsg26
g29
sg279
(lp3551
I26
aI2
asg281
Nsg282
VChagigah 13b:2
p3552
sg284
(lp3553
sg286
g73
sg287
Nsg288
(lp3554
I26
aI2
asg290
Nsg291
g3552
sg292
(lp3555
sg294
g253
sg295
Nsg296
Nsg297
Nsbag2
(g3
g4
Ntp3556
Rp3557
(dp3558
g8
g11
sg275
Nsg276
(dp3559
sg278
Nsg26
g29
sg279
(lp3560
I26
aI3
asg281
Nsg282
VChagigah 13b:3
p3561
sg284
(lp3562
sg286
g73
sg287
Nsg288
(lp3563
I26
aI3
asg290
Nsg291
g3561
sg292
(lp3564
sg294
g253
sg295
Nsg296
Nsg297
Nsbag2
(g3
g4
Ntp3565
Rp3566
(dp3567
g8
g11
sg275
Nsg276
(dp3568
sg278
Nsg26
g29
sg279
(lp3569
I26
aI4
asg281
Nsg282
VChagigah 13b:4
p3570
sg284
(lp3571
sg286
g73
sg287
Nsg288
(lp3572
I26
aI4
asg290
Nsg291
g3570
sg292
(lp3573
sg294
g253
sg295
Nsg296
Nsg297
Nsbag2
(g3
g4
Ntp3574
Rp3575
(dp3576
g8
g11
sg275
Nsg276
(dp3577
sg278
Nsg26
g29
sg279
(lp3578
I26
aI5
asg281
Nsg282
VChagigah 13b:5
p3579
sg284
(lp3580
sg286
g73
sg287
Nsg288
(lp3581
I26
aI5
asg290
Nsg291
g3579
sg292
(lp3582
sg294
g253
sg295
Nsg296
Nsg297
Nsbag2
(g3
g4
Ntp3583
Rp3584
(dp3585
g8
g11
sg275
Nsg276
(dp3586
sg278
Nsg26
g29
sg279
(lp3587
I26
aI6
asg281
Nsg282
VChagigah 13b:6
p3588
sg284
(lp3589
sg286
g73
sg287
Nsg288
(lp3590
I26
aI6
asg290
Nsg291
g3588
sg292
(lp3591
sg294
g253
sg295
Nsg296
Nsg297
Nsbag2
(g3
g4
Ntp3592
Rp3593
(dp3594
g8
g11
sg275
Nsg276
(dp3595
sg278
Nsg26
g29
sg279
(lp3596
I26
aI7
asg281
Nsg282
VChagigah 13b:7
p3597
sg284
(lp3598
sg286
g73
sg287
Nsg288
(lp3599
I26
aI7
asg290
Nsg291
g3597
sg292
(lp3600
sg294
g253
sg295
Nsg296
Nsg297
Nsbag2
(g3
g4
Ntp3601
Rp3602
(dp3603
g8
g11
sg275
Nsg276
(dp3604
sg278
Nsg26
g29
sg279
(lp3605
I26
aI8
asg281
Nsg282
VChagigah 13b:8
p3606
sg284
(lp3607
sg286
g73
sg287
Nsg288
(lp3608
I26
aI8
asg290
Nsg291
g3606
sg292
(lp3609
sg294
g253
sg295
Nsg296
Nsg297
Nsbag2
(g3
g4
Ntp3610
Rp3611
(dp3612
g8
g11
sg275
Nsg276
(dp3613
sg278
Nsg26
g29
sg279
(lp3614
I26
aI9
asg281
Nsg282
VChagigah 13b:9
p3615
sg284
(lp3616
sg286
g73
sg287
Nsg288
(lp3617
I26
aI9
asg290
Nsg291
g3615
sg292
(lp3618
sg294
g253
sg295
Nsg296
Nsg297
Nsbag2
(g3
g4
Ntp3619
Rp3620
(dp3621
g8
g11
sg275
Nsg276
(dp3622
sg278
Nsg26
g29
sg279
(lp3623
I26
aI10
asg281
Nsg282
VChagigah 13b:10
p3624
sg284
(lp3625
sg286
g73
sg287
Nsg288
(lp3626
I26
aI10
asg290
Nsg291
g3624
sg292
(lp3627
sg294
g253
sg295
Nsg296
Nsg297
Nsbag2
(g3
g4
Ntp3628
Rp3629
(dp3630
g8
g11
sg275
Nsg276
(dp3631
sg278
Nsg26
g29
sg279
(lp3632
I26
aI11
asg281
Nsg282
VChagigah 13b:11
p3633
sg284
(lp3634
sg286
g73
sg287
Nsg288
(lp3635
I26
aI11
asg290
Nsg291
g3633
sg292
(lp3636
sg294
g253
sg295
Nsg296
Nsg297
Nsbag2
(g3
g4
Ntp3637
Rp3638
(dp3639
g8
g11
sg275
Nsg276
(dp3640
sg278
Nsg26
g29
sg279
(lp3641
I26
aI12
asg281
Nsg282
VChagigah 13b:12
p3642
sg284
(lp3643
sg286
g73
sg287
Nsg288
(lp3644
I26
aI12
asg290
Nsg291
g3642
sg292
(lp3645
sg294
g253
sg295
Nsg296
Nsg297
Nsbag2
(g3
g4
Ntp3646
Rp3647
(dp3648
g8
g11
sg275
Nsg276
(dp3649
sg278
Nsg26
g29
sg279
(lp3650
I26
aI13
asg281
Nsg282
VChagigah 13b:13
p3651
sg284
(lp3652
sg286
g73
sg287
Nsg288
(lp3653
I26
aI13
asg290
Nsg291
g3651
sg292
(lp3654
sg294
g253
sg295
Nsg296
Nsg297
Nsbag2
(g3
g4
Ntp3655
Rp3656
(dp3657
g8
g11
sg275
Nsg276
(dp3658
sg278
Nsg26
g29
sg279
(lp3659
I26
aI14
asg281
Nsg282
VChagigah 13b:14
p3660
sg284
(lp3661
sg286
g73
sg287
Nsg288
(lp3662
I26
aI14
asg290
Nsg291
g3660
sg292
(lp3663
sg294
g253
sg295
Nsg296
Nsg297
Nsbag2
(g3
g4
Ntp3664
Rp3665
(dp3666
g8
g11
sg275
Nsg276
(dp3667
sg278
Nsg26
g29
sg279
(lp3668
I27
aI1
asg281
Nsg282
VChagigah 14a:1
p3669
sg284
(lp3670
sg286
g73
sg287
Nsg288
(lp3671
I27
aI1
asg290
Nsg291
g3669
sg292
(lp3672
sg294
g253
sg295
Nsg296
Nsg297
Nsbag2
(g3
g4
Ntp3673
Rp3674
(dp3675
g8
g11
sg275
Nsg276
(dp3676
sg278
Nsg26
g29
sg279
(lp3677
I27
aI2
asg281
Nsg282
VChagigah 14a:2
p3678
sg284
(lp3679
sg286
g73
sg287
Nsg288
(lp3680
I27
aI2
asg290
Nsg291
g3678
sg292
(lp3681
sg294
g253
sg295
Nsg296
Nsg297
Nsbag2
(g3
g4
Ntp3682
Rp3683
(dp3684
g8
g11
sg275
Nsg276
(dp3685
sg278
Nsg26
g29
sg279
(lp3686
I27
aI3
asg281
Nsg282
VChagigah 14a:3
p3687
sg284
(lp3688
sg286
g73
sg287
Nsg288
(lp3689
I27
aI3
asg290
Nsg291
g3687
sg292
(lp3690
sg294
g253
sg295
Nsg296
Nsg297
Nsbag2
(g3
g4
Ntp3691
Rp3692
(dp3693
g8
g11
sg275
Nsg276
(dp3694
sg278
Nsg26
g29
sg279
(lp3695
I27
aI4
asg281
Nsg282
VChagigah 14a:4
p3696
sg284
(lp3697
sg286
g73
sg287
Nsg288
(lp3698
I27
aI4
asg290
Nsg291
g3696
sg292
(lp3699
sg294
g253
sg295
Nsg296
Nsg297
Nsbag2
(g3
g4
Ntp3700
Rp3701
(dp3702
g8
g11
sg275
Nsg276
(dp3703
sg278
Nsg26
g29
sg279
(lp3704
I27
aI5
asg281
Nsg282
VChagigah 14a:5
p3705
sg284
(lp3706
sg286
g73
sg287
Nsg288
(lp3707
I27
aI5
asg290
Nsg291
g3705
sg292
(lp3708
sg294
g253
sg295
Nsg296
Nsg297
Nsbag2
(g3
g4
Ntp3709
Rp3710
(dp3711
g8
g11
sg275
Nsg276
(dp3712
sg278
Nsg26
g29
sg279
(lp3713
I27
aI6
asg281
Nsg282
VChagigah 14a:6
p3714
sg284
(lp3715
sg286
g73
sg287
Nsg288
(lp3716
I27
aI6
asg290
Nsg291
g3714
sg292
(lp3717
sg294
g253
sg295
Nsg296
Nsg297
Nsbag2
(g3
g4
Ntp3718
Rp3719
(dp3720
g8
g11
sg275
Nsg276
(dp3721
sg278
Nsg26
g29
sg279
(lp3722
I27
aI7
asg281
Nsg282
VChagigah 14a:7
p3723
sg284
(lp3724
sg286
g73
sg287
Nsg288
(lp3725
I27
aI7
asg290
Nsg291
g3723
sg292
(lp3726
sg294
g253
sg295
Nsg296
Nsg297
Nsbag2
(g3
g4
Ntp3727
Rp3728
(dp3729
g8
g11
sg275
Nsg276
(dp3730
sg278
Nsg26
g29
sg279
(lp3731
I27
aI8
asg281
Nsg282
VChagigah 14a:8
p3732
sg284
(lp3733
sg286
g73
sg287
Nsg288
(lp3734
I27
aI8
asg290
Nsg291
g3732
sg292
(lp3735
sg294
g253
sg295
Nsg296
Nsg297
Nsbag2
(g3
g4
Ntp3736
Rp3737
(dp3738
g8
g11
sg275
Nsg276
(dp3739
sg278
Nsg26
g29
sg279
(lp3740
I27
aI9
asg281
Nsg282
VChagigah 14a:9
p3741
sg284
(lp3742
sg286
g73
sg287
Nsg288
(lp3743
I27
aI9
asg290
Nsg291
g3741
sg292
(lp3744
sg294
g253
sg295
Nsg296
Nsg297
Nsbag2
(g3
g4
Ntp3745
Rp3746
(dp3747
g8
g11
sg275
Nsg276
(dp3748
sg278
Nsg26
g29
sg279
(lp3749
I27
aI10
asg281
Nsg282
VChagigah 14a:10
p3750
sg284
(lp3751
sg286
g73
sg287
Nsg288
(lp3752
I27
aI10
asg290
Nsg291
g3750
sg292
(lp3753
sg294
g253
sg295
Nsg296
Nsg297
Nsbag2
(g3
g4
Ntp3754
Rp3755
(dp3756
g8
g11
sg275
Nsg276
(dp3757
sg278
Nsg26
g29
sg279
(lp3758
I27
aI11
asg281
Nsg282
VChagigah 14a:11
p3759
sg284
(lp3760
sg286
g73
sg287
Nsg288
(lp3761
I27
aI11
asg290
Nsg291
g3759
sg292
(lp3762
sg294
g253
sg295
Nsg296
Nsg297
Nsbag2
(g3
g4
Ntp3763
Rp3764
(dp3765
g8
g11
sg275
Nsg276
(dp3766
sg278
Nsg26
g29
sg279
(lp3767
I27
aI12
asg281
Nsg282
VChagigah 14a:12
p3768
sg284
(lp3769
sg286
g73
sg287
Nsg288
(lp3770
I27
aI12
asg290
Nsg291
g3768
sg292
(lp3771
sg294
g253
sg295
Nsg296
Nsg297
Nsbag2
(g3
g4
Ntp3772
Rp3773
(dp3774
g8
g11
sg275
Nsg276
(dp3775
sg278
Nsg26
g29
sg279
(lp3776
I27
aI13
asg281
Nsg282
VChagigah 14a:13
p3777
sg284
(lp3778
sg286
g73
sg287
Nsg288
(lp3779
I27
aI13
asg290
Nsg291
g3777
sg292
(lp3780
sg294
g253
sg295
Nsg296
Nsg297
Nsbag2
(g3
g4
Ntp3781
Rp3782
(dp3783
g8
g11
sg275
Nsg276
(dp3784
sg278
Nsg26
g29
sg279
(lp3785
I27
aI14
asg281
Nsg282
VChagigah 14a:14
p3786
sg284
(lp3787
sg286
g73
sg287
Nsg288
(lp3788
I27
aI14
asg290
Nsg291
g3786
sg292
(lp3789
sg294
g253
sg295
Nsg296
Nsg297
Nsbag2
(g3
g4
Ntp3790
Rp3791
(dp3792
g8
g11
sg275
Nsg276
(dp3793
sg278
Nsg26
g29
sg279
(lp3794
I27
aI15
asg281
Nsg282
VChagigah 14a:15
p3795
sg284
(lp3796
sg286
g73
sg287
Nsg288
(lp3797
I27
aI15
asg290
Nsg291
g3795
sg292
(lp3798
sg294
g253
sg295
Nsg296
Nsg297
Nsbag2
(g3
g4
Ntp3799
Rp3800
(dp3801
g8
g11
sg275
Nsg276
(dp3802
sg278
Nsg26
g29
sg279
(lp3803
I27
aI16
asg281
Nsg282
VChagigah 14a:16
p3804
sg284
(lp3805
sg286
g73
sg287
Nsg288
(lp3806
I27
aI16
asg290
Nsg291
g3804
sg292
(lp3807
sg294
g253
sg295
Nsg296
Nsg297
Nsbag2
(g3
g4
Ntp3808
Rp3809
(dp3810
g8
g11
sg275
Nsg276
(dp3811
sg278
Nsg26
g29
sg279
(lp3812
I27
aI17
asg281
Nsg282
VChagigah 14a:17
p3813
sg284
(lp3814
sg286
g73
sg287
Nsg288
(lp3815
I27
aI17
asg290
Nsg291
g3813
sg292
(lp3816
sg294
g253
sg295
Nsg296
Nsg297
Nsbag2
(g3
g4
Ntp3817
Rp3818
(dp3819
g8
g11
sg275
Nsg276
(dp3820
sg278
Nsg26
g29
sg279
(lp3821
I27
aI18
asg281
Nsg282
VChagigah 14a:18
p3822
sg284
(lp3823
sg286
g73
sg287
Nsg288
(lp3824
I27
aI18
asg290
Nsg291
g3822
sg292
(lp3825
sg294
g253
sg295
Nsg296
Nsg297
Nsbag2
(g3
g4
Ntp3826
Rp3827
(dp3828
g8
g11
sg275
Nsg276
(dp3829
sg278
Nsg26
g29
sg279
(lp3830
I28
aI1
asg281
Nsg282
VChagigah 14b:1
p3831
sg284
(lp3832
sg286
g73
sg287
Nsg288
(lp3833
I28
aI1
asg290
Nsg291
g3831
sg292
(lp3834
sg294
g253
sg295
Nsg296
Nsg297
Nsbag2
(g3
g4
Ntp3835
Rp3836
(dp3837
g8
g11
sg275
Nsg276
(dp3838
sg278
Nsg26
g29
sg279
(lp3839
I28
aI2
asg281
Nsg282
VChagigah 14b:2
p3840
sg284
(lp3841
sg286
g73
sg287
Nsg288
(lp3842
I28
aI2
asg290
Nsg291
g3840
sg292
(lp3843
sg294
g253
sg295
Nsg296
Nsg297
Nsbag2
(g3
g4
Ntp3844
Rp3845
(dp3846
g8
g11
sg275
Nsg276
(dp3847
sg278
Nsg26
g29
sg279
(lp3848
I28
aI3
asg281
Nsg282
VChagigah 14b:3
p3849
sg284
(lp3850
sg286
g73
sg287
Nsg288
(lp3851
I28
aI3
asg290
Nsg291
g3849
sg292
(lp3852
sg294
g253
sg295
Nsg296
Nsg297
Nsbag2
(g3
g4
Ntp3853
Rp3854
(dp3855
g8
g11
sg275
Nsg276
(dp3856
sg278
Nsg26
g29
sg279
(lp3857
I28
aI4
asg281
Nsg282
VChagigah 14b:4
p3858
sg284
(lp3859
sg286
g73
sg287
Nsg288
(lp3860
I28
aI4
asg290
Nsg291
g3858
sg292
(lp3861
sg294
g253
sg295
Nsg296
Nsg297
Nsbag2
(g3
g4
Ntp3862
Rp3863
(dp3864
g8
g11
sg275
Nsg276
(dp3865
sg278
Nsg26
g29
sg279
(lp3866
I28
aI5
asg281
Nsg282
VChagigah 14b:5
p3867
sg284
(lp3868
sg286
g73
sg287
Nsg288
(lp3869
I28
aI5
asg290
Nsg291
g3867
sg292
(lp3870
sg294
g253
sg295
Nsg296
Nsg297
Nsbag2
(g3
g4
Ntp3871
Rp3872
(dp3873
g8
g11
sg275
Nsg276
(dp3874
sg278
Nsg26
g29
sg279
(lp3875
I28
aI6
asg281
Nsg282
VChagigah 14b:6
p3876
sg284
(lp3877
sg286
g73
sg287
Nsg288
(lp3878
I28
aI6
asg290
Nsg291
g3876
sg292
(lp3879
sg294
g253
sg295
Nsg296
Nsg297
Nsbag2
(g3
g4
Ntp3880
Rp3881
(dp3882
g8
g11
sg275
Nsg276
(dp3883
sg278
Nsg26
g29
sg279
(lp3884
I28
aI7
asg281
Nsg282
VChagigah 14b:7
p3885
sg284
(lp3886
sg286
g73
sg287
Nsg288
(lp3887
I28
aI7
asg290
Nsg291
g3885
sg292
(lp3888
sg294
g253
sg295
Nsg296
Nsg297
Nsbag2
(g3
g4
Ntp3889
Rp3890
(dp3891
g8
g11
sg275
Nsg276
(dp3892
sg278
Nsg26
g29
sg279
(lp3893
I28
aI8
asg281
Nsg282
VChagigah 14b:8
p3894
sg284
(lp3895
sg286
g73
sg287
Nsg288
(lp3896
I28
aI8
asg290
Nsg291
g3894
sg292
(lp3897
sg294
g253
sg295
Nsg296
Nsg297
Nsbag2
(g3
g4
Ntp3898
Rp3899
(dp3900
g8
g11
sg275
Nsg276
(dp3901
sg278
Nsg26
g29
sg279
(lp3902
I28
aI9
asg281
Nsg282
VChagigah 14b:9
p3903
sg284
(lp3904
sg286
g73
sg287
Nsg288
(lp3905
I28
aI9
asg290
Nsg291
g3903
sg292
(lp3906
sg294
g253
sg295
Nsg296
Nsg297
Nsbag2
(g3
g4
Ntp3907
Rp3908
(dp3909
g8
g11
sg275
Nsg276
(dp3910
sg278
Nsg26
g29
sg279
(lp3911
I28
aI10
asg281
Nsg282
VChagigah 14b:10
p3912
sg284
(lp3913
sg286
g73
sg287
Nsg288
(lp3914
I28
aI10
asg290
Nsg291
g3912
sg292
(lp3915
sg294
g253
sg295
Nsg296
Nsg297
Nsbag2
(g3
g4
Ntp3916
Rp3917
(dp3918
g8
g11
sg275
Nsg276
(dp3919
sg278
Nsg26
g29
sg279
(lp3920
I29
aI1
asg281
Nsg282
VChagigah 15a:1
p3921
sg284
(lp3922
sg286
g73
sg287
Nsg288
(lp3923
I29
aI1
asg290
Nsg291
g3921
sg292
(lp3924
sg294
g253
sg295
Nsg296
Nsg297
Nsbag2
(g3
g4
Ntp3925
Rp3926
(dp3927
g8
g11
sg275
Nsg276
(dp3928
sg278
Nsg26
g29
sg279
(lp3929
I29
aI2
asg281
Nsg282
VChagigah 15a:2
p3930
sg284
(lp3931
sg286
g73
sg287
Nsg288
(lp3932
I29
aI2
asg290
Nsg291
g3930
sg292
(lp3933
sg294
g253
sg295
Nsg296
Nsg297
Nsbag2
(g3
g4
Ntp3934
Rp3935
(dp3936
g8
g11
sg275
Nsg276
(dp3937
sg278
Nsg26
g29
sg279
(lp3938
I29
aI3
asg281
Nsg282
VChagigah 15a:3
p3939
sg284
(lp3940
sg286
g73
sg287
Nsg288
(lp3941
I29
aI3
asg290
Nsg291
g3939
sg292
(lp3942
sg294
g253
sg295
Nsg296
Nsg297
Nsbag2
(g3
g4
Ntp3943
Rp3944
(dp3945
g8
g11
sg275
Nsg276
(dp3946
sg278
Nsg26
g29
sg279
(lp3947
I29
aI4
asg281
Nsg282
VChagigah 15a:4
p3948
sg284
(lp3949
sg286
g73
sg287
Nsg288
(lp3950
I29
aI4
asg290
Nsg291
g3948
sg292
(lp3951
sg294
g253
sg295
Nsg296
Nsg297
Nsbag2
(g3
g4
Ntp3952
Rp3953
(dp3954
g8
g11
sg275
Nsg276
(dp3955
sg278
Nsg26
g29
sg279
(lp3956
I29
aI5
asg281
Nsg282
VChagigah 15a:5
p3957
sg284
(lp3958
sg286
g73
sg287
Nsg288
(lp3959
I29
aI5
asg290
Nsg291
g3957
sg292
(lp3960
sg294
g253
sg295
Nsg296
Nsg297
Nsbag2
(g3
g4
Ntp3961
Rp3962
(dp3963
g8
g11
sg275
Nsg276
(dp3964
sg278
Nsg26
g29
sg279
(lp3965
I29
aI6
asg281
Nsg282
VChagigah 15a:6
p3966
sg284
(lp3967
sg286
g73
sg287
Nsg288
(lp3968
I29
aI6
asg290
Nsg291
g3966
sg292
(lp3969
sg294
g253
sg295
Nsg296
Nsg297
Nsbag2
(g3
g4
Ntp3970
Rp3971
(dp3972
g8
g11
sg275
Nsg276
(dp3973
sg278
Nsg26
g29
sg279
(lp3974
I29
aI7
asg281
Nsg282
VChagigah 15a:7
p3975
sg284
(lp3976
sg286
g73
sg287
Nsg288
(lp3977
I29
aI7
asg290
Nsg291
g3975
sg292
(lp3978
sg294
g253
sg295
Nsg296
Nsg297
Nsbag2
(g3
g4
Ntp3979
Rp3980
(dp3981
g8
g11
sg275
Nsg276
(dp3982
sg278
Nsg26
g29
sg279
(lp3983
I29
aI8
asg281
Nsg282
VChagigah 15a:8
p3984
sg284
(lp3985
sg286
g73
sg287
Nsg288
(lp3986
I29
aI8
asg290
Nsg291
g3984
sg292
(lp3987
sg294
g253
sg295
Nsg296
Nsg297
Nsbag2
(g3
g4
Ntp3988
Rp3989
(dp3990
g8
g11
sg275
Nsg276
(dp3991
sg278
Nsg26
g29
sg279
(lp3992
I29
aI9
asg281
Nsg282
VChagigah 15a:9
p3993
sg284
(lp3994
sg286
g73
sg287
Nsg288
(lp3995
I29
aI9
asg290
Nsg291
g3993
sg292
(lp3996
sg294
g253
sg295
Nsg296
Nsg297
Nsbag2
(g3
g4
Ntp3997
Rp3998
(dp3999
g8
g11
sg275
Nsg276
(dp4000
sg278
Nsg26
g29
sg279
(lp4001
I29
aI10
asg281
Nsg282
VChagigah 15a:10
p4002
sg284
(lp4003
sg286
g73
sg287
Nsg288
(lp4004
I29
aI10
asg290
Nsg291
g4002
sg292
(lp4005
sg294
g253
sg295
Nsg296
Nsg297
Nsbag2
(g3
g4
Ntp4006
Rp4007
(dp4008
g8
g11
sg275
Nsg276
(dp4009
sg278
Nsg26
g29
sg279
(lp4010
I29
aI11
asg281
Nsg282
VChagigah 15a:11
p4011
sg284
(lp4012
sg286
g73
sg287
Nsg288
(lp4013
I29
aI11
asg290
Nsg291
g4011
sg292
(lp4014
sg294
g253
sg295
Nsg296
Nsg297
Nsbag2
(g3
g4
Ntp4015
Rp4016
(dp4017
g8
g11
sg275
Nsg276
(dp4018
sg278
Nsg26
g29
sg279
(lp4019
I29
aI12
asg281
Nsg282
VChagigah 15a:12
p4020
sg284
(lp4021
sg286
g73
sg287
Nsg288
(lp4022
I29
aI12
asg290
Nsg291
g4020
sg292
(lp4023
sg294
g253
sg295
Nsg296
Nsg297
Nsbag2
(g3
g4
Ntp4024
Rp4025
(dp4026
g8
g11
sg275
Nsg276
(dp4027
sg278
Nsg26
g29
sg279
(lp4028
I29
aI13
asg281
Nsg282
VChagigah 15a:13
p4029
sg284
(lp4030
sg286
g73
sg287
Nsg288
(lp4031
I29
aI13
asg290
Nsg291
g4029
sg292
(lp4032
sg294
g253
sg295
Nsg296
Nsg297
Nsbag2
(g3
g4
Ntp4033
Rp4034
(dp4035
g8
g11
sg275
Nsg276
(dp4036
sg278
Nsg26
g29
sg279
(lp4037
I30
aI1
asg281
Nsg282
VChagigah 15b:1
p4038
sg284
(lp4039
sg286
g73
sg287
Nsg288
(lp4040
I30
aI1
asg290
Nsg291
g4038
sg292
(lp4041
sg294
g253
sg295
Nsg296
Nsg297
Nsbag2
(g3
g4
Ntp4042
Rp4043
(dp4044
g8
g11
sg275
Nsg276
(dp4045
sg278
Nsg26
g29
sg279
(lp4046
I30
aI2
asg281
Nsg282
VChagigah 15b:2
p4047
sg284
(lp4048
sg286
g73
sg287
Nsg288
(lp4049
I30
aI2
asg290
Nsg291
g4047
sg292
(lp4050
sg294
g253
sg295
Nsg296
Nsg297
Nsbag2
(g3
g4
Ntp4051
Rp4052
(dp4053
g8
g11
sg275
Nsg276
(dp4054
sg278
Nsg26
g29
sg279
(lp4055
I30
aI3
asg281
Nsg282
VChagigah 15b:3
p4056
sg284
(lp4057
sg286
g73
sg287
Nsg288
(lp4058
I30
aI3
asg290
Nsg291
g4056
sg292
(lp4059
sg294
g253
sg295
Nsg296
Nsg297
Nsbag2
(g3
g4
Ntp4060
Rp4061
(dp4062
g8
g11
sg275
Nsg276
(dp4063
sg278
Nsg26
g29
sg279
(lp4064
I30
aI4
asg281
Nsg282
VChagigah 15b:4
p4065
sg284
(lp4066
sg286
g73
sg287
Nsg288
(lp4067
I30
aI4
asg290
Nsg291
g4065
sg292
(lp4068
sg294
g253
sg295
Nsg296
Nsg297
Nsbag2
(g3
g4
Ntp4069
Rp4070
(dp4071
g8
g11
sg275
Nsg276
(dp4072
sg278
Nsg26
g29
sg279
(lp4073
I30
aI5
asg281
Nsg282
VChagigah 15b:5
p4074
sg284
(lp4075
sg286
g73
sg287
Nsg288
(lp4076
I30
aI5
asg290
Nsg291
g4074
sg292
(lp4077
sg294
g253
sg295
Nsg296
Nsg297
Nsbag2
(g3
g4
Ntp4078
Rp4079
(dp4080
g8
g11
sg275
Nsg276
(dp4081
sg278
Nsg26
g29
sg279
(lp4082
I30
aI6
asg281
Nsg282
VChagigah 15b:6
p4083
sg284
(lp4084
sg286
g73
sg287
Nsg288
(lp4085
I30
aI6
asg290
Nsg291
g4083
sg292
(lp4086
sg294
g253
sg295
Nsg296
Nsg297
Nsbag2
(g3
g4
Ntp4087
Rp4088
(dp4089
g8
g11
sg275
Nsg276
(dp4090
sg278
Nsg26
g29
sg279
(lp4091
I30
aI7
asg281
Nsg282
VChagigah 15b:7
p4092
sg284
(lp4093
sg286
g73
sg287
Nsg288
(lp4094
I30
aI7
asg290
Nsg291
g4092
sg292
(lp4095
sg294
g253
sg295
Nsg296
Nsg297
Nsbag2
(g3
g4
Ntp4096
Rp4097
(dp4098
g8
g11
sg275
Nsg276
(dp4099
sg278
Nsg26
g29
sg279
(lp4100
I30
aI8
asg281
Nsg282
VChagigah 15b:8
p4101
sg284
(lp4102
sg286
g73
sg287
Nsg288
(lp4103
I30
aI8
asg290
Nsg291
g4101
sg292
(lp4104
sg294
g253
sg295
Nsg296
Nsg297
Nsbag2
(g3
g4
Ntp4105
Rp4106
(dp4107
g8
g11
sg275
Nsg276
(dp4108
sg278
Nsg26
g29
sg279
(lp4109
I30
aI9
asg281
Nsg282
VChagigah 15b:9
p4110
sg284
(lp4111
sg286
g73
sg287
Nsg288
(lp4112
I30
aI9
asg290
Nsg291
g4110
sg292
(lp4113
sg294
g253
sg295
Nsg296
Nsg297
Nsbag2
(g3
g4
Ntp4114
Rp4115
(dp4116
g8
g11
sg275
Nsg276
(dp4117
sg278
Nsg26
g29
sg279
(lp4118
I30
aI10
asg281
Nsg282
VChagigah 15b:10
p4119
sg284
(lp4120
sg286
g73
sg287
Nsg288
(lp4121
I30
aI10
asg290
Nsg291
g4119
sg292
(lp4122
sg294
g253
sg295
Nsg296
Nsg297
Nsbag2
(g3
g4
Ntp4123
Rp4124
(dp4125
g8
g11
sg275
Nsg276
(dp4126
sg278
Nsg26
g29
sg279
(lp4127
I30
aI11
asg281
Nsg282
VChagigah 15b:11
p4128
sg284
(lp4129
sg286
g73
sg287
Nsg288
(lp4130
I30
aI11
asg290
Nsg291
g4128
sg292
(lp4131
sg294
g253
sg295
Nsg296
Nsg297
Nsbag2
(g3
g4
Ntp4132
Rp4133
(dp4134
g8
g11
sg275
Nsg276
(dp4135
sg278
Nsg26
g29
sg279
(lp4136
I30
aI12
asg281
Nsg282
VChagigah 15b:12
p4137
sg284
(lp4138
sg286
g73
sg287
Nsg288
(lp4139
I30
aI12
asg290
Nsg291
g4137
sg292
(lp4140
sg294
g253
sg295
Nsg296
Nsg297
Nsbag2
(g3
g4
Ntp4141
Rp4142
(dp4143
g8
g11
sg275
Nsg276
(dp4144
sg278
Nsg26
g29
sg279
(lp4145
I30
aI13
asg281
Nsg282
VChagigah 15b:13
p4146
sg284
(lp4147
sg286
g73
sg287
Nsg288
(lp4148
I30
aI13
asg290
Nsg291
g4146
sg292
(lp4149
sg294
g253
sg295
Nsg296
Nsg297
Nsbag2
(g3
g4
Ntp4150
Rp4151
(dp4152
g8
g11
sg275
Nsg276
(dp4153
sg278
Nsg26
g29
sg279
(lp4154
I30
aI14
asg281
Nsg282
VChagigah 15b:14
p4155
sg284
(lp4156
sg286
g73
sg287
Nsg288
(lp4157
I30
aI14
asg290
Nsg291
g4155
sg292
(lp4158
sg294
g253
sg295
Nsg296
Nsg297
Nsbag2
(g3
g4
Ntp4159
Rp4160
(dp4161
g8
g11
sg275
Nsg276
(dp4162
sg278
Nsg26
g29
sg279
(lp4163
I30
aI15
asg281
Nsg282
VChagigah 15b:15
p4164
sg284
(lp4165
sg286
g73
sg287
Nsg288
(lp4166
I30
aI15
asg290
Nsg291
g4164
sg292
(lp4167
sg294
g253
sg295
Nsg296
Nsg297
Nsbag2
(g3
g4
Ntp4168
Rp4169
(dp4170
g8
g11
sg275
Nsg276
(dp4171
sg278
Nsg26
g29
sg279
(lp4172
I30
aI16
asg281
Nsg282
VChagigah 15b:16
p4173
sg284
(lp4174
sg286
g73
sg287
Nsg288
(lp4175
I30
aI16
asg290
Nsg291
g4173
sg292
(lp4176
sg294
g253
sg295
Nsg296
Nsg297
Nsbag2
(g3
g4
Ntp4177
Rp4178
(dp4179
g8
g11
sg275
Nsg276
(dp4180
sg278
Nsg26
g29
sg279
(lp4181
I31
aI1
asg281
Nsg282
VChagigah 16a:1
p4182
sg284
(lp4183
sg286
g73
sg287
Nsg288
(lp4184
I31
aI1
asg290
Nsg291
g4182
sg292
(lp4185
sg294
g253
sg295
Nsg296
Nsg297
Nsbag2
(g3
g4
Ntp4186
Rp4187
(dp4188
g8
g11
sg275
Nsg276
(dp4189
sg278
Nsg26
g29
sg279
(lp4190
I31
aI2
asg281
Nsg282
VChagigah 16a:2
p4191
sg284
(lp4192
sg286
g73
sg287
Nsg288
(lp4193
I31
aI2
asg290
Nsg291
g4191
sg292
(lp4194
sg294
g253
sg295
Nsg296
Nsg297
Nsbag2
(g3
g4
Ntp4195
Rp4196
(dp4197
g8
g11
sg275
Nsg276
(dp4198
sg278
Nsg26
g29
sg279
(lp4199
I31
aI3
asg281
Nsg282
VChagigah 16a:3
p4200
sg284
(lp4201
sg286
g73
sg287
Nsg288
(lp4202
I31
aI3
asg290
Nsg291
g4200
sg292
(lp4203
sg294
g253
sg295
Nsg296
Nsg297
Nsbag2
(g3
g4
Ntp4204
Rp4205
(dp4206
g8
g11
sg275
Nsg276
(dp4207
sg278
Nsg26
g29
sg279
(lp4208
I31
aI4
asg281
Nsg282
VChagigah 16a:4
p4209
sg284
(lp4210
sg286
g73
sg287
Nsg288
(lp4211
I31
aI4
asg290
Nsg291
g4209
sg292
(lp4212
sg294
g253
sg295
Nsg296
Nsg297
Nsbag2
(g3
g4
Ntp4213
Rp4214
(dp4215
g8
g11
sg275
Nsg276
(dp4216
sg278
Nsg26
g29
sg279
(lp4217
I31
aI5
asg281
Nsg282
VChagigah 16a:5
p4218
sg284
(lp4219
sg286
g73
sg287
Nsg288
(lp4220
I31
aI5
asg290
Nsg291
g4218
sg292
(lp4221
sg294
g253
sg295
Nsg296
Nsg297
Nsbag2
(g3
g4
Ntp4222
Rp4223
(dp4224
g8
g11
sg275
Nsg276
(dp4225
sg278
Nsg26
g29
sg279
(lp4226
I31
aI6
asg281
Nsg282
VChagigah 16a:6
p4227
sg284
(lp4228
sg286
g73
sg287
Nsg288
(lp4229
I31
aI6
asg290
Nsg291
g4227
sg292
(lp4230
sg294
g253
sg295
Nsg296
Nsg297
Nsbag2
(g3
g4
Ntp4231
Rp4232
(dp4233
g8
g11
sg275
Nsg276
(dp4234
sg278
Nsg26
g29
sg279
(lp4235
I31
aI7
asg281
Nsg282
VChagigah 16a:7
p4236
sg284
(lp4237
sg286
g73
sg287
Nsg288
(lp4238
I31
aI7
asg290
Nsg291
g4236
sg292
(lp4239
sg294
g253
sg295
Nsg296
Nsg297
Nsbag2
(g3
g4
Ntp4240
Rp4241
(dp4242
g8
g11
sg275
Nsg276
(dp4243
sg278
Nsg26
g29
sg279
(lp4244
I31
aI8
asg281
Nsg282
VChagigah 16a:8
p4245
sg284
(lp4246
sg286
g73
sg287
Nsg288
(lp4247
I31
aI8
asg290
Nsg291
g4245
sg292
(lp4248
sg294
g253
sg295
Nsg296
Nsg297
Nsbag2
(g3
g4
Ntp4249
Rp4250
(dp4251
g8
g11
sg275
Nsg276
(dp4252
sg278
Nsg26
g29
sg279
(lp4253
I31
aI9
asg281
Nsg282
VChagigah 16a:9
p4254
sg284
(lp4255
sg286
g73
sg287
Nsg288
(lp4256
I31
aI9
asg290
Nsg291
g4254
sg292
(lp4257
sg294
g253
sg295
Nsg296
Nsg297
Nsbag2
(g3
g4
Ntp4258
Rp4259
(dp4260
g8
g11
sg275
Nsg276
(dp4261
sg278
Nsg26
g29
sg279
(lp4262
I31
aI10
asg281
Nsg282
VChagigah 16a:10
p4263
sg284
(lp4264
sg286
g73
sg287
Nsg288
(lp4265
I31
aI10
asg290
Nsg291
g4263
sg292
(lp4266
sg294
g253
sg295
Nsg296
Nsg297
Nsbag2
(g3
g4
Ntp4267
Rp4268
(dp4269
g8
g11
sg275
Nsg276
(dp4270
sg278
Nsg26
g29
sg279
(lp4271
I31
aI11
asg281
Nsg282
VChagigah 16a:11
p4272
sg284
(lp4273
sg286
g73
sg287
Nsg288
(lp4274
I31
aI11
asg290
Nsg291
g4272
sg292
(lp4275
sg294
g253
sg295
Nsg296
Nsg297
Nsbag2
(g3
g4
Ntp4276
Rp4277
(dp4278
g8
g11
sg275
Nsg276
(dp4279
sg278
Nsg26
g29
sg279
(lp4280
I31
aI12
asg281
Nsg282
VChagigah 16a:12
p4281
sg284
(lp4282
sg286
g73
sg287
Nsg288
(lp4283
I31
aI12
asg290
Nsg291
g4281
sg292
(lp4284
sg294
g253
sg295
Nsg296
Nsg297
Nsbag2
(g3
g4
Ntp4285
Rp4286
(dp4287
g8
g11
sg275
Nsg276
(dp4288
sg278
Nsg26
g29
sg279
(lp4289
I31
aI13
asg281
Nsg282
VChagigah 16a:13
p4290
sg284
(lp4291
sg286
g73
sg287
Nsg288
(lp4292
I31
aI13
asg290
Nsg291
g4290
sg292
(lp4293
sg294
g253
sg295
Nsg296
Nsg297
Nsbag2
(g3
g4
Ntp4294
Rp4295
(dp4296
g8
g11
sg275
Nsg276
(dp4297
sg278
Nsg26
g29
sg279
(lp4298
I31
aI14
asg281
Nsg282
VChagigah 16a:14
p4299
sg284
(lp4300
sg286
g73
sg287
Nsg288
(lp4301
I31
aI14
asg290
Nsg291
g4299
sg292
(lp4302
sg294
g253
sg295
Nsg296
Nsg297
Nsbag2
(g3
g4
Ntp4303
Rp4304
(dp4305
g8
g11
sg275
Nsg276
(dp4306
sg278
Nsg26
g29
sg279
(lp4307
I31
aI15
asg281
Nsg282
VChagigah 16a:15
p4308
sg284
(lp4309
sg286
g73
sg287
Nsg288
(lp4310
I31
aI15
asg290
Nsg291
g4308
sg292
(lp4311
sg294
g253
sg295
Nsg296
Nsg297
Nsbag2
(g3
g4
Ntp4312
Rp4313
(dp4314
g8
g11
sg275
Nsg276
(dp4315
sg278
Nsg26
g29
sg279
(lp4316
I31
aI16
asg281
Nsg282
VChagigah 16a:16
p4317
sg284
(lp4318
sg286
g73
sg287
Nsg288
(lp4319
I31
aI16
asg290
Nsg291
g4317
sg292
(lp4320
sg294
g253
sg295
Nsg296
Nsg297
Nsbag2
(g3
g4
Ntp4321
Rp4322
(dp4323
g8
g11
sg275
Nsg276
(dp4324
sg278
Nsg26
g29
sg279
(lp4325
I31
aI17
asg281
Nsg282
VChagigah 16a:17
p4326
sg284
(lp4327
sg286
g73
sg287
Nsg288
(lp4328
I31
aI17
asg290
Nsg291
g4326
sg292
(lp4329
sg294
g253
sg295
Nsg296
Nsg297
Nsbag2
(g3
g4
Ntp4330
Rp4331
(dp4332
g8
g11
sg275
Nsg276
(dp4333
sg278
Nsg26
g29
sg279
(lp4334
I31
aI18
asg281
Nsg282
VChagigah 16a:18
p4335
sg284
(lp4336
sg286
g73
sg287
Nsg288
(lp4337
I31
aI18
asg290
Nsg291
g4335
sg292
(lp4338
sg294
g253
sg295
Nsg296
Nsg297
Nsbag2
(g3
g4
Ntp4339
Rp4340
(dp4341
g8
g11
sg275
Nsg276
(dp4342
sg278
Nsg26
g29
sg279
(lp4343
I32
aI1
asg281
Nsg282
VChagigah 16b:1
p4344
sg284
(lp4345
sg286
g73
sg287
Nsg288
(lp4346
I32
aI1
asg290
Nsg291
g4344
sg292
(lp4347
sg294
g253
sg295
Nsg296
Nsg297
Nsbag2
(g3
g4
Ntp4348
Rp4349
(dp4350
g8
g11
sg275
Nsg276
(dp4351
sg278
Nsg26
g29
sg279
(lp4352
I32
aI2
asg281
Nsg282
VChagigah 16b:2
p4353
sg284
(lp4354
sg286
g73
sg287
Nsg288
(lp4355
I32
aI2
asg290
Nsg291
g4353
sg292
(lp4356
sg294
g253
sg295
Nsg296
Nsg297
Nsbag2
(g3
g4
Ntp4357
Rp4358
(dp4359
g8
g11
sg275
Nsg276
(dp4360
sg278
Nsg26
g29
sg279
(lp4361
I32
aI3
asg281
Nsg282
VChagigah 16b:3
p4362
sg284
(lp4363
sg286
g73
sg287
Nsg288
(lp4364
I32
aI3
asg290
Nsg291
g4362
sg292
(lp4365
sg294
g253
sg295
Nsg296
Nsg297
Nsbag2
(g3
g4
Ntp4366
Rp4367
(dp4368
g8
g11
sg275
Nsg276
(dp4369
sg278
Nsg26
g29
sg279
(lp4370
I32
aI4
asg281
Nsg282
VChagigah 16b:4
p4371
sg284
(lp4372
sg286
g73
sg287
Nsg288
(lp4373
I32
aI4
asg290
Nsg291
g4371
sg292
(lp4374
sg294
g253
sg295
Nsg296
Nsg297
Nsbag2
(g3
g4
Ntp4375
Rp4376
(dp4377
g8
g11
sg275
Nsg276
(dp4378
sg278
Nsg26
g29
sg279
(lp4379
I32
aI5
asg281
Nsg282
VChagigah 16b:5
p4380
sg284
(lp4381
sg286
g73
sg287
Nsg288
(lp4382
I32
aI5
asg290
Nsg291
g4380
sg292
(lp4383
sg294
g253
sg295
Nsg296
Nsg297
Nsbag2
(g3
g4
Ntp4384
Rp4385
(dp4386
g8
g11
sg275
Nsg276
(dp4387
sg278
Nsg26
g29
sg279
(lp4388
I32
aI6
asg281
Nsg282
VChagigah 16b:6
p4389
sg284
(lp4390
sg286
g73
sg287
Nsg288
(lp4391
I32
aI6
asg290
Nsg291
g4389
sg292
(lp4392
sg294
g253
sg295
Nsg296
Nsg297
Nsbag2
(g3
g4
Ntp4393
Rp4394
(dp4395
g8
g11
sg275
Nsg276
(dp4396
sg278
Nsg26
g29
sg279
(lp4397
I32
aI7
asg281
Nsg282
VChagigah 16b:7
p4398
sg284
(lp4399
sg286
g73
sg287
Nsg288
(lp4400
I32
aI7
asg290
Nsg291
g4398
sg292
(lp4401
sg294
g253
sg295
Nsg296
Nsg297
Nsbag2
(g3
g4
Ntp4402
Rp4403
(dp4404
g8
g11
sg275
Nsg276
(dp4405
sg278
Nsg26
g29
sg279
(lp4406
I32
aI8
asg281
Nsg282
VChagigah 16b:8
p4407
sg284
(lp4408
sg286
g73
sg287
Nsg288
(lp4409
I32
aI8
asg290
Nsg291
g4407
sg292
(lp4410
sg294
g253
sg295
Nsg296
Nsg297
Nsbag2
(g3
g4
Ntp4411
Rp4412
(dp4413
g8
g11
sg275
Nsg276
(dp4414
sg278
Nsg26
g29
sg279
(lp4415
I32
aI9
asg281
Nsg282
VChagigah 16b:9
p4416
sg284
(lp4417
sg286
g73
sg287
Nsg288
(lp4418
I32
aI9
asg290
Nsg291
g4416
sg292
(lp4419
sg294
g253
sg295
Nsg296
Nsg297
Nsbag2
(g3
g4
Ntp4420
Rp4421
(dp4422
g8
g11
sg275
Nsg276
(dp4423
sg278
Nsg26
g29
sg279
(lp4424
I32
aI10
asg281
Nsg282
VChagigah 16b:10
p4425
sg284
(lp4426
sg286
g73
sg287
Nsg288
(lp4427
I32
aI10
asg290
Nsg291
g4425
sg292
(lp4428
sg294
g253
sg295
Nsg296
Nsg297
Nsbag2
(g3
g4
Ntp4429
Rp4430
(dp4431
g8
g11
sg275
Nsg276
(dp4432
sg278
Nsg26
g29
sg279
(lp4433
I32
aI11
asg281
Nsg282
VChagigah 16b:11
p4434
sg284
(lp4435
sg286
g73
sg287
Nsg288
(lp4436
I32
aI11
asg290
Nsg291
g4434
sg292
(lp4437
sg294
g253
sg295
Nsg296
Nsg297
Nsbag2
(g3
g4
Ntp4438
Rp4439
(dp4440
g8
g11
sg275
Nsg276
(dp4441
sg278
Nsg26
g29
sg279
(lp4442
I32
aI12
asg281
Nsg282
VChagigah 16b:12
p4443
sg284
(lp4444
sg286
g73
sg287
Nsg288
(lp4445
I32
aI12
asg290
Nsg291
g4443
sg292
(lp4446
sg294
g253
sg295
Nsg296
Nsg297
Nsbag2
(g3
g4
Ntp4447
Rp4448
(dp4449
g8
g11
sg275
Nsg276
(dp4450
sg278
Nsg26
g29
sg279
(lp4451
I32
aI13
asg281
Nsg282
VChagigah 16b:13
p4452
sg284
(lp4453
sg286
g73
sg287
Nsg288
(lp4454
I32
aI13
asg290
Nsg291
g4452
sg292
(lp4455
sg294
g253
sg295
Nsg296
Nsg297
Nsbag2
(g3
g4
Ntp4456
Rp4457
(dp4458
g8
g11
sg275
Nsg276
(dp4459
sg278
Nsg26
g29
sg279
(lp4460
I32
aI14
asg281
Nsg282
VChagigah 16b:14
p4461
sg284
(lp4462
sg286
g73
sg287
Nsg288
(lp4463
I32
aI14
asg290
Nsg291
g4461
sg292
(lp4464
sg294
g253
sg295
Nsg296
Nsg297
Nsbag2
(g3
g4
Ntp4465
Rp4466
(dp4467
g8
g11
sg275
Nsg276
(dp4468
sg278
Nsg26
g29
sg279
(lp4469
I32
aI15
asg281
Nsg282
VChagigah 16b:15
p4470
sg284
(lp4471
sg286
g73
sg287
Nsg288
(lp4472
I32
aI15
asg290
Nsg291
g4470
sg292
(lp4473
sg294
g253
sg295
Nsg296
Nsg297
Nsbag2
(g3
g4
Ntp4474
Rp4475
(dp4476
g8
g11
sg275
Nsg276
(dp4477
sg278
Nsg26
g29
sg279
(lp4478
I32
aI16
asg281
Nsg282
VChagigah 16b:16
p4479
sg284
(lp4480
sg286
g73
sg287
Nsg288
(lp4481
I32
aI16
asg290
Nsg291
g4479
sg292
(lp4482
sg294
g253
sg295
Nsg296
Nsg297
Nsbag2
(g3
g4
Ntp4483
Rp4484
(dp4485
g8
g11
sg275
Nsg276
(dp4486
sg278
Nsg26
g29
sg279
(lp4487
I32
aI17
asg281
Nsg282
VChagigah 16b:17
p4488
sg284
(lp4489
sg286
g73
sg287
Nsg288
(lp4490
I32
aI17
asg290
Nsg291
g4488
sg292
(lp4491
sg294
g253
sg295
Nsg296
Nsg297
Nsbag2
(g3
g4
Ntp4492
Rp4493
(dp4494
g8
g11
sg275
Nsg276
(dp4495
sg278
Nsg26
g29
sg279
(lp4496
I32
aI18
asg281
Nsg282
VChagigah 16b:18
p4497
sg284
(lp4498
sg286
g73
sg287
Nsg288
(lp4499
I32
aI18
asg290
Nsg291
g4497
sg292
(lp4500
sg294
g253
sg295
Nsg296
Nsg297
Nsbag2
(g3
g4
Ntp4501
Rp4502
(dp4503
g8
g11
sg275
Nsg276
(dp4504
sg278
Nsg26
g29
sg279
(lp4505
I32
aI19
asg281
Nsg282
VChagigah 16b:19
p4506
sg284
(lp4507
sg286
g73
sg287
Nsg288
(lp4508
I32
aI19
asg290
Nsg291
g4506
sg292
(lp4509
sg294
g253
sg295
Nsg296
Nsg297
Nsbag2
(g3
g4
Ntp4510
Rp4511
(dp4512
g8
g11
sg275
Nsg276
(dp4513
sg278
Nsg26
g29
sg279
(lp4514
I33
aI1
asg281
Nsg282
VChagigah 17a:1
p4515
sg284
(lp4516
sg286
g73
sg287
Nsg288
(lp4517
I33
aI1
asg290
Nsg291
g4515
sg292
(lp4518
sg294
g253
sg295
Nsg296
Nsg297
Nsbag2
(g3
g4
Ntp4519
Rp4520
(dp4521
g8
g11
sg275
Nsg276
(dp4522
sg278
Nsg26
g29
sg279
(lp4523
I33
aI2
asg281
Nsg282
VChagigah 17a:2
p4524
sg284
(lp4525
sg286
g73
sg287
Nsg288
(lp4526
I33
aI2
asg290
Nsg291
g4524
sg292
(lp4527
sg294
g253
sg295
Nsg296
Nsg297
Nsbag2
(g3
g4
Ntp4528
Rp4529
(dp4530
g8
g11
sg275
Nsg276
(dp4531
sg278
Nsg26
g29
sg279
(lp4532
I33
aI3
asg281
Nsg282
VChagigah 17a:3
p4533
sg284
(lp4534
sg286
g73
sg287
Nsg288
(lp4535
I33
aI3
asg290
Nsg291
g4533
sg292
(lp4536
sg294
g253
sg295
Nsg296
Nsg297
Nsbag2
(g3
g4
Ntp4537
Rp4538
(dp4539
g8
g11
sg275
Nsg276
(dp4540
sg278
Nsg26
g29
sg279
(lp4541
I33
aI4
asg281
Nsg282
VChagigah 17a:4
p4542
sg284
(lp4543
sg286
g73
sg287
Nsg288
(lp4544
I33
aI4
asg290
Nsg291
g4542
sg292
(lp4545
sg294
g253
sg295
Nsg296
Nsg297
Nsbag2
(g3
g4
Ntp4546
Rp4547
(dp4548
g8
g11
sg275
Nsg276
(dp4549
sg278
Nsg26
g29
sg279
(lp4550
I33
aI5
asg281
Nsg282
VChagigah 17a:5
p4551
sg284
(lp4552
sg286
g73
sg287
Nsg288
(lp4553
I33
aI5
asg290
Nsg291
g4551
sg292
(lp4554
sg294
g253
sg295
Nsg296
Nsg297
Nsbag2
(g3
g4
Ntp4555
Rp4556
(dp4557
g8
g11
sg275
Nsg276
(dp4558
sg278
Nsg26
g29
sg279
(lp4559
I33
aI6
asg281
Nsg282
VChagigah 17a:6
p4560
sg284
(lp4561
sg286
g73
sg287
Nsg288
(lp4562
I33
aI6
asg290
Nsg291
g4560
sg292
(lp4563
sg294
g253
sg295
Nsg296
Nsg297
Nsbag2
(g3
g4
Ntp4564
Rp4565
(dp4566
g8
g11
sg275
Nsg276
(dp4567
sg278
Nsg26
g29
sg279
(lp4568
I33
aI7
asg281
Nsg282
VChagigah 17a:7
p4569
sg284
(lp4570
sg286
g73
sg287
Nsg288
(lp4571
I33
aI7
asg290
Nsg291
g4569
sg292
(lp4572
sg294
g253
sg295
Nsg296
Nsg297
Nsbag2
(g3
g4
Ntp4573
Rp4574
(dp4575
g8
g11
sg275
Nsg276
(dp4576
sg278
Nsg26
g29
sg279
(lp4577
I33
aI8
asg281
Nsg282
VChagigah 17a:8
p4578
sg284
(lp4579
sg286
g73
sg287
Nsg288
(lp4580
I33
aI8
asg290
Nsg291
g4578
sg292
(lp4581
sg294
g253
sg295
Nsg296
Nsg297
Nsbag2
(g3
g4
Ntp4582
Rp4583
(dp4584
g8
g11
sg275
Nsg276
(dp4585
sg278
Nsg26
g29
sg279
(lp4586
I33
aI9
asg281
Nsg282
VChagigah 17a:9
p4587
sg284
(lp4588
sg286
g73
sg287
Nsg288
(lp4589
I33
aI9
asg290
Nsg291
g4587
sg292
(lp4590
sg294
g253
sg295
Nsg296
Nsg297
Nsbag2
(g3
g4
Ntp4591
Rp4592
(dp4593
g8
g11
sg275
Nsg276
(dp4594
sg278
Nsg26
g29
sg279
(lp4595
I33
aI10
asg281
Nsg282
VChagigah 17a:10
p4596
sg284
(lp4597
sg286
g73
sg287
Nsg288
(lp4598
I33
aI10
asg290
Nsg291
g4596
sg292
(lp4599
sg294
g253
sg295
Nsg296
Nsg297
Nsbag2
(g3
g4
Ntp4600
Rp4601
(dp4602
g8
g11
sg275
Nsg276
(dp4603
sg278
Nsg26
g29
sg279
(lp4604
I34
aI1
asg281
Nsg282
VChagigah 17b:1
p4605
sg284
(lp4606
sg286
g73
sg287
Nsg288
(lp4607
I34
aI1
asg290
Nsg291
g4605
sg292
(lp4608
sg294
g253
sg295
Nsg296
Nsg297
Nsbag2
(g3
g4
Ntp4609
Rp4610
(dp4611
g8
g11
sg275
Nsg276
(dp4612
sg278
Nsg26
g29
sg279
(lp4613
I34
aI2
asg281
Nsg282
VChagigah 17b:2
p4614
sg284
(lp4615
sg286
g73
sg287
Nsg288
(lp4616
I34
aI2
asg290
Nsg291
g4614
sg292
(lp4617
sg294
g253
sg295
Nsg296
Nsg297
Nsbag2
(g3
g4
Ntp4618
Rp4619
(dp4620
g8
g11
sg275
Nsg276
(dp4621
sg278
Nsg26
g29
sg279
(lp4622
I34
aI3
asg281
Nsg282
VChagigah 17b:3
p4623
sg284
(lp4624
sg286
g73
sg287
Nsg288
(lp4625
I34
aI3
asg290
Nsg291
g4623
sg292
(lp4626
sg294
g253
sg295
Nsg296
Nsg297
Nsbag2
(g3
g4
Ntp4627
Rp4628
(dp4629
g8
g11
sg275
Nsg276
(dp4630
sg278
Nsg26
g29
sg279
(lp4631
I34
aI4
asg281
Nsg282
VChagigah 17b:4
p4632
sg284
(lp4633
sg286
g73
sg287
Nsg288
(lp4634
I34
aI4
asg290
Nsg291
g4632
sg292
(lp4635
sg294
g253
sg295
Nsg296
Nsg297
Nsbag2
(g3
g4
Ntp4636
Rp4637
(dp4638
g8
g11
sg275
Nsg276
(dp4639
sg278
Nsg26
g29
sg279
(lp4640
I34
aI5
asg281
Nsg282
VChagigah 17b:5
p4641
sg284
(lp4642
sg286
g73
sg287
Nsg288
(lp4643
I34
aI5
asg290
Nsg291
g4641
sg292
(lp4644
sg294
g253
sg295
Nsg296
Nsg297
Nsbag2
(g3
g4
Ntp4645
Rp4646
(dp4647
g8
g11
sg275
Nsg276
(dp4648
sg278
Nsg26
g29
sg279
(lp4649
I34
aI6
asg281
Nsg282
VChagigah 17b:6
p4650
sg284
(lp4651
sg286
g73
sg287
Nsg288
(lp4652
I34
aI6
asg290
Nsg291
g4650
sg292
(lp4653
sg294
g253
sg295
Nsg296
Nsg297
Nsbag2
(g3
g4
Ntp4654
Rp4655
(dp4656
g8
g11
sg275
Nsg276
(dp4657
sg278
Nsg26
g29
sg279
(lp4658
I34
aI7
asg281
Nsg282
VChagigah 17b:7
p4659
sg284
(lp4660
sg286
g73
sg287
Nsg288
(lp4661
I34
aI7
asg290
Nsg291
g4659
sg292
(lp4662
sg294
g253
sg295
Nsg296
Nsg297
Nsbag2
(g3
g4
Ntp4663
Rp4664
(dp4665
g8
g11
sg275
Nsg276
(dp4666
sg278
Nsg26
g29
sg279
(lp4667
I34
aI8
asg281
Nsg282
VChagigah 17b:8
p4668
sg284
(lp4669
sg286
g73
sg287
Nsg288
(lp4670
I34
aI8
asg290
Nsg291
g4668
sg292
(lp4671
sg294
g253
sg295
Nsg296
Nsg297
Nsbag2
(g3
g4
Ntp4672
Rp4673
(dp4674
g8
g11
sg275
Nsg276
(dp4675
sg278
Nsg26
g29
sg279
(lp4676
I34
aI9
asg281
Nsg282
VChagigah 17b:9
p4677
sg284
(lp4678
sg286
g73
sg287
Nsg288
(lp4679
I34
aI9
asg290
Nsg291
g4677
sg292
(lp4680
sg294
g253
sg295
Nsg296
Nsg297
Nsbag2
(g3
g4
Ntp4681
Rp4682
(dp4683
g8
g11
sg275
Nsg276
(dp4684
sg278
Nsg26
g29
sg279
(lp4685
I34
aI10
asg281
Nsg282
VChagigah 17b:10
p4686
sg284
(lp4687
sg286
g73
sg287
Nsg288
(lp4688
I34
aI10
asg290
Nsg291
g4686
sg292
(lp4689
sg294
g253
sg295
Nsg296
Nsg297
Nsbag2
(g3
g4
Ntp4690
Rp4691
(dp4692
g8
g11
sg275
Nsg276
(dp4693
sg278
Nsg26
g29
sg279
(lp4694
I34
aI11
asg281
Nsg282
VChagigah 17b:11
p4695
sg284
(lp4696
sg286
g73
sg287
Nsg288
(lp4697
I34
aI11
asg290
Nsg291
g4695
sg292
(lp4698
sg294
g253
sg295
Nsg296
Nsg297
Nsbag2
(g3
g4
Ntp4699
Rp4700
(dp4701
g8
g11
sg275
Nsg276
(dp4702
sg278
Nsg26
g29
sg279
(lp4703
I35
aI1
asg281
Nsg282
VChagigah 18a:1
p4704
sg284
(lp4705
sg286
g73
sg287
Nsg288
(lp4706
I35
aI1
asg290
Nsg291
g4704
sg292
(lp4707
sg294
g253
sg295
Nsg296
Nsg297
Nsbag2
(g3
g4
Ntp4708
Rp4709
(dp4710
g8
g11
sg275
Nsg276
(dp4711
sg278
Nsg26
g29
sg279
(lp4712
I35
aI2
asg281
Nsg282
VChagigah 18a:2
p4713
sg284
(lp4714
sg286
g73
sg287
Nsg288
(lp4715
I35
aI2
asg290
Nsg291
g4713
sg292
(lp4716
sg294
g253
sg295
Nsg296
Nsg297
Nsbag2
(g3
g4
Ntp4717
Rp4718
(dp4719
g8
g11
sg275
Nsg276
(dp4720
sg278
Nsg26
g29
sg279
(lp4721
I35
aI3
asg281
Nsg282
VChagigah 18a:3
p4722
sg284
(lp4723
sg286
g73
sg287
Nsg288
(lp4724
I35
aI3
asg290
Nsg291
g4722
sg292
(lp4725
sg294
g253
sg295
Nsg296
Nsg297
Nsbag2
(g3
g4
Ntp4726
Rp4727
(dp4728
g8
g11
sg275
Nsg276
(dp4729
sg278
Nsg26
g29
sg279
(lp4730
I35
aI4
asg281
Nsg282
VChagigah 18a:4
p4731
sg284
(lp4732
sg286
g73
sg287
Nsg288
(lp4733
I35
aI4
asg290
Nsg291
g4731
sg292
(lp4734
sg294
g253
sg295
Nsg296
Nsg297
Nsbag2
(g3
g4
Ntp4735
Rp4736
(dp4737
g8
g11
sg275
Nsg276
(dp4738
sg278
Nsg26
g29
sg279
(lp4739
I35
aI5
asg281
Nsg282
VChagigah 18a:5
p4740
sg284
(lp4741
sg286
g73
sg287
Nsg288
(lp4742
I35
aI5
asg290
Nsg291
g4740
sg292
(lp4743
sg294
g253
sg295
Nsg296
Nsg297
Nsbag2
(g3
g4
Ntp4744
Rp4745
(dp4746
g8
g11
sg275
Nsg276
(dp4747
sg278
Nsg26
g29
sg279
(lp4748
I35
aI6
asg281
Nsg282
VChagigah 18a:6
p4749
sg284
(lp4750
sg286
g73
sg287
Nsg288
(lp4751
I35
aI6
asg290
Nsg291
g4749
sg292
(lp4752
sg294
g253
sg295
Nsg296
Nsg297
Nsbag2
(g3
g4
Ntp4753
Rp4754
(dp4755
g8
g11
sg275
Nsg276
(dp4756
sg278
Nsg26
g29
sg279
(lp4757
I35
aI7
asg281
Nsg282
VChagigah 18a:7
p4758
sg284
(lp4759
sg286
g73
sg287
Nsg288
(lp4760
I35
aI7
asg290
Nsg291
g4758
sg292
(lp4761
sg294
g253
sg295
Nsg296
Nsg297
Nsbag2
(g3
g4
Ntp4762
Rp4763
(dp4764
g8
g11
sg275
Nsg276
(dp4765
sg278
Nsg26
g29
sg279
(lp4766
I35
aI8
asg281
Nsg282
VChagigah 18a:8
p4767
sg284
(lp4768
sg286
g73
sg287
Nsg288
(lp4769
I35
aI8
asg290
Nsg291
g4767
sg292
(lp4770
sg294
g253
sg295
Nsg296
Nsg297
Nsbag2
(g3
g4
Ntp4771
Rp4772
(dp4773
g8
g11
sg275
Nsg276
(dp4774
sg278
Nsg26
g29
sg279
(lp4775
I35
aI9
asg281
Nsg282
VChagigah 18a:9
p4776
sg284
(lp4777
sg286
g73
sg287
Nsg288
(lp4778
I35
aI9
asg290
Nsg291
g4776
sg292
(lp4779
sg294
g253
sg295
Nsg296
Nsg297
Nsbag2
(g3
g4
Ntp4780
Rp4781
(dp4782
g8
g11
sg275
Nsg276
(dp4783
sg278
Nsg26
g29
sg279
(lp4784
I35
aI10
asg281
Nsg282
VChagigah 18a:10
p4785
sg284
(lp4786
sg286
g73
sg287
Nsg288
(lp4787
I35
aI10
asg290
Nsg291
g4785
sg292
(lp4788
sg294
g253
sg295
Nsg296
Nsg297
Nsbag2
(g3
g4
Ntp4789
Rp4790
(dp4791
g8
g11
sg275
Nsg276
(dp4792
sg278
Nsg26
g29
sg279
(lp4793
I35
aI11
asg281
Nsg282
VChagigah 18a:11
p4794
sg284
(lp4795
sg286
g73
sg287
Nsg288
(lp4796
I35
aI11
asg290
Nsg291
g4794
sg292
(lp4797
sg294
g253
sg295
Nsg296
Nsg297
Nsbag2
(g3
g4
Ntp4798
Rp4799
(dp4800
g8
g11
sg275
Nsg276
(dp4801
sg278
Nsg26
g29
sg279
(lp4802
I36
aI1
asg281
Nsg282
VChagigah 18b:1
p4803
sg284
(lp4804
sg286
g73
sg287
Nsg288
(lp4805
I36
aI1
asg290
Nsg291
g4803
sg292
(lp4806
sg294
g253
sg295
Nsg296
Nsg297
Nsbag2
(g3
g4
Ntp4807
Rp4808
(dp4809
g8
g11
sg275
Nsg276
(dp4810
sg278
Nsg26
g29
sg279
(lp4811
I36
aI2
asg281
Nsg282
VChagigah 18b:2
p4812
sg284
(lp4813
sg286
g73
sg287
Nsg288
(lp4814
I36
aI2
asg290
Nsg291
g4812
sg292
(lp4815
sg294
g253
sg295
Nsg296
Nsg297
Nsbag2
(g3
g4
Ntp4816
Rp4817
(dp4818
g8
g11
sg275
Nsg276
(dp4819
sg278
Nsg26
g29
sg279
(lp4820
I36
aI3
asg281
Nsg282
VChagigah 18b:3
p4821
sg284
(lp4822
sg286
g73
sg287
Nsg288
(lp4823
I36
aI3
asg290
Nsg291
g4821
sg292
(lp4824
sg294
g253
sg295
Nsg296
Nsg297
Nsbag2
(g3
g4
Ntp4825
Rp4826
(dp4827
g8
g11
sg275
Nsg276
(dp4828
sg278
Nsg26
g29
sg279
(lp4829
I36
aI4
asg281
Nsg282
VChagigah 18b:4
p4830
sg284
(lp4831
sg286
g73
sg287
Nsg288
(lp4832
I36
aI4
asg290
Nsg291
g4830
sg292
(lp4833
sg294
g253
sg295
Nsg296
Nsg297
Nsbag2
(g3
g4
Ntp4834
Rp4835
(dp4836
g8
g11
sg275
Nsg276
(dp4837
sg278
Nsg26
g29
sg279
(lp4838
I36
aI5
asg281
Nsg282
VChagigah 18b:5
p4839
sg284
(lp4840
sg286
g73
sg287
Nsg288
(lp4841
I36
aI5
asg290
Nsg291
g4839
sg292
(lp4842
sg294
g253
sg295
Nsg296
Nsg297
Nsbag2
(g3
g4
Ntp4843
Rp4844
(dp4845
g8
g11
sg275
Nsg276
(dp4846
sg278
Nsg26
g29
sg279
(lp4847
I36
aI6
asg281
Nsg282
VChagigah 18b:6
p4848
sg284
(lp4849
sg286
g73
sg287
Nsg288
(lp4850
I36
aI6
asg290
Nsg291
g4848
sg292
(lp4851
sg294
g253
sg295
Nsg296
Nsg297
Nsbag2
(g3
g4
Ntp4852
Rp4853
(dp4854
g8
g11
sg275
Nsg276
(dp4855
sg278
Nsg26
g29
sg279
(lp4856
I36
aI7
asg281
Nsg282
VChagigah 18b:7
p4857
sg284
(lp4858
sg286
g73
sg287
Nsg288
(lp4859
I36
aI7
asg290
Nsg291
g4857
sg292
(lp4860
sg294
g253
sg295
Nsg296
Nsg297
Nsbag2
(g3
g4
Ntp4861
Rp4862
(dp4863
g8
g11
sg275
Nsg276
(dp4864
sg278
Nsg26
g29
sg279
(lp4865
I36
aI8
asg281
Nsg282
VChagigah 18b:8
p4866
sg284
(lp4867
sg286
g73
sg287
Nsg288
(lp4868
I36
aI8
asg290
Nsg291
g4866
sg292
(lp4869
sg294
g253
sg295
Nsg296
Nsg297
Nsbag2
(g3
g4
Ntp4870
Rp4871
(dp4872
g8
g11
sg275
Nsg276
(dp4873
sg278
Nsg26
g29
sg279
(lp4874
I36
aI9
asg281
Nsg282
VChagigah 18b:9
p4875
sg284
(lp4876
sg286
g73
sg287
Nsg288
(lp4877
I36
aI9
asg290
Nsg291
g4875
sg292
(lp4878
sg294
g253
sg295
Nsg296
Nsg297
Nsbag2
(g3
g4
Ntp4879
Rp4880
(dp4881
g8
g11
sg275
Nsg276
(dp4882
sg278
Nsg26
g29
sg279
(lp4883
I36
aI10
asg281
Nsg282
VChagigah 18b:10
p4884
sg284
(lp4885
sg286
g73
sg287
Nsg288
(lp4886
I36
aI10
asg290
Nsg291
g4884
sg292
(lp4887
sg294
g253
sg295
Nsg296
Nsg297
Nsbag2
(g3
g4
Ntp4888
Rp4889
(dp4890
g8
g11
sg275
Nsg276
(dp4891
sg278
Nsg26
g29
sg279
(lp4892
I36
aI11
asg281
Nsg282
VChagigah 18b:11
p4893
sg284
(lp4894
sg286
g73
sg287
Nsg288
(lp4895
I36
aI11
asg290
Nsg291
g4893
sg292
(lp4896
sg294
g253
sg295
Nsg296
Nsg297
Nsbag2
(g3
g4
Ntp4897
Rp4898
(dp4899
g8
g11
sg275
Nsg276
(dp4900
sg278
Nsg26
g29
sg279
(lp4901
I36
aI12
asg281
Nsg282
VChagigah 18b:12
p4902
sg284
(lp4903
sg286
g73
sg287
Nsg288
(lp4904
I36
aI12
asg290
Nsg291
g4902
sg292
(lp4905
sg294
g253
sg295
Nsg296
Nsg297
Nsbag2
(g3
g4
Ntp4906
Rp4907
(dp4908
g8
g11
sg275
Nsg276
(dp4909
sg278
Nsg26
g29
sg279
(lp4910
I37
aI1
asg281
Nsg282
VChagigah 19a:1
p4911
sg284
(lp4912
sg286
g73
sg287
Nsg288
(lp4913
I37
aI1
asg290
Nsg291
g4911
sg292
(lp4914
sg294
g253
sg295
Nsg296
Nsg297
Nsbag2
(g3
g4
Ntp4915
Rp4916
(dp4917
g8
g11
sg275
Nsg276
(dp4918
sg278
Nsg26
g29
sg279
(lp4919
I37
aI2
asg281
Nsg282
VChagigah 19a:2
p4920
sg284
(lp4921
sg286
g73
sg287
Nsg288
(lp4922
I37
aI2
asg290
Nsg291
g4920
sg292
(lp4923
sg294
g253
sg295
Nsg296
Nsg297
Nsbag2
(g3
g4
Ntp4924
Rp4925
(dp4926
g8
g11
sg275
Nsg276
(dp4927
sg278
Nsg26
g29
sg279
(lp4928
I37
aI3
asg281
Nsg282
VChagigah 19a:3
p4929
sg284
(lp4930
sg286
g73
sg287
Nsg288
(lp4931
I37
aI3
asg290
Nsg291
g4929
sg292
(lp4932
sg294
g253
sg295
Nsg296
Nsg297
Nsbag2
(g3
g4
Ntp4933
Rp4934
(dp4935
g8
g11
sg275
Nsg276
(dp4936
sg278
Nsg26
g29
sg279
(lp4937
I37
aI4
asg281
Nsg282
VChagigah 19a:4
p4938
sg284
(lp4939
sg286
g73
sg287
Nsg288
(lp4940
I37
aI4
asg290
Nsg291
g4938
sg292
(lp4941
sg294
g253
sg295
Nsg296
Nsg297
Nsbag2
(g3
g4
Ntp4942
Rp4943
(dp4944
g8
g11
sg275
Nsg276
(dp4945
sg278
Nsg26
g29
sg279
(lp4946
I37
aI5
asg281
Nsg282
VChagigah 19a:5
p4947
sg284
(lp4948
sg286
g73
sg287
Nsg288
(lp4949
I37
aI5
asg290
Nsg291
g4947
sg292
(lp4950
sg294
g253
sg295
Nsg296
Nsg297
Nsbag2
(g3
g4
Ntp4951
Rp4952
(dp4953
g8
g11
sg275
Nsg276
(dp4954
sg278
Nsg26
g29
sg279
(lp4955
I37
aI6
asg281
Nsg282
VChagigah 19a:6
p4956
sg284
(lp4957
sg286
g73
sg287
Nsg288
(lp4958
I37
aI6
asg290
Nsg291
g4956
sg292
(lp4959
sg294
g253
sg295
Nsg296
Nsg297
Nsbag2
(g3
g4
Ntp4960
Rp4961
(dp4962
g8
g11
sg275
Nsg276
(dp4963
sg278
Nsg26
g29
sg279
(lp4964
I37
aI7
asg281
Nsg282
VChagigah 19a:7
p4965
sg284
(lp4966
sg286
g73
sg287
Nsg288
(lp4967
I37
aI7
asg290
Nsg291
g4965
sg292
(lp4968
sg294
g253
sg295
Nsg296
Nsg297
Nsbag2
(g3
g4
Ntp4969
Rp4970
(dp4971
g8
g11
sg275
Nsg276
(dp4972
sg278
Nsg26
g29
sg279
(lp4973
I37
aI8
asg281
Nsg282
VChagigah 19a:8
p4974
sg284
(lp4975
sg286
g73
sg287
Nsg288
(lp4976
I37
aI8
asg290
Nsg291
g4974
sg292
(lp4977
sg294
g253
sg295
Nsg296
Nsg297
Nsbag2
(g3
g4
Ntp4978
Rp4979
(dp4980
g8
g11
sg275
Nsg276
(dp4981
sg278
Nsg26
g29
sg279
(lp4982
I37
aI9
asg281
Nsg282
VChagigah 19a:9
p4983
sg284
(lp4984
sg286
g73
sg287
Nsg288
(lp4985
I37
aI9
asg290
Nsg291
g4983
sg292
(lp4986
sg294
g253
sg295
Nsg296
Nsg297
Nsbag2
(g3
g4
Ntp4987
Rp4988
(dp4989
g8
g11
sg275
Nsg276
(dp4990
sg278
Nsg26
g29
sg279
(lp4991
I37
aI10
asg281
Nsg282
VChagigah 19a:10
p4992
sg284
(lp4993
sg286
g73
sg287
Nsg288
(lp4994
I37
aI10
asg290
Nsg291
g4992
sg292
(lp4995
sg294
g253
sg295
Nsg296
Nsg297
Nsbag2
(g3
g4
Ntp4996
Rp4997
(dp4998
g8
g11
sg275
Nsg276
(dp4999
sg278
Nsg26
g29
sg279
(lp5000
I37
aI11
asg281
Nsg282
VChagigah 19a:11
p5001
sg284
(lp5002
sg286
g73
sg287
Nsg288
(lp5003
I37
aI11
asg290
Nsg291
g5001
sg292
(lp5004
sg294
g253
sg295
Nsg296
Nsg297
Nsbag2
(g3
g4
Ntp5005
Rp5006
(dp5007
g8
g11
sg275
Nsg276
(dp5008
sg278
Nsg26
g29
sg279
(lp5009
I37
aI12
asg281
Nsg282
VChagigah 19a:12
p5010
sg284
(lp5011
sg286
g73
sg287
Nsg288
(lp5012
I37
aI12
asg290
Nsg291
g5010
sg292
(lp5013
sg294
g253
sg295
Nsg296
Nsg297
Nsbag2
(g3
g4
Ntp5014
Rp5015
(dp5016
g8
g11
sg275
Nsg276
(dp5017
sg278
Nsg26
g29
sg279
(lp5018
I37
aI13
asg281
Nsg282
VChagigah 19a:13
p5019
sg284
(lp5020
sg286
g73
sg287
Nsg288
(lp5021
I37
aI13
asg290
Nsg291
g5019
sg292
(lp5022
sg294
g253
sg295
Nsg296
Nsg297
Nsbag2
(g3
g4
Ntp5023
Rp5024
(dp5025
g8
g11
sg275
Nsg276
(dp5026
sg278
Nsg26
g29
sg279
(lp5027
I37
aI14
asg281
Nsg282
VChagigah 19a:14
p5028
sg284
(lp5029
sg286
g73
sg287
Nsg288
(lp5030
I37
aI14
asg290
Nsg291
g5028
sg292
(lp5031
sg294
g253
sg295
Nsg296
Nsg297
Nsbag2
(g3
g4
Ntp5032
Rp5033
(dp5034
g8
g11
sg275
Nsg276
(dp5035
sg278
Nsg26
g29
sg279
(lp5036
I37
aI15
asg281
Nsg282
VChagigah 19a:15
p5037
sg284
(lp5038
sg286
g73
sg287
Nsg288
(lp5039
I37
aI15
asg290
Nsg291
g5037
sg292
(lp5040
sg294
g253
sg295
Nsg296
Nsg297
Nsbag2
(g3
g4
Ntp5041
Rp5042
(dp5043
g8
g11
sg275
Nsg276
(dp5044
sg278
Nsg26
g29
sg279
(lp5045
I37
aI16
asg281
Nsg282
VChagigah 19a:16
p5046
sg284
(lp5047
sg286
g73
sg287
Nsg288
(lp5048
I37
aI16
asg290
Nsg291
g5046
sg292
(lp5049
sg294
g253
sg295
Nsg296
Nsg297
Nsbag2
(g3
g4
Ntp5050
Rp5051
(dp5052
g8
g11
sg275
Nsg276
(dp5053
sg278
Nsg26
g29
sg279
(lp5054
I37
aI17
asg281
Nsg282
VChagigah 19a:17
p5055
sg284
(lp5056
sg286
g73
sg287
Nsg288
(lp5057
I37
aI17
asg290
Nsg291
g5055
sg292
(lp5058
sg294
g253
sg295
Nsg296
Nsg297
Nsbag2
(g3
g4
Ntp5059
Rp5060
(dp5061
g8
g11
sg275
Nsg276
(dp5062
sg278
Nsg26
g29
sg279
(lp5063
I37
aI18
asg281
Nsg282
VChagigah 19a:18
p5064
sg284
(lp5065
sg286
g73
sg287
Nsg288
(lp5066
I37
aI18
asg290
Nsg291
g5064
sg292
(lp5067
sg294
g253
sg295
Nsg296
Nsg297
Nsbag2
(g3
g4
Ntp5068
Rp5069
(dp5070
g8
g11
sg275
Nsg276
(dp5071
sg278
Nsg26
g29
sg279
(lp5072
I37
aI19
asg281
Nsg282
VChagigah 19a:19
p5073
sg284
(lp5074
sg286
g73
sg287
Nsg288
(lp5075
I37
aI19
asg290
Nsg291
g5073
sg292
(lp5076
sg294
g253
sg295
Nsg296
Nsg297
Nsbag2
(g3
g4
Ntp5077
Rp5078
(dp5079
g8
g11
sg275
Nsg276
(dp5080
sg278
Nsg26
g29
sg279
(lp5081
I37
aI20
asg281
Nsg282
VChagigah 19a:20
p5082
sg284
(lp5083
sg286
g73
sg287
Nsg288
(lp5084
I37
aI20
asg290
Nsg291
g5082
sg292
(lp5085
sg294
g253
sg295
Nsg296
Nsg297
Nsbag2
(g3
g4
Ntp5086
Rp5087
(dp5088
g8
g11
sg275
Nsg276
(dp5089
sg278
Nsg26
g29
sg279
(lp5090
I37
aI21
asg281
Nsg282
VChagigah 19a:21
p5091
sg284
(lp5092
sg286
g73
sg287
Nsg288
(lp5093
I37
aI21
asg290
Nsg291
g5091
sg292
(lp5094
sg294
g253
sg295
Nsg296
Nsg297
Nsbag2
(g3
g4
Ntp5095
Rp5096
(dp5097
g8
g11
sg275
Nsg276
(dp5098
sg278
Nsg26
g29
sg279
(lp5099
I37
aI22
asg281
Nsg282
VChagigah 19a:22
p5100
sg284
(lp5101
sg286
g73
sg287
Nsg288
(lp5102
I37
aI22
asg290
Nsg291
g5100
sg292
(lp5103
sg294
g253
sg295
Nsg296
Nsg297
Nsbag2
(g3
g4
Ntp5104
Rp5105
(dp5106
g8
g11
sg275
Nsg276
(dp5107
sg278
Nsg26
g29
sg279
(lp5108
I38
aI1
asg281
Nsg282
VChagigah 19b:1
p5109
sg284
(lp5110
sg286
g73
sg287
Nsg288
(lp5111
I38
aI1
asg290
Nsg291
g5109
sg292
(lp5112
sg294
g253
sg295
Nsg296
Nsg297
Nsbag2
(g3
g4
Ntp5113
Rp5114
(dp5115
g8
g11
sg275
Nsg276
(dp5116
sg278
Nsg26
g29
sg279
(lp5117
I38
aI2
asg281
Nsg282
VChagigah 19b:2
p5118
sg284
(lp5119
sg286
g73
sg287
Nsg288
(lp5120
I38
aI2
asg290
Nsg291
g5118
sg292
(lp5121
sg294
g253
sg295
Nsg296
Nsg297
Nsbag2
(g3
g4
Ntp5122
Rp5123
(dp5124
g8
g11
sg275
Nsg276
(dp5125
sg278
Nsg26
g29
sg279
(lp5126
I38
aI3
asg281
Nsg282
VChagigah 19b:3
p5127
sg284
(lp5128
sg286
g73
sg287
Nsg288
(lp5129
I38
aI3
asg290
Nsg291
g5127
sg292
(lp5130
sg294
g253
sg295
Nsg296
Nsg297
Nsbag2
(g3
g4
Ntp5131
Rp5132
(dp5133
g8
g11
sg275
Nsg276
(dp5134
sg278
Nsg26
g29
sg279
(lp5135
I38
aI4
asg281
Nsg282
VChagigah 19b:4
p5136
sg284
(lp5137
sg286
g73
sg287
Nsg288
(lp5138
I38
aI4
asg290
Nsg291
g5136
sg292
(lp5139
sg294
g253
sg295
Nsg296
Nsg297
Nsbag2
(g3
g4
Ntp5140
Rp5141
(dp5142
g8
g11
sg275
Nsg276
(dp5143
sg278
Nsg26
g29
sg279
(lp5144
I38
aI5
asg281
Nsg282
VChagigah 19b:5
p5145
sg284
(lp5146
sg286
g73
sg287
Nsg288
(lp5147
I38
aI5
asg290
Nsg291
g5145
sg292
(lp5148
sg294
g253
sg295
Nsg296
Nsg297
Nsbag2
(g3
g4
Ntp5149
Rp5150
(dp5151
g8
g11
sg275
Nsg276
(dp5152
sg278
Nsg26
g29
sg279
(lp5153
I38
aI6
asg281
Nsg282
VChagigah 19b:6
p5154
sg284
(lp5155
sg286
g73
sg287
Nsg288
(lp5156
I38
aI6
asg290
Nsg291
g5154
sg292
(lp5157
sg294
g253
sg295
Nsg296
Nsg297
Nsbag2
(g3
g4
Ntp5158
Rp5159
(dp5160
g8
g11
sg275
Nsg276
(dp5161
sg278
Nsg26
g29
sg279
(lp5162
I39
aI1
asg281
Nsg282
VChagigah 20a:1
p5163
sg284
(lp5164
sg286
g73
sg287
Nsg288
(lp5165
I39
aI1
asg290
Nsg291
g5163
sg292
(lp5166
sg294
g253
sg295
Nsg296
Nsg297
Nsbag2
(g3
g4
Ntp5167
Rp5168
(dp5169
g8
g11
sg275
Nsg276
(dp5170
sg278
Nsg26
g29
sg279
(lp5171
I39
aI2
asg281
Nsg282
VChagigah 20a:2
p5172
sg284
(lp5173
sg286
g73
sg287
Nsg288
(lp5174
I39
aI2
asg290
Nsg291
g5172
sg292
(lp5175
sg294
g253
sg295
Nsg296
Nsg297
Nsbag2
(g3
g4
Ntp5176
Rp5177
(dp5178
g8
g11
sg275
Nsg276
(dp5179
sg278
Nsg26
g29
sg279
(lp5180
I39
aI3
asg281
Nsg282
VChagigah 20a:3
p5181
sg284
(lp5182
sg286
g73
sg287
Nsg288
(lp5183
I39
aI3
asg290
Nsg291
g5181
sg292
(lp5184
sg294
g253
sg295
Nsg296
Nsg297
Nsbag2
(g3
g4
Ntp5185
Rp5186
(dp5187
g8
g11
sg275
Nsg276
(dp5188
sg278
Nsg26
g29
sg279
(lp5189
I39
aI4
asg281
Nsg282
VChagigah 20a:4
p5190
sg284
(lp5191
sg286
g73
sg287
Nsg288
(lp5192
I39
aI4
asg290
Nsg291
g5190
sg292
(lp5193
sg294
g253
sg295
Nsg296
Nsg297
Nsbag2
(g3
g4
Ntp5194
Rp5195
(dp5196
g8
g11
sg275
Nsg276
(dp5197
sg278
Nsg26
g29
sg279
(lp5198
I39
aI5
asg281
Nsg282
VChagigah 20a:5
p5199
sg284
(lp5200
sg286
g73
sg287
Nsg288
(lp5201
I39
aI5
asg290
Nsg291
g5199
sg292
(lp5202
sg294
g253
sg295
Nsg296
Nsg297
Nsbag2
(g3
g4
Ntp5203
Rp5204
(dp5205
g8
g11
sg275
Nsg276
(dp5206
sg278
Nsg26
g29
sg279
(lp5207
I39
aI6
asg281
Nsg282
VChagigah 20a:6
p5208
sg284
(lp5209
sg286
g73
sg287
Nsg288
(lp5210
I39
aI6
asg290
Nsg291
g5208
sg292
(lp5211
sg294
g253
sg295
Nsg296
Nsg297
Nsbag2
(g3
g4
Ntp5212
Rp5213
(dp5214
g8
g11
sg275
Nsg276
(dp5215
sg278
Nsg26
g29
sg279
(lp5216
I39
aI7
asg281
Nsg282
VChagigah 20a:7
p5217
sg284
(lp5218
sg286
g73
sg287
Nsg288
(lp5219
I39
aI7
asg290
Nsg291
g5217
sg292
(lp5220
sg294
g253
sg295
Nsg296
Nsg297
Nsbag2
(g3
g4
Ntp5221
Rp5222
(dp5223
g8
g11
sg275
Nsg276
(dp5224
sg278
Nsg26
g29
sg279
(lp5225
I39
aI8
asg281
Nsg282
VChagigah 20a:8
p5226
sg284
(lp5227
sg286
g73
sg287
Nsg288
(lp5228
I39
aI8
asg290
Nsg291
g5226
sg292
(lp5229
sg294
g253
sg295
Nsg296
Nsg297
Nsbag2
(g3
g4
Ntp5230
Rp5231
(dp5232
g8
g11
sg275
Nsg276
(dp5233
sg278
Nsg26
g29
sg279
(lp5234
I39
aI9
asg281
Nsg282
VChagigah 20a:9
p5235
sg284
(lp5236
sg286
g73
sg287
Nsg288
(lp5237
I39
aI9
asg290
Nsg291
g5235
sg292
(lp5238
sg294
g253
sg295
Nsg296
Nsg297
Nsbag2
(g3
g4
Ntp5239
Rp5240
(dp5241
g8
g11
sg275
Nsg276
(dp5242
sg278
Nsg26
g29
sg279
(lp5243
I39
aI10
asg281
Nsg282
VChagigah 20a:10
p5244
sg284
(lp5245
sg286
g73
sg287
Nsg288
(lp5246
I39
aI10
asg290
Nsg291
g5244
sg292
(lp5247
sg294
g253
sg295
Nsg296
Nsg297
Nsbag2
(g3
g4
Ntp5248
Rp5249
(dp5250
g8
g11
sg275
Nsg276
(dp5251
sg278
Nsg26
g29
sg279
(lp5252
I39
aI11
asg281
Nsg282
VChagigah 20a:11
p5253
sg284
(lp5254
sg286
g73
sg287
Nsg288
(lp5255
I39
aI11
asg290
Nsg291
g5253
sg292
(lp5256
sg294
g253
sg295
Nsg296
Nsg297
Nsbag2
(g3
g4
Ntp5257
Rp5258
(dp5259
g8
g11
sg275
Nsg276
(dp5260
sg278
Nsg26
g29
sg279
(lp5261
I39
aI12
asg281
Nsg282
VChagigah 20a:12
p5262
sg284
(lp5263
sg286
g73
sg287
Nsg288
(lp5264
I39
aI12
asg290
Nsg291
g5262
sg292
(lp5265
sg294
g253
sg295
Nsg296
Nsg297
Nsbag2
(g3
g4
Ntp5266
Rp5267
(dp5268
g8
g11
sg275
Nsg276
(dp5269
sg278
Nsg26
g29
sg279
(lp5270
I39
aI13
asg281
Nsg282
VChagigah 20a:13
p5271
sg284
(lp5272
sg286
g73
sg287
Nsg288
(lp5273
I39
aI13
asg290
Nsg291
g5271
sg292
(lp5274
sg294
g253
sg295
Nsg296
Nsg297
Nsbag2
(g3
g4
Ntp5275
Rp5276
(dp5277
g8
g11
sg275
Nsg276
(dp5278
sg278
Nsg26
g29
sg279
(lp5279
I39
aI14
asg281
Nsg282
VChagigah 20a:14
p5280
sg284
(lp5281
sg286
g73
sg287
Nsg288
(lp5282
I39
aI14
asg290
Nsg291
g5280
sg292
(lp5283
sg294
g253
sg295
Nsg296
Nsg297
Nsbag2
(g3
g4
Ntp5284
Rp5285
(dp5286
g8
g11
sg275
Nsg276
(dp5287
sg278
Nsg26
g29
sg279
(lp5288
I39
aI15
asg281
Nsg282
VChagigah 20a:15
p5289
sg284
(lp5290
sg286
g73
sg287
Nsg288
(lp5291
I39
aI15
asg290
Nsg291
g5289
sg292
(lp5292
sg294
g253
sg295
Nsg296
Nsg297
Nsbag2
(g3
g4
Ntp5293
Rp5294
(dp5295
g8
g11
sg275
Nsg276
(dp5296
sg278
Nsg26
g29
sg279
(lp5297
I39
aI16
asg281
Nsg282
VChagigah 20a:16
p5298
sg284
(lp5299
sg286
g73
sg287
Nsg288
(lp5300
I39
aI16
asg290
Nsg291
g5298
sg292
(lp5301
sg294
g253
sg295
Nsg296
Nsg297
Nsbag2
(g3
g4
Ntp5302
Rp5303
(dp5304
g8
g11
sg275
Nsg276
(dp5305
sg278
Nsg26
g29
sg279
(lp5306
I39
aI17
asg281
Nsg282
VChagigah 20a:17
p5307
sg284
(lp5308
sg286
g73
sg287
Nsg288
(lp5309
I39
aI17
asg290
Nsg291
g5307
sg292
(lp5310
sg294
g253
sg295
Nsg296
Nsg297
Nsbag2
(g3
g4
Ntp5311
Rp5312
(dp5313
g8
g11
sg275
Nsg276
(dp5314
sg278
Nsg26
g29
sg279
(lp5315
I39
aI18
asg281
Nsg282
VChagigah 20a:18
p5316
sg284
(lp5317
sg286
g73
sg287
Nsg288
(lp5318
I39
aI18
asg290
Nsg291
g5316
sg292
(lp5319
sg294
g253
sg295
Nsg296
Nsg297
Nsbag2
(g3
g4
Ntp5320
Rp5321
(dp5322
g8
g11
sg275
Nsg276
(dp5323
sg278
Nsg26
g29
sg279
(lp5324
I40
aI1
asg281
Nsg282
VChagigah 20b:1
p5325
sg284
(lp5326
sg286
g73
sg287
Nsg288
(lp5327
I40
aI1
asg290
Nsg291
g5325
sg292
(lp5328
sg294
g253
sg295
Nsg296
Nsg297
Nsbag2
(g3
g4
Ntp5329
Rp5330
(dp5331
g8
g11
sg275
Nsg276
(dp5332
sg278
Nsg26
g29
sg279
(lp5333
I40
aI2
asg281
Nsg282
VChagigah 20b:2
p5334
sg284
(lp5335
sg286
g73
sg287
Nsg288
(lp5336
I40
aI2
asg290
Nsg291
g5334
sg292
(lp5337
sg294
g253
sg295
Nsg296
Nsg297
Nsbag2
(g3
g4
Ntp5338
Rp5339
(dp5340
g8
g11
sg275
Nsg276
(dp5341
sg278
Nsg26
g29
sg279
(lp5342
I40
aI3
asg281
Nsg282
VChagigah 20b:3
p5343
sg284
(lp5344
sg286
g73
sg287
Nsg288
(lp5345
I40
aI3
asg290
Nsg291
g5343
sg292
(lp5346
sg294
g253
sg295
Nsg296
Nsg297
Nsbag2
(g3
g4
Ntp5347
Rp5348
(dp5349
g8
g11
sg275
Nsg276
(dp5350
sg278
Nsg26
g29
sg279
(lp5351
I40
aI4
asg281
Nsg282
VChagigah 20b:4
p5352
sg284
(lp5353
sg286
g73
sg287
Nsg288
(lp5354
I40
aI4
asg290
Nsg291
g5352
sg292
(lp5355
sg294
g253
sg295
Nsg296
Nsg297
Nsbag2
(g3
g4
Ntp5356
Rp5357
(dp5358
g8
g11
sg275
Nsg276
(dp5359
sg278
Nsg26
g29
sg279
(lp5360
I40
aI5
asg281
Nsg282
VChagigah 20b:5
p5361
sg284
(lp5362
sg286
g73
sg287
Nsg288
(lp5363
I40
aI5
asg290
Nsg291
g5361
sg292
(lp5364
sg294
g253
sg295
Nsg296
Nsg297
Nsbag2
(g3
g4
Ntp5365
Rp5366
(dp5367
g8
g11
sg275
Nsg276
(dp5368
sg278
Nsg26
g29
sg279
(lp5369
I40
aI6
asg281
Nsg282
VChagigah 20b:6
p5370
sg284
(lp5371
sg286
g73
sg287
Nsg288
(lp5372
I40
aI6
asg290
Nsg291
g5370
sg292
(lp5373
sg294
g253
sg295
Nsg296
Nsg297
Nsbag2
(g3
g4
Ntp5374
Rp5375
(dp5376
g8
g11
sg275
Nsg276
(dp5377
sg278
Nsg26
g29
sg279
(lp5378
I40
aI7
asg281
Nsg282
VChagigah 20b:7
p5379
sg284
(lp5380
sg286
g73
sg287
Nsg288
(lp5381
I40
aI7
asg290
Nsg291
g5379
sg292
(lp5382
sg294
g253
sg295
Nsg296
Nsg297
Nsbag2
(g3
g4
Ntp5383
Rp5384
(dp5385
g8
g11
sg275
Nsg276
(dp5386
sg278
Nsg26
g29
sg279
(lp5387
I40
aI8
asg281
Nsg282
VChagigah 20b:8
p5388
sg284
(lp5389
sg286
g73
sg287
Nsg288
(lp5390
I40
aI8
asg290
Nsg291
g5388
sg292
(lp5391
sg294
g253
sg295
Nsg296
Nsg297
Nsbag2
(g3
g4
Ntp5392
Rp5393
(dp5394
g8
g11
sg275
Nsg276
(dp5395
sg278
Nsg26
g29
sg279
(lp5396
I40
aI9
asg281
Nsg282
VChagigah 20b:9
p5397
sg284
(lp5398
sg286
g73
sg287
Nsg288
(lp5399
I40
aI9
asg290
Nsg291
g5397
sg292
(lp5400
sg294
g253
sg295
Nsg296
Nsg297
Nsbag2
(g3
g4
Ntp5401
Rp5402
(dp5403
g8
g11
sg275
Nsg276
(dp5404
sg278
Nsg26
g29
sg279
(lp5405
I40
aI10
asg281
Nsg282
VChagigah 20b:10
p5406
sg284
(lp5407
sg286
g73
sg287
Nsg288
(lp5408
I40
aI10
asg290
Nsg291
g5406
sg292
(lp5409
sg294
g253
sg295
Nsg296
Nsg297
Nsbag2
(g3
g4
Ntp5410
Rp5411
(dp5412
g8
g11
sg275
Nsg276
(dp5413
sg278
Nsg26
g29
sg279
(lp5414
I40
aI11
asg281
Nsg282
VChagigah 20b:11
p5415
sg284
(lp5416
sg286
g73
sg287
Nsg288
(lp5417
I40
aI11
asg290
Nsg291
g5415
sg292
(lp5418
sg294
g253
sg295
Nsg296
Nsg297
Nsbag2
(g3
g4
Ntp5419
Rp5420
(dp5421
g8
g11
sg275
Nsg276
(dp5422
sg278
Nsg26
g29
sg279
(lp5423
I41
aI1
asg281
Nsg282
VChagigah 21a:1
p5424
sg284
(lp5425
sg286
g73
sg287
Nsg288
(lp5426
I41
aI1
asg290
Nsg291
g5424
sg292
(lp5427
sg294
g253
sg295
Nsg296
Nsg297
Nsbag2
(g3
g4
Ntp5428
Rp5429
(dp5430
g8
g11
sg275
Nsg276
(dp5431
sg278
Nsg26
g29
sg279
(lp5432
I41
aI2
asg281
Nsg282
VChagigah 21a:2
p5433
sg284
(lp5434
sg286
g73
sg287
Nsg288
(lp5435
I41
aI2
asg290
Nsg291
g5433
sg292
(lp5436
sg294
g253
sg295
Nsg296
Nsg297
Nsbag2
(g3
g4
Ntp5437
Rp5438
(dp5439
g8
g11
sg275
Nsg276
(dp5440
sg278
Nsg26
g29
sg279
(lp5441
I41
aI3
asg281
Nsg282
VChagigah 21a:3
p5442
sg284
(lp5443
sg286
g73
sg287
Nsg288
(lp5444
I41
aI3
asg290
Nsg291
g5442
sg292
(lp5445
sg294
g253
sg295
Nsg296
Nsg297
Nsbag2
(g3
g4
Ntp5446
Rp5447
(dp5448
g8
g11
sg275
Nsg276
(dp5449
sg278
Nsg26
g29
sg279
(lp5450
I41
aI4
asg281
Nsg282
VChagigah 21a:4
p5451
sg284
(lp5452
sg286
g73
sg287
Nsg288
(lp5453
I41
aI4
asg290
Nsg291
g5451
sg292
(lp5454
sg294
g253
sg295
Nsg296
Nsg297
Nsbag2
(g3
g4
Ntp5455
Rp5456
(dp5457
g8
g11
sg275
Nsg276
(dp5458
sg278
Nsg26
g29
sg279
(lp5459
I42
aI1
asg281
Nsg282
VChagigah 21b:1
p5460
sg284
(lp5461
sg286
g73
sg287
Nsg288
(lp5462
I42
aI1
asg290
Nsg291
g5460
sg292
(lp5463
sg294
g253
sg295
Nsg296
Nsg297
Nsbag2
(g3
g4
Ntp5464
Rp5465
(dp5466
g8
g11
sg275
Nsg276
(dp5467
sg278
Nsg26
g29
sg279
(lp5468
I42
aI2
asg281
Nsg282
VChagigah 21b:2
p5469
sg284
(lp5470
sg286
g73
sg287
Nsg288
(lp5471
I42
aI2
asg290
Nsg291
g5469
sg292
(lp5472
sg294
g253
sg295
Nsg296
Nsg297
Nsbag2
(g3
g4
Ntp5473
Rp5474
(dp5475
g8
g11
sg275
Nsg276
(dp5476
sg278
Nsg26
g29
sg279
(lp5477
I42
aI3
asg281
Nsg282
VChagigah 21b:3
p5478
sg284
(lp5479
sg286
g73
sg287
Nsg288
(lp5480
I42
aI3
asg290
Nsg291
g5478
sg292
(lp5481
sg294
g253
sg295
Nsg296
Nsg297
Nsbag2
(g3
g4
Ntp5482
Rp5483
(dp5484
g8
g11
sg275
Nsg276
(dp5485
sg278
Nsg26
g29
sg279
(lp5486
I42
aI4
asg281
Nsg282
VChagigah 21b:4
p5487
sg284
(lp5488
sg286
g73
sg287
Nsg288
(lp5489
I42
aI4
asg290
Nsg291
g5487
sg292
(lp5490
sg294
g253
sg295
Nsg296
Nsg297
Nsbag2
(g3
g4
Ntp5491
Rp5492
(dp5493
g8
g11
sg275
Nsg276
(dp5494
sg278
Nsg26
g29
sg279
(lp5495
I43
aI1
asg281
Nsg282
VChagigah 22a:1
p5496
sg284
(lp5497
sg286
g73
sg287
Nsg288
(lp5498
I43
aI1
asg290
Nsg291
g5496
sg292
(lp5499
sg294
g253
sg295
Nsg296
Nsg297
Nsbag2
(g3
g4
Ntp5500
Rp5501
(dp5502
g8
g11
sg275
Nsg276
(dp5503
sg278
Nsg26
g29
sg279
(lp5504
I43
aI2
asg281
Nsg282
VChagigah 22a:2
p5505
sg284
(lp5506
sg286
g73
sg287
Nsg288
(lp5507
I43
aI2
asg290
Nsg291
g5505
sg292
(lp5508
sg294
g253
sg295
Nsg296
Nsg297
Nsbag2
(g3
g4
Ntp5509
Rp5510
(dp5511
g8
g11
sg275
Nsg276
(dp5512
sg278
Nsg26
g29
sg279
(lp5513
I43
aI3
asg281
Nsg282
VChagigah 22a:3
p5514
sg284
(lp5515
sg286
g73
sg287
Nsg288
(lp5516
I43
aI3
asg290
Nsg291
g5514
sg292
(lp5517
sg294
g253
sg295
Nsg296
Nsg297
Nsbag2
(g3
g4
Ntp5518
Rp5519
(dp5520
g8
g11
sg275
Nsg276
(dp5521
sg278
Nsg26
g29
sg279
(lp5522
I43
aI4
asg281
Nsg282
VChagigah 22a:4
p5523
sg284
(lp5524
sg286
g73
sg287
Nsg288
(lp5525
I43
aI4
asg290
Nsg291
g5523
sg292
(lp5526
sg294
g253
sg295
Nsg296
Nsg297
Nsbag2
(g3
g4
Ntp5527
Rp5528
(dp5529
g8
g11
sg275
Nsg276
(dp5530
sg278
Nsg26
g29
sg279
(lp5531
I43
aI5
asg281
Nsg282
VChagigah 22a:5
p5532
sg284
(lp5533
sg286
g73
sg287
Nsg288
(lp5534
I43
aI5
asg290
Nsg291
g5532
sg292
(lp5535
sg294
g253
sg295
Nsg296
Nsg297
Nsbag2
(g3
g4
Ntp5536
Rp5537
(dp5538
g8
g11
sg275
Nsg276
(dp5539
sg278
Nsg26
g29
sg279
(lp5540
I43
aI6
asg281
Nsg282
VChagigah 22a:6
p5541
sg284
(lp5542
sg286
g73
sg287
Nsg288
(lp5543
I43
aI6
asg290
Nsg291
g5541
sg292
(lp5544
sg294
g253
sg295
Nsg296
Nsg297
Nsbag2
(g3
g4
Ntp5545
Rp5546
(dp5547
g8
g11
sg275
Nsg276
(dp5548
sg278
Nsg26
g29
sg279
(lp5549
I43
aI7
asg281
Nsg282
VChagigah 22a:7
p5550
sg284
(lp5551
sg286
g73
sg287
Nsg288
(lp5552
I43
aI7
asg290
Nsg291
g5550
sg292
(lp5553
sg294
g253
sg295
Nsg296
Nsg297
Nsbag2
(g3
g4
Ntp5554
Rp5555
(dp5556
g8
g11
sg275
Nsg276
(dp5557
sg278
Nsg26
g29
sg279
(lp5558
I43
aI8
asg281
Nsg282
VChagigah 22a:8
p5559
sg284
(lp5560
sg286
g73
sg287
Nsg288
(lp5561
I43
aI8
asg290
Nsg291
g5559
sg292
(lp5562
sg294
g253
sg295
Nsg296
Nsg297
Nsbag2
(g3
g4
Ntp5563
Rp5564
(dp5565
g8
g11
sg275
Nsg276
(dp5566
sg278
Nsg26
g29
sg279
(lp5567
I43
aI9
asg281
Nsg282
VChagigah 22a:9
p5568
sg284
(lp5569
sg286
g73
sg287
Nsg288
(lp5570
I43
aI9
asg290
Nsg291
g5568
sg292
(lp5571
sg294
g253
sg295
Nsg296
Nsg297
Nsbag2
(g3
g4
Ntp5572
Rp5573
(dp5574
g8
g11
sg275
Nsg276
(dp5575
sg278
Nsg26
g29
sg279
(lp5576
I43
aI10
asg281
Nsg282
VChagigah 22a:10
p5577
sg284
(lp5578
sg286
g73
sg287
Nsg288
(lp5579
I43
aI10
asg290
Nsg291
g5577
sg292
(lp5580
sg294
g253
sg295
Nsg296
Nsg297
Nsbag2
(g3
g4
Ntp5581
Rp5582
(dp5583
g8
g11
sg275
Nsg276
(dp5584
sg278
Nsg26
g29
sg279
(lp5585
I43
aI11
asg281
Nsg282
VChagigah 22a:11
p5586
sg284
(lp5587
sg286
g73
sg287
Nsg288
(lp5588
I43
aI11
asg290
Nsg291
g5586
sg292
(lp5589
sg294
g253
sg295
Nsg296
Nsg297
Nsbag2
(g3
g4
Ntp5590
Rp5591
(dp5592
g8
g11
sg275
Nsg276
(dp5593
sg278
Nsg26
g29
sg279
(lp5594
I43
aI12
asg281
Nsg282
VChagigah 22a:12
p5595
sg284
(lp5596
sg286
g73
sg287
Nsg288
(lp5597
I43
aI12
asg290
Nsg291
g5595
sg292
(lp5598
sg294
g253
sg295
Nsg296
Nsg297
Nsbag2
(g3
g4
Ntp5599
Rp5600
(dp5601
g8
g11
sg275
Nsg276
(dp5602
sg278
Nsg26
g29
sg279
(lp5603
I43
aI13
asg281
Nsg282
VChagigah 22a:13
p5604
sg284
(lp5605
sg286
g73
sg287
Nsg288
(lp5606
I43
aI13
asg290
Nsg291
g5604
sg292
(lp5607
sg294
g253
sg295
Nsg296
Nsg297
Nsbag2
(g3
g4
Ntp5608
Rp5609
(dp5610
g8
g11
sg275
Nsg276
(dp5611
sg278
Nsg26
g29
sg279
(lp5612
I43
aI14
asg281
Nsg282
VChagigah 22a:14
p5613
sg284
(lp5614
sg286
g73
sg287
Nsg288
(lp5615
I43
aI14
asg290
Nsg291
g5613
sg292
(lp5616
sg294
g253
sg295
Nsg296
Nsg297
Nsbag2
(g3
g4
Ntp5617
Rp5618
(dp5619
g8
g11
sg275
Nsg276
(dp5620
sg278
Nsg26
g29
sg279
(lp5621
I43
aI15
asg281
Nsg282
VChagigah 22a:15
p5622
sg284
(lp5623
sg286
g73
sg287
Nsg288
(lp5624
I43
aI15
asg290
Nsg291
g5622
sg292
(lp5625
sg294
g253
sg295
Nsg296
Nsg297
Nsbag2
(g3
g4
Ntp5626
Rp5627
(dp5628
g8
g11
sg275
Nsg276
(dp5629
sg278
Nsg26
g29
sg279
(lp5630
I43
aI16
asg281
Nsg282
VChagigah 22a:16
p5631
sg284
(lp5632
sg286
g73
sg287
Nsg288
(lp5633
I43
aI16
asg290
Nsg291
g5631
sg292
(lp5634
sg294
g253
sg295
Nsg296
Nsg297
Nsbag2
(g3
g4
Ntp5635
Rp5636
(dp5637
g8
g11
sg275
Nsg276
(dp5638
sg278
Nsg26
g29
sg279
(lp5639
I43
aI17
asg281
Nsg282
VChagigah 22a:17
p5640
sg284
(lp5641
sg286
g73
sg287
Nsg288
(lp5642
I43
aI17
asg290
Nsg291
g5640
sg292
(lp5643
sg294
g253
sg295
Nsg296
Nsg297
Nsbag2
(g3
g4
Ntp5644
Rp5645
(dp5646
g8
g11
sg275
Nsg276
(dp5647
sg278
Nsg26
g29
sg279
(lp5648
I43
aI18
asg281
Nsg282
VChagigah 22a:18
p5649
sg284
(lp5650
sg286
g73
sg287
Nsg288
(lp5651
I43
aI18
asg290
Nsg291
g5649
sg292
(lp5652
sg294
g253
sg295
Nsg296
Nsg297
Nsbag2
(g3
g4
Ntp5653
Rp5654
(dp5655
g8
g11
sg275
Nsg276
(dp5656
sg278
Nsg26
g29
sg279
(lp5657
I43
aI19
asg281
Nsg282
VChagigah 22a:19
p5658
sg284
(lp5659
sg286
g73
sg287
Nsg288
(lp5660
I43
aI19
asg290
Nsg291
g5658
sg292
(lp5661
sg294
g253
sg295
Nsg296
Nsg297
Nsbag2
(g3
g4
Ntp5662
Rp5663
(dp5664
g8
g11
sg275
Nsg276
(dp5665
sg278
Nsg26
g29
sg279
(lp5666
I44
aI1
asg281
Nsg282
VChagigah 22b:1
p5667
sg284
(lp5668
sg286
g73
sg287
Nsg288
(lp5669
I44
aI1
asg290
Nsg291
g5667
sg292
(lp5670
sg294
g253
sg295
Nsg296
Nsg297
Nsbag2
(g3
g4
Ntp5671
Rp5672
(dp5673
g8
g11
sg275
Nsg276
(dp5674
sg278
Nsg26
g29
sg279
(lp5675
I44
aI2
asg281
Nsg282
VChagigah 22b:2
p5676
sg284
(lp5677
sg286
g73
sg287
Nsg288
(lp5678
I44
aI2
asg290
Nsg291
g5676
sg292
(lp5679
sg294
g253
sg295
Nsg296
Nsg297
Nsbag2
(g3
g4
Ntp5680
Rp5681
(dp5682
g8
g11
sg275
Nsg276
(dp5683
sg278
Nsg26
g29
sg279
(lp5684
I44
aI3
asg281
Nsg282
VChagigah 22b:3
p5685
sg284
(lp5686
sg286
g73
sg287
Nsg288
(lp5687
I44
aI3
asg290
Nsg291
g5685
sg292
(lp5688
sg294
g253
sg295
Nsg296
Nsg297
Nsbag2
(g3
g4
Ntp5689
Rp5690
(dp5691
g8
g11
sg275
Nsg276
(dp5692
sg278
Nsg26
g29
sg279
(lp5693
I44
aI4
asg281
Nsg282
VChagigah 22b:4
p5694
sg284
(lp5695
sg286
g73
sg287
Nsg288
(lp5696
I44
aI4
asg290
Nsg291
g5694
sg292
(lp5697
sg294
g253
sg295
Nsg296
Nsg297
Nsbag2
(g3
g4
Ntp5698
Rp5699
(dp5700
g8
g11
sg275
Nsg276
(dp5701
sg278
Nsg26
g29
sg279
(lp5702
I44
aI5
asg281
Nsg282
VChagigah 22b:5
p5703
sg284
(lp5704
sg286
g73
sg287
Nsg288
(lp5705
I44
aI5
asg290
Nsg291
g5703
sg292
(lp5706
sg294
g253
sg295
Nsg296
Nsg297
Nsbag2
(g3
g4
Ntp5707
Rp5708
(dp5709
g8
g11
sg275
Nsg276
(dp5710
sg278
Nsg26
g29
sg279
(lp5711
I44
aI6
asg281
Nsg282
VChagigah 22b:6
p5712
sg284
(lp5713
sg286
g73
sg287
Nsg288
(lp5714
I44
aI6
asg290
Nsg291
g5712
sg292
(lp5715
sg294
g253
sg295
Nsg296
Nsg297
Nsbag2
(g3
g4
Ntp5716
Rp5717
(dp5718
g8
g11
sg275
Nsg276
(dp5719
sg278
Nsg26
g29
sg279
(lp5720
I44
aI7
asg281
Nsg282
VChagigah 22b:7
p5721
sg284
(lp5722
sg286
g73
sg287
Nsg288
(lp5723
I44
aI7
asg290
Nsg291
g5721
sg292
(lp5724
sg294
g253
sg295
Nsg296
Nsg297
Nsbag2
(g3
g4
Ntp5725
Rp5726
(dp5727
g8
g11
sg275
Nsg276
(dp5728
sg278
Nsg26
g29
sg279
(lp5729
I44
aI8
asg281
Nsg282
VChagigah 22b:8
p5730
sg284
(lp5731
sg286
g73
sg287
Nsg288
(lp5732
I44
aI8
asg290
Nsg291
g5730
sg292
(lp5733
sg294
g253
sg295
Nsg296
Nsg297
Nsbag2
(g3
g4
Ntp5734
Rp5735
(dp5736
g8
g11
sg275
Nsg276
(dp5737
sg278
Nsg26
g29
sg279
(lp5738
I44
aI9
asg281
Nsg282
VChagigah 22b:9
p5739
sg284
(lp5740
sg286
g73
sg287
Nsg288
(lp5741
I44
aI9
asg290
Nsg291
g5739
sg292
(lp5742
sg294
g253
sg295
Nsg296
Nsg297
Nsbag2
(g3
g4
Ntp5743
Rp5744
(dp5745
g8
g11
sg275
Nsg276
(dp5746
sg278
Nsg26
g29
sg279
(lp5747
I44
aI10
asg281
Nsg282
VChagigah 22b:10
p5748
sg284
(lp5749
sg286
g73
sg287
Nsg288
(lp5750
I44
aI10
asg290
Nsg291
g5748
sg292
(lp5751
sg294
g253
sg295
Nsg296
Nsg297
Nsbag2
(g3
g4
Ntp5752
Rp5753
(dp5754
g8
g11
sg275
Nsg276
(dp5755
sg278
Nsg26
g29
sg279
(lp5756
I44
aI11
asg281
Nsg282
VChagigah 22b:11
p5757
sg284
(lp5758
sg286
g73
sg287
Nsg288
(lp5759
I44
aI11
asg290
Nsg291
g5757
sg292
(lp5760
sg294
g253
sg295
Nsg296
Nsg297
Nsbag2
(g3
g4
Ntp5761
Rp5762
(dp5763
g8
g11
sg275
Nsg276
(dp5764
sg278
Nsg26
g29
sg279
(lp5765
I44
aI12
asg281
Nsg282
VChagigah 22b:12
p5766
sg284
(lp5767
sg286
g73
sg287
Nsg288
(lp5768
I44
aI12
asg290
Nsg291
g5766
sg292
(lp5769
sg294
g253
sg295
Nsg296
Nsg297
Nsbag2
(g3
g4
Ntp5770
Rp5771
(dp5772
g8
g11
sg275
Nsg276
(dp5773
sg278
Nsg26
g29
sg279
(lp5774
I44
aI13
asg281
Nsg282
VChagigah 22b:13
p5775
sg284
(lp5776
sg286
g73
sg287
Nsg288
(lp5777
I44
aI13
asg290
Nsg291
g5775
sg292
(lp5778
sg294
g253
sg295
Nsg296
Nsg297
Nsbag2
(g3
g4
Ntp5779
Rp5780
(dp5781
g8
g11
sg275
Nsg276
(dp5782
sg278
Nsg26
g29
sg279
(lp5783
I44
aI14
asg281
Nsg282
VChagigah 22b:14
p5784
sg284
(lp5785
sg286
g73
sg287
Nsg288
(lp5786
I44
aI14
asg290
Nsg291
g5784
sg292
(lp5787
sg294
g253
sg295
Nsg296
Nsg297
Nsbag2
(g3
g4
Ntp5788
Rp5789
(dp5790
g8
g11
sg275
Nsg276
(dp5791
sg278
Nsg26
g29
sg279
(lp5792
I44
aI15
asg281
Nsg282
VChagigah 22b:15
p5793
sg284
(lp5794
sg286
g73
sg287
Nsg288
(lp5795
I44
aI15
asg290
Nsg291
g5793
sg292
(lp5796
sg294
g253
sg295
Nsg296
Nsg297
Nsbag2
(g3
g4
Ntp5797
Rp5798
(dp5799
g8
g11
sg275
Nsg276
(dp5800
sg278
Nsg26
g29
sg279
(lp5801
I44
aI16
asg281
Nsg282
VChagigah 22b:16
p5802
sg284
(lp5803
sg286
g73
sg287
Nsg288
(lp5804
I44
aI16
asg290
Nsg291
g5802
sg292
(lp5805
sg294
g253
sg295
Nsg296
Nsg297
Nsbag2
(g3
g4
Ntp5806
Rp5807
(dp5808
g8
g11
sg275
Nsg276
(dp5809
sg278
Nsg26
g29
sg279
(lp5810
I44
aI17
asg281
Nsg282
VChagigah 22b:17
p5811
sg284
(lp5812
sg286
g73
sg287
Nsg288
(lp5813
I44
aI17
asg290
Nsg291
g5811
sg292
(lp5814
sg294
g253
sg295
Nsg296
Nsg297
Nsbag2
(g3
g4
Ntp5815
Rp5816
(dp5817
g8
g11
sg275
Nsg276
(dp5818
sg278
Nsg26
g29
sg279
(lp5819
I44
aI18
asg281
Nsg282
VChagigah 22b:18
p5820
sg284
(lp5821
sg286
g73
sg287
Nsg288
(lp5822
I44
aI18
asg290
Nsg291
g5820
sg292
(lp5823
sg294
g253
sg295
Nsg296
Nsg297
Nsbag2
(g3
g4
Ntp5824
Rp5825
(dp5826
g8
g11
sg275
Nsg276
(dp5827
sg278
Nsg26
g29
sg279
(lp5828
I44
aI19
asg281
Nsg282
VChagigah 22b:19
p5829
sg284
(lp5830
sg286
g73
sg287
Nsg288
(lp5831
I44
aI19
asg290
Nsg291
g5829
sg292
(lp5832
sg294
g253
sg295
Nsg296
Nsg297
Nsbag2
(g3
g4
Ntp5833
Rp5834
(dp5835
g8
g11
sg275
Nsg276
(dp5836
sg278
Nsg26
g29
sg279
(lp5837
I44
aI20
asg281
Nsg282
VChagigah 22b:20
p5838
sg284
(lp5839
sg286
g73
sg287
Nsg288
(lp5840
I44
aI20
asg290
Nsg291
g5838
sg292
(lp5841
sg294
g253
sg295
Nsg296
Nsg297
Nsbag2
(g3
g4
Ntp5842
Rp5843
(dp5844
g8
g11
sg275
Nsg276
(dp5845
sg278
Nsg26
g29
sg279
(lp5846
I45
aI1
asg281
Nsg282
VChagigah 23a:1
p5847
sg284
(lp5848
sg286
g73
sg287
Nsg288
(lp5849
I45
aI1
asg290
Nsg291
g5847
sg292
(lp5850
sg294
g253
sg295
Nsg296
Nsg297
Nsbag2
(g3
g4
Ntp5851
Rp5852
(dp5853
g8
g11
sg275
Nsg276
(dp5854
sg278
Nsg26
g29
sg279
(lp5855
I45
aI2
asg281
Nsg282
VChagigah 23a:2
p5856
sg284
(lp5857
sg286
g73
sg287
Nsg288
(lp5858
I45
aI2
asg290
Nsg291
g5856
sg292
(lp5859
sg294
g253
sg295
Nsg296
Nsg297
Nsbag2
(g3
g4
Ntp5860
Rp5861
(dp5862
g8
g11
sg275
Nsg276
(dp5863
sg278
Nsg26
g29
sg279
(lp5864
I45
aI3
asg281
Nsg282
VChagigah 23a:3
p5865
sg284
(lp5866
sg286
g73
sg287
Nsg288
(lp5867
I45
aI3
asg290
Nsg291
g5865
sg292
(lp5868
sg294
g253
sg295
Nsg296
Nsg297
Nsbag2
(g3
g4
Ntp5869
Rp5870
(dp5871
g8
g11
sg275
Nsg276
(dp5872
sg278
Nsg26
g29
sg279
(lp5873
I45
aI4
asg281
Nsg282
VChagigah 23a:4
p5874
sg284
(lp5875
sg286
g73
sg287
Nsg288
(lp5876
I45
aI4
asg290
Nsg291
g5874
sg292
(lp5877
sg294
g253
sg295
Nsg296
Nsg297
Nsbag2
(g3
g4
Ntp5878
Rp5879
(dp5880
g8
g11
sg275
Nsg276
(dp5881
sg278
Nsg26
g29
sg279
(lp5882
I45
aI5
asg281
Nsg282
VChagigah 23a:5
p5883
sg284
(lp5884
sg286
g73
sg287
Nsg288
(lp5885
I45
aI5
asg290
Nsg291
g5883
sg292
(lp5886
sg294
g253
sg295
Nsg296
Nsg297
Nsbag2
(g3
g4
Ntp5887
Rp5888
(dp5889
g8
g11
sg275
Nsg276
(dp5890
sg278
Nsg26
g29
sg279
(lp5891
I45
aI6
asg281
Nsg282
VChagigah 23a:6
p5892
sg284
(lp5893
sg286
g73
sg287
Nsg288
(lp5894
I45
aI6
asg290
Nsg291
g5892
sg292
(lp5895
sg294
g253
sg295
Nsg296
Nsg297
Nsbag2
(g3
g4
Ntp5896
Rp5897
(dp5898
g8
g11
sg275
Nsg276
(dp5899
sg278
Nsg26
g29
sg279
(lp5900
I45
aI7
asg281
Nsg282
VChagigah 23a:7
p5901
sg284
(lp5902
sg286
g73
sg287
Nsg288
(lp5903
I45
aI7
asg290
Nsg291
g5901
sg292
(lp5904
sg294
g253
sg295
Nsg296
Nsg297
Nsbag2
(g3
g4
Ntp5905
Rp5906
(dp5907
g8
g11
sg275
Nsg276
(dp5908
sg278
Nsg26
g29
sg279
(lp5909
I45
aI8
asg281
Nsg282
VChagigah 23a:8
p5910
sg284
(lp5911
sg286
g73
sg287
Nsg288
(lp5912
I45
aI8
asg290
Nsg291
g5910
sg292
(lp5913
sg294
g253
sg295
Nsg296
Nsg297
Nsbag2
(g3
g4
Ntp5914
Rp5915
(dp5916
g8
g11
sg275
Nsg276
(dp5917
sg278
Nsg26
g29
sg279
(lp5918
I45
aI9
asg281
Nsg282
VChagigah 23a:9
p5919
sg284
(lp5920
sg286
g73
sg287
Nsg288
(lp5921
I45
aI9
asg290
Nsg291
g5919
sg292
(lp5922
sg294
g253
sg295
Nsg296
Nsg297
Nsbag2
(g3
g4
Ntp5923
Rp5924
(dp5925
g8
g11
sg275
Nsg276
(dp5926
sg278
Nsg26
g29
sg279
(lp5927
I45
aI10
asg281
Nsg282
VChagigah 23a:10
p5928
sg284
(lp5929
sg286
g73
sg287
Nsg288
(lp5930
I45
aI10
asg290
Nsg291
g5928
sg292
(lp5931
sg294
g253
sg295
Nsg296
Nsg297
Nsbag2
(g3
g4
Ntp5932
Rp5933
(dp5934
g8
g11
sg275
Nsg276
(dp5935
sg278
Nsg26
g29
sg279
(lp5936
I45
aI11
asg281
Nsg282
VChagigah 23a:11
p5937
sg284
(lp5938
sg286
g73
sg287
Nsg288
(lp5939
I45
aI11
asg290
Nsg291
g5937
sg292
(lp5940
sg294
g253
sg295
Nsg296
Nsg297
Nsbag2
(g3
g4
Ntp5941
Rp5942
(dp5943
g8
g11
sg275
Nsg276
(dp5944
sg278
Nsg26
g29
sg279
(lp5945
I45
aI12
asg281
Nsg282
VChagigah 23a:12
p5946
sg284
(lp5947
sg286
g73
sg287
Nsg288
(lp5948
I45
aI12
asg290
Nsg291
g5946
sg292
(lp5949
sg294
g253
sg295
Nsg296
Nsg297
Nsbag2
(g3
g4
Ntp5950
Rp5951
(dp5952
g8
g11
sg275
Nsg276
(dp5953
sg278
Nsg26
g29
sg279
(lp5954
I45
aI13
asg281
Nsg282
VChagigah 23a:13
p5955
sg284
(lp5956
sg286
g73
sg287
Nsg288
(lp5957
I45
aI13
asg290
Nsg291
g5955
sg292
(lp5958
sg294
g253
sg295
Nsg296
Nsg297
Nsbag2
(g3
g4
Ntp5959
Rp5960
(dp5961
g8
g11
sg275
Nsg276
(dp5962
sg278
Nsg26
g29
sg279
(lp5963
I45
aI14
asg281
Nsg282
VChagigah 23a:14
p5964
sg284
(lp5965
sg286
g73
sg287
Nsg288
(lp5966
I45
aI14
asg290
Nsg291
g5964
sg292
(lp5967
sg294
g253
sg295
Nsg296
Nsg297
Nsbag2
(g3
g4
Ntp5968
Rp5969
(dp5970
g8
g11
sg275
Nsg276
(dp5971
sg278
Nsg26
g29
sg279
(lp5972
I45
aI15
asg281
Nsg282
VChagigah 23a:15
p5973
sg284
(lp5974
sg286
g73
sg287
Nsg288
(lp5975
I45
aI15
asg290
Nsg291
g5973
sg292
(lp5976
sg294
g253
sg295
Nsg296
Nsg297
Nsbag2
(g3
g4
Ntp5977
Rp5978
(dp5979
g8
g11
sg275
Nsg276
(dp5980
sg278
Nsg26
g29
sg279
(lp5981
I45
aI16
asg281
Nsg282
VChagigah 23a:16
p5982
sg284
(lp5983
sg286
g73
sg287
Nsg288
(lp5984
I45
aI16
asg290
Nsg291
g5982
sg292
(lp5985
sg294
g253
sg295
Nsg296
Nsg297
Nsbag2
(g3
g4
Ntp5986
Rp5987
(dp5988
g8
g11
sg275
Nsg276
(dp5989
sg278
Nsg26
g29
sg279
(lp5990
I46
aI1
asg281
Nsg282
VChagigah 23b:1
p5991
sg284
(lp5992
sg286
g73
sg287
Nsg288
(lp5993
I46
aI1
asg290
Nsg291
g5991
sg292
(lp5994
sg294
g253
sg295
Nsg296
Nsg297
Nsbag2
(g3
g4
Ntp5995
Rp5996
(dp5997
g8
g11
sg275
Nsg276
(dp5998
sg278
Nsg26
g29
sg279
(lp5999
I46
aI2
asg281
Nsg282
VChagigah 23b:2
p6000
sg284
(lp6001
sg286
g73
sg287
Nsg288
(lp6002
I46
aI2
asg290
Nsg291
g6000
sg292
(lp6003
sg294
g253
sg295
Nsg296
Nsg297
Nsbag2
(g3
g4
Ntp6004
Rp6005
(dp6006
g8
g11
sg275
Nsg276
(dp6007
sg278
Nsg26
g29
sg279
(lp6008
I46
aI3
asg281
Nsg282
VChagigah 23b:3
p6009
sg284
(lp6010
sg286
g73
sg287
Nsg288
(lp6011
I46
aI3
asg290
Nsg291
g6009
sg292
(lp6012
sg294
g253
sg295
Nsg296
Nsg297
Nsbag2
(g3
g4
Ntp6013
Rp6014
(dp6015
g8
g11
sg275
Nsg276
(dp6016
sg278
Nsg26
g29
sg279
(lp6017
I46
aI4
asg281
Nsg282
VChagigah 23b:4
p6018
sg284
(lp6019
sg286
g73
sg287
Nsg288
(lp6020
I46
aI4
asg290
Nsg291
g6018
sg292
(lp6021
sg294
g253
sg295
Nsg296
Nsg297
Nsbag2
(g3
g4
Ntp6022
Rp6023
(dp6024
g8
g11
sg275
Nsg276
(dp6025
sg278
Nsg26
g29
sg279
(lp6026
I46
aI5
asg281
Nsg282
VChagigah 23b:5
p6027
sg284
(lp6028
sg286
g73
sg287
Nsg288
(lp6029
I46
aI5
asg290
Nsg291
g6027
sg292
(lp6030
sg294
g253
sg295
Nsg296
Nsg297
Nsbag2
(g3
g4
Ntp6031
Rp6032
(dp6033
g8
g11
sg275
Nsg276
(dp6034
sg278
Nsg26
g29
sg279
(lp6035
I46
aI6
asg281
Nsg282
VChagigah 23b:6
p6036
sg284
(lp6037
sg286
g73
sg287
Nsg288
(lp6038
I46
aI6
asg290
Nsg291
g6036
sg292
(lp6039
sg294
g253
sg295
Nsg296
Nsg297
Nsbag2
(g3
g4
Ntp6040
Rp6041
(dp6042
g8
g11
sg275
Nsg276
(dp6043
sg278
Nsg26
g29
sg279
(lp6044
I46
aI7
asg281
Nsg282
VChagigah 23b:7
p6045
sg284
(lp6046
sg286
g73
sg287
Nsg288
(lp6047
I46
aI7
asg290
Nsg291
g6045
sg292
(lp6048
sg294
g253
sg295
Nsg296
Nsg297
Nsbag2
(g3
g4
Ntp6049
Rp6050
(dp6051
g8
g11
sg275
Nsg276
(dp6052
sg278
Nsg26
g29
sg279
(lp6053
I46
aI8
asg281
Nsg282
VChagigah 23b:8
p6054
sg284
(lp6055
sg286
g73
sg287
Nsg288
(lp6056
I46
aI8
asg290
Nsg291
g6054
sg292
(lp6057
sg294
g253
sg295
Nsg296
Nsg297
Nsbag2
(g3
g4
Ntp6058
Rp6059
(dp6060
g8
g11
sg275
Nsg276
(dp6061
sg278
Nsg26
g29
sg279
(lp6062
I46
aI9
asg281
Nsg282
VChagigah 23b:9
p6063
sg284
(lp6064
sg286
g73
sg287
Nsg288
(lp6065
I46
aI9
asg290
Nsg291
g6063
sg292
(lp6066
sg294
g253
sg295
Nsg296
Nsg297
Nsbag2
(g3
g4
Ntp6067
Rp6068
(dp6069
g8
g11
sg275
Nsg276
(dp6070
sg278
Nsg26
g29
sg279
(lp6071
I46
aI10
asg281
Nsg282
VChagigah 23b:10
p6072
sg284
(lp6073
sg286
g73
sg287
Nsg288
(lp6074
I46
aI10
asg290
Nsg291
g6072
sg292
(lp6075
sg294
g253
sg295
Nsg296
Nsg297
Nsbag2
(g3
g4
Ntp6076
Rp6077
(dp6078
g8
g11
sg275
Nsg276
(dp6079
sg278
Nsg26
g29
sg279
(lp6080
I47
aI1
asg281
Nsg282
VChagigah 24a:1
p6081
sg284
(lp6082
sg286
g73
sg287
Nsg288
(lp6083
I47
aI1
asg290
Nsg291
g6081
sg292
(lp6084
sg294
g253
sg295
Nsg296
Nsg297
Nsbag2
(g3
g4
Ntp6085
Rp6086
(dp6087
g8
g11
sg275
Nsg276
(dp6088
sg278
Nsg26
g29
sg279
(lp6089
I47
aI2
asg281
Nsg282
VChagigah 24a:2
p6090
sg284
(lp6091
sg286
g73
sg287
Nsg288
(lp6092
I47
aI2
asg290
Nsg291
g6090
sg292
(lp6093
sg294
g253
sg295
Nsg296
Nsg297
Nsbag2
(g3
g4
Ntp6094
Rp6095
(dp6096
g8
g11
sg275
Nsg276
(dp6097
sg278
Nsg26
g29
sg279
(lp6098
I47
aI3
asg281
Nsg282
VChagigah 24a:3
p6099
sg284
(lp6100
sg286
g73
sg287
Nsg288
(lp6101
I47
aI3
asg290
Nsg291
g6099
sg292
(lp6102
sg294
g253
sg295
Nsg296
Nsg297
Nsbag2
(g3
g4
Ntp6103
Rp6104
(dp6105
g8
g11
sg275
Nsg276
(dp6106
sg278
Nsg26
g29
sg279
(lp6107
I47
aI4
asg281
Nsg282
VChagigah 24a:4
p6108
sg284
(lp6109
sg286
g73
sg287
Nsg288
(lp6110
I47
aI4
asg290
Nsg291
g6108
sg292
(lp6111
sg294
g253
sg295
Nsg296
Nsg297
Nsbag2
(g3
g4
Ntp6112
Rp6113
(dp6114
g8
g11
sg275
Nsg276
(dp6115
sg278
Nsg26
g29
sg279
(lp6116
I47
aI5
asg281
Nsg282
VChagigah 24a:5
p6117
sg284
(lp6118
sg286
g73
sg287
Nsg288
(lp6119
I47
aI5
asg290
Nsg291
g6117
sg292
(lp6120
sg294
g253
sg295
Nsg296
Nsg297
Nsbag2
(g3
g4
Ntp6121
Rp6122
(dp6123
g8
g11
sg275
Nsg276
(dp6124
sg278
Nsg26
g29
sg279
(lp6125
I47
aI6
asg281
Nsg282
VChagigah 24a:6
p6126
sg284
(lp6127
sg286
g73
sg287
Nsg288
(lp6128
I47
aI6
asg290
Nsg291
g6126
sg292
(lp6129
sg294
g253
sg295
Nsg296
Nsg297
Nsbag2
(g3
g4
Ntp6130
Rp6131
(dp6132
g8
g11
sg275
Nsg276
(dp6133
sg278
Nsg26
g29
sg279
(lp6134
I47
aI7
asg281
Nsg282
VChagigah 24a:7
p6135
sg284
(lp6136
sg286
g73
sg287
Nsg288
(lp6137
I47
aI7
asg290
Nsg291
g6135
sg292
(lp6138
sg294
g253
sg295
Nsg296
Nsg297
Nsbag2
(g3
g4
Ntp6139
Rp6140
(dp6141
g8
g11
sg275
Nsg276
(dp6142
sg278
Nsg26
g29
sg279
(lp6143
I47
aI8
asg281
Nsg282
VChagigah 24a:8
p6144
sg284
(lp6145
sg286
g73
sg287
Nsg288
(lp6146
I47
aI8
asg290
Nsg291
g6144
sg292
(lp6147
sg294
g253
sg295
Nsg296
Nsg297
Nsbag2
(g3
g4
Ntp6148
Rp6149
(dp6150
g8
g11
sg275
Nsg276
(dp6151
sg278
Nsg26
g29
sg279
(lp6152
I47
aI9
asg281
Nsg282
VChagigah 24a:9
p6153
sg284
(lp6154
sg286
g73
sg287
Nsg288
(lp6155
I47
aI9
asg290
Nsg291
g6153
sg292
(lp6156
sg294
g253
sg295
Nsg296
Nsg297
Nsbag2
(g3
g4
Ntp6157
Rp6158
(dp6159
g8
g11
sg275
Nsg276
(dp6160
sg278
Nsg26
g29
sg279
(lp6161
I47
aI10
asg281
Nsg282
VChagigah 24a:10
p6162
sg284
(lp6163
sg286
g73
sg287
Nsg288
(lp6164
I47
aI10
asg290
Nsg291
g6162
sg292
(lp6165
sg294
g253
sg295
Nsg296
Nsg297
Nsbag2
(g3
g4
Ntp6166
Rp6167
(dp6168
g8
g11
sg275
Nsg276
(dp6169
sg278
Nsg26
g29
sg279
(lp6170
I48
aI1
asg281
Nsg282
VChagigah 24b:1
p6171
sg284
(lp6172
sg286
g73
sg287
Nsg288
(lp6173
I48
aI1
asg290
Nsg291
g6171
sg292
(lp6174
sg294
g253
sg295
Nsg296
Nsg297
Nsbag2
(g3
g4
Ntp6175
Rp6176
(dp6177
g8
g11
sg275
Nsg276
(dp6178
sg278
Nsg26
g29
sg279
(lp6179
I48
aI2
asg281
Nsg282
VChagigah 24b:2
p6180
sg284
(lp6181
sg286
g73
sg287
Nsg288
(lp6182
I48
aI2
asg290
Nsg291
g6180
sg292
(lp6183
sg294
g253
sg295
Nsg296
Nsg297
Nsbag2
(g3
g4
Ntp6184
Rp6185
(dp6186
g8
g11
sg275
Nsg276
(dp6187
sg278
Nsg26
g29
sg279
(lp6188
I48
aI3
asg281
Nsg282
VChagigah 24b:3
p6189
sg284
(lp6190
sg286
g73
sg287
Nsg288
(lp6191
I48
aI3
asg290
Nsg291
g6189
sg292
(lp6192
sg294
g253
sg295
Nsg296
Nsg297
Nsbag2
(g3
g4
Ntp6193
Rp6194
(dp6195
g8
g11
sg275
Nsg276
(dp6196
sg278
Nsg26
g29
sg279
(lp6197
I48
aI4
asg281
Nsg282
VChagigah 24b:4
p6198
sg284
(lp6199
sg286
g73
sg287
Nsg288
(lp6200
I48
aI4
asg290
Nsg291
g6198
sg292
(lp6201
sg294
g253
sg295
Nsg296
Nsg297
Nsbag2
(g3
g4
Ntp6202
Rp6203
(dp6204
g8
g11
sg275
Nsg276
(dp6205
sg278
Nsg26
g29
sg279
(lp6206
I48
aI5
asg281
Nsg282
VChagigah 24b:5
p6207
sg284
(lp6208
sg286
g73
sg287
Nsg288
(lp6209
I48
aI5
asg290
Nsg291
g6207
sg292
(lp6210
sg294
g253
sg295
Nsg296
Nsg297
Nsbag2
(g3
g4
Ntp6211
Rp6212
(dp6213
g8
g11
sg275
Nsg276
(dp6214
sg278
Nsg26
g29
sg279
(lp6215
I48
aI6
asg281
Nsg282
VChagigah 24b:6
p6216
sg284
(lp6217
sg286
g73
sg287
Nsg288
(lp6218
I48
aI6
asg290
Nsg291
g6216
sg292
(lp6219
sg294
g253
sg295
Nsg296
Nsg297
Nsbag2
(g3
g4
Ntp6220
Rp6221
(dp6222
g8
g11
sg275
Nsg276
(dp6223
sg278
Nsg26
g29
sg279
(lp6224
I48
aI7
asg281
Nsg282
VChagigah 24b:7
p6225
sg284
(lp6226
sg286
g73
sg287
Nsg288
(lp6227
I48
aI7
asg290
Nsg291
g6225
sg292
(lp6228
sg294
g253
sg295
Nsg296
Nsg297
Nsbag2
(g3
g4
Ntp6229
Rp6230
(dp6231
g8
g11
sg275
Nsg276
(dp6232
sg278
Nsg26
g29
sg279
(lp6233
I48
aI8
asg281
Nsg282
VChagigah 24b:8
p6234
sg284
(lp6235
sg286
g73
sg287
Nsg288
(lp6236
I48
aI8
asg290
Nsg291
g6234
sg292
(lp6237
sg294
g253
sg295
Nsg296
Nsg297
Nsbag2
(g3
g4
Ntp6238
Rp6239
(dp6240
g8
g11
sg275
Nsg276
(dp6241
sg278
Nsg26
g29
sg279
(lp6242
I48
aI9
asg281
Nsg282
VChagigah 24b:9
p6243
sg284
(lp6244
sg286
g73
sg287
Nsg288
(lp6245
I48
aI9
asg290
Nsg291
g6243
sg292
(lp6246
sg294
g253
sg295
Nsg296
Nsg297
Nsbag2
(g3
g4
Ntp6247
Rp6248
(dp6249
g8
g11
sg275
Nsg276
(dp6250
sg278
Nsg26
g29
sg279
(lp6251
I48
aI10
asg281
Nsg282
VChagigah 24b:10
p6252
sg284
(lp6253
sg286
g73
sg287
Nsg288
(lp6254
I48
aI10
asg290
Nsg291
g6252
sg292
(lp6255
sg294
g253
sg295
Nsg296
Nsg297
Nsbag2
(g3
g4
Ntp6256
Rp6257
(dp6258
g8
g11
sg275
Nsg276
(dp6259
sg278
Nsg26
g29
sg279
(lp6260
I48
aI11
asg281
Nsg282
VChagigah 24b:11
p6261
sg284
(lp6262
sg286
g73
sg287
Nsg288
(lp6263
I48
aI11
asg290
Nsg291
g6261
sg292
(lp6264
sg294
g253
sg295
Nsg296
Nsg297
Nsbag2
(g3
g4
Ntp6265
Rp6266
(dp6267
g8
g11
sg275
Nsg276
(dp6268
sg278
Nsg26
g29
sg279
(lp6269
I48
aI12
asg281
Nsg282
VChagigah 24b:12
p6270
sg284
(lp6271
sg286
g73
sg287
Nsg288
(lp6272
I48
aI12
asg290
Nsg291
g6270
sg292
(lp6273
sg294
g253
sg295
Nsg296
Nsg297
Nsbag2
(g3
g4
Ntp6274
Rp6275
(dp6276
g8
g11
sg275
Nsg276
(dp6277
sg278
Nsg26
g29
sg279
(lp6278
I48
aI13
asg281
Nsg282
VChagigah 24b:13
p6279
sg284
(lp6280
sg286
g73
sg287
Nsg288
(lp6281
I48
aI13
asg290
Nsg291
g6279
sg292
(lp6282
sg294
g253
sg295
Nsg296
Nsg297
Nsbag2
(g3
g4
Ntp6283
Rp6284
(dp6285
g8
g11
sg275
Nsg276
(dp6286
sg278
Nsg26
g29
sg279
(lp6287
I48
aI14
asg281
Nsg282
VChagigah 24b:14
p6288
sg284
(lp6289
sg286
g73
sg287
Nsg288
(lp6290
I48
aI14
asg290
Nsg291
g6288
sg292
(lp6291
sg294
g253
sg295
Nsg296
Nsg297
Nsbag2
(g3
g4
Ntp6292
Rp6293
(dp6294
g8
g11
sg275
Nsg276
(dp6295
sg278
Nsg26
g29
sg279
(lp6296
I49
aI1
asg281
Nsg282
VChagigah 25a:1
p6297
sg284
(lp6298
sg286
g73
sg287
Nsg288
(lp6299
I49
aI1
asg290
Nsg291
g6297
sg292
(lp6300
sg294
g253
sg295
Nsg296
Nsg297
Nsbag2
(g3
g4
Ntp6301
Rp6302
(dp6303
g8
g11
sg275
Nsg276
(dp6304
sg278
Nsg26
g29
sg279
(lp6305
I49
aI2
asg281
Nsg282
VChagigah 25a:2
p6306
sg284
(lp6307
sg286
g73
sg287
Nsg288
(lp6308
I49
aI2
asg290
Nsg291
g6306
sg292
(lp6309
sg294
g253
sg295
Nsg296
Nsg297
Nsbag2
(g3
g4
Ntp6310
Rp6311
(dp6312
g8
g11
sg275
Nsg276
(dp6313
sg278
Nsg26
g29
sg279
(lp6314
I49
aI3
asg281
Nsg282
VChagigah 25a:3
p6315
sg284
(lp6316
sg286
g73
sg287
Nsg288
(lp6317
I49
aI3
asg290
Nsg291
g6315
sg292
(lp6318
sg294
g253
sg295
Nsg296
Nsg297
Nsbag2
(g3
g4
Ntp6319
Rp6320
(dp6321
g8
g11
sg275
Nsg276
(dp6322
sg278
Nsg26
g29
sg279
(lp6323
I49
aI4
asg281
Nsg282
VChagigah 25a:4
p6324
sg284
(lp6325
sg286
g73
sg287
Nsg288
(lp6326
I49
aI4
asg290
Nsg291
g6324
sg292
(lp6327
sg294
g253
sg295
Nsg296
Nsg297
Nsbag2
(g3
g4
Ntp6328
Rp6329
(dp6330
g8
g11
sg275
Nsg276
(dp6331
sg278
Nsg26
g29
sg279
(lp6332
I49
aI5
asg281
Nsg282
VChagigah 25a:5
p6333
sg284
(lp6334
sg286
g73
sg287
Nsg288
(lp6335
I49
aI5
asg290
Nsg291
g6333
sg292
(lp6336
sg294
g253
sg295
Nsg296
Nsg297
Nsbag2
(g3
g4
Ntp6337
Rp6338
(dp6339
g8
g11
sg275
Nsg276
(dp6340
sg278
Nsg26
g29
sg279
(lp6341
I49
aI6
asg281
Nsg282
VChagigah 25a:6
p6342
sg284
(lp6343
sg286
g73
sg287
Nsg288
(lp6344
I49
aI6
asg290
Nsg291
g6342
sg292
(lp6345
sg294
g253
sg295
Nsg296
Nsg297
Nsbag2
(g3
g4
Ntp6346
Rp6347
(dp6348
g8
g11
sg275
Nsg276
(dp6349
sg278
Nsg26
g29
sg279
(lp6350
I49
aI7
asg281
Nsg282
VChagigah 25a:7
p6351
sg284
(lp6352
sg286
g73
sg287
Nsg288
(lp6353
I49
aI7
asg290
Nsg291
g6351
sg292
(lp6354
sg294
g253
sg295
Nsg296
Nsg297
Nsbag2
(g3
g4
Ntp6355
Rp6356
(dp6357
g8
g11
sg275
Nsg276
(dp6358
sg278
Nsg26
g29
sg279
(lp6359
I49
aI8
asg281
Nsg282
VChagigah 25a:8
p6360
sg284
(lp6361
sg286
g73
sg287
Nsg288
(lp6362
I49
aI8
asg290
Nsg291
g6360
sg292
(lp6363
sg294
g253
sg295
Nsg296
Nsg297
Nsbag2
(g3
g4
Ntp6364
Rp6365
(dp6366
g8
g11
sg275
Nsg276
(dp6367
sg278
Nsg26
g29
sg279
(lp6368
I49
aI9
asg281
Nsg282
VChagigah 25a:9
p6369
sg284
(lp6370
sg286
g73
sg287
Nsg288
(lp6371
I49
aI9
asg290
Nsg291
g6369
sg292
(lp6372
sg294
g253
sg295
Nsg296
Nsg297
Nsbag2
(g3
g4
Ntp6373
Rp6374
(dp6375
g8
g11
sg275
Nsg276
(dp6376
sg278
Nsg26
g29
sg279
(lp6377
I49
aI10
asg281
Nsg282
VChagigah 25a:10
p6378
sg284
(lp6379
sg286
g73
sg287
Nsg288
(lp6380
I49
aI10
asg290
Nsg291
g6378
sg292
(lp6381
sg294
g253
sg295
Nsg296
Nsg297
Nsbag2
(g3
g4
Ntp6382
Rp6383
(dp6384
g8
g11
sg275
Nsg276
(dp6385
sg278
Nsg26
g29
sg279
(lp6386
I49
aI11
asg281
Nsg282
VChagigah 25a:11
p6387
sg284
(lp6388
sg286
g73
sg287
Nsg288
(lp6389
I49
aI11
asg290
Nsg291
g6387
sg292
(lp6390
sg294
g253
sg295
Nsg296
Nsg297
Nsbag2
(g3
g4
Ntp6391
Rp6392
(dp6393
g8
g11
sg275
Nsg276
(dp6394
sg278
Nsg26
g29
sg279
(lp6395
I49
aI12
asg281
Nsg282
VChagigah 25a:12
p6396
sg284
(lp6397
sg286
g73
sg287
Nsg288
(lp6398
I49
aI12
asg290
Nsg291
g6396
sg292
(lp6399
sg294
g253
sg295
Nsg296
Nsg297
Nsbag2
(g3
g4
Ntp6400
Rp6401
(dp6402
g8
g11
sg275
Nsg276
(dp6403
sg278
Nsg26
g29
sg279
(lp6404
I50
aI1
asg281
Nsg282
VChagigah 25b:1
p6405
sg284
(lp6406
sg286
g73
sg287
Nsg288
(lp6407
I50
aI1
asg290
Nsg291
g6405
sg292
(lp6408
sg294
g253
sg295
Nsg296
Nsg297
Nsbag2
(g3
g4
Ntp6409
Rp6410
(dp6411
g8
g11
sg275
Nsg276
(dp6412
sg278
Nsg26
g29
sg279
(lp6413
I50
aI2
asg281
Nsg282
VChagigah 25b:2
p6414
sg284
(lp6415
sg286
g73
sg287
Nsg288
(lp6416
I50
aI2
asg290
Nsg291
g6414
sg292
(lp6417
sg294
g253
sg295
Nsg296
Nsg297
Nsbag2
(g3
g4
Ntp6418
Rp6419
(dp6420
g8
g11
sg275
Nsg276
(dp6421
sg278
Nsg26
g29
sg279
(lp6422
I50
aI3
asg281
Nsg282
VChagigah 25b:3
p6423
sg284
(lp6424
sg286
g73
sg287
Nsg288
(lp6425
I50
aI3
asg290
Nsg291
g6423
sg292
(lp6426
sg294
g253
sg295
Nsg296
Nsg297
Nsbag2
(g3
g4
Ntp6427
Rp6428
(dp6429
g8
g11
sg275
Nsg276
(dp6430
sg278
Nsg26
g29
sg279
(lp6431
I50
aI4
asg281
Nsg282
VChagigah 25b:4
p6432
sg284
(lp6433
sg286
g73
sg287
Nsg288
(lp6434
I50
aI4
asg290
Nsg291
g6432
sg292
(lp6435
sg294
g253
sg295
Nsg296
Nsg297
Nsbag2
(g3
g4
Ntp6436
Rp6437
(dp6438
g8
g11
sg275
Nsg276
(dp6439
sg278
Nsg26
g29
sg279
(lp6440
I50
aI5
asg281
Nsg282
VChagigah 25b:5
p6441
sg284
(lp6442
sg286
g73
sg287
Nsg288
(lp6443
I50
aI5
asg290
Nsg291
g6441
sg292
(lp6444
sg294
g253
sg295
Nsg296
Nsg297
Nsbag2
(g3
g4
Ntp6445
Rp6446
(dp6447
g8
g11
sg275
Nsg276
(dp6448
sg278
Nsg26
g29
sg279
(lp6449
I50
aI6
asg281
Nsg282
VChagigah 25b:6
p6450
sg284
(lp6451
sg286
g73
sg287
Nsg288
(lp6452
I50
aI6
asg290
Nsg291
g6450
sg292
(lp6453
sg294
g253
sg295
Nsg296
Nsg297
Nsbag2
(g3
g4
Ntp6454
Rp6455
(dp6456
g8
g11
sg275
Nsg276
(dp6457
sg278
Nsg26
g29
sg279
(lp6458
I50
aI7
asg281
Nsg282
VChagigah 25b:7
p6459
sg284
(lp6460
sg286
g73
sg287
Nsg288
(lp6461
I50
aI7
asg290
Nsg291
g6459
sg292
(lp6462
sg294
g253
sg295
Nsg296
Nsg297
Nsbag2
(g3
g4
Ntp6463
Rp6464
(dp6465
g8
g11
sg275
Nsg276
(dp6466
sg278
Nsg26
g29
sg279
(lp6467
I50
aI8
asg281
Nsg282
VChagigah 25b:8
p6468
sg284
(lp6469
sg286
g73
sg287
Nsg288
(lp6470
I50
aI8
asg290
Nsg291
g6468
sg292
(lp6471
sg294
g253
sg295
Nsg296
Nsg297
Nsbag2
(g3
g4
Ntp6472
Rp6473
(dp6474
g8
g11
sg275
Nsg276
(dp6475
sg278
Nsg26
g29
sg279
(lp6476
I50
aI9
asg281
Nsg282
VChagigah 25b:9
p6477
sg284
(lp6478
sg286
g73
sg287
Nsg288
(lp6479
I50
aI9
asg290
Nsg291
g6477
sg292
(lp6480
sg294
g253
sg295
Nsg296
Nsg297
Nsbag2
(g3
g4
Ntp6481
Rp6482
(dp6483
g8
g11
sg275
Nsg276
(dp6484
sg278
Nsg26
g29
sg279
(lp6485
I50
aI10
asg281
Nsg282
VChagigah 25b:10
p6486
sg284
(lp6487
sg286
g73
sg287
Nsg288
(lp6488
I50
aI10
asg290
Nsg291
g6486
sg292
(lp6489
sg294
g253
sg295
Nsg296
Nsg297
Nsbag2
(g3
g4
Ntp6490
Rp6491
(dp6492
g8
g11
sg275
Nsg276
(dp6493
sg278
Nsg26
g29
sg279
(lp6494
I50
aI11
asg281
Nsg282
VChagigah 25b:11
p6495
sg284
(lp6496
sg286
g73
sg287
Nsg288
(lp6497
I50
aI11
asg290
Nsg291
g6495
sg292
(lp6498
sg294
g253
sg295
Nsg296
Nsg297
Nsbag2
(g3
g4
Ntp6499
Rp6500
(dp6501
g8
g11
sg275
Nsg276
(dp6502
sg278
Nsg26
g29
sg279
(lp6503
I50
aI12
asg281
Nsg282
VChagigah 25b:12
p6504
sg284
(lp6505
sg286
g73
sg287
Nsg288
(lp6506
I50
aI12
asg290
Nsg291
g6504
sg292
(lp6507
sg294
g253
sg295
Nsg296
Nsg297
Nsbag2
(g3
g4
Ntp6508
Rp6509
(dp6510
g8
g11
sg275
Nsg276
(dp6511
sg278
Nsg26
g29
sg279
(lp6512
I50
aI13
asg281
Nsg282
VChagigah 25b:13
p6513
sg284
(lp6514
sg286
g73
sg287
Nsg288
(lp6515
I50
aI13
asg290
Nsg291
g6513
sg292
(lp6516
sg294
g253
sg295
Nsg296
Nsg297
Nsbag2
(g3
g4
Ntp6517
Rp6518
(dp6519
g8
g11
sg275
Nsg276
(dp6520
sg278
Nsg26
g29
sg279
(lp6521
I50
aI14
asg281
Nsg282
VChagigah 25b:14
p6522
sg284
(lp6523
sg286
g73
sg287
Nsg288
(lp6524
I50
aI14
asg290
Nsg291
g6522
sg292
(lp6525
sg294
g253
sg295
Nsg296
Nsg297
Nsbag2
(g3
g4
Ntp6526
Rp6527
(dp6528
g8
g11
sg275
Nsg276
(dp6529
sg278
Nsg26
g29
sg279
(lp6530
I50
aI15
asg281
Nsg282
VChagigah 25b:15
p6531
sg284
(lp6532
sg286
g73
sg287
Nsg288
(lp6533
I50
aI15
asg290
Nsg291
g6531
sg292
(lp6534
sg294
g253
sg295
Nsg296
Nsg297
Nsbag2
(g3
g4
Ntp6535
Rp6536
(dp6537
g8
g11
sg275
Nsg276
(dp6538
sg278
Nsg26
g29
sg279
(lp6539
I50
aI16
asg281
Nsg282
VChagigah 25b:16
p6540
sg284
(lp6541
sg286
g73
sg287
Nsg288
(lp6542
I50
aI16
asg290
Nsg291
g6540
sg292
(lp6543
sg294
g253
sg295
Nsg296
Nsg297
Nsbag2
(g3
g4
Ntp6544
Rp6545
(dp6546
g8
g11
sg275
Nsg276
(dp6547
sg278
Nsg26
g29
sg279
(lp6548
I50
aI17
asg281
Nsg282
VChagigah 25b:17
p6549
sg284
(lp6550
sg286
g73
sg287
Nsg288
(lp6551
I50
aI17
asg290
Nsg291
g6549
sg292
(lp6552
sg294
g253
sg295
Nsg296
Nsg297
Nsbag2
(g3
g4
Ntp6553
Rp6554
(dp6555
g8
g11
sg275
Nsg276
(dp6556
sg278
Nsg26
g29
sg279
(lp6557
I50
aI18
asg281
Nsg282
VChagigah 25b:18
p6558
sg284
(lp6559
sg286
g73
sg287
Nsg288
(lp6560
I50
aI18
asg290
Nsg291
g6558
sg292
(lp6561
sg294
g253
sg295
Nsg296
Nsg297
Nsbag2
(g3
g4
Ntp6562
Rp6563
(dp6564
g8
g11
sg275
Nsg276
(dp6565
sg278
Nsg26
g29
sg279
(lp6566
I51
aI1
asg281
Nsg282
VChagigah 26a:1
p6567
sg284
(lp6568
sg286
g73
sg287
Nsg288
(lp6569
I51
aI1
asg290
Nsg291
g6567
sg292
(lp6570
sg294
g253
sg295
Nsg296
Nsg297
Nsbag2
(g3
g4
Ntp6571
Rp6572
(dp6573
g8
g11
sg275
Nsg276
(dp6574
sg278
Nsg26
g29
sg279
(lp6575
I51
aI2
asg281
Nsg282
VChagigah 26a:2
p6576
sg284
(lp6577
sg286
g73
sg287
Nsg288
(lp6578
I51
aI2
asg290
Nsg291
g6576
sg292
(lp6579
sg294
g253
sg295
Nsg296
Nsg297
Nsbag2
(g3
g4
Ntp6580
Rp6581
(dp6582
g8
g11
sg275
Nsg276
(dp6583
sg278
Nsg26
g29
sg279
(lp6584
I51
aI3
asg281
Nsg282
VChagigah 26a:3
p6585
sg284
(lp6586
sg286
g73
sg287
Nsg288
(lp6587
I51
aI3
asg290
Nsg291
g6585
sg292
(lp6588
sg294
g253
sg295
Nsg296
Nsg297
Nsbag2
(g3
g4
Ntp6589
Rp6590
(dp6591
g8
g11
sg275
Nsg276
(dp6592
sg278
Nsg26
g29
sg279
(lp6593
I51
aI4
asg281
Nsg282
VChagigah 26a:4
p6594
sg284
(lp6595
sg286
g73
sg287
Nsg288
(lp6596
I51
aI4
asg290
Nsg291
g6594
sg292
(lp6597
sg294
g253
sg295
Nsg296
Nsg297
Nsbag2
(g3
g4
Ntp6598
Rp6599
(dp6600
g8
g11
sg275
Nsg276
(dp6601
sg278
Nsg26
g29
sg279
(lp6602
I51
aI5
asg281
Nsg282
VChagigah 26a:5
p6603
sg284
(lp6604
sg286
g73
sg287
Nsg288
(lp6605
I51
aI5
asg290
Nsg291
g6603
sg292
(lp6606
sg294
g253
sg295
Nsg296
Nsg297
Nsbag2
(g3
g4
Ntp6607
Rp6608
(dp6609
g8
g11
sg275
Nsg276
(dp6610
sg278
Nsg26
g29
sg279
(lp6611
I51
aI6
asg281
Nsg282
VChagigah 26a:6
p6612
sg284
(lp6613
sg286
g73
sg287
Nsg288
(lp6614
I51
aI6
asg290
Nsg291
g6612
sg292
(lp6615
sg294
g253
sg295
Nsg296
Nsg297
Nsbag2
(g3
g4
Ntp6616
Rp6617
(dp6618
g8
g11
sg275
Nsg276
(dp6619
sg278
Nsg26
g29
sg279
(lp6620
I51
aI7
asg281
Nsg282
VChagigah 26a:7
p6621
sg284
(lp6622
sg286
g73
sg287
Nsg288
(lp6623
I51
aI7
asg290
Nsg291
g6621
sg292
(lp6624
sg294
g253
sg295
Nsg296
Nsg297
Nsbag2
(g3
g4
Ntp6625
Rp6626
(dp6627
g8
g11
sg275
Nsg276
(dp6628
sg278
Nsg26
g29
sg279
(lp6629
I51
aI8
asg281
Nsg282
VChagigah 26a:8
p6630
sg284
(lp6631
sg286
g73
sg287
Nsg288
(lp6632
I51
aI8
asg290
Nsg291
g6630
sg292
(lp6633
sg294
g253
sg295
Nsg296
Nsg297
Nsbag2
(g3
g4
Ntp6634
Rp6635
(dp6636
g8
g11
sg275
Nsg276
(dp6637
sg278
Nsg26
g29
sg279
(lp6638
I51
aI9
asg281
Nsg282
VChagigah 26a:9
p6639
sg284
(lp6640
sg286
g73
sg287
Nsg288
(lp6641
I51
aI9
asg290
Nsg291
g6639
sg292
(lp6642
sg294
g253
sg295
Nsg296
Nsg297
Nsbag2
(g3
g4
Ntp6643
Rp6644
(dp6645
g8
g11
sg275
Nsg276
(dp6646
sg278
Nsg26
g29
sg279
(lp6647
I51
aI10
asg281
Nsg282
VChagigah 26a:10
p6648
sg284
(lp6649
sg286
g73
sg287
Nsg288
(lp6650
I51
aI10
asg290
Nsg291
g6648
sg292
(lp6651
sg294
g253
sg295
Nsg296
Nsg297
Nsbag2
(g3
g4
Ntp6652
Rp6653
(dp6654
g8
g11
sg275
Nsg276
(dp6655
sg278
Nsg26
g29
sg279
(lp6656
I51
aI11
asg281
Nsg282
VChagigah 26a:11
p6657
sg284
(lp6658
sg286
g73
sg287
Nsg288
(lp6659
I51
aI11
asg290
Nsg291
g6657
sg292
(lp6660
sg294
g253
sg295
Nsg296
Nsg297
Nsbag2
(g3
g4
Ntp6661
Rp6662
(dp6663
g8
g11
sg275
Nsg276
(dp6664
sg278
Nsg26
g29
sg279
(lp6665
I51
aI12
asg281
Nsg282
VChagigah 26a:12
p6666
sg284
(lp6667
sg286
g73
sg287
Nsg288
(lp6668
I51
aI12
asg290
Nsg291
g6666
sg292
(lp6669
sg294
g253
sg295
Nsg296
Nsg297
Nsbag2
(g3
g4
Ntp6670
Rp6671
(dp6672
g8
g11
sg275
Nsg276
(dp6673
sg278
Nsg26
g29
sg279
(lp6674
I51
aI13
asg281
Nsg282
VChagigah 26a:13
p6675
sg284
(lp6676
sg286
g73
sg287
Nsg288
(lp6677
I51
aI13
asg290
Nsg291
g6675
sg292
(lp6678
sg294
g253
sg295
Nsg296
Nsg297
Nsbag2
(g3
g4
Ntp6679
Rp6680
(dp6681
g8
g11
sg275
Nsg276
(dp6682
sg278
Nsg26
g29
sg279
(lp6683
I51
aI14
asg281
Nsg282
VChagigah 26a:14
p6684
sg284
(lp6685
sg286
g73
sg287
Nsg288
(lp6686
I51
aI14
asg290
Nsg291
g6684
sg292
(lp6687
sg294
g253
sg295
Nsg296
Nsg297
Nsbag2
(g3
g4
Ntp6688
Rp6689
(dp6690
g8
g11
sg275
Nsg276
(dp6691
sg278
Nsg26
g29
sg279
(lp6692
I51
aI15
asg281
Nsg282
VChagigah 26a:15
p6693
sg284
(lp6694
sg286
g73
sg287
Nsg288
(lp6695
I51
aI15
asg290
Nsg291
g6693
sg292
(lp6696
sg294
g253
sg295
Nsg296
Nsg297
Nsbag2
(g3
g4
Ntp6697
Rp6698
(dp6699
g8
g11
sg275
Nsg276
(dp6700
sg278
Nsg26
g29
sg279
(lp6701
I51
aI16
asg281
Nsg282
VChagigah 26a:16
p6702
sg284
(lp6703
sg286
g73
sg287
Nsg288
(lp6704
I51
aI16
asg290
Nsg291
g6702
sg292
(lp6705
sg294
g253
sg295
Nsg296
Nsg297
Nsbag2
(g3
g4
Ntp6706
Rp6707
(dp6708
g8
g11
sg275
Nsg276
(dp6709
sg278
Nsg26
g29
sg279
(lp6710
I51
aI17
asg281
Nsg282
VChagigah 26a:17
p6711
sg284
(lp6712
sg286
g73
sg287
Nsg288
(lp6713
I51
aI17
asg290
Nsg291
g6711
sg292
(lp6714
sg294
g253
sg295
Nsg296
Nsg297
Nsbag2
(g3
g4
Ntp6715
Rp6716
(dp6717
g8
g11
sg275
Nsg276
(dp6718
sg278
Nsg26
g29
sg279
(lp6719
I51
aI18
asg281
Nsg282
VChagigah 26a:18
p6720
sg284
(lp6721
sg286
g73
sg287
Nsg288
(lp6722
I51
aI18
asg290
Nsg291
g6720
sg292
(lp6723
sg294
g253
sg295
Nsg296
Nsg297
Nsbag2
(g3
g4
Ntp6724
Rp6725
(dp6726
g8
g11
sg275
Nsg276
(dp6727
sg278
Nsg26
g29
sg279
(lp6728
I52
aI1
asg281
Nsg282
VChagigah 26b:1
p6729
sg284
(lp6730
sg286
g73
sg287
Nsg288
(lp6731
I52
aI1
asg290
Nsg291
g6729
sg292
(lp6732
sg294
g253
sg295
Nsg296
Nsg297
Nsbag2
(g3
g4
Ntp6733
Rp6734
(dp6735
g8
g11
sg275
Nsg276
(dp6736
sg278
Nsg26
g29
sg279
(lp6737
I52
aI2
asg281
Nsg282
VChagigah 26b:2
p6738
sg284
(lp6739
sg286
g73
sg287
Nsg288
(lp6740
I52
aI2
asg290
Nsg291
g6738
sg292
(lp6741
sg294
g253
sg295
Nsg296
Nsg297
Nsbag2
(g3
g4
Ntp6742
Rp6743
(dp6744
g8
g11
sg275
Nsg276
(dp6745
sg278
Nsg26
g29
sg279
(lp6746
I52
aI3
asg281
Nsg282
VChagigah 26b:3
p6747
sg284
(lp6748
sg286
g73
sg287
Nsg288
(lp6749
I52
aI3
asg290
Nsg291
g6747
sg292
(lp6750
sg294
g253
sg295
Nsg296
Nsg297
Nsbag2
(g3
g4
Ntp6751
Rp6752
(dp6753
g8
g11
sg275
Nsg276
(dp6754
sg278
Nsg26
g29
sg279
(lp6755
I52
aI4
asg281
Nsg282
VChagigah 26b:4
p6756
sg284
(lp6757
sg286
g73
sg287
Nsg288
(lp6758
I52
aI4
asg290
Nsg291
g6756
sg292
(lp6759
sg294
g253
sg295
Nsg296
Nsg297
Nsbag2
(g3
g4
Ntp6760
Rp6761
(dp6762
g8
g11
sg275
Nsg276
(dp6763
sg278
Nsg26
g29
sg279
(lp6764
I52
aI5
asg281
Nsg282
VChagigah 26b:5
p6765
sg284
(lp6766
sg286
g73
sg287
Nsg288
(lp6767
I52
aI5
asg290
Nsg291
g6765
sg292
(lp6768
sg294
g253
sg295
Nsg296
Nsg297
Nsbag2
(g3
g4
Ntp6769
Rp6770
(dp6771
g8
g11
sg275
Nsg276
(dp6772
sg278
Nsg26
g29
sg279
(lp6773
I52
aI6
asg281
Nsg282
VChagigah 26b:6
p6774
sg284
(lp6775
sg286
g73
sg287
Nsg288
(lp6776
I52
aI6
asg290
Nsg291
g6774
sg292
(lp6777
sg294
g253
sg295
Nsg296
Nsg297
Nsbag2
(g3
g4
Ntp6778
Rp6779
(dp6780
g8
g11
sg275
Nsg276
(dp6781
sg278
Nsg26
g29
sg279
(lp6782
I52
aI7
asg281
Nsg282
VChagigah 26b:7
p6783
sg284
(lp6784
sg286
g73
sg287
Nsg288
(lp6785
I52
aI7
asg290
Nsg291
g6783
sg292
(lp6786
sg294
g253
sg295
Nsg296
Nsg297
Nsbag2
(g3
g4
Ntp6787
Rp6788
(dp6789
g8
g11
sg275
Nsg276
(dp6790
sg278
Nsg26
g29
sg279
(lp6791
I52
aI8
asg281
Nsg282
VChagigah 26b:8
p6792
sg284
(lp6793
sg286
g73
sg287
Nsg288
(lp6794
I52
aI8
asg290
Nsg291
g6792
sg292
(lp6795
sg294
g253
sg295
Nsg296
Nsg297
Nsbag2
(g3
g4
Ntp6796
Rp6797
(dp6798
g8
g11
sg275
Nsg276
(dp6799
sg278
Nsg26
g29
sg279
(lp6800
I52
aI9
asg281
Nsg282
VChagigah 26b:9
p6801
sg284
(lp6802
sg286
g73
sg287
Nsg288
(lp6803
I52
aI9
asg290
Nsg291
g6801
sg292
(lp6804
sg294
g253
sg295
Nsg296
Nsg297
Nsbag2
(g3
g4
Ntp6805
Rp6806
(dp6807
g8
g11
sg275
Nsg276
(dp6808
sg278
Nsg26
g29
sg279
(lp6809
I52
aI10
asg281
Nsg282
VChagigah 26b:10
p6810
sg284
(lp6811
sg286
g73
sg287
Nsg288
(lp6812
I52
aI10
asg290
Nsg291
g6810
sg292
(lp6813
sg294
g253
sg295
Nsg296
Nsg297
Nsbag2
(g3
g4
Ntp6814
Rp6815
(dp6816
g8
g11
sg275
Nsg276
(dp6817
sg278
Nsg26
g29
sg279
(lp6818
I52
aI11
asg281
Nsg282
VChagigah 26b:11
p6819
sg284
(lp6820
sg286
g73
sg287
Nsg288
(lp6821
I52
aI11
asg290
Nsg291
g6819
sg292
(lp6822
sg294
g253
sg295
Nsg296
Nsg297
Nsbag2
(g3
g4
Ntp6823
Rp6824
(dp6825
g8
g11
sg275
Nsg276
(dp6826
sg278
Nsg26
g29
sg279
(lp6827
I53
aI1
asg281
Nsg282
VChagigah 27a:1
p6828
sg284
(lp6829
sg286
g73
sg287
Nsg288
(lp6830
I53
aI1
asg290
Nsg291
g6828
sg292
(lp6831
sg294
g253
sg295
Nsg296
Nsg297
Nsbag2
(g3
g4
Ntp6832
Rp6833
(dp6834
g8
g11
sg275
Nsg276
(dp6835
sg278
Nsg26
g29
sg279
(lp6836
I53
aI2
asg281
Nsg282
VChagigah 27a:2
p6837
sg284
(lp6838
sg286
g73
sg287
Nsg288
(lp6839
I53
aI2
asg290
Nsg291
g6837
sg292
(lp6840
sg294
g253
sg295
Nsg296
Nsg297
Nsbag2
(g3
g4
Ntp6841
Rp6842
(dp6843
g8
g11
sg275
Nsg276
(dp6844
sg278
Nsg26
g29
sg279
(lp6845
I53
aI3
asg281
Nsg282
VChagigah 27a:3
p6846
sg284
(lp6847
sg286
g73
sg287
Nsg288
(lp6848
I53
aI3
asg290
Nsg291
g6846
sg292
(lp6849
sg294
g253
sg295
Nsg296
Nsg297
Nsbag2
(g3
g4
Ntp6850
Rp6851
(dp6852
g8
g11
sg275
Nsg276
(dp6853
sg278
Nsg26
g29
sg279
(lp6854
I53
aI4
asg281
Nsg282
VChagigah 27a:4
p6855
sg284
(lp6856
sg286
g73
sg287
Nsg288
(lp6857
I53
aI4
asg290
Nsg291
g6855
sg292
(lp6858
sg294
g253
sg295
Nsg296
Nsg297
Nsbag2
(g3
g4
Ntp6859
Rp6860
(dp6861
g8
g11
sg275
Nsg276
(dp6862
sg278
Nsg26
g29
sg279
(lp6863
I53
aI5
asg281
Nsg282
VChagigah 27a:5
p6864
sg284
(lp6865
sg286
g73
sg287
Nsg288
(lp6866
I53
aI5
asg290
Nsg291
g6864
sg292
(lp6867
sg294
g253
sg295
Nsg296
Nsg297
Nsbag2
(g3
g4
Ntp6868
Rp6869
(dp6870
g8
g11
sg275
Nsg276
(dp6871
sg278
Nsg26
g29
sg279
(lp6872
I53
aI6
asg281
Nsg282
VChagigah 27a:6
p6873
sg284
(lp6874
sg286
g73
sg287
Nsg288
(lp6875
I53
aI6
asg290
Nsg291
g6873
sg292
(lp6876
sg294
g253
sg295
Nsg296
Nsg297
Nsbag2
(g3
g4
Ntp6877
Rp6878
(dp6879
g8
g11
sg275
Nsg276
(dp6880
sg278
Nsg26
g29
sg279
(lp6881
I53
aI7
asg281
Nsg282
VChagigah 27a:7
p6882
sg284
(lp6883
sg286
g73
sg287
Nsg288
(lp6884
I53
aI7
asg290
Nsg291
g6882
sg292
(lp6885
sg294
g253
sg295
Nsg296
Nsg297
Nsbag2
(g3
g4
Ntp6886
Rp6887
(dp6888
g8
g11
sg275
Nsg276
(dp6889
sg278
Nsg26
g29
sg279
(lp6890
I53
aI8
asg281
Nsg282
VChagigah 27a:8
p6891
sg284
(lp6892
sg286
g73
sg287
Nsg288
(lp6893
I53
aI8
asg290
Nsg291
g6891
sg292
(lp6894
sg294
g253
sg295
Nsg296
Nsg297
Nsbag2
(g3
g4
Ntp6895
Rp6896
(dp6897
g8
g11
sg275
Nsg276
(dp6898
sg278
Nsg26
g29
sg279
(lp6899
I53
aI9
asg281
Nsg282
VChagigah 27a:9
p6900
sg284
(lp6901
sg286
g73
sg287
Nsg288
(lp6902
I53
aI9
asg290
Nsg291
g6900
sg292
(lp6903
sg294
g253
sg295
Nsg296
Nsg297
Nsbatp6904
.