((lp0
I0
aI5
aI12
aI20
aI27
aI37
aI51
aI67
aI82
aI95
aI108
aI121
aI128
aI149
aI161
aI169
aI191
aI204
aI211
aI224
aI231
aI257
aI265
aI274
aI283
aI301
aI318
aI328
aI351
aI369
aI385
aI396
aI410
aI428
aI445
aI460
aI473
aI489
aI500
aI518
aI530
aI545
aI563
aI570
aI592
aI599
aI608
aI616
aI624
aI635
aI643
aI651
aI659
aI665
aI675
aI698
aI709
aI721
aI740
aI752
aI764
aI781
aI795
aI820
aI833
aI847
aI865
aI887
aI899
aI916
aI935
aI942
aI951
aI957
aI988
aI998
aI1011
aI1020
aI1031
aI1043
aI1053
aI1066
aI1085
aI1103
aI1125
aI1132
aI1147
aI1154
aI1177
aI1186
aI1205
aI1213
aI1226
aI1238
aI1252
aI1262
aI1271
aI1285
aI1299
aI1308
aI1335
aI1356
aI1368
aI1378
aI1406
aI1430
aI1438
aI1447
aI1461
aI1469
aI1481
aI1491
aI1507
aI1516
aI1538
aI1546
aI1564
aI1572
aI1580
aI1588
aI1599
aI1607
aI1616
aI1625
aI1640
aI1647
aI1657
aI1668
aI1689
aI1702
aI1711
aI1721
aI1737
aI1745
aI1755
aI1769
aI1781
aI1790
aI1797
aI1810
aI1831
aI1840
aI1855
aI1869
aI1882
aI1890
aI1903
aI1912
aI1923
aI1934
aI1945
aI1964
aI1984
aI2000
aI2016
aI2035
aI2048
aI2072
aI2098
aI2119
aI2150
aI2176
aI2196
aI2219
aI2237
aI2252
aI2270
aI2284
aI2294
aI2322
aI2340
aI2369
aI2392
aI2401
aI2416
aI2433
aI2444
aI2451
aI2460
aI2471
aI2477
aI2487
aI2500
aI2509
aI2516
aI2525
aI2533
aI2541
aI2554
aI2563
aI2570
aI2578
aI2592
aI2601
aI2609
aI2619
aI2626
aI2636
aI2657
aI2665
aI2678
aI2696
aI2704
aI2723
aI2744
aI2751
aI2769
aI2789
aI2799
aI2818
aI2830
aI2844
aI2857
aI2877
aI2895
aI2906
aI2911
aI2925
aI2934
aI2944
aI2957
aI2971
a(lp1
ccopy_reg
_reconstructor
p2
(csefaria.model.text
Ref
p3
c__builtin__
object
p4
Ntp5
Rp6
(dp7
S'index_node'
p8
g2
(csefaria.model.schema
JaggedArrayNode
p9
g4
Ntp10
Rp11
(dp12
S'_address'
p13
(lp14
VEcclesiastes
p15
asS'_full_titles'
p16
(dp17
sVnodeType
p18
VJaggedArrayNode
p19
sS'parent'
p20
NsVaddressTypes
p21
(lp22
VInteger
p23
aVInteger
p24
asS'default'
p25
I00
sS'index'
p26
g2
(csefaria.model.text
Index
p27
g4
Ntp28
Rp29
(dp30
S'_id'
p31
g2
(cbson.objectid
ObjectId
p32
g4
Ntp33
Rp34
S'NJ\xb8l\xed\xba\xb4X3\x00\x00 '
p35
bsS'pkeys_orig_values'
p36
(dp37
S'title'
p38
VEcclesiastes
p39
ssS'pubDate'
p40
V1488
p41
sS'compDate'
p42
V-500
p43
sS'pubPlace'
p44
VSoncino
p45
sS'compPlace'
p46
VJudea/Israel
p47
sS'enDesc'
p48
VQoheleth (Book of Ecclesiastes ) is the fourth of the five Megillot (scrolls) of Ketuvim (Writings) the last section of the Tanakh (Bible). It proceeds to discuss the meaning of life and the best way of life. He proclaims all the actions of man to be inherently hevel, meaning "vain", "futile", "empty", "meaningless", "temporary", "transitory", "fleeting", or "mere breath," as the lives of both wise and foolish people end in death. While Koheleth clearly endorses wisdom as a means for a well-lived earthly life, he does not ascribe eternal meaning to it. In light of this senselessness, one should enjoy the simple pleasures of daily life, such as eating, drinking, and taking enjoyment in one's work, which are gifts from the hand of God. The book concludes with the injunction: "Fear God, and keep his commandments; for that is the whole duty of everyone" (12:13). The author "Koheleth" uses a literary device to introduce himself as "son of David king in Jerusalem" - Solomon. It is read by Yemenite and Ashkenazi Jews during Sukkot.
p49
sS'order'
p50
(lp51
I33
aI7
asS'struct_objs'
p52
(dp53
sS'nodes'
p54
g11
sS'errorMargin'
p55
V400
p56
sS'_title'
p57
g39
sS'categories'
p58
(lp59
VTanakh
p60
aVWritings
p61
asS'schema'
p62
(dp63
g18
g19
sg21
g22
sVlengths
p64
(lp65
I12
aI222
asVdepth
p66
I2
sVtitles
p67
(lp68
(dp69
Vlang
p70
Ven
p71
sVtext
p72
VEccles.
p73
sa(dp74
Vlang
p75
Ven
p76
sVtext
p77
VEcc
p78
sa(dp79
Vlang
p80
Ven
p81
sVtext
p82
VKohelet
p83
sa(dp84
Vlang
p85
Ven
p86
sVtext
p87
VEcc.
p88
sa(dp89
Vlang
p90
Ven
p91
sVtext
p92
VKoheleth
p93
sa(dp94
Vlang
p95
Vhe
p96
sVtext
p97
V\u05e7\u05d4\u05dc\u05ea
p98
sVprimary
p99
I01
sa(dp100
Vlang
p101
Ven
p102
sVtext
p103
VEcclesiastes
p104
sVprimary
p105
I01
sasVkey
p106
g15
sVsectionNames
p107
(lp108
VChapter
p109
aVVerse
p110
assbsS'_primary_title'
p111
(dp112
sS'title_group'
p113
g2
(csefaria.model.schema
TitleGroup
p114
g4
Ntp115
Rp116
(dp117
g111
(dp118
S'en'
p119
g104
ssS'titles'
p120
g68
sbsS'_addressTypes'
p121
(lp122
g2
(csefaria.model.schema
AddressInteger
p123
g4
Ntp124
Rp125
(dp126
S'length'
p127
I12
sg50
I0
sbag2
(g123
g4
Ntp128
Rp129
(dp130
g127
Nsg50
I1
sbasS'sharedTitle'
p131
Nsg64
g65
sg66
I2
sS'_full_title'
p132
(dp133
g119
g104
ssS'key'
p134
g15
sS'checkFirst'
p135
NsS'_regexes'
p136
(dp137
sS'_leaf_nodes'
p138
(lp139
sg107
g108
sS'children'
p140
(lp141
sbsS'_range_index'
p142
NsS'_context'
p143
(dp144
sS'_padded'
p145
Nsg26
g29
sS'sections'
p146
(lp147
I1
aI1
asS'_first_spanned_ref'
p148
NsS'tref'
p149
VEcclesiastes 1:1
p150
sS'_spanned_refs'
p151
(lp152
sS'book'
p153
g104
sS'_range_depth'
p154
NsS'toSections'
p155
(lp156
I1
aI1
asS'_url'
p157
NsS'_normal'
p158
g150
sS'_ranged_refs'
p159
(lp160
sS'type'
p161
g60
sS'_prev'
p162
NsS'_he_normal'
p163
NsS'_next'
p164
Nsbag2
(g3
g4
Ntp165
Rp166
(dp167
g8
g11
sg142
Nsg143
(dp168
sg145
Nsg26
g29
sg146
(lp169
I1
aI2
asg148
Nsg149
VEcclesiastes 1:2
p170
sg151
(lp171
sg153
g104
sg154
Nsg155
(lp172
I1
aI2
asg157
Nsg158
g170
sg159
(lp173
sg161
g60
sg162
Nsg163
Nsg164
Nsbag2
(g3
g4
Ntp174
Rp175
(dp176
g8
g11
sg142
Nsg143
(dp177
sg145
Nsg26
g29
sg146
(lp178
I1
aI3
asg148
Nsg149
VEcclesiastes 1:3
p179
sg151
(lp180
sg153
g104
sg154
Nsg155
(lp181
I1
aI3
asg157
Nsg158
g179
sg159
(lp182
sg161
g60
sg162
Nsg163
Nsg164
Nsbag2
(g3
g4
Ntp183
Rp184
(dp185
g8
g11
sg142
Nsg143
(dp186
sg145
Nsg26
g29
sg146
(lp187
I1
aI4
asg148
Nsg149
VEcclesiastes 1:4
p188
sg151
(lp189
sg153
g104
sg154
Nsg155
(lp190
I1
aI4
asg157
Nsg158
g188
sg159
(lp191
sg161
g60
sg162
Nsg163
Nsg164
Nsbag2
(g3
g4
Ntp192
Rp193
(dp194
g8
g11
sg142
Nsg143
(dp195
sg145
Nsg26
g29
sg146
(lp196
I1
aI5
asg148
Nsg149
VEcclesiastes 1:5
p197
sg151
(lp198
sg153
g104
sg154
Nsg155
(lp199
I1
aI5
asg157
Nsg158
g197
sg159
(lp200
sg161
g60
sg162
Nsg163
Nsg164
Nsbag2
(g3
g4
Ntp201
Rp202
(dp203
g8
g11
sg142
Nsg143
(dp204
sg145
Nsg26
g29
sg146
(lp205
I1
aI6
asg148
Nsg149
VEcclesiastes 1:6
p206
sg151
(lp207
sg153
g104
sg154
Nsg155
(lp208
I1
aI6
asg157
Nsg158
g206
sg159
(lp209
sg161
g60
sg162
Nsg163
Nsg164
Nsbag2
(g3
g4
Ntp210
Rp211
(dp212
g8
g11
sg142
Nsg143
(dp213
sg145
Nsg26
g29
sg146
(lp214
I1
aI7
asg148
Nsg149
VEcclesiastes 1:7
p215
sg151
(lp216
sg153
g104
sg154
Nsg155
(lp217
I1
aI7
asg157
Nsg158
g215
sg159
(lp218
sg161
g60
sg162
Nsg163
Nsg164
Nsbag2
(g3
g4
Ntp219
Rp220
(dp221
g8
g11
sg142
Nsg143
(dp222
sg145
Nsg26
g29
sg146
(lp223
I1
aI8
asg148
Nsg149
VEcclesiastes 1:8
p224
sg151
(lp225
sg153
g104
sg154
Nsg155
(lp226
I1
aI8
asg157
Nsg158
g224
sg159
(lp227
sg161
g60
sg162
Nsg163
Nsg164
Nsbag2
(g3
g4
Ntp228
Rp229
(dp230
g8
g11
sg142
Nsg143
(dp231
sg145
Nsg26
g29
sg146
(lp232
I1
aI9
asg148
Nsg149
VEcclesiastes 1:9
p233
sg151
(lp234
sg153
g104
sg154
Nsg155
(lp235
I1
aI9
asg157
Nsg158
g233
sg159
(lp236
sg161
g60
sg162
Nsg163
Nsg164
Nsbag2
(g3
g4
Ntp237
Rp238
(dp239
g8
g11
sg142
Nsg143
(dp240
sg145
Nsg26
g29
sg146
(lp241
I1
aI10
asg148
Nsg149
VEcclesiastes 1:10
p242
sg151
(lp243
sg153
g104
sg154
Nsg155
(lp244
I1
aI10
asg157
Nsg158
g242
sg159
(lp245
sg161
g60
sg162
Nsg163
Nsg164
Nsbag2
(g3
g4
Ntp246
Rp247
(dp248
g8
g11
sg142
Nsg143
(dp249
sg145
Nsg26
g29
sg146
(lp250
I1
aI11
asg148
Nsg149
VEcclesiastes 1:11
p251
sg151
(lp252
sg153
g104
sg154
Nsg155
(lp253
I1
aI11
asg157
Nsg158
g251
sg159
(lp254
sg161
g60
sg162
Nsg163
Nsg164
Nsbag2
(g3
g4
Ntp255
Rp256
(dp257
g8
g11
sg142
Nsg143
(dp258
sg145
Nsg26
g29
sg146
(lp259
I1
aI12
asg148
Nsg149
VEcclesiastes 1:12
p260
sg151
(lp261
sg153
g104
sg154
Nsg155
(lp262
I1
aI12
asg157
Nsg158
g260
sg159
(lp263
sg161
g60
sg162
Nsg163
Nsg164
Nsbag2
(g3
g4
Ntp264
Rp265
(dp266
g8
g11
sg142
Nsg143
(dp267
sg145
Nsg26
g29
sg146
(lp268
I1
aI13
asg148
Nsg149
VEcclesiastes 1:13
p269
sg151
(lp270
sg153
g104
sg154
Nsg155
(lp271
I1
aI13
asg157
Nsg158
g269
sg159
(lp272
sg161
g60
sg162
Nsg163
Nsg164
Nsbag2
(g3
g4
Ntp273
Rp274
(dp275
g8
g11
sg142
Nsg143
(dp276
sg145
Nsg26
g29
sg146
(lp277
I1
aI14
asg148
Nsg149
VEcclesiastes 1:14
p278
sg151
(lp279
sg153
g104
sg154
Nsg155
(lp280
I1
aI14
asg157
Nsg158
g278
sg159
(lp281
sg161
g60
sg162
Nsg163
Nsg164
Nsbag2
(g3
g4
Ntp282
Rp283
(dp284
g8
g11
sg142
Nsg143
(dp285
sg145
Nsg26
g29
sg146
(lp286
I1
aI15
asg148
Nsg149
VEcclesiastes 1:15
p287
sg151
(lp288
sg153
g104
sg154
Nsg155
(lp289
I1
aI15
asg157
Nsg158
g287
sg159
(lp290
sg161
g60
sg162
Nsg163
Nsg164
Nsbag2
(g3
g4
Ntp291
Rp292
(dp293
g8
g11
sg142
Nsg143
(dp294
sg145
Nsg26
g29
sg146
(lp295
I1
aI16
asg148
Nsg149
VEcclesiastes 1:16
p296
sg151
(lp297
sg153
g104
sg154
Nsg155
(lp298
I1
aI16
asg157
Nsg158
g296
sg159
(lp299
sg161
g60
sg162
Nsg163
Nsg164
Nsbag2
(g3
g4
Ntp300
Rp301
(dp302
g8
g11
sg142
Nsg143
(dp303
sg145
Nsg26
g29
sg146
(lp304
I1
aI17
asg148
Nsg149
VEcclesiastes 1:17
p305
sg151
(lp306
sg153
g104
sg154
Nsg155
(lp307
I1
aI17
asg157
Nsg158
g305
sg159
(lp308
sg161
g60
sg162
Nsg163
Nsg164
Nsbag2
(g3
g4
Ntp309
Rp310
(dp311
g8
g11
sg142
Nsg143
(dp312
sg145
Nsg26
g29
sg146
(lp313
I1
aI18
asg148
Nsg149
VEcclesiastes 1:18
p314
sg151
(lp315
sg153
g104
sg154
Nsg155
(lp316
I1
aI18
asg157
Nsg158
g314
sg159
(lp317
sg161
g60
sg162
Nsg163
Nsg164
Nsbag2
(g3
g4
Ntp318
Rp319
(dp320
g8
g11
sg142
Nsg143
(dp321
sg145
Nsg26
g29
sg146
(lp322
I2
aI1
asg148
Nsg149
VEcclesiastes 2:1
p323
sg151
(lp324
sg153
g104
sg154
Nsg155
(lp325
I2
aI1
asg157
Nsg158
g323
sg159
(lp326
sg161
g60
sg162
Nsg163
Nsg164
Nsbag2
(g3
g4
Ntp327
Rp328
(dp329
g8
g11
sg142
Nsg143
(dp330
sg145
Nsg26
g29
sg146
(lp331
I2
aI2
asg148
Nsg149
VEcclesiastes 2:2
p332
sg151
(lp333
sg153
g104
sg154
Nsg155
(lp334
I2
aI2
asg157
Nsg158
g332
sg159
(lp335
sg161
g60
sg162
Nsg163
Nsg164
Nsbag2
(g3
g4
Ntp336
Rp337
(dp338
g8
g11
sg142
Nsg143
(dp339
sg145
Nsg26
g29
sg146
(lp340
I2
aI3
asg148
Nsg149
VEcclesiastes 2:3
p341
sg151
(lp342
sg153
g104
sg154
Nsg155
(lp343
I2
aI3
asg157
Nsg158
g341
sg159
(lp344
sg161
g60
sg162
Nsg163
Nsg164
Nsbag2
(g3
g4
Ntp345
Rp346
(dp347
g8
g11
sg142
Nsg143
(dp348
sg145
Nsg26
g29
sg146
(lp349
I2
aI4
asg148
Nsg149
VEcclesiastes 2:4
p350
sg151
(lp351
sg153
g104
sg154
Nsg155
(lp352
I2
aI4
asg157
Nsg158
g350
sg159
(lp353
sg161
g60
sg162
Nsg163
Nsg164
Nsbag2
(g3
g4
Ntp354
Rp355
(dp356
g8
g11
sg142
Nsg143
(dp357
sg145
Nsg26
g29
sg146
(lp358
I2
aI5
asg148
Nsg149
VEcclesiastes 2:5
p359
sg151
(lp360
sg153
g104
sg154
Nsg155
(lp361
I2
aI5
asg157
Nsg158
g359
sg159
(lp362
sg161
g60
sg162
Nsg163
Nsg164
Nsbag2
(g3
g4
Ntp363
Rp364
(dp365
g8
g11
sg142
Nsg143
(dp366
sg145
Nsg26
g29
sg146
(lp367
I2
aI6
asg148
Nsg149
VEcclesiastes 2:6
p368
sg151
(lp369
sg153
g104
sg154
Nsg155
(lp370
I2
aI6
asg157
Nsg158
g368
sg159
(lp371
sg161
g60
sg162
Nsg163
Nsg164
Nsbag2
(g3
g4
Ntp372
Rp373
(dp374
g8
g11
sg142
Nsg143
(dp375
sg145
Nsg26
g29
sg146
(lp376
I2
aI7
asg148
Nsg149
VEcclesiastes 2:7
p377
sg151
(lp378
sg153
g104
sg154
Nsg155
(lp379
I2
aI7
asg157
Nsg158
g377
sg159
(lp380
sg161
g60
sg162
Nsg163
Nsg164
Nsbag2
(g3
g4
Ntp381
Rp382
(dp383
g8
g11
sg142
Nsg143
(dp384
sg145
Nsg26
g29
sg146
(lp385
I2
aI8
asg148
Nsg149
VEcclesiastes 2:8
p386
sg151
(lp387
sg153
g104
sg154
Nsg155
(lp388
I2
aI8
asg157
Nsg158
g386
sg159
(lp389
sg161
g60
sg162
Nsg163
Nsg164
Nsbag2
(g3
g4
Ntp390
Rp391
(dp392
g8
g11
sg142
Nsg143
(dp393
sg145
Nsg26
g29
sg146
(lp394
I2
aI9
asg148
Nsg149
VEcclesiastes 2:9
p395
sg151
(lp396
sg153
g104
sg154
Nsg155
(lp397
I2
aI9
asg157
Nsg158
g395
sg159
(lp398
sg161
g60
sg162
Nsg163
Nsg164
Nsbag2
(g3
g4
Ntp399
Rp400
(dp401
g8
g11
sg142
Nsg143
(dp402
sg145
Nsg26
g29
sg146
(lp403
I2
aI10
asg148
Nsg149
VEcclesiastes 2:10
p404
sg151
(lp405
sg153
g104
sg154
Nsg155
(lp406
I2
aI10
asg157
Nsg158
g404
sg159
(lp407
sg161
g60
sg162
Nsg163
Nsg164
Nsbag2
(g3
g4
Ntp408
Rp409
(dp410
g8
g11
sg142
Nsg143
(dp411
sg145
Nsg26
g29
sg146
(lp412
I2
aI11
asg148
Nsg149
VEcclesiastes 2:11
p413
sg151
(lp414
sg153
g104
sg154
Nsg155
(lp415
I2
aI11
asg157
Nsg158
g413
sg159
(lp416
sg161
g60
sg162
Nsg163
Nsg164
Nsbag2
(g3
g4
Ntp417
Rp418
(dp419
g8
g11
sg142
Nsg143
(dp420
sg145
Nsg26
g29
sg146
(lp421
I2
aI12
asg148
Nsg149
VEcclesiastes 2:12
p422
sg151
(lp423
sg153
g104
sg154
Nsg155
(lp424
I2
aI12
asg157
Nsg158
g422
sg159
(lp425
sg161
g60
sg162
Nsg163
Nsg164
Nsbag2
(g3
g4
Ntp426
Rp427
(dp428
g8
g11
sg142
Nsg143
(dp429
sg145
Nsg26
g29
sg146
(lp430
I2
aI13
asg148
Nsg149
VEcclesiastes 2:13
p431
sg151
(lp432
sg153
g104
sg154
Nsg155
(lp433
I2
aI13
asg157
Nsg158
g431
sg159
(lp434
sg161
g60
sg162
Nsg163
Nsg164
Nsbag2
(g3
g4
Ntp435
Rp436
(dp437
g8
g11
sg142
Nsg143
(dp438
sg145
Nsg26
g29
sg146
(lp439
I2
aI14
asg148
Nsg149
VEcclesiastes 2:14
p440
sg151
(lp441
sg153
g104
sg154
Nsg155
(lp442
I2
aI14
asg157
Nsg158
g440
sg159
(lp443
sg161
g60
sg162
Nsg163
Nsg164
Nsbag2
(g3
g4
Ntp444
Rp445
(dp446
g8
g11
sg142
Nsg143
(dp447
sg145
Nsg26
g29
sg146
(lp448
I2
aI15
asg148
Nsg149
VEcclesiastes 2:15
p449
sg151
(lp450
sg153
g104
sg154
Nsg155
(lp451
I2
aI15
asg157
Nsg158
g449
sg159
(lp452
sg161
g60
sg162
Nsg163
Nsg164
Nsbag2
(g3
g4
Ntp453
Rp454
(dp455
g8
g11
sg142
Nsg143
(dp456
sg145
Nsg26
g29
sg146
(lp457
I2
aI16
asg148
Nsg149
VEcclesiastes 2:16
p458
sg151
(lp459
sg153
g104
sg154
Nsg155
(lp460
I2
aI16
asg157
Nsg158
g458
sg159
(lp461
sg161
g60
sg162
Nsg163
Nsg164
Nsbag2
(g3
g4
Ntp462
Rp463
(dp464
g8
g11
sg142
Nsg143
(dp465
sg145
Nsg26
g29
sg146
(lp466
I2
aI17
asg148
Nsg149
VEcclesiastes 2:17
p467
sg151
(lp468
sg153
g104
sg154
Nsg155
(lp469
I2
aI17
asg157
Nsg158
g467
sg159
(lp470
sg161
g60
sg162
Nsg163
Nsg164
Nsbag2
(g3
g4
Ntp471
Rp472
(dp473
g8
g11
sg142
Nsg143
(dp474
sg145
Nsg26
g29
sg146
(lp475
I2
aI18
asg148
Nsg149
VEcclesiastes 2:18
p476
sg151
(lp477
sg153
g104
sg154
Nsg155
(lp478
I2
aI18
asg157
Nsg158
g476
sg159
(lp479
sg161
g60
sg162
Nsg163
Nsg164
Nsbag2
(g3
g4
Ntp480
Rp481
(dp482
g8
g11
sg142
Nsg143
(dp483
sg145
Nsg26
g29
sg146
(lp484
I2
aI19
asg148
Nsg149
VEcclesiastes 2:19
p485
sg151
(lp486
sg153
g104
sg154
Nsg155
(lp487
I2
aI19
asg157
Nsg158
g485
sg159
(lp488
sg161
g60
sg162
Nsg163
Nsg164
Nsbag2
(g3
g4
Ntp489
Rp490
(dp491
g8
g11
sg142
Nsg143
(dp492
sg145
Nsg26
g29
sg146
(lp493
I2
aI20
asg148
Nsg149
VEcclesiastes 2:20
p494
sg151
(lp495
sg153
g104
sg154
Nsg155
(lp496
I2
aI20
asg157
Nsg158
g494
sg159
(lp497
sg161
g60
sg162
Nsg163
Nsg164
Nsbag2
(g3
g4
Ntp498
Rp499
(dp500
g8
g11
sg142
Nsg143
(dp501
sg145
Nsg26
g29
sg146
(lp502
I2
aI21
asg148
Nsg149
VEcclesiastes 2:21
p503
sg151
(lp504
sg153
g104
sg154
Nsg155
(lp505
I2
aI21
asg157
Nsg158
g503
sg159
(lp506
sg161
g60
sg162
Nsg163
Nsg164
Nsbag2
(g3
g4
Ntp507
Rp508
(dp509
g8
g11
sg142
Nsg143
(dp510
sg145
Nsg26
g29
sg146
(lp511
I2
aI22
asg148
Nsg149
VEcclesiastes 2:22
p512
sg151
(lp513
sg153
g104
sg154
Nsg155
(lp514
I2
aI22
asg157
Nsg158
g512
sg159
(lp515
sg161
g60
sg162
Nsg163
Nsg164
Nsbag2
(g3
g4
Ntp516
Rp517
(dp518
g8
g11
sg142
Nsg143
(dp519
sg145
Nsg26
g29
sg146
(lp520
I2
aI23
asg148
Nsg149
VEcclesiastes 2:23
p521
sg151
(lp522
sg153
g104
sg154
Nsg155
(lp523
I2
aI23
asg157
Nsg158
g521
sg159
(lp524
sg161
g60
sg162
Nsg163
Nsg164
Nsbag2
(g3
g4
Ntp525
Rp526
(dp527
g8
g11
sg142
Nsg143
(dp528
sg145
Nsg26
g29
sg146
(lp529
I2
aI24
asg148
Nsg149
VEcclesiastes 2:24
p530
sg151
(lp531
sg153
g104
sg154
Nsg155
(lp532
I2
aI24
asg157
Nsg158
g530
sg159
(lp533
sg161
g60
sg162
Nsg163
Nsg164
Nsbag2
(g3
g4
Ntp534
Rp535
(dp536
g8
g11
sg142
Nsg143
(dp537
sg145
Nsg26
g29
sg146
(lp538
I2
aI25
asg148
Nsg149
VEcclesiastes 2:25
p539
sg151
(lp540
sg153
g104
sg154
Nsg155
(lp541
I2
aI25
asg157
Nsg158
g539
sg159
(lp542
sg161
g60
sg162
Nsg163
Nsg164
Nsbag2
(g3
g4
Ntp543
Rp544
(dp545
g8
g11
sg142
Nsg143
(dp546
sg145
Nsg26
g29
sg146
(lp547
I2
aI26
asg148
Nsg149
VEcclesiastes 2:26
p548
sg151
(lp549
sg153
g104
sg154
Nsg155
(lp550
I2
aI26
asg157
Nsg158
g548
sg159
(lp551
sg161
g60
sg162
Nsg163
Nsg164
Nsbag2
(g3
g4
Ntp552
Rp553
(dp554
g8
g11
sg142
Nsg143
(dp555
sg145
Nsg26
g29
sg146
(lp556
I3
aI1
asg148
Nsg149
VEcclesiastes 3:1
p557
sg151
(lp558
sg153
g104
sg154
Nsg155
(lp559
I3
aI1
asg157
Nsg158
g557
sg159
(lp560
sg161
g60
sg162
Nsg163
Nsg164
Nsbag2
(g3
g4
Ntp561
Rp562
(dp563
g8
g11
sg142
Nsg143
(dp564
sg145
Nsg26
g29
sg146
(lp565
I3
aI2
asg148
Nsg149
VEcclesiastes 3:2
p566
sg151
(lp567
sg153
g104
sg154
Nsg155
(lp568
I3
aI2
asg157
Nsg158
g566
sg159
(lp569
sg161
g60
sg162
Nsg163
Nsg164
Nsbag2
(g3
g4
Ntp570
Rp571
(dp572
g8
g11
sg142
Nsg143
(dp573
sg145
Nsg26
g29
sg146
(lp574
I3
aI3
asg148
Nsg149
VEcclesiastes 3:3
p575
sg151
(lp576
sg153
g104
sg154
Nsg155
(lp577
I3
aI3
asg157
Nsg158
g575
sg159
(lp578
sg161
g60
sg162
Nsg163
Nsg164
Nsbag2
(g3
g4
Ntp579
Rp580
(dp581
g8
g11
sg142
Nsg143
(dp582
sg145
Nsg26
g29
sg146
(lp583
I3
aI4
asg148
Nsg149
VEcclesiastes 3:4
p584
sg151
(lp585
sg153
g104
sg154
Nsg155
(lp586
I3
aI4
asg157
Nsg158
g584
sg159
(lp587
sg161
g60
sg162
Nsg163
Nsg164
Nsbag2
(g3
g4
Ntp588
Rp589
(dp590
g8
g11
sg142
Nsg143
(dp591
sg145
Nsg26
g29
sg146
(lp592
I3
aI5
asg148
Nsg149
VEcclesiastes 3:5
p593
sg151
(lp594
sg153
g104
sg154
Nsg155
(lp595
I3
aI5
asg157
Nsg158
g593
sg159
(lp596
sg161
g60
sg162
Nsg163
Nsg164
Nsbag2
(g3
g4
Ntp597
Rp598
(dp599
g8
g11
sg142
Nsg143
(dp600
sg145
Nsg26
g29
sg146
(lp601
I3
aI6
asg148
Nsg149
VEcclesiastes 3:6
p602
sg151
(lp603
sg153
g104
sg154
Nsg155
(lp604
I3
aI6
asg157
Nsg158
g602
sg159
(lp605
sg161
g60
sg162
Nsg163
Nsg164
Nsbag2
(g3
g4
Ntp606
Rp607
(dp608
g8
g11
sg142
Nsg143
(dp609
sg145
Nsg26
g29
sg146
(lp610
I3
aI7
asg148
Nsg149
VEcclesiastes 3:7
p611
sg151
(lp612
sg153
g104
sg154
Nsg155
(lp613
I3
aI7
asg157
Nsg158
g611
sg159
(lp614
sg161
g60
sg162
Nsg163
Nsg164
Nsbag2
(g3
g4
Ntp615
Rp616
(dp617
g8
g11
sg142
Nsg143
(dp618
sg145
Nsg26
g29
sg146
(lp619
I3
aI8
asg148
Nsg149
VEcclesiastes 3:8
p620
sg151
(lp621
sg153
g104
sg154
Nsg155
(lp622
I3
aI8
asg157
Nsg158
g620
sg159
(lp623
sg161
g60
sg162
Nsg163
Nsg164
Nsbag2
(g3
g4
Ntp624
Rp625
(dp626
g8
g11
sg142
Nsg143
(dp627
sg145
Nsg26
g29
sg146
(lp628
I3
aI9
asg148
Nsg149
VEcclesiastes 3:9
p629
sg151
(lp630
sg153
g104
sg154
Nsg155
(lp631
I3
aI9
asg157
Nsg158
g629
sg159
(lp632
sg161
g60
sg162
Nsg163
Nsg164
Nsbag2
(g3
g4
Ntp633
Rp634
(dp635
g8
g11
sg142
Nsg143
(dp636
sg145
Nsg26
g29
sg146
(lp637
I3
aI10
asg148
Nsg149
VEcclesiastes 3:10
p638
sg151
(lp639
sg153
g104
sg154
Nsg155
(lp640
I3
aI10
asg157
Nsg158
g638
sg159
(lp641
sg161
g60
sg162
Nsg163
Nsg164
Nsbag2
(g3
g4
Ntp642
Rp643
(dp644
g8
g11
sg142
Nsg143
(dp645
sg145
Nsg26
g29
sg146
(lp646
I3
aI11
asg148
Nsg149
VEcclesiastes 3:11
p647
sg151
(lp648
sg153
g104
sg154
Nsg155
(lp649
I3
aI11
asg157
Nsg158
g647
sg159
(lp650
sg161
g60
sg162
Nsg163
Nsg164
Nsbag2
(g3
g4
Ntp651
Rp652
(dp653
g8
g11
sg142
Nsg143
(dp654
sg145
Nsg26
g29
sg146
(lp655
I3
aI12
asg148
Nsg149
VEcclesiastes 3:12
p656
sg151
(lp657
sg153
g104
sg154
Nsg155
(lp658
I3
aI12
asg157
Nsg158
g656
sg159
(lp659
sg161
g60
sg162
Nsg163
Nsg164
Nsbag2
(g3
g4
Ntp660
Rp661
(dp662
g8
g11
sg142
Nsg143
(dp663
sg145
Nsg26
g29
sg146
(lp664
I3
aI13
asg148
Nsg149
VEcclesiastes 3:13
p665
sg151
(lp666
sg153
g104
sg154
Nsg155
(lp667
I3
aI13
asg157
Nsg158
g665
sg159
(lp668
sg161
g60
sg162
Nsg163
Nsg164
Nsbag2
(g3
g4
Ntp669
Rp670
(dp671
g8
g11
sg142
Nsg143
(dp672
sg145
Nsg26
g29
sg146
(lp673
I3
aI14
asg148
Nsg149
VEcclesiastes 3:14
p674
sg151
(lp675
sg153
g104
sg154
Nsg155
(lp676
I3
aI14
asg157
Nsg158
g674
sg159
(lp677
sg161
g60
sg162
Nsg163
Nsg164
Nsbag2
(g3
g4
Ntp678
Rp679
(dp680
g8
g11
sg142
Nsg143
(dp681
sg145
Nsg26
g29
sg146
(lp682
I3
aI15
asg148
Nsg149
VEcclesiastes 3:15
p683
sg151
(lp684
sg153
g104
sg154
Nsg155
(lp685
I3
aI15
asg157
Nsg158
g683
sg159
(lp686
sg161
g60
sg162
Nsg163
Nsg164
Nsbag2
(g3
g4
Ntp687
Rp688
(dp689
g8
g11
sg142
Nsg143
(dp690
sg145
Nsg26
g29
sg146
(lp691
I3
aI16
asg148
Nsg149
VEcclesiastes 3:16
p692
sg151
(lp693
sg153
g104
sg154
Nsg155
(lp694
I3
aI16
asg157
Nsg158
g692
sg159
(lp695
sg161
g60
sg162
Nsg163
Nsg164
Nsbag2
(g3
g4
Ntp696
Rp697
(dp698
g8
g11
sg142
Nsg143
(dp699
sg145
Nsg26
g29
sg146
(lp700
I3
aI17
asg148
Nsg149
VEcclesiastes 3:17
p701
sg151
(lp702
sg153
g104
sg154
Nsg155
(lp703
I3
aI17
asg157
Nsg158
g701
sg159
(lp704
sg161
g60
sg162
Nsg163
Nsg164
Nsbag2
(g3
g4
Ntp705
Rp706
(dp707
g8
g11
sg142
Nsg143
(dp708
sg145
Nsg26
g29
sg146
(lp709
I3
aI18
asg148
Nsg149
VEcclesiastes 3:18
p710
sg151
(lp711
sg153
g104
sg154
Nsg155
(lp712
I3
aI18
asg157
Nsg158
g710
sg159
(lp713
sg161
g60
sg162
Nsg163
Nsg164
Nsbag2
(g3
g4
Ntp714
Rp715
(dp716
g8
g11
sg142
Nsg143
(dp717
sg145
Nsg26
g29
sg146
(lp718
I3
aI19
asg148
Nsg149
VEcclesiastes 3:19
p719
sg151
(lp720
sg153
g104
sg154
Nsg155
(lp721
I3
aI19
asg157
Nsg158
g719
sg159
(lp722
sg161
g60
sg162
Nsg163
Nsg164
Nsbag2
(g3
g4
Ntp723
Rp724
(dp725
g8
g11
sg142
Nsg143
(dp726
sg145
Nsg26
g29
sg146
(lp727
I3
aI20
asg148
Nsg149
VEcclesiastes 3:20
p728
sg151
(lp729
sg153
g104
sg154
Nsg155
(lp730
I3
aI20
asg157
Nsg158
g728
sg159
(lp731
sg161
g60
sg162
Nsg163
Nsg164
Nsbag2
(g3
g4
Ntp732
Rp733
(dp734
g8
g11
sg142
Nsg143
(dp735
sg145
Nsg26
g29
sg146
(lp736
I3
aI21
asg148
Nsg149
VEcclesiastes 3:21
p737
sg151
(lp738
sg153
g104
sg154
Nsg155
(lp739
I3
aI21
asg157
Nsg158
g737
sg159
(lp740
sg161
g60
sg162
Nsg163
Nsg164
Nsbag2
(g3
g4
Ntp741
Rp742
(dp743
g8
g11
sg142
Nsg143
(dp744
sg145
Nsg26
g29
sg146
(lp745
I3
aI22
asg148
Nsg149
VEcclesiastes 3:22
p746
sg151
(lp747
sg153
g104
sg154
Nsg155
(lp748
I3
aI22
asg157
Nsg158
g746
sg159
(lp749
sg161
g60
sg162
Nsg163
Nsg164
Nsbag2
(g3
g4
Ntp750
Rp751
(dp752
g8
g11
sg142
Nsg143
(dp753
sg145
Nsg26
g29
sg146
(lp754
I4
aI1
asg148
Nsg149
VEcclesiastes 4:1
p755
sg151
(lp756
sg153
g104
sg154
Nsg155
(lp757
I4
aI1
asg157
Nsg158
g755
sg159
(lp758
sg161
g60
sg162
Nsg163
Nsg164
Nsbag2
(g3
g4
Ntp759
Rp760
(dp761
g8
g11
sg142
Nsg143
(dp762
sg145
Nsg26
g29
sg146
(lp763
I4
aI2
asg148
Nsg149
VEcclesiastes 4:2
p764
sg151
(lp765
sg153
g104
sg154
Nsg155
(lp766
I4
aI2
asg157
Nsg158
g764
sg159
(lp767
sg161
g60
sg162
Nsg163
Nsg164
Nsbag2
(g3
g4
Ntp768
Rp769
(dp770
g8
g11
sg142
Nsg143
(dp771
sg145
Nsg26
g29
sg146
(lp772
I4
aI3
asg148
Nsg149
VEcclesiastes 4:3
p773
sg151
(lp774
sg153
g104
sg154
Nsg155
(lp775
I4
aI3
asg157
Nsg158
g773
sg159
(lp776
sg161
g60
sg162
Nsg163
Nsg164
Nsbag2
(g3
g4
Ntp777
Rp778
(dp779
g8
g11
sg142
Nsg143
(dp780
sg145
Nsg26
g29
sg146
(lp781
I4
aI4
asg148
Nsg149
VEcclesiastes 4:4
p782
sg151
(lp783
sg153
g104
sg154
Nsg155
(lp784
I4
aI4
asg157
Nsg158
g782
sg159
(lp785
sg161
g60
sg162
Nsg163
Nsg164
Nsbag2
(g3
g4
Ntp786
Rp787
(dp788
g8
g11
sg142
Nsg143
(dp789
sg145
Nsg26
g29
sg146
(lp790
I4
aI5
asg148
Nsg149
VEcclesiastes 4:5
p791
sg151
(lp792
sg153
g104
sg154
Nsg155
(lp793
I4
aI5
asg157
Nsg158
g791
sg159
(lp794
sg161
g60
sg162
Nsg163
Nsg164
Nsbag2
(g3
g4
Ntp795
Rp796
(dp797
g8
g11
sg142
Nsg143
(dp798
sg145
Nsg26
g29
sg146
(lp799
I4
aI6
asg148
Nsg149
VEcclesiastes 4:6
p800
sg151
(lp801
sg153
g104
sg154
Nsg155
(lp802
I4
aI6
asg157
Nsg158
g800
sg159
(lp803
sg161
g60
sg162
Nsg163
Nsg164
Nsbag2
(g3
g4
Ntp804
Rp805
(dp806
g8
g11
sg142
Nsg143
(dp807
sg145
Nsg26
g29
sg146
(lp808
I4
aI7
asg148
Nsg149
VEcclesiastes 4:7
p809
sg151
(lp810
sg153
g104
sg154
Nsg155
(lp811
I4
aI7
asg157
Nsg158
g809
sg159
(lp812
sg161
g60
sg162
Nsg163
Nsg164
Nsbag2
(g3
g4
Ntp813
Rp814
(dp815
g8
g11
sg142
Nsg143
(dp816
sg145
Nsg26
g29
sg146
(lp817
I4
aI8
asg148
Nsg149
VEcclesiastes 4:8
p818
sg151
(lp819
sg153
g104
sg154
Nsg155
(lp820
I4
aI8
asg157
Nsg158
g818
sg159
(lp821
sg161
g60
sg162
Nsg163
Nsg164
Nsbag2
(g3
g4
Ntp822
Rp823
(dp824
g8
g11
sg142
Nsg143
(dp825
sg145
Nsg26
g29
sg146
(lp826
I4
aI9
asg148
Nsg149
VEcclesiastes 4:9
p827
sg151
(lp828
sg153
g104
sg154
Nsg155
(lp829
I4
aI9
asg157
Nsg158
g827
sg159
(lp830
sg161
g60
sg162
Nsg163
Nsg164
Nsbag2
(g3
g4
Ntp831
Rp832
(dp833
g8
g11
sg142
Nsg143
(dp834
sg145
Nsg26
g29
sg146
(lp835
I4
aI10
asg148
Nsg149
VEcclesiastes 4:10
p836
sg151
(lp837
sg153
g104
sg154
Nsg155
(lp838
I4
aI10
asg157
Nsg158
g836
sg159
(lp839
sg161
g60
sg162
Nsg163
Nsg164
Nsbag2
(g3
g4
Ntp840
Rp841
(dp842
g8
g11
sg142
Nsg143
(dp843
sg145
Nsg26
g29
sg146
(lp844
I4
aI11
asg148
Nsg149
VEcclesiastes 4:11
p845
sg151
(lp846
sg153
g104
sg154
Nsg155
(lp847
I4
aI11
asg157
Nsg158
g845
sg159
(lp848
sg161
g60
sg162
Nsg163
Nsg164
Nsbag2
(g3
g4
Ntp849
Rp850
(dp851
g8
g11
sg142
Nsg143
(dp852
sg145
Nsg26
g29
sg146
(lp853
I4
aI12
asg148
Nsg149
VEcclesiastes 4:12
p854
sg151
(lp855
sg153
g104
sg154
Nsg155
(lp856
I4
aI12
asg157
Nsg158
g854
sg159
(lp857
sg161
g60
sg162
Nsg163
Nsg164
Nsbag2
(g3
g4
Ntp858
Rp859
(dp860
g8
g11
sg142
Nsg143
(dp861
sg145
Nsg26
g29
sg146
(lp862
I4
aI13
asg148
Nsg149
VEcclesiastes 4:13
p863
sg151
(lp864
sg153
g104
sg154
Nsg155
(lp865
I4
aI13
asg157
Nsg158
g863
sg159
(lp866
sg161
g60
sg162
Nsg163
Nsg164
Nsbag2
(g3
g4
Ntp867
Rp868
(dp869
g8
g11
sg142
Nsg143
(dp870
sg145
Nsg26
g29
sg146
(lp871
I4
aI14
asg148
Nsg149
VEcclesiastes 4:14
p872
sg151
(lp873
sg153
g104
sg154
Nsg155
(lp874
I4
aI14
asg157
Nsg158
g872
sg159
(lp875
sg161
g60
sg162
Nsg163
Nsg164
Nsbag2
(g3
g4
Ntp876
Rp877
(dp878
g8
g11
sg142
Nsg143
(dp879
sg145
Nsg26
g29
sg146
(lp880
I4
aI15
asg148
Nsg149
VEcclesiastes 4:15
p881
sg151
(lp882
sg153
g104
sg154
Nsg155
(lp883
I4
aI15
asg157
Nsg158
g881
sg159
(lp884
sg161
g60
sg162
Nsg163
Nsg164
Nsbag2
(g3
g4
Ntp885
Rp886
(dp887
g8
g11
sg142
Nsg143
(dp888
sg145
Nsg26
g29
sg146
(lp889
I4
aI16
asg148
Nsg149
VEcclesiastes 4:16
p890
sg151
(lp891
sg153
g104
sg154
Nsg155
(lp892
I4
aI16
asg157
Nsg158
g890
sg159
(lp893
sg161
g60
sg162
Nsg163
Nsg164
Nsbag2
(g3
g4
Ntp894
Rp895
(dp896
g8
g11
sg142
Nsg143
(dp897
sg145
Nsg26
g29
sg146
(lp898
I4
aI17
asg148
Nsg149
VEcclesiastes 4:17
p899
sg151
(lp900
sg153
g104
sg154
Nsg155
(lp901
I4
aI17
asg157
Nsg158
g899
sg159
(lp902
sg161
g60
sg162
Nsg163
Nsg164
Nsbag2
(g3
g4
Ntp903
Rp904
(dp905
g8
g11
sg142
Nsg143
(dp906
sg145
Nsg26
g29
sg146
(lp907
I5
aI1
asg148
Nsg149
VEcclesiastes 5:1
p908
sg151
(lp909
sg153
g104
sg154
Nsg155
(lp910
I5
aI1
asg157
Nsg158
g908
sg159
(lp911
sg161
g60
sg162
Nsg163
Nsg164
Nsbag2
(g3
g4
Ntp912
Rp913
(dp914
g8
g11
sg142
Nsg143
(dp915
sg145
Nsg26
g29
sg146
(lp916
I5
aI2
asg148
Nsg149
VEcclesiastes 5:2
p917
sg151
(lp918
sg153
g104
sg154
Nsg155
(lp919
I5
aI2
asg157
Nsg158
g917
sg159
(lp920
sg161
g60
sg162
Nsg163
Nsg164
Nsbag2
(g3
g4
Ntp921
Rp922
(dp923
g8
g11
sg142
Nsg143
(dp924
sg145
Nsg26
g29
sg146
(lp925
I5
aI3
asg148
Nsg149
VEcclesiastes 5:3
p926
sg151
(lp927
sg153
g104
sg154
Nsg155
(lp928
I5
aI3
asg157
Nsg158
g926
sg159
(lp929
sg161
g60
sg162
Nsg163
Nsg164
Nsbag2
(g3
g4
Ntp930
Rp931
(dp932
g8
g11
sg142
Nsg143
(dp933
sg145
Nsg26
g29
sg146
(lp934
I5
aI4
asg148
Nsg149
VEcclesiastes 5:4
p935
sg151
(lp936
sg153
g104
sg154
Nsg155
(lp937
I5
aI4
asg157
Nsg158
g935
sg159
(lp938
sg161
g60
sg162
Nsg163
Nsg164
Nsbag2
(g3
g4
Ntp939
Rp940
(dp941
g8
g11
sg142
Nsg143
(dp942
sg145
Nsg26
g29
sg146
(lp943
I5
aI5
asg148
Nsg149
VEcclesiastes 5:5
p944
sg151
(lp945
sg153
g104
sg154
Nsg155
(lp946
I5
aI5
asg157
Nsg158
g944
sg159
(lp947
sg161
g60
sg162
Nsg163
Nsg164
Nsbag2
(g3
g4
Ntp948
Rp949
(dp950
g8
g11
sg142
Nsg143
(dp951
sg145
Nsg26
g29
sg146
(lp952
I5
aI6
asg148
Nsg149
VEcclesiastes 5:6
p953
sg151
(lp954
sg153
g104
sg154
Nsg155
(lp955
I5
aI6
asg157
Nsg158
g953
sg159
(lp956
sg161
g60
sg162
Nsg163
Nsg164
Nsbag2
(g3
g4
Ntp957
Rp958
(dp959
g8
g11
sg142
Nsg143
(dp960
sg145
Nsg26
g29
sg146
(lp961
I5
aI7
asg148
Nsg149
VEcclesiastes 5:7
p962
sg151
(lp963
sg153
g104
sg154
Nsg155
(lp964
I5
aI7
asg157
Nsg158
g962
sg159
(lp965
sg161
g60
sg162
Nsg163
Nsg164
Nsbag2
(g3
g4
Ntp966
Rp967
(dp968
g8
g11
sg142
Nsg143
(dp969
sg145
Nsg26
g29
sg146
(lp970
I5
aI8
asg148
Nsg149
VEcclesiastes 5:8
p971
sg151
(lp972
sg153
g104
sg154
Nsg155
(lp973
I5
aI8
asg157
Nsg158
g971
sg159
(lp974
sg161
g60
sg162
Nsg163
Nsg164
Nsbag2
(g3
g4
Ntp975
Rp976
(dp977
g8
g11
sg142
Nsg143
(dp978
sg145
Nsg26
g29
sg146
(lp979
I5
aI9
asg148
Nsg149
VEcclesiastes 5:9
p980
sg151
(lp981
sg153
g104
sg154
Nsg155
(lp982
I5
aI9
asg157
Nsg158
g980
sg159
(lp983
sg161
g60
sg162
Nsg163
Nsg164
Nsbag2
(g3
g4
Ntp984
Rp985
(dp986
g8
g11
sg142
Nsg143
(dp987
sg145
Nsg26
g29
sg146
(lp988
I5
aI10
asg148
Nsg149
VEcclesiastes 5:10
p989
sg151
(lp990
sg153
g104
sg154
Nsg155
(lp991
I5
aI10
asg157
Nsg158
g989
sg159
(lp992
sg161
g60
sg162
Nsg163
Nsg164
Nsbag2
(g3
g4
Ntp993
Rp994
(dp995
g8
g11
sg142
Nsg143
(dp996
sg145
Nsg26
g29
sg146
(lp997
I5
aI11
asg148
Nsg149
VEcclesiastes 5:11
p998
sg151
(lp999
sg153
g104
sg154
Nsg155
(lp1000
I5
aI11
asg157
Nsg158
g998
sg159
(lp1001
sg161
g60
sg162
Nsg163
Nsg164
Nsbag2
(g3
g4
Ntp1002
Rp1003
(dp1004
g8
g11
sg142
Nsg143
(dp1005
sg145
Nsg26
g29
sg146
(lp1006
I5
aI12
asg148
Nsg149
VEcclesiastes 5:12
p1007
sg151
(lp1008
sg153
g104
sg154
Nsg155
(lp1009
I5
aI12
asg157
Nsg158
g1007
sg159
(lp1010
sg161
g60
sg162
Nsg163
Nsg164
Nsbag2
(g3
g4
Ntp1011
Rp1012
(dp1013
g8
g11
sg142
Nsg143
(dp1014
sg145
Nsg26
g29
sg146
(lp1015
I5
aI13
asg148
Nsg149
VEcclesiastes 5:13
p1016
sg151
(lp1017
sg153
g104
sg154
Nsg155
(lp1018
I5
aI13
asg157
Nsg158
g1016
sg159
(lp1019
sg161
g60
sg162
Nsg163
Nsg164
Nsbag2
(g3
g4
Ntp1020
Rp1021
(dp1022
g8
g11
sg142
Nsg143
(dp1023
sg145
Nsg26
g29
sg146
(lp1024
I5
aI14
asg148
Nsg149
VEcclesiastes 5:14
p1025
sg151
(lp1026
sg153
g104
sg154
Nsg155
(lp1027
I5
aI14
asg157
Nsg158
g1025
sg159
(lp1028
sg161
g60
sg162
Nsg163
Nsg164
Nsbag2
(g3
g4
Ntp1029
Rp1030
(dp1031
g8
g11
sg142
Nsg143
(dp1032
sg145
Nsg26
g29
sg146
(lp1033
I5
aI15
asg148
Nsg149
VEcclesiastes 5:15
p1034
sg151
(lp1035
sg153
g104
sg154
Nsg155
(lp1036
I5
aI15
asg157
Nsg158
g1034
sg159
(lp1037
sg161
g60
sg162
Nsg163
Nsg164
Nsbag2
(g3
g4
Ntp1038
Rp1039
(dp1040
g8
g11
sg142
Nsg143
(dp1041
sg145
Nsg26
g29
sg146
(lp1042
I5
aI16
asg148
Nsg149
VEcclesiastes 5:16
p1043
sg151
(lp1044
sg153
g104
sg154
Nsg155
(lp1045
I5
aI16
asg157
Nsg158
g1043
sg159
(lp1046
sg161
g60
sg162
Nsg163
Nsg164
Nsbag2
(g3
g4
Ntp1047
Rp1048
(dp1049
g8
g11
sg142
Nsg143
(dp1050
sg145
Nsg26
g29
sg146
(lp1051
I5
aI17
asg148
Nsg149
VEcclesiastes 5:17
p1052
sg151
(lp1053
sg153
g104
sg154
Nsg155
(lp1054
I5
aI17
asg157
Nsg158
g1052
sg159
(lp1055
sg161
g60
sg162
Nsg163
Nsg164
Nsbag2
(g3
g4
Ntp1056
Rp1057
(dp1058
g8
g11
sg142
Nsg143
(dp1059
sg145
Nsg26
g29
sg146
(lp1060
I5
aI18
asg148
Nsg149
VEcclesiastes 5:18
p1061
sg151
(lp1062
sg153
g104
sg154
Nsg155
(lp1063
I5
aI18
asg157
Nsg158
g1061
sg159
(lp1064
sg161
g60
sg162
Nsg163
Nsg164
Nsbag2
(g3
g4
Ntp1065
Rp1066
(dp1067
g8
g11
sg142
Nsg143
(dp1068
sg145
Nsg26
g29
sg146
(lp1069
I5
aI19
asg148
Nsg149
VEcclesiastes 5:19
p1070
sg151
(lp1071
sg153
g104
sg154
Nsg155
(lp1072
I5
aI19
asg157
Nsg158
g1070
sg159
(lp1073
sg161
g60
sg162
Nsg163
Nsg164
Nsbag2
(g3
g4
Ntp1074
Rp1075
(dp1076
g8
g11
sg142
Nsg143
(dp1077
sg145
Nsg26
g29
sg146
(lp1078
I6
aI1
asg148
Nsg149
VEcclesiastes 6:1
p1079
sg151
(lp1080
sg153
g104
sg154
Nsg155
(lp1081
I6
aI1
asg157
Nsg158
g1079
sg159
(lp1082
sg161
g60
sg162
Nsg163
Nsg164
Nsbag2
(g3
g4
Ntp1083
Rp1084
(dp1085
g8
g11
sg142
Nsg143
(dp1086
sg145
Nsg26
g29
sg146
(lp1087
I6
aI2
asg148
Nsg149
VEcclesiastes 6:2
p1088
sg151
(lp1089
sg153
g104
sg154
Nsg155
(lp1090
I6
aI2
asg157
Nsg158
g1088
sg159
(lp1091
sg161
g60
sg162
Nsg163
Nsg164
Nsbag2
(g3
g4
Ntp1092
Rp1093
(dp1094
g8
g11
sg142
Nsg143
(dp1095
sg145
Nsg26
g29
sg146
(lp1096
I6
aI3
asg148
Nsg149
VEcclesiastes 6:3
p1097
sg151
(lp1098
sg153
g104
sg154
Nsg155
(lp1099
I6
aI3
asg157
Nsg158
g1097
sg159
(lp1100
sg161
g60
sg162
Nsg163
Nsg164
Nsbag2
(g3
g4
Ntp1101
Rp1102
(dp1103
g8
g11
sg142
Nsg143
(dp1104
sg145
Nsg26
g29
sg146
(lp1105
I6
aI4
asg148
Nsg149
VEcclesiastes 6:4
p1106
sg151
(lp1107
sg153
g104
sg154
Nsg155
(lp1108
I6
aI4
asg157
Nsg158
g1106
sg159
(lp1109
sg161
g60
sg162
Nsg163
Nsg164
Nsbag2
(g3
g4
Ntp1110
Rp1111
(dp1112
g8
g11
sg142
Nsg143
(dp1113
sg145
Nsg26
g29
sg146
(lp1114
I6
aI5
asg148
Nsg149
VEcclesiastes 6:5
p1115
sg151
(lp1116
sg153
g104
sg154
Nsg155
(lp1117
I6
aI5
asg157
Nsg158
g1115
sg159
(lp1118
sg161
g60
sg162
Nsg163
Nsg164
Nsbag2
(g3
g4
Ntp1119
Rp1120
(dp1121
g8
g11
sg142
Nsg143
(dp1122
sg145
Nsg26
g29
sg146
(lp1123
I6
aI6
asg148
Nsg149
VEcclesiastes 6:6
p1124
sg151
(lp1125
sg153
g104
sg154
Nsg155
(lp1126
I6
aI6
asg157
Nsg158
g1124
sg159
(lp1127
sg161
g60
sg162
Nsg163
Nsg164
Nsbag2
(g3
g4
Ntp1128
Rp1129
(dp1130
g8
g11
sg142
Nsg143
(dp1131
sg145
Nsg26
g29
sg146
(lp1132
I6
aI7
asg148
Nsg149
VEcclesiastes 6:7
p1133
sg151
(lp1134
sg153
g104
sg154
Nsg155
(lp1135
I6
aI7
asg157
Nsg158
g1133
sg159
(lp1136
sg161
g60
sg162
Nsg163
Nsg164
Nsbag2
(g3
g4
Ntp1137
Rp1138
(dp1139
g8
g11
sg142
Nsg143
(dp1140
sg145
Nsg26
g29
sg146
(lp1141
I6
aI8
asg148
Nsg149
VEcclesiastes 6:8
p1142
sg151
(lp1143
sg153
g104
sg154
Nsg155
(lp1144
I6
aI8
asg157
Nsg158
g1142
sg159
(lp1145
sg161
g60
sg162
Nsg163
Nsg164
Nsbag2
(g3
g4
Ntp1146
Rp1147
(dp1148
g8
g11
sg142
Nsg143
(dp1149
sg145
Nsg26
g29
sg146
(lp1150
I6
aI9
asg148
Nsg149
VEcclesiastes 6:9
p1151
sg151
(lp1152
sg153
g104
sg154
Nsg155
(lp1153
I6
aI9
asg157
Nsg158
g1151
sg159
(lp1154
sg161
g60
sg162
Nsg163
Nsg164
Nsbag2
(g3
g4
Ntp1155
Rp1156
(dp1157
g8
g11
sg142
Nsg143
(dp1158
sg145
Nsg26
g29
sg146
(lp1159
I6
aI10
asg148
Nsg149
VEcclesiastes 6:10
p1160
sg151
(lp1161
sg153
g104
sg154
Nsg155
(lp1162
I6
aI10
asg157
Nsg158
g1160
sg159
(lp1163
sg161
g60
sg162
Nsg163
Nsg164
Nsbag2
(g3
g4
Ntp1164
Rp1165
(dp1166
g8
g11
sg142
Nsg143
(dp1167
sg145
Nsg26
g29
sg146
(lp1168
I6
aI11
asg148
Nsg149
VEcclesiastes 6:11
p1169
sg151
(lp1170
sg153
g104
sg154
Nsg155
(lp1171
I6
aI11
asg157
Nsg158
g1169
sg159
(lp1172
sg161
g60
sg162
Nsg163
Nsg164
Nsbag2
(g3
g4
Ntp1173
Rp1174
(dp1175
g8
g11
sg142
Nsg143
(dp1176
sg145
Nsg26
g29
sg146
(lp1177
I6
aI12
asg148
Nsg149
VEcclesiastes 6:12
p1178
sg151
(lp1179
sg153
g104
sg154
Nsg155
(lp1180
I6
aI12
asg157
Nsg158
g1178
sg159
(lp1181
sg161
g60
sg162
Nsg163
Nsg164
Nsbag2
(g3
g4
Ntp1182
Rp1183
(dp1184
g8
g11
sg142
Nsg143
(dp1185
sg145
Nsg26
g29
sg146
(lp1186
I7
aI1
asg148
Nsg149
VEcclesiastes 7:1
p1187
sg151
(lp1188
sg153
g104
sg154
Nsg155
(lp1189
I7
aI1
asg157
Nsg158
g1187
sg159
(lp1190
sg161
g60
sg162
Nsg163
Nsg164
Nsbag2
(g3
g4
Ntp1191
Rp1192
(dp1193
g8
g11
sg142
Nsg143
(dp1194
sg145
Nsg26
g29
sg146
(lp1195
I7
aI2
asg148
Nsg149
VEcclesiastes 7:2
p1196
sg151
(lp1197
sg153
g104
sg154
Nsg155
(lp1198
I7
aI2
asg157
Nsg158
g1196
sg159
(lp1199
sg161
g60
sg162
Nsg163
Nsg164
Nsbag2
(g3
g4
Ntp1200
Rp1201
(dp1202
g8
g11
sg142
Nsg143
(dp1203
sg145
Nsg26
g29
sg146
(lp1204
I7
aI3
asg148
Nsg149
VEcclesiastes 7:3
p1205
sg151
(lp1206
sg153
g104
sg154
Nsg155
(lp1207
I7
aI3
asg157
Nsg158
g1205
sg159
(lp1208
sg161
g60
sg162
Nsg163
Nsg164
Nsbag2
(g3
g4
Ntp1209
Rp1210
(dp1211
g8
g11
sg142
Nsg143
(dp1212
sg145
Nsg26
g29
sg146
(lp1213
I7
aI4
asg148
Nsg149
VEcclesiastes 7:4
p1214
sg151
(lp1215
sg153
g104
sg154
Nsg155
(lp1216
I7
aI4
asg157
Nsg158
g1214
sg159
(lp1217
sg161
g60
sg162
Nsg163
Nsg164
Nsbag2
(g3
g4
Ntp1218
Rp1219
(dp1220
g8
g11
sg142
Nsg143
(dp1221
sg145
Nsg26
g29
sg146
(lp1222
I7
aI5
asg148
Nsg149
VEcclesiastes 7:5
p1223
sg151
(lp1224
sg153
g104
sg154
Nsg155
(lp1225
I7
aI5
asg157
Nsg158
g1223
sg159
(lp1226
sg161
g60
sg162
Nsg163
Nsg164
Nsbag2
(g3
g4
Ntp1227
Rp1228
(dp1229
g8
g11
sg142
Nsg143
(dp1230
sg145
Nsg26
g29
sg146
(lp1231
I7
aI6
asg148
Nsg149
VEcclesiastes 7:6
p1232
sg151
(lp1233
sg153
g104
sg154
Nsg155
(lp1234
I7
aI6
asg157
Nsg158
g1232
sg159
(lp1235
sg161
g60
sg162
Nsg163
Nsg164
Nsbag2
(g3
g4
Ntp1236
Rp1237
(dp1238
g8
g11
sg142
Nsg143
(dp1239
sg145
Nsg26
g29
sg146
(lp1240
I7
aI7
asg148
Nsg149
VEcclesiastes 7:7
p1241
sg151
(lp1242
sg153
g104
sg154
Nsg155
(lp1243
I7
aI7
asg157
Nsg158
g1241
sg159
(lp1244
sg161
g60
sg162
Nsg163
Nsg164
Nsbag2
(g3
g4
Ntp1245
Rp1246
(dp1247
g8
g11
sg142
Nsg143
(dp1248
sg145
Nsg26
g29
sg146
(lp1249
I7
aI8
asg148
Nsg149
VEcclesiastes 7:8
p1250
sg151
(lp1251
sg153
g104
sg154
Nsg155
(lp1252
I7
aI8
asg157
Nsg158
g1250
sg159
(lp1253
sg161
g60
sg162
Nsg163
Nsg164
Nsbag2
(g3
g4
Ntp1254
Rp1255
(dp1256
g8
g11
sg142
Nsg143
(dp1257
sg145
Nsg26
g29
sg146
(lp1258
I7
aI9
asg148
Nsg149
VEcclesiastes 7:9
p1259
sg151
(lp1260
sg153
g104
sg154
Nsg155
(lp1261
I7
aI9
asg157
Nsg158
g1259
sg159
(lp1262
sg161
g60
sg162
Nsg163
Nsg164
Nsbag2
(g3
g4
Ntp1263
Rp1264
(dp1265
g8
g11
sg142
Nsg143
(dp1266
sg145
Nsg26
g29
sg146
(lp1267
I7
aI10
asg148
Nsg149
VEcclesiastes 7:10
p1268
sg151
(lp1269
sg153
g104
sg154
Nsg155
(lp1270
I7
aI10
asg157
Nsg158
g1268
sg159
(lp1271
sg161
g60
sg162
Nsg163
Nsg164
Nsbag2
(g3
g4
Ntp1272
Rp1273
(dp1274
g8
g11
sg142
Nsg143
(dp1275
sg145
Nsg26
g29
sg146
(lp1276
I7
aI11
asg148
Nsg149
VEcclesiastes 7:11
p1277
sg151
(lp1278
sg153
g104
sg154
Nsg155
(lp1279
I7
aI11
asg157
Nsg158
g1277
sg159
(lp1280
sg161
g60
sg162
Nsg163
Nsg164
Nsbag2
(g3
g4
Ntp1281
Rp1282
(dp1283
g8
g11
sg142
Nsg143
(dp1284
sg145
Nsg26
g29
sg146
(lp1285
I7
aI12
asg148
Nsg149
VEcclesiastes 7:12
p1286
sg151
(lp1287
sg153
g104
sg154
Nsg155
(lp1288
I7
aI12
asg157
Nsg158
g1286
sg159
(lp1289
sg161
g60
sg162
Nsg163
Nsg164
Nsbag2
(g3
g4
Ntp1290
Rp1291
(dp1292
g8
g11
sg142
Nsg143
(dp1293
sg145
Nsg26
g29
sg146
(lp1294
I7
aI13
asg148
Nsg149
VEcclesiastes 7:13
p1295
sg151
(lp1296
sg153
g104
sg154
Nsg155
(lp1297
I7
aI13
asg157
Nsg158
g1295
sg159
(lp1298
sg161
g60
sg162
Nsg163
Nsg164
Nsbag2
(g3
g4
Ntp1299
Rp1300
(dp1301
g8
g11
sg142
Nsg143
(dp1302
sg145
Nsg26
g29
sg146
(lp1303
I7
aI14
asg148
Nsg149
VEcclesiastes 7:14
p1304
sg151
(lp1305
sg153
g104
sg154
Nsg155
(lp1306
I7
aI14
asg157
Nsg158
g1304
sg159
(lp1307
sg161
g60
sg162
Nsg163
Nsg164
Nsbag2
(g3
g4
Ntp1308
Rp1309
(dp1310
g8
g11
sg142
Nsg143
(dp1311
sg145
Nsg26
g29
sg146
(lp1312
I7
aI15
asg148
Nsg149
VEcclesiastes 7:15
p1313
sg151
(lp1314
sg153
g104
sg154
Nsg155
(lp1315
I7
aI15
asg157
Nsg158
g1313
sg159
(lp1316
sg161
g60
sg162
Nsg163
Nsg164
Nsbag2
(g3
g4
Ntp1317
Rp1318
(dp1319
g8
g11
sg142
Nsg143
(dp1320
sg145
Nsg26
g29
sg146
(lp1321
I7
aI16
asg148
Nsg149
VEcclesiastes 7:16
p1322
sg151
(lp1323
sg153
g104
sg154
Nsg155
(lp1324
I7
aI16
asg157
Nsg158
g1322
sg159
(lp1325
sg161
g60
sg162
Nsg163
Nsg164
Nsbag2
(g3
g4
Ntp1326
Rp1327
(dp1328
g8
g11
sg142
Nsg143
(dp1329
sg145
Nsg26
g29
sg146
(lp1330
I7
aI17
asg148
Nsg149
VEcclesiastes 7:17
p1331
sg151
(lp1332
sg153
g104
sg154
Nsg155
(lp1333
I7
aI17
asg157
Nsg158
g1331
sg159
(lp1334
sg161
g60
sg162
Nsg163
Nsg164
Nsbag2
(g3
g4
Ntp1335
Rp1336
(dp1337
g8
g11
sg142
Nsg143
(dp1338
sg145
Nsg26
g29
sg146
(lp1339
I7
aI18
asg148
Nsg149
VEcclesiastes 7:18
p1340
sg151
(lp1341
sg153
g104
sg154
Nsg155
(lp1342
I7
aI18
asg157
Nsg158
g1340
sg159
(lp1343
sg161
g60
sg162
Nsg163
Nsg164
Nsbag2
(g3
g4
Ntp1344
Rp1345
(dp1346
g8
g11
sg142
Nsg143
(dp1347
sg145
Nsg26
g29
sg146
(lp1348
I7
aI19
asg148
Nsg149
VEcclesiastes 7:19
p1349
sg151
(lp1350
sg153
g104
sg154
Nsg155
(lp1351
I7
aI19
asg157
Nsg158
g1349
sg159
(lp1352
sg161
g60
sg162
Nsg163
Nsg164
Nsbag2
(g3
g4
Ntp1353
Rp1354
(dp1355
g8
g11
sg142
Nsg143
(dp1356
sg145
Nsg26
g29
sg146
(lp1357
I7
aI20
asg148
Nsg149
VEcclesiastes 7:20
p1358
sg151
(lp1359
sg153
g104
sg154
Nsg155
(lp1360
I7
aI20
asg157
Nsg158
g1358
sg159
(lp1361
sg161
g60
sg162
Nsg163
Nsg164
Nsbag2
(g3
g4
Ntp1362
Rp1363
(dp1364
g8
g11
sg142
Nsg143
(dp1365
sg145
Nsg26
g29
sg146
(lp1366
I7
aI21
asg148
Nsg149
VEcclesiastes 7:21
p1367
sg151
(lp1368
sg153
g104
sg154
Nsg155
(lp1369
I7
aI21
asg157
Nsg158
g1367
sg159
(lp1370
sg161
g60
sg162
Nsg163
Nsg164
Nsbag2
(g3
g4
Ntp1371
Rp1372
(dp1373
g8
g11
sg142
Nsg143
(dp1374
sg145
Nsg26
g29
sg146
(lp1375
I7
aI22
asg148
Nsg149
VEcclesiastes 7:22
p1376
sg151
(lp1377
sg153
g104
sg154
Nsg155
(lp1378
I7
aI22
asg157
Nsg158
g1376
sg159
(lp1379
sg161
g60
sg162
Nsg163
Nsg164
Nsbag2
(g3
g4
Ntp1380
Rp1381
(dp1382
g8
g11
sg142
Nsg143
(dp1383
sg145
Nsg26
g29
sg146
(lp1384
I7
aI23
asg148
Nsg149
VEcclesiastes 7:23
p1385
sg151
(lp1386
sg153
g104
sg154
Nsg155
(lp1387
I7
aI23
asg157
Nsg158
g1385
sg159
(lp1388
sg161
g60
sg162
Nsg163
Nsg164
Nsbag2
(g3
g4
Ntp1389
Rp1390
(dp1391
g8
g11
sg142
Nsg143
(dp1392
sg145
Nsg26
g29
sg146
(lp1393
I7
aI24
asg148
Nsg149
VEcclesiastes 7:24
p1394
sg151
(lp1395
sg153
g104
sg154
Nsg155
(lp1396
I7
aI24
asg157
Nsg158
g1394
sg159
(lp1397
sg161
g60
sg162
Nsg163
Nsg164
Nsbag2
(g3
g4
Ntp1398
Rp1399
(dp1400
g8
g11
sg142
Nsg143
(dp1401
sg145
Nsg26
g29
sg146
(lp1402
I7
aI25
asg148
Nsg149
VEcclesiastes 7:25
p1403
sg151
(lp1404
sg153
g104
sg154
Nsg155
(lp1405
I7
aI25
asg157
Nsg158
g1403
sg159
(lp1406
sg161
g60
sg162
Nsg163
Nsg164
Nsbag2
(g3
g4
Ntp1407
Rp1408
(dp1409
g8
g11
sg142
Nsg143
(dp1410
sg145
Nsg26
g29
sg146
(lp1411
I7
aI26
asg148
Nsg149
VEcclesiastes 7:26
p1412
sg151
(lp1413
sg153
g104
sg154
Nsg155
(lp1414
I7
aI26
asg157
Nsg158
g1412
sg159
(lp1415
sg161
g60
sg162
Nsg163
Nsg164
Nsbag2
(g3
g4
Ntp1416
Rp1417
(dp1418
g8
g11
sg142
Nsg143
(dp1419
sg145
Nsg26
g29
sg146
(lp1420
I7
aI27
asg148
Nsg149
VEcclesiastes 7:27
p1421
sg151
(lp1422
sg153
g104
sg154
Nsg155
(lp1423
I7
aI27
asg157
Nsg158
g1421
sg159
(lp1424
sg161
g60
sg162
Nsg163
Nsg164
Nsbag2
(g3
g4
Ntp1425
Rp1426
(dp1427
g8
g11
sg142
Nsg143
(dp1428
sg145
Nsg26
g29
sg146
(lp1429
I7
aI28
asg148
Nsg149
VEcclesiastes 7:28
p1430
sg151
(lp1431
sg153
g104
sg154
Nsg155
(lp1432
I7
aI28
asg157
Nsg158
g1430
sg159
(lp1433
sg161
g60
sg162
Nsg163
Nsg164
Nsbag2
(g3
g4
Ntp1434
Rp1435
(dp1436
g8
g11
sg142
Nsg143
(dp1437
sg145
Nsg26
g29
sg146
(lp1438
I7
aI29
asg148
Nsg149
VEcclesiastes 7:29
p1439
sg151
(lp1440
sg153
g104
sg154
Nsg155
(lp1441
I7
aI29
asg157
Nsg158
g1439
sg159
(lp1442
sg161
g60
sg162
Nsg163
Nsg164
Nsbag2
(g3
g4
Ntp1443
Rp1444
(dp1445
g8
g11
sg142
Nsg143
(dp1446
sg145
Nsg26
g29
sg146
(lp1447
I8
aI1
asg148
Nsg149
VEcclesiastes 8:1
p1448
sg151
(lp1449
sg153
g104
sg154
Nsg155
(lp1450
I8
aI1
asg157
Nsg158
g1448
sg159
(lp1451
sg161
g60
sg162
Nsg163
Nsg164
Nsbag2
(g3
g4
Ntp1452
Rp1453
(dp1454
g8
g11
sg142
Nsg143
(dp1455
sg145
Nsg26
g29
sg146
(lp1456
I8
aI2
asg148
Nsg149
VEcclesiastes 8:2
p1457
sg151
(lp1458
sg153
g104
sg154
Nsg155
(lp1459
I8
aI2
asg157
Nsg158
g1457
sg159
(lp1460
sg161
g60
sg162
Nsg163
Nsg164
Nsbag2
(g3
g4
Ntp1461
Rp1462
(dp1463
g8
g11
sg142
Nsg143
(dp1464
sg145
Nsg26
g29
sg146
(lp1465
I8
aI3
asg148
Nsg149
VEcclesiastes 8:3
p1466
sg151
(lp1467
sg153
g104
sg154
Nsg155
(lp1468
I8
aI3
asg157
Nsg158
g1466
sg159
(lp1469
sg161
g60
sg162
Nsg163
Nsg164
Nsbag2
(g3
g4
Ntp1470
Rp1471
(dp1472
g8
g11
sg142
Nsg143
(dp1473
sg145
Nsg26
g29
sg146
(lp1474
I8
aI4
asg148
Nsg149
VEcclesiastes 8:4
p1475
sg151
(lp1476
sg153
g104
sg154
Nsg155
(lp1477
I8
aI4
asg157
Nsg158
g1475
sg159
(lp1478
sg161
g60
sg162
Nsg163
Nsg164
Nsbag2
(g3
g4
Ntp1479
Rp1480
(dp1481
g8
g11
sg142
Nsg143
(dp1482
sg145
Nsg26
g29
sg146
(lp1483
I8
aI5
asg148
Nsg149
VEcclesiastes 8:5
p1484
sg151
(lp1485
sg153
g104
sg154
Nsg155
(lp1486
I8
aI5
asg157
Nsg158
g1484
sg159
(lp1487
sg161
g60
sg162
Nsg163
Nsg164
Nsbag2
(g3
g4
Ntp1488
Rp1489
(dp1490
g8
g11
sg142
Nsg143
(dp1491
sg145
Nsg26
g29
sg146
(lp1492
I8
aI6
asg148
Nsg149
VEcclesiastes 8:6
p1493
sg151
(lp1494
sg153
g104
sg154
Nsg155
(lp1495
I8
aI6
asg157
Nsg158
g1493
sg159
(lp1496
sg161
g60
sg162
Nsg163
Nsg164
Nsbag2
(g3
g4
Ntp1497
Rp1498
(dp1499
g8
g11
sg142
Nsg143
(dp1500
sg145
Nsg26
g29
sg146
(lp1501
I8
aI7
asg148
Nsg149
VEcclesiastes 8:7
p1502
sg151
(lp1503
sg153
g104
sg154
Nsg155
(lp1504
I8
aI7
asg157
Nsg158
g1502
sg159
(lp1505
sg161
g60
sg162
Nsg163
Nsg164
Nsbag2
(g3
g4
Ntp1506
Rp1507
(dp1508
g8
g11
sg142
Nsg143
(dp1509
sg145
Nsg26
g29
sg146
(lp1510
I8
aI8
asg148
Nsg149
VEcclesiastes 8:8
p1511
sg151
(lp1512
sg153
g104
sg154
Nsg155
(lp1513
I8
aI8
asg157
Nsg158
g1511
sg159
(lp1514
sg161
g60
sg162
Nsg163
Nsg164
Nsbag2
(g3
g4
Ntp1515
Rp1516
(dp1517
g8
g11
sg142
Nsg143
(dp1518
sg145
Nsg26
g29
sg146
(lp1519
I8
aI9
asg148
Nsg149
VEcclesiastes 8:9
p1520
sg151
(lp1521
sg153
g104
sg154
Nsg155
(lp1522
I8
aI9
asg157
Nsg158
g1520
sg159
(lp1523
sg161
g60
sg162
Nsg163
Nsg164
Nsbag2
(g3
g4
Ntp1524
Rp1525
(dp1526
g8
g11
sg142
Nsg143
(dp1527
sg145
Nsg26
g29
sg146
(lp1528
I8
aI10
asg148
Nsg149
VEcclesiastes 8:10
p1529
sg151
(lp1530
sg153
g104
sg154
Nsg155
(lp1531
I8
aI10
asg157
Nsg158
g1529
sg159
(lp1532
sg161
g60
sg162
Nsg163
Nsg164
Nsbag2
(g3
g4
Ntp1533
Rp1534
(dp1535
g8
g11
sg142
Nsg143
(dp1536
sg145
Nsg26
g29
sg146
(lp1537
I8
aI11
asg148
Nsg149
VEcclesiastes 8:11
p1538
sg151
(lp1539
sg153
g104
sg154
Nsg155
(lp1540
I8
aI11
asg157
Nsg158
g1538
sg159
(lp1541
sg161
g60
sg162
Nsg163
Nsg164
Nsbag2
(g3
g4
Ntp1542
Rp1543
(dp1544
g8
g11
sg142
Nsg143
(dp1545
sg145
Nsg26
g29
sg146
(lp1546
I8
aI12
asg148
Nsg149
VEcclesiastes 8:12
p1547
sg151
(lp1548
sg153
g104
sg154
Nsg155
(lp1549
I8
aI12
asg157
Nsg158
g1547
sg159
(lp1550
sg161
g60
sg162
Nsg163
Nsg164
Nsbag2
(g3
g4
Ntp1551
Rp1552
(dp1553
g8
g11
sg142
Nsg143
(dp1554
sg145
Nsg26
g29
sg146
(lp1555
I8
aI13
asg148
Nsg149
VEcclesiastes 8:13
p1556
sg151
(lp1557
sg153
g104
sg154
Nsg155
(lp1558
I8
aI13
asg157
Nsg158
g1556
sg159
(lp1559
sg161
g60
sg162
Nsg163
Nsg164
Nsbag2
(g3
g4
Ntp1560
Rp1561
(dp1562
g8
g11
sg142
Nsg143
(dp1563
sg145
Nsg26
g29
sg146
(lp1564
I8
aI14
asg148
Nsg149
VEcclesiastes 8:14
p1565
sg151
(lp1566
sg153
g104
sg154
Nsg155
(lp1567
I8
aI14
asg157
Nsg158
g1565
sg159
(lp1568
sg161
g60
sg162
Nsg163
Nsg164
Nsbag2
(g3
g4
Ntp1569
Rp1570
(dp1571
g8
g11
sg142
Nsg143
(dp1572
sg145
Nsg26
g29
sg146
(lp1573
I8
aI15
asg148
Nsg149
VEcclesiastes 8:15
p1574
sg151
(lp1575
sg153
g104
sg154
Nsg155
(lp1576
I8
aI15
asg157
Nsg158
g1574
sg159
(lp1577
sg161
g60
sg162
Nsg163
Nsg164
Nsbag2
(g3
g4
Ntp1578
Rp1579
(dp1580
g8
g11
sg142
Nsg143
(dp1581
sg145
Nsg26
g29
sg146
(lp1582
I8
aI16
asg148
Nsg149
VEcclesiastes 8:16
p1583
sg151
(lp1584
sg153
g104
sg154
Nsg155
(lp1585
I8
aI16
asg157
Nsg158
g1583
sg159
(lp1586
sg161
g60
sg162
Nsg163
Nsg164
Nsbag2
(g3
g4
Ntp1587
Rp1588
(dp1589
g8
g11
sg142
Nsg143
(dp1590
sg145
Nsg26
g29
sg146
(lp1591
I8
aI17
asg148
Nsg149
VEcclesiastes 8:17
p1592
sg151
(lp1593
sg153
g104
sg154
Nsg155
(lp1594
I8
aI17
asg157
Nsg158
g1592
sg159
(lp1595
sg161
g60
sg162
Nsg163
Nsg164
Nsbag2
(g3
g4
Ntp1596
Rp1597
(dp1598
g8
g11
sg142
Nsg143
(dp1599
sg145
Nsg26
g29
sg146
(lp1600
I9
aI1
asg148
Nsg149
VEcclesiastes 9:1
p1601
sg151
(lp1602
sg153
g104
sg154
Nsg155
(lp1603
I9
aI1
asg157
Nsg158
g1601
sg159
(lp1604
sg161
g60
sg162
Nsg163
Nsg164
Nsbag2
(g3
g4
Ntp1605
Rp1606
(dp1607
g8
g11
sg142
Nsg143
(dp1608
sg145
Nsg26
g29
sg146
(lp1609
I9
aI2
asg148
Nsg149
VEcclesiastes 9:2
p1610
sg151
(lp1611
sg153
g104
sg154
Nsg155
(lp1612
I9
aI2
asg157
Nsg158
g1610
sg159
(lp1613
sg161
g60
sg162
Nsg163
Nsg164
Nsbag2
(g3
g4
Ntp1614
Rp1615
(dp1616
g8
g11
sg142
Nsg143
(dp1617
sg145
Nsg26
g29
sg146
(lp1618
I9
aI3
asg148
Nsg149
VEcclesiastes 9:3
p1619
sg151
(lp1620
sg153
g104
sg154
Nsg155
(lp1621
I9
aI3
asg157
Nsg158
g1619
sg159
(lp1622
sg161
g60
sg162
Nsg163
Nsg164
Nsbag2
(g3
g4
Ntp1623
Rp1624
(dp1625
g8
g11
sg142
Nsg143
(dp1626
sg145
Nsg26
g29
sg146
(lp1627
I9
aI4
asg148
Nsg149
VEcclesiastes 9:4
p1628
sg151
(lp1629
sg153
g104
sg154
Nsg155
(lp1630
I9
aI4
asg157
Nsg158
g1628
sg159
(lp1631
sg161
g60
sg162
Nsg163
Nsg164
Nsbag2
(g3
g4
Ntp1632
Rp1633
(dp1634
g8
g11
sg142
Nsg143
(dp1635
sg145
Nsg26
g29
sg146
(lp1636
I9
aI5
asg148
Nsg149
VEcclesiastes 9:5
p1637
sg151
(lp1638
sg153
g104
sg154
Nsg155
(lp1639
I9
aI5
asg157
Nsg158
g1637
sg159
(lp1640
sg161
g60
sg162
Nsg163
Nsg164
Nsbag2
(g3
g4
Ntp1641
Rp1642
(dp1643
g8
g11
sg142
Nsg143
(dp1644
sg145
Nsg26
g29
sg146
(lp1645
I9
aI6
asg148
Nsg149
VEcclesiastes 9:6
p1646
sg151
(lp1647
sg153
g104
sg154
Nsg155
(lp1648
I9
aI6
asg157
Nsg158
g1646
sg159
(lp1649
sg161
g60
sg162
Nsg163
Nsg164
Nsbag2
(g3
g4
Ntp1650
Rp1651
(dp1652
g8
g11
sg142
Nsg143
(dp1653
sg145
Nsg26
g29
sg146
(lp1654
I9
aI7
asg148
Nsg149
VEcclesiastes 9:7
p1655
sg151
(lp1656
sg153
g104
sg154
Nsg155
(lp1657
I9
aI7
asg157
Nsg158
g1655
sg159
(lp1658
sg161
g60
sg162
Nsg163
Nsg164
Nsbag2
(g3
g4
Ntp1659
Rp1660
(dp1661
g8
g11
sg142
Nsg143
(dp1662
sg145
Nsg26
g29
sg146
(lp1663
I9
aI8
asg148
Nsg149
VEcclesiastes 9:8
p1664
sg151
(lp1665
sg153
g104
sg154
Nsg155
(lp1666
I9
aI8
asg157
Nsg158
g1664
sg159
(lp1667
sg161
g60
sg162
Nsg163
Nsg164
Nsbag2
(g3
g4
Ntp1668
Rp1669
(dp1670
g8
g11
sg142
Nsg143
(dp1671
sg145
Nsg26
g29
sg146
(lp1672
I9
aI9
asg148
Nsg149
VEcclesiastes 9:9
p1673
sg151
(lp1674
sg153
g104
sg154
Nsg155
(lp1675
I9
aI9
asg157
Nsg158
g1673
sg159
(lp1676
sg161
g60
sg162
Nsg163
Nsg164
Nsbag2
(g3
g4
Ntp1677
Rp1678
(dp1679
g8
g11
sg142
Nsg143
(dp1680
sg145
Nsg26
g29
sg146
(lp1681
I9
aI10
asg148
Nsg149
VEcclesiastes 9:10
p1682
sg151
(lp1683
sg153
g104
sg154
Nsg155
(lp1684
I9
aI10
asg157
Nsg158
g1682
sg159
(lp1685
sg161
g60
sg162
Nsg163
Nsg164
Nsbag2
(g3
g4
Ntp1686
Rp1687
(dp1688
g8
g11
sg142
Nsg143
(dp1689
sg145
Nsg26
g29
sg146
(lp1690
I9
aI11
asg148
Nsg149
VEcclesiastes 9:11
p1691
sg151
(lp1692
sg153
g104
sg154
Nsg155
(lp1693
I9
aI11
asg157
Nsg158
g1691
sg159
(lp1694
sg161
g60
sg162
Nsg163
Nsg164
Nsbag2
(g3
g4
Ntp1695
Rp1696
(dp1697
g8
g11
sg142
Nsg143
(dp1698
sg145
Nsg26
g29
sg146
(lp1699
I9
aI12
asg148
Nsg149
VEcclesiastes 9:12
p1700
sg151
(lp1701
sg153
g104
sg154
Nsg155
(lp1702
I9
aI12
asg157
Nsg158
g1700
sg159
(lp1703
sg161
g60
sg162
Nsg163
Nsg164
Nsbag2
(g3
g4
Ntp1704
Rp1705
(dp1706
g8
g11
sg142
Nsg143
(dp1707
sg145
Nsg26
g29
sg146
(lp1708
I9
aI13
asg148
Nsg149
VEcclesiastes 9:13
p1709
sg151
(lp1710
sg153
g104
sg154
Nsg155
(lp1711
I9
aI13
asg157
Nsg158
g1709
sg159
(lp1712
sg161
g60
sg162
Nsg163
Nsg164
Nsbag2
(g3
g4
Ntp1713
Rp1714
(dp1715
g8
g11
sg142
Nsg143
(dp1716
sg145
Nsg26
g29
sg146
(lp1717
I9
aI14
asg148
Nsg149
VEcclesiastes 9:14
p1718
sg151
(lp1719
sg153
g104
sg154
Nsg155
(lp1720
I9
aI14
asg157
Nsg158
g1718
sg159
(lp1721
sg161
g60
sg162
Nsg163
Nsg164
Nsbag2
(g3
g4
Ntp1722
Rp1723
(dp1724
g8
g11
sg142
Nsg143
(dp1725
sg145
Nsg26
g29
sg146
(lp1726
I9
aI15
asg148
Nsg149
VEcclesiastes 9:15
p1727
sg151
(lp1728
sg153
g104
sg154
Nsg155
(lp1729
I9
aI15
asg157
Nsg158
g1727
sg159
(lp1730
sg161
g60
sg162
Nsg163
Nsg164
Nsbag2
(g3
g4
Ntp1731
Rp1732
(dp1733
g8
g11
sg142
Nsg143
(dp1734
sg145
Nsg26
g29
sg146
(lp1735
I9
aI16
asg148
Nsg149
VEcclesiastes 9:16
p1736
sg151
(lp1737
sg153
g104
sg154
Nsg155
(lp1738
I9
aI16
asg157
Nsg158
g1736
sg159
(lp1739
sg161
g60
sg162
Nsg163
Nsg164
Nsbag2
(g3
g4
Ntp1740
Rp1741
(dp1742
g8
g11
sg142
Nsg143
(dp1743
sg145
Nsg26
g29
sg146
(lp1744
I9
aI17
asg148
Nsg149
VEcclesiastes 9:17
p1745
sg151
(lp1746
sg153
g104
sg154
Nsg155
(lp1747
I9
aI17
asg157
Nsg158
g1745
sg159
(lp1748
sg161
g60
sg162
Nsg163
Nsg164
Nsbag2
(g3
g4
Ntp1749
Rp1750
(dp1751
g8
g11
sg142
Nsg143
(dp1752
sg145
Nsg26
g29
sg146
(lp1753
I9
aI18
asg148
Nsg149
VEcclesiastes 9:18
p1754
sg151
(lp1755
sg153
g104
sg154
Nsg155
(lp1756
I9
aI18
asg157
Nsg158
g1754
sg159
(lp1757
sg161
g60
sg162
Nsg163
Nsg164
Nsbag2
(g3
g4
Ntp1758
Rp1759
(dp1760
g8
g11
sg142
Nsg143
(dp1761
sg145
Nsg26
g29
sg146
(lp1762
I10
aI1
asg148
Nsg149
VEcclesiastes 10:1
p1763
sg151
(lp1764
sg153
g104
sg154
Nsg155
(lp1765
I10
aI1
asg157
Nsg158
g1763
sg159
(lp1766
sg161
g60
sg162
Nsg163
Nsg164
Nsbag2
(g3
g4
Ntp1767
Rp1768
(dp1769
g8
g11
sg142
Nsg143
(dp1770
sg145
Nsg26
g29
sg146
(lp1771
I10
aI2
asg148
Nsg149
VEcclesiastes 10:2
p1772
sg151
(lp1773
sg153
g104
sg154
Nsg155
(lp1774
I10
aI2
asg157
Nsg158
g1772
sg159
(lp1775
sg161
g60
sg162
Nsg163
Nsg164
Nsbag2
(g3
g4
Ntp1776
Rp1777
(dp1778
g8
g11
sg142
Nsg143
(dp1779
sg145
Nsg26
g29
sg146
(lp1780
I10
aI3
asg148
Nsg149
VEcclesiastes 10:3
p1781
sg151
(lp1782
sg153
g104
sg154
Nsg155
(lp1783
I10
aI3
asg157
Nsg158
g1781
sg159
(lp1784
sg161
g60
sg162
Nsg163
Nsg164
Nsbag2
(g3
g4
Ntp1785
Rp1786
(dp1787
g8
g11
sg142
Nsg143
(dp1788
sg145
Nsg26
g29
sg146
(lp1789
I10
aI4
asg148
Nsg149
VEcclesiastes 10:4
p1790
sg151
(lp1791
sg153
g104
sg154
Nsg155
(lp1792
I10
aI4
asg157
Nsg158
g1790
sg159
(lp1793
sg161
g60
sg162
Nsg163
Nsg164
Nsbag2
(g3
g4
Ntp1794
Rp1795
(dp1796
g8
g11
sg142
Nsg143
(dp1797
sg145
Nsg26
g29
sg146
(lp1798
I10
aI5
asg148
Nsg149
VEcclesiastes 10:5
p1799
sg151
(lp1800
sg153
g104
sg154
Nsg155
(lp1801
I10
aI5
asg157
Nsg158
g1799
sg159
(lp1802
sg161
g60
sg162
Nsg163
Nsg164
Nsbag2
(g3
g4
Ntp1803
Rp1804
(dp1805
g8
g11
sg142
Nsg143
(dp1806
sg145
Nsg26
g29
sg146
(lp1807
I10
aI6
asg148
Nsg149
VEcclesiastes 10:6
p1808
sg151
(lp1809
sg153
g104
sg154
Nsg155
(lp1810
I10
aI6
asg157
Nsg158
g1808
sg159
(lp1811
sg161
g60
sg162
Nsg163
Nsg164
Nsbag2
(g3
g4
Ntp1812
Rp1813
(dp1814
g8
g11
sg142
Nsg143
(dp1815
sg145
Nsg26
g29
sg146
(lp1816
I10
aI7
asg148
Nsg149
VEcclesiastes 10:7
p1817
sg151
(lp1818
sg153
g104
sg154
Nsg155
(lp1819
I10
aI7
asg157
Nsg158
g1817
sg159
(lp1820
sg161
g60
sg162
Nsg163
Nsg164
Nsbag2
(g3
g4
Ntp1821
Rp1822
(dp1823
g8
g11
sg142
Nsg143
(dp1824
sg145
Nsg26
g29
sg146
(lp1825
I10
aI8
asg148
Nsg149
VEcclesiastes 10:8
p1826
sg151
(lp1827
sg153
g104
sg154
Nsg155
(lp1828
I10
aI8
asg157
Nsg158
g1826
sg159
(lp1829
sg161
g60
sg162
Nsg163
Nsg164
Nsbag2
(g3
g4
Ntp1830
Rp1831
(dp1832
g8
g11
sg142
Nsg143
(dp1833
sg145
Nsg26
g29
sg146
(lp1834
I10
aI9
asg148
Nsg149
VEcclesiastes 10:9
p1835
sg151
(lp1836
sg153
g104
sg154
Nsg155
(lp1837
I10
aI9
asg157
Nsg158
g1835
sg159
(lp1838
sg161
g60
sg162
Nsg163
Nsg164
Nsbag2
(g3
g4
Ntp1839
Rp1840
(dp1841
g8
g11
sg142
Nsg143
(dp1842
sg145
Nsg26
g29
sg146
(lp1843
I10
aI10
asg148
Nsg149
VEcclesiastes 10:10
p1844
sg151
(lp1845
sg153
g104
sg154
Nsg155
(lp1846
I10
aI10
asg157
Nsg158
g1844
sg159
(lp1847
sg161
g60
sg162
Nsg163
Nsg164
Nsbag2
(g3
g4
Ntp1848
Rp1849
(dp1850
g8
g11
sg142
Nsg143
(dp1851
sg145
Nsg26
g29
sg146
(lp1852
I10
aI11
asg148
Nsg149
VEcclesiastes 10:11
p1853
sg151
(lp1854
sg153
g104
sg154
Nsg155
(lp1855
I10
aI11
asg157
Nsg158
g1853
sg159
(lp1856
sg161
g60
sg162
Nsg163
Nsg164
Nsbag2
(g3
g4
Ntp1857
Rp1858
(dp1859
g8
g11
sg142
Nsg143
(dp1860
sg145
Nsg26
g29
sg146
(lp1861
I10
aI12
asg148
Nsg149
VEcclesiastes 10:12
p1862
sg151
(lp1863
sg153
g104
sg154
Nsg155
(lp1864
I10
aI12
asg157
Nsg158
g1862
sg159
(lp1865
sg161
g60
sg162
Nsg163
Nsg164
Nsbag2
(g3
g4
Ntp1866
Rp1867
(dp1868
g8
g11
sg142
Nsg143
(dp1869
sg145
Nsg26
g29
sg146
(lp1870
I10
aI13
asg148
Nsg149
VEcclesiastes 10:13
p1871
sg151
(lp1872
sg153
g104
sg154
Nsg155
(lp1873
I10
aI13
asg157
Nsg158
g1871
sg159
(lp1874
sg161
g60
sg162
Nsg163
Nsg164
Nsbag2
(g3
g4
Ntp1875
Rp1876
(dp1877
g8
g11
sg142
Nsg143
(dp1878
sg145
Nsg26
g29
sg146
(lp1879
I10
aI14
asg148
Nsg149
VEcclesiastes 10:14
p1880
sg151
(lp1881
sg153
g104
sg154
Nsg155
(lp1882
I10
aI14
asg157
Nsg158
g1880
sg159
(lp1883
sg161
g60
sg162
Nsg163
Nsg164
Nsbag2
(g3
g4
Ntp1884
Rp1885
(dp1886
g8
g11
sg142
Nsg143
(dp1887
sg145
Nsg26
g29
sg146
(lp1888
I10
aI15
asg148
Nsg149
VEcclesiastes 10:15
p1889
sg151
(lp1890
sg153
g104
sg154
Nsg155
(lp1891
I10
aI15
asg157
Nsg158
g1889
sg159
(lp1892
sg161
g60
sg162
Nsg163
Nsg164
Nsbag2
(g3
g4
Ntp1893
Rp1894
(dp1895
g8
g11
sg142
Nsg143
(dp1896
sg145
Nsg26
g29
sg146
(lp1897
I10
aI16
asg148
Nsg149
VEcclesiastes 10:16
p1898
sg151
(lp1899
sg153
g104
sg154
Nsg155
(lp1900
I10
aI16
asg157
Nsg158
g1898
sg159
(lp1901
sg161
g60
sg162
Nsg163
Nsg164
Nsbag2
(g3
g4
Ntp1902
Rp1903
(dp1904
g8
g11
sg142
Nsg143
(dp1905
sg145
Nsg26
g29
sg146
(lp1906
I10
aI17
asg148
Nsg149
VEcclesiastes 10:17
p1907
sg151
(lp1908
sg153
g104
sg154
Nsg155
(lp1909
I10
aI17
asg157
Nsg158
g1907
sg159
(lp1910
sg161
g60
sg162
Nsg163
Nsg164
Nsbag2
(g3
g4
Ntp1911
Rp1912
(dp1913
g8
g11
sg142
Nsg143
(dp1914
sg145
Nsg26
g29
sg146
(lp1915
I10
aI18
asg148
Nsg149
VEcclesiastes 10:18
p1916
sg151
(lp1917
sg153
g104
sg154
Nsg155
(lp1918
I10
aI18
asg157
Nsg158
g1916
sg159
(lp1919
sg161
g60
sg162
Nsg163
Nsg164
Nsbag2
(g3
g4
Ntp1920
Rp1921
(dp1922
g8
g11
sg142
Nsg143
(dp1923
sg145
Nsg26
g29
sg146
(lp1924
I10
aI19
asg148
Nsg149
VEcclesiastes 10:19
p1925
sg151
(lp1926
sg153
g104
sg154
Nsg155
(lp1927
I10
aI19
asg157
Nsg158
g1925
sg159
(lp1928
sg161
g60
sg162
Nsg163
Nsg164
Nsbag2
(g3
g4
Ntp1929
Rp1930
(dp1931
g8
g11
sg142
Nsg143
(dp1932
sg145
Nsg26
g29
sg146
(lp1933
I10
aI20
asg148
Nsg149
VEcclesiastes 10:20
p1934
sg151
(lp1935
sg153
g104
sg154
Nsg155
(lp1936
I10
aI20
asg157
Nsg158
g1934
sg159
(lp1937
sg161
g60
sg162
Nsg163
Nsg164
Nsbag2
(g3
g4
Ntp1938
Rp1939
(dp1940
g8
g11
sg142
Nsg143
(dp1941
sg145
Nsg26
g29
sg146
(lp1942
I11
aI1
asg148
Nsg149
VEcclesiastes 11:1
p1943
sg151
(lp1944
sg153
g104
sg154
Nsg155
(lp1945
I11
aI1
asg157
Nsg158
g1943
sg159
(lp1946
sg161
g60
sg162
Nsg163
Nsg164
Nsbag2
(g3
g4
Ntp1947
Rp1948
(dp1949
g8
g11
sg142
Nsg143
(dp1950
sg145
Nsg26
g29
sg146
(lp1951
I11
aI2
asg148
Nsg149
VEcclesiastes 11:2
p1952
sg151
(lp1953
sg153
g104
sg154
Nsg155
(lp1954
I11
aI2
asg157
Nsg158
g1952
sg159
(lp1955
sg161
g60
sg162
Nsg163
Nsg164
Nsbag2
(g3
g4
Ntp1956
Rp1957
(dp1958
g8
g11
sg142
Nsg143
(dp1959
sg145
Nsg26
g29
sg146
(lp1960
I11
aI3
asg148
Nsg149
VEcclesiastes 11:3
p1961
sg151
(lp1962
sg153
g104
sg154
Nsg155
(lp1963
I11
aI3
asg157
Nsg158
g1961
sg159
(lp1964
sg161
g60
sg162
Nsg163
Nsg164
Nsbag2
(g3
g4
Ntp1965
Rp1966
(dp1967
g8
g11
sg142
Nsg143
(dp1968
sg145
Nsg26
g29
sg146
(lp1969
I11
aI4
asg148
Nsg149
VEcclesiastes 11:4
p1970
sg151
(lp1971
sg153
g104
sg154
Nsg155
(lp1972
I11
aI4
asg157
Nsg158
g1970
sg159
(lp1973
sg161
g60
sg162
Nsg163
Nsg164
Nsbag2
(g3
g4
Ntp1974
Rp1975
(dp1976
g8
g11
sg142
Nsg143
(dp1977
sg145
Nsg26
g29
sg146
(lp1978
I11
aI5
asg148
Nsg149
VEcclesiastes 11:5
p1979
sg151
(lp1980
sg153
g104
sg154
Nsg155
(lp1981
I11
aI5
asg157
Nsg158
g1979
sg159
(lp1982
sg161
g60
sg162
Nsg163
Nsg164
Nsbag2
(g3
g4
Ntp1983
Rp1984
(dp1985
g8
g11
sg142
Nsg143
(dp1986
sg145
Nsg26
g29
sg146
(lp1987
I11
aI6
asg148
Nsg149
VEcclesiastes 11:6
p1988
sg151
(lp1989
sg153
g104
sg154
Nsg155
(lp1990
I11
aI6
asg157
Nsg158
g1988
sg159
(lp1991
sg161
g60
sg162
Nsg163
Nsg164
Nsbag2
(g3
g4
Ntp1992
Rp1993
(dp1994
g8
g11
sg142
Nsg143
(dp1995
sg145
Nsg26
g29
sg146
(lp1996
I11
aI7
asg148
Nsg149
VEcclesiastes 11:7
p1997
sg151
(lp1998
sg153
g104
sg154
Nsg155
(lp1999
I11
aI7
asg157
Nsg158
g1997
sg159
(lp2000
sg161
g60
sg162
Nsg163
Nsg164
Nsbag2
(g3
g4
Ntp2001
Rp2002
(dp2003
g8
g11
sg142
Nsg143
(dp2004
sg145
Nsg26
g29
sg146
(lp2005
I11
aI8
asg148
Nsg149
VEcclesiastes 11:8
p2006
sg151
(lp2007
sg153
g104
sg154
Nsg155
(lp2008
I11
aI8
asg157
Nsg158
g2006
sg159
(lp2009
sg161
g60
sg162
Nsg163
Nsg164
Nsbag2
(g3
g4
Ntp2010
Rp2011
(dp2012
g8
g11
sg142
Nsg143
(dp2013
sg145
Nsg26
g29
sg146
(lp2014
I11
aI9
asg148
Nsg149
VEcclesiastes 11:9
p2015
sg151
(lp2016
sg153
g104
sg154
Nsg155
(lp2017
I11
aI9
asg157
Nsg158
g2015
sg159
(lp2018
sg161
g60
sg162
Nsg163
Nsg164
Nsbag2
(g3
g4
Ntp2019
Rp2020
(dp2021
g8
g11
sg142
Nsg143
(dp2022
sg145
Nsg26
g29
sg146
(lp2023
I11
aI10
asg148
Nsg149
VEcclesiastes 11:10
p2024
sg151
(lp2025
sg153
g104
sg154
Nsg155
(lp2026
I11
aI10
asg157
Nsg158
g2024
sg159
(lp2027
sg161
g60
sg162
Nsg163
Nsg164
Nsbag2
(g3
g4
Ntp2028
Rp2029
(dp2030
g8
g11
sg142
Nsg143
(dp2031
sg145
Nsg26
g29
sg146
(lp2032
I12
aI1
asg148
Nsg149
VEcclesiastes 12:1
p2033
sg151
(lp2034
sg153
g104
sg154
Nsg155
(lp2035
I12
aI1
asg157
Nsg158
g2033
sg159
(lp2036
sg161
g60
sg162
Nsg163
Nsg164
Nsbag2
(g3
g4
Ntp2037
Rp2038
(dp2039
g8
g11
sg142
Nsg143
(dp2040
sg145
Nsg26
g29
sg146
(lp2041
I12
aI2
asg148
Nsg149
VEcclesiastes 12:2
p2042
sg151
(lp2043
sg153
g104
sg154
Nsg155
(lp2044
I12
aI2
asg157
Nsg158
g2042
sg159
(lp2045
sg161
g60
sg162
Nsg163
Nsg164
Nsbag2
(g3
g4
Ntp2046
Rp2047
(dp2048
g8
g11
sg142
Nsg143
(dp2049
sg145
Nsg26
g29
sg146
(lp2050
I12
aI3
asg148
Nsg149
VEcclesiastes 12:3
p2051
sg151
(lp2052
sg153
g104
sg154
Nsg155
(lp2053
I12
aI3
asg157
Nsg158
g2051
sg159
(lp2054
sg161
g60
sg162
Nsg163
Nsg164
Nsbag2
(g3
g4
Ntp2055
Rp2056
(dp2057
g8
g11
sg142
Nsg143
(dp2058
sg145
Nsg26
g29
sg146
(lp2059
I12
aI4
asg148
Nsg149
VEcclesiastes 12:4
p2060
sg151
(lp2061
sg153
g104
sg154
Nsg155
(lp2062
I12
aI4
asg157
Nsg158
g2060
sg159
(lp2063
sg161
g60
sg162
Nsg163
Nsg164
Nsbag2
(g3
g4
Ntp2064
Rp2065
(dp2066
g8
g11
sg142
Nsg143
(dp2067
sg145
Nsg26
g29
sg146
(lp2068
I12
aI5
asg148
Nsg149
VEcclesiastes 12:5
p2069
sg151
(lp2070
sg153
g104
sg154
Nsg155
(lp2071
I12
aI5
asg157
Nsg158
g2069
sg159
(lp2072
sg161
g60
sg162
Nsg163
Nsg164
Nsbag2
(g3
g4
Ntp2073
Rp2074
(dp2075
g8
g11
sg142
Nsg143
(dp2076
sg145
Nsg26
g29
sg146
(lp2077
I12
aI6
asg148
Nsg149
VEcclesiastes 12:6
p2078
sg151
(lp2079
sg153
g104
sg154
Nsg155
(lp2080
I12
aI6
asg157
Nsg158
g2078
sg159
(lp2081
sg161
g60
sg162
Nsg163
Nsg164
Nsbag2
(g3
g4
Ntp2082
Rp2083
(dp2084
g8
g11
sg142
Nsg143
(dp2085
sg145
Nsg26
g29
sg146
(lp2086
I12
aI7
asg148
Nsg149
VEcclesiastes 12:7
p2087
sg151
(lp2088
sg153
g104
sg154
Nsg155
(lp2089
I12
aI7
asg157
Nsg158
g2087
sg159
(lp2090
sg161
g60
sg162
Nsg163
Nsg164
Nsbag2
(g3
g4
Ntp2091
Rp2092
(dp2093
g8
g11
sg142
Nsg143
(dp2094
sg145
Nsg26
g29
sg146
(lp2095
I12
aI8
asg148
Nsg149
VEcclesiastes 12:8
p2096
sg151
(lp2097
sg153
g104
sg154
Nsg155
(lp2098
I12
aI8
asg157
Nsg158
g2096
sg159
(lp2099
sg161
g60
sg162
Nsg163
Nsg164
Nsbag2
(g3
g4
Ntp2100
Rp2101
(dp2102
g8
g11
sg142
Nsg143
(dp2103
sg145
Nsg26
g29
sg146
(lp2104
I12
aI9
asg148
Nsg149
VEcclesiastes 12:9
p2105
sg151
(lp2106
sg153
g104
sg154
Nsg155
(lp2107
I12
aI9
asg157
Nsg158
g2105
sg159
(lp2108
sg161
g60
sg162
Nsg163
Nsg164
Nsbag2
(g3
g4
Ntp2109
Rp2110
(dp2111
g8
g11
sg142
Nsg143
(dp2112
sg145
Nsg26
g29
sg146
(lp2113
I12
aI10
asg148
Nsg149
VEcclesiastes 12:10
p2114
sg151
(lp2115
sg153
g104
sg154
Nsg155
(lp2116
I12
aI10
asg157
Nsg158
g2114
sg159
(lp2117
sg161
g60
sg162
Nsg163
Nsg164
Nsbag2
(g3
g4
Ntp2118
Rp2119
(dp2120
g8
g11
sg142
Nsg143
(dp2121
sg145
Nsg26
g29
sg146
(lp2122
I12
aI11
asg148
Nsg149
VEcclesiastes 12:11
p2123
sg151
(lp2124
sg153
g104
sg154
Nsg155
(lp2125
I12
aI11
asg157
Nsg158
g2123
sg159
(lp2126
sg161
g60
sg162
Nsg163
Nsg164
Nsbag2
(g3
g4
Ntp2127
Rp2128
(dp2129
g8
g11
sg142
Nsg143
(dp2130
sg145
Nsg26
g29
sg146
(lp2131
I12
aI12
asg148
Nsg149
VEcclesiastes 12:12
p2132
sg151
(lp2133
sg153
g104
sg154
Nsg155
(lp2134
I12
aI12
asg157
Nsg158
g2132
sg159
(lp2135
sg161
g60
sg162
Nsg163
Nsg164
Nsbag2
(g3
g4
Ntp2136
Rp2137
(dp2138
g8
g11
sg142
Nsg143
(dp2139
sg145
Nsg26
g29
sg146
(lp2140
I12
aI13
asg148
Nsg149
VEcclesiastes 12:13
p2141
sg151
(lp2142
sg153
g104
sg154
Nsg155
(lp2143
I12
aI13
asg157
Nsg158
g2141
sg159
(lp2144
sg161
g60
sg162
Nsg163
Nsg164
Nsbag2
(g3
g4
Ntp2145
Rp2146
(dp2147
g8
g11
sg142
Nsg143
(dp2148
sg145
Nsg26
g29
sg146
(lp2149
I12
aI14
asg148
Nsg149
VEcclesiastes 12:14
p2150
sg151
(lp2151
sg153
g104
sg154
Nsg155
(lp2152
I12
aI14
asg157
Nsg158
g2150
sg159
(lp2153
sg161
g60
sg162
Nsg163
Nsg164
Nsbatp2154
.