((lp0
I0
aI494
aI952
aI1175
aI1906
aI1988
aI2106
aI2158
aI2209
aI2264
aI2317
aI2515
aI2764
aI3007
aI3373
aI3488
aI3588
aI3661
aI3834
aI4129
aI4419
aI4626
aI4787
aI5714
aI5773
aI5841
aI5909
aI5922
aI6118
aI6357
aI6501
aI7277
aI7330
aI7664
aI7756
aI7797
aI8075
aI8359
aI8730
aI8958
aI9064
aI9630
aI9840
aI9938
aI9982
aI10475
aI10655
aI10785
aI10852
aI10906
aI11625
aI12376
aI12976
aI13169
aI13344
aI13384
aI13622
aI14007
aI14200
aI14383
aI15036
aI16671
aI16850
aI17201
aI17238
aI17455
aI17585
aI17666
aI17865
aI17926
aI18005
aI18287
aI18372
aI18461
aI18732
aI18802
aI18900
aI18915
aI19003
aI19325
aI19468
aI19859
aI19955
aI20190
aI20272
aI20499
aI20976
aI21353
aI21643
aI21770
aI21981
aI22134
aI22159
aI22339
aI22525
aI22691
aI22705
aI22836
aI22873
aI22890
aI22991
aI23004
aI23219
aI23406
aI23564
aI23628
aI23853
aI24147
aI24192
aI24216
aI24298
aI24311
aI24391
aI24463
aI24562
aI24605
aI24672
aI24879
aI25249
aI25522
aI25569
aI25951
aI25965
aI26069
aI26191
aI26365
aI26523
aI26540
aI26720
aI26914
aI26962
aI27014
aI27043
aI27185
aI27220
aI27235
aI27260
aI27309
aI27323
aI27389
aI27422
aI27476
aI27485
aI27544
aI27583
aI27662
aI27909
aI27925
aI28026
aI28132
a(lp1
ccopy_reg
_reconstructor
p2
(csefaria.model.text
Ref
p3
c__builtin__
object
p4
Ntp5
Rp6
(dp7
S'index_node'
p8
g2
(csefaria.model.schema
JaggedArrayNode
p9
g4
Ntp10
Rp11
(dp12
S'_address'
p13
(lp14
VEichah Rabbah
p15
asS'_full_titles'
p16
(dp17
sVnodeType
p18
VJaggedArrayNode
p19
sS'parent'
p20
NsVaddressTypes
p21
(lp22
VInteger
p23
aVInteger
p24
asS'default'
p25
I00
sS'index'
p26
g2
(csefaria.model.text
Index
p27
g4
Ntp28
Rp29
(dp30
S'pkeys_orig_values'
p31
(dp32
S'title'
p33
VEichah Rabbah
p34
ssS'pubDate'
p35
V1519
p36
sS'compDate'
p37
V500
p38
sS'pubPlace'
p39
VIstanbul
p40
sS'compPlace'
p41
VTalmudic Israel/Babylon
p42
sS'enDesc'
p43
VEkhah Rabbah (The Great Lamentations) is a haggadic and homiletic interpretation of the Book of Lamentations. It belongs to oldest works of the Midrashic literature. It begins with 36 consecutive proems forming a separate collection, certainly made by the author. They constitute more than one-fourth of the work. These proems which are arranged in the sequence of the verses originated in the discourses. The haggadic explanations of this book were treated as appropriate dirges on the destruction of the first and second Temples in Jerusalem on the Ninth of Av. Numerous Greek words suggest the book was composed in Israel, sometime after the Jerusalem Talmud was completed, in the 5th century.
p44
sS'order'
p45
(lp46
I10
asS'era'
p47
VAH
p48
sS'struct_objs'
p49
(dp50
sS'nodes'
p51
g11
sS'_id'
p52
g2
(cbson.objectid
ObjectId
p53
g4
Ntp54
Rp55
S'Q>\xc6S\xed\xba\xb4|\x02\x96$\xcb'
p56
bsS'_title'
p57
g34
sS'categories'
p58
(lp59
VMidrash
p60
aVAggadic Midrash
p61
aVMidrash Rabbah
p62
asS'schema'
p63
(dp64
g18
g19
sg21
g22
sVdepth
p65
I2
sVtitles
p66
(lp67
(dp68
Vlang
p69
Ven
p70
sVtext
p71
VEichah Rabba
p72
sa(dp73
Vlang
p74
Ven
p75
sVtext
p76
VEicha Rabbah
p77
sa(dp78
Vlang
p79
Ven
p80
sVtext
p81
VEicha Rabba
p82
sa(dp83
Vlang
p84
Vhe
p85
sVtext
p86
V\u05d0\u05d9\u05db\u05d4 \u05e8\u05d1\u05d4
p87
sVprimary
p88
I01
sa(dp89
Vlang
p90
Ven
p91
sVtext
p92
VEichah Rabbah
p93
sVprimary
p94
I01
sasVkey
p95
g15
sVsectionNames
p96
(lp97
VChapter
p98
aVMidrash
p99
assbsS'_primary_title'
p100
(dp101
sS'title_group'
p102
g2
(csefaria.model.schema
TitleGroup
p103
g4
Ntp104
Rp105
(dp106
g100
(dp107
S'en'
p108
g93
ssS'titles'
p109
g67
sbsS'_addressTypes'
p110
(lp111
g2
(csefaria.model.schema
AddressInteger
p112
g4
Ntp113
Rp114
(dp115
S'length'
p116
Nsg45
I0
sbag2
(g112
g4
Ntp117
Rp118
(dp119
g116
Nsg45
I1
sbasS'sharedTitle'
p120
Nsg65
I2
sS'_full_title'
p121
(dp122
g108
g93
ssS'key'
p123
g15
sS'checkFirst'
p124
NsS'_regexes'
p125
(dp126
sS'_leaf_nodes'
p127
(lp128
sg96
g97
sS'children'
p129
(lp130
sbsS'_range_index'
p131
NsS'_context'
p132
(dp133
sS'_padded'
p134
Nsg26
g29
sS'sections'
p135
(lp136
I1
aI1
asS'_first_spanned_ref'
p137
NsS'tref'
p138
VEichah Rabbah 1:1
p139
sS'_spanned_refs'
p140
(lp141
sS'book'
p142
g93
sS'_range_depth'
p143
NsS'toSections'
p144
(lp145
I1
aI1
asS'_url'
p146
NsS'_normal'
p147
g139
sS'_ranged_refs'
p148
(lp149
sS'type'
p150
g60
sS'_prev'
p151
NsS'_he_normal'
p152
NsS'_next'
p153
Nsbag2
(g3
g4
Ntp154
Rp155
(dp156
g8
g11
sg131
Nsg132
(dp157
sg134
Nsg26
g29
sg135
(lp158
I1
aI2
asg137
Nsg138
VEichah Rabbah 1:2
p159
sg140
(lp160
sg142
g93
sg143
Nsg144
(lp161
I1
aI2
asg146
Nsg147
g159
sg148
(lp162
sg150
g60
sg151
Nsg152
Nsg153
Nsbag2
(g3
g4
Ntp163
Rp164
(dp165
g8
g11
sg131
Nsg132
(dp166
sg134
Nsg26
g29
sg135
(lp167
I1
aI3
asg137
Nsg138
VEichah Rabbah 1:3
p168
sg140
(lp169
sg142
g93
sg143
Nsg144
(lp170
I1
aI3
asg146
Nsg147
g168
sg148
(lp171
sg150
g60
sg151
Nsg152
Nsg153
Nsbag2
(g3
g4
Ntp172
Rp173
(dp174
g8
g11
sg131
Nsg132
(dp175
sg134
Nsg26
g29
sg135
(lp176
I1
aI4
asg137
Nsg138
VEichah Rabbah 1:4
p177
sg140
(lp178
sg142
g93
sg143
Nsg144
(lp179
I1
aI4
asg146
Nsg147
g177
sg148
(lp180
sg150
g60
sg151
Nsg152
Nsg153
Nsbag2
(g3
g4
Ntp181
Rp182
(dp183
g8
g11
sg131
Nsg132
(dp184
sg134
Nsg26
g29
sg135
(lp185
I1
aI5
asg137
Nsg138
VEichah Rabbah 1:5
p186
sg140
(lp187
sg142
g93
sg143
Nsg144
(lp188
I1
aI5
asg146
Nsg147
g186
sg148
(lp189
sg150
g60
sg151
Nsg152
Nsg153
Nsbag2
(g3
g4
Ntp190
Rp191
(dp192
g8
g11
sg131
Nsg132
(dp193
sg134
Nsg26
g29
sg135
(lp194
I1
aI6
asg137
Nsg138
VEichah Rabbah 1:6
p195
sg140
(lp196
sg142
g93
sg143
Nsg144
(lp197
I1
aI6
asg146
Nsg147
g195
sg148
(lp198
sg150
g60
sg151
Nsg152
Nsg153
Nsbag2
(g3
g4
Ntp199
Rp200
(dp201
g8
g11
sg131
Nsg132
(dp202
sg134
Nsg26
g29
sg135
(lp203
I1
aI7
asg137
Nsg138
VEichah Rabbah 1:7
p204
sg140
(lp205
sg142
g93
sg143
Nsg144
(lp206
I1
aI7
asg146
Nsg147
g204
sg148
(lp207
sg150
g60
sg151
Nsg152
Nsg153
Nsbag2
(g3
g4
Ntp208
Rp209
(dp210
g8
g11
sg131
Nsg132
(dp211
sg134
Nsg26
g29
sg135
(lp212
I1
aI8
asg137
Nsg138
VEichah Rabbah 1:8
p213
sg140
(lp214
sg142
g93
sg143
Nsg144
(lp215
I1
aI8
asg146
Nsg147
g213
sg148
(lp216
sg150
g60
sg151
Nsg152
Nsg153
Nsbag2
(g3
g4
Ntp217
Rp218
(dp219
g8
g11
sg131
Nsg132
(dp220
sg134
Nsg26
g29
sg135
(lp221
I1
aI9
asg137
Nsg138
VEichah Rabbah 1:9
p222
sg140
(lp223
sg142
g93
sg143
Nsg144
(lp224
I1
aI9
asg146
Nsg147
g222
sg148
(lp225
sg150
g60
sg151
Nsg152
Nsg153
Nsbag2
(g3
g4
Ntp226
Rp227
(dp228
g8
g11
sg131
Nsg132
(dp229
sg134
Nsg26
g29
sg135
(lp230
I1
aI10
asg137
Nsg138
VEichah Rabbah 1:10
p231
sg140
(lp232
sg142
g93
sg143
Nsg144
(lp233
I1
aI10
asg146
Nsg147
g231
sg148
(lp234
sg150
g60
sg151
Nsg152
Nsg153
Nsbag2
(g3
g4
Ntp235
Rp236
(dp237
g8
g11
sg131
Nsg132
(dp238
sg134
Nsg26
g29
sg135
(lp239
I1
aI11
asg137
Nsg138
VEichah Rabbah 1:11
p240
sg140
(lp241
sg142
g93
sg143
Nsg144
(lp242
I1
aI11
asg146
Nsg147
g240
sg148
(lp243
sg150
g60
sg151
Nsg152
Nsg153
Nsbag2
(g3
g4
Ntp244
Rp245
(dp246
g8
g11
sg131
Nsg132
(dp247
sg134
Nsg26
g29
sg135
(lp248
I1
aI12
asg137
Nsg138
VEichah Rabbah 1:12
p249
sg140
(lp250
sg142
g93
sg143
Nsg144
(lp251
I1
aI12
asg146
Nsg147
g249
sg148
(lp252
sg150
g60
sg151
Nsg152
Nsg153
Nsbag2
(g3
g4
Ntp253
Rp254
(dp255
g8
g11
sg131
Nsg132
(dp256
sg134
Nsg26
g29
sg135
(lp257
I1
aI13
asg137
Nsg138
VEichah Rabbah 1:13
p258
sg140
(lp259
sg142
g93
sg143
Nsg144
(lp260
I1
aI13
asg146
Nsg147
g258
sg148
(lp261
sg150
g60
sg151
Nsg152
Nsg153
Nsbag2
(g3
g4
Ntp262
Rp263
(dp264
g8
g11
sg131
Nsg132
(dp265
sg134
Nsg26
g29
sg135
(lp266
I1
aI14
asg137
Nsg138
VEichah Rabbah 1:14
p267
sg140
(lp268
sg142
g93
sg143
Nsg144
(lp269
I1
aI14
asg146
Nsg147
g267
sg148
(lp270
sg150
g60
sg151
Nsg152
Nsg153
Nsbag2
(g3
g4
Ntp271
Rp272
(dp273
g8
g11
sg131
Nsg132
(dp274
sg134
Nsg26
g29
sg135
(lp275
I1
aI15
asg137
Nsg138
VEichah Rabbah 1:15
p276
sg140
(lp277
sg142
g93
sg143
Nsg144
(lp278
I1
aI15
asg146
Nsg147
g276
sg148
(lp279
sg150
g60
sg151
Nsg152
Nsg153
Nsbag2
(g3
g4
Ntp280
Rp281
(dp282
g8
g11
sg131
Nsg132
(dp283
sg134
Nsg26
g29
sg135
(lp284
I1
aI16
asg137
Nsg138
VEichah Rabbah 1:16
p285
sg140
(lp286
sg142
g93
sg143
Nsg144
(lp287
I1
aI16
asg146
Nsg147
g285
sg148
(lp288
sg150
g60
sg151
Nsg152
Nsg153
Nsbag2
(g3
g4
Ntp289
Rp290
(dp291
g8
g11
sg131
Nsg132
(dp292
sg134
Nsg26
g29
sg135
(lp293
I1
aI17
asg137
Nsg138
VEichah Rabbah 1:17
p294
sg140
(lp295
sg142
g93
sg143
Nsg144
(lp296
I1
aI17
asg146
Nsg147
g294
sg148
(lp297
sg150
g60
sg151
Nsg152
Nsg153
Nsbag2
(g3
g4
Ntp298
Rp299
(dp300
g8
g11
sg131
Nsg132
(dp301
sg134
Nsg26
g29
sg135
(lp302
I1
aI18
asg137
Nsg138
VEichah Rabbah 1:18
p303
sg140
(lp304
sg142
g93
sg143
Nsg144
(lp305
I1
aI18
asg146
Nsg147
g303
sg148
(lp306
sg150
g60
sg151
Nsg152
Nsg153
Nsbag2
(g3
g4
Ntp307
Rp308
(dp309
g8
g11
sg131
Nsg132
(dp310
sg134
Nsg26
g29
sg135
(lp311
I1
aI19
asg137
Nsg138
VEichah Rabbah 1:19
p312
sg140
(lp313
sg142
g93
sg143
Nsg144
(lp314
I1
aI19
asg146
Nsg147
g312
sg148
(lp315
sg150
g60
sg151
Nsg152
Nsg153
Nsbag2
(g3
g4
Ntp316
Rp317
(dp318
g8
g11
sg131
Nsg132
(dp319
sg134
Nsg26
g29
sg135
(lp320
I1
aI20
asg137
Nsg138
VEichah Rabbah 1:20
p321
sg140
(lp322
sg142
g93
sg143
Nsg144
(lp323
I1
aI20
asg146
Nsg147
g321
sg148
(lp324
sg150
g60
sg151
Nsg152
Nsg153
Nsbag2
(g3
g4
Ntp325
Rp326
(dp327
g8
g11
sg131
Nsg132
(dp328
sg134
Nsg26
g29
sg135
(lp329
I1
aI21
asg137
Nsg138
VEichah Rabbah 1:21
p330
sg140
(lp331
sg142
g93
sg143
Nsg144
(lp332
I1
aI21
asg146
Nsg147
g330
sg148
(lp333
sg150
g60
sg151
Nsg152
Nsg153
Nsbag2
(g3
g4
Ntp334
Rp335
(dp336
g8
g11
sg131
Nsg132
(dp337
sg134
Nsg26
g29
sg135
(lp338
I1
aI22
asg137
Nsg138
VEichah Rabbah 1:22
p339
sg140
(lp340
sg142
g93
sg143
Nsg144
(lp341
I1
aI22
asg146
Nsg147
g339
sg148
(lp342
sg150
g60
sg151
Nsg152
Nsg153
Nsbag2
(g3
g4
Ntp343
Rp344
(dp345
g8
g11
sg131
Nsg132
(dp346
sg134
Nsg26
g29
sg135
(lp347
I1
aI23
asg137
Nsg138
VEichah Rabbah 1:23
p348
sg140
(lp349
sg142
g93
sg143
Nsg144
(lp350
I1
aI23
asg146
Nsg147
g348
sg148
(lp351
sg150
g60
sg151
Nsg152
Nsg153
Nsbag2
(g3
g4
Ntp352
Rp353
(dp354
g8
g11
sg131
Nsg132
(dp355
sg134
Nsg26
g29
sg135
(lp356
I1
aI24
asg137
Nsg138
VEichah Rabbah 1:24
p357
sg140
(lp358
sg142
g93
sg143
Nsg144
(lp359
I1
aI24
asg146
Nsg147
g357
sg148
(lp360
sg150
g60
sg151
Nsg152
Nsg153
Nsbag2
(g3
g4
Ntp361
Rp362
(dp363
g8
g11
sg131
Nsg132
(dp364
sg134
Nsg26
g29
sg135
(lp365
I1
aI25
asg137
Nsg138
VEichah Rabbah 1:25
p366
sg140
(lp367
sg142
g93
sg143
Nsg144
(lp368
I1
aI25
asg146
Nsg147
g366
sg148
(lp369
sg150
g60
sg151
Nsg152
Nsg153
Nsbag2
(g3
g4
Ntp370
Rp371
(dp372
g8
g11
sg131
Nsg132
(dp373
sg134
Nsg26
g29
sg135
(lp374
I1
aI26
asg137
Nsg138
VEichah Rabbah 1:26
p375
sg140
(lp376
sg142
g93
sg143
Nsg144
(lp377
I1
aI26
asg146
Nsg147
g375
sg148
(lp378
sg150
g60
sg151
Nsg152
Nsg153
Nsbag2
(g3
g4
Ntp379
Rp380
(dp381
g8
g11
sg131
Nsg132
(dp382
sg134
Nsg26
g29
sg135
(lp383
I1
aI27
asg137
Nsg138
VEichah Rabbah 1:27
p384
sg140
(lp385
sg142
g93
sg143
Nsg144
(lp386
I1
aI27
asg146
Nsg147
g384
sg148
(lp387
sg150
g60
sg151
Nsg152
Nsg153
Nsbag2
(g3
g4
Ntp388
Rp389
(dp390
g8
g11
sg131
Nsg132
(dp391
sg134
Nsg26
g29
sg135
(lp392
I1
aI28
asg137
Nsg138
VEichah Rabbah 1:28
p393
sg140
(lp394
sg142
g93
sg143
Nsg144
(lp395
I1
aI28
asg146
Nsg147
g393
sg148
(lp396
sg150
g60
sg151
Nsg152
Nsg153
Nsbag2
(g3
g4
Ntp397
Rp398
(dp399
g8
g11
sg131
Nsg132
(dp400
sg134
Nsg26
g29
sg135
(lp401
I1
aI29
asg137
Nsg138
VEichah Rabbah 1:29
p402
sg140
(lp403
sg142
g93
sg143
Nsg144
(lp404
I1
aI29
asg146
Nsg147
g402
sg148
(lp405
sg150
g60
sg151
Nsg152
Nsg153
Nsbag2
(g3
g4
Ntp406
Rp407
(dp408
g8
g11
sg131
Nsg132
(dp409
sg134
Nsg26
g29
sg135
(lp410
I1
aI30
asg137
Nsg138
VEichah Rabbah 1:30
p411
sg140
(lp412
sg142
g93
sg143
Nsg144
(lp413
I1
aI30
asg146
Nsg147
g411
sg148
(lp414
sg150
g60
sg151
Nsg152
Nsg153
Nsbag2
(g3
g4
Ntp415
Rp416
(dp417
g8
g11
sg131
Nsg132
(dp418
sg134
Nsg26
g29
sg135
(lp419
I1
aI31
asg137
Nsg138
VEichah Rabbah 1:31
p420
sg140
(lp421
sg142
g93
sg143
Nsg144
(lp422
I1
aI31
asg146
Nsg147
g420
sg148
(lp423
sg150
g60
sg151
Nsg152
Nsg153
Nsbag2
(g3
g4
Ntp424
Rp425
(dp426
g8
g11
sg131
Nsg132
(dp427
sg134
Nsg26
g29
sg135
(lp428
I1
aI32
asg137
Nsg138
VEichah Rabbah 1:32
p429
sg140
(lp430
sg142
g93
sg143
Nsg144
(lp431
I1
aI32
asg146
Nsg147
g429
sg148
(lp432
sg150
g60
sg151
Nsg152
Nsg153
Nsbag2
(g3
g4
Ntp433
Rp434
(dp435
g8
g11
sg131
Nsg132
(dp436
sg134
Nsg26
g29
sg135
(lp437
I1
aI33
asg137
Nsg138
VEichah Rabbah 1:33
p438
sg140
(lp439
sg142
g93
sg143
Nsg144
(lp440
I1
aI33
asg146
Nsg147
g438
sg148
(lp441
sg150
g60
sg151
Nsg152
Nsg153
Nsbag2
(g3
g4
Ntp442
Rp443
(dp444
g8
g11
sg131
Nsg132
(dp445
sg134
Nsg26
g29
sg135
(lp446
I1
aI34
asg137
Nsg138
VEichah Rabbah 1:34
p447
sg140
(lp448
sg142
g93
sg143
Nsg144
(lp449
I1
aI34
asg146
Nsg147
g447
sg148
(lp450
sg150
g60
sg151
Nsg152
Nsg153
Nsbag2
(g3
g4
Ntp451
Rp452
(dp453
g8
g11
sg131
Nsg132
(dp454
sg134
Nsg26
g29
sg135
(lp455
I1
aI35
asg137
Nsg138
VEichah Rabbah 1:35
p456
sg140
(lp457
sg142
g93
sg143
Nsg144
(lp458
I1
aI35
asg146
Nsg147
g456
sg148
(lp459
sg150
g60
sg151
Nsg152
Nsg153
Nsbag2
(g3
g4
Ntp460
Rp461
(dp462
g8
g11
sg131
Nsg132
(dp463
sg134
Nsg26
g29
sg135
(lp464
I1
aI36
asg137
Nsg138
VEichah Rabbah 1:36
p465
sg140
(lp466
sg142
g93
sg143
Nsg144
(lp467
I1
aI36
asg146
Nsg147
g465
sg148
(lp468
sg150
g60
sg151
Nsg152
Nsg153
Nsbag2
(g3
g4
Ntp469
Rp470
(dp471
g8
g11
sg131
Nsg132
(dp472
sg134
Nsg26
g29
sg135
(lp473
I1
aI37
asg137
Nsg138
VEichah Rabbah 1:37
p474
sg140
(lp475
sg142
g93
sg143
Nsg144
(lp476
I1
aI37
asg146
Nsg147
g474
sg148
(lp477
sg150
g60
sg151
Nsg152
Nsg153
Nsbag2
(g3
g4
Ntp478
Rp479
(dp480
g8
g11
sg131
Nsg132
(dp481
sg134
Nsg26
g29
sg135
(lp482
I1
aI38
asg137
Nsg138
VEichah Rabbah 1:38
p483
sg140
(lp484
sg142
g93
sg143
Nsg144
(lp485
I1
aI38
asg146
Nsg147
g483
sg148
(lp486
sg150
g60
sg151
Nsg152
Nsg153
Nsbag2
(g3
g4
Ntp487
Rp488
(dp489
g8
g11
sg131
Nsg132
(dp490
sg134
Nsg26
g29
sg135
(lp491
I1
aI39
asg137
Nsg138
VEichah Rabbah 1:39
p492
sg140
(lp493
sg142
g93
sg143
Nsg144
(lp494
I1
aI39
asg146
Nsg147
g492
sg148
(lp495
sg150
g60
sg151
Nsg152
Nsg153
Nsbag2
(g3
g4
Ntp496
Rp497
(dp498
g8
g11
sg131
Nsg132
(dp499
sg134
Nsg26
g29
sg135
(lp500
I1
aI40
asg137
Nsg138
VEichah Rabbah 1:40
p501
sg140
(lp502
sg142
g93
sg143
Nsg144
(lp503
I1
aI40
asg146
Nsg147
g501
sg148
(lp504
sg150
g60
sg151
Nsg152
Nsg153
Nsbag2
(g3
g4
Ntp505
Rp506
(dp507
g8
g11
sg131
Nsg132
(dp508
sg134
Nsg26
g29
sg135
(lp509
I1
aI41
asg137
Nsg138
VEichah Rabbah 1:41
p510
sg140
(lp511
sg142
g93
sg143
Nsg144
(lp512
I1
aI41
asg146
Nsg147
g510
sg148
(lp513
sg150
g60
sg151
Nsg152
Nsg153
Nsbag2
(g3
g4
Ntp514
Rp515
(dp516
g8
g11
sg131
Nsg132
(dp517
sg134
Nsg26
g29
sg135
(lp518
I1
aI42
asg137
Nsg138
VEichah Rabbah 1:42
p519
sg140
(lp520
sg142
g93
sg143
Nsg144
(lp521
I1
aI42
asg146
Nsg147
g519
sg148
(lp522
sg150
g60
sg151
Nsg152
Nsg153
Nsbag2
(g3
g4
Ntp523
Rp524
(dp525
g8
g11
sg131
Nsg132
(dp526
sg134
Nsg26
g29
sg135
(lp527
I1
aI43
asg137
Nsg138
VEichah Rabbah 1:43
p528
sg140
(lp529
sg142
g93
sg143
Nsg144
(lp530
I1
aI43
asg146
Nsg147
g528
sg148
(lp531
sg150
g60
sg151
Nsg152
Nsg153
Nsbag2
(g3
g4
Ntp532
Rp533
(dp534
g8
g11
sg131
Nsg132
(dp535
sg134
Nsg26
g29
sg135
(lp536
I1
aI44
asg137
Nsg138
VEichah Rabbah 1:44
p537
sg140
(lp538
sg142
g93
sg143
Nsg144
(lp539
I1
aI44
asg146
Nsg147
g537
sg148
(lp540
sg150
g60
sg151
Nsg152
Nsg153
Nsbag2
(g3
g4
Ntp541
Rp542
(dp543
g8
g11
sg131
Nsg132
(dp544
sg134
Nsg26
g29
sg135
(lp545
I1
aI45
asg137
Nsg138
VEichah Rabbah 1:45
p546
sg140
(lp547
sg142
g93
sg143
Nsg144
(lp548
I1
aI45
asg146
Nsg147
g546
sg148
(lp549
sg150
g60
sg151
Nsg152
Nsg153
Nsbag2
(g3
g4
Ntp550
Rp551
(dp552
g8
g11
sg131
Nsg132
(dp553
sg134
Nsg26
g29
sg135
(lp554
I1
aI46
asg137
Nsg138
VEichah Rabbah 1:46
p555
sg140
(lp556
sg142
g93
sg143
Nsg144
(lp557
I1
aI46
asg146
Nsg147
g555
sg148
(lp558
sg150
g60
sg151
Nsg152
Nsg153
Nsbag2
(g3
g4
Ntp559
Rp560
(dp561
g8
g11
sg131
Nsg132
(dp562
sg134
Nsg26
g29
sg135
(lp563
I1
aI47
asg137
Nsg138
VEichah Rabbah 1:47
p564
sg140
(lp565
sg142
g93
sg143
Nsg144
(lp566
I1
aI47
asg146
Nsg147
g564
sg148
(lp567
sg150
g60
sg151
Nsg152
Nsg153
Nsbag2
(g3
g4
Ntp568
Rp569
(dp570
g8
g11
sg131
Nsg132
(dp571
sg134
Nsg26
g29
sg135
(lp572
I1
aI48
asg137
Nsg138
VEichah Rabbah 1:48
p573
sg140
(lp574
sg142
g93
sg143
Nsg144
(lp575
I1
aI48
asg146
Nsg147
g573
sg148
(lp576
sg150
g60
sg151
Nsg152
Nsg153
Nsbag2
(g3
g4
Ntp577
Rp578
(dp579
g8
g11
sg131
Nsg132
(dp580
sg134
Nsg26
g29
sg135
(lp581
I1
aI49
asg137
Nsg138
VEichah Rabbah 1:49
p582
sg140
(lp583
sg142
g93
sg143
Nsg144
(lp584
I1
aI49
asg146
Nsg147
g582
sg148
(lp585
sg150
g60
sg151
Nsg152
Nsg153
Nsbag2
(g3
g4
Ntp586
Rp587
(dp588
g8
g11
sg131
Nsg132
(dp589
sg134
Nsg26
g29
sg135
(lp590
I1
aI50
asg137
Nsg138
VEichah Rabbah 1:50
p591
sg140
(lp592
sg142
g93
sg143
Nsg144
(lp593
I1
aI50
asg146
Nsg147
g591
sg148
(lp594
sg150
g60
sg151
Nsg152
Nsg153
Nsbag2
(g3
g4
Ntp595
Rp596
(dp597
g8
g11
sg131
Nsg132
(dp598
sg134
Nsg26
g29
sg135
(lp599
I1
aI51
asg137
Nsg138
VEichah Rabbah 1:51
p600
sg140
(lp601
sg142
g93
sg143
Nsg144
(lp602
I1
aI51
asg146
Nsg147
g600
sg148
(lp603
sg150
g60
sg151
Nsg152
Nsg153
Nsbag2
(g3
g4
Ntp604
Rp605
(dp606
g8
g11
sg131
Nsg132
(dp607
sg134
Nsg26
g29
sg135
(lp608
I1
aI52
asg137
Nsg138
VEichah Rabbah 1:52
p609
sg140
(lp610
sg142
g93
sg143
Nsg144
(lp611
I1
aI52
asg146
Nsg147
g609
sg148
(lp612
sg150
g60
sg151
Nsg152
Nsg153
Nsbag2
(g3
g4
Ntp613
Rp614
(dp615
g8
g11
sg131
Nsg132
(dp616
sg134
Nsg26
g29
sg135
(lp617
I1
aI53
asg137
Nsg138
VEichah Rabbah 1:53
p618
sg140
(lp619
sg142
g93
sg143
Nsg144
(lp620
I1
aI53
asg146
Nsg147
g618
sg148
(lp621
sg150
g60
sg151
Nsg152
Nsg153
Nsbag2
(g3
g4
Ntp622
Rp623
(dp624
g8
g11
sg131
Nsg132
(dp625
sg134
Nsg26
g29
sg135
(lp626
I1
aI54
asg137
Nsg138
VEichah Rabbah 1:54
p627
sg140
(lp628
sg142
g93
sg143
Nsg144
(lp629
I1
aI54
asg146
Nsg147
g627
sg148
(lp630
sg150
g60
sg151
Nsg152
Nsg153
Nsbag2
(g3
g4
Ntp631
Rp632
(dp633
g8
g11
sg131
Nsg132
(dp634
sg134
Nsg26
g29
sg135
(lp635
I1
aI55
asg137
Nsg138
VEichah Rabbah 1:55
p636
sg140
(lp637
sg142
g93
sg143
Nsg144
(lp638
I1
aI55
asg146
Nsg147
g636
sg148
(lp639
sg150
g60
sg151
Nsg152
Nsg153
Nsbag2
(g3
g4
Ntp640
Rp641
(dp642
g8
g11
sg131
Nsg132
(dp643
sg134
Nsg26
g29
sg135
(lp644
I1
aI56
asg137
Nsg138
VEichah Rabbah 1:56
p645
sg140
(lp646
sg142
g93
sg143
Nsg144
(lp647
I1
aI56
asg146
Nsg147
g645
sg148
(lp648
sg150
g60
sg151
Nsg152
Nsg153
Nsbag2
(g3
g4
Ntp649
Rp650
(dp651
g8
g11
sg131
Nsg132
(dp652
sg134
Nsg26
g29
sg135
(lp653
I1
aI57
asg137
Nsg138
VEichah Rabbah 1:57
p654
sg140
(lp655
sg142
g93
sg143
Nsg144
(lp656
I1
aI57
asg146
Nsg147
g654
sg148
(lp657
sg150
g60
sg151
Nsg152
Nsg153
Nsbag2
(g3
g4
Ntp658
Rp659
(dp660
g8
g11
sg131
Nsg132
(dp661
sg134
Nsg26
g29
sg135
(lp662
I2
aI1
asg137
Nsg138
VEichah Rabbah 2:1
p663
sg140
(lp664
sg142
g93
sg143
Nsg144
(lp665
I2
aI1
asg146
Nsg147
g663
sg148
(lp666
sg150
g60
sg151
Nsg152
Nsg153
Nsbag2
(g3
g4
Ntp667
Rp668
(dp669
g8
g11
sg131
Nsg132
(dp670
sg134
Nsg26
g29
sg135
(lp671
I2
aI2
asg137
Nsg138
VEichah Rabbah 2:2
p672
sg140
(lp673
sg142
g93
sg143
Nsg144
(lp674
I2
aI2
asg146
Nsg147
g672
sg148
(lp675
sg150
g60
sg151
Nsg152
Nsg153
Nsbag2
(g3
g4
Ntp676
Rp677
(dp678
g8
g11
sg131
Nsg132
(dp679
sg134
Nsg26
g29
sg135
(lp680
I2
aI3
asg137
Nsg138
VEichah Rabbah 2:3
p681
sg140
(lp682
sg142
g93
sg143
Nsg144
(lp683
I2
aI3
asg146
Nsg147
g681
sg148
(lp684
sg150
g60
sg151
Nsg152
Nsg153
Nsbag2
(g3
g4
Ntp685
Rp686
(dp687
g8
g11
sg131
Nsg132
(dp688
sg134
Nsg26
g29
sg135
(lp689
I2
aI4
asg137
Nsg138
VEichah Rabbah 2:4
p690
sg140
(lp691
sg142
g93
sg143
Nsg144
(lp692
I2
aI4
asg146
Nsg147
g690
sg148
(lp693
sg150
g60
sg151
Nsg152
Nsg153
Nsbag2
(g3
g4
Ntp694
Rp695
(dp696
g8
g11
sg131
Nsg132
(dp697
sg134
Nsg26
g29
sg135
(lp698
I2
aI5
asg137
Nsg138
VEichah Rabbah 2:5
p699
sg140
(lp700
sg142
g93
sg143
Nsg144
(lp701
I2
aI5
asg146
Nsg147
g699
sg148
(lp702
sg150
g60
sg151
Nsg152
Nsg153
Nsbag2
(g3
g4
Ntp703
Rp704
(dp705
g8
g11
sg131
Nsg132
(dp706
sg134
Nsg26
g29
sg135
(lp707
I2
aI6
asg137
Nsg138
VEichah Rabbah 2:6
p708
sg140
(lp709
sg142
g93
sg143
Nsg144
(lp710
I2
aI6
asg146
Nsg147
g708
sg148
(lp711
sg150
g60
sg151
Nsg152
Nsg153
Nsbag2
(g3
g4
Ntp712
Rp713
(dp714
g8
g11
sg131
Nsg132
(dp715
sg134
Nsg26
g29
sg135
(lp716
I2
aI7
asg137
Nsg138
VEichah Rabbah 2:7
p717
sg140
(lp718
sg142
g93
sg143
Nsg144
(lp719
I2
aI7
asg146
Nsg147
g717
sg148
(lp720
sg150
g60
sg151
Nsg152
Nsg153
Nsbag2
(g3
g4
Ntp721
Rp722
(dp723
g8
g11
sg131
Nsg132
(dp724
sg134
Nsg26
g29
sg135
(lp725
I2
aI8
asg137
Nsg138
VEichah Rabbah 2:8
p726
sg140
(lp727
sg142
g93
sg143
Nsg144
(lp728
I2
aI8
asg146
Nsg147
g726
sg148
(lp729
sg150
g60
sg151
Nsg152
Nsg153
Nsbag2
(g3
g4
Ntp730
Rp731
(dp732
g8
g11
sg131
Nsg132
(dp733
sg134
Nsg26
g29
sg135
(lp734
I2
aI9
asg137
Nsg138
VEichah Rabbah 2:9
p735
sg140
(lp736
sg142
g93
sg143
Nsg144
(lp737
I2
aI9
asg146
Nsg147
g735
sg148
(lp738
sg150
g60
sg151
Nsg152
Nsg153
Nsbag2
(g3
g4
Ntp739
Rp740
(dp741
g8
g11
sg131
Nsg132
(dp742
sg134
Nsg26
g29
sg135
(lp743
I2
aI10
asg137
Nsg138
VEichah Rabbah 2:10
p744
sg140
(lp745
sg142
g93
sg143
Nsg144
(lp746
I2
aI10
asg146
Nsg147
g744
sg148
(lp747
sg150
g60
sg151
Nsg152
Nsg153
Nsbag2
(g3
g4
Ntp748
Rp749
(dp750
g8
g11
sg131
Nsg132
(dp751
sg134
Nsg26
g29
sg135
(lp752
I2
aI11
asg137
Nsg138
VEichah Rabbah 2:11
p753
sg140
(lp754
sg142
g93
sg143
Nsg144
(lp755
I2
aI11
asg146
Nsg147
g753
sg148
(lp756
sg150
g60
sg151
Nsg152
Nsg153
Nsbag2
(g3
g4
Ntp757
Rp758
(dp759
g8
g11
sg131
Nsg132
(dp760
sg134
Nsg26
g29
sg135
(lp761
I2
aI12
asg137
Nsg138
VEichah Rabbah 2:12
p762
sg140
(lp763
sg142
g93
sg143
Nsg144
(lp764
I2
aI12
asg146
Nsg147
g762
sg148
(lp765
sg150
g60
sg151
Nsg152
Nsg153
Nsbag2
(g3
g4
Ntp766
Rp767
(dp768
g8
g11
sg131
Nsg132
(dp769
sg134
Nsg26
g29
sg135
(lp770
I2
aI13
asg137
Nsg138
VEichah Rabbah 2:13
p771
sg140
(lp772
sg142
g93
sg143
Nsg144
(lp773
I2
aI13
asg146
Nsg147
g771
sg148
(lp774
sg150
g60
sg151
Nsg152
Nsg153
Nsbag2
(g3
g4
Ntp775
Rp776
(dp777
g8
g11
sg131
Nsg132
(dp778
sg134
Nsg26
g29
sg135
(lp779
I2
aI14
asg137
Nsg138
VEichah Rabbah 2:14
p780
sg140
(lp781
sg142
g93
sg143
Nsg144
(lp782
I2
aI14
asg146
Nsg147
g780
sg148
(lp783
sg150
g60
sg151
Nsg152
Nsg153
Nsbag2
(g3
g4
Ntp784
Rp785
(dp786
g8
g11
sg131
Nsg132
(dp787
sg134
Nsg26
g29
sg135
(lp788
I2
aI15
asg137
Nsg138
VEichah Rabbah 2:15
p789
sg140
(lp790
sg142
g93
sg143
Nsg144
(lp791
I2
aI15
asg146
Nsg147
g789
sg148
(lp792
sg150
g60
sg151
Nsg152
Nsg153
Nsbag2
(g3
g4
Ntp793
Rp794
(dp795
g8
g11
sg131
Nsg132
(dp796
sg134
Nsg26
g29
sg135
(lp797
I2
aI16
asg137
Nsg138
VEichah Rabbah 2:16
p798
sg140
(lp799
sg142
g93
sg143
Nsg144
(lp800
I2
aI16
asg146
Nsg147
g798
sg148
(lp801
sg150
g60
sg151
Nsg152
Nsg153
Nsbag2
(g3
g4
Ntp802
Rp803
(dp804
g8
g11
sg131
Nsg132
(dp805
sg134
Nsg26
g29
sg135
(lp806
I2
aI17
asg137
Nsg138
VEichah Rabbah 2:17
p807
sg140
(lp808
sg142
g93
sg143
Nsg144
(lp809
I2
aI17
asg146
Nsg147
g807
sg148
(lp810
sg150
g60
sg151
Nsg152
Nsg153
Nsbag2
(g3
g4
Ntp811
Rp812
(dp813
g8
g11
sg131
Nsg132
(dp814
sg134
Nsg26
g29
sg135
(lp815
I2
aI18
asg137
Nsg138
VEichah Rabbah 2:18
p816
sg140
(lp817
sg142
g93
sg143
Nsg144
(lp818
I2
aI18
asg146
Nsg147
g816
sg148
(lp819
sg150
g60
sg151
Nsg152
Nsg153
Nsbag2
(g3
g4
Ntp820
Rp821
(dp822
g8
g11
sg131
Nsg132
(dp823
sg134
Nsg26
g29
sg135
(lp824
I2
aI19
asg137
Nsg138
VEichah Rabbah 2:19
p825
sg140
(lp826
sg142
g93
sg143
Nsg144
(lp827
I2
aI19
asg146
Nsg147
g825
sg148
(lp828
sg150
g60
sg151
Nsg152
Nsg153
Nsbag2
(g3
g4
Ntp829
Rp830
(dp831
g8
g11
sg131
Nsg132
(dp832
sg134
Nsg26
g29
sg135
(lp833
I2
aI20
asg137
Nsg138
VEichah Rabbah 2:20
p834
sg140
(lp835
sg142
g93
sg143
Nsg144
(lp836
I2
aI20
asg146
Nsg147
g834
sg148
(lp837
sg150
g60
sg151
Nsg152
Nsg153
Nsbag2
(g3
g4
Ntp838
Rp839
(dp840
g8
g11
sg131
Nsg132
(dp841
sg134
Nsg26
g29
sg135
(lp842
I2
aI21
asg137
Nsg138
VEichah Rabbah 2:21
p843
sg140
(lp844
sg142
g93
sg143
Nsg144
(lp845
I2
aI21
asg146
Nsg147
g843
sg148
(lp846
sg150
g60
sg151
Nsg152
Nsg153
Nsbag2
(g3
g4
Ntp847
Rp848
(dp849
g8
g11
sg131
Nsg132
(dp850
sg134
Nsg26
g29
sg135
(lp851
I2
aI22
asg137
Nsg138
VEichah Rabbah 2:22
p852
sg140
(lp853
sg142
g93
sg143
Nsg144
(lp854
I2
aI22
asg146
Nsg147
g852
sg148
(lp855
sg150
g60
sg151
Nsg152
Nsg153
Nsbag2
(g3
g4
Ntp856
Rp857
(dp858
g8
g11
sg131
Nsg132
(dp859
sg134
Nsg26
g29
sg135
(lp860
I2
aI23
asg137
Nsg138
VEichah Rabbah 2:23
p861
sg140
(lp862
sg142
g93
sg143
Nsg144
(lp863
I2
aI23
asg146
Nsg147
g861
sg148
(lp864
sg150
g60
sg151
Nsg152
Nsg153
Nsbag2
(g3
g4
Ntp865
Rp866
(dp867
g8
g11
sg131
Nsg132
(dp868
sg134
Nsg26
g29
sg135
(lp869
I3
aI1
asg137
Nsg138
VEichah Rabbah 3:1
p870
sg140
(lp871
sg142
g93
sg143
Nsg144
(lp872
I3
aI1
asg146
Nsg147
g870
sg148
(lp873
sg150
g60
sg151
Nsg152
Nsg153
Nsbag2
(g3
g4
Ntp874
Rp875
(dp876
g8
g11
sg131
Nsg132
(dp877
sg134
Nsg26
g29
sg135
(lp878
I3
aI2
asg137
Nsg138
VEichah Rabbah 3:2
p879
sg140
(lp880
sg142
g93
sg143
Nsg144
(lp881
I3
aI2
asg146
Nsg147
g879
sg148
(lp882
sg150
g60
sg151
Nsg152
Nsg153
Nsbag2
(g3
g4
Ntp883
Rp884
(dp885
g8
g11
sg131
Nsg132
(dp886
sg134
Nsg26
g29
sg135
(lp887
I3
aI3
asg137
Nsg138
VEichah Rabbah 3:3
p888
sg140
(lp889
sg142
g93
sg143
Nsg144
(lp890
I3
aI3
asg146
Nsg147
g888
sg148
(lp891
sg150
g60
sg151
Nsg152
Nsg153
Nsbag2
(g3
g4
Ntp892
Rp893
(dp894
g8
g11
sg131
Nsg132
(dp895
sg134
Nsg26
g29
sg135
(lp896
I3
aI4
asg137
Nsg138
VEichah Rabbah 3:4
p897
sg140
(lp898
sg142
g93
sg143
Nsg144
(lp899
I3
aI4
asg146
Nsg147
g897
sg148
(lp900
sg150
g60
sg151
Nsg152
Nsg153
Nsbag2
(g3
g4
Ntp901
Rp902
(dp903
g8
g11
sg131
Nsg132
(dp904
sg134
Nsg26
g29
sg135
(lp905
I3
aI5
asg137
Nsg138
VEichah Rabbah 3:5
p906
sg140
(lp907
sg142
g93
sg143
Nsg144
(lp908
I3
aI5
asg146
Nsg147
g906
sg148
(lp909
sg150
g60
sg151
Nsg152
Nsg153
Nsbag2
(g3
g4
Ntp910
Rp911
(dp912
g8
g11
sg131
Nsg132
(dp913
sg134
Nsg26
g29
sg135
(lp914
I3
aI6
asg137
Nsg138
VEichah Rabbah 3:6
p915
sg140
(lp916
sg142
g93
sg143
Nsg144
(lp917
I3
aI6
asg146
Nsg147
g915
sg148
(lp918
sg150
g60
sg151
Nsg152
Nsg153
Nsbag2
(g3
g4
Ntp919
Rp920
(dp921
g8
g11
sg131
Nsg132
(dp922
sg134
Nsg26
g29
sg135
(lp923
I3
aI7
asg137
Nsg138
VEichah Rabbah 3:7
p924
sg140
(lp925
sg142
g93
sg143
Nsg144
(lp926
I3
aI7
asg146
Nsg147
g924
sg148
(lp927
sg150
g60
sg151
Nsg152
Nsg153
Nsbag2
(g3
g4
Ntp928
Rp929
(dp930
g8
g11
sg131
Nsg132
(dp931
sg134
Nsg26
g29
sg135
(lp932
I3
aI8
asg137
Nsg138
VEichah Rabbah 3:8
p933
sg140
(lp934
sg142
g93
sg143
Nsg144
(lp935
I3
aI8
asg146
Nsg147
g933
sg148
(lp936
sg150
g60
sg151
Nsg152
Nsg153
Nsbag2
(g3
g4
Ntp937
Rp938
(dp939
g8
g11
sg131
Nsg132
(dp940
sg134
Nsg26
g29
sg135
(lp941
I3
aI9
asg137
Nsg138
VEichah Rabbah 3:9
p942
sg140
(lp943
sg142
g93
sg143
Nsg144
(lp944
I3
aI9
asg146
Nsg147
g942
sg148
(lp945
sg150
g60
sg151
Nsg152
Nsg153
Nsbag2
(g3
g4
Ntp946
Rp947
(dp948
g8
g11
sg131
Nsg132
(dp949
sg134
Nsg26
g29
sg135
(lp950
I3
aI10
asg137
Nsg138
VEichah Rabbah 3:10
p951
sg140
(lp952
sg142
g93
sg143
Nsg144
(lp953
I3
aI10
asg146
Nsg147
g951
sg148
(lp954
sg150
g60
sg151
Nsg152
Nsg153
Nsbag2
(g3
g4
Ntp955
Rp956
(dp957
g8
g11
sg131
Nsg132
(dp958
sg134
Nsg26
g29
sg135
(lp959
I3
aI11
asg137
Nsg138
VEichah Rabbah 3:11
p960
sg140
(lp961
sg142
g93
sg143
Nsg144
(lp962
I3
aI11
asg146
Nsg147
g960
sg148
(lp963
sg150
g60
sg151
Nsg152
Nsg153
Nsbag2
(g3
g4
Ntp964
Rp965
(dp966
g8
g11
sg131
Nsg132
(dp967
sg134
Nsg26
g29
sg135
(lp968
I3
aI12
asg137
Nsg138
VEichah Rabbah 3:12
p969
sg140
(lp970
sg142
g93
sg143
Nsg144
(lp971
I3
aI12
asg146
Nsg147
g969
sg148
(lp972
sg150
g60
sg151
Nsg152
Nsg153
Nsbag2
(g3
g4
Ntp973
Rp974
(dp975
g8
g11
sg131
Nsg132
(dp976
sg134
Nsg26
g29
sg135
(lp977
I3
aI13
asg137
Nsg138
VEichah Rabbah 3:13
p978
sg140
(lp979
sg142
g93
sg143
Nsg144
(lp980
I3
aI13
asg146
Nsg147
g978
sg148
(lp981
sg150
g60
sg151
Nsg152
Nsg153
Nsbag2
(g3
g4
Ntp982
Rp983
(dp984
g8
g11
sg131
Nsg132
(dp985
sg134
Nsg26
g29
sg135
(lp986
I3
aI14
asg137
Nsg138
VEichah Rabbah 3:14
p987
sg140
(lp988
sg142
g93
sg143
Nsg144
(lp989
I3
aI14
asg146
Nsg147
g987
sg148
(lp990
sg150
g60
sg151
Nsg152
Nsg153
Nsbag2
(g3
g4
Ntp991
Rp992
(dp993
g8
g11
sg131
Nsg132
(dp994
sg134
Nsg26
g29
sg135
(lp995
I3
aI15
asg137
Nsg138
VEichah Rabbah 3:15
p996
sg140
(lp997
sg142
g93
sg143
Nsg144
(lp998
I3
aI15
asg146
Nsg147
g996
sg148
(lp999
sg150
g60
sg151
Nsg152
Nsg153
Nsbag2
(g3
g4
Ntp1000
Rp1001
(dp1002
g8
g11
sg131
Nsg132
(dp1003
sg134
Nsg26
g29
sg135
(lp1004
I3
aI16
asg137
Nsg138
VEichah Rabbah 3:16
p1005
sg140
(lp1006
sg142
g93
sg143
Nsg144
(lp1007
I3
aI16
asg146
Nsg147
g1005
sg148
(lp1008
sg150
g60
sg151
Nsg152
Nsg153
Nsbag2
(g3
g4
Ntp1009
Rp1010
(dp1011
g8
g11
sg131
Nsg132
(dp1012
sg134
Nsg26
g29
sg135
(lp1013
I3
aI17
asg137
Nsg138
VEichah Rabbah 3:17
p1014
sg140
(lp1015
sg142
g93
sg143
Nsg144
(lp1016
I3
aI17
asg146
Nsg147
g1014
sg148
(lp1017
sg150
g60
sg151
Nsg152
Nsg153
Nsbag2
(g3
g4
Ntp1018
Rp1019
(dp1020
g8
g11
sg131
Nsg132
(dp1021
sg134
Nsg26
g29
sg135
(lp1022
I3
aI18
asg137
Nsg138
VEichah Rabbah 3:18
p1023
sg140
(lp1024
sg142
g93
sg143
Nsg144
(lp1025
I3
aI18
asg146
Nsg147
g1023
sg148
(lp1026
sg150
g60
sg151
Nsg152
Nsg153
Nsbag2
(g3
g4
Ntp1027
Rp1028
(dp1029
g8
g11
sg131
Nsg132
(dp1030
sg134
Nsg26
g29
sg135
(lp1031
I3
aI19
asg137
Nsg138
VEichah Rabbah 3:19
p1032
sg140
(lp1033
sg142
g93
sg143
Nsg144
(lp1034
I3
aI19
asg146
Nsg147
g1032
sg148
(lp1035
sg150
g60
sg151
Nsg152
Nsg153
Nsbag2
(g3
g4
Ntp1036
Rp1037
(dp1038
g8
g11
sg131
Nsg132
(dp1039
sg134
Nsg26
g29
sg135
(lp1040
I3
aI20
asg137
Nsg138
VEichah Rabbah 3:20
p1041
sg140
(lp1042
sg142
g93
sg143
Nsg144
(lp1043
I3
aI20
asg146
Nsg147
g1041
sg148
(lp1044
sg150
g60
sg151
Nsg152
Nsg153
Nsbag2
(g3
g4
Ntp1045
Rp1046
(dp1047
g8
g11
sg131
Nsg132
(dp1048
sg134
Nsg26
g29
sg135
(lp1049
I3
aI21
asg137
Nsg138
VEichah Rabbah 3:21
p1050
sg140
(lp1051
sg142
g93
sg143
Nsg144
(lp1052
I3
aI21
asg146
Nsg147
g1050
sg148
(lp1053
sg150
g60
sg151
Nsg152
Nsg153
Nsbag2
(g3
g4
Ntp1054
Rp1055
(dp1056
g8
g11
sg131
Nsg132
(dp1057
sg134
Nsg26
g29
sg135
(lp1058
I3
aI22
asg137
Nsg138
VEichah Rabbah 3:22
p1059
sg140
(lp1060
sg142
g93
sg143
Nsg144
(lp1061
I3
aI22
asg146
Nsg147
g1059
sg148
(lp1062
sg150
g60
sg151
Nsg152
Nsg153
Nsbag2
(g3
g4
Ntp1063
Rp1064
(dp1065
g8
g11
sg131
Nsg132
(dp1066
sg134
Nsg26
g29
sg135
(lp1067
I3
aI23
asg137
Nsg138
VEichah Rabbah 3:23
p1068
sg140
(lp1069
sg142
g93
sg143
Nsg144
(lp1070
I3
aI23
asg146
Nsg147
g1068
sg148
(lp1071
sg150
g60
sg151
Nsg152
Nsg153
Nsbag2
(g3
g4
Ntp1072
Rp1073
(dp1074
g8
g11
sg131
Nsg132
(dp1075
sg134
Nsg26
g29
sg135
(lp1076
I4
aI1
asg137
Nsg138
VEichah Rabbah 4:1
p1077
sg140
(lp1078
sg142
g93
sg143
Nsg144
(lp1079
I4
aI1
asg146
Nsg147
g1077
sg148
(lp1080
sg150
g60
sg151
Nsg152
Nsg153
Nsbag2
(g3
g4
Ntp1081
Rp1082
(dp1083
g8
g11
sg131
Nsg132
(dp1084
sg134
Nsg26
g29
sg135
(lp1085
I4
aI2
asg137
Nsg138
VEichah Rabbah 4:2
p1086
sg140
(lp1087
sg142
g93
sg143
Nsg144
(lp1088
I4
aI2
asg146
Nsg147
g1086
sg148
(lp1089
sg150
g60
sg151
Nsg152
Nsg153
Nsbag2
(g3
g4
Ntp1090
Rp1091
(dp1092
g8
g11
sg131
Nsg132
(dp1093
sg134
Nsg26
g29
sg135
(lp1094
I4
aI3
asg137
Nsg138
VEichah Rabbah 4:3
p1095
sg140
(lp1096
sg142
g93
sg143
Nsg144
(lp1097
I4
aI3
asg146
Nsg147
g1095
sg148
(lp1098
sg150
g60
sg151
Nsg152
Nsg153
Nsbag2
(g3
g4
Ntp1099
Rp1100
(dp1101
g8
g11
sg131
Nsg132
(dp1102
sg134
Nsg26
g29
sg135
(lp1103
I4
aI4
asg137
Nsg138
VEichah Rabbah 4:4
p1104
sg140
(lp1105
sg142
g93
sg143
Nsg144
(lp1106
I4
aI4
asg146
Nsg147
g1104
sg148
(lp1107
sg150
g60
sg151
Nsg152
Nsg153
Nsbag2
(g3
g4
Ntp1108
Rp1109
(dp1110
g8
g11
sg131
Nsg132
(dp1111
sg134
Nsg26
g29
sg135
(lp1112
I4
aI5
asg137
Nsg138
VEichah Rabbah 4:5
p1113
sg140
(lp1114
sg142
g93
sg143
Nsg144
(lp1115
I4
aI5
asg146
Nsg147
g1113
sg148
(lp1116
sg150
g60
sg151
Nsg152
Nsg153
Nsbag2
(g3
g4
Ntp1117
Rp1118
(dp1119
g8
g11
sg131
Nsg132
(dp1120
sg134
Nsg26
g29
sg135
(lp1121
I4
aI6
asg137
Nsg138
VEichah Rabbah 4:6
p1122
sg140
(lp1123
sg142
g93
sg143
Nsg144
(lp1124
I4
aI6
asg146
Nsg147
g1122
sg148
(lp1125
sg150
g60
sg151
Nsg152
Nsg153
Nsbag2
(g3
g4
Ntp1126
Rp1127
(dp1128
g8
g11
sg131
Nsg132
(dp1129
sg134
Nsg26
g29
sg135
(lp1130
I4
aI7
asg137
Nsg138
VEichah Rabbah 4:7
p1131
sg140
(lp1132
sg142
g93
sg143
Nsg144
(lp1133
I4
aI7
asg146
Nsg147
g1131
sg148
(lp1134
sg150
g60
sg151
Nsg152
Nsg153
Nsbag2
(g3
g4
Ntp1135
Rp1136
(dp1137
g8
g11
sg131
Nsg132
(dp1138
sg134
Nsg26
g29
sg135
(lp1139
I4
aI8
asg137
Nsg138
VEichah Rabbah 4:8
p1140
sg140
(lp1141
sg142
g93
sg143
Nsg144
(lp1142
I4
aI8
asg146
Nsg147
g1140
sg148
(lp1143
sg150
g60
sg151
Nsg152
Nsg153
Nsbag2
(g3
g4
Ntp1144
Rp1145
(dp1146
g8
g11
sg131
Nsg132
(dp1147
sg134
Nsg26
g29
sg135
(lp1148
I4
aI9
asg137
Nsg138
VEichah Rabbah 4:9
p1149
sg140
(lp1150
sg142
g93
sg143
Nsg144
(lp1151
I4
aI9
asg146
Nsg147
g1149
sg148
(lp1152
sg150
g60
sg151
Nsg152
Nsg153
Nsbag2
(g3
g4
Ntp1153
Rp1154
(dp1155
g8
g11
sg131
Nsg132
(dp1156
sg134
Nsg26
g29
sg135
(lp1157
I4
aI10
asg137
Nsg138
VEichah Rabbah 4:10
p1158
sg140
(lp1159
sg142
g93
sg143
Nsg144
(lp1160
I4
aI10
asg146
Nsg147
g1158
sg148
(lp1161
sg150
g60
sg151
Nsg152
Nsg153
Nsbag2
(g3
g4
Ntp1162
Rp1163
(dp1164
g8
g11
sg131
Nsg132
(dp1165
sg134
Nsg26
g29
sg135
(lp1166
I4
aI11
asg137
Nsg138
VEichah Rabbah 4:11
p1167
sg140
(lp1168
sg142
g93
sg143
Nsg144
(lp1169
I4
aI11
asg146
Nsg147
g1167
sg148
(lp1170
sg150
g60
sg151
Nsg152
Nsg153
Nsbag2
(g3
g4
Ntp1171
Rp1172
(dp1173
g8
g11
sg131
Nsg132
(dp1174
sg134
Nsg26
g29
sg135
(lp1175
I4
aI12
asg137
Nsg138
VEichah Rabbah 4:12
p1176
sg140
(lp1177
sg142
g93
sg143
Nsg144
(lp1178
I4
aI12
asg146
Nsg147
g1176
sg148
(lp1179
sg150
g60
sg151
Nsg152
Nsg153
Nsbag2
(g3
g4
Ntp1180
Rp1181
(dp1182
g8
g11
sg131
Nsg132
(dp1183
sg134
Nsg26
g29
sg135
(lp1184
I4
aI13
asg137
Nsg138
VEichah Rabbah 4:13
p1185
sg140
(lp1186
sg142
g93
sg143
Nsg144
(lp1187
I4
aI13
asg146
Nsg147
g1185
sg148
(lp1188
sg150
g60
sg151
Nsg152
Nsg153
Nsbag2
(g3
g4
Ntp1189
Rp1190
(dp1191
g8
g11
sg131
Nsg132
(dp1192
sg134
Nsg26
g29
sg135
(lp1193
I4
aI14
asg137
Nsg138
VEichah Rabbah 4:14
p1194
sg140
(lp1195
sg142
g93
sg143
Nsg144
(lp1196
I4
aI14
asg146
Nsg147
g1194
sg148
(lp1197
sg150
g60
sg151
Nsg152
Nsg153
Nsbag2
(g3
g4
Ntp1198
Rp1199
(dp1200
g8
g11
sg131
Nsg132
(dp1201
sg134
Nsg26
g29
sg135
(lp1202
I4
aI15
asg137
Nsg138
VEichah Rabbah 4:15
p1203
sg140
(lp1204
sg142
g93
sg143
Nsg144
(lp1205
I4
aI15
asg146
Nsg147
g1203
sg148
(lp1206
sg150
g60
sg151
Nsg152
Nsg153
Nsbag2
(g3
g4
Ntp1207
Rp1208
(dp1209
g8
g11
sg131
Nsg132
(dp1210
sg134
Nsg26
g29
sg135
(lp1211
I4
aI16
asg137
Nsg138
VEichah Rabbah 4:16
p1212
sg140
(lp1213
sg142
g93
sg143
Nsg144
(lp1214
I4
aI16
asg146
Nsg147
g1212
sg148
(lp1215
sg150
g60
sg151
Nsg152
Nsg153
Nsbag2
(g3
g4
Ntp1216
Rp1217
(dp1218
g8
g11
sg131
Nsg132
(dp1219
sg134
Nsg26
g29
sg135
(lp1220
I4
aI17
asg137
Nsg138
VEichah Rabbah 4:17
p1221
sg140
(lp1222
sg142
g93
sg143
Nsg144
(lp1223
I4
aI17
asg146
Nsg147
g1221
sg148
(lp1224
sg150
g60
sg151
Nsg152
Nsg153
Nsbag2
(g3
g4
Ntp1225
Rp1226
(dp1227
g8
g11
sg131
Nsg132
(dp1228
sg134
Nsg26
g29
sg135
(lp1229
I4
aI18
asg137
Nsg138
VEichah Rabbah 4:18
p1230
sg140
(lp1231
sg142
g93
sg143
Nsg144
(lp1232
I4
aI18
asg146
Nsg147
g1230
sg148
(lp1233
sg150
g60
sg151
Nsg152
Nsg153
Nsbag2
(g3
g4
Ntp1234
Rp1235
(dp1236
g8
g11
sg131
Nsg132
(dp1237
sg134
Nsg26
g29
sg135
(lp1238
I4
aI19
asg137
Nsg138
VEichah Rabbah 4:19
p1239
sg140
(lp1240
sg142
g93
sg143
Nsg144
(lp1241
I4
aI19
asg146
Nsg147
g1239
sg148
(lp1242
sg150
g60
sg151
Nsg152
Nsg153
Nsbag2
(g3
g4
Ntp1243
Rp1244
(dp1245
g8
g11
sg131
Nsg132
(dp1246
sg134
Nsg26
g29
sg135
(lp1247
I4
aI20
asg137
Nsg138
VEichah Rabbah 4:20
p1248
sg140
(lp1249
sg142
g93
sg143
Nsg144
(lp1250
I4
aI20
asg146
Nsg147
g1248
sg148
(lp1251
sg150
g60
sg151
Nsg152
Nsg153
Nsbag2
(g3
g4
Ntp1252
Rp1253
(dp1254
g8
g11
sg131
Nsg132
(dp1255
sg134
Nsg26
g29
sg135
(lp1256
I4
aI21
asg137
Nsg138
VEichah Rabbah 4:21
p1257
sg140
(lp1258
sg142
g93
sg143
Nsg144
(lp1259
I4
aI21
asg146
Nsg147
g1257
sg148
(lp1260
sg150
g60
sg151
Nsg152
Nsg153
Nsbag2
(g3
g4
Ntp1261
Rp1262
(dp1263
g8
g11
sg131
Nsg132
(dp1264
sg134
Nsg26
g29
sg135
(lp1265
I4
aI22
asg137
Nsg138
VEichah Rabbah 4:22
p1266
sg140
(lp1267
sg142
g93
sg143
Nsg144
(lp1268
I4
aI22
asg146
Nsg147
g1266
sg148
(lp1269
sg150
g60
sg151
Nsg152
Nsg153
Nsbag2
(g3
g4
Ntp1270
Rp1271
(dp1272
g8
g11
sg131
Nsg132
(dp1273
sg134
Nsg26
g29
sg135
(lp1274
I4
aI23
asg137
Nsg138
VEichah Rabbah 4:23
p1275
sg140
(lp1276
sg142
g93
sg143
Nsg144
(lp1277
I4
aI23
asg146
Nsg147
g1275
sg148
(lp1278
sg150
g60
sg151
Nsg152
Nsg153
Nsbag2
(g3
g4
Ntp1279
Rp1280
(dp1281
g8
g11
sg131
Nsg132
(dp1282
sg134
Nsg26
g29
sg135
(lp1283
I4
aI24
asg137
Nsg138
VEichah Rabbah 4:24
p1284
sg140
(lp1285
sg142
g93
sg143
Nsg144
(lp1286
I4
aI24
asg146
Nsg147
g1284
sg148
(lp1287
sg150
g60
sg151
Nsg152
Nsg153
Nsbag2
(g3
g4
Ntp1288
Rp1289
(dp1290
g8
g11
sg131
Nsg132
(dp1291
sg134
Nsg26
g29
sg135
(lp1292
I4
aI25
asg137
Nsg138
VEichah Rabbah 4:25
p1293
sg140
(lp1294
sg142
g93
sg143
Nsg144
(lp1295
I4
aI25
asg146
Nsg147
g1293
sg148
(lp1296
sg150
g60
sg151
Nsg152
Nsg153
Nsbag2
(g3
g4
Ntp1297
Rp1298
(dp1299
g8
g11
sg131
Nsg132
(dp1300
sg134
Nsg26
g29
sg135
(lp1301
I5
aI1
asg137
Nsg138
VEichah Rabbah 5:1
p1302
sg140
(lp1303
sg142
g93
sg143
Nsg144
(lp1304
I5
aI1
asg146
Nsg147
g1302
sg148
(lp1305
sg150
g60
sg151
Nsg152
Nsg153
Nsbag2
(g3
g4
Ntp1306
Rp1307
(dp1308
g8
g11
sg131
Nsg132
(dp1309
sg134
Nsg26
g29
sg135
(lp1310
I5
aI2
asg137
Nsg138
VEichah Rabbah 5:2
p1311
sg140
(lp1312
sg142
g93
sg143
Nsg144
(lp1313
I5
aI2
asg146
Nsg147
g1311
sg148
(lp1314
sg150
g60
sg151
Nsg152
Nsg153
Nsbag2
(g3
g4
Ntp1315
Rp1316
(dp1317
g8
g11
sg131
Nsg132
(dp1318
sg134
Nsg26
g29
sg135
(lp1319
I5
aI3
asg137
Nsg138
VEichah Rabbah 5:3
p1320
sg140
(lp1321
sg142
g93
sg143
Nsg144
(lp1322
I5
aI3
asg146
Nsg147
g1320
sg148
(lp1323
sg150
g60
sg151
Nsg152
Nsg153
Nsbag2
(g3
g4
Ntp1324
Rp1325
(dp1326
g8
g11
sg131
Nsg132
(dp1327
sg134
Nsg26
g29
sg135
(lp1328
I5
aI4
asg137
Nsg138
VEichah Rabbah 5:4
p1329
sg140
(lp1330
sg142
g93
sg143
Nsg144
(lp1331
I5
aI4
asg146
Nsg147
g1329
sg148
(lp1332
sg150
g60
sg151
Nsg152
Nsg153
Nsbag2
(g3
g4
Ntp1333
Rp1334
(dp1335
g8
g11
sg131
Nsg132
(dp1336
sg134
Nsg26
g29
sg135
(lp1337
I5
aI5
asg137
Nsg138
VEichah Rabbah 5:5
p1338
sg140
(lp1339
sg142
g93
sg143
Nsg144
(lp1340
I5
aI5
asg146
Nsg147
g1338
sg148
(lp1341
sg150
g60
sg151
Nsg152
Nsg153
Nsbag2
(g3
g4
Ntp1342
Rp1343
(dp1344
g8
g11
sg131
Nsg132
(dp1345
sg134
Nsg26
g29
sg135
(lp1346
I5
aI6
asg137
Nsg138
VEichah Rabbah 5:6
p1347
sg140
(lp1348
sg142
g93
sg143
Nsg144
(lp1349
I5
aI6
asg146
Nsg147
g1347
sg148
(lp1350
sg150
g60
sg151
Nsg152
Nsg153
Nsbag2
(g3
g4
Ntp1351
Rp1352
(dp1353
g8
g11
sg131
Nsg132
(dp1354
sg134
Nsg26
g29
sg135
(lp1355
I5
aI7
asg137
Nsg138
VEichah Rabbah 5:7
p1356
sg140
(lp1357
sg142
g93
sg143
Nsg144
(lp1358
I5
aI7
asg146
Nsg147
g1356
sg148
(lp1359
sg150
g60
sg151
Nsg152
Nsg153
Nsbag2
(g3
g4
Ntp1360
Rp1361
(dp1362
g8
g11
sg131
Nsg132
(dp1363
sg134
Nsg26
g29
sg135
(lp1364
I5
aI8
asg137
Nsg138
VEichah Rabbah 5:8
p1365
sg140
(lp1366
sg142
g93
sg143
Nsg144
(lp1367
I5
aI8
asg146
Nsg147
g1365
sg148
(lp1368
sg150
g60
sg151
Nsg152
Nsg153
Nsbag2
(g3
g4
Ntp1369
Rp1370
(dp1371
g8
g11
sg131
Nsg132
(dp1372
sg134
Nsg26
g29
sg135
(lp1373
I5
aI9
asg137
Nsg138
VEichah Rabbah 5:9
p1374
sg140
(lp1375
sg142
g93
sg143
Nsg144
(lp1376
I5
aI9
asg146
Nsg147
g1374
sg148
(lp1377
sg150
g60
sg151
Nsg152
Nsg153
Nsbag2
(g3
g4
Ntp1378
Rp1379
(dp1380
g8
g11
sg131
Nsg132
(dp1381
sg134
Nsg26
g29
sg135
(lp1382
I5
aI10
asg137
Nsg138
VEichah Rabbah 5:10
p1383
sg140
(lp1384
sg142
g93
sg143
Nsg144
(lp1385
I5
aI10
asg146
Nsg147
g1383
sg148
(lp1386
sg150
g60
sg151
Nsg152
Nsg153
Nsbag2
(g3
g4
Ntp1387
Rp1388
(dp1389
g8
g11
sg131
Nsg132
(dp1390
sg134
Nsg26
g29
sg135
(lp1391
I5
aI11
asg137
Nsg138
VEichah Rabbah 5:11
p1392
sg140
(lp1393
sg142
g93
sg143
Nsg144
(lp1394
I5
aI11
asg146
Nsg147
g1392
sg148
(lp1395
sg150
g60
sg151
Nsg152
Nsg153
Nsbag2
(g3
g4
Ntp1396
Rp1397
(dp1398
g8
g11
sg131
Nsg132
(dp1399
sg134
Nsg26
g29
sg135
(lp1400
I5
aI12
asg137
Nsg138
VEichah Rabbah 5:12
p1401
sg140
(lp1402
sg142
g93
sg143
Nsg144
(lp1403
I5
aI12
asg146
Nsg147
g1401
sg148
(lp1404
sg150
g60
sg151
Nsg152
Nsg153
Nsbag2
(g3
g4
Ntp1405
Rp1406
(dp1407
g8
g11
sg131
Nsg132
(dp1408
sg134
Nsg26
g29
sg135
(lp1409
I5
aI13
asg137
Nsg138
VEichah Rabbah 5:13
p1410
sg140
(lp1411
sg142
g93
sg143
Nsg144
(lp1412
I5
aI13
asg146
Nsg147
g1410
sg148
(lp1413
sg150
g60
sg151
Nsg152
Nsg153
Nsbag2
(g3
g4
Ntp1414
Rp1415
(dp1416
g8
g11
sg131
Nsg132
(dp1417
sg134
Nsg26
g29
sg135
(lp1418
I5
aI14
asg137
Nsg138
VEichah Rabbah 5:14
p1419
sg140
(lp1420
sg142
g93
sg143
Nsg144
(lp1421
I5
aI14
asg146
Nsg147
g1419
sg148
(lp1422
sg150
g60
sg151
Nsg152
Nsg153
Nsbag2
(g3
g4
Ntp1423
Rp1424
(dp1425
g8
g11
sg131
Nsg132
(dp1426
sg134
Nsg26
g29
sg135
(lp1427
I5
aI15
asg137
Nsg138
VEichah Rabbah 5:15
p1428
sg140
(lp1429
sg142
g93
sg143
Nsg144
(lp1430
I5
aI15
asg146
Nsg147
g1428
sg148
(lp1431
sg150
g60
sg151
Nsg152
Nsg153
Nsbag2
(g3
g4
Ntp1432
Rp1433
(dp1434
g8
g11
sg131
Nsg132
(dp1435
sg134
Nsg26
g29
sg135
(lp1436
I5
aI16
asg137
Nsg138
VEichah Rabbah 5:16
p1437
sg140
(lp1438
sg142
g93
sg143
Nsg144
(lp1439
I5
aI16
asg146
Nsg147
g1437
sg148
(lp1440
sg150
g60
sg151
Nsg152
Nsg153
Nsbag2
(g3
g4
Ntp1441
Rp1442
(dp1443
g8
g11
sg131
Nsg132
(dp1444
sg134
Nsg26
g29
sg135
(lp1445
I5
aI17
asg137
Nsg138
VEichah Rabbah 5:17
p1446
sg140
(lp1447
sg142
g93
sg143
Nsg144
(lp1448
I5
aI17
asg146
Nsg147
g1446
sg148
(lp1449
sg150
g60
sg151
Nsg152
Nsg153
Nsbag2
(g3
g4
Ntp1450
Rp1451
(dp1452
g8
g11
sg131
Nsg132
(dp1453
sg134
Nsg26
g29
sg135
(lp1454
I5
aI18
asg137
Nsg138
VEichah Rabbah 5:18
p1455
sg140
(lp1456
sg142
g93
sg143
Nsg144
(lp1457
I5
aI18
asg146
Nsg147
g1455
sg148
(lp1458
sg150
g60
sg151
Nsg152
Nsg153
Nsbag2
(g3
g4
Ntp1459
Rp1460
(dp1461
g8
g11
sg131
Nsg132
(dp1462
sg134
Nsg26
g29
sg135
(lp1463
I5
aI19
asg137
Nsg138
VEichah Rabbah 5:19
p1464
sg140
(lp1465
sg142
g93
sg143
Nsg144
(lp1466
I5
aI19
asg146
Nsg147
g1464
sg148
(lp1467
sg150
g60
sg151
Nsg152
Nsg153
Nsbag2
(g3
g4
Ntp1468
Rp1469
(dp1470
g8
g11
sg131
Nsg132
(dp1471
sg134
Nsg26
g29
sg135
(lp1472
I5
aI20
asg137
Nsg138
VEichah Rabbah 5:20
p1473
sg140
(lp1474
sg142
g93
sg143
Nsg144
(lp1475
I5
aI20
asg146
Nsg147
g1473
sg148
(lp1476
sg150
g60
sg151
Nsg152
Nsg153
Nsbag2
(g3
g4
Ntp1477
Rp1478
(dp1479
g8
g11
sg131
Nsg132
(dp1480
sg134
Nsg26
g29
sg135
(lp1481
I5
aI21
asg137
Nsg138
VEichah Rabbah 5:21
p1482
sg140
(lp1483
sg142
g93
sg143
Nsg144
(lp1484
I5
aI21
asg146
Nsg147
g1482
sg148
(lp1485
sg150
g60
sg151
Nsg152
Nsg153
Nsbag2
(g3
g4
Ntp1486
Rp1487
(dp1488
g8
g11
sg131
Nsg132
(dp1489
sg134
Nsg26
g29
sg135
(lp1490
I5
aI22
asg137
Nsg138
VEichah Rabbah 5:22
p1491
sg140
(lp1492
sg142
g93
sg143
Nsg144
(lp1493
I5
aI22
asg146
Nsg147
g1491
sg148
(lp1494
sg150
g60
sg151
Nsg152
Nsg153
Nsbatp1495
.