((lp0
I0
aI13
aI24
aI39
aI53
aI73
aI94
aI104
aI119
aI130
aI150
aI167
aI182
aI196
aI215
aI230
aI255
aI275
aI292
aI319
aI337
aI346
aI368
aI385
aI395
aI423
aI437
aI449
aI465
aI490
aI514
aI541
aI555
aI571
aI601
aI619
aI648
aI682
aI698
aI717
aI734
aI741
aI760
aI779
aI790
aI803
aI822
aI841
aI854
aI875
aI886
aI910
aI935
aI962
aI981
aI993
aI1004
aI1044
aI1075
aI1089
aI1105
aI1125
aI1138
aI1157
aI1176
aI1193
aI1204
aI1223
aI1249
aI1256
aI1262
aI1304
aI1309
aI1322
aI1345
aI1350
aI1382
aI1390
aI1414
aI1438
aI1452
aI1467
aI1484
aI1499
aI1504
aI1531
aI1554
aI1566
aI1585
aI1608
aI1624
aI1653
aI1669
aI1688
aI1705
aI1725
aI1736
aI1758
aI1767
aI1784
aI1814
aI1838
aI1859
aI1871
aI1901
aI1916
aI1923
aI1943
aI1962
aI1980
aI1997
aI2010
aI2033
aI2063
aI2092
aI2103
aI2126
aI2142
aI2164
aI2175
aI2208
aI2222
aI2244
aI2266
aI2309
aI2326
aI2352
aI2366
aI2385
aI2398
aI2416
aI2422
aI2449
aI2479
aI2500
aI2517
aI2531
aI2542
aI2550
aI2556
aI2562
aI2570
aI2582
aI2591
aI2620
aI2642
aI2654
aI2675
aI2696
aI2710
aI2730
aI2753
aI2770
aI2788
aI2814
aI2825
aI2842
aI2862
aI2885
aI2909
aI2933
aI2949
aI2964
aI2986
aI2994
aI3003
aI3023
a(lp1
ccopy_reg
_reconstructor
p2
(csefaria.model.text
Ref
p3
c__builtin__
object
p4
Ntp5
Rp6
(dp7
S'index_node'
p8
g2
(csefaria.model.schema
JaggedArrayNode
p9
g4
Ntp10
Rp11
(dp12
S'_address'
p13
(lp14
VEsther
p15
asS'_full_titles'
p16
(dp17
sVnodeType
p18
VJaggedArrayNode
p19
sS'parent'
p20
NsVaddressTypes
p21
(lp22
VInteger
p23
aVInteger
p24
asS'default'
p25
I00
sS'index'
p26
g2
(csefaria.model.text
Index
p27
g4
Ntp28
Rp29
(dp30
S'_id'
p31
g2
(cbson.objectid
ObjectId
p32
g4
Ntp33
Rp34
S'NJ\xb8l\xed\xba\xb4X3\x00\x00!'
p35
bsS'pkeys_orig_values'
p36
(dp37
S'title'
p38
VEsther
p39
ssS'pubDate'
p40
V1488
p41
sS'compDate'
p42
V-300
p43
sS'pubPlace'
p44
VSoncino
p45
sS'compPlace'
p46
VShushan
p47
sS'enDesc'
p48
VEsther (Book of Esther ) is the fifth of the five Megillot (scrolls) of Ketuvim (Writings) the last section of the Tanakh (Bible). Esther was a Jewish queen of the Persian king Ahaverosh. Ahaverosh is traditionally identified with Xerxes I during the time of the Achaemenid Empire. The King is angered by with his Queen Vashti refusal to obey his orders and he has here replaced with Esther. Esther cousin Mordecai became chief minister of Ahaverosh and lived in the Persian capital of Susa. One day, while sitting at the gate of the king's palace. He uncovers a plot by Haman to wipe out all the Jews in the Persian Empire. Esther uses her political position to save all the Jews. The Jews established an annual feast, the feast of Purim, in memory of their deliverance. Haman set the date of Adar 13 to commence his campaign against the Jews. This determined the date of the festival of Purim.
p49
sS'order'
p50
(lp51
I34
aI8
asS'struct_objs'
p52
(dp53
sS'nodes'
p54
g11
sS'errorMargin'
p55
V100
p56
sS'_title'
p57
g39
sS'categories'
p58
(lp59
VTanakh
p60
aVWritings
p61
asS'schema'
p62
(dp63
g18
g19
sg21
g22
sVlengths
p64
(lp65
I10
aI167
asVdepth
p66
I2
sVtitles
p67
(lp68
(dp69
Vlang
p70
Ven
p71
sVtext
p72
VEst.
p73
sa(dp74
Vlang
p75
Ven
p76
sVtext
p77
VEst
p78
sa(dp79
Vlang
p80
Ven
p81
sVtext
p82
VEster
p83
sa(dp84
Vlang
p85
Vhe
p86
sVtext
p87
V\u05d0\u05e1\u05ea\u05e8
p88
sVprimary
p89
I01
sa(dp90
Vlang
p91
Ven
p92
sVtext
p93
VEsther
p94
sVprimary
p95
I01
sasVkey
p96
g15
sVsectionNames
p97
(lp98
VChapter
p99
aVVerse
p100
assbsS'_primary_title'
p101
(dp102
sS'title_group'
p103
g2
(csefaria.model.schema
TitleGroup
p104
g4
Ntp105
Rp106
(dp107
g101
(dp108
S'en'
p109
g94
ssS'titles'
p110
g68
sbsS'_addressTypes'
p111
(lp112
g2
(csefaria.model.schema
AddressInteger
p113
g4
Ntp114
Rp115
(dp116
S'length'
p117
I10
sg50
I0
sbag2
(g113
g4
Ntp118
Rp119
(dp120
g117
Nsg50
I1
sbasS'sharedTitle'
p121
Nsg64
g65
sg66
I2
sS'_full_title'
p122
(dp123
g109
g94
ssS'key'
p124
g15
sS'checkFirst'
p125
NsS'_regexes'
p126
(dp127
sS'_leaf_nodes'
p128
(lp129
sg97
g98
sS'children'
p130
(lp131
sbsS'_range_index'
p132
NsS'_context'
p133
(dp134
sS'_padded'
p135
Nsg26
g29
sS'sections'
p136
(lp137
I1
aI1
asS'_first_spanned_ref'
p138
NsS'tref'
p139
VEsther 1:1
p140
sS'_spanned_refs'
p141
(lp142
sS'book'
p143
g94
sS'_range_depth'
p144
NsS'toSections'
p145
(lp146
I1
aI1
asS'_url'
p147
NsS'_normal'
p148
g140
sS'_ranged_refs'
p149
(lp150
sS'type'
p151
g60
sS'_prev'
p152
NsS'_he_normal'
p153
NsS'_next'
p154
Nsbag2
(g3
g4
Ntp155
Rp156
(dp157
g8
g11
sg132
Nsg133
(dp158
sg135
Nsg26
g29
sg136
(lp159
I1
aI2
asg138
Nsg139
VEsther 1:2
p160
sg141
(lp161
sg143
g94
sg144
Nsg145
(lp162
I1
aI2
asg147
Nsg148
g160
sg149
(lp163
sg151
g60
sg152
Nsg153
Nsg154
Nsbag2
(g3
g4
Ntp164
Rp165
(dp166
g8
g11
sg132
Nsg133
(dp167
sg135
Nsg26
g29
sg136
(lp168
I1
aI3
asg138
Nsg139
VEsther 1:3
p169
sg141
(lp170
sg143
g94
sg144
Nsg145
(lp171
I1
aI3
asg147
Nsg148
g169
sg149
(lp172
sg151
g60
sg152
Nsg153
Nsg154
Nsbag2
(g3
g4
Ntp173
Rp174
(dp175
g8
g11
sg132
Nsg133
(dp176
sg135
Nsg26
g29
sg136
(lp177
I1
aI4
asg138
Nsg139
VEsther 1:4
p178
sg141
(lp179
sg143
g94
sg144
Nsg145
(lp180
I1
aI4
asg147
Nsg148
g178
sg149
(lp181
sg151
g60
sg152
Nsg153
Nsg154
Nsbag2
(g3
g4
Ntp182
Rp183
(dp184
g8
g11
sg132
Nsg133
(dp185
sg135
Nsg26
g29
sg136
(lp186
I1
aI5
asg138
Nsg139
VEsther 1:5
p187
sg141
(lp188
sg143
g94
sg144
Nsg145
(lp189
I1
aI5
asg147
Nsg148
g187
sg149
(lp190
sg151
g60
sg152
Nsg153
Nsg154
Nsbag2
(g3
g4
Ntp191
Rp192
(dp193
g8
g11
sg132
Nsg133
(dp194
sg135
Nsg26
g29
sg136
(lp195
I1
aI6
asg138
Nsg139
VEsther 1:6
p196
sg141
(lp197
sg143
g94
sg144
Nsg145
(lp198
I1
aI6
asg147
Nsg148
g196
sg149
(lp199
sg151
g60
sg152
Nsg153
Nsg154
Nsbag2
(g3
g4
Ntp200
Rp201
(dp202
g8
g11
sg132
Nsg133
(dp203
sg135
Nsg26
g29
sg136
(lp204
I1
aI7
asg138
Nsg139
VEsther 1:7
p205
sg141
(lp206
sg143
g94
sg144
Nsg145
(lp207
I1
aI7
asg147
Nsg148
g205
sg149
(lp208
sg151
g60
sg152
Nsg153
Nsg154
Nsbag2
(g3
g4
Ntp209
Rp210
(dp211
g8
g11
sg132
Nsg133
(dp212
sg135
Nsg26
g29
sg136
(lp213
I1
aI8
asg138
Nsg139
VEsther 1:8
p214
sg141
(lp215
sg143
g94
sg144
Nsg145
(lp216
I1
aI8
asg147
Nsg148
g214
sg149
(lp217
sg151
g60
sg152
Nsg153
Nsg154
Nsbag2
(g3
g4
Ntp218
Rp219
(dp220
g8
g11
sg132
Nsg133
(dp221
sg135
Nsg26
g29
sg136
(lp222
I1
aI9
asg138
Nsg139
VEsther 1:9
p223
sg141
(lp224
sg143
g94
sg144
Nsg145
(lp225
I1
aI9
asg147
Nsg148
g223
sg149
(lp226
sg151
g60
sg152
Nsg153
Nsg154
Nsbag2
(g3
g4
Ntp227
Rp228
(dp229
g8
g11
sg132
Nsg133
(dp230
sg135
Nsg26
g29
sg136
(lp231
I1
aI10
asg138
Nsg139
VEsther 1:10
p232
sg141
(lp233
sg143
g94
sg144
Nsg145
(lp234
I1
aI10
asg147
Nsg148
g232
sg149
(lp235
sg151
g60
sg152
Nsg153
Nsg154
Nsbag2
(g3
g4
Ntp236
Rp237
(dp238
g8
g11
sg132
Nsg133
(dp239
sg135
Nsg26
g29
sg136
(lp240
I1
aI11
asg138
Nsg139
VEsther 1:11
p241
sg141
(lp242
sg143
g94
sg144
Nsg145
(lp243
I1
aI11
asg147
Nsg148
g241
sg149
(lp244
sg151
g60
sg152
Nsg153
Nsg154
Nsbag2
(g3
g4
Ntp245
Rp246
(dp247
g8
g11
sg132
Nsg133
(dp248
sg135
Nsg26
g29
sg136
(lp249
I1
aI12
asg138
Nsg139
VEsther 1:12
p250
sg141
(lp251
sg143
g94
sg144
Nsg145
(lp252
I1
aI12
asg147
Nsg148
g250
sg149
(lp253
sg151
g60
sg152
Nsg153
Nsg154
Nsbag2
(g3
g4
Ntp254
Rp255
(dp256
g8
g11
sg132
Nsg133
(dp257
sg135
Nsg26
g29
sg136
(lp258
I1
aI13
asg138
Nsg139
VEsther 1:13
p259
sg141
(lp260
sg143
g94
sg144
Nsg145
(lp261
I1
aI13
asg147
Nsg148
g259
sg149
(lp262
sg151
g60
sg152
Nsg153
Nsg154
Nsbag2
(g3
g4
Ntp263
Rp264
(dp265
g8
g11
sg132
Nsg133
(dp266
sg135
Nsg26
g29
sg136
(lp267
I1
aI14
asg138
Nsg139
VEsther 1:14
p268
sg141
(lp269
sg143
g94
sg144
Nsg145
(lp270
I1
aI14
asg147
Nsg148
g268
sg149
(lp271
sg151
g60
sg152
Nsg153
Nsg154
Nsbag2
(g3
g4
Ntp272
Rp273
(dp274
g8
g11
sg132
Nsg133
(dp275
sg135
Nsg26
g29
sg136
(lp276
I1
aI15
asg138
Nsg139
VEsther 1:15
p277
sg141
(lp278
sg143
g94
sg144
Nsg145
(lp279
I1
aI15
asg147
Nsg148
g277
sg149
(lp280
sg151
g60
sg152
Nsg153
Nsg154
Nsbag2
(g3
g4
Ntp281
Rp282
(dp283
g8
g11
sg132
Nsg133
(dp284
sg135
Nsg26
g29
sg136
(lp285
I1
aI16
asg138
Nsg139
VEsther 1:16
p286
sg141
(lp287
sg143
g94
sg144
Nsg145
(lp288
I1
aI16
asg147
Nsg148
g286
sg149
(lp289
sg151
g60
sg152
Nsg153
Nsg154
Nsbag2
(g3
g4
Ntp290
Rp291
(dp292
g8
g11
sg132
Nsg133
(dp293
sg135
Nsg26
g29
sg136
(lp294
I1
aI17
asg138
Nsg139
VEsther 1:17
p295
sg141
(lp296
sg143
g94
sg144
Nsg145
(lp297
I1
aI17
asg147
Nsg148
g295
sg149
(lp298
sg151
g60
sg152
Nsg153
Nsg154
Nsbag2
(g3
g4
Ntp299
Rp300
(dp301
g8
g11
sg132
Nsg133
(dp302
sg135
Nsg26
g29
sg136
(lp303
I1
aI18
asg138
Nsg139
VEsther 1:18
p304
sg141
(lp305
sg143
g94
sg144
Nsg145
(lp306
I1
aI18
asg147
Nsg148
g304
sg149
(lp307
sg151
g60
sg152
Nsg153
Nsg154
Nsbag2
(g3
g4
Ntp308
Rp309
(dp310
g8
g11
sg132
Nsg133
(dp311
sg135
Nsg26
g29
sg136
(lp312
I1
aI19
asg138
Nsg139
VEsther 1:19
p313
sg141
(lp314
sg143
g94
sg144
Nsg145
(lp315
I1
aI19
asg147
Nsg148
g313
sg149
(lp316
sg151
g60
sg152
Nsg153
Nsg154
Nsbag2
(g3
g4
Ntp317
Rp318
(dp319
g8
g11
sg132
Nsg133
(dp320
sg135
Nsg26
g29
sg136
(lp321
I1
aI20
asg138
Nsg139
VEsther 1:20
p322
sg141
(lp323
sg143
g94
sg144
Nsg145
(lp324
I1
aI20
asg147
Nsg148
g322
sg149
(lp325
sg151
g60
sg152
Nsg153
Nsg154
Nsbag2
(g3
g4
Ntp326
Rp327
(dp328
g8
g11
sg132
Nsg133
(dp329
sg135
Nsg26
g29
sg136
(lp330
I1
aI21
asg138
Nsg139
VEsther 1:21
p331
sg141
(lp332
sg143
g94
sg144
Nsg145
(lp333
I1
aI21
asg147
Nsg148
g331
sg149
(lp334
sg151
g60
sg152
Nsg153
Nsg154
Nsbag2
(g3
g4
Ntp335
Rp336
(dp337
g8
g11
sg132
Nsg133
(dp338
sg135
Nsg26
g29
sg136
(lp339
I1
aI22
asg138
Nsg139
VEsther 1:22
p340
sg141
(lp341
sg143
g94
sg144
Nsg145
(lp342
I1
aI22
asg147
Nsg148
g340
sg149
(lp343
sg151
g60
sg152
Nsg153
Nsg154
Nsbag2
(g3
g4
Ntp344
Rp345
(dp346
g8
g11
sg132
Nsg133
(dp347
sg135
Nsg26
g29
sg136
(lp348
I2
aI1
asg138
Nsg139
VEsther 2:1
p349
sg141
(lp350
sg143
g94
sg144
Nsg145
(lp351
I2
aI1
asg147
Nsg148
g349
sg149
(lp352
sg151
g60
sg152
Nsg153
Nsg154
Nsbag2
(g3
g4
Ntp353
Rp354
(dp355
g8
g11
sg132
Nsg133
(dp356
sg135
Nsg26
g29
sg136
(lp357
I2
aI2
asg138
Nsg139
VEsther 2:2
p358
sg141
(lp359
sg143
g94
sg144
Nsg145
(lp360
I2
aI2
asg147
Nsg148
g358
sg149
(lp361
sg151
g60
sg152
Nsg153
Nsg154
Nsbag2
(g3
g4
Ntp362
Rp363
(dp364
g8
g11
sg132
Nsg133
(dp365
sg135
Nsg26
g29
sg136
(lp366
I2
aI3
asg138
Nsg139
VEsther 2:3
p367
sg141
(lp368
sg143
g94
sg144
Nsg145
(lp369
I2
aI3
asg147
Nsg148
g367
sg149
(lp370
sg151
g60
sg152
Nsg153
Nsg154
Nsbag2
(g3
g4
Ntp371
Rp372
(dp373
g8
g11
sg132
Nsg133
(dp374
sg135
Nsg26
g29
sg136
(lp375
I2
aI4
asg138
Nsg139
VEsther 2:4
p376
sg141
(lp377
sg143
g94
sg144
Nsg145
(lp378
I2
aI4
asg147
Nsg148
g376
sg149
(lp379
sg151
g60
sg152
Nsg153
Nsg154
Nsbag2
(g3
g4
Ntp380
Rp381
(dp382
g8
g11
sg132
Nsg133
(dp383
sg135
Nsg26
g29
sg136
(lp384
I2
aI5
asg138
Nsg139
VEsther 2:5
p385
sg141
(lp386
sg143
g94
sg144
Nsg145
(lp387
I2
aI5
asg147
Nsg148
g385
sg149
(lp388
sg151
g60
sg152
Nsg153
Nsg154
Nsbag2
(g3
g4
Ntp389
Rp390
(dp391
g8
g11
sg132
Nsg133
(dp392
sg135
Nsg26
g29
sg136
(lp393
I2
aI6
asg138
Nsg139
VEsther 2:6
p394
sg141
(lp395
sg143
g94
sg144
Nsg145
(lp396
I2
aI6
asg147
Nsg148
g394
sg149
(lp397
sg151
g60
sg152
Nsg153
Nsg154
Nsbag2
(g3
g4
Ntp398
Rp399
(dp400
g8
g11
sg132
Nsg133
(dp401
sg135
Nsg26
g29
sg136
(lp402
I2
aI7
asg138
Nsg139
VEsther 2:7
p403
sg141
(lp404
sg143
g94
sg144
Nsg145
(lp405
I2
aI7
asg147
Nsg148
g403
sg149
(lp406
sg151
g60
sg152
Nsg153
Nsg154
Nsbag2
(g3
g4
Ntp407
Rp408
(dp409
g8
g11
sg132
Nsg133
(dp410
sg135
Nsg26
g29
sg136
(lp411
I2
aI8
asg138
Nsg139
VEsther 2:8
p412
sg141
(lp413
sg143
g94
sg144
Nsg145
(lp414
I2
aI8
asg147
Nsg148
g412
sg149
(lp415
sg151
g60
sg152
Nsg153
Nsg154
Nsbag2
(g3
g4
Ntp416
Rp417
(dp418
g8
g11
sg132
Nsg133
(dp419
sg135
Nsg26
g29
sg136
(lp420
I2
aI9
asg138
Nsg139
VEsther 2:9
p421
sg141
(lp422
sg143
g94
sg144
Nsg145
(lp423
I2
aI9
asg147
Nsg148
g421
sg149
(lp424
sg151
g60
sg152
Nsg153
Nsg154
Nsbag2
(g3
g4
Ntp425
Rp426
(dp427
g8
g11
sg132
Nsg133
(dp428
sg135
Nsg26
g29
sg136
(lp429
I2
aI10
asg138
Nsg139
VEsther 2:10
p430
sg141
(lp431
sg143
g94
sg144
Nsg145
(lp432
I2
aI10
asg147
Nsg148
g430
sg149
(lp433
sg151
g60
sg152
Nsg153
Nsg154
Nsbag2
(g3
g4
Ntp434
Rp435
(dp436
g8
g11
sg132
Nsg133
(dp437
sg135
Nsg26
g29
sg136
(lp438
I2
aI11
asg138
Nsg139
VEsther 2:11
p439
sg141
(lp440
sg143
g94
sg144
Nsg145
(lp441
I2
aI11
asg147
Nsg148
g439
sg149
(lp442
sg151
g60
sg152
Nsg153
Nsg154
Nsbag2
(g3
g4
Ntp443
Rp444
(dp445
g8
g11
sg132
Nsg133
(dp446
sg135
Nsg26
g29
sg136
(lp447
I2
aI12
asg138
Nsg139
VEsther 2:12
p448
sg141
(lp449
sg143
g94
sg144
Nsg145
(lp450
I2
aI12
asg147
Nsg148
g448
sg149
(lp451
sg151
g60
sg152
Nsg153
Nsg154
Nsbag2
(g3
g4
Ntp452
Rp453
(dp454
g8
g11
sg132
Nsg133
(dp455
sg135
Nsg26
g29
sg136
(lp456
I2
aI13
asg138
Nsg139
VEsther 2:13
p457
sg141
(lp458
sg143
g94
sg144
Nsg145
(lp459
I2
aI13
asg147
Nsg148
g457
sg149
(lp460
sg151
g60
sg152
Nsg153
Nsg154
Nsbag2
(g3
g4
Ntp461
Rp462
(dp463
g8
g11
sg132
Nsg133
(dp464
sg135
Nsg26
g29
sg136
(lp465
I2
aI14
asg138
Nsg139
VEsther 2:14
p466
sg141
(lp467
sg143
g94
sg144
Nsg145
(lp468
I2
aI14
asg147
Nsg148
g466
sg149
(lp469
sg151
g60
sg152
Nsg153
Nsg154
Nsbag2
(g3
g4
Ntp470
Rp471
(dp472
g8
g11
sg132
Nsg133
(dp473
sg135
Nsg26
g29
sg136
(lp474
I2
aI15
asg138
Nsg139
VEsther 2:15
p475
sg141
(lp476
sg143
g94
sg144
Nsg145
(lp477
I2
aI15
asg147
Nsg148
g475
sg149
(lp478
sg151
g60
sg152
Nsg153
Nsg154
Nsbag2
(g3
g4
Ntp479
Rp480
(dp481
g8
g11
sg132
Nsg133
(dp482
sg135
Nsg26
g29
sg136
(lp483
I2
aI16
asg138
Nsg139
VEsther 2:16
p484
sg141
(lp485
sg143
g94
sg144
Nsg145
(lp486
I2
aI16
asg147
Nsg148
g484
sg149
(lp487
sg151
g60
sg152
Nsg153
Nsg154
Nsbag2
(g3
g4
Ntp488
Rp489
(dp490
g8
g11
sg132
Nsg133
(dp491
sg135
Nsg26
g29
sg136
(lp492
I2
aI17
asg138
Nsg139
VEsther 2:17
p493
sg141
(lp494
sg143
g94
sg144
Nsg145
(lp495
I2
aI17
asg147
Nsg148
g493
sg149
(lp496
sg151
g60
sg152
Nsg153
Nsg154
Nsbag2
(g3
g4
Ntp497
Rp498
(dp499
g8
g11
sg132
Nsg133
(dp500
sg135
Nsg26
g29
sg136
(lp501
I2
aI18
asg138
Nsg139
VEsther 2:18
p502
sg141
(lp503
sg143
g94
sg144
Nsg145
(lp504
I2
aI18
asg147
Nsg148
g502
sg149
(lp505
sg151
g60
sg152
Nsg153
Nsg154
Nsbag2
(g3
g4
Ntp506
Rp507
(dp508
g8
g11
sg132
Nsg133
(dp509
sg135
Nsg26
g29
sg136
(lp510
I2
aI19
asg138
Nsg139
VEsther 2:19
p511
sg141
(lp512
sg143
g94
sg144
Nsg145
(lp513
I2
aI19
asg147
Nsg148
g511
sg149
(lp514
sg151
g60
sg152
Nsg153
Nsg154
Nsbag2
(g3
g4
Ntp515
Rp516
(dp517
g8
g11
sg132
Nsg133
(dp518
sg135
Nsg26
g29
sg136
(lp519
I2
aI20
asg138
Nsg139
VEsther 2:20
p520
sg141
(lp521
sg143
g94
sg144
Nsg145
(lp522
I2
aI20
asg147
Nsg148
g520
sg149
(lp523
sg151
g60
sg152
Nsg153
Nsg154
Nsbag2
(g3
g4
Ntp524
Rp525
(dp526
g8
g11
sg132
Nsg133
(dp527
sg135
Nsg26
g29
sg136
(lp528
I2
aI21
asg138
Nsg139
VEsther 2:21
p529
sg141
(lp530
sg143
g94
sg144
Nsg145
(lp531
I2
aI21
asg147
Nsg148
g529
sg149
(lp532
sg151
g60
sg152
Nsg153
Nsg154
Nsbag2
(g3
g4
Ntp533
Rp534
(dp535
g8
g11
sg132
Nsg133
(dp536
sg135
Nsg26
g29
sg136
(lp537
I2
aI22
asg138
Nsg139
VEsther 2:22
p538
sg141
(lp539
sg143
g94
sg144
Nsg145
(lp540
I2
aI22
asg147
Nsg148
g538
sg149
(lp541
sg151
g60
sg152
Nsg153
Nsg154
Nsbag2
(g3
g4
Ntp542
Rp543
(dp544
g8
g11
sg132
Nsg133
(dp545
sg135
Nsg26
g29
sg136
(lp546
I2
aI23
asg138
Nsg139
VEsther 2:23
p547
sg141
(lp548
sg143
g94
sg144
Nsg145
(lp549
I2
aI23
asg147
Nsg148
g547
sg149
(lp550
sg151
g60
sg152
Nsg153
Nsg154
Nsbag2
(g3
g4
Ntp551
Rp552
(dp553
g8
g11
sg132
Nsg133
(dp554
sg135
Nsg26
g29
sg136
(lp555
I3
aI1
asg138
Nsg139
VEsther 3:1
p556
sg141
(lp557
sg143
g94
sg144
Nsg145
(lp558
I3
aI1
asg147
Nsg148
g556
sg149
(lp559
sg151
g60
sg152
Nsg153
Nsg154
Nsbag2
(g3
g4
Ntp560
Rp561
(dp562
g8
g11
sg132
Nsg133
(dp563
sg135
Nsg26
g29
sg136
(lp564
I3
aI2
asg138
Nsg139
VEsther 3:2
p565
sg141
(lp566
sg143
g94
sg144
Nsg145
(lp567
I3
aI2
asg147
Nsg148
g565
sg149
(lp568
sg151
g60
sg152
Nsg153
Nsg154
Nsbag2
(g3
g4
Ntp569
Rp570
(dp571
g8
g11
sg132
Nsg133
(dp572
sg135
Nsg26
g29
sg136
(lp573
I3
aI3
asg138
Nsg139
VEsther 3:3
p574
sg141
(lp575
sg143
g94
sg144
Nsg145
(lp576
I3
aI3
asg147
Nsg148
g574
sg149
(lp577
sg151
g60
sg152
Nsg153
Nsg154
Nsbag2
(g3
g4
Ntp578
Rp579
(dp580
g8
g11
sg132
Nsg133
(dp581
sg135
Nsg26
g29
sg136
(lp582
I3
aI4
asg138
Nsg139
VEsther 3:4
p583
sg141
(lp584
sg143
g94
sg144
Nsg145
(lp585
I3
aI4
asg147
Nsg148
g583
sg149
(lp586
sg151
g60
sg152
Nsg153
Nsg154
Nsbag2
(g3
g4
Ntp587
Rp588
(dp589
g8
g11
sg132
Nsg133
(dp590
sg135
Nsg26
g29
sg136
(lp591
I3
aI5
asg138
Nsg139
VEsther 3:5
p592
sg141
(lp593
sg143
g94
sg144
Nsg145
(lp594
I3
aI5
asg147
Nsg148
g592
sg149
(lp595
sg151
g60
sg152
Nsg153
Nsg154
Nsbag2
(g3
g4
Ntp596
Rp597
(dp598
g8
g11
sg132
Nsg133
(dp599
sg135
Nsg26
g29
sg136
(lp600
I3
aI6
asg138
Nsg139
VEsther 3:6
p601
sg141
(lp602
sg143
g94
sg144
Nsg145
(lp603
I3
aI6
asg147
Nsg148
g601
sg149
(lp604
sg151
g60
sg152
Nsg153
Nsg154
Nsbag2
(g3
g4
Ntp605
Rp606
(dp607
g8
g11
sg132
Nsg133
(dp608
sg135
Nsg26
g29
sg136
(lp609
I3
aI7
asg138
Nsg139
VEsther 3:7
p610
sg141
(lp611
sg143
g94
sg144
Nsg145
(lp612
I3
aI7
asg147
Nsg148
g610
sg149
(lp613
sg151
g60
sg152
Nsg153
Nsg154
Nsbag2
(g3
g4
Ntp614
Rp615
(dp616
g8
g11
sg132
Nsg133
(dp617
sg135
Nsg26
g29
sg136
(lp618
I3
aI8
asg138
Nsg139
VEsther 3:8
p619
sg141
(lp620
sg143
g94
sg144
Nsg145
(lp621
I3
aI8
asg147
Nsg148
g619
sg149
(lp622
sg151
g60
sg152
Nsg153
Nsg154
Nsbag2
(g3
g4
Ntp623
Rp624
(dp625
g8
g11
sg132
Nsg133
(dp626
sg135
Nsg26
g29
sg136
(lp627
I3
aI9
asg138
Nsg139
VEsther 3:9
p628
sg141
(lp629
sg143
g94
sg144
Nsg145
(lp630
I3
aI9
asg147
Nsg148
g628
sg149
(lp631
sg151
g60
sg152
Nsg153
Nsg154
Nsbag2
(g3
g4
Ntp632
Rp633
(dp634
g8
g11
sg132
Nsg133
(dp635
sg135
Nsg26
g29
sg136
(lp636
I3
aI10
asg138
Nsg139
VEsther 3:10
p637
sg141
(lp638
sg143
g94
sg144
Nsg145
(lp639
I3
aI10
asg147
Nsg148
g637
sg149
(lp640
sg151
g60
sg152
Nsg153
Nsg154
Nsbag2
(g3
g4
Ntp641
Rp642
(dp643
g8
g11
sg132
Nsg133
(dp644
sg135
Nsg26
g29
sg136
(lp645
I3
aI11
asg138
Nsg139
VEsther 3:11
p646
sg141
(lp647
sg143
g94
sg144
Nsg145
(lp648
I3
aI11
asg147
Nsg148
g646
sg149
(lp649
sg151
g60
sg152
Nsg153
Nsg154
Nsbag2
(g3
g4
Ntp650
Rp651
(dp652
g8
g11
sg132
Nsg133
(dp653
sg135
Nsg26
g29
sg136
(lp654
I3
aI12
asg138
Nsg139
VEsther 3:12
p655
sg141
(lp656
sg143
g94
sg144
Nsg145
(lp657
I3
aI12
asg147
Nsg148
g655
sg149
(lp658
sg151
g60
sg152
Nsg153
Nsg154
Nsbag2
(g3
g4
Ntp659
Rp660
(dp661
g8
g11
sg132
Nsg133
(dp662
sg135
Nsg26
g29
sg136
(lp663
I3
aI13
asg138
Nsg139
VEsther 3:13
p664
sg141
(lp665
sg143
g94
sg144
Nsg145
(lp666
I3
aI13
asg147
Nsg148
g664
sg149
(lp667
sg151
g60
sg152
Nsg153
Nsg154
Nsbag2
(g3
g4
Ntp668
Rp669
(dp670
g8
g11
sg132
Nsg133
(dp671
sg135
Nsg26
g29
sg136
(lp672
I3
aI14
asg138
Nsg139
VEsther 3:14
p673
sg141
(lp674
sg143
g94
sg144
Nsg145
(lp675
I3
aI14
asg147
Nsg148
g673
sg149
(lp676
sg151
g60
sg152
Nsg153
Nsg154
Nsbag2
(g3
g4
Ntp677
Rp678
(dp679
g8
g11
sg132
Nsg133
(dp680
sg135
Nsg26
g29
sg136
(lp681
I3
aI15
asg138
Nsg139
VEsther 3:15
p682
sg141
(lp683
sg143
g94
sg144
Nsg145
(lp684
I3
aI15
asg147
Nsg148
g682
sg149
(lp685
sg151
g60
sg152
Nsg153
Nsg154
Nsbag2
(g3
g4
Ntp686
Rp687
(dp688
g8
g11
sg132
Nsg133
(dp689
sg135
Nsg26
g29
sg136
(lp690
I4
aI1
asg138
Nsg139
VEsther 4:1
p691
sg141
(lp692
sg143
g94
sg144
Nsg145
(lp693
I4
aI1
asg147
Nsg148
g691
sg149
(lp694
sg151
g60
sg152
Nsg153
Nsg154
Nsbag2
(g3
g4
Ntp695
Rp696
(dp697
g8
g11
sg132
Nsg133
(dp698
sg135
Nsg26
g29
sg136
(lp699
I4
aI2
asg138
Nsg139
VEsther 4:2
p700
sg141
(lp701
sg143
g94
sg144
Nsg145
(lp702
I4
aI2
asg147
Nsg148
g700
sg149
(lp703
sg151
g60
sg152
Nsg153
Nsg154
Nsbag2
(g3
g4
Ntp704
Rp705
(dp706
g8
g11
sg132
Nsg133
(dp707
sg135
Nsg26
g29
sg136
(lp708
I4
aI3
asg138
Nsg139
VEsther 4:3
p709
sg141
(lp710
sg143
g94
sg144
Nsg145
(lp711
I4
aI3
asg147
Nsg148
g709
sg149
(lp712
sg151
g60
sg152
Nsg153
Nsg154
Nsbag2
(g3
g4
Ntp713
Rp714
(dp715
g8
g11
sg132
Nsg133
(dp716
sg135
Nsg26
g29
sg136
(lp717
I4
aI4
asg138
Nsg139
VEsther 4:4
p718
sg141
(lp719
sg143
g94
sg144
Nsg145
(lp720
I4
aI4
asg147
Nsg148
g718
sg149
(lp721
sg151
g60
sg152
Nsg153
Nsg154
Nsbag2
(g3
g4
Ntp722
Rp723
(dp724
g8
g11
sg132
Nsg133
(dp725
sg135
Nsg26
g29
sg136
(lp726
I4
aI5
asg138
Nsg139
VEsther 4:5
p727
sg141
(lp728
sg143
g94
sg144
Nsg145
(lp729
I4
aI5
asg147
Nsg148
g727
sg149
(lp730
sg151
g60
sg152
Nsg153
Nsg154
Nsbag2
(g3
g4
Ntp731
Rp732
(dp733
g8
g11
sg132
Nsg133
(dp734
sg135
Nsg26
g29
sg136
(lp735
I4
aI6
asg138
Nsg139
VEsther 4:6
p736
sg141
(lp737
sg143
g94
sg144
Nsg145
(lp738
I4
aI6
asg147
Nsg148
g736
sg149
(lp739
sg151
g60
sg152
Nsg153
Nsg154
Nsbag2
(g3
g4
Ntp740
Rp741
(dp742
g8
g11
sg132
Nsg133
(dp743
sg135
Nsg26
g29
sg136
(lp744
I4
aI7
asg138
Nsg139
VEsther 4:7
p745
sg141
(lp746
sg143
g94
sg144
Nsg145
(lp747
I4
aI7
asg147
Nsg148
g745
sg149
(lp748
sg151
g60
sg152
Nsg153
Nsg154
Nsbag2
(g3
g4
Ntp749
Rp750
(dp751
g8
g11
sg132
Nsg133
(dp752
sg135
Nsg26
g29
sg136
(lp753
I4
aI8
asg138
Nsg139
VEsther 4:8
p754
sg141
(lp755
sg143
g94
sg144
Nsg145
(lp756
I4
aI8
asg147
Nsg148
g754
sg149
(lp757
sg151
g60
sg152
Nsg153
Nsg154
Nsbag2
(g3
g4
Ntp758
Rp759
(dp760
g8
g11
sg132
Nsg133
(dp761
sg135
Nsg26
g29
sg136
(lp762
I4
aI9
asg138
Nsg139
VEsther 4:9
p763
sg141
(lp764
sg143
g94
sg144
Nsg145
(lp765
I4
aI9
asg147
Nsg148
g763
sg149
(lp766
sg151
g60
sg152
Nsg153
Nsg154
Nsbag2
(g3
g4
Ntp767
Rp768
(dp769
g8
g11
sg132
Nsg133
(dp770
sg135
Nsg26
g29
sg136
(lp771
I4
aI10
asg138
Nsg139
VEsther 4:10
p772
sg141
(lp773
sg143
g94
sg144
Nsg145
(lp774
I4
aI10
asg147
Nsg148
g772
sg149
(lp775
sg151
g60
sg152
Nsg153
Nsg154
Nsbag2
(g3
g4
Ntp776
Rp777
(dp778
g8
g11
sg132
Nsg133
(dp779
sg135
Nsg26
g29
sg136
(lp780
I4
aI11
asg138
Nsg139
VEsther 4:11
p781
sg141
(lp782
sg143
g94
sg144
Nsg145
(lp783
I4
aI11
asg147
Nsg148
g781
sg149
(lp784
sg151
g60
sg152
Nsg153
Nsg154
Nsbag2
(g3
g4
Ntp785
Rp786
(dp787
g8
g11
sg132
Nsg133
(dp788
sg135
Nsg26
g29
sg136
(lp789
I4
aI12
asg138
Nsg139
VEsther 4:12
p790
sg141
(lp791
sg143
g94
sg144
Nsg145
(lp792
I4
aI12
asg147
Nsg148
g790
sg149
(lp793
sg151
g60
sg152
Nsg153
Nsg154
Nsbag2
(g3
g4
Ntp794
Rp795
(dp796
g8
g11
sg132
Nsg133
(dp797
sg135
Nsg26
g29
sg136
(lp798
I4
aI13
asg138
Nsg139
VEsther 4:13
p799
sg141
(lp800
sg143
g94
sg144
Nsg145
(lp801
I4
aI13
asg147
Nsg148
g799
sg149
(lp802
sg151
g60
sg152
Nsg153
Nsg154
Nsbag2
(g3
g4
Ntp803
Rp804
(dp805
g8
g11
sg132
Nsg133
(dp806
sg135
Nsg26
g29
sg136
(lp807
I4
aI14
asg138
Nsg139
VEsther 4:14
p808
sg141
(lp809
sg143
g94
sg144
Nsg145
(lp810
I4
aI14
asg147
Nsg148
g808
sg149
(lp811
sg151
g60
sg152
Nsg153
Nsg154
Nsbag2
(g3
g4
Ntp812
Rp813
(dp814
g8
g11
sg132
Nsg133
(dp815
sg135
Nsg26
g29
sg136
(lp816
I4
aI15
asg138
Nsg139
VEsther 4:15
p817
sg141
(lp818
sg143
g94
sg144
Nsg145
(lp819
I4
aI15
asg147
Nsg148
g817
sg149
(lp820
sg151
g60
sg152
Nsg153
Nsg154
Nsbag2
(g3
g4
Ntp821
Rp822
(dp823
g8
g11
sg132
Nsg133
(dp824
sg135
Nsg26
g29
sg136
(lp825
I4
aI16
asg138
Nsg139
VEsther 4:16
p826
sg141
(lp827
sg143
g94
sg144
Nsg145
(lp828
I4
aI16
asg147
Nsg148
g826
sg149
(lp829
sg151
g60
sg152
Nsg153
Nsg154
Nsbag2
(g3
g4
Ntp830
Rp831
(dp832
g8
g11
sg132
Nsg133
(dp833
sg135
Nsg26
g29
sg136
(lp834
I4
aI17
asg138
Nsg139
VEsther 4:17
p835
sg141
(lp836
sg143
g94
sg144
Nsg145
(lp837
I4
aI17
asg147
Nsg148
g835
sg149
(lp838
sg151
g60
sg152
Nsg153
Nsg154
Nsbag2
(g3
g4
Ntp839
Rp840
(dp841
g8
g11
sg132
Nsg133
(dp842
sg135
Nsg26
g29
sg136
(lp843
I5
aI1
asg138
Nsg139
VEsther 5:1
p844
sg141
(lp845
sg143
g94
sg144
Nsg145
(lp846
I5
aI1
asg147
Nsg148
g844
sg149
(lp847
sg151
g60
sg152
Nsg153
Nsg154
Nsbag2
(g3
g4
Ntp848
Rp849
(dp850
g8
g11
sg132
Nsg133
(dp851
sg135
Nsg26
g29
sg136
(lp852
I5
aI2
asg138
Nsg139
VEsther 5:2
p853
sg141
(lp854
sg143
g94
sg144
Nsg145
(lp855
I5
aI2
asg147
Nsg148
g853
sg149
(lp856
sg151
g60
sg152
Nsg153
Nsg154
Nsbag2
(g3
g4
Ntp857
Rp858
(dp859
g8
g11
sg132
Nsg133
(dp860
sg135
Nsg26
g29
sg136
(lp861
I5
aI3
asg138
Nsg139
VEsther 5:3
p862
sg141
(lp863
sg143
g94
sg144
Nsg145
(lp864
I5
aI3
asg147
Nsg148
g862
sg149
(lp865
sg151
g60
sg152
Nsg153
Nsg154
Nsbag2
(g3
g4
Ntp866
Rp867
(dp868
g8
g11
sg132
Nsg133
(dp869
sg135
Nsg26
g29
sg136
(lp870
I5
aI4
asg138
Nsg139
VEsther 5:4
p871
sg141
(lp872
sg143
g94
sg144
Nsg145
(lp873
I5
aI4
asg147
Nsg148
g871
sg149
(lp874
sg151
g60
sg152
Nsg153
Nsg154
Nsbag2
(g3
g4
Ntp875
Rp876
(dp877
g8
g11
sg132
Nsg133
(dp878
sg135
Nsg26
g29
sg136
(lp879
I5
aI5
asg138
Nsg139
VEsther 5:5
p880
sg141
(lp881
sg143
g94
sg144
Nsg145
(lp882
I5
aI5
asg147
Nsg148
g880
sg149
(lp883
sg151
g60
sg152
Nsg153
Nsg154
Nsbag2
(g3
g4
Ntp884
Rp885
(dp886
g8
g11
sg132
Nsg133
(dp887
sg135
Nsg26
g29
sg136
(lp888
I5
aI6
asg138
Nsg139
VEsther 5:6
p889
sg141
(lp890
sg143
g94
sg144
Nsg145
(lp891
I5
aI6
asg147
Nsg148
g889
sg149
(lp892
sg151
g60
sg152
Nsg153
Nsg154
Nsbag2
(g3
g4
Ntp893
Rp894
(dp895
g8
g11
sg132
Nsg133
(dp896
sg135
Nsg26
g29
sg136
(lp897
I5
aI7
asg138
Nsg139
VEsther 5:7
p898
sg141
(lp899
sg143
g94
sg144
Nsg145
(lp900
I5
aI7
asg147
Nsg148
g898
sg149
(lp901
sg151
g60
sg152
Nsg153
Nsg154
Nsbag2
(g3
g4
Ntp902
Rp903
(dp904
g8
g11
sg132
Nsg133
(dp905
sg135
Nsg26
g29
sg136
(lp906
I5
aI8
asg138
Nsg139
VEsther 5:8
p907
sg141
(lp908
sg143
g94
sg144
Nsg145
(lp909
I5
aI8
asg147
Nsg148
g907
sg149
(lp910
sg151
g60
sg152
Nsg153
Nsg154
Nsbag2
(g3
g4
Ntp911
Rp912
(dp913
g8
g11
sg132
Nsg133
(dp914
sg135
Nsg26
g29
sg136
(lp915
I5
aI9
asg138
Nsg139
VEsther 5:9
p916
sg141
(lp917
sg143
g94
sg144
Nsg145
(lp918
I5
aI9
asg147
Nsg148
g916
sg149
(lp919
sg151
g60
sg152
Nsg153
Nsg154
Nsbag2
(g3
g4
Ntp920
Rp921
(dp922
g8
g11
sg132
Nsg133
(dp923
sg135
Nsg26
g29
sg136
(lp924
I5
aI10
asg138
Nsg139
VEsther 5:10
p925
sg141
(lp926
sg143
g94
sg144
Nsg145
(lp927
I5
aI10
asg147
Nsg148
g925
sg149
(lp928
sg151
g60
sg152
Nsg153
Nsg154
Nsbag2
(g3
g4
Ntp929
Rp930
(dp931
g8
g11
sg132
Nsg133
(dp932
sg135
Nsg26
g29
sg136
(lp933
I5
aI11
asg138
Nsg139
VEsther 5:11
p934
sg141
(lp935
sg143
g94
sg144
Nsg145
(lp936
I5
aI11
asg147
Nsg148
g934
sg149
(lp937
sg151
g60
sg152
Nsg153
Nsg154
Nsbag2
(g3
g4
Ntp938
Rp939
(dp940
g8
g11
sg132
Nsg133
(dp941
sg135
Nsg26
g29
sg136
(lp942
I5
aI12
asg138
Nsg139
VEsther 5:12
p943
sg141
(lp944
sg143
g94
sg144
Nsg145
(lp945
I5
aI12
asg147
Nsg148
g943
sg149
(lp946
sg151
g60
sg152
Nsg153
Nsg154
Nsbag2
(g3
g4
Ntp947
Rp948
(dp949
g8
g11
sg132
Nsg133
(dp950
sg135
Nsg26
g29
sg136
(lp951
I5
aI13
asg138
Nsg139
VEsther 5:13
p952
sg141
(lp953
sg143
g94
sg144
Nsg145
(lp954
I5
aI13
asg147
Nsg148
g952
sg149
(lp955
sg151
g60
sg152
Nsg153
Nsg154
Nsbag2
(g3
g4
Ntp956
Rp957
(dp958
g8
g11
sg132
Nsg133
(dp959
sg135
Nsg26
g29
sg136
(lp960
I5
aI14
asg138
Nsg139
VEsther 5:14
p961
sg141
(lp962
sg143
g94
sg144
Nsg145
(lp963
I5
aI14
asg147
Nsg148
g961
sg149
(lp964
sg151
g60
sg152
Nsg153
Nsg154
Nsbag2
(g3
g4
Ntp965
Rp966
(dp967
g8
g11
sg132
Nsg133
(dp968
sg135
Nsg26
g29
sg136
(lp969
I6
aI1
asg138
Nsg139
VEsther 6:1
p970
sg141
(lp971
sg143
g94
sg144
Nsg145
(lp972
I6
aI1
asg147
Nsg148
g970
sg149
(lp973
sg151
g60
sg152
Nsg153
Nsg154
Nsbag2
(g3
g4
Ntp974
Rp975
(dp976
g8
g11
sg132
Nsg133
(dp977
sg135
Nsg26
g29
sg136
(lp978
I6
aI2
asg138
Nsg139
VEsther 6:2
p979
sg141
(lp980
sg143
g94
sg144
Nsg145
(lp981
I6
aI2
asg147
Nsg148
g979
sg149
(lp982
sg151
g60
sg152
Nsg153
Nsg154
Nsbag2
(g3
g4
Ntp983
Rp984
(dp985
g8
g11
sg132
Nsg133
(dp986
sg135
Nsg26
g29
sg136
(lp987
I6
aI3
asg138
Nsg139
VEsther 6:3
p988
sg141
(lp989
sg143
g94
sg144
Nsg145
(lp990
I6
aI3
asg147
Nsg148
g988
sg149
(lp991
sg151
g60
sg152
Nsg153
Nsg154
Nsbag2
(g3
g4
Ntp992
Rp993
(dp994
g8
g11
sg132
Nsg133
(dp995
sg135
Nsg26
g29
sg136
(lp996
I6
aI4
asg138
Nsg139
VEsther 6:4
p997
sg141
(lp998
sg143
g94
sg144
Nsg145
(lp999
I6
aI4
asg147
Nsg148
g997
sg149
(lp1000
sg151
g60
sg152
Nsg153
Nsg154
Nsbag2
(g3
g4
Ntp1001
Rp1002
(dp1003
g8
g11
sg132
Nsg133
(dp1004
sg135
Nsg26
g29
sg136
(lp1005
I6
aI5
asg138
Nsg139
VEsther 6:5
p1006
sg141
(lp1007
sg143
g94
sg144
Nsg145
(lp1008
I6
aI5
asg147
Nsg148
g1006
sg149
(lp1009
sg151
g60
sg152
Nsg153
Nsg154
Nsbag2
(g3
g4
Ntp1010
Rp1011
(dp1012
g8
g11
sg132
Nsg133
(dp1013
sg135
Nsg26
g29
sg136
(lp1014
I6
aI6
asg138
Nsg139
VEsther 6:6
p1015
sg141
(lp1016
sg143
g94
sg144
Nsg145
(lp1017
I6
aI6
asg147
Nsg148
g1015
sg149
(lp1018
sg151
g60
sg152
Nsg153
Nsg154
Nsbag2
(g3
g4
Ntp1019
Rp1020
(dp1021
g8
g11
sg132
Nsg133
(dp1022
sg135
Nsg26
g29
sg136
(lp1023
I6
aI7
asg138
Nsg139
VEsther 6:7
p1024
sg141
(lp1025
sg143
g94
sg144
Nsg145
(lp1026
I6
aI7
asg147
Nsg148
g1024
sg149
(lp1027
sg151
g60
sg152
Nsg153
Nsg154
Nsbag2
(g3
g4
Ntp1028
Rp1029
(dp1030
g8
g11
sg132
Nsg133
(dp1031
sg135
Nsg26
g29
sg136
(lp1032
I6
aI8
asg138
Nsg139
VEsther 6:8
p1033
sg141
(lp1034
sg143
g94
sg144
Nsg145
(lp1035
I6
aI8
asg147
Nsg148
g1033
sg149
(lp1036
sg151
g60
sg152
Nsg153
Nsg154
Nsbag2
(g3
g4
Ntp1037
Rp1038
(dp1039
g8
g11
sg132
Nsg133
(dp1040
sg135
Nsg26
g29
sg136
(lp1041
I6
aI9
asg138
Nsg139
VEsther 6:9
p1042
sg141
(lp1043
sg143
g94
sg144
Nsg145
(lp1044
I6
aI9
asg147
Nsg148
g1042
sg149
(lp1045
sg151
g60
sg152
Nsg153
Nsg154
Nsbag2
(g3
g4
Ntp1046
Rp1047
(dp1048
g8
g11
sg132
Nsg133
(dp1049
sg135
Nsg26
g29
sg136
(lp1050
I6
aI10
asg138
Nsg139
VEsther 6:10
p1051
sg141
(lp1052
sg143
g94
sg144
Nsg145
(lp1053
I6
aI10
asg147
Nsg148
g1051
sg149
(lp1054
sg151
g60
sg152
Nsg153
Nsg154
Nsbag2
(g3
g4
Ntp1055
Rp1056
(dp1057
g8
g11
sg132
Nsg133
(dp1058
sg135
Nsg26
g29
sg136
(lp1059
I6
aI11
asg138
Nsg139
VEsther 6:11
p1060
sg141
(lp1061
sg143
g94
sg144
Nsg145
(lp1062
I6
aI11
asg147
Nsg148
g1060
sg149
(lp1063
sg151
g60
sg152
Nsg153
Nsg154
Nsbag2
(g3
g4
Ntp1064
Rp1065
(dp1066
g8
g11
sg132
Nsg133
(dp1067
sg135
Nsg26
g29
sg136
(lp1068
I6
aI12
asg138
Nsg139
VEsther 6:12
p1069
sg141
(lp1070
sg143
g94
sg144
Nsg145
(lp1071
I6
aI12
asg147
Nsg148
g1069
sg149
(lp1072
sg151
g60
sg152
Nsg153
Nsg154
Nsbag2
(g3
g4
Ntp1073
Rp1074
(dp1075
g8
g11
sg132
Nsg133
(dp1076
sg135
Nsg26
g29
sg136
(lp1077
I6
aI13
asg138
Nsg139
VEsther 6:13
p1078
sg141
(lp1079
sg143
g94
sg144
Nsg145
(lp1080
I6
aI13
asg147
Nsg148
g1078
sg149
(lp1081
sg151
g60
sg152
Nsg153
Nsg154
Nsbag2
(g3
g4
Ntp1082
Rp1083
(dp1084
g8
g11
sg132
Nsg133
(dp1085
sg135
Nsg26
g29
sg136
(lp1086
I6
aI14
asg138
Nsg139
VEsther 6:14
p1087
sg141
(lp1088
sg143
g94
sg144
Nsg145
(lp1089
I6
aI14
asg147
Nsg148
g1087
sg149
(lp1090
sg151
g60
sg152
Nsg153
Nsg154
Nsbag2
(g3
g4
Ntp1091
Rp1092
(dp1093
g8
g11
sg132
Nsg133
(dp1094
sg135
Nsg26
g29
sg136
(lp1095
I7
aI1
asg138
Nsg139
VEsther 7:1
p1096
sg141
(lp1097
sg143
g94
sg144
Nsg145
(lp1098
I7
aI1
asg147
Nsg148
g1096
sg149
(lp1099
sg151
g60
sg152
Nsg153
Nsg154
Nsbag2
(g3
g4
Ntp1100
Rp1101
(dp1102
g8
g11
sg132
Nsg133
(dp1103
sg135
Nsg26
g29
sg136
(lp1104
I7
aI2
asg138
Nsg139
VEsther 7:2
p1105
sg141
(lp1106
sg143
g94
sg144
Nsg145
(lp1107
I7
aI2
asg147
Nsg148
g1105
sg149
(lp1108
sg151
g60
sg152
Nsg153
Nsg154
Nsbag2
(g3
g4
Ntp1109
Rp1110
(dp1111
g8
g11
sg132
Nsg133
(dp1112
sg135
Nsg26
g29
sg136
(lp1113
I7
aI3
asg138
Nsg139
VEsther 7:3
p1114
sg141
(lp1115
sg143
g94
sg144
Nsg145
(lp1116
I7
aI3
asg147
Nsg148
g1114
sg149
(lp1117
sg151
g60
sg152
Nsg153
Nsg154
Nsbag2
(g3
g4
Ntp1118
Rp1119
(dp1120
g8
g11
sg132
Nsg133
(dp1121
sg135
Nsg26
g29
sg136
(lp1122
I7
aI4
asg138
Nsg139
VEsther 7:4
p1123
sg141
(lp1124
sg143
g94
sg144
Nsg145
(lp1125
I7
aI4
asg147
Nsg148
g1123
sg149
(lp1126
sg151
g60
sg152
Nsg153
Nsg154
Nsbag2
(g3
g4
Ntp1127
Rp1128
(dp1129
g8
g11
sg132
Nsg133
(dp1130
sg135
Nsg26
g29
sg136
(lp1131
I7
aI5
asg138
Nsg139
VEsther 7:5
p1132
sg141
(lp1133
sg143
g94
sg144
Nsg145
(lp1134
I7
aI5
asg147
Nsg148
g1132
sg149
(lp1135
sg151
g60
sg152
Nsg153
Nsg154
Nsbag2
(g3
g4
Ntp1136
Rp1137
(dp1138
g8
g11
sg132
Nsg133
(dp1139
sg135
Nsg26
g29
sg136
(lp1140
I7
aI6
asg138
Nsg139
VEsther 7:6
p1141
sg141
(lp1142
sg143
g94
sg144
Nsg145
(lp1143
I7
aI6
asg147
Nsg148
g1141
sg149
(lp1144
sg151
g60
sg152
Nsg153
Nsg154
Nsbag2
(g3
g4
Ntp1145
Rp1146
(dp1147
g8
g11
sg132
Nsg133
(dp1148
sg135
Nsg26
g29
sg136
(lp1149
I7
aI7
asg138
Nsg139
VEsther 7:7
p1150
sg141
(lp1151
sg143
g94
sg144
Nsg145
(lp1152
I7
aI7
asg147
Nsg148
g1150
sg149
(lp1153
sg151
g60
sg152
Nsg153
Nsg154
Nsbag2
(g3
g4
Ntp1154
Rp1155
(dp1156
g8
g11
sg132
Nsg133
(dp1157
sg135
Nsg26
g29
sg136
(lp1158
I7
aI8
asg138
Nsg139
VEsther 7:8
p1159
sg141
(lp1160
sg143
g94
sg144
Nsg145
(lp1161
I7
aI8
asg147
Nsg148
g1159
sg149
(lp1162
sg151
g60
sg152
Nsg153
Nsg154
Nsbag2
(g3
g4
Ntp1163
Rp1164
(dp1165
g8
g11
sg132
Nsg133
(dp1166
sg135
Nsg26
g29
sg136
(lp1167
I7
aI9
asg138
Nsg139
VEsther 7:9
p1168
sg141
(lp1169
sg143
g94
sg144
Nsg145
(lp1170
I7
aI9
asg147
Nsg148
g1168
sg149
(lp1171
sg151
g60
sg152
Nsg153
Nsg154
Nsbag2
(g3
g4
Ntp1172
Rp1173
(dp1174
g8
g11
sg132
Nsg133
(dp1175
sg135
Nsg26
g29
sg136
(lp1176
I7
aI10
asg138
Nsg139
VEsther 7:10
p1177
sg141
(lp1178
sg143
g94
sg144
Nsg145
(lp1179
I7
aI10
asg147
Nsg148
g1177
sg149
(lp1180
sg151
g60
sg152
Nsg153
Nsg154
Nsbag2
(g3
g4
Ntp1181
Rp1182
(dp1183
g8
g11
sg132
Nsg133
(dp1184
sg135
Nsg26
g29
sg136
(lp1185
I8
aI1
asg138
Nsg139
VEsther 8:1
p1186
sg141
(lp1187
sg143
g94
sg144
Nsg145
(lp1188
I8
aI1
asg147
Nsg148
g1186
sg149
(lp1189
sg151
g60
sg152
Nsg153
Nsg154
Nsbag2
(g3
g4
Ntp1190
Rp1191
(dp1192
g8
g11
sg132
Nsg133
(dp1193
sg135
Nsg26
g29
sg136
(lp1194
I8
aI2
asg138
Nsg139
VEsther 8:2
p1195
sg141
(lp1196
sg143
g94
sg144
Nsg145
(lp1197
I8
aI2
asg147
Nsg148
g1195
sg149
(lp1198
sg151
g60
sg152
Nsg153
Nsg154
Nsbag2
(g3
g4
Ntp1199
Rp1200
(dp1201
g8
g11
sg132
Nsg133
(dp1202
sg135
Nsg26
g29
sg136
(lp1203
I8
aI3
asg138
Nsg139
VEsther 8:3
p1204
sg141
(lp1205
sg143
g94
sg144
Nsg145
(lp1206
I8
aI3
asg147
Nsg148
g1204
sg149
(lp1207
sg151
g60
sg152
Nsg153
Nsg154
Nsbag2
(g3
g4
Ntp1208
Rp1209
(dp1210
g8
g11
sg132
Nsg133
(dp1211
sg135
Nsg26
g29
sg136
(lp1212
I8
aI4
asg138
Nsg139
VEsther 8:4
p1213
sg141
(lp1214
sg143
g94
sg144
Nsg145
(lp1215
I8
aI4
asg147
Nsg148
g1213
sg149
(lp1216
sg151
g60
sg152
Nsg153
Nsg154
Nsbag2
(g3
g4
Ntp1217
Rp1218
(dp1219
g8
g11
sg132
Nsg133
(dp1220
sg135
Nsg26
g29
sg136
(lp1221
I8
aI5
asg138
Nsg139
VEsther 8:5
p1222
sg141
(lp1223
sg143
g94
sg144
Nsg145
(lp1224
I8
aI5
asg147
Nsg148
g1222
sg149
(lp1225
sg151
g60
sg152
Nsg153
Nsg154
Nsbag2
(g3
g4
Ntp1226
Rp1227
(dp1228
g8
g11
sg132
Nsg133
(dp1229
sg135
Nsg26
g29
sg136
(lp1230
I8
aI6
asg138
Nsg139
VEsther 8:6
p1231
sg141
(lp1232
sg143
g94
sg144
Nsg145
(lp1233
I8
aI6
asg147
Nsg148
g1231
sg149
(lp1234
sg151
g60
sg152
Nsg153
Nsg154
Nsbag2
(g3
g4
Ntp1235
Rp1236
(dp1237
g8
g11
sg132
Nsg133
(dp1238
sg135
Nsg26
g29
sg136
(lp1239
I8
aI7
asg138
Nsg139
VEsther 8:7
p1240
sg141
(lp1241
sg143
g94
sg144
Nsg145
(lp1242
I8
aI7
asg147
Nsg148
g1240
sg149
(lp1243
sg151
g60
sg152
Nsg153
Nsg154
Nsbag2
(g3
g4
Ntp1244
Rp1245
(dp1246
g8
g11
sg132
Nsg133
(dp1247
sg135
Nsg26
g29
sg136
(lp1248
I8
aI8
asg138
Nsg139
VEsther 8:8
p1249
sg141
(lp1250
sg143
g94
sg144
Nsg145
(lp1251
I8
aI8
asg147
Nsg148
g1249
sg149
(lp1252
sg151
g60
sg152
Nsg153
Nsg154
Nsbag2
(g3
g4
Ntp1253
Rp1254
(dp1255
g8
g11
sg132
Nsg133
(dp1256
sg135
Nsg26
g29
sg136
(lp1257
I8
aI9
asg138
Nsg139
VEsther 8:9
p1258
sg141
(lp1259
sg143
g94
sg144
Nsg145
(lp1260
I8
aI9
asg147
Nsg148
g1258
sg149
(lp1261
sg151
g60
sg152
Nsg153
Nsg154
Nsbag2
(g3
g4
Ntp1262
Rp1263
(dp1264
g8
g11
sg132
Nsg133
(dp1265
sg135
Nsg26
g29
sg136
(lp1266
I8
aI10
asg138
Nsg139
VEsther 8:10
p1267
sg141
(lp1268
sg143
g94
sg144
Nsg145
(lp1269
I8
aI10
asg147
Nsg148
g1267
sg149
(lp1270
sg151
g60
sg152
Nsg153
Nsg154
Nsbag2
(g3
g4
Ntp1271
Rp1272
(dp1273
g8
g11
sg132
Nsg133
(dp1274
sg135
Nsg26
g29
sg136
(lp1275
I8
aI11
asg138
Nsg139
VEsther 8:11
p1276
sg141
(lp1277
sg143
g94
sg144
Nsg145
(lp1278
I8
aI11
asg147
Nsg148
g1276
sg149
(lp1279
sg151
g60
sg152
Nsg153
Nsg154
Nsbag2
(g3
g4
Ntp1280
Rp1281
(dp1282
g8
g11
sg132
Nsg133
(dp1283
sg135
Nsg26
g29
sg136
(lp1284
I8
aI12
asg138
Nsg139
VEsther 8:12
p1285
sg141
(lp1286
sg143
g94
sg144
Nsg145
(lp1287
I8
aI12
asg147
Nsg148
g1285
sg149
(lp1288
sg151
g60
sg152
Nsg153
Nsg154
Nsbag2
(g3
g4
Ntp1289
Rp1290
(dp1291
g8
g11
sg132
Nsg133
(dp1292
sg135
Nsg26
g29
sg136
(lp1293
I8
aI13
asg138
Nsg139
VEsther 8:13
p1294
sg141
(lp1295
sg143
g94
sg144
Nsg145
(lp1296
I8
aI13
asg147
Nsg148
g1294
sg149
(lp1297
sg151
g60
sg152
Nsg153
Nsg154
Nsbag2
(g3
g4
Ntp1298
Rp1299
(dp1300
g8
g11
sg132
Nsg133
(dp1301
sg135
Nsg26
g29
sg136
(lp1302
I8
aI14
asg138
Nsg139
VEsther 8:14
p1303
sg141
(lp1304
sg143
g94
sg144
Nsg145
(lp1305
I8
aI14
asg147
Nsg148
g1303
sg149
(lp1306
sg151
g60
sg152
Nsg153
Nsg154
Nsbag2
(g3
g4
Ntp1307
Rp1308
(dp1309
g8
g11
sg132
Nsg133
(dp1310
sg135
Nsg26
g29
sg136
(lp1311
I8
aI15
asg138
Nsg139
VEsther 8:15
p1312
sg141
(lp1313
sg143
g94
sg144
Nsg145
(lp1314
I8
aI15
asg147
Nsg148
g1312
sg149
(lp1315
sg151
g60
sg152
Nsg153
Nsg154
Nsbag2
(g3
g4
Ntp1316
Rp1317
(dp1318
g8
g11
sg132
Nsg133
(dp1319
sg135
Nsg26
g29
sg136
(lp1320
I8
aI16
asg138
Nsg139
VEsther 8:16
p1321
sg141
(lp1322
sg143
g94
sg144
Nsg145
(lp1323
I8
aI16
asg147
Nsg148
g1321
sg149
(lp1324
sg151
g60
sg152
Nsg153
Nsg154
Nsbag2
(g3
g4
Ntp1325
Rp1326
(dp1327
g8
g11
sg132
Nsg133
(dp1328
sg135
Nsg26
g29
sg136
(lp1329
I8
aI17
asg138
Nsg139
VEsther 8:17
p1330
sg141
(lp1331
sg143
g94
sg144
Nsg145
(lp1332
I8
aI17
asg147
Nsg148
g1330
sg149
(lp1333
sg151
g60
sg152
Nsg153
Nsg154
Nsbag2
(g3
g4
Ntp1334
Rp1335
(dp1336
g8
g11
sg132
Nsg133
(dp1337
sg135
Nsg26
g29
sg136
(lp1338
I9
aI1
asg138
Nsg139
VEsther 9:1
p1339
sg141
(lp1340
sg143
g94
sg144
Nsg145
(lp1341
I9
aI1
asg147
Nsg148
g1339
sg149
(lp1342
sg151
g60
sg152
Nsg153
Nsg154
Nsbag2
(g3
g4
Ntp1343
Rp1344
(dp1345
g8
g11
sg132
Nsg133
(dp1346
sg135
Nsg26
g29
sg136
(lp1347
I9
aI2
asg138
Nsg139
VEsther 9:2
p1348
sg141
(lp1349
sg143
g94
sg144
Nsg145
(lp1350
I9
aI2
asg147
Nsg148
g1348
sg149
(lp1351
sg151
g60
sg152
Nsg153
Nsg154
Nsbag2
(g3
g4
Ntp1352
Rp1353
(dp1354
g8
g11
sg132
Nsg133
(dp1355
sg135
Nsg26
g29
sg136
(lp1356
I9
aI3
asg138
Nsg139
VEsther 9:3
p1357
sg141
(lp1358
sg143
g94
sg144
Nsg145
(lp1359
I9
aI3
asg147
Nsg148
g1357
sg149
(lp1360
sg151
g60
sg152
Nsg153
Nsg154
Nsbag2
(g3
g4
Ntp1361
Rp1362
(dp1363
g8
g11
sg132
Nsg133
(dp1364
sg135
Nsg26
g29
sg136
(lp1365
I9
aI4
asg138
Nsg139
VEsther 9:4
p1366
sg141
(lp1367
sg143
g94
sg144
Nsg145
(lp1368
I9
aI4
asg147
Nsg148
g1366
sg149
(lp1369
sg151
g60
sg152
Nsg153
Nsg154
Nsbag2
(g3
g4
Ntp1370
Rp1371
(dp1372
g8
g11
sg132
Nsg133
(dp1373
sg135
Nsg26
g29
sg136
(lp1374
I9
aI5
asg138
Nsg139
VEsther 9:5
p1375
sg141
(lp1376
sg143
g94
sg144
Nsg145
(lp1377
I9
aI5
asg147
Nsg148
g1375
sg149
(lp1378
sg151
g60
sg152
Nsg153
Nsg154
Nsbag2
(g3
g4
Ntp1379
Rp1380
(dp1381
g8
g11
sg132
Nsg133
(dp1382
sg135
Nsg26
g29
sg136
(lp1383
I9
aI6
asg138
Nsg139
VEsther 9:6
p1384
sg141
(lp1385
sg143
g94
sg144
Nsg145
(lp1386
I9
aI6
asg147
Nsg148
g1384
sg149
(lp1387
sg151
g60
sg152
Nsg153
Nsg154
Nsbag2
(g3
g4
Ntp1388
Rp1389
(dp1390
g8
g11
sg132
Nsg133
(dp1391
sg135
Nsg26
g29
sg136
(lp1392
I9
aI7
asg138
Nsg139
VEsther 9:7
p1393
sg141
(lp1394
sg143
g94
sg144
Nsg145
(lp1395
I9
aI7
asg147
Nsg148
g1393
sg149
(lp1396
sg151
g60
sg152
Nsg153
Nsg154
Nsbag2
(g3
g4
Ntp1397
Rp1398
(dp1399
g8
g11
sg132
Nsg133
(dp1400
sg135
Nsg26
g29
sg136
(lp1401
I9
aI8
asg138
Nsg139
VEsther 9:8
p1402
sg141
(lp1403
sg143
g94
sg144
Nsg145
(lp1404
I9
aI8
asg147
Nsg148
g1402
sg149
(lp1405
sg151
g60
sg152
Nsg153
Nsg154
Nsbag2
(g3
g4
Ntp1406
Rp1407
(dp1408
g8
g11
sg132
Nsg133
(dp1409
sg135
Nsg26
g29
sg136
(lp1410
I9
aI9
asg138
Nsg139
VEsther 9:9
p1411
sg141
(lp1412
sg143
g94
sg144
Nsg145
(lp1413
I9
aI9
asg147
Nsg148
g1411
sg149
(lp1414
sg151
g60
sg152
Nsg153
Nsg154
Nsbag2
(g3
g4
Ntp1415
Rp1416
(dp1417
g8
g11
sg132
Nsg133
(dp1418
sg135
Nsg26
g29
sg136
(lp1419
I9
aI10
asg138
Nsg139
VEsther 9:10
p1420
sg141
(lp1421
sg143
g94
sg144
Nsg145
(lp1422
I9
aI10
asg147
Nsg148
g1420
sg149
(lp1423
sg151
g60
sg152
Nsg153
Nsg154
Nsbag2
(g3
g4
Ntp1424
Rp1425
(dp1426
g8
g11
sg132
Nsg133
(dp1427
sg135
Nsg26
g29
sg136
(lp1428
I9
aI11
asg138
Nsg139
VEsther 9:11
p1429
sg141
(lp1430
sg143
g94
sg144
Nsg145
(lp1431
I9
aI11
asg147
Nsg148
g1429
sg149
(lp1432
sg151
g60
sg152
Nsg153
Nsg154
Nsbag2
(g3
g4
Ntp1433
Rp1434
(dp1435
g8
g11
sg132
Nsg133
(dp1436
sg135
Nsg26
g29
sg136
(lp1437
I9
aI12
asg138
Nsg139
VEsther 9:12
p1438
sg141
(lp1439
sg143
g94
sg144
Nsg145
(lp1440
I9
aI12
asg147
Nsg148
g1438
sg149
(lp1441
sg151
g60
sg152
Nsg153
Nsg154
Nsbag2
(g3
g4
Ntp1442
Rp1443
(dp1444
g8
g11
sg132
Nsg133
(dp1445
sg135
Nsg26
g29
sg136
(lp1446
I9
aI13
asg138
Nsg139
VEsther 9:13
p1447
sg141
(lp1448
sg143
g94
sg144
Nsg145
(lp1449
I9
aI13
asg147
Nsg148
g1447
sg149
(lp1450
sg151
g60
sg152
Nsg153
Nsg154
Nsbag2
(g3
g4
Ntp1451
Rp1452
(dp1453
g8
g11
sg132
Nsg133
(dp1454
sg135
Nsg26
g29
sg136
(lp1455
I9
aI14
asg138
Nsg139
VEsther 9:14
p1456
sg141
(lp1457
sg143
g94
sg144
Nsg145
(lp1458
I9
aI14
asg147
Nsg148
g1456
sg149
(lp1459
sg151
g60
sg152
Nsg153
Nsg154
Nsbag2
(g3
g4
Ntp1460
Rp1461
(dp1462
g8
g11
sg132
Nsg133
(dp1463
sg135
Nsg26
g29
sg136
(lp1464
I9
aI15
asg138
Nsg139
VEsther 9:15
p1465
sg141
(lp1466
sg143
g94
sg144
Nsg145
(lp1467
I9
aI15
asg147
Nsg148
g1465
sg149
(lp1468
sg151
g60
sg152
Nsg153
Nsg154
Nsbag2
(g3
g4
Ntp1469
Rp1470
(dp1471
g8
g11
sg132
Nsg133
(dp1472
sg135
Nsg26
g29
sg136
(lp1473
I9
aI16
asg138
Nsg139
VEsther 9:16
p1474
sg141
(lp1475
sg143
g94
sg144
Nsg145
(lp1476
I9
aI16
asg147
Nsg148
g1474
sg149
(lp1477
sg151
g60
sg152
Nsg153
Nsg154
Nsbag2
(g3
g4
Ntp1478
Rp1479
(dp1480
g8
g11
sg132
Nsg133
(dp1481
sg135
Nsg26
g29
sg136
(lp1482
I9
aI17
asg138
Nsg139
VEsther 9:17
p1483
sg141
(lp1484
sg143
g94
sg144
Nsg145
(lp1485
I9
aI17
asg147
Nsg148
g1483
sg149
(lp1486
sg151
g60
sg152
Nsg153
Nsg154
Nsbag2
(g3
g4
Ntp1487
Rp1488
(dp1489
g8
g11
sg132
Nsg133
(dp1490
sg135
Nsg26
g29
sg136
(lp1491
I9
aI18
asg138
Nsg139
VEsther 9:18
p1492
sg141
(lp1493
sg143
g94
sg144
Nsg145
(lp1494
I9
aI18
asg147
Nsg148
g1492
sg149
(lp1495
sg151
g60
sg152
Nsg153
Nsg154
Nsbag2
(g3
g4
Ntp1496
Rp1497
(dp1498
g8
g11
sg132
Nsg133
(dp1499
sg135
Nsg26
g29
sg136
(lp1500
I9
aI19
asg138
Nsg139
VEsther 9:19
p1501
sg141
(lp1502
sg143
g94
sg144
Nsg145
(lp1503
I9
aI19
asg147
Nsg148
g1501
sg149
(lp1504
sg151
g60
sg152
Nsg153
Nsg154
Nsbag2
(g3
g4
Ntp1505
Rp1506
(dp1507
g8
g11
sg132
Nsg133
(dp1508
sg135
Nsg26
g29
sg136
(lp1509
I9
aI20
asg138
Nsg139
VEsther 9:20
p1510
sg141
(lp1511
sg143
g94
sg144
Nsg145
(lp1512
I9
aI20
asg147
Nsg148
g1510
sg149
(lp1513
sg151
g60
sg152
Nsg153
Nsg154
Nsbag2
(g3
g4
Ntp1514
Rp1515
(dp1516
g8
g11
sg132
Nsg133
(dp1517
sg135
Nsg26
g29
sg136
(lp1518
I9
aI21
asg138
Nsg139
VEsther 9:21
p1519
sg141
(lp1520
sg143
g94
sg144
Nsg145
(lp1521
I9
aI21
asg147
Nsg148
g1519
sg149
(lp1522
sg151
g60
sg152
Nsg153
Nsg154
Nsbag2
(g3
g4
Ntp1523
Rp1524
(dp1525
g8
g11
sg132
Nsg133
(dp1526
sg135
Nsg26
g29
sg136
(lp1527
I9
aI22
asg138
Nsg139
VEsther 9:22
p1528
sg141
(lp1529
sg143
g94
sg144
Nsg145
(lp1530
I9
aI22
asg147
Nsg148
g1528
sg149
(lp1531
sg151
g60
sg152
Nsg153
Nsg154
Nsbag2
(g3
g4
Ntp1532
Rp1533
(dp1534
g8
g11
sg132
Nsg133
(dp1535
sg135
Nsg26
g29
sg136
(lp1536
I9
aI23
asg138
Nsg139
VEsther 9:23
p1537
sg141
(lp1538
sg143
g94
sg144
Nsg145
(lp1539
I9
aI23
asg147
Nsg148
g1537
sg149
(lp1540
sg151
g60
sg152
Nsg153
Nsg154
Nsbag2
(g3
g4
Ntp1541
Rp1542
(dp1543
g8
g11
sg132
Nsg133
(dp1544
sg135
Nsg26
g29
sg136
(lp1545
I9
aI24
asg138
Nsg139
VEsther 9:24
p1546
sg141
(lp1547
sg143
g94
sg144
Nsg145
(lp1548
I9
aI24
asg147
Nsg148
g1546
sg149
(lp1549
sg151
g60
sg152
Nsg153
Nsg154
Nsbag2
(g3
g4
Ntp1550
Rp1551
(dp1552
g8
g11
sg132
Nsg133
(dp1553
sg135
Nsg26
g29
sg136
(lp1554
I9
aI25
asg138
Nsg139
VEsther 9:25
p1555
sg141
(lp1556
sg143
g94
sg144
Nsg145
(lp1557
I9
aI25
asg147
Nsg148
g1555
sg149
(lp1558
sg151
g60
sg152
Nsg153
Nsg154
Nsbag2
(g3
g4
Ntp1559
Rp1560
(dp1561
g8
g11
sg132
Nsg133
(dp1562
sg135
Nsg26
g29
sg136
(lp1563
I9
aI26
asg138
Nsg139
VEsther 9:26
p1564
sg141
(lp1565
sg143
g94
sg144
Nsg145
(lp1566
I9
aI26
asg147
Nsg148
g1564
sg149
(lp1567
sg151
g60
sg152
Nsg153
Nsg154
Nsbag2
(g3
g4
Ntp1568
Rp1569
(dp1570
g8
g11
sg132
Nsg133
(dp1571
sg135
Nsg26
g29
sg136
(lp1572
I9
aI27
asg138
Nsg139
VEsther 9:27
p1573
sg141
(lp1574
sg143
g94
sg144
Nsg145
(lp1575
I9
aI27
asg147
Nsg148
g1573
sg149
(lp1576
sg151
g60
sg152
Nsg153
Nsg154
Nsbag2
(g3
g4
Ntp1577
Rp1578
(dp1579
g8
g11
sg132
Nsg133
(dp1580
sg135
Nsg26
g29
sg136
(lp1581
I9
aI28
asg138
Nsg139
VEsther 9:28
p1582
sg141
(lp1583
sg143
g94
sg144
Nsg145
(lp1584
I9
aI28
asg147
Nsg148
g1582
sg149
(lp1585
sg151
g60
sg152
Nsg153
Nsg154
Nsbag2
(g3
g4
Ntp1586
Rp1587
(dp1588
g8
g11
sg132
Nsg133
(dp1589
sg135
Nsg26
g29
sg136
(lp1590
I9
aI29
asg138
Nsg139
VEsther 9:29
p1591
sg141
(lp1592
sg143
g94
sg144
Nsg145
(lp1593
I9
aI29
asg147
Nsg148
g1591
sg149
(lp1594
sg151
g60
sg152
Nsg153
Nsg154
Nsbag2
(g3
g4
Ntp1595
Rp1596
(dp1597
g8
g11
sg132
Nsg133
(dp1598
sg135
Nsg26
g29
sg136
(lp1599
I9
aI30
asg138
Nsg139
VEsther 9:30
p1600
sg141
(lp1601
sg143
g94
sg144
Nsg145
(lp1602
I9
aI30
asg147
Nsg148
g1600
sg149
(lp1603
sg151
g60
sg152
Nsg153
Nsg154
Nsbag2
(g3
g4
Ntp1604
Rp1605
(dp1606
g8
g11
sg132
Nsg133
(dp1607
sg135
Nsg26
g29
sg136
(lp1608
I9
aI31
asg138
Nsg139
VEsther 9:31
p1609
sg141
(lp1610
sg143
g94
sg144
Nsg145
(lp1611
I9
aI31
asg147
Nsg148
g1609
sg149
(lp1612
sg151
g60
sg152
Nsg153
Nsg154
Nsbag2
(g3
g4
Ntp1613
Rp1614
(dp1615
g8
g11
sg132
Nsg133
(dp1616
sg135
Nsg26
g29
sg136
(lp1617
I9
aI32
asg138
Nsg139
VEsther 9:32
p1618
sg141
(lp1619
sg143
g94
sg144
Nsg145
(lp1620
I9
aI32
asg147
Nsg148
g1618
sg149
(lp1621
sg151
g60
sg152
Nsg153
Nsg154
Nsbag2
(g3
g4
Ntp1622
Rp1623
(dp1624
g8
g11
sg132
Nsg133
(dp1625
sg135
Nsg26
g29
sg136
(lp1626
I10
aI1
asg138
Nsg139
VEsther 10:1
p1627
sg141
(lp1628
sg143
g94
sg144
Nsg145
(lp1629
I10
aI1
asg147
Nsg148
g1627
sg149
(lp1630
sg151
g60
sg152
Nsg153
Nsg154
Nsbag2
(g3
g4
Ntp1631
Rp1632
(dp1633
g8
g11
sg132
Nsg133
(dp1634
sg135
Nsg26
g29
sg136
(lp1635
I10
aI2
asg138
Nsg139
VEsther 10:2
p1636
sg141
(lp1637
sg143
g94
sg144
Nsg145
(lp1638
I10
aI2
asg147
Nsg148
g1636
sg149
(lp1639
sg151
g60
sg152
Nsg153
Nsg154
Nsbag2
(g3
g4
Ntp1640
Rp1641
(dp1642
g8
g11
sg132
Nsg133
(dp1643
sg135
Nsg26
g29
sg136
(lp1644
I10
aI3
asg138
Nsg139
VEsther 10:3
p1645
sg141
(lp1646
sg143
g94
sg144
Nsg145
(lp1647
I10
aI3
asg147
Nsg148
g1645
sg149
(lp1648
sg151
g60
sg152
Nsg153
Nsg154
Nsbatp1649
.