((lp0
I0
aI24
aI45
aI66
aI87
aI106
aI120
aI134
aI146
aI157
aI169
aI185
aI203
aI221
aI227
aI233
aI239
aI250
aI256
aI262
aI267
aI273
aI279
aI285
aI291
aI296
aI302
aI307
aI313
aI318
aI323
aI327
aI333
aI337
aI342
aI346
aI355
aI362
aI367
aI374
aI378
aI383
aI390
aI395
aI403
aI409
aI416
aI425
aI429
aI435
aI440
aI448
aI454
aI472
aI479
aI485
aI491
aI498
aI504
aI510
aI516
aI524
aI530
aI536
aI542
aI546
aI555
aI561
aI570
aI579
aI596
aI606
aI623
aI632
aI645
aI654
aI668
aI677
aI688
aI701
aI717
aI729
aI741
aI762
aI779
aI792
aI804
aI816
aI838
aI872
aI892
aI913
aI935
aI958
aI976
aI988
aI1014
aI1041
aI1052
aI1067
aI1077
aI1097
aI1110
aI1129
aI1145
aI1159
aI1182
aI1201
aI1219
aI1248
aI1266
aI1285
aI1292
aI1310
aI1324
aI1338
aI1349
aI1373
aI1389
aI1406
aI1425
aI1449
aI1461
aI1479
aI1497
aI1507
aI1530
aI1547
aI1558
aI1582
aI1603
aI1618
aI1652
aI1668
aI1686
aI1718
aI1731
aI1743
aI1768
aI1782
aI1807
aI1823
aI1838
aI1867
aI1892
aI1902
aI1924
aI1949
aI1965
aI1987
aI2002
aI2015
aI2039
aI2052
aI2061
aI2076
aI2091
aI2112
aI2123
aI2126
aI2129
aI2132
aI2138
aI2161
aI2176
aI2184
aI2202
aI2215
aI2232
aI2244
aI2260
aI2277
aI2289
aI2306
aI2327
aI2342
aI2353
aI2366
aI2390
aI2410
aI2429
aI2449
aI2475
aI2500
aI2515
aI2536
aI2546
aI2555
aI2565
aI2573
aI2580
aI2587
aI2594
aI2601
aI2610
aI2617
aI2625
aI2633
aI2644
aI2652
aI2670
aI2684
aI2708
aI2725
aI2734
aI2747
aI2764
aI2789
aI2796
aI2806
aI2825
aI2840
aI2852
aI2865
aI2880
aI2891
aI2910
aI2916
aI2938
aI2946
aI2973
aI2988
aI3011
aI3028
aI3042
aI3058
aI3073
aI3090
aI3113
aI3136
aI3164
aI3173
aI3197
aI3222
aI3240
aI3255
aI3274
aI3295
aI3317
aI3333
aI3341
aI3354
aI3377
aI3386
aI3402
aI3425
aI3439
aI3453
aI3464
aI3483
aI3511
aI3523
aI3544
aI3555
aI3570
aI3579
aI3582
aI3589
aI3597
aI3607
aI3615
aI3625
aI3633
aI3641
aI3647
aI3656
aI3667
aI3674
aI3677
aI3686
aI3691
aI3695
aI3698
aI3702
aI3705
aI3708
aI3711
aI3714
aI3717
aI3727
a(lp1
ccopy_reg
_reconstructor
p2
(csefaria.model.text
Ref
p3
c__builtin__
object
p4
Ntp5
Rp6
(dp7
S'index_node'
p8
g2
(csefaria.model.schema
JaggedArrayNode
p9
g4
Ntp10
Rp11
(dp12
S'_address'
p13
(lp14
VEzra
p15
asS'_full_titles'
p16
(dp17
sVnodeType
p18
VJaggedArrayNode
p19
sS'parent'
p20
NsVaddressTypes
p21
(lp22
VInteger
p23
aVInteger
p24
asS'default'
p25
I00
sS'index'
p26
g2
(csefaria.model.text
Index
p27
g4
Ntp28
Rp29
(dp30
S'_id'
p31
g2
(cbson.objectid
ObjectId
p32
g4
Ntp33
Rp34
S'NJ\xb8l\xed\xba\xb4X3\x00\x00#'
p35
bsS'pkeys_orig_values'
p36
(dp37
S'title'
p38
VEzra
p39
ssS'pubDate'
p40
V1488
p41
sS'compDate'
p42
V-400
p43
sS'pubPlace'
p44
VSoncino
p45
sS'compPlace'
p46
VSecond Temple Judea
p47
sS'enDesc'
p48
VEzra\u2013Nehemiah is the original combined version of the biblical books of Ezra and Nehemiah\u2014the two were originally one, but were divided by Christians in the 3rd century CE and in Jewish circles in the 15th century. The text of Ezra\u2013Nehemiah is composed largely in Late Biblical Hebrew with significant sections in Aramaic; there are occasional reflections of Old Persian vocabulary, but little significant influence from Greek. Covering the period from the fall of Babylon in 539 BCE to the second half of the 5th century BCE, it tells of the successive missions to Jerusalem of Zerubbabel, Ezra, and Nehemiah, and their efforts to restore the worship of the God of Israel and to create a purified Jewish community. The narrative is highly schematic, each stage of the restoration following the same pattern: God "stirs up" the Persian king, the king commissions a Jewish leader to undertake a task, the leader overcomes opposition and succeeds, and success is marked by a great assembly.
p49
sS'order'
p50
(lp51
I36
aI10
asS'struct_objs'
p52
(dp53
sS'nodes'
p54
g11
sS'errorMargin'
p55
V50
p56
sS'_title'
p57
g39
sS'categories'
p58
(lp59
VTanakh
p60
aVWritings
p61
asS'schema'
p62
(dp63
g18
g19
sg21
g22
sVlengths
p64
(lp65
I10
aI280
asVdepth
p66
I2
sVtitles
p67
(lp68
(dp69
Vlang
p70
Ven
p71
sVtext
p72
VEzr.
p73
sa(dp74
Vlang
p75
Ven
p76
sVtext
p77
VEzr
p78
sa(dp79
Vlang
p80
Vhe
p81
sVtext
p82
V\u05e2\u05d6\u05e8\u05d0
p83
sVprimary
p84
I01
sa(dp85
Vlang
p86
Ven
p87
sVtext
p88
VEzra
p89
sVprimary
p90
I01
sasVkey
p91
g15
sVsectionNames
p92
(lp93
VChapter
p94
aVVerse
p95
assbsS'_primary_title'
p96
(dp97
sS'title_group'
p98
g2
(csefaria.model.schema
TitleGroup
p99
g4
Ntp100
Rp101
(dp102
g96
(dp103
S'en'
p104
g89
ssS'titles'
p105
g68
sbsS'_addressTypes'
p106
(lp107
g2
(csefaria.model.schema
AddressInteger
p108
g4
Ntp109
Rp110
(dp111
S'length'
p112
I10
sg50
I0
sbag2
(g108
g4
Ntp113
Rp114
(dp115
g112
Nsg50
I1
sbasS'sharedTitle'
p116
Nsg64
g65
sg66
I2
sS'_full_title'
p117
(dp118
g104
g89
ssS'key'
p119
g15
sS'checkFirst'
p120
NsS'_regexes'
p121
(dp122
sS'_leaf_nodes'
p123
(lp124
sg92
g93
sS'children'
p125
(lp126
sbsS'_range_index'
p127
NsS'_context'
p128
(dp129
sS'_padded'
p130
Nsg26
g29
sS'sections'
p131
(lp132
I1
aI1
asS'_first_spanned_ref'
p133
NsS'tref'
p134
VEzra 1:1
p135
sS'_spanned_refs'
p136
(lp137
sS'book'
p138
g89
sS'_range_depth'
p139
NsS'toSections'
p140
(lp141
I1
aI1
asS'_url'
p142
NsS'_normal'
p143
g135
sS'_ranged_refs'
p144
(lp145
sS'type'
p146
g60
sS'_prev'
p147
NsS'_he_normal'
p148
NsS'_next'
p149
Nsbag2
(g3
g4
Ntp150
Rp151
(dp152
g8
g11
sg127
Nsg128
(dp153
sg130
Nsg26
g29
sg131
(lp154
I1
aI2
asg133
Nsg134
VEzra 1:2
p155
sg136
(lp156
sg138
g89
sg139
Nsg140
(lp157
I1
aI2
asg142
Nsg143
g155
sg144
(lp158
sg146
g60
sg147
Nsg148
Nsg149
Nsbag2
(g3
g4
Ntp159
Rp160
(dp161
g8
g11
sg127
Nsg128
(dp162
sg130
Nsg26
g29
sg131
(lp163
I1
aI3
asg133
Nsg134
VEzra 1:3
p164
sg136
(lp165
sg138
g89
sg139
Nsg140
(lp166
I1
aI3
asg142
Nsg143
g164
sg144
(lp167
sg146
g60
sg147
Nsg148
Nsg149
Nsbag2
(g3
g4
Ntp168
Rp169
(dp170
g8
g11
sg127
Nsg128
(dp171
sg130
Nsg26
g29
sg131
(lp172
I1
aI4
asg133
Nsg134
VEzra 1:4
p173
sg136
(lp174
sg138
g89
sg139
Nsg140
(lp175
I1
aI4
asg142
Nsg143
g173
sg144
(lp176
sg146
g60
sg147
Nsg148
Nsg149
Nsbag2
(g3
g4
Ntp177
Rp178
(dp179
g8
g11
sg127
Nsg128
(dp180
sg130
Nsg26
g29
sg131
(lp181
I1
aI5
asg133
Nsg134
VEzra 1:5
p182
sg136
(lp183
sg138
g89
sg139
Nsg140
(lp184
I1
aI5
asg142
Nsg143
g182
sg144
(lp185
sg146
g60
sg147
Nsg148
Nsg149
Nsbag2
(g3
g4
Ntp186
Rp187
(dp188
g8
g11
sg127
Nsg128
(dp189
sg130
Nsg26
g29
sg131
(lp190
I1
aI6
asg133
Nsg134
VEzra 1:6
p191
sg136
(lp192
sg138
g89
sg139
Nsg140
(lp193
I1
aI6
asg142
Nsg143
g191
sg144
(lp194
sg146
g60
sg147
Nsg148
Nsg149
Nsbag2
(g3
g4
Ntp195
Rp196
(dp197
g8
g11
sg127
Nsg128
(dp198
sg130
Nsg26
g29
sg131
(lp199
I1
aI7
asg133
Nsg134
VEzra 1:7
p200
sg136
(lp201
sg138
g89
sg139
Nsg140
(lp202
I1
aI7
asg142
Nsg143
g200
sg144
(lp203
sg146
g60
sg147
Nsg148
Nsg149
Nsbag2
(g3
g4
Ntp204
Rp205
(dp206
g8
g11
sg127
Nsg128
(dp207
sg130
Nsg26
g29
sg131
(lp208
I1
aI8
asg133
Nsg134
VEzra 1:8
p209
sg136
(lp210
sg138
g89
sg139
Nsg140
(lp211
I1
aI8
asg142
Nsg143
g209
sg144
(lp212
sg146
g60
sg147
Nsg148
Nsg149
Nsbag2
(g3
g4
Ntp213
Rp214
(dp215
g8
g11
sg127
Nsg128
(dp216
sg130
Nsg26
g29
sg131
(lp217
I1
aI9
asg133
Nsg134
VEzra 1:9
p218
sg136
(lp219
sg138
g89
sg139
Nsg140
(lp220
I1
aI9
asg142
Nsg143
g218
sg144
(lp221
sg146
g60
sg147
Nsg148
Nsg149
Nsbag2
(g3
g4
Ntp222
Rp223
(dp224
g8
g11
sg127
Nsg128
(dp225
sg130
Nsg26
g29
sg131
(lp226
I1
aI10
asg133
Nsg134
VEzra 1:10
p227
sg136
(lp228
sg138
g89
sg139
Nsg140
(lp229
I1
aI10
asg142
Nsg143
g227
sg144
(lp230
sg146
g60
sg147
Nsg148
Nsg149
Nsbag2
(g3
g4
Ntp231
Rp232
(dp233
g8
g11
sg127
Nsg128
(dp234
sg130
Nsg26
g29
sg131
(lp235
I1
aI11
asg133
Nsg134
VEzra 1:11
p236
sg136
(lp237
sg138
g89
sg139
Nsg140
(lp238
I1
aI11
asg142
Nsg143
g236
sg144
(lp239
sg146
g60
sg147
Nsg148
Nsg149
Nsbag2
(g3
g4
Ntp240
Rp241
(dp242
g8
g11
sg127
Nsg128
(dp243
sg130
Nsg26
g29
sg131
(lp244
I2
aI1
asg133
Nsg134
VEzra 2:1
p245
sg136
(lp246
sg138
g89
sg139
Nsg140
(lp247
I2
aI1
asg142
Nsg143
g245
sg144
(lp248
sg146
g60
sg147
Nsg148
Nsg149
Nsbag2
(g3
g4
Ntp249
Rp250
(dp251
g8
g11
sg127
Nsg128
(dp252
sg130
Nsg26
g29
sg131
(lp253
I2
aI2
asg133
Nsg134
VEzra 2:2
p254
sg136
(lp255
sg138
g89
sg139
Nsg140
(lp256
I2
aI2
asg142
Nsg143
g254
sg144
(lp257
sg146
g60
sg147
Nsg148
Nsg149
Nsbag2
(g3
g4
Ntp258
Rp259
(dp260
g8
g11
sg127
Nsg128
(dp261
sg130
Nsg26
g29
sg131
(lp262
I2
aI3
asg133
Nsg134
VEzra 2:3
p263
sg136
(lp264
sg138
g89
sg139
Nsg140
(lp265
I2
aI3
asg142
Nsg143
g263
sg144
(lp266
sg146
g60
sg147
Nsg148
Nsg149
Nsbag2
(g3
g4
Ntp267
Rp268
(dp269
g8
g11
sg127
Nsg128
(dp270
sg130
Nsg26
g29
sg131
(lp271
I2
aI4
asg133
Nsg134
VEzra 2:4
p272
sg136
(lp273
sg138
g89
sg139
Nsg140
(lp274
I2
aI4
asg142
Nsg143
g272
sg144
(lp275
sg146
g60
sg147
Nsg148
Nsg149
Nsbag2
(g3
g4
Ntp276
Rp277
(dp278
g8
g11
sg127
Nsg128
(dp279
sg130
Nsg26
g29
sg131
(lp280
I2
aI5
asg133
Nsg134
VEzra 2:5
p281
sg136
(lp282
sg138
g89
sg139
Nsg140
(lp283
I2
aI5
asg142
Nsg143
g281
sg144
(lp284
sg146
g60
sg147
Nsg148
Nsg149
Nsbag2
(g3
g4
Ntp285
Rp286
(dp287
g8
g11
sg127
Nsg128
(dp288
sg130
Nsg26
g29
sg131
(lp289
I2
aI6
asg133
Nsg134
VEzra 2:6
p290
sg136
(lp291
sg138
g89
sg139
Nsg140
(lp292
I2
aI6
asg142
Nsg143
g290
sg144
(lp293
sg146
g60
sg147
Nsg148
Nsg149
Nsbag2
(g3
g4
Ntp294
Rp295
(dp296
g8
g11
sg127
Nsg128
(dp297
sg130
Nsg26
g29
sg131
(lp298
I2
aI7
asg133
Nsg134
VEzra 2:7
p299
sg136
(lp300
sg138
g89
sg139
Nsg140
(lp301
I2
aI7
asg142
Nsg143
g299
sg144
(lp302
sg146
g60
sg147
Nsg148
Nsg149
Nsbag2
(g3
g4
Ntp303
Rp304
(dp305
g8
g11
sg127
Nsg128
(dp306
sg130
Nsg26
g29
sg131
(lp307
I2
aI8
asg133
Nsg134
VEzra 2:8
p308
sg136
(lp309
sg138
g89
sg139
Nsg140
(lp310
I2
aI8
asg142
Nsg143
g308
sg144
(lp311
sg146
g60
sg147
Nsg148
Nsg149
Nsbag2
(g3
g4
Ntp312
Rp313
(dp314
g8
g11
sg127
Nsg128
(dp315
sg130
Nsg26
g29
sg131
(lp316
I2
aI9
asg133
Nsg134
VEzra 2:9
p317
sg136
(lp318
sg138
g89
sg139
Nsg140
(lp319
I2
aI9
asg142
Nsg143
g317
sg144
(lp320
sg146
g60
sg147
Nsg148
Nsg149
Nsbag2
(g3
g4
Ntp321
Rp322
(dp323
g8
g11
sg127
Nsg128
(dp324
sg130
Nsg26
g29
sg131
(lp325
I2
aI10
asg133
Nsg134
VEzra 2:10
p326
sg136
(lp327
sg138
g89
sg139
Nsg140
(lp328
I2
aI10
asg142
Nsg143
g326
sg144
(lp329
sg146
g60
sg147
Nsg148
Nsg149
Nsbag2
(g3
g4
Ntp330
Rp331
(dp332
g8
g11
sg127
Nsg128
(dp333
sg130
Nsg26
g29
sg131
(lp334
I2
aI11
asg133
Nsg134
VEzra 2:11
p335
sg136
(lp336
sg138
g89
sg139
Nsg140
(lp337
I2
aI11
asg142
Nsg143
g335
sg144
(lp338
sg146
g60
sg147
Nsg148
Nsg149
Nsbag2
(g3
g4
Ntp339
Rp340
(dp341
g8
g11
sg127
Nsg128
(dp342
sg130
Nsg26
g29
sg131
(lp343
I2
aI12
asg133
Nsg134
VEzra 2:12
p344
sg136
(lp345
sg138
g89
sg139
Nsg140
(lp346
I2
aI12
asg142
Nsg143
g344
sg144
(lp347
sg146
g60
sg147
Nsg148
Nsg149
Nsbag2
(g3
g4
Ntp348
Rp349
(dp350
g8
g11
sg127
Nsg128
(dp351
sg130
Nsg26
g29
sg131
(lp352
I2
aI13
asg133
Nsg134
VEzra 2:13
p353
sg136
(lp354
sg138
g89
sg139
Nsg140
(lp355
I2
aI13
asg142
Nsg143
g353
sg144
(lp356
sg146
g60
sg147
Nsg148
Nsg149
Nsbag2
(g3
g4
Ntp357
Rp358
(dp359
g8
g11
sg127
Nsg128
(dp360
sg130
Nsg26
g29
sg131
(lp361
I2
aI14
asg133
Nsg134
VEzra 2:14
p362
sg136
(lp363
sg138
g89
sg139
Nsg140
(lp364
I2
aI14
asg142
Nsg143
g362
sg144
(lp365
sg146
g60
sg147
Nsg148
Nsg149
Nsbag2
(g3
g4
Ntp366
Rp367
(dp368
g8
g11
sg127
Nsg128
(dp369
sg130
Nsg26
g29
sg131
(lp370
I2
aI15
asg133
Nsg134
VEzra 2:15
p371
sg136
(lp372
sg138
g89
sg139
Nsg140
(lp373
I2
aI15
asg142
Nsg143
g371
sg144
(lp374
sg146
g60
sg147
Nsg148
Nsg149
Nsbag2
(g3
g4
Ntp375
Rp376
(dp377
g8
g11
sg127
Nsg128
(dp378
sg130
Nsg26
g29
sg131
(lp379
I2
aI16
asg133
Nsg134
VEzra 2:16
p380
sg136
(lp381
sg138
g89
sg139
Nsg140
(lp382
I2
aI16
asg142
Nsg143
g380
sg144
(lp383
sg146
g60
sg147
Nsg148
Nsg149
Nsbag2
(g3
g4
Ntp384
Rp385
(dp386
g8
g11
sg127
Nsg128
(dp387
sg130
Nsg26
g29
sg131
(lp388
I2
aI17
asg133
Nsg134
VEzra 2:17
p389
sg136
(lp390
sg138
g89
sg139
Nsg140
(lp391
I2
aI17
asg142
Nsg143
g389
sg144
(lp392
sg146
g60
sg147
Nsg148
Nsg149
Nsbag2
(g3
g4
Ntp393
Rp394
(dp395
g8
g11
sg127
Nsg128
(dp396
sg130
Nsg26
g29
sg131
(lp397
I2
aI18
asg133
Nsg134
VEzra 2:18
p398
sg136
(lp399
sg138
g89
sg139
Nsg140
(lp400
I2
aI18
asg142
Nsg143
g398
sg144
(lp401
sg146
g60
sg147
Nsg148
Nsg149
Nsbag2
(g3
g4
Ntp402
Rp403
(dp404
g8
g11
sg127
Nsg128
(dp405
sg130
Nsg26
g29
sg131
(lp406
I2
aI19
asg133
Nsg134
VEzra 2:19
p407
sg136
(lp408
sg138
g89
sg139
Nsg140
(lp409
I2
aI19
asg142
Nsg143
g407
sg144
(lp410
sg146
g60
sg147
Nsg148
Nsg149
Nsbag2
(g3
g4
Ntp411
Rp412
(dp413
g8
g11
sg127
Nsg128
(dp414
sg130
Nsg26
g29
sg131
(lp415
I2
aI20
asg133
Nsg134
VEzra 2:20
p416
sg136
(lp417
sg138
g89
sg139
Nsg140
(lp418
I2
aI20
asg142
Nsg143
g416
sg144
(lp419
sg146
g60
sg147
Nsg148
Nsg149
Nsbag2
(g3
g4
Ntp420
Rp421
(dp422
g8
g11
sg127
Nsg128
(dp423
sg130
Nsg26
g29
sg131
(lp424
I2
aI21
asg133
Nsg134
VEzra 2:21
p425
sg136
(lp426
sg138
g89
sg139
Nsg140
(lp427
I2
aI21
asg142
Nsg143
g425
sg144
(lp428
sg146
g60
sg147
Nsg148
Nsg149
Nsbag2
(g3
g4
Ntp429
Rp430
(dp431
g8
g11
sg127
Nsg128
(dp432
sg130
Nsg26
g29
sg131
(lp433
I2
aI22
asg133
Nsg134
VEzra 2:22
p434
sg136
(lp435
sg138
g89
sg139
Nsg140
(lp436
I2
aI22
asg142
Nsg143
g434
sg144
(lp437
sg146
g60
sg147
Nsg148
Nsg149
Nsbag2
(g3
g4
Ntp438
Rp439
(dp440
g8
g11
sg127
Nsg128
(dp441
sg130
Nsg26
g29
sg131
(lp442
I2
aI23
asg133
Nsg134
VEzra 2:23
p443
sg136
(lp444
sg138
g89
sg139
Nsg140
(lp445
I2
aI23
asg142
Nsg143
g443
sg144
(lp446
sg146
g60
sg147
Nsg148
Nsg149
Nsbag2
(g3
g4
Ntp447
Rp448
(dp449
g8
g11
sg127
Nsg128
(dp450
sg130
Nsg26
g29
sg131
(lp451
I2
aI24
asg133
Nsg134
VEzra 2:24
p452
sg136
(lp453
sg138
g89
sg139
Nsg140
(lp454
I2
aI24
asg142
Nsg143
g452
sg144
(lp455
sg146
g60
sg147
Nsg148
Nsg149
Nsbag2
(g3
g4
Ntp456
Rp457
(dp458
g8
g11
sg127
Nsg128
(dp459
sg130
Nsg26
g29
sg131
(lp460
I2
aI25
asg133
Nsg134
VEzra 2:25
p461
sg136
(lp462
sg138
g89
sg139
Nsg140
(lp463
I2
aI25
asg142
Nsg143
g461
sg144
(lp464
sg146
g60
sg147
Nsg148
Nsg149
Nsbag2
(g3
g4
Ntp465
Rp466
(dp467
g8
g11
sg127
Nsg128
(dp468
sg130
Nsg26
g29
sg131
(lp469
I2
aI26
asg133
Nsg134
VEzra 2:26
p470
sg136
(lp471
sg138
g89
sg139
Nsg140
(lp472
I2
aI26
asg142
Nsg143
g470
sg144
(lp473
sg146
g60
sg147
Nsg148
Nsg149
Nsbag2
(g3
g4
Ntp474
Rp475
(dp476
g8
g11
sg127
Nsg128
(dp477
sg130
Nsg26
g29
sg131
(lp478
I2
aI27
asg133
Nsg134
VEzra 2:27
p479
sg136
(lp480
sg138
g89
sg139
Nsg140
(lp481
I2
aI27
asg142
Nsg143
g479
sg144
(lp482
sg146
g60
sg147
Nsg148
Nsg149
Nsbag2
(g3
g4
Ntp483
Rp484
(dp485
g8
g11
sg127
Nsg128
(dp486
sg130
Nsg26
g29
sg131
(lp487
I2
aI28
asg133
Nsg134
VEzra 2:28
p488
sg136
(lp489
sg138
g89
sg139
Nsg140
(lp490
I2
aI28
asg142
Nsg143
g488
sg144
(lp491
sg146
g60
sg147
Nsg148
Nsg149
Nsbag2
(g3
g4
Ntp492
Rp493
(dp494
g8
g11
sg127
Nsg128
(dp495
sg130
Nsg26
g29
sg131
(lp496
I2
aI29
asg133
Nsg134
VEzra 2:29
p497
sg136
(lp498
sg138
g89
sg139
Nsg140
(lp499
I2
aI29
asg142
Nsg143
g497
sg144
(lp500
sg146
g60
sg147
Nsg148
Nsg149
Nsbag2
(g3
g4
Ntp501
Rp502
(dp503
g8
g11
sg127
Nsg128
(dp504
sg130
Nsg26
g29
sg131
(lp505
I2
aI30
asg133
Nsg134
VEzra 2:30
p506
sg136
(lp507
sg138
g89
sg139
Nsg140
(lp508
I2
aI30
asg142
Nsg143
g506
sg144
(lp509
sg146
g60
sg147
Nsg148
Nsg149
Nsbag2
(g3
g4
Ntp510
Rp511
(dp512
g8
g11
sg127
Nsg128
(dp513
sg130
Nsg26
g29
sg131
(lp514
I2
aI31
asg133
Nsg134
VEzra 2:31
p515
sg136
(lp516
sg138
g89
sg139
Nsg140
(lp517
I2
aI31
asg142
Nsg143
g515
sg144
(lp518
sg146
g60
sg147
Nsg148
Nsg149
Nsbag2
(g3
g4
Ntp519
Rp520
(dp521
g8
g11
sg127
Nsg128
(dp522
sg130
Nsg26
g29
sg131
(lp523
I2
aI32
asg133
Nsg134
VEzra 2:32
p524
sg136
(lp525
sg138
g89
sg139
Nsg140
(lp526
I2
aI32
asg142
Nsg143
g524
sg144
(lp527
sg146
g60
sg147
Nsg148
Nsg149
Nsbag2
(g3
g4
Ntp528
Rp529
(dp530
g8
g11
sg127
Nsg128
(dp531
sg130
Nsg26
g29
sg131
(lp532
I2
aI33
asg133
Nsg134
VEzra 2:33
p533
sg136
(lp534
sg138
g89
sg139
Nsg140
(lp535
I2
aI33
asg142
Nsg143
g533
sg144
(lp536
sg146
g60
sg147
Nsg148
Nsg149
Nsbag2
(g3
g4
Ntp537
Rp538
(dp539
g8
g11
sg127
Nsg128
(dp540
sg130
Nsg26
g29
sg131
(lp541
I2
aI34
asg133
Nsg134
VEzra 2:34
p542
sg136
(lp543
sg138
g89
sg139
Nsg140
(lp544
I2
aI34
asg142
Nsg143
g542
sg144
(lp545
sg146
g60
sg147
Nsg148
Nsg149
Nsbag2
(g3
g4
Ntp546
Rp547
(dp548
g8
g11
sg127
Nsg128
(dp549
sg130
Nsg26
g29
sg131
(lp550
I2
aI35
asg133
Nsg134
VEzra 2:35
p551
sg136
(lp552
sg138
g89
sg139
Nsg140
(lp553
I2
aI35
asg142
Nsg143
g551
sg144
(lp554
sg146
g60
sg147
Nsg148
Nsg149
Nsbag2
(g3
g4
Ntp555
Rp556
(dp557
g8
g11
sg127
Nsg128
(dp558
sg130
Nsg26
g29
sg131
(lp559
I2
aI36
asg133
Nsg134
VEzra 2:36
p560
sg136
(lp561
sg138
g89
sg139
Nsg140
(lp562
I2
aI36
asg142
Nsg143
g560
sg144
(lp563
sg146
g60
sg147
Nsg148
Nsg149
Nsbag2
(g3
g4
Ntp564
Rp565
(dp566
g8
g11
sg127
Nsg128
(dp567
sg130
Nsg26
g29
sg131
(lp568
I2
aI37
asg133
Nsg134
VEzra 2:37
p569
sg136
(lp570
sg138
g89
sg139
Nsg140
(lp571
I2
aI37
asg142
Nsg143
g569
sg144
(lp572
sg146
g60
sg147
Nsg148
Nsg149
Nsbag2
(g3
g4
Ntp573
Rp574
(dp575
g8
g11
sg127
Nsg128
(dp576
sg130
Nsg26
g29
sg131
(lp577
I2
aI38
asg133
Nsg134
VEzra 2:38
p578
sg136
(lp579
sg138
g89
sg139
Nsg140
(lp580
I2
aI38
asg142
Nsg143
g578
sg144
(lp581
sg146
g60
sg147
Nsg148
Nsg149
Nsbag2
(g3
g4
Ntp582
Rp583
(dp584
g8
g11
sg127
Nsg128
(dp585
sg130
Nsg26
g29
sg131
(lp586
I2
aI39
asg133
Nsg134
VEzra 2:39
p587
sg136
(lp588
sg138
g89
sg139
Nsg140
(lp589
I2
aI39
asg142
Nsg143
g587
sg144
(lp590
sg146
g60
sg147
Nsg148
Nsg149
Nsbag2
(g3
g4
Ntp591
Rp592
(dp593
g8
g11
sg127
Nsg128
(dp594
sg130
Nsg26
g29
sg131
(lp595
I2
aI40
asg133
Nsg134
VEzra 2:40
p596
sg136
(lp597
sg138
g89
sg139
Nsg140
(lp598
I2
aI40
asg142
Nsg143
g596
sg144
(lp599
sg146
g60
sg147
Nsg148
Nsg149
Nsbag2
(g3
g4
Ntp600
Rp601
(dp602
g8
g11
sg127
Nsg128
(dp603
sg130
Nsg26
g29
sg131
(lp604
I2
aI41
asg133
Nsg134
VEzra 2:41
p605
sg136
(lp606
sg138
g89
sg139
Nsg140
(lp607
I2
aI41
asg142
Nsg143
g605
sg144
(lp608
sg146
g60
sg147
Nsg148
Nsg149
Nsbag2
(g3
g4
Ntp609
Rp610
(dp611
g8
g11
sg127
Nsg128
(dp612
sg130
Nsg26
g29
sg131
(lp613
I2
aI42
asg133
Nsg134
VEzra 2:42
p614
sg136
(lp615
sg138
g89
sg139
Nsg140
(lp616
I2
aI42
asg142
Nsg143
g614
sg144
(lp617
sg146
g60
sg147
Nsg148
Nsg149
Nsbag2
(g3
g4
Ntp618
Rp619
(dp620
g8
g11
sg127
Nsg128
(dp621
sg130
Nsg26
g29
sg131
(lp622
I2
aI43
asg133
Nsg134
VEzra 2:43
p623
sg136
(lp624
sg138
g89
sg139
Nsg140
(lp625
I2
aI43
asg142
Nsg143
g623
sg144
(lp626
sg146
g60
sg147
Nsg148
Nsg149
Nsbag2
(g3
g4
Ntp627
Rp628
(dp629
g8
g11
sg127
Nsg128
(dp630
sg130
Nsg26
g29
sg131
(lp631
I2
aI44
asg133
Nsg134
VEzra 2:44
p632
sg136
(lp633
sg138
g89
sg139
Nsg140
(lp634
I2
aI44
asg142
Nsg143
g632
sg144
(lp635
sg146
g60
sg147
Nsg148
Nsg149
Nsbag2
(g3
g4
Ntp636
Rp637
(dp638
g8
g11
sg127
Nsg128
(dp639
sg130
Nsg26
g29
sg131
(lp640
I2
aI45
asg133
Nsg134
VEzra 2:45
p641
sg136
(lp642
sg138
g89
sg139
Nsg140
(lp643
I2
aI45
asg142
Nsg143
g641
sg144
(lp644
sg146
g60
sg147
Nsg148
Nsg149
Nsbag2
(g3
g4
Ntp645
Rp646
(dp647
g8
g11
sg127
Nsg128
(dp648
sg130
Nsg26
g29
sg131
(lp649
I2
aI46
asg133
Nsg134
VEzra 2:46
p650
sg136
(lp651
sg138
g89
sg139
Nsg140
(lp652
I2
aI46
asg142
Nsg143
g650
sg144
(lp653
sg146
g60
sg147
Nsg148
Nsg149
Nsbag2
(g3
g4
Ntp654
Rp655
(dp656
g8
g11
sg127
Nsg128
(dp657
sg130
Nsg26
g29
sg131
(lp658
I2
aI47
asg133
Nsg134
VEzra 2:47
p659
sg136
(lp660
sg138
g89
sg139
Nsg140
(lp661
I2
aI47
asg142
Nsg143
g659
sg144
(lp662
sg146
g60
sg147
Nsg148
Nsg149
Nsbag2
(g3
g4
Ntp663
Rp664
(dp665
g8
g11
sg127
Nsg128
(dp666
sg130
Nsg26
g29
sg131
(lp667
I2
aI48
asg133
Nsg134
VEzra 2:48
p668
sg136
(lp669
sg138
g89
sg139
Nsg140
(lp670
I2
aI48
asg142
Nsg143
g668
sg144
(lp671
sg146
g60
sg147
Nsg148
Nsg149
Nsbag2
(g3
g4
Ntp672
Rp673
(dp674
g8
g11
sg127
Nsg128
(dp675
sg130
Nsg26
g29
sg131
(lp676
I2
aI49
asg133
Nsg134
VEzra 2:49
p677
sg136
(lp678
sg138
g89
sg139
Nsg140
(lp679
I2
aI49
asg142
Nsg143
g677
sg144
(lp680
sg146
g60
sg147
Nsg148
Nsg149
Nsbag2
(g3
g4
Ntp681
Rp682
(dp683
g8
g11
sg127
Nsg128
(dp684
sg130
Nsg26
g29
sg131
(lp685
I2
aI50
asg133
Nsg134
VEzra 2:50
p686
sg136
(lp687
sg138
g89
sg139
Nsg140
(lp688
I2
aI50
asg142
Nsg143
g686
sg144
(lp689
sg146
g60
sg147
Nsg148
Nsg149
Nsbag2
(g3
g4
Ntp690
Rp691
(dp692
g8
g11
sg127
Nsg128
(dp693
sg130
Nsg26
g29
sg131
(lp694
I2
aI51
asg133
Nsg134
VEzra 2:51
p695
sg136
(lp696
sg138
g89
sg139
Nsg140
(lp697
I2
aI51
asg142
Nsg143
g695
sg144
(lp698
sg146
g60
sg147
Nsg148
Nsg149
Nsbag2
(g3
g4
Ntp699
Rp700
(dp701
g8
g11
sg127
Nsg128
(dp702
sg130
Nsg26
g29
sg131
(lp703
I2
aI52
asg133
Nsg134
VEzra 2:52
p704
sg136
(lp705
sg138
g89
sg139
Nsg140
(lp706
I2
aI52
asg142
Nsg143
g704
sg144
(lp707
sg146
g60
sg147
Nsg148
Nsg149
Nsbag2
(g3
g4
Ntp708
Rp709
(dp710
g8
g11
sg127
Nsg128
(dp711
sg130
Nsg26
g29
sg131
(lp712
I2
aI53
asg133
Nsg134
VEzra 2:53
p713
sg136
(lp714
sg138
g89
sg139
Nsg140
(lp715
I2
aI53
asg142
Nsg143
g713
sg144
(lp716
sg146
g60
sg147
Nsg148
Nsg149
Nsbag2
(g3
g4
Ntp717
Rp718
(dp719
g8
g11
sg127
Nsg128
(dp720
sg130
Nsg26
g29
sg131
(lp721
I2
aI54
asg133
Nsg134
VEzra 2:54
p722
sg136
(lp723
sg138
g89
sg139
Nsg140
(lp724
I2
aI54
asg142
Nsg143
g722
sg144
(lp725
sg146
g60
sg147
Nsg148
Nsg149
Nsbag2
(g3
g4
Ntp726
Rp727
(dp728
g8
g11
sg127
Nsg128
(dp729
sg130
Nsg26
g29
sg131
(lp730
I2
aI55
asg133
Nsg134
VEzra 2:55
p731
sg136
(lp732
sg138
g89
sg139
Nsg140
(lp733
I2
aI55
asg142
Nsg143
g731
sg144
(lp734
sg146
g60
sg147
Nsg148
Nsg149
Nsbag2
(g3
g4
Ntp735
Rp736
(dp737
g8
g11
sg127
Nsg128
(dp738
sg130
Nsg26
g29
sg131
(lp739
I2
aI56
asg133
Nsg134
VEzra 2:56
p740
sg136
(lp741
sg138
g89
sg139
Nsg140
(lp742
I2
aI56
asg142
Nsg143
g740
sg144
(lp743
sg146
g60
sg147
Nsg148
Nsg149
Nsbag2
(g3
g4
Ntp744
Rp745
(dp746
g8
g11
sg127
Nsg128
(dp747
sg130
Nsg26
g29
sg131
(lp748
I2
aI57
asg133
Nsg134
VEzra 2:57
p749
sg136
(lp750
sg138
g89
sg139
Nsg140
(lp751
I2
aI57
asg142
Nsg143
g749
sg144
(lp752
sg146
g60
sg147
Nsg148
Nsg149
Nsbag2
(g3
g4
Ntp753
Rp754
(dp755
g8
g11
sg127
Nsg128
(dp756
sg130
Nsg26
g29
sg131
(lp757
I2
aI58
asg133
Nsg134
VEzra 2:58
p758
sg136
(lp759
sg138
g89
sg139
Nsg140
(lp760
I2
aI58
asg142
Nsg143
g758
sg144
(lp761
sg146
g60
sg147
Nsg148
Nsg149
Nsbag2
(g3
g4
Ntp762
Rp763
(dp764
g8
g11
sg127
Nsg128
(dp765
sg130
Nsg26
g29
sg131
(lp766
I2
aI59
asg133
Nsg134
VEzra 2:59
p767
sg136
(lp768
sg138
g89
sg139
Nsg140
(lp769
I2
aI59
asg142
Nsg143
g767
sg144
(lp770
sg146
g60
sg147
Nsg148
Nsg149
Nsbag2
(g3
g4
Ntp771
Rp772
(dp773
g8
g11
sg127
Nsg128
(dp774
sg130
Nsg26
g29
sg131
(lp775
I2
aI60
asg133
Nsg134
VEzra 2:60
p776
sg136
(lp777
sg138
g89
sg139
Nsg140
(lp778
I2
aI60
asg142
Nsg143
g776
sg144
(lp779
sg146
g60
sg147
Nsg148
Nsg149
Nsbag2
(g3
g4
Ntp780
Rp781
(dp782
g8
g11
sg127
Nsg128
(dp783
sg130
Nsg26
g29
sg131
(lp784
I2
aI61
asg133
Nsg134
VEzra 2:61
p785
sg136
(lp786
sg138
g89
sg139
Nsg140
(lp787
I2
aI61
asg142
Nsg143
g785
sg144
(lp788
sg146
g60
sg147
Nsg148
Nsg149
Nsbag2
(g3
g4
Ntp789
Rp790
(dp791
g8
g11
sg127
Nsg128
(dp792
sg130
Nsg26
g29
sg131
(lp793
I2
aI62
asg133
Nsg134
VEzra 2:62
p794
sg136
(lp795
sg138
g89
sg139
Nsg140
(lp796
I2
aI62
asg142
Nsg143
g794
sg144
(lp797
sg146
g60
sg147
Nsg148
Nsg149
Nsbag2
(g3
g4
Ntp798
Rp799
(dp800
g8
g11
sg127
Nsg128
(dp801
sg130
Nsg26
g29
sg131
(lp802
I2
aI63
asg133
Nsg134
VEzra 2:63
p803
sg136
(lp804
sg138
g89
sg139
Nsg140
(lp805
I2
aI63
asg142
Nsg143
g803
sg144
(lp806
sg146
g60
sg147
Nsg148
Nsg149
Nsbag2
(g3
g4
Ntp807
Rp808
(dp809
g8
g11
sg127
Nsg128
(dp810
sg130
Nsg26
g29
sg131
(lp811
I2
aI64
asg133
Nsg134
VEzra 2:64
p812
sg136
(lp813
sg138
g89
sg139
Nsg140
(lp814
I2
aI64
asg142
Nsg143
g812
sg144
(lp815
sg146
g60
sg147
Nsg148
Nsg149
Nsbag2
(g3
g4
Ntp816
Rp817
(dp818
g8
g11
sg127
Nsg128
(dp819
sg130
Nsg26
g29
sg131
(lp820
I2
aI65
asg133
Nsg134
VEzra 2:65
p821
sg136
(lp822
sg138
g89
sg139
Nsg140
(lp823
I2
aI65
asg142
Nsg143
g821
sg144
(lp824
sg146
g60
sg147
Nsg148
Nsg149
Nsbag2
(g3
g4
Ntp825
Rp826
(dp827
g8
g11
sg127
Nsg128
(dp828
sg130
Nsg26
g29
sg131
(lp829
I2
aI66
asg133
Nsg134
VEzra 2:66
p830
sg136
(lp831
sg138
g89
sg139
Nsg140
(lp832
I2
aI66
asg142
Nsg143
g830
sg144
(lp833
sg146
g60
sg147
Nsg148
Nsg149
Nsbag2
(g3
g4
Ntp834
Rp835
(dp836
g8
g11
sg127
Nsg128
(dp837
sg130
Nsg26
g29
sg131
(lp838
I2
aI67
asg133
Nsg134
VEzra 2:67
p839
sg136
(lp840
sg138
g89
sg139
Nsg140
(lp841
I2
aI67
asg142
Nsg143
g839
sg144
(lp842
sg146
g60
sg147
Nsg148
Nsg149
Nsbag2
(g3
g4
Ntp843
Rp844
(dp845
g8
g11
sg127
Nsg128
(dp846
sg130
Nsg26
g29
sg131
(lp847
I2
aI68
asg133
Nsg134
VEzra 2:68
p848
sg136
(lp849
sg138
g89
sg139
Nsg140
(lp850
I2
aI68
asg142
Nsg143
g848
sg144
(lp851
sg146
g60
sg147
Nsg148
Nsg149
Nsbag2
(g3
g4
Ntp852
Rp853
(dp854
g8
g11
sg127
Nsg128
(dp855
sg130
Nsg26
g29
sg131
(lp856
I2
aI69
asg133
Nsg134
VEzra 2:69
p857
sg136
(lp858
sg138
g89
sg139
Nsg140
(lp859
I2
aI69
asg142
Nsg143
g857
sg144
(lp860
sg146
g60
sg147
Nsg148
Nsg149
Nsbag2
(g3
g4
Ntp861
Rp862
(dp863
g8
g11
sg127
Nsg128
(dp864
sg130
Nsg26
g29
sg131
(lp865
I2
aI70
asg133
Nsg134
VEzra 2:70
p866
sg136
(lp867
sg138
g89
sg139
Nsg140
(lp868
I2
aI70
asg142
Nsg143
g866
sg144
(lp869
sg146
g60
sg147
Nsg148
Nsg149
Nsbag2
(g3
g4
Ntp870
Rp871
(dp872
g8
g11
sg127
Nsg128
(dp873
sg130
Nsg26
g29
sg131
(lp874
I3
aI1
asg133
Nsg134
VEzra 3:1
p875
sg136
(lp876
sg138
g89
sg139
Nsg140
(lp877
I3
aI1
asg142
Nsg143
g875
sg144
(lp878
sg146
g60
sg147
Nsg148
Nsg149
Nsbag2
(g3
g4
Ntp879
Rp880
(dp881
g8
g11
sg127
Nsg128
(dp882
sg130
Nsg26
g29
sg131
(lp883
I3
aI2
asg133
Nsg134
VEzra 3:2
p884
sg136
(lp885
sg138
g89
sg139
Nsg140
(lp886
I3
aI2
asg142
Nsg143
g884
sg144
(lp887
sg146
g60
sg147
Nsg148
Nsg149
Nsbag2
(g3
g4
Ntp888
Rp889
(dp890
g8
g11
sg127
Nsg128
(dp891
sg130
Nsg26
g29
sg131
(lp892
I3
aI3
asg133
Nsg134
VEzra 3:3
p893
sg136
(lp894
sg138
g89
sg139
Nsg140
(lp895
I3
aI3
asg142
Nsg143
g893
sg144
(lp896
sg146
g60
sg147
Nsg148
Nsg149
Nsbag2
(g3
g4
Ntp897
Rp898
(dp899
g8
g11
sg127
Nsg128
(dp900
sg130
Nsg26
g29
sg131
(lp901
I3
aI4
asg133
Nsg134
VEzra 3:4
p902
sg136
(lp903
sg138
g89
sg139
Nsg140
(lp904
I3
aI4
asg142
Nsg143
g902
sg144
(lp905
sg146
g60
sg147
Nsg148
Nsg149
Nsbag2
(g3
g4
Ntp906
Rp907
(dp908
g8
g11
sg127
Nsg128
(dp909
sg130
Nsg26
g29
sg131
(lp910
I3
aI5
asg133
Nsg134
VEzra 3:5
p911
sg136
(lp912
sg138
g89
sg139
Nsg140
(lp913
I3
aI5
asg142
Nsg143
g911
sg144
(lp914
sg146
g60
sg147
Nsg148
Nsg149
Nsbag2
(g3
g4
Ntp915
Rp916
(dp917
g8
g11
sg127
Nsg128
(dp918
sg130
Nsg26
g29
sg131
(lp919
I3
aI6
asg133
Nsg134
VEzra 3:6
p920
sg136
(lp921
sg138
g89
sg139
Nsg140
(lp922
I3
aI6
asg142
Nsg143
g920
sg144
(lp923
sg146
g60
sg147
Nsg148
Nsg149
Nsbag2
(g3
g4
Ntp924
Rp925
(dp926
g8
g11
sg127
Nsg128
(dp927
sg130
Nsg26
g29
sg131
(lp928
I3
aI7
asg133
Nsg134
VEzra 3:7
p929
sg136
(lp930
sg138
g89
sg139
Nsg140
(lp931
I3
aI7
asg142
Nsg143
g929
sg144
(lp932
sg146
g60
sg147
Nsg148
Nsg149
Nsbag2
(g3
g4
Ntp933
Rp934
(dp935
g8
g11
sg127
Nsg128
(dp936
sg130
Nsg26
g29
sg131
(lp937
I3
aI8
asg133
Nsg134
VEzra 3:8
p938
sg136
(lp939
sg138
g89
sg139
Nsg140
(lp940
I3
aI8
asg142
Nsg143
g938
sg144
(lp941
sg146
g60
sg147
Nsg148
Nsg149
Nsbag2
(g3
g4
Ntp942
Rp943
(dp944
g8
g11
sg127
Nsg128
(dp945
sg130
Nsg26
g29
sg131
(lp946
I3
aI9
asg133
Nsg134
VEzra 3:9
p947
sg136
(lp948
sg138
g89
sg139
Nsg140
(lp949
I3
aI9
asg142
Nsg143
g947
sg144
(lp950
sg146
g60
sg147
Nsg148
Nsg149
Nsbag2
(g3
g4
Ntp951
Rp952
(dp953
g8
g11
sg127
Nsg128
(dp954
sg130
Nsg26
g29
sg131
(lp955
I3
aI10
asg133
Nsg134
VEzra 3:10
p956
sg136
(lp957
sg138
g89
sg139
Nsg140
(lp958
I3
aI10
asg142
Nsg143
g956
sg144
(lp959
sg146
g60
sg147
Nsg148
Nsg149
Nsbag2
(g3
g4
Ntp960
Rp961
(dp962
g8
g11
sg127
Nsg128
(dp963
sg130
Nsg26
g29
sg131
(lp964
I3
aI11
asg133
Nsg134
VEzra 3:11
p965
sg136
(lp966
sg138
g89
sg139
Nsg140
(lp967
I3
aI11
asg142
Nsg143
g965
sg144
(lp968
sg146
g60
sg147
Nsg148
Nsg149
Nsbag2
(g3
g4
Ntp969
Rp970
(dp971
g8
g11
sg127
Nsg128
(dp972
sg130
Nsg26
g29
sg131
(lp973
I3
aI12
asg133
Nsg134
VEzra 3:12
p974
sg136
(lp975
sg138
g89
sg139
Nsg140
(lp976
I3
aI12
asg142
Nsg143
g974
sg144
(lp977
sg146
g60
sg147
Nsg148
Nsg149
Nsbag2
(g3
g4
Ntp978
Rp979
(dp980
g8
g11
sg127
Nsg128
(dp981
sg130
Nsg26
g29
sg131
(lp982
I3
aI13
asg133
Nsg134
VEzra 3:13
p983
sg136
(lp984
sg138
g89
sg139
Nsg140
(lp985
I3
aI13
asg142
Nsg143
g983
sg144
(lp986
sg146
g60
sg147
Nsg148
Nsg149
Nsbag2
(g3
g4
Ntp987
Rp988
(dp989
g8
g11
sg127
Nsg128
(dp990
sg130
Nsg26
g29
sg131
(lp991
I4
aI1
asg133
Nsg134
VEzra 4:1
p992
sg136
(lp993
sg138
g89
sg139
Nsg140
(lp994
I4
aI1
asg142
Nsg143
g992
sg144
(lp995
sg146
g60
sg147
Nsg148
Nsg149
Nsbag2
(g3
g4
Ntp996
Rp997
(dp998
g8
g11
sg127
Nsg128
(dp999
sg130
Nsg26
g29
sg131
(lp1000
I4
aI2
asg133
Nsg134
VEzra 4:2
p1001
sg136
(lp1002
sg138
g89
sg139
Nsg140
(lp1003
I4
aI2
asg142
Nsg143
g1001
sg144
(lp1004
sg146
g60
sg147
Nsg148
Nsg149
Nsbag2
(g3
g4
Ntp1005
Rp1006
(dp1007
g8
g11
sg127
Nsg128
(dp1008
sg130
Nsg26
g29
sg131
(lp1009
I4
aI3
asg133
Nsg134
VEzra 4:3
p1010
sg136
(lp1011
sg138
g89
sg139
Nsg140
(lp1012
I4
aI3
asg142
Nsg143
g1010
sg144
(lp1013
sg146
g60
sg147
Nsg148
Nsg149
Nsbag2
(g3
g4
Ntp1014
Rp1015
(dp1016
g8
g11
sg127
Nsg128
(dp1017
sg130
Nsg26
g29
sg131
(lp1018
I4
aI4
asg133
Nsg134
VEzra 4:4
p1019
sg136
(lp1020
sg138
g89
sg139
Nsg140
(lp1021
I4
aI4
asg142
Nsg143
g1019
sg144
(lp1022
sg146
g60
sg147
Nsg148
Nsg149
Nsbag2
(g3
g4
Ntp1023
Rp1024
(dp1025
g8
g11
sg127
Nsg128
(dp1026
sg130
Nsg26
g29
sg131
(lp1027
I4
aI5
asg133
Nsg134
VEzra 4:5
p1028
sg136
(lp1029
sg138
g89
sg139
Nsg140
(lp1030
I4
aI5
asg142
Nsg143
g1028
sg144
(lp1031
sg146
g60
sg147
Nsg148
Nsg149
Nsbag2
(g3
g4
Ntp1032
Rp1033
(dp1034
g8
g11
sg127
Nsg128
(dp1035
sg130
Nsg26
g29
sg131
(lp1036
I4
aI6
asg133
Nsg134
VEzra 4:6
p1037
sg136
(lp1038
sg138
g89
sg139
Nsg140
(lp1039
I4
aI6
asg142
Nsg143
g1037
sg144
(lp1040
sg146
g60
sg147
Nsg148
Nsg149
Nsbag2
(g3
g4
Ntp1041
Rp1042
(dp1043
g8
g11
sg127
Nsg128
(dp1044
sg130
Nsg26
g29
sg131
(lp1045
I4
aI7
asg133
Nsg134
VEzra 4:7
p1046
sg136
(lp1047
sg138
g89
sg139
Nsg140
(lp1048
I4
aI7
asg142
Nsg143
g1046
sg144
(lp1049
sg146
g60
sg147
Nsg148
Nsg149
Nsbag2
(g3
g4
Ntp1050
Rp1051
(dp1052
g8
g11
sg127
Nsg128
(dp1053
sg130
Nsg26
g29
sg131
(lp1054
I4
aI8
asg133
Nsg134
VEzra 4:8
p1055
sg136
(lp1056
sg138
g89
sg139
Nsg140
(lp1057
I4
aI8
asg142
Nsg143
g1055
sg144
(lp1058
sg146
g60
sg147
Nsg148
Nsg149
Nsbag2
(g3
g4
Ntp1059
Rp1060
(dp1061
g8
g11
sg127
Nsg128
(dp1062
sg130
Nsg26
g29
sg131
(lp1063
I4
aI9
asg133
Nsg134
VEzra 4:9
p1064
sg136
(lp1065
sg138
g89
sg139
Nsg140
(lp1066
I4
aI9
asg142
Nsg143
g1064
sg144
(lp1067
sg146
g60
sg147
Nsg148
Nsg149
Nsbag2
(g3
g4
Ntp1068
Rp1069
(dp1070
g8
g11
sg127
Nsg128
(dp1071
sg130
Nsg26
g29
sg131
(lp1072
I4
aI10
asg133
Nsg134
VEzra 4:10
p1073
sg136
(lp1074
sg138
g89
sg139
Nsg140
(lp1075
I4
aI10
asg142
Nsg143
g1073
sg144
(lp1076
sg146
g60
sg147
Nsg148
Nsg149
Nsbag2
(g3
g4
Ntp1077
Rp1078
(dp1079
g8
g11
sg127
Nsg128
(dp1080
sg130
Nsg26
g29
sg131
(lp1081
I4
aI11
asg133
Nsg134
VEzra 4:11
p1082
sg136
(lp1083
sg138
g89
sg139
Nsg140
(lp1084
I4
aI11
asg142
Nsg143
g1082
sg144
(lp1085
sg146
g60
sg147
Nsg148
Nsg149
Nsbag2
(g3
g4
Ntp1086
Rp1087
(dp1088
g8
g11
sg127
Nsg128
(dp1089
sg130
Nsg26
g29
sg131
(lp1090
I4
aI12
asg133
Nsg134
VEzra 4:12
p1091
sg136
(lp1092
sg138
g89
sg139
Nsg140
(lp1093
I4
aI12
asg142
Nsg143
g1091
sg144
(lp1094
sg146
g60
sg147
Nsg148
Nsg149
Nsbag2
(g3
g4
Ntp1095
Rp1096
(dp1097
g8
g11
sg127
Nsg128
(dp1098
sg130
Nsg26
g29
sg131
(lp1099
I4
aI13
asg133
Nsg134
VEzra 4:13
p1100
sg136
(lp1101
sg138
g89
sg139
Nsg140
(lp1102
I4
aI13
asg142
Nsg143
g1100
sg144
(lp1103
sg146
g60
sg147
Nsg148
Nsg149
Nsbag2
(g3
g4
Ntp1104
Rp1105
(dp1106
g8
g11
sg127
Nsg128
(dp1107
sg130
Nsg26
g29
sg131
(lp1108
I4
aI14
asg133
Nsg134
VEzra 4:14
p1109
sg136
(lp1110
sg138
g89
sg139
Nsg140
(lp1111
I4
aI14
asg142
Nsg143
g1109
sg144
(lp1112
sg146
g60
sg147
Nsg148
Nsg149
Nsbag2
(g3
g4
Ntp1113
Rp1114
(dp1115
g8
g11
sg127
Nsg128
(dp1116
sg130
Nsg26
g29
sg131
(lp1117
I4
aI15
asg133
Nsg134
VEzra 4:15
p1118
sg136
(lp1119
sg138
g89
sg139
Nsg140
(lp1120
I4
aI15
asg142
Nsg143
g1118
sg144
(lp1121
sg146
g60
sg147
Nsg148
Nsg149
Nsbag2
(g3
g4
Ntp1122
Rp1123
(dp1124
g8
g11
sg127
Nsg128
(dp1125
sg130
Nsg26
g29
sg131
(lp1126
I4
aI16
asg133
Nsg134
VEzra 4:16
p1127
sg136
(lp1128
sg138
g89
sg139
Nsg140
(lp1129
I4
aI16
asg142
Nsg143
g1127
sg144
(lp1130
sg146
g60
sg147
Nsg148
Nsg149
Nsbag2
(g3
g4
Ntp1131
Rp1132
(dp1133
g8
g11
sg127
Nsg128
(dp1134
sg130
Nsg26
g29
sg131
(lp1135
I4
aI17
asg133
Nsg134
VEzra 4:17
p1136
sg136
(lp1137
sg138
g89
sg139
Nsg140
(lp1138
I4
aI17
asg142
Nsg143
g1136
sg144
(lp1139
sg146
g60
sg147
Nsg148
Nsg149
Nsbag2
(g3
g4
Ntp1140
Rp1141
(dp1142
g8
g11
sg127
Nsg128
(dp1143
sg130
Nsg26
g29
sg131
(lp1144
I4
aI18
asg133
Nsg134
VEzra 4:18
p1145
sg136
(lp1146
sg138
g89
sg139
Nsg140
(lp1147
I4
aI18
asg142
Nsg143
g1145
sg144
(lp1148
sg146
g60
sg147
Nsg148
Nsg149
Nsbag2
(g3
g4
Ntp1149
Rp1150
(dp1151
g8
g11
sg127
Nsg128
(dp1152
sg130
Nsg26
g29
sg131
(lp1153
I4
aI19
asg133
Nsg134
VEzra 4:19
p1154
sg136
(lp1155
sg138
g89
sg139
Nsg140
(lp1156
I4
aI19
asg142
Nsg143
g1154
sg144
(lp1157
sg146
g60
sg147
Nsg148
Nsg149
Nsbag2
(g3
g4
Ntp1158
Rp1159
(dp1160
g8
g11
sg127
Nsg128
(dp1161
sg130
Nsg26
g29
sg131
(lp1162
I4
aI20
asg133
Nsg134
VEzra 4:20
p1163
sg136
(lp1164
sg138
g89
sg139
Nsg140
(lp1165
I4
aI20
asg142
Nsg143
g1163
sg144
(lp1166
sg146
g60
sg147
Nsg148
Nsg149
Nsbag2
(g3
g4
Ntp1167
Rp1168
(dp1169
g8
g11
sg127
Nsg128
(dp1170
sg130
Nsg26
g29
sg131
(lp1171
I4
aI21
asg133
Nsg134
VEzra 4:21
p1172
sg136
(lp1173
sg138
g89
sg139
Nsg140
(lp1174
I4
aI21
asg142
Nsg143
g1172
sg144
(lp1175
sg146
g60
sg147
Nsg148
Nsg149
Nsbag2
(g3
g4
Ntp1176
Rp1177
(dp1178
g8
g11
sg127
Nsg128
(dp1179
sg130
Nsg26
g29
sg131
(lp1180
I4
aI22
asg133
Nsg134
VEzra 4:22
p1181
sg136
(lp1182
sg138
g89
sg139
Nsg140
(lp1183
I4
aI22
asg142
Nsg143
g1181
sg144
(lp1184
sg146
g60
sg147
Nsg148
Nsg149
Nsbag2
(g3
g4
Ntp1185
Rp1186
(dp1187
g8
g11
sg127
Nsg128
(dp1188
sg130
Nsg26
g29
sg131
(lp1189
I4
aI23
asg133
Nsg134
VEzra 4:23
p1190
sg136
(lp1191
sg138
g89
sg139
Nsg140
(lp1192
I4
aI23
asg142
Nsg143
g1190
sg144
(lp1193
sg146
g60
sg147
Nsg148
Nsg149
Nsbag2
(g3
g4
Ntp1194
Rp1195
(dp1196
g8
g11
sg127
Nsg128
(dp1197
sg130
Nsg26
g29
sg131
(lp1198
I4
aI24
asg133
Nsg134
VEzra 4:24
p1199
sg136
(lp1200
sg138
g89
sg139
Nsg140
(lp1201
I4
aI24
asg142
Nsg143
g1199
sg144
(lp1202
sg146
g60
sg147
Nsg148
Nsg149
Nsbag2
(g3
g4
Ntp1203
Rp1204
(dp1205
g8
g11
sg127
Nsg128
(dp1206
sg130
Nsg26
g29
sg131
(lp1207
I5
aI1
asg133
Nsg134
VEzra 5:1
p1208
sg136
(lp1209
sg138
g89
sg139
Nsg140
(lp1210
I5
aI1
asg142
Nsg143
g1208
sg144
(lp1211
sg146
g60
sg147
Nsg148
Nsg149
Nsbag2
(g3
g4
Ntp1212
Rp1213
(dp1214
g8
g11
sg127
Nsg128
(dp1215
sg130
Nsg26
g29
sg131
(lp1216
I5
aI2
asg133
Nsg134
VEzra 5:2
p1217
sg136
(lp1218
sg138
g89
sg139
Nsg140
(lp1219
I5
aI2
asg142
Nsg143
g1217
sg144
(lp1220
sg146
g60
sg147
Nsg148
Nsg149
Nsbag2
(g3
g4
Ntp1221
Rp1222
(dp1223
g8
g11
sg127
Nsg128
(dp1224
sg130
Nsg26
g29
sg131
(lp1225
I5
aI3
asg133
Nsg134
VEzra 5:3
p1226
sg136
(lp1227
sg138
g89
sg139
Nsg140
(lp1228
I5
aI3
asg142
Nsg143
g1226
sg144
(lp1229
sg146
g60
sg147
Nsg148
Nsg149
Nsbag2
(g3
g4
Ntp1230
Rp1231
(dp1232
g8
g11
sg127
Nsg128
(dp1233
sg130
Nsg26
g29
sg131
(lp1234
I5
aI4
asg133
Nsg134
VEzra 5:4
p1235
sg136
(lp1236
sg138
g89
sg139
Nsg140
(lp1237
I5
aI4
asg142
Nsg143
g1235
sg144
(lp1238
sg146
g60
sg147
Nsg148
Nsg149
Nsbag2
(g3
g4
Ntp1239
Rp1240
(dp1241
g8
g11
sg127
Nsg128
(dp1242
sg130
Nsg26
g29
sg131
(lp1243
I5
aI5
asg133
Nsg134
VEzra 5:5
p1244
sg136
(lp1245
sg138
g89
sg139
Nsg140
(lp1246
I5
aI5
asg142
Nsg143
g1244
sg144
(lp1247
sg146
g60
sg147
Nsg148
Nsg149
Nsbag2
(g3
g4
Ntp1248
Rp1249
(dp1250
g8
g11
sg127
Nsg128
(dp1251
sg130
Nsg26
g29
sg131
(lp1252
I5
aI6
asg133
Nsg134
VEzra 5:6
p1253
sg136
(lp1254
sg138
g89
sg139
Nsg140
(lp1255
I5
aI6
asg142
Nsg143
g1253
sg144
(lp1256
sg146
g60
sg147
Nsg148
Nsg149
Nsbag2
(g3
g4
Ntp1257
Rp1258
(dp1259
g8
g11
sg127
Nsg128
(dp1260
sg130
Nsg26
g29
sg131
(lp1261
I5
aI7
asg133
Nsg134
VEzra 5:7
p1262
sg136
(lp1263
sg138
g89
sg139
Nsg140
(lp1264
I5
aI7
asg142
Nsg143
g1262
sg144
(lp1265
sg146
g60
sg147
Nsg148
Nsg149
Nsbag2
(g3
g4
Ntp1266
Rp1267
(dp1268
g8
g11
sg127
Nsg128
(dp1269
sg130
Nsg26
g29
sg131
(lp1270
I5
aI8
asg133
Nsg134
VEzra 5:8
p1271
sg136
(lp1272
sg138
g89
sg139
Nsg140
(lp1273
I5
aI8
asg142
Nsg143
g1271
sg144
(lp1274
sg146
g60
sg147
Nsg148
Nsg149
Nsbag2
(g3
g4
Ntp1275
Rp1276
(dp1277
g8
g11
sg127
Nsg128
(dp1278
sg130
Nsg26
g29
sg131
(lp1279
I5
aI9
asg133
Nsg134
VEzra 5:9
p1280
sg136
(lp1281
sg138
g89
sg139
Nsg140
(lp1282
I5
aI9
asg142
Nsg143
g1280
sg144
(lp1283
sg146
g60
sg147
Nsg148
Nsg149
Nsbag2
(g3
g4
Ntp1284
Rp1285
(dp1286
g8
g11
sg127
Nsg128
(dp1287
sg130
Nsg26
g29
sg131
(lp1288
I5
aI10
asg133
Nsg134
VEzra 5:10
p1289
sg136
(lp1290
sg138
g89
sg139
Nsg140
(lp1291
I5
aI10
asg142
Nsg143
g1289
sg144
(lp1292
sg146
g60
sg147
Nsg148
Nsg149
Nsbag2
(g3
g4
Ntp1293
Rp1294
(dp1295
g8
g11
sg127
Nsg128
(dp1296
sg130
Nsg26
g29
sg131
(lp1297
I5
aI11
asg133
Nsg134
VEzra 5:11
p1298
sg136
(lp1299
sg138
g89
sg139
Nsg140
(lp1300
I5
aI11
asg142
Nsg143
g1298
sg144
(lp1301
sg146
g60
sg147
Nsg148
Nsg149
Nsbag2
(g3
g4
Ntp1302
Rp1303
(dp1304
g8
g11
sg127
Nsg128
(dp1305
sg130
Nsg26
g29
sg131
(lp1306
I5
aI12
asg133
Nsg134
VEzra 5:12
p1307
sg136
(lp1308
sg138
g89
sg139
Nsg140
(lp1309
I5
aI12
asg142
Nsg143
g1307
sg144
(lp1310
sg146
g60
sg147
Nsg148
Nsg149
Nsbag2
(g3
g4
Ntp1311
Rp1312
(dp1313
g8
g11
sg127
Nsg128
(dp1314
sg130
Nsg26
g29
sg131
(lp1315
I5
aI13
asg133
Nsg134
VEzra 5:13
p1316
sg136
(lp1317
sg138
g89
sg139
Nsg140
(lp1318
I5
aI13
asg142
Nsg143
g1316
sg144
(lp1319
sg146
g60
sg147
Nsg148
Nsg149
Nsbag2
(g3
g4
Ntp1320
Rp1321
(dp1322
g8
g11
sg127
Nsg128
(dp1323
sg130
Nsg26
g29
sg131
(lp1324
I5
aI14
asg133
Nsg134
VEzra 5:14
p1325
sg136
(lp1326
sg138
g89
sg139
Nsg140
(lp1327
I5
aI14
asg142
Nsg143
g1325
sg144
(lp1328
sg146
g60
sg147
Nsg148
Nsg149
Nsbag2
(g3
g4
Ntp1329
Rp1330
(dp1331
g8
g11
sg127
Nsg128
(dp1332
sg130
Nsg26
g29
sg131
(lp1333
I5
aI15
asg133
Nsg134
VEzra 5:15
p1334
sg136
(lp1335
sg138
g89
sg139
Nsg140
(lp1336
I5
aI15
asg142
Nsg143
g1334
sg144
(lp1337
sg146
g60
sg147
Nsg148
Nsg149
Nsbag2
(g3
g4
Ntp1338
Rp1339
(dp1340
g8
g11
sg127
Nsg128
(dp1341
sg130
Nsg26
g29
sg131
(lp1342
I5
aI16
asg133
Nsg134
VEzra 5:16
p1343
sg136
(lp1344
sg138
g89
sg139
Nsg140
(lp1345
I5
aI16
asg142
Nsg143
g1343
sg144
(lp1346
sg146
g60
sg147
Nsg148
Nsg149
Nsbag2
(g3
g4
Ntp1347
Rp1348
(dp1349
g8
g11
sg127
Nsg128
(dp1350
sg130
Nsg26
g29
sg131
(lp1351
I5
aI17
asg133
Nsg134
VEzra 5:17
p1352
sg136
(lp1353
sg138
g89
sg139
Nsg140
(lp1354
I5
aI17
asg142
Nsg143
g1352
sg144
(lp1355
sg146
g60
sg147
Nsg148
Nsg149
Nsbag2
(g3
g4
Ntp1356
Rp1357
(dp1358
g8
g11
sg127
Nsg128
(dp1359
sg130
Nsg26
g29
sg131
(lp1360
I6
aI1
asg133
Nsg134
VEzra 6:1
p1361
sg136
(lp1362
sg138
g89
sg139
Nsg140
(lp1363
I6
aI1
asg142
Nsg143
g1361
sg144
(lp1364
sg146
g60
sg147
Nsg148
Nsg149
Nsbag2
(g3
g4
Ntp1365
Rp1366
(dp1367
g8
g11
sg127
Nsg128
(dp1368
sg130
Nsg26
g29
sg131
(lp1369
I6
aI2
asg133
Nsg134
VEzra 6:2
p1370
sg136
(lp1371
sg138
g89
sg139
Nsg140
(lp1372
I6
aI2
asg142
Nsg143
g1370
sg144
(lp1373
sg146
g60
sg147
Nsg148
Nsg149
Nsbag2
(g3
g4
Ntp1374
Rp1375
(dp1376
g8
g11
sg127
Nsg128
(dp1377
sg130
Nsg26
g29
sg131
(lp1378
I6
aI3
asg133
Nsg134
VEzra 6:3
p1379
sg136
(lp1380
sg138
g89
sg139
Nsg140
(lp1381
I6
aI3
asg142
Nsg143
g1379
sg144
(lp1382
sg146
g60
sg147
Nsg148
Nsg149
Nsbag2
(g3
g4
Ntp1383
Rp1384
(dp1385
g8
g11
sg127
Nsg128
(dp1386
sg130
Nsg26
g29
sg131
(lp1387
I6
aI4
asg133
Nsg134
VEzra 6:4
p1388
sg136
(lp1389
sg138
g89
sg139
Nsg140
(lp1390
I6
aI4
asg142
Nsg143
g1388
sg144
(lp1391
sg146
g60
sg147
Nsg148
Nsg149
Nsbag2
(g3
g4
Ntp1392
Rp1393
(dp1394
g8
g11
sg127
Nsg128
(dp1395
sg130
Nsg26
g29
sg131
(lp1396
I6
aI5
asg133
Nsg134
VEzra 6:5
p1397
sg136
(lp1398
sg138
g89
sg139
Nsg140
(lp1399
I6
aI5
asg142
Nsg143
g1397
sg144
(lp1400
sg146
g60
sg147
Nsg148
Nsg149
Nsbag2
(g3
g4
Ntp1401
Rp1402
(dp1403
g8
g11
sg127
Nsg128
(dp1404
sg130
Nsg26
g29
sg131
(lp1405
I6
aI6
asg133
Nsg134
VEzra 6:6
p1406
sg136
(lp1407
sg138
g89
sg139
Nsg140
(lp1408
I6
aI6
asg142
Nsg143
g1406
sg144
(lp1409
sg146
g60
sg147
Nsg148
Nsg149
Nsbag2
(g3
g4
Ntp1410
Rp1411
(dp1412
g8
g11
sg127
Nsg128
(dp1413
sg130
Nsg26
g29
sg131
(lp1414
I6
aI7
asg133
Nsg134
VEzra 6:7
p1415
sg136
(lp1416
sg138
g89
sg139
Nsg140
(lp1417
I6
aI7
asg142
Nsg143
g1415
sg144
(lp1418
sg146
g60
sg147
Nsg148
Nsg149
Nsbag2
(g3
g4
Ntp1419
Rp1420
(dp1421
g8
g11
sg127
Nsg128
(dp1422
sg130
Nsg26
g29
sg131
(lp1423
I6
aI8
asg133
Nsg134
VEzra 6:8
p1424
sg136
(lp1425
sg138
g89
sg139
Nsg140
(lp1426
I6
aI8
asg142
Nsg143
g1424
sg144
(lp1427
sg146
g60
sg147
Nsg148
Nsg149
Nsbag2
(g3
g4
Ntp1428
Rp1429
(dp1430
g8
g11
sg127
Nsg128
(dp1431
sg130
Nsg26
g29
sg131
(lp1432
I6
aI9
asg133
Nsg134
VEzra 6:9
p1433
sg136
(lp1434
sg138
g89
sg139
Nsg140
(lp1435
I6
aI9
asg142
Nsg143
g1433
sg144
(lp1436
sg146
g60
sg147
Nsg148
Nsg149
Nsbag2
(g3
g4
Ntp1437
Rp1438
(dp1439
g8
g11
sg127
Nsg128
(dp1440
sg130
Nsg26
g29
sg131
(lp1441
I6
aI10
asg133
Nsg134
VEzra 6:10
p1442
sg136
(lp1443
sg138
g89
sg139
Nsg140
(lp1444
I6
aI10
asg142
Nsg143
g1442
sg144
(lp1445
sg146
g60
sg147
Nsg148
Nsg149
Nsbag2
(g3
g4
Ntp1446
Rp1447
(dp1448
g8
g11
sg127
Nsg128
(dp1449
sg130
Nsg26
g29
sg131
(lp1450
I6
aI11
asg133
Nsg134
VEzra 6:11
p1451
sg136
(lp1452
sg138
g89
sg139
Nsg140
(lp1453
I6
aI11
asg142
Nsg143
g1451
sg144
(lp1454
sg146
g60
sg147
Nsg148
Nsg149
Nsbag2
(g3
g4
Ntp1455
Rp1456
(dp1457
g8
g11
sg127
Nsg128
(dp1458
sg130
Nsg26
g29
sg131
(lp1459
I6
aI12
asg133
Nsg134
VEzra 6:12
p1460
sg136
(lp1461
sg138
g89
sg139
Nsg140
(lp1462
I6
aI12
asg142
Nsg143
g1460
sg144
(lp1463
sg146
g60
sg147
Nsg148
Nsg149
Nsbag2
(g3
g4
Ntp1464
Rp1465
(dp1466
g8
g11
sg127
Nsg128
(dp1467
sg130
Nsg26
g29
sg131
(lp1468
I6
aI13
asg133
Nsg134
VEzra 6:13
p1469
sg136
(lp1470
sg138
g89
sg139
Nsg140
(lp1471
I6
aI13
asg142
Nsg143
g1469
sg144
(lp1472
sg146
g60
sg147
Nsg148
Nsg149
Nsbag2
(g3
g4
Ntp1473
Rp1474
(dp1475
g8
g11
sg127
Nsg128
(dp1476
sg130
Nsg26
g29
sg131
(lp1477
I6
aI14
asg133
Nsg134
VEzra 6:14
p1478
sg136
(lp1479
sg138
g89
sg139
Nsg140
(lp1480
I6
aI14
asg142
Nsg143
g1478
sg144
(lp1481
sg146
g60
sg147
Nsg148
Nsg149
Nsbag2
(g3
g4
Ntp1482
Rp1483
(dp1484
g8
g11
sg127
Nsg128
(dp1485
sg130
Nsg26
g29
sg131
(lp1486
I6
aI15
asg133
Nsg134
VEzra 6:15
p1487
sg136
(lp1488
sg138
g89
sg139
Nsg140
(lp1489
I6
aI15
asg142
Nsg143
g1487
sg144
(lp1490
sg146
g60
sg147
Nsg148
Nsg149
Nsbag2
(g3
g4
Ntp1491
Rp1492
(dp1493
g8
g11
sg127
Nsg128
(dp1494
sg130
Nsg26
g29
sg131
(lp1495
I6
aI16
asg133
Nsg134
VEzra 6:16
p1496
sg136
(lp1497
sg138
g89
sg139
Nsg140
(lp1498
I6
aI16
asg142
Nsg143
g1496
sg144
(lp1499
sg146
g60
sg147
Nsg148
Nsg149
Nsbag2
(g3
g4
Ntp1500
Rp1501
(dp1502
g8
g11
sg127
Nsg128
(dp1503
sg130
Nsg26
g29
sg131
(lp1504
I6
aI17
asg133
Nsg134
VEzra 6:17
p1505
sg136
(lp1506
sg138
g89
sg139
Nsg140
(lp1507
I6
aI17
asg142
Nsg143
g1505
sg144
(lp1508
sg146
g60
sg147
Nsg148
Nsg149
Nsbag2
(g3
g4
Ntp1509
Rp1510
(dp1511
g8
g11
sg127
Nsg128
(dp1512
sg130
Nsg26
g29
sg131
(lp1513
I6
aI18
asg133
Nsg134
VEzra 6:18
p1514
sg136
(lp1515
sg138
g89
sg139
Nsg140
(lp1516
I6
aI18
asg142
Nsg143
g1514
sg144
(lp1517
sg146
g60
sg147
Nsg148
Nsg149
Nsbag2
(g3
g4
Ntp1518
Rp1519
(dp1520
g8
g11
sg127
Nsg128
(dp1521
sg130
Nsg26
g29
sg131
(lp1522
I6
aI19
asg133
Nsg134
VEzra 6:19
p1523
sg136
(lp1524
sg138
g89
sg139
Nsg140
(lp1525
I6
aI19
asg142
Nsg143
g1523
sg144
(lp1526
sg146
g60
sg147
Nsg148
Nsg149
Nsbag2
(g3
g4
Ntp1527
Rp1528
(dp1529
g8
g11
sg127
Nsg128
(dp1530
sg130
Nsg26
g29
sg131
(lp1531
I6
aI20
asg133
Nsg134
VEzra 6:20
p1532
sg136
(lp1533
sg138
g89
sg139
Nsg140
(lp1534
I6
aI20
asg142
Nsg143
g1532
sg144
(lp1535
sg146
g60
sg147
Nsg148
Nsg149
Nsbag2
(g3
g4
Ntp1536
Rp1537
(dp1538
g8
g11
sg127
Nsg128
(dp1539
sg130
Nsg26
g29
sg131
(lp1540
I6
aI21
asg133
Nsg134
VEzra 6:21
p1541
sg136
(lp1542
sg138
g89
sg139
Nsg140
(lp1543
I6
aI21
asg142
Nsg143
g1541
sg144
(lp1544
sg146
g60
sg147
Nsg148
Nsg149
Nsbag2
(g3
g4
Ntp1545
Rp1546
(dp1547
g8
g11
sg127
Nsg128
(dp1548
sg130
Nsg26
g29
sg131
(lp1549
I6
aI22
asg133
Nsg134
VEzra 6:22
p1550
sg136
(lp1551
sg138
g89
sg139
Nsg140
(lp1552
I6
aI22
asg142
Nsg143
g1550
sg144
(lp1553
sg146
g60
sg147
Nsg148
Nsg149
Nsbag2
(g3
g4
Ntp1554
Rp1555
(dp1556
g8
g11
sg127
Nsg128
(dp1557
sg130
Nsg26
g29
sg131
(lp1558
I7
aI1
asg133
Nsg134
VEzra 7:1
p1559
sg136
(lp1560
sg138
g89
sg139
Nsg140
(lp1561
I7
aI1
asg142
Nsg143
g1559
sg144
(lp1562
sg146
g60
sg147
Nsg148
Nsg149
Nsbag2
(g3
g4
Ntp1563
Rp1564
(dp1565
g8
g11
sg127
Nsg128
(dp1566
sg130
Nsg26
g29
sg131
(lp1567
I7
aI2
asg133
Nsg134
VEzra 7:2
p1568
sg136
(lp1569
sg138
g89
sg139
Nsg140
(lp1570
I7
aI2
asg142
Nsg143
g1568
sg144
(lp1571
sg146
g60
sg147
Nsg148
Nsg149
Nsbag2
(g3
g4
Ntp1572
Rp1573
(dp1574
g8
g11
sg127
Nsg128
(dp1575
sg130
Nsg26
g29
sg131
(lp1576
I7
aI3
asg133
Nsg134
VEzra 7:3
p1577
sg136
(lp1578
sg138
g89
sg139
Nsg140
(lp1579
I7
aI3
asg142
Nsg143
g1577
sg144
(lp1580
sg146
g60
sg147
Nsg148
Nsg149
Nsbag2
(g3
g4
Ntp1581
Rp1582
(dp1583
g8
g11
sg127
Nsg128
(dp1584
sg130
Nsg26
g29
sg131
(lp1585
I7
aI4
asg133
Nsg134
VEzra 7:4
p1586
sg136
(lp1587
sg138
g89
sg139
Nsg140
(lp1588
I7
aI4
asg142
Nsg143
g1586
sg144
(lp1589
sg146
g60
sg147
Nsg148
Nsg149
Nsbag2
(g3
g4
Ntp1590
Rp1591
(dp1592
g8
g11
sg127
Nsg128
(dp1593
sg130
Nsg26
g29
sg131
(lp1594
I7
aI5
asg133
Nsg134
VEzra 7:5
p1595
sg136
(lp1596
sg138
g89
sg139
Nsg140
(lp1597
I7
aI5
asg142
Nsg143
g1595
sg144
(lp1598
sg146
g60
sg147
Nsg148
Nsg149
Nsbag2
(g3
g4
Ntp1599
Rp1600
(dp1601
g8
g11
sg127
Nsg128
(dp1602
sg130
Nsg26
g29
sg131
(lp1603
I7
aI6
asg133
Nsg134
VEzra 7:6
p1604
sg136
(lp1605
sg138
g89
sg139
Nsg140
(lp1606
I7
aI6
asg142
Nsg143
g1604
sg144
(lp1607
sg146
g60
sg147
Nsg148
Nsg149
Nsbag2
(g3
g4
Ntp1608
Rp1609
(dp1610
g8
g11
sg127
Nsg128
(dp1611
sg130
Nsg26
g29
sg131
(lp1612
I7
aI7
asg133
Nsg134
VEzra 7:7
p1613
sg136
(lp1614
sg138
g89
sg139
Nsg140
(lp1615
I7
aI7
asg142
Nsg143
g1613
sg144
(lp1616
sg146
g60
sg147
Nsg148
Nsg149
Nsbag2
(g3
g4
Ntp1617
Rp1618
(dp1619
g8
g11
sg127
Nsg128
(dp1620
sg130
Nsg26
g29
sg131
(lp1621
I7
aI8
asg133
Nsg134
VEzra 7:8
p1622
sg136
(lp1623
sg138
g89
sg139
Nsg140
(lp1624
I7
aI8
asg142
Nsg143
g1622
sg144
(lp1625
sg146
g60
sg147
Nsg148
Nsg149
Nsbag2
(g3
g4
Ntp1626
Rp1627
(dp1628
g8
g11
sg127
Nsg128
(dp1629
sg130
Nsg26
g29
sg131
(lp1630
I7
aI9
asg133
Nsg134
VEzra 7:9
p1631
sg136
(lp1632
sg138
g89
sg139
Nsg140
(lp1633
I7
aI9
asg142
Nsg143
g1631
sg144
(lp1634
sg146
g60
sg147
Nsg148
Nsg149
Nsbag2
(g3
g4
Ntp1635
Rp1636
(dp1637
g8
g11
sg127
Nsg128
(dp1638
sg130
Nsg26
g29
sg131
(lp1639
I7
aI10
asg133
Nsg134
VEzra 7:10
p1640
sg136
(lp1641
sg138
g89
sg139
Nsg140
(lp1642
I7
aI10
asg142
Nsg143
g1640
sg144
(lp1643
sg146
g60
sg147
Nsg148
Nsg149
Nsbag2
(g3
g4
Ntp1644
Rp1645
(dp1646
g8
g11
sg127
Nsg128
(dp1647
sg130
Nsg26
g29
sg131
(lp1648
I7
aI11
asg133
Nsg134
VEzra 7:11
p1649
sg136
(lp1650
sg138
g89
sg139
Nsg140
(lp1651
I7
aI11
asg142
Nsg143
g1649
sg144
(lp1652
sg146
g60
sg147
Nsg148
Nsg149
Nsbag2
(g3
g4
Ntp1653
Rp1654
(dp1655
g8
g11
sg127
Nsg128
(dp1656
sg130
Nsg26
g29
sg131
(lp1657
I7
aI12
asg133
Nsg134
VEzra 7:12
p1658
sg136
(lp1659
sg138
g89
sg139
Nsg140
(lp1660
I7
aI12
asg142
Nsg143
g1658
sg144
(lp1661
sg146
g60
sg147
Nsg148
Nsg149
Nsbag2
(g3
g4
Ntp1662
Rp1663
(dp1664
g8
g11
sg127
Nsg128
(dp1665
sg130
Nsg26
g29
sg131
(lp1666
I7
aI13
asg133
Nsg134
VEzra 7:13
p1667
sg136
(lp1668
sg138
g89
sg139
Nsg140
(lp1669
I7
aI13
asg142
Nsg143
g1667
sg144
(lp1670
sg146
g60
sg147
Nsg148
Nsg149
Nsbag2
(g3
g4
Ntp1671
Rp1672
(dp1673
g8
g11
sg127
Nsg128
(dp1674
sg130
Nsg26
g29
sg131
(lp1675
I7
aI14
asg133
Nsg134
VEzra 7:14
p1676
sg136
(lp1677
sg138
g89
sg139
Nsg140
(lp1678
I7
aI14
asg142
Nsg143
g1676
sg144
(lp1679
sg146
g60
sg147
Nsg148
Nsg149
Nsbag2
(g3
g4
Ntp1680
Rp1681
(dp1682
g8
g11
sg127
Nsg128
(dp1683
sg130
Nsg26
g29
sg131
(lp1684
I7
aI15
asg133
Nsg134
VEzra 7:15
p1685
sg136
(lp1686
sg138
g89
sg139
Nsg140
(lp1687
I7
aI15
asg142
Nsg143
g1685
sg144
(lp1688
sg146
g60
sg147
Nsg148
Nsg149
Nsbag2
(g3
g4
Ntp1689
Rp1690
(dp1691
g8
g11
sg127
Nsg128
(dp1692
sg130
Nsg26
g29
sg131
(lp1693
I7
aI16
asg133
Nsg134
VEzra 7:16
p1694
sg136
(lp1695
sg138
g89
sg139
Nsg140
(lp1696
I7
aI16
asg142
Nsg143
g1694
sg144
(lp1697
sg146
g60
sg147
Nsg148
Nsg149
Nsbag2
(g3
g4
Ntp1698
Rp1699
(dp1700
g8
g11
sg127
Nsg128
(dp1701
sg130
Nsg26
g29
sg131
(lp1702
I7
aI17
asg133
Nsg134
VEzra 7:17
p1703
sg136
(lp1704
sg138
g89
sg139
Nsg140
(lp1705
I7
aI17
asg142
Nsg143
g1703
sg144
(lp1706
sg146
g60
sg147
Nsg148
Nsg149
Nsbag2
(g3
g4
Ntp1707
Rp1708
(dp1709
g8
g11
sg127
Nsg128
(dp1710
sg130
Nsg26
g29
sg131
(lp1711
I7
aI18
asg133
Nsg134
VEzra 7:18
p1712
sg136
(lp1713
sg138
g89
sg139
Nsg140
(lp1714
I7
aI18
asg142
Nsg143
g1712
sg144
(lp1715
sg146
g60
sg147
Nsg148
Nsg149
Nsbag2
(g3
g4
Ntp1716
Rp1717
(dp1718
g8
g11
sg127
Nsg128
(dp1719
sg130
Nsg26
g29
sg131
(lp1720
I7
aI19
asg133
Nsg134
VEzra 7:19
p1721
sg136
(lp1722
sg138
g89
sg139
Nsg140
(lp1723
I7
aI19
asg142
Nsg143
g1721
sg144
(lp1724
sg146
g60
sg147
Nsg148
Nsg149
Nsbag2
(g3
g4
Ntp1725
Rp1726
(dp1727
g8
g11
sg127
Nsg128
(dp1728
sg130
Nsg26
g29
sg131
(lp1729
I7
aI20
asg133
Nsg134
VEzra 7:20
p1730
sg136
(lp1731
sg138
g89
sg139
Nsg140
(lp1732
I7
aI20
asg142
Nsg143
g1730
sg144
(lp1733
sg146
g60
sg147
Nsg148
Nsg149
Nsbag2
(g3
g4
Ntp1734
Rp1735
(dp1736
g8
g11
sg127
Nsg128
(dp1737
sg130
Nsg26
g29
sg131
(lp1738
I7
aI21
asg133
Nsg134
VEzra 7:21
p1739
sg136
(lp1740
sg138
g89
sg139
Nsg140
(lp1741
I7
aI21
asg142
Nsg143
g1739
sg144
(lp1742
sg146
g60
sg147
Nsg148
Nsg149
Nsbag2
(g3
g4
Ntp1743
Rp1744
(dp1745
g8
g11
sg127
Nsg128
(dp1746
sg130
Nsg26
g29
sg131
(lp1747
I7
aI22
asg133
Nsg134
VEzra 7:22
p1748
sg136
(lp1749
sg138
g89
sg139
Nsg140
(lp1750
I7
aI22
asg142
Nsg143
g1748
sg144
(lp1751
sg146
g60
sg147
Nsg148
Nsg149
Nsbag2
(g3
g4
Ntp1752
Rp1753
(dp1754
g8
g11
sg127
Nsg128
(dp1755
sg130
Nsg26
g29
sg131
(lp1756
I7
aI23
asg133
Nsg134
VEzra 7:23
p1757
sg136
(lp1758
sg138
g89
sg139
Nsg140
(lp1759
I7
aI23
asg142
Nsg143
g1757
sg144
(lp1760
sg146
g60
sg147
Nsg148
Nsg149
Nsbag2
(g3
g4
Ntp1761
Rp1762
(dp1763
g8
g11
sg127
Nsg128
(dp1764
sg130
Nsg26
g29
sg131
(lp1765
I7
aI24
asg133
Nsg134
VEzra 7:24
p1766
sg136
(lp1767
sg138
g89
sg139
Nsg140
(lp1768
I7
aI24
asg142
Nsg143
g1766
sg144
(lp1769
sg146
g60
sg147
Nsg148
Nsg149
Nsbag2
(g3
g4
Ntp1770
Rp1771
(dp1772
g8
g11
sg127
Nsg128
(dp1773
sg130
Nsg26
g29
sg131
(lp1774
I7
aI25
asg133
Nsg134
VEzra 7:25
p1775
sg136
(lp1776
sg138
g89
sg139
Nsg140
(lp1777
I7
aI25
asg142
Nsg143
g1775
sg144
(lp1778
sg146
g60
sg147
Nsg148
Nsg149
Nsbag2
(g3
g4
Ntp1779
Rp1780
(dp1781
g8
g11
sg127
Nsg128
(dp1782
sg130
Nsg26
g29
sg131
(lp1783
I7
aI26
asg133
Nsg134
VEzra 7:26
p1784
sg136
(lp1785
sg138
g89
sg139
Nsg140
(lp1786
I7
aI26
asg142
Nsg143
g1784
sg144
(lp1787
sg146
g60
sg147
Nsg148
Nsg149
Nsbag2
(g3
g4
Ntp1788
Rp1789
(dp1790
g8
g11
sg127
Nsg128
(dp1791
sg130
Nsg26
g29
sg131
(lp1792
I7
aI27
asg133
Nsg134
VEzra 7:27
p1793
sg136
(lp1794
sg138
g89
sg139
Nsg140
(lp1795
I7
aI27
asg142
Nsg143
g1793
sg144
(lp1796
sg146
g60
sg147
Nsg148
Nsg149
Nsbag2
(g3
g4
Ntp1797
Rp1798
(dp1799
g8
g11
sg127
Nsg128
(dp1800
sg130
Nsg26
g29
sg131
(lp1801
I7
aI28
asg133
Nsg134
VEzra 7:28
p1802
sg136
(lp1803
sg138
g89
sg139
Nsg140
(lp1804
I7
aI28
asg142
Nsg143
g1802
sg144
(lp1805
sg146
g60
sg147
Nsg148
Nsg149
Nsbag2
(g3
g4
Ntp1806
Rp1807
(dp1808
g8
g11
sg127
Nsg128
(dp1809
sg130
Nsg26
g29
sg131
(lp1810
I8
aI1
asg133
Nsg134
VEzra 8:1
p1811
sg136
(lp1812
sg138
g89
sg139
Nsg140
(lp1813
I8
aI1
asg142
Nsg143
g1811
sg144
(lp1814
sg146
g60
sg147
Nsg148
Nsg149
Nsbag2
(g3
g4
Ntp1815
Rp1816
(dp1817
g8
g11
sg127
Nsg128
(dp1818
sg130
Nsg26
g29
sg131
(lp1819
I8
aI2
asg133
Nsg134
VEzra 8:2
p1820
sg136
(lp1821
sg138
g89
sg139
Nsg140
(lp1822
I8
aI2
asg142
Nsg143
g1820
sg144
(lp1823
sg146
g60
sg147
Nsg148
Nsg149
Nsbag2
(g3
g4
Ntp1824
Rp1825
(dp1826
g8
g11
sg127
Nsg128
(dp1827
sg130
Nsg26
g29
sg131
(lp1828
I8
aI3
asg133
Nsg134
VEzra 8:3
p1829
sg136
(lp1830
sg138
g89
sg139
Nsg140
(lp1831
I8
aI3
asg142
Nsg143
g1829
sg144
(lp1832
sg146
g60
sg147
Nsg148
Nsg149
Nsbag2
(g3
g4
Ntp1833
Rp1834
(dp1835
g8
g11
sg127
Nsg128
(dp1836
sg130
Nsg26
g29
sg131
(lp1837
I8
aI4
asg133
Nsg134
VEzra 8:4
p1838
sg136
(lp1839
sg138
g89
sg139
Nsg140
(lp1840
I8
aI4
asg142
Nsg143
g1838
sg144
(lp1841
sg146
g60
sg147
Nsg148
Nsg149
Nsbag2
(g3
g4
Ntp1842
Rp1843
(dp1844
g8
g11
sg127
Nsg128
(dp1845
sg130
Nsg26
g29
sg131
(lp1846
I8
aI5
asg133
Nsg134
VEzra 8:5
p1847
sg136
(lp1848
sg138
g89
sg139
Nsg140
(lp1849
I8
aI5
asg142
Nsg143
g1847
sg144
(lp1850
sg146
g60
sg147
Nsg148
Nsg149
Nsbag2
(g3
g4
Ntp1851
Rp1852
(dp1853
g8
g11
sg127
Nsg128
(dp1854
sg130
Nsg26
g29
sg131
(lp1855
I8
aI6
asg133
Nsg134
VEzra 8:6
p1856
sg136
(lp1857
sg138
g89
sg139
Nsg140
(lp1858
I8
aI6
asg142
Nsg143
g1856
sg144
(lp1859
sg146
g60
sg147
Nsg148
Nsg149
Nsbag2
(g3
g4
Ntp1860
Rp1861
(dp1862
g8
g11
sg127
Nsg128
(dp1863
sg130
Nsg26
g29
sg131
(lp1864
I8
aI7
asg133
Nsg134
VEzra 8:7
p1865
sg136
(lp1866
sg138
g89
sg139
Nsg140
(lp1867
I8
aI7
asg142
Nsg143
g1865
sg144
(lp1868
sg146
g60
sg147
Nsg148
Nsg149
Nsbag2
(g3
g4
Ntp1869
Rp1870
(dp1871
g8
g11
sg127
Nsg128
(dp1872
sg130
Nsg26
g29
sg131
(lp1873
I8
aI8
asg133
Nsg134
VEzra 8:8
p1874
sg136
(lp1875
sg138
g89
sg139
Nsg140
(lp1876
I8
aI8
asg142
Nsg143
g1874
sg144
(lp1877
sg146
g60
sg147
Nsg148
Nsg149
Nsbag2
(g3
g4
Ntp1878
Rp1879
(dp1880
g8
g11
sg127
Nsg128
(dp1881
sg130
Nsg26
g29
sg131
(lp1882
I8
aI9
asg133
Nsg134
VEzra 8:9
p1883
sg136
(lp1884
sg138
g89
sg139
Nsg140
(lp1885
I8
aI9
asg142
Nsg143
g1883
sg144
(lp1886
sg146
g60
sg147
Nsg148
Nsg149
Nsbag2
(g3
g4
Ntp1887
Rp1888
(dp1889
g8
g11
sg127
Nsg128
(dp1890
sg130
Nsg26
g29
sg131
(lp1891
I8
aI10
asg133
Nsg134
VEzra 8:10
p1892
sg136
(lp1893
sg138
g89
sg139
Nsg140
(lp1894
I8
aI10
asg142
Nsg143
g1892
sg144
(lp1895
sg146
g60
sg147
Nsg148
Nsg149
Nsbag2
(g3
g4
Ntp1896
Rp1897
(dp1898
g8
g11
sg127
Nsg128
(dp1899
sg130
Nsg26
g29
sg131
(lp1900
I8
aI11
asg133
Nsg134
VEzra 8:11
p1901
sg136
(lp1902
sg138
g89
sg139
Nsg140
(lp1903
I8
aI11
asg142
Nsg143
g1901
sg144
(lp1904
sg146
g60
sg147
Nsg148
Nsg149
Nsbag2
(g3
g4
Ntp1905
Rp1906
(dp1907
g8
g11
sg127
Nsg128
(dp1908
sg130
Nsg26
g29
sg131
(lp1909
I8
aI12
asg133
Nsg134
VEzra 8:12
p1910
sg136
(lp1911
sg138
g89
sg139
Nsg140
(lp1912
I8
aI12
asg142
Nsg143
g1910
sg144
(lp1913
sg146
g60
sg147
Nsg148
Nsg149
Nsbag2
(g3
g4
Ntp1914
Rp1915
(dp1916
g8
g11
sg127
Nsg128
(dp1917
sg130
Nsg26
g29
sg131
(lp1918
I8
aI13
asg133
Nsg134
VEzra 8:13
p1919
sg136
(lp1920
sg138
g89
sg139
Nsg140
(lp1921
I8
aI13
asg142
Nsg143
g1919
sg144
(lp1922
sg146
g60
sg147
Nsg148
Nsg149
Nsbag2
(g3
g4
Ntp1923
Rp1924
(dp1925
g8
g11
sg127
Nsg128
(dp1926
sg130
Nsg26
g29
sg131
(lp1927
I8
aI14
asg133
Nsg134
VEzra 8:14
p1928
sg136
(lp1929
sg138
g89
sg139
Nsg140
(lp1930
I8
aI14
asg142
Nsg143
g1928
sg144
(lp1931
sg146
g60
sg147
Nsg148
Nsg149
Nsbag2
(g3
g4
Ntp1932
Rp1933
(dp1934
g8
g11
sg127
Nsg128
(dp1935
sg130
Nsg26
g29
sg131
(lp1936
I8
aI15
asg133
Nsg134
VEzra 8:15
p1937
sg136
(lp1938
sg138
g89
sg139
Nsg140
(lp1939
I8
aI15
asg142
Nsg143
g1937
sg144
(lp1940
sg146
g60
sg147
Nsg148
Nsg149
Nsbag2
(g3
g4
Ntp1941
Rp1942
(dp1943
g8
g11
sg127
Nsg128
(dp1944
sg130
Nsg26
g29
sg131
(lp1945
I8
aI16
asg133
Nsg134
VEzra 8:16
p1946
sg136
(lp1947
sg138
g89
sg139
Nsg140
(lp1948
I8
aI16
asg142
Nsg143
g1946
sg144
(lp1949
sg146
g60
sg147
Nsg148
Nsg149
Nsbag2
(g3
g4
Ntp1950
Rp1951
(dp1952
g8
g11
sg127
Nsg128
(dp1953
sg130
Nsg26
g29
sg131
(lp1954
I8
aI17
asg133
Nsg134
VEzra 8:17
p1955
sg136
(lp1956
sg138
g89
sg139
Nsg140
(lp1957
I8
aI17
asg142
Nsg143
g1955
sg144
(lp1958
sg146
g60
sg147
Nsg148
Nsg149
Nsbag2
(g3
g4
Ntp1959
Rp1960
(dp1961
g8
g11
sg127
Nsg128
(dp1962
sg130
Nsg26
g29
sg131
(lp1963
I8
aI18
asg133
Nsg134
VEzra 8:18
p1964
sg136
(lp1965
sg138
g89
sg139
Nsg140
(lp1966
I8
aI18
asg142
Nsg143
g1964
sg144
(lp1967
sg146
g60
sg147
Nsg148
Nsg149
Nsbag2
(g3
g4
Ntp1968
Rp1969
(dp1970
g8
g11
sg127
Nsg128
(dp1971
sg130
Nsg26
g29
sg131
(lp1972
I8
aI19
asg133
Nsg134
VEzra 8:19
p1973
sg136
(lp1974
sg138
g89
sg139
Nsg140
(lp1975
I8
aI19
asg142
Nsg143
g1973
sg144
(lp1976
sg146
g60
sg147
Nsg148
Nsg149
Nsbag2
(g3
g4
Ntp1977
Rp1978
(dp1979
g8
g11
sg127
Nsg128
(dp1980
sg130
Nsg26
g29
sg131
(lp1981
I8
aI20
asg133
Nsg134
VEzra 8:20
p1982
sg136
(lp1983
sg138
g89
sg139
Nsg140
(lp1984
I8
aI20
asg142
Nsg143
g1982
sg144
(lp1985
sg146
g60
sg147
Nsg148
Nsg149
Nsbag2
(g3
g4
Ntp1986
Rp1987
(dp1988
g8
g11
sg127
Nsg128
(dp1989
sg130
Nsg26
g29
sg131
(lp1990
I8
aI21
asg133
Nsg134
VEzra 8:21
p1991
sg136
(lp1992
sg138
g89
sg139
Nsg140
(lp1993
I8
aI21
asg142
Nsg143
g1991
sg144
(lp1994
sg146
g60
sg147
Nsg148
Nsg149
Nsbag2
(g3
g4
Ntp1995
Rp1996
(dp1997
g8
g11
sg127
Nsg128
(dp1998
sg130
Nsg26
g29
sg131
(lp1999
I8
aI22
asg133
Nsg134
VEzra 8:22
p2000
sg136
(lp2001
sg138
g89
sg139
Nsg140
(lp2002
I8
aI22
asg142
Nsg143
g2000
sg144
(lp2003
sg146
g60
sg147
Nsg148
Nsg149
Nsbag2
(g3
g4
Ntp2004
Rp2005
(dp2006
g8
g11
sg127
Nsg128
(dp2007
sg130
Nsg26
g29
sg131
(lp2008
I8
aI23
asg133
Nsg134
VEzra 8:23
p2009
sg136
(lp2010
sg138
g89
sg139
Nsg140
(lp2011
I8
aI23
asg142
Nsg143
g2009
sg144
(lp2012
sg146
g60
sg147
Nsg148
Nsg149
Nsbag2
(g3
g4
Ntp2013
Rp2014
(dp2015
g8
g11
sg127
Nsg128
(dp2016
sg130
Nsg26
g29
sg131
(lp2017
I8
aI24
asg133
Nsg134
VEzra 8:24
p2018
sg136
(lp2019
sg138
g89
sg139
Nsg140
(lp2020
I8
aI24
asg142
Nsg143
g2018
sg144
(lp2021
sg146
g60
sg147
Nsg148
Nsg149
Nsbag2
(g3
g4
Ntp2022
Rp2023
(dp2024
g8
g11
sg127
Nsg128
(dp2025
sg130
Nsg26
g29
sg131
(lp2026
I8
aI25
asg133
Nsg134
VEzra 8:25
p2027
sg136
(lp2028
sg138
g89
sg139
Nsg140
(lp2029
I8
aI25
asg142
Nsg143
g2027
sg144
(lp2030
sg146
g60
sg147
Nsg148
Nsg149
Nsbag2
(g3
g4
Ntp2031
Rp2032
(dp2033
g8
g11
sg127
Nsg128
(dp2034
sg130
Nsg26
g29
sg131
(lp2035
I8
aI26
asg133
Nsg134
VEzra 8:26
p2036
sg136
(lp2037
sg138
g89
sg139
Nsg140
(lp2038
I8
aI26
asg142
Nsg143
g2036
sg144
(lp2039
sg146
g60
sg147
Nsg148
Nsg149
Nsbag2
(g3
g4
Ntp2040
Rp2041
(dp2042
g8
g11
sg127
Nsg128
(dp2043
sg130
Nsg26
g29
sg131
(lp2044
I8
aI27
asg133
Nsg134
VEzra 8:27
p2045
sg136
(lp2046
sg138
g89
sg139
Nsg140
(lp2047
I8
aI27
asg142
Nsg143
g2045
sg144
(lp2048
sg146
g60
sg147
Nsg148
Nsg149
Nsbag2
(g3
g4
Ntp2049
Rp2050
(dp2051
g8
g11
sg127
Nsg128
(dp2052
sg130
Nsg26
g29
sg131
(lp2053
I8
aI28
asg133
Nsg134
VEzra 8:28
p2054
sg136
(lp2055
sg138
g89
sg139
Nsg140
(lp2056
I8
aI28
asg142
Nsg143
g2054
sg144
(lp2057
sg146
g60
sg147
Nsg148
Nsg149
Nsbag2
(g3
g4
Ntp2058
Rp2059
(dp2060
g8
g11
sg127
Nsg128
(dp2061
sg130
Nsg26
g29
sg131
(lp2062
I8
aI29
asg133
Nsg134
VEzra 8:29
p2063
sg136
(lp2064
sg138
g89
sg139
Nsg140
(lp2065
I8
aI29
asg142
Nsg143
g2063
sg144
(lp2066
sg146
g60
sg147
Nsg148
Nsg149
Nsbag2
(g3
g4
Ntp2067
Rp2068
(dp2069
g8
g11
sg127
Nsg128
(dp2070
sg130
Nsg26
g29
sg131
(lp2071
I8
aI30
asg133
Nsg134
VEzra 8:30
p2072
sg136
(lp2073
sg138
g89
sg139
Nsg140
(lp2074
I8
aI30
asg142
Nsg143
g2072
sg144
(lp2075
sg146
g60
sg147
Nsg148
Nsg149
Nsbag2
(g3
g4
Ntp2076
Rp2077
(dp2078
g8
g11
sg127
Nsg128
(dp2079
sg130
Nsg26
g29
sg131
(lp2080
I8
aI31
asg133
Nsg134
VEzra 8:31
p2081
sg136
(lp2082
sg138
g89
sg139
Nsg140
(lp2083
I8
aI31
asg142
Nsg143
g2081
sg144
(lp2084
sg146
g60
sg147
Nsg148
Nsg149
Nsbag2
(g3
g4
Ntp2085
Rp2086
(dp2087
g8
g11
sg127
Nsg128
(dp2088
sg130
Nsg26
g29
sg131
(lp2089
I8
aI32
asg133
Nsg134
VEzra 8:32
p2090
sg136
(lp2091
sg138
g89
sg139
Nsg140
(lp2092
I8
aI32
asg142
Nsg143
g2090
sg144
(lp2093
sg146
g60
sg147
Nsg148
Nsg149
Nsbag2
(g3
g4
Ntp2094
Rp2095
(dp2096
g8
g11
sg127
Nsg128
(dp2097
sg130
Nsg26
g29
sg131
(lp2098
I8
aI33
asg133
Nsg134
VEzra 8:33
p2099
sg136
(lp2100
sg138
g89
sg139
Nsg140
(lp2101
I8
aI33
asg142
Nsg143
g2099
sg144
(lp2102
sg146
g60
sg147
Nsg148
Nsg149
Nsbag2
(g3
g4
Ntp2103
Rp2104
(dp2105
g8
g11
sg127
Nsg128
(dp2106
sg130
Nsg26
g29
sg131
(lp2107
I8
aI34
asg133
Nsg134
VEzra 8:34
p2108
sg136
(lp2109
sg138
g89
sg139
Nsg140
(lp2110
I8
aI34
asg142
Nsg143
g2108
sg144
(lp2111
sg146
g60
sg147
Nsg148
Nsg149
Nsbag2
(g3
g4
Ntp2112
Rp2113
(dp2114
g8
g11
sg127
Nsg128
(dp2115
sg130
Nsg26
g29
sg131
(lp2116
I8
aI35
asg133
Nsg134
VEzra 8:35
p2117
sg136
(lp2118
sg138
g89
sg139
Nsg140
(lp2119
I8
aI35
asg142
Nsg143
g2117
sg144
(lp2120
sg146
g60
sg147
Nsg148
Nsg149
Nsbag2
(g3
g4
Ntp2121
Rp2122
(dp2123
g8
g11
sg127
Nsg128
(dp2124
sg130
Nsg26
g29
sg131
(lp2125
I8
aI36
asg133
Nsg134
VEzra 8:36
p2126
sg136
(lp2127
sg138
g89
sg139
Nsg140
(lp2128
I8
aI36
asg142
Nsg143
g2126
sg144
(lp2129
sg146
g60
sg147
Nsg148
Nsg149
Nsbag2
(g3
g4
Ntp2130
Rp2131
(dp2132
g8
g11
sg127
Nsg128
(dp2133
sg130
Nsg26
g29
sg131
(lp2134
I9
aI1
asg133
Nsg134
VEzra 9:1
p2135
sg136
(lp2136
sg138
g89
sg139
Nsg140
(lp2137
I9
aI1
asg142
Nsg143
g2135
sg144
(lp2138
sg146
g60
sg147
Nsg148
Nsg149
Nsbag2
(g3
g4
Ntp2139
Rp2140
(dp2141
g8
g11
sg127
Nsg128
(dp2142
sg130
Nsg26
g29
sg131
(lp2143
I9
aI2
asg133
Nsg134
VEzra 9:2
p2144
sg136
(lp2145
sg138
g89
sg139
Nsg140
(lp2146
I9
aI2
asg142
Nsg143
g2144
sg144
(lp2147
sg146
g60
sg147
Nsg148
Nsg149
Nsbag2
(g3
g4
Ntp2148
Rp2149
(dp2150
g8
g11
sg127
Nsg128
(dp2151
sg130
Nsg26
g29
sg131
(lp2152
I9
aI3
asg133
Nsg134
VEzra 9:3
p2153
sg136
(lp2154
sg138
g89
sg139
Nsg140
(lp2155
I9
aI3
asg142
Nsg143
g2153
sg144
(lp2156
sg146
g60
sg147
Nsg148
Nsg149
Nsbag2
(g3
g4
Ntp2157
Rp2158
(dp2159
g8
g11
sg127
Nsg128
(dp2160
sg130
Nsg26
g29
sg131
(lp2161
I9
aI4
asg133
Nsg134
VEzra 9:4
p2162
sg136
(lp2163
sg138
g89
sg139
Nsg140
(lp2164
I9
aI4
asg142
Nsg143
g2162
sg144
(lp2165
sg146
g60
sg147
Nsg148
Nsg149
Nsbag2
(g3
g4
Ntp2166
Rp2167
(dp2168
g8
g11
sg127
Nsg128
(dp2169
sg130
Nsg26
g29
sg131
(lp2170
I9
aI5
asg133
Nsg134
VEzra 9:5
p2171
sg136
(lp2172
sg138
g89
sg139
Nsg140
(lp2173
I9
aI5
asg142
Nsg143
g2171
sg144
(lp2174
sg146
g60
sg147
Nsg148
Nsg149
Nsbag2
(g3
g4
Ntp2175
Rp2176
(dp2177
g8
g11
sg127
Nsg128
(dp2178
sg130
Nsg26
g29
sg131
(lp2179
I9
aI6
asg133
Nsg134
VEzra 9:6
p2180
sg136
(lp2181
sg138
g89
sg139
Nsg140
(lp2182
I9
aI6
asg142
Nsg143
g2180
sg144
(lp2183
sg146
g60
sg147
Nsg148
Nsg149
Nsbag2
(g3
g4
Ntp2184
Rp2185
(dp2186
g8
g11
sg127
Nsg128
(dp2187
sg130
Nsg26
g29
sg131
(lp2188
I9
aI7
asg133
Nsg134
VEzra 9:7
p2189
sg136
(lp2190
sg138
g89
sg139
Nsg140
(lp2191
I9
aI7
asg142
Nsg143
g2189
sg144
(lp2192
sg146
g60
sg147
Nsg148
Nsg149
Nsbag2
(g3
g4
Ntp2193
Rp2194
(dp2195
g8
g11
sg127
Nsg128
(dp2196
sg130
Nsg26
g29
sg131
(lp2197
I9
aI8
asg133
Nsg134
VEzra 9:8
p2198
sg136
(lp2199
sg138
g89
sg139
Nsg140
(lp2200
I9
aI8
asg142
Nsg143
g2198
sg144
(lp2201
sg146
g60
sg147
Nsg148
Nsg149
Nsbag2
(g3
g4
Ntp2202
Rp2203
(dp2204
g8
g11
sg127
Nsg128
(dp2205
sg130
Nsg26
g29
sg131
(lp2206
I9
aI9
asg133
Nsg134
VEzra 9:9
p2207
sg136
(lp2208
sg138
g89
sg139
Nsg140
(lp2209
I9
aI9
asg142
Nsg143
g2207
sg144
(lp2210
sg146
g60
sg147
Nsg148
Nsg149
Nsbag2
(g3
g4
Ntp2211
Rp2212
(dp2213
g8
g11
sg127
Nsg128
(dp2214
sg130
Nsg26
g29
sg131
(lp2215
I9
aI10
asg133
Nsg134
VEzra 9:10
p2216
sg136
(lp2217
sg138
g89
sg139
Nsg140
(lp2218
I9
aI10
asg142
Nsg143
g2216
sg144
(lp2219
sg146
g60
sg147
Nsg148
Nsg149
Nsbag2
(g3
g4
Ntp2220
Rp2221
(dp2222
g8
g11
sg127
Nsg128
(dp2223
sg130
Nsg26
g29
sg131
(lp2224
I9
aI11
asg133
Nsg134
VEzra 9:11
p2225
sg136
(lp2226
sg138
g89
sg139
Nsg140
(lp2227
I9
aI11
asg142
Nsg143
g2225
sg144
(lp2228
sg146
g60
sg147
Nsg148
Nsg149
Nsbag2
(g3
g4
Ntp2229
Rp2230
(dp2231
g8
g11
sg127
Nsg128
(dp2232
sg130
Nsg26
g29
sg131
(lp2233
I9
aI12
asg133
Nsg134
VEzra 9:12
p2234
sg136
(lp2235
sg138
g89
sg139
Nsg140
(lp2236
I9
aI12
asg142
Nsg143
g2234
sg144
(lp2237
sg146
g60
sg147
Nsg148
Nsg149
Nsbag2
(g3
g4
Ntp2238
Rp2239
(dp2240
g8
g11
sg127
Nsg128
(dp2241
sg130
Nsg26
g29
sg131
(lp2242
I9
aI13
asg133
Nsg134
VEzra 9:13
p2243
sg136
(lp2244
sg138
g89
sg139
Nsg140
(lp2245
I9
aI13
asg142
Nsg143
g2243
sg144
(lp2246
sg146
g60
sg147
Nsg148
Nsg149
Nsbag2
(g3
g4
Ntp2247
Rp2248
(dp2249
g8
g11
sg127
Nsg128
(dp2250
sg130
Nsg26
g29
sg131
(lp2251
I9
aI14
asg133
Nsg134
VEzra 9:14
p2252
sg136
(lp2253
sg138
g89
sg139
Nsg140
(lp2254
I9
aI14
asg142
Nsg143
g2252
sg144
(lp2255
sg146
g60
sg147
Nsg148
Nsg149
Nsbag2
(g3
g4
Ntp2256
Rp2257
(dp2258
g8
g11
sg127
Nsg128
(dp2259
sg130
Nsg26
g29
sg131
(lp2260
I9
aI15
asg133
Nsg134
VEzra 9:15
p2261
sg136
(lp2262
sg138
g89
sg139
Nsg140
(lp2263
I9
aI15
asg142
Nsg143
g2261
sg144
(lp2264
sg146
g60
sg147
Nsg148
Nsg149
Nsbag2
(g3
g4
Ntp2265
Rp2266
(dp2267
g8
g11
sg127
Nsg128
(dp2268
sg130
Nsg26
g29
sg131
(lp2269
I10
aI1
asg133
Nsg134
VEzra 10:1
p2270
sg136
(lp2271
sg138
g89
sg139
Nsg140
(lp2272
I10
aI1
asg142
Nsg143
g2270
sg144
(lp2273
sg146
g60
sg147
Nsg148
Nsg149
Nsbag2
(g3
g4
Ntp2274
Rp2275
(dp2276
g8
g11
sg127
Nsg128
(dp2277
sg130
Nsg26
g29
sg131
(lp2278
I10
aI2
asg133
Nsg134
VEzra 10:2
p2279
sg136
(lp2280
sg138
g89
sg139
Nsg140
(lp2281
I10
aI2
asg142
Nsg143
g2279
sg144
(lp2282
sg146
g60
sg147
Nsg148
Nsg149
Nsbag2
(g3
g4
Ntp2283
Rp2284
(dp2285
g8
g11
sg127
Nsg128
(dp2286
sg130
Nsg26
g29
sg131
(lp2287
I10
aI3
asg133
Nsg134
VEzra 10:3
p2288
sg136
(lp2289
sg138
g89
sg139
Nsg140
(lp2290
I10
aI3
asg142
Nsg143
g2288
sg144
(lp2291
sg146
g60
sg147
Nsg148
Nsg149
Nsbag2
(g3
g4
Ntp2292
Rp2293
(dp2294
g8
g11
sg127
Nsg128
(dp2295
sg130
Nsg26
g29
sg131
(lp2296
I10
aI4
asg133
Nsg134
VEzra 10:4
p2297
sg136
(lp2298
sg138
g89
sg139
Nsg140
(lp2299
I10
aI4
asg142
Nsg143
g2297
sg144
(lp2300
sg146
g60
sg147
Nsg148
Nsg149
Nsbag2
(g3
g4
Ntp2301
Rp2302
(dp2303
g8
g11
sg127
Nsg128
(dp2304
sg130
Nsg26
g29
sg131
(lp2305
I10
aI5
asg133
Nsg134
VEzra 10:5
p2306
sg136
(lp2307
sg138
g89
sg139
Nsg140
(lp2308
I10
aI5
asg142
Nsg143
g2306
sg144
(lp2309
sg146
g60
sg147
Nsg148
Nsg149
Nsbag2
(g3
g4
Ntp2310
Rp2311
(dp2312
g8
g11
sg127
Nsg128
(dp2313
sg130
Nsg26
g29
sg131
(lp2314
I10
aI6
asg133
Nsg134
VEzra 10:6
p2315
sg136
(lp2316
sg138
g89
sg139
Nsg140
(lp2317
I10
aI6
asg142
Nsg143
g2315
sg144
(lp2318
sg146
g60
sg147
Nsg148
Nsg149
Nsbag2
(g3
g4
Ntp2319
Rp2320
(dp2321
g8
g11
sg127
Nsg128
(dp2322
sg130
Nsg26
g29
sg131
(lp2323
I10
aI7
asg133
Nsg134
VEzra 10:7
p2324
sg136
(lp2325
sg138
g89
sg139
Nsg140
(lp2326
I10
aI7
asg142
Nsg143
g2324
sg144
(lp2327
sg146
g60
sg147
Nsg148
Nsg149
Nsbag2
(g3
g4
Ntp2328
Rp2329
(dp2330
g8
g11
sg127
Nsg128
(dp2331
sg130
Nsg26
g29
sg131
(lp2332
I10
aI8
asg133
Nsg134
VEzra 10:8
p2333
sg136
(lp2334
sg138
g89
sg139
Nsg140
(lp2335
I10
aI8
asg142
Nsg143
g2333
sg144
(lp2336
sg146
g60
sg147
Nsg148
Nsg149
Nsbag2
(g3
g4
Ntp2337
Rp2338
(dp2339
g8
g11
sg127
Nsg128
(dp2340
sg130
Nsg26
g29
sg131
(lp2341
I10
aI9
asg133
Nsg134
VEzra 10:9
p2342
sg136
(lp2343
sg138
g89
sg139
Nsg140
(lp2344
I10
aI9
asg142
Nsg143
g2342
sg144
(lp2345
sg146
g60
sg147
Nsg148
Nsg149
Nsbag2
(g3
g4
Ntp2346
Rp2347
(dp2348
g8
g11
sg127
Nsg128
(dp2349
sg130
Nsg26
g29
sg131
(lp2350
I10
aI10
asg133
Nsg134
VEzra 10:10
p2351
sg136
(lp2352
sg138
g89
sg139
Nsg140
(lp2353
I10
aI10
asg142
Nsg143
g2351
sg144
(lp2354
sg146
g60
sg147
Nsg148
Nsg149
Nsbag2
(g3
g4
Ntp2355
Rp2356
(dp2357
g8
g11
sg127
Nsg128
(dp2358
sg130
Nsg26
g29
sg131
(lp2359
I10
aI11
asg133
Nsg134
VEzra 10:11
p2360
sg136
(lp2361
sg138
g89
sg139
Nsg140
(lp2362
I10
aI11
asg142
Nsg143
g2360
sg144
(lp2363
sg146
g60
sg147
Nsg148
Nsg149
Nsbag2
(g3
g4
Ntp2364
Rp2365
(dp2366
g8
g11
sg127
Nsg128
(dp2367
sg130
Nsg26
g29
sg131
(lp2368
I10
aI12
asg133
Nsg134
VEzra 10:12
p2369
sg136
(lp2370
sg138
g89
sg139
Nsg140
(lp2371
I10
aI12
asg142
Nsg143
g2369
sg144
(lp2372
sg146
g60
sg147
Nsg148
Nsg149
Nsbag2
(g3
g4
Ntp2373
Rp2374
(dp2375
g8
g11
sg127
Nsg128
(dp2376
sg130
Nsg26
g29
sg131
(lp2377
I10
aI13
asg133
Nsg134
VEzra 10:13
p2378
sg136
(lp2379
sg138
g89
sg139
Nsg140
(lp2380
I10
aI13
asg142
Nsg143
g2378
sg144
(lp2381
sg146
g60
sg147
Nsg148
Nsg149
Nsbag2
(g3
g4
Ntp2382
Rp2383
(dp2384
g8
g11
sg127
Nsg128
(dp2385
sg130
Nsg26
g29
sg131
(lp2386
I10
aI14
asg133
Nsg134
VEzra 10:14
p2387
sg136
(lp2388
sg138
g89
sg139
Nsg140
(lp2389
I10
aI14
asg142
Nsg143
g2387
sg144
(lp2390
sg146
g60
sg147
Nsg148
Nsg149
Nsbag2
(g3
g4
Ntp2391
Rp2392
(dp2393
g8
g11
sg127
Nsg128
(dp2394
sg130
Nsg26
g29
sg131
(lp2395
I10
aI15
asg133
Nsg134
VEzra 10:15
p2396
sg136
(lp2397
sg138
g89
sg139
Nsg140
(lp2398
I10
aI15
asg142
Nsg143
g2396
sg144
(lp2399
sg146
g60
sg147
Nsg148
Nsg149
Nsbag2
(g3
g4
Ntp2400
Rp2401
(dp2402
g8
g11
sg127
Nsg128
(dp2403
sg130
Nsg26
g29
sg131
(lp2404
I10
aI16
asg133
Nsg134
VEzra 10:16
p2405
sg136
(lp2406
sg138
g89
sg139
Nsg140
(lp2407
I10
aI16
asg142
Nsg143
g2405
sg144
(lp2408
sg146
g60
sg147
Nsg148
Nsg149
Nsbag2
(g3
g4
Ntp2409
Rp2410
(dp2411
g8
g11
sg127
Nsg128
(dp2412
sg130
Nsg26
g29
sg131
(lp2413
I10
aI17
asg133
Nsg134
VEzra 10:17
p2414
sg136
(lp2415
sg138
g89
sg139
Nsg140
(lp2416
I10
aI17
asg142
Nsg143
g2414
sg144
(lp2417
sg146
g60
sg147
Nsg148
Nsg149
Nsbag2
(g3
g4
Ntp2418
Rp2419
(dp2420
g8
g11
sg127
Nsg128
(dp2421
sg130
Nsg26
g29
sg131
(lp2422
I10
aI18
asg133
Nsg134
VEzra 10:18
p2423
sg136
(lp2424
sg138
g89
sg139
Nsg140
(lp2425
I10
aI18
asg142
Nsg143
g2423
sg144
(lp2426
sg146
g60
sg147
Nsg148
Nsg149
Nsbag2
(g3
g4
Ntp2427
Rp2428
(dp2429
g8
g11
sg127
Nsg128
(dp2430
sg130
Nsg26
g29
sg131
(lp2431
I10
aI19
asg133
Nsg134
VEzra 10:19
p2432
sg136
(lp2433
sg138
g89
sg139
Nsg140
(lp2434
I10
aI19
asg142
Nsg143
g2432
sg144
(lp2435
sg146
g60
sg147
Nsg148
Nsg149
Nsbag2
(g3
g4
Ntp2436
Rp2437
(dp2438
g8
g11
sg127
Nsg128
(dp2439
sg130
Nsg26
g29
sg131
(lp2440
I10
aI20
asg133
Nsg134
VEzra 10:20
p2441
sg136
(lp2442
sg138
g89
sg139
Nsg140
(lp2443
I10
aI20
asg142
Nsg143
g2441
sg144
(lp2444
sg146
g60
sg147
Nsg148
Nsg149
Nsbag2
(g3
g4
Ntp2445
Rp2446
(dp2447
g8
g11
sg127
Nsg128
(dp2448
sg130
Nsg26
g29
sg131
(lp2449
I10
aI21
asg133
Nsg134
VEzra 10:21
p2450
sg136
(lp2451
sg138
g89
sg139
Nsg140
(lp2452
I10
aI21
asg142
Nsg143
g2450
sg144
(lp2453
sg146
g60
sg147
Nsg148
Nsg149
Nsbag2
(g3
g4
Ntp2454
Rp2455
(dp2456
g8
g11
sg127
Nsg128
(dp2457
sg130
Nsg26
g29
sg131
(lp2458
I10
aI22
asg133
Nsg134
VEzra 10:22
p2459
sg136
(lp2460
sg138
g89
sg139
Nsg140
(lp2461
I10
aI22
asg142
Nsg143
g2459
sg144
(lp2462
sg146
g60
sg147
Nsg148
Nsg149
Nsbag2
(g3
g4
Ntp2463
Rp2464
(dp2465
g8
g11
sg127
Nsg128
(dp2466
sg130
Nsg26
g29
sg131
(lp2467
I10
aI23
asg133
Nsg134
VEzra 10:23
p2468
sg136
(lp2469
sg138
g89
sg139
Nsg140
(lp2470
I10
aI23
asg142
Nsg143
g2468
sg144
(lp2471
sg146
g60
sg147
Nsg148
Nsg149
Nsbag2
(g3
g4
Ntp2472
Rp2473
(dp2474
g8
g11
sg127
Nsg128
(dp2475
sg130
Nsg26
g29
sg131
(lp2476
I10
aI24
asg133
Nsg134
VEzra 10:24
p2477
sg136
(lp2478
sg138
g89
sg139
Nsg140
(lp2479
I10
aI24
asg142
Nsg143
g2477
sg144
(lp2480
sg146
g60
sg147
Nsg148
Nsg149
Nsbag2
(g3
g4
Ntp2481
Rp2482
(dp2483
g8
g11
sg127
Nsg128
(dp2484
sg130
Nsg26
g29
sg131
(lp2485
I10
aI25
asg133
Nsg134
VEzra 10:25
p2486
sg136
(lp2487
sg138
g89
sg139
Nsg140
(lp2488
I10
aI25
asg142
Nsg143
g2486
sg144
(lp2489
sg146
g60
sg147
Nsg148
Nsg149
Nsbag2
(g3
g4
Ntp2490
Rp2491
(dp2492
g8
g11
sg127
Nsg128
(dp2493
sg130
Nsg26
g29
sg131
(lp2494
I10
aI26
asg133
Nsg134
VEzra 10:26
p2495
sg136
(lp2496
sg138
g89
sg139
Nsg140
(lp2497
I10
aI26
asg142
Nsg143
g2495
sg144
(lp2498
sg146
g60
sg147
Nsg148
Nsg149
Nsbag2
(g3
g4
Ntp2499
Rp2500
(dp2501
g8
g11
sg127
Nsg128
(dp2502
sg130
Nsg26
g29
sg131
(lp2503
I10
aI27
asg133
Nsg134
VEzra 10:27
p2504
sg136
(lp2505
sg138
g89
sg139
Nsg140
(lp2506
I10
aI27
asg142
Nsg143
g2504
sg144
(lp2507
sg146
g60
sg147
Nsg148
Nsg149
Nsbag2
(g3
g4
Ntp2508
Rp2509
(dp2510
g8
g11
sg127
Nsg128
(dp2511
sg130
Nsg26
g29
sg131
(lp2512
I10
aI28
asg133
Nsg134
VEzra 10:28
p2513
sg136
(lp2514
sg138
g89
sg139
Nsg140
(lp2515
I10
aI28
asg142
Nsg143
g2513
sg144
(lp2516
sg146
g60
sg147
Nsg148
Nsg149
Nsbag2
(g3
g4
Ntp2517
Rp2518
(dp2519
g8
g11
sg127
Nsg128
(dp2520
sg130
Nsg26
g29
sg131
(lp2521
I10
aI29
asg133
Nsg134
VEzra 10:29
p2522
sg136
(lp2523
sg138
g89
sg139
Nsg140
(lp2524
I10
aI29
asg142
Nsg143
g2522
sg144
(lp2525
sg146
g60
sg147
Nsg148
Nsg149
Nsbag2
(g3
g4
Ntp2526
Rp2527
(dp2528
g8
g11
sg127
Nsg128
(dp2529
sg130
Nsg26
g29
sg131
(lp2530
I10
aI30
asg133
Nsg134
VEzra 10:30
p2531
sg136
(lp2532
sg138
g89
sg139
Nsg140
(lp2533
I10
aI30
asg142
Nsg143
g2531
sg144
(lp2534
sg146
g60
sg147
Nsg148
Nsg149
Nsbag2
(g3
g4
Ntp2535
Rp2536
(dp2537
g8
g11
sg127
Nsg128
(dp2538
sg130
Nsg26
g29
sg131
(lp2539
I10
aI31
asg133
Nsg134
VEzra 10:31
p2540
sg136
(lp2541
sg138
g89
sg139
Nsg140
(lp2542
I10
aI31
asg142
Nsg143
g2540
sg144
(lp2543
sg146
g60
sg147
Nsg148
Nsg149
Nsbag2
(g3
g4
Ntp2544
Rp2545
(dp2546
g8
g11
sg127
Nsg128
(dp2547
sg130
Nsg26
g29
sg131
(lp2548
I10
aI32
asg133
Nsg134
VEzra 10:32
p2549
sg136
(lp2550
sg138
g89
sg139
Nsg140
(lp2551
I10
aI32
asg142
Nsg143
g2549
sg144
(lp2552
sg146
g60
sg147
Nsg148
Nsg149
Nsbag2
(g3
g4
Ntp2553
Rp2554
(dp2555
g8
g11
sg127
Nsg128
(dp2556
sg130
Nsg26
g29
sg131
(lp2557
I10
aI33
asg133
Nsg134
VEzra 10:33
p2558
sg136
(lp2559
sg138
g89
sg139
Nsg140
(lp2560
I10
aI33
asg142
Nsg143
g2558
sg144
(lp2561
sg146
g60
sg147
Nsg148
Nsg149
Nsbag2
(g3
g4
Ntp2562
Rp2563
(dp2564
g8
g11
sg127
Nsg128
(dp2565
sg130
Nsg26
g29
sg131
(lp2566
I10
aI34
asg133
Nsg134
VEzra 10:34
p2567
sg136
(lp2568
sg138
g89
sg139
Nsg140
(lp2569
I10
aI34
asg142
Nsg143
g2567
sg144
(lp2570
sg146
g60
sg147
Nsg148
Nsg149
Nsbag2
(g3
g4
Ntp2571
Rp2572
(dp2573
g8
g11
sg127
Nsg128
(dp2574
sg130
Nsg26
g29
sg131
(lp2575
I10
aI35
asg133
Nsg134
VEzra 10:35
p2576
sg136
(lp2577
sg138
g89
sg139
Nsg140
(lp2578
I10
aI35
asg142
Nsg143
g2576
sg144
(lp2579
sg146
g60
sg147
Nsg148
Nsg149
Nsbag2
(g3
g4
Ntp2580
Rp2581
(dp2582
g8
g11
sg127
Nsg128
(dp2583
sg130
Nsg26
g29
sg131
(lp2584
I10
aI36
asg133
Nsg134
VEzra 10:36
p2585
sg136
(lp2586
sg138
g89
sg139
Nsg140
(lp2587
I10
aI36
asg142
Nsg143
g2585
sg144
(lp2588
sg146
g60
sg147
Nsg148
Nsg149
Nsbag2
(g3
g4
Ntp2589
Rp2590
(dp2591
g8
g11
sg127
Nsg128
(dp2592
sg130
Nsg26
g29
sg131
(lp2593
I10
aI37
asg133
Nsg134
VEzra 10:37
p2594
sg136
(lp2595
sg138
g89
sg139
Nsg140
(lp2596
I10
aI37
asg142
Nsg143
g2594
sg144
(lp2597
sg146
g60
sg147
Nsg148
Nsg149
Nsbag2
(g3
g4
Ntp2598
Rp2599
(dp2600
g8
g11
sg127
Nsg128
(dp2601
sg130
Nsg26
g29
sg131
(lp2602
I10
aI38
asg133
Nsg134
VEzra 10:38
p2603
sg136
(lp2604
sg138
g89
sg139
Nsg140
(lp2605
I10
aI38
asg142
Nsg143
g2603
sg144
(lp2606
sg146
g60
sg147
Nsg148
Nsg149
Nsbag2
(g3
g4
Ntp2607
Rp2608
(dp2609
g8
g11
sg127
Nsg128
(dp2610
sg130
Nsg26
g29
sg131
(lp2611
I10
aI39
asg133
Nsg134
VEzra 10:39
p2612
sg136
(lp2613
sg138
g89
sg139
Nsg140
(lp2614
I10
aI39
asg142
Nsg143
g2612
sg144
(lp2615
sg146
g60
sg147
Nsg148
Nsg149
Nsbag2
(g3
g4
Ntp2616
Rp2617
(dp2618
g8
g11
sg127
Nsg128
(dp2619
sg130
Nsg26
g29
sg131
(lp2620
I10
aI40
asg133
Nsg134
VEzra 10:40
p2621
sg136
(lp2622
sg138
g89
sg139
Nsg140
(lp2623
I10
aI40
asg142
Nsg143
g2621
sg144
(lp2624
sg146
g60
sg147
Nsg148
Nsg149
Nsbag2
(g3
g4
Ntp2625
Rp2626
(dp2627
g8
g11
sg127
Nsg128
(dp2628
sg130
Nsg26
g29
sg131
(lp2629
I10
aI41
asg133
Nsg134
VEzra 10:41
p2630
sg136
(lp2631
sg138
g89
sg139
Nsg140
(lp2632
I10
aI41
asg142
Nsg143
g2630
sg144
(lp2633
sg146
g60
sg147
Nsg148
Nsg149
Nsbag2
(g3
g4
Ntp2634
Rp2635
(dp2636
g8
g11
sg127
Nsg128
(dp2637
sg130
Nsg26
g29
sg131
(lp2638
I10
aI42
asg133
Nsg134
VEzra 10:42
p2639
sg136
(lp2640
sg138
g89
sg139
Nsg140
(lp2641
I10
aI42
asg142
Nsg143
g2639
sg144
(lp2642
sg146
g60
sg147
Nsg148
Nsg149
Nsbag2
(g3
g4
Ntp2643
Rp2644
(dp2645
g8
g11
sg127
Nsg128
(dp2646
sg130
Nsg26
g29
sg131
(lp2647
I10
aI43
asg133
Nsg134
VEzra 10:43
p2648
sg136
(lp2649
sg138
g89
sg139
Nsg140
(lp2650
I10
aI43
asg142
Nsg143
g2648
sg144
(lp2651
sg146
g60
sg147
Nsg148
Nsg149
Nsbag2
(g3
g4
Ntp2652
Rp2653
(dp2654
g8
g11
sg127
Nsg128
(dp2655
sg130
Nsg26
g29
sg131
(lp2656
I10
aI44
asg133
Nsg134
VEzra 10:44
p2657
sg136
(lp2658
sg138
g89
sg139
Nsg140
(lp2659
I10
aI44
asg142
Nsg143
g2657
sg144
(lp2660
sg146
g60
sg147
Nsg148
Nsg149
Nsbatp2661
.