((lp0
I0
aI5
aI16
aI28
aI46
aI59
aI74
aI81
aI96
aI105
aI118
aI126
aI140
aI157
aI165
aI176
aI188
aI197
aI212
aI224
aI241
aI250
aI274
aI293
aI302
aI319
aI330
aI338
aI345
aI352
aI365
aI376
aI387
aI402
aI417
aI434
aI451
aI458
aI463
aI478
aI491
aI500
aI506
aI521
aI530
aI545
aI554
aI566
aI576
aI582
aI597
aI609
aI615
aI633
aI653
aI659
a(lp1
ccopy_reg
_reconstructor
p2
(csefaria.model.text
Ref
p3
c__builtin__
object
p4
Ntp5
Rp6
(dp7
S'index_node'
p8
g2
(csefaria.model.schema
JaggedArrayNode
p9
g4
Ntp10
Rp11
(dp12
S'_address'
p13
(lp14
VHabakkuk
p15
asS'_full_titles'
p16
(dp17
sVnodeType
p18
VJaggedArrayNode
p19
sS'parent'
p20
NsVaddressTypes
p21
(lp22
VInteger
p23
aVInteger
p24
asS'default'
p25
I00
sS'index'
p26
g2
(csefaria.model.text
Index
p27
g4
Ntp28
Rp29
(dp30
S'_id'
p31
g2
(cbson.objectid
ObjectId
p32
g4
Ntp33
Rp34
S'NJ\xb8l\xed\xba\xb4X3\x00\x00\x15'
p35
bsS'pkeys_orig_values'
p36
(dp37
S'title'
p38
VHabakkuk
p39
ssS'pubDate'
p40
V1488
p41
sS'compDate'
p42
V-450
p43
sS'pubPlace'
p44
VSoncino
p45
sS'compPlace'
p46
VJudea/Israel
p47
sS'enDesc'
p48
VThe Book of Habbakuk is the eighth of the Tere Asar (Twelve Minor Prophets). The term denotes the short length of the text in relation to the longer prophetic texts known as the Major Prophets. The book is divided into three chapters: chapter one is a dialog between God and the prophet. Chapter two is a prophecy of woe whose central message is that "the just shall live by his faith" (2:4). Chapter 3 is a liturgical piece.
p49
sS'order'
p50
(lp51
I22
aI17
asS'struct_objs'
p52
(dp53
sS'nodes'
p54
g11
sS'errorMargin'
p55
V150
p56
sS'_title'
p57
g39
sS'categories'
p58
(lp59
VTanakh
p60
aVProphets
p61
asS'schema'
p62
(dp63
g18
g19
sg21
g22
sVlengths
p64
(lp65
I3
aI56
asVdepth
p66
I2
sVtitles
p67
(lp68
(dp69
Vlang
p70
Ven
p71
sVtext
p72
VHab.
p73
sa(dp74
Vlang
p75
Ven
p76
sVtext
p77
VHab
p78
sa(dp79
Vlang
p80
Ven
p81
sVtext
p82
VHavakkuk
p83
sa(dp84
Vlang
p85
Ven
p86
sVtext
p87
VHabakuk
p88
sa(dp89
Vlang
p90
Vhe
p91
sVtext
p92
V\u05d7\u05d1\u05e7\u05d5\u05e7
p93
sVprimary
p94
I01
sa(dp95
Vlang
p96
Ven
p97
sVtext
p98
VHabakkuk
p99
sVprimary
p100
I01
sasVkey
p101
g15
sVsectionNames
p102
(lp103
VChapter
p104
aVVerse
p105
assbsS'_primary_title'
p106
(dp107
sS'title_group'
p108
g2
(csefaria.model.schema
TitleGroup
p109
g4
Ntp110
Rp111
(dp112
g106
(dp113
S'en'
p114
g99
ssS'titles'
p115
g68
sbsS'_addressTypes'
p116
(lp117
g2
(csefaria.model.schema
AddressInteger
p118
g4
Ntp119
Rp120
(dp121
S'length'
p122
I3
sg50
I0
sbag2
(g118
g4
Ntp123
Rp124
(dp125
g122
Nsg50
I1
sbasS'sharedTitle'
p126
Nsg64
g65
sg66
I2
sS'_full_title'
p127
(dp128
g114
g99
ssS'key'
p129
g15
sS'checkFirst'
p130
NsS'_regexes'
p131
(dp132
sS'_leaf_nodes'
p133
(lp134
sg102
g103
sS'children'
p135
(lp136
sbsS'_range_index'
p137
NsS'_context'
p138
(dp139
sS'_padded'
p140
Nsg26
g29
sS'sections'
p141
(lp142
I1
aI1
asS'_first_spanned_ref'
p143
NsS'tref'
p144
VHabakkuk 1:1
p145
sS'_spanned_refs'
p146
(lp147
sS'book'
p148
g99
sS'_range_depth'
p149
NsS'toSections'
p150
(lp151
I1
aI1
asS'_url'
p152
NsS'_normal'
p153
g145
sS'_ranged_refs'
p154
(lp155
sS'type'
p156
g60
sS'_prev'
p157
NsS'_he_normal'
p158
NsS'_next'
p159
Nsbag2
(g3
g4
Ntp160
Rp161
(dp162
g8
g11
sg137
Nsg138
(dp163
sg140
Nsg26
g29
sg141
(lp164
I1
aI2
asg143
Nsg144
VHabakkuk 1:2
p165
sg146
(lp166
sg148
g99
sg149
Nsg150
(lp167
I1
aI2
asg152
Nsg153
g165
sg154
(lp168
sg156
g60
sg157
Nsg158
Nsg159
Nsbag2
(g3
g4
Ntp169
Rp170
(dp171
g8
g11
sg137
Nsg138
(dp172
sg140
Nsg26
g29
sg141
(lp173
I1
aI3
asg143
Nsg144
VHabakkuk 1:3
p174
sg146
(lp175
sg148
g99
sg149
Nsg150
(lp176
I1
aI3
asg152
Nsg153
g174
sg154
(lp177
sg156
g60
sg157
Nsg158
Nsg159
Nsbag2
(g3
g4
Ntp178
Rp179
(dp180
g8
g11
sg137
Nsg138
(dp181
sg140
Nsg26
g29
sg141
(lp182
I1
aI4
asg143
Nsg144
VHabakkuk 1:4
p183
sg146
(lp184
sg148
g99
sg149
Nsg150
(lp185
I1
aI4
asg152
Nsg153
g183
sg154
(lp186
sg156
g60
sg157
Nsg158
Nsg159
Nsbag2
(g3
g4
Ntp187
Rp188
(dp189
g8
g11
sg137
Nsg138
(dp190
sg140
Nsg26
g29
sg141
(lp191
I1
aI5
asg143
Nsg144
VHabakkuk 1:5
p192
sg146
(lp193
sg148
g99
sg149
Nsg150
(lp194
I1
aI5
asg152
Nsg153
g192
sg154
(lp195
sg156
g60
sg157
Nsg158
Nsg159
Nsbag2
(g3
g4
Ntp196
Rp197
(dp198
g8
g11
sg137
Nsg138
(dp199
sg140
Nsg26
g29
sg141
(lp200
I1
aI6
asg143
Nsg144
VHabakkuk 1:6
p201
sg146
(lp202
sg148
g99
sg149
Nsg150
(lp203
I1
aI6
asg152
Nsg153
g201
sg154
(lp204
sg156
g60
sg157
Nsg158
Nsg159
Nsbag2
(g3
g4
Ntp205
Rp206
(dp207
g8
g11
sg137
Nsg138
(dp208
sg140
Nsg26
g29
sg141
(lp209
I1
aI7
asg143
Nsg144
VHabakkuk 1:7
p210
sg146
(lp211
sg148
g99
sg149
Nsg150
(lp212
I1
aI7
asg152
Nsg153
g210
sg154
(lp213
sg156
g60
sg157
Nsg158
Nsg159
Nsbag2
(g3
g4
Ntp214
Rp215
(dp216
g8
g11
sg137
Nsg138
(dp217
sg140
Nsg26
g29
sg141
(lp218
I1
aI8
asg143
Nsg144
VHabakkuk 1:8
p219
sg146
(lp220
sg148
g99
sg149
Nsg150
(lp221
I1
aI8
asg152
Nsg153
g219
sg154
(lp222
sg156
g60
sg157
Nsg158
Nsg159
Nsbag2
(g3
g4
Ntp223
Rp224
(dp225
g8
g11
sg137
Nsg138
(dp226
sg140
Nsg26
g29
sg141
(lp227
I1
aI9
asg143
Nsg144
VHabakkuk 1:9
p228
sg146
(lp229
sg148
g99
sg149
Nsg150
(lp230
I1
aI9
asg152
Nsg153
g228
sg154
(lp231
sg156
g60
sg157
Nsg158
Nsg159
Nsbag2
(g3
g4
Ntp232
Rp233
(dp234
g8
g11
sg137
Nsg138
(dp235
sg140
Nsg26
g29
sg141
(lp236
I1
aI10
asg143
Nsg144
VHabakkuk 1:10
p237
sg146
(lp238
sg148
g99
sg149
Nsg150
(lp239
I1
aI10
asg152
Nsg153
g237
sg154
(lp240
sg156
g60
sg157
Nsg158
Nsg159
Nsbag2
(g3
g4
Ntp241
Rp242
(dp243
g8
g11
sg137
Nsg138
(dp244
sg140
Nsg26
g29
sg141
(lp245
I1
aI11
asg143
Nsg144
VHabakkuk 1:11
p246
sg146
(lp247
sg148
g99
sg149
Nsg150
(lp248
I1
aI11
asg152
Nsg153
g246
sg154
(lp249
sg156
g60
sg157
Nsg158
Nsg159
Nsbag2
(g3
g4
Ntp250
Rp251
(dp252
g8
g11
sg137
Nsg138
(dp253
sg140
Nsg26
g29
sg141
(lp254
I1
aI12
asg143
Nsg144
VHabakkuk 1:12
p255
sg146
(lp256
sg148
g99
sg149
Nsg150
(lp257
I1
aI12
asg152
Nsg153
g255
sg154
(lp258
sg156
g60
sg157
Nsg158
Nsg159
Nsbag2
(g3
g4
Ntp259
Rp260
(dp261
g8
g11
sg137
Nsg138
(dp262
sg140
Nsg26
g29
sg141
(lp263
I1
aI13
asg143
Nsg144
VHabakkuk 1:13
p264
sg146
(lp265
sg148
g99
sg149
Nsg150
(lp266
I1
aI13
asg152
Nsg153
g264
sg154
(lp267
sg156
g60
sg157
Nsg158
Nsg159
Nsbag2
(g3
g4
Ntp268
Rp269
(dp270
g8
g11
sg137
Nsg138
(dp271
sg140
Nsg26
g29
sg141
(lp272
I1
aI14
asg143
Nsg144
VHabakkuk 1:14
p273
sg146
(lp274
sg148
g99
sg149
Nsg150
(lp275
I1
aI14
asg152
Nsg153
g273
sg154
(lp276
sg156
g60
sg157
Nsg158
Nsg159
Nsbag2
(g3
g4
Ntp277
Rp278
(dp279
g8
g11
sg137
Nsg138
(dp280
sg140
Nsg26
g29
sg141
(lp281
I1
aI15
asg143
Nsg144
VHabakkuk 1:15
p282
sg146
(lp283
sg148
g99
sg149
Nsg150
(lp284
I1
aI15
asg152
Nsg153
g282
sg154
(lp285
sg156
g60
sg157
Nsg158
Nsg159
Nsbag2
(g3
g4
Ntp286
Rp287
(dp288
g8
g11
sg137
Nsg138
(dp289
sg140
Nsg26
g29
sg141
(lp290
I1
aI16
asg143
Nsg144
VHabakkuk 1:16
p291
sg146
(lp292
sg148
g99
sg149
Nsg150
(lp293
I1
aI16
asg152
Nsg153
g291
sg154
(lp294
sg156
g60
sg157
Nsg158
Nsg159
Nsbag2
(g3
g4
Ntp295
Rp296
(dp297
g8
g11
sg137
Nsg138
(dp298
sg140
Nsg26
g29
sg141
(lp299
I1
aI17
asg143
Nsg144
VHabakkuk 1:17
p300
sg146
(lp301
sg148
g99
sg149
Nsg150
(lp302
I1
aI17
asg152
Nsg153
g300
sg154
(lp303
sg156
g60
sg157
Nsg158
Nsg159
Nsbag2
(g3
g4
Ntp304
Rp305
(dp306
g8
g11
sg137
Nsg138
(dp307
sg140
Nsg26
g29
sg141
(lp308
I2
aI1
asg143
Nsg144
VHabakkuk 2:1
p309
sg146
(lp310
sg148
g99
sg149
Nsg150
(lp311
I2
aI1
asg152
Nsg153
g309
sg154
(lp312
sg156
g60
sg157
Nsg158
Nsg159
Nsbag2
(g3
g4
Ntp313
Rp314
(dp315
g8
g11
sg137
Nsg138
(dp316
sg140
Nsg26
g29
sg141
(lp317
I2
aI2
asg143
Nsg144
VHabakkuk 2:2
p318
sg146
(lp319
sg148
g99
sg149
Nsg150
(lp320
I2
aI2
asg152
Nsg153
g318
sg154
(lp321
sg156
g60
sg157
Nsg158
Nsg159
Nsbag2
(g3
g4
Ntp322
Rp323
(dp324
g8
g11
sg137
Nsg138
(dp325
sg140
Nsg26
g29
sg141
(lp326
I2
aI3
asg143
Nsg144
VHabakkuk 2:3
p327
sg146
(lp328
sg148
g99
sg149
Nsg150
(lp329
I2
aI3
asg152
Nsg153
g327
sg154
(lp330
sg156
g60
sg157
Nsg158
Nsg159
Nsbag2
(g3
g4
Ntp331
Rp332
(dp333
g8
g11
sg137
Nsg138
(dp334
sg140
Nsg26
g29
sg141
(lp335
I2
aI4
asg143
Nsg144
VHabakkuk 2:4
p336
sg146
(lp337
sg148
g99
sg149
Nsg150
(lp338
I2
aI4
asg152
Nsg153
g336
sg154
(lp339
sg156
g60
sg157
Nsg158
Nsg159
Nsbag2
(g3
g4
Ntp340
Rp341
(dp342
g8
g11
sg137
Nsg138
(dp343
sg140
Nsg26
g29
sg141
(lp344
I2
aI5
asg143
Nsg144
VHabakkuk 2:5
p345
sg146
(lp346
sg148
g99
sg149
Nsg150
(lp347
I2
aI5
asg152
Nsg153
g345
sg154
(lp348
sg156
g60
sg157
Nsg158
Nsg159
Nsbag2
(g3
g4
Ntp349
Rp350
(dp351
g8
g11
sg137
Nsg138
(dp352
sg140
Nsg26
g29
sg141
(lp353
I2
aI6
asg143
Nsg144
VHabakkuk 2:6
p354
sg146
(lp355
sg148
g99
sg149
Nsg150
(lp356
I2
aI6
asg152
Nsg153
g354
sg154
(lp357
sg156
g60
sg157
Nsg158
Nsg159
Nsbag2
(g3
g4
Ntp358
Rp359
(dp360
g8
g11
sg137
Nsg138
(dp361
sg140
Nsg26
g29
sg141
(lp362
I2
aI7
asg143
Nsg144
VHabakkuk 2:7
p363
sg146
(lp364
sg148
g99
sg149
Nsg150
(lp365
I2
aI7
asg152
Nsg153
g363
sg154
(lp366
sg156
g60
sg157
Nsg158
Nsg159
Nsbag2
(g3
g4
Ntp367
Rp368
(dp369
g8
g11
sg137
Nsg138
(dp370
sg140
Nsg26
g29
sg141
(lp371
I2
aI8
asg143
Nsg144
VHabakkuk 2:8
p372
sg146
(lp373
sg148
g99
sg149
Nsg150
(lp374
I2
aI8
asg152
Nsg153
g372
sg154
(lp375
sg156
g60
sg157
Nsg158
Nsg159
Nsbag2
(g3
g4
Ntp376
Rp377
(dp378
g8
g11
sg137
Nsg138
(dp379
sg140
Nsg26
g29
sg141
(lp380
I2
aI9
asg143
Nsg144
VHabakkuk 2:9
p381
sg146
(lp382
sg148
g99
sg149
Nsg150
(lp383
I2
aI9
asg152
Nsg153
g381
sg154
(lp384
sg156
g60
sg157
Nsg158
Nsg159
Nsbag2
(g3
g4
Ntp385
Rp386
(dp387
g8
g11
sg137
Nsg138
(dp388
sg140
Nsg26
g29
sg141
(lp389
I2
aI10
asg143
Nsg144
VHabakkuk 2:10
p390
sg146
(lp391
sg148
g99
sg149
Nsg150
(lp392
I2
aI10
asg152
Nsg153
g390
sg154
(lp393
sg156
g60
sg157
Nsg158
Nsg159
Nsbag2
(g3
g4
Ntp394
Rp395
(dp396
g8
g11
sg137
Nsg138
(dp397
sg140
Nsg26
g29
sg141
(lp398
I2
aI11
asg143
Nsg144
VHabakkuk 2:11
p399
sg146
(lp400
sg148
g99
sg149
Nsg150
(lp401
I2
aI11
asg152
Nsg153
g399
sg154
(lp402
sg156
g60
sg157
Nsg158
Nsg159
Nsbag2
(g3
g4
Ntp403
Rp404
(dp405
g8
g11
sg137
Nsg138
(dp406
sg140
Nsg26
g29
sg141
(lp407
I2
aI12
asg143
Nsg144
VHabakkuk 2:12
p408
sg146
(lp409
sg148
g99
sg149
Nsg150
(lp410
I2
aI12
asg152
Nsg153
g408
sg154
(lp411
sg156
g60
sg157
Nsg158
Nsg159
Nsbag2
(g3
g4
Ntp412
Rp413
(dp414
g8
g11
sg137
Nsg138
(dp415
sg140
Nsg26
g29
sg141
(lp416
I2
aI13
asg143
Nsg144
VHabakkuk 2:13
p417
sg146
(lp418
sg148
g99
sg149
Nsg150
(lp419
I2
aI13
asg152
Nsg153
g417
sg154
(lp420
sg156
g60
sg157
Nsg158
Nsg159
Nsbag2
(g3
g4
Ntp421
Rp422
(dp423
g8
g11
sg137
Nsg138
(dp424
sg140
Nsg26
g29
sg141
(lp425
I2
aI14
asg143
Nsg144
VHabakkuk 2:14
p426
sg146
(lp427
sg148
g99
sg149
Nsg150
(lp428
I2
aI14
asg152
Nsg153
g426
sg154
(lp429
sg156
g60
sg157
Nsg158
Nsg159
Nsbag2
(g3
g4
Ntp430
Rp431
(dp432
g8
g11
sg137
Nsg138
(dp433
sg140
Nsg26
g29
sg141
(lp434
I2
aI15
asg143
Nsg144
VHabakkuk 2:15
p435
sg146
(lp436
sg148
g99
sg149
Nsg150
(lp437
I2
aI15
asg152
Nsg153
g435
sg154
(lp438
sg156
g60
sg157
Nsg158
Nsg159
Nsbag2
(g3
g4
Ntp439
Rp440
(dp441
g8
g11
sg137
Nsg138
(dp442
sg140
Nsg26
g29
sg141
(lp443
I2
aI16
asg143
Nsg144
VHabakkuk 2:16
p444
sg146
(lp445
sg148
g99
sg149
Nsg150
(lp446
I2
aI16
asg152
Nsg153
g444
sg154
(lp447
sg156
g60
sg157
Nsg158
Nsg159
Nsbag2
(g3
g4
Ntp448
Rp449
(dp450
g8
g11
sg137
Nsg138
(dp451
sg140
Nsg26
g29
sg141
(lp452
I2
aI17
asg143
Nsg144
VHabakkuk 2:17
p453
sg146
(lp454
sg148
g99
sg149
Nsg150
(lp455
I2
aI17
asg152
Nsg153
g453
sg154
(lp456
sg156
g60
sg157
Nsg158
Nsg159
Nsbag2
(g3
g4
Ntp457
Rp458
(dp459
g8
g11
sg137
Nsg138
(dp460
sg140
Nsg26
g29
sg141
(lp461
I2
aI18
asg143
Nsg144
VHabakkuk 2:18
p462
sg146
(lp463
sg148
g99
sg149
Nsg150
(lp464
I2
aI18
asg152
Nsg153
g462
sg154
(lp465
sg156
g60
sg157
Nsg158
Nsg159
Nsbag2
(g3
g4
Ntp466
Rp467
(dp468
g8
g11
sg137
Nsg138
(dp469
sg140
Nsg26
g29
sg141
(lp470
I2
aI19
asg143
Nsg144
VHabakkuk 2:19
p471
sg146
(lp472
sg148
g99
sg149
Nsg150
(lp473
I2
aI19
asg152
Nsg153
g471
sg154
(lp474
sg156
g60
sg157
Nsg158
Nsg159
Nsbag2
(g3
g4
Ntp475
Rp476
(dp477
g8
g11
sg137
Nsg138
(dp478
sg140
Nsg26
g29
sg141
(lp479
I2
aI20
asg143
Nsg144
VHabakkuk 2:20
p480
sg146
(lp481
sg148
g99
sg149
Nsg150
(lp482
I2
aI20
asg152
Nsg153
g480
sg154
(lp483
sg156
g60
sg157
Nsg158
Nsg159
Nsbag2
(g3
g4
Ntp484
Rp485
(dp486
g8
g11
sg137
Nsg138
(dp487
sg140
Nsg26
g29
sg141
(lp488
I3
aI1
asg143
Nsg144
VHabakkuk 3:1
p489
sg146
(lp490
sg148
g99
sg149
Nsg150
(lp491
I3
aI1
asg152
Nsg153
g489
sg154
(lp492
sg156
g60
sg157
Nsg158
Nsg159
Nsbag2
(g3
g4
Ntp493
Rp494
(dp495
g8
g11
sg137
Nsg138
(dp496
sg140
Nsg26
g29
sg141
(lp497
I3
aI2
asg143
Nsg144
VHabakkuk 3:2
p498
sg146
(lp499
sg148
g99
sg149
Nsg150
(lp500
I3
aI2
asg152
Nsg153
g498
sg154
(lp501
sg156
g60
sg157
Nsg158
Nsg159
Nsbag2
(g3
g4
Ntp502
Rp503
(dp504
g8
g11
sg137
Nsg138
(dp505
sg140
Nsg26
g29
sg141
(lp506
I3
aI3
asg143
Nsg144
VHabakkuk 3:3
p507
sg146
(lp508
sg148
g99
sg149
Nsg150
(lp509
I3
aI3
asg152
Nsg153
g507
sg154
(lp510
sg156
g60
sg157
Nsg158
Nsg159
Nsbag2
(g3
g4
Ntp511
Rp512
(dp513
g8
g11
sg137
Nsg138
(dp514
sg140
Nsg26
g29
sg141
(lp515
I3
aI4
asg143
Nsg144
VHabakkuk 3:4
p516
sg146
(lp517
sg148
g99
sg149
Nsg150
(lp518
I3
aI4
asg152
Nsg153
g516
sg154
(lp519
sg156
g60
sg157
Nsg158
Nsg159
Nsbag2
(g3
g4
Ntp520
Rp521
(dp522
g8
g11
sg137
Nsg138
(dp523
sg140
Nsg26
g29
sg141
(lp524
I3
aI5
asg143
Nsg144
VHabakkuk 3:5
p525
sg146
(lp526
sg148
g99
sg149
Nsg150
(lp527
I3
aI5
asg152
Nsg153
g525
sg154
(lp528
sg156
g60
sg157
Nsg158
Nsg159
Nsbag2
(g3
g4
Ntp529
Rp530
(dp531
g8
g11
sg137
Nsg138
(dp532
sg140
Nsg26
g29
sg141
(lp533
I3
aI6
asg143
Nsg144
VHabakkuk 3:6
p534
sg146
(lp535
sg148
g99
sg149
Nsg150
(lp536
I3
aI6
asg152
Nsg153
g534
sg154
(lp537
sg156
g60
sg157
Nsg158
Nsg159
Nsbag2
(g3
g4
Ntp538
Rp539
(dp540
g8
g11
sg137
Nsg138
(dp541
sg140
Nsg26
g29
sg141
(lp542
I3
aI7
asg143
Nsg144
VHabakkuk 3:7
p543
sg146
(lp544
sg148
g99
sg149
Nsg150
(lp545
I3
aI7
asg152
Nsg153
g543
sg154
(lp546
sg156
g60
sg157
Nsg158
Nsg159
Nsbag2
(g3
g4
Ntp547
Rp548
(dp549
g8
g11
sg137
Nsg138
(dp550
sg140
Nsg26
g29
sg141
(lp551
I3
aI8
asg143
Nsg144
VHabakkuk 3:8
p552
sg146
(lp553
sg148
g99
sg149
Nsg150
(lp554
I3
aI8
asg152
Nsg153
g552
sg154
(lp555
sg156
g60
sg157
Nsg158
Nsg159
Nsbag2
(g3
g4
Ntp556
Rp557
(dp558
g8
g11
sg137
Nsg138
(dp559
sg140
Nsg26
g29
sg141
(lp560
I3
aI9
asg143
Nsg144
VHabakkuk 3:9
p561
sg146
(lp562
sg148
g99
sg149
Nsg150
(lp563
I3
aI9
asg152
Nsg153
g561
sg154
(lp564
sg156
g60
sg157
Nsg158
Nsg159
Nsbag2
(g3
g4
Ntp565
Rp566
(dp567
g8
g11
sg137
Nsg138
(dp568
sg140
Nsg26
g29
sg141
(lp569
I3
aI10
asg143
Nsg144
VHabakkuk 3:10
p570
sg146
(lp571
sg148
g99
sg149
Nsg150
(lp572
I3
aI10
asg152
Nsg153
g570
sg154
(lp573
sg156
g60
sg157
Nsg158
Nsg159
Nsbag2
(g3
g4
Ntp574
Rp575
(dp576
g8
g11
sg137
Nsg138
(dp577
sg140
Nsg26
g29
sg141
(lp578
I3
aI11
asg143
Nsg144
VHabakkuk 3:11
p579
sg146
(lp580
sg148
g99
sg149
Nsg150
(lp581
I3
aI11
asg152
Nsg153
g579
sg154
(lp582
sg156
g60
sg157
Nsg158
Nsg159
Nsbag2
(g3
g4
Ntp583
Rp584
(dp585
g8
g11
sg137
Nsg138
(dp586
sg140
Nsg26
g29
sg141
(lp587
I3
aI12
asg143
Nsg144
VHabakkuk 3:12
p588
sg146
(lp589
sg148
g99
sg149
Nsg150
(lp590
I3
aI12
asg152
Nsg153
g588
sg154
(lp591
sg156
g60
sg157
Nsg158
Nsg159
Nsbag2
(g3
g4
Ntp592
Rp593
(dp594
g8
g11
sg137
Nsg138
(dp595
sg140
Nsg26
g29
sg141
(lp596
I3
aI13
asg143
Nsg144
VHabakkuk 3:13
p597
sg146
(lp598
sg148
g99
sg149
Nsg150
(lp599
I3
aI13
asg152
Nsg153
g597
sg154
(lp600
sg156
g60
sg157
Nsg158
Nsg159
Nsbag2
(g3
g4
Ntp601
Rp602
(dp603
g8
g11
sg137
Nsg138
(dp604
sg140
Nsg26
g29
sg141
(lp605
I3
aI14
asg143
Nsg144
VHabakkuk 3:14
p606
sg146
(lp607
sg148
g99
sg149
Nsg150
(lp608
I3
aI14
asg152
Nsg153
g606
sg154
(lp609
sg156
g60
sg157
Nsg158
Nsg159
Nsbag2
(g3
g4
Ntp610
Rp611
(dp612
g8
g11
sg137
Nsg138
(dp613
sg140
Nsg26
g29
sg141
(lp614
I3
aI15
asg143
Nsg144
VHabakkuk 3:15
p615
sg146
(lp616
sg148
g99
sg149
Nsg150
(lp617
I3
aI15
asg152
Nsg153
g615
sg154
(lp618
sg156
g60
sg157
Nsg158
Nsg159
Nsbag2
(g3
g4
Ntp619
Rp620
(dp621
g8
g11
sg137
Nsg138
(dp622
sg140
Nsg26
g29
sg141
(lp623
I3
aI16
asg143
Nsg144
VHabakkuk 3:16
p624
sg146
(lp625
sg148
g99
sg149
Nsg150
(lp626
I3
aI16
asg152
Nsg153
g624
sg154
(lp627
sg156
g60
sg157
Nsg158
Nsg159
Nsbag2
(g3
g4
Ntp628
Rp629
(dp630
g8
g11
sg137
Nsg138
(dp631
sg140
Nsg26
g29
sg141
(lp632
I3
aI17
asg143
Nsg144
VHabakkuk 3:17
p633
sg146
(lp634
sg148
g99
sg149
Nsg150
(lp635
I3
aI17
asg152
Nsg153
g633
sg154
(lp636
sg156
g60
sg157
Nsg158
Nsg159
Nsbag2
(g3
g4
Ntp637
Rp638
(dp639
g8
g11
sg137
Nsg138
(dp640
sg140
Nsg26
g29
sg141
(lp641
I3
aI18
asg143
Nsg144
VHabakkuk 3:18
p642
sg146
(lp643
sg148
g99
sg149
Nsg150
(lp644
I3
aI18
asg152
Nsg153
g642
sg154
(lp645
sg156
g60
sg157
Nsg158
Nsg159
Nsbag2
(g3
g4
Ntp646
Rp647
(dp648
g8
g11
sg137
Nsg138
(dp649
sg140
Nsg26
g29
sg141
(lp650
I3
aI19
asg143
Nsg144
VHabakkuk 3:19
p651
sg146
(lp652
sg148
g99
sg149
Nsg150
(lp653
I3
aI19
asg152
Nsg153
g651
sg154
(lp654
sg156
g60
sg157
Nsg158
Nsg159
Nsbatp655
.