((lp0
I0
aI6
aI28
aI53
aI68
aI76
aI116
aI129
aI142
aI161
aI187
aI203
aI228
aI258
aI275
aI290
aI320
aI339
aI353
aI365
aI389
aI413
aI433
aI456
aI475
aI487
aI501
aI521
aI536
aI553
aI570
aI582
aI607
aI624
aI654
aI668
aI680
aI697
aI707
aI726
aI735
aI755
aI771
aI779
aI795
aI810
aI822
aI837
aI845
aI855
aI879
aI888
aI906
aI920
aI945
aI958
aI988
aI1009
aI1020
aI1028
aI1045
aI1053
aI1073
aI1086
aI1102
aI1115
aI1128
aI1145
aI1170
aI1190
aI1210
aI1238
aI1260
aI1275
aI1288
aI1301
aI1318
aI1336
aI1356
aI1370
aI1387
aI1396
aI1407
aI1435
aI1446
aI1453
aI1469
aI1480
aI1489
aI1500
aI1510
aI1519
aI1536
aI1550
aI1565
aI1586
aI1599
aI1625
aI1634
aI1657
aI1669
aI1690
aI1699
aI1707
aI1727
aI1746
aI1760
aI1770
aI1788
aI1811
aI1827
aI1842
aI1860
aI1877
aI1883
aI1906
aI1918
aI1931
aI1942
aI1964
aI1983
aI2012
aI2038
aI2047
aI2061
aI2081
aI2098
aI2116
aI2130
aI2158
aI2170
aI2192
aI2219
aI2227
aI2254
aI2268
aI2292
aI2313
aI2324
aI2341
aI2364
aI2374
aI2389
aI2406
aI2416
aI2422
aI2437
aI2451
aI2457
aI2471
aI2486
aI2503
aI2523
aI2543
aI2555
aI2566
aI2586
aI2595
aI2618
aI2634
aI2654
aI2673
aI2683
aI2701
aI2719
aI2733
aI2752
aI2765
aI2776
aI2795
aI2809
aI2829
aI2843
aI2880
aI2897
aI2914
aI2940
aI2956
aI2980
aI2995
aI3024
aI3040
aI3068
aI3095
aI3122
aI3128
aI3162
aI3191
aI3203
aI3222
aI3237
aI3260
aI3278
aI3299
aI3307
aI3334
aI3348
aI3364
aI3381
aI3414
aI3440
aI3456
aI3475
aI3501
aI3514
aI3523
aI3547
aI3566
aI3581
aI3594
aI3608
aI3618
aI3636
aI3653
aI3662
aI3683
aI3696
aI3711
aI3724
aI3737
aI3753
aI3768
aI3783
aI3812
aI3830
aI3845
aI3863
aI3869
aI3887
aI3907
aI3922
aI3933
aI3943
aI3954
aI3975
aI3991
aI4005
aI4023
aI4052
aI4067
aI4089
aI4114
aI4132
aI4147
aI4168
aI4185
aI4194
aI4208
aI4235
aI4259
aI4285
aI4296
aI4306
aI4320
aI4328
aI4341
aI4352
aI4366
aI4377
aI4398
aI4413
aI4430
aI4444
aI4457
aI4470
aI4495
aI4526
aI4544
aI4562
aI4583
aI4605
aI4622
aI4631
aI4651
aI4668
aI4699
aI4708
aI4724
aI4739
aI4770
aI4776
aI4798
aI4810
aI4832
aI4856
aI4880
aI4886
aI4899
aI4904
aI4923
aI4946
aI4965
aI4976
aI4994
aI5011
aI5022
aI5032
aI5046
aI5074
aI5085
aI5112
aI5126
aI5138
aI5151
aI5167
aI5189
aI5204
aI5221
aI5238
aI5249
aI5273
aI5299
aI5310
aI5327
aI5354
aI5381
aI5394
aI5398
aI5412
aI5423
aI5432
aI5459
aI5475
aI5488
aI5512
aI5524
aI5553
aI5570
aI5590
aI5608
aI5628
aI5637
aI5654
aI5664
aI5679
aI5712
aI5727
aI5738
aI5755
aI5772
aI5788
aI5802
aI5820
aI5834
aI5851
aI5872
aI5888
aI5898
aI5914
aI5930
aI5952
aI5966
aI5987
aI5997
aI6012
aI6034
aI6046
aI6068
aI6077
aI6099
aI6108
aI6129
aI6137
aI6160
aI6171
aI6187
aI6201
aI6210
aI6222
aI6251
aI6271
aI6285
aI6316
aI6332
aI6349
aI6357
aI6383
aI6402
aI6423
aI6436
aI6450
aI6462
aI6473
aI6483
aI6498
aI6509
aI6526
aI6540
aI6564
aI6579
aI6592
aI6618
aI6629
aI6641
aI6655
aI6664
aI6673
aI6693
aI6708
aI6722
aI6737
aI6753
aI6763
aI6774
aI6791
aI6805
aI6819
aI6833
aI6853
aI6868
aI6884
aI6902
aI6927
aI6942
aI6950
aI6963
aI6976
aI6999
aI7013
aI7028
aI7042
aI7073
aI7088
aI7102
aI7113
aI7128
aI7138
aI7154
aI7168
aI7180
aI7194
aI7205
aI7222
aI7240
aI7249
aI7266
aI7288
aI7310
aI7326
aI7341
aI7368
aI7388
aI7401
aI7417
aI7438
aI7481
aI7489
aI7513
aI7530
aI7544
aI7557
aI7571
aI7582
aI7594
aI7619
aI7630
aI7650
aI7669
aI7682
aI7702
aI7714
aI7729
aI7739
aI7768
aI7780
aI7809
aI7830
aI7845
aI7858
aI7871
aI7884
aI7904
aI7915
aI7937
aI7956
aI7972
aI8002
aI8021
aI8037
aI8055
aI8071
aI8087
aI8101
aI8115
aI8142
aI8160
aI8179
aI8196
aI8206
aI8218
aI8226
aI8248
aI8260
aI8275
aI8284
aI8312
aI8326
aI8338
aI8350
aI8363
aI8383
aI8398
aI8411
aI8432
aI8447
aI8478
aI8489
aI8507
aI8537
aI8552
aI8569
aI8583
aI8608
aI8632
aI8650
aI8665
aI8680
aI8704
aI8732
aI8746
aI8758
aI8776
aI8798
aI8828
aI8838
aI8852
aI8867
aI8880
aI8899
aI8911
aI8928
aI8946
aI8973
aI8979
aI9000
aI9011
aI9025
aI9041
aI9062
aI9075
aI9091
aI9101
aI9115
aI9138
aI9155
aI9164
aI9180
aI9195
aI9213
aI9231
aI9245
aI9269
aI9280
aI9296
aI9311
aI9318
aI9334
aI9351
aI9361
aI9373
aI9395
aI9407
aI9416
aI9435
aI9443
aI9463
aI9484
aI9493
aI9511
aI9523
aI9548
aI9569
aI9579
aI9594
aI9616
aI9630
aI9646
aI9663
aI9698
aI9719
aI9737
aI9744
aI9762
aI9775
aI9791
aI9815
aI9823
aI9837
aI9849
aI9873
aI9883
aI9892
aI9907
aI9933
aI9957
aI9972
aI9978
aI9998
aI10016
aI10037
aI10049
aI10067
aI10091
aI10109
aI10122
aI10138
aI10146
aI10160
aI10169
aI10177
aI10193
aI10207
aI10216
aI10231
aI10244
aI10260
aI10277
aI10297
aI10307
aI10319
aI10338
aI10362
aI10376
aI10386
aI10405
aI10441
aI10463
aI10475
aI10493
aI10510
aI10528
aI10555
aI10579
aI10587
aI10615
aI10650
aI10684
aI10706
aI10729
aI10742
aI10775
aI10790
aI10807
aI10830
aI10860
aI10887
aI10898
aI10927
aI10956
aI10983
aI10998
aI11021
aI11037
aI11052
aI11069
aI11081
aI11114
aI11136
aI11153
aI11180
aI11195
aI11215
aI11235
aI11250
aI11258
aI11276
aI11296
aI11324
aI11342
aI11350
aI11364
aI11390
aI11404
aI11418
aI11433
aI11441
aI11462
aI11477
aI11485
aI11497
aI11506
aI11525
aI11550
aI11574
aI11594
aI11612
aI11623
aI11640
aI11648
aI11664
aI11687
aI11696
aI11706
aI11727
aI11740
aI11752
aI11765
aI11785
aI11802
aI11812
aI11830
aI11836
aI11856
aI11872
aI11884
aI11901
aI11927
aI11941
aI11974
aI11984
aI11996
aI12011
aI12038
aI12056
aI12080
aI12094
aI12122
aI12134
aI12145
a(lp1
ccopy_reg
_reconstructor
p2
(csefaria.model.text
Ref
p3
c__builtin__
object
p4
Ntp5
Rp6
(dp7
S'index_node'
p8
g2
(csefaria.model.schema
JaggedArrayNode
p9
g4
Ntp10
Rp11
(dp12
S'_address'
p13
(lp14
VII Kings
p15
asS'_full_titles'
p16
(dp17
sVnodeType
p18
VJaggedArrayNode
p19
sS'parent'
p20
NsVaddressTypes
p21
(lp22
VInteger
p23
aVInteger
p24
asS'default'
p25
I00
sS'index'
p26
g2
(csefaria.model.text
Index
p27
g4
Ntp28
Rp29
(dp30
S'_id'
p31
g2
(cbson.objectid
ObjectId
p32
g4
Ntp33
Rp34
S'NJ\xb8l\xed\xba\xb4X3\x00\x00\n'
p35
bsS'pkeys_orig_values'
p36
(dp37
S'title'
p38
VII Kings
p39
ssS'pubDate'
p40
V1488
p41
sS'compDate'
p42
V-500
p43
sS'pubPlace'
p44
VSoncino
p45
sS'compPlace'
p46
VJudea/Israel
p47
sS'enDesc'
p48
VThe fourth book making up the Neviim Rishonim (Early Prophets) - Melakhim (Kings) is divided into two parts. It presents the history of ancient Israel and Judah from the death of David to the release of his successor Jeconiah from imprisonment in Babylon, a period of some 400 years. David dies and Solomon comes to the throne. At the beginning of his reign he assumes God's promises to David and brings splendour to Israel and peace and prosperity to his people. The centrepiece of Solomon's reign is the building of the First Temple. As a consequence of Solomon's failure to stamp out the worship of other gods, the kingdom of David is split in two. His son Rehoboam becomes ruler of the southern kingdom of Judah. The northern tribes appoint Jeroboam as king of Israel. However these kings are uniformly bad leading God to bring the Assyrians to destroy and exile the northern tribes. The Kingdom of Judah endures with King Hezekiah instituting far reaching religious reform, centralising sacrifice at the temple in Jerusalem and destroying the images of other gods. However, these reforms do not last beyond his reign and eventually God brings the Babylonians to destroy the southern kingdom. The book concludes with the exile of the ruling class, prophets and priest. In the final verses Jeconiah is released from prison and honoured by the king of Babylon.
p49
sS'order'
p50
(lp51
I11
aI6
asS'struct_objs'
p52
(dp53
sS'nodes'
p54
g11
sS'errorMargin'
p55
V100
p56
sS'_title'
p57
g39
sS'categories'
p58
(lp59
VTanakh
p60
aVProphets
p61
asS'schema'
p62
(dp63
g18
g19
sg21
g22
sVlengths
p64
(lp65
I25
aI719
asVdepth
p66
I2
sVtitles
p67
(lp68
(dp69
Vlang
p70
Ven
p71
sVtext
p72
VMelachim Bet
p73
sa(dp74
Vlang
p75
Ven
p76
sVtext
p77
VMelachim II
p78
sa(dp79
Vlang
p80
Ven
p81
sVtext
p82
VSecond Kings
p83
sa(dp84
Vlang
p85
Ven
p86
sVtext
p87
V2 Kings
p88
sa(dp89
Vlang
p90
Ven
p91
sVtext
p92
VII Melachim
p93
sa(dp94
Vlang
p95
Ven
p96
sVtext
p97
VKings II
p98
sa(dp99
Vlang
p100
Ven
p101
sVtext
p102
VII Melakhim
p103
sa(dp104
Vlang
p105
Vhe
p106
sVtext
p107
V\u05de\u05dc\u05db\u05d9\u05dd \u05d1
p108
sVprimary
p109
I01
sa(dp110
Vlang
p111
Vhe
p112
sVtext
p113
V\u05de"\u05d1
p114
sa(dp115
Vlang
p116
Vhe
p117
sVtext
p118
V\u05de\u05f4\u05d1
p119
sa(dp120
Vlang
p121
Vhe
p122
sVtext
p123
V\u05de\u05dc\u05db\u05d9\u05dd \u05d1\u05f3
p124
sa(dp125
Vlang
p126
Vhe
p127
sVtext
p128
V\u05de\u05dc\u05db\u05d9\u05dd \u05d1'
p129
sa(dp130
Vlang
p131
Ven
p132
sVtext
p133
VII Kings
p134
sVprimary
p135
I01
sasVkey
p136
g15
sVsectionNames
p137
(lp138
VChapter
p139
aVVerse
p140
assbsS'_primary_title'
p141
(dp142
sS'title_group'
p143
g2
(csefaria.model.schema
TitleGroup
p144
g4
Ntp145
Rp146
(dp147
g141
(dp148
S'en'
p149
g134
ssS'titles'
p150
g68
sbsS'_addressTypes'
p151
(lp152
g2
(csefaria.model.schema
AddressInteger
p153
g4
Ntp154
Rp155
(dp156
S'length'
p157
I25
sg50
I0
sbag2
(g153
g4
Ntp158
Rp159
(dp160
g157
Nsg50
I1
sbasS'sharedTitle'
p161
Nsg64
g65
sg66
I2
sS'_full_title'
p162
(dp163
g149
g134
ssS'key'
p164
g15
sS'checkFirst'
p165
NsS'_regexes'
p166
(dp167
sS'_leaf_nodes'
p168
(lp169
sg137
g138
sS'children'
p170
(lp171
sbsS'_range_index'
p172
NsS'_context'
p173
(dp174
sS'_padded'
p175
Nsg26
g29
sS'sections'
p176
(lp177
I1
aI1
asS'_first_spanned_ref'
p178
NsS'tref'
p179
VII Kings 1:1
p180
sS'_spanned_refs'
p181
(lp182
sS'book'
p183
g134
sS'_range_depth'
p184
NsS'toSections'
p185
(lp186
I1
aI1
asS'_url'
p187
NsS'_normal'
p188
g180
sS'_ranged_refs'
p189
(lp190
sS'type'
p191
g60
sS'_prev'
p192
NsS'_he_normal'
p193
NsS'_next'
p194
Nsbag2
(g3
g4
Ntp195
Rp196
(dp197
g8
g11
sg172
Nsg173
(dp198
sg175
Nsg26
g29
sg176
(lp199
I1
aI2
asg178
Nsg179
VII Kings 1:2
p200
sg181
(lp201
sg183
g134
sg184
Nsg185
(lp202
I1
aI2
asg187
Nsg188
g200
sg189
(lp203
sg191
g60
sg192
Nsg193
Nsg194
Nsbag2
(g3
g4
Ntp204
Rp205
(dp206
g8
g11
sg172
Nsg173
(dp207
sg175
Nsg26
g29
sg176
(lp208
I1
aI3
asg178
Nsg179
VII Kings 1:3
p209
sg181
(lp210
sg183
g134
sg184
Nsg185
(lp211
I1
aI3
asg187
Nsg188
g209
sg189
(lp212
sg191
g60
sg192
Nsg193
Nsg194
Nsbag2
(g3
g4
Ntp213
Rp214
(dp215
g8
g11
sg172
Nsg173
(dp216
sg175
Nsg26
g29
sg176
(lp217
I1
aI4
asg178
Nsg179
VII Kings 1:4
p218
sg181
(lp219
sg183
g134
sg184
Nsg185
(lp220
I1
aI4
asg187
Nsg188
g218
sg189
(lp221
sg191
g60
sg192
Nsg193
Nsg194
Nsbag2
(g3
g4
Ntp222
Rp223
(dp224
g8
g11
sg172
Nsg173
(dp225
sg175
Nsg26
g29
sg176
(lp226
I1
aI5
asg178
Nsg179
VII Kings 1:5
p227
sg181
(lp228
sg183
g134
sg184
Nsg185
(lp229
I1
aI5
asg187
Nsg188
g227
sg189
(lp230
sg191
g60
sg192
Nsg193
Nsg194
Nsbag2
(g3
g4
Ntp231
Rp232
(dp233
g8
g11
sg172
Nsg173
(dp234
sg175
Nsg26
g29
sg176
(lp235
I1
aI6
asg178
Nsg179
VII Kings 1:6
p236
sg181
(lp237
sg183
g134
sg184
Nsg185
(lp238
I1
aI6
asg187
Nsg188
g236
sg189
(lp239
sg191
g60
sg192
Nsg193
Nsg194
Nsbag2
(g3
g4
Ntp240
Rp241
(dp242
g8
g11
sg172
Nsg173
(dp243
sg175
Nsg26
g29
sg176
(lp244
I1
aI7
asg178
Nsg179
VII Kings 1:7
p245
sg181
(lp246
sg183
g134
sg184
Nsg185
(lp247
I1
aI7
asg187
Nsg188
g245
sg189
(lp248
sg191
g60
sg192
Nsg193
Nsg194
Nsbag2
(g3
g4
Ntp249
Rp250
(dp251
g8
g11
sg172
Nsg173
(dp252
sg175
Nsg26
g29
sg176
(lp253
I1
aI8
asg178
Nsg179
VII Kings 1:8
p254
sg181
(lp255
sg183
g134
sg184
Nsg185
(lp256
I1
aI8
asg187
Nsg188
g254
sg189
(lp257
sg191
g60
sg192
Nsg193
Nsg194
Nsbag2
(g3
g4
Ntp258
Rp259
(dp260
g8
g11
sg172
Nsg173
(dp261
sg175
Nsg26
g29
sg176
(lp262
I1
aI9
asg178
Nsg179
VII Kings 1:9
p263
sg181
(lp264
sg183
g134
sg184
Nsg185
(lp265
I1
aI9
asg187
Nsg188
g263
sg189
(lp266
sg191
g60
sg192
Nsg193
Nsg194
Nsbag2
(g3
g4
Ntp267
Rp268
(dp269
g8
g11
sg172
Nsg173
(dp270
sg175
Nsg26
g29
sg176
(lp271
I1
aI10
asg178
Nsg179
VII Kings 1:10
p272
sg181
(lp273
sg183
g134
sg184
Nsg185
(lp274
I1
aI10
asg187
Nsg188
g272
sg189
(lp275
sg191
g60
sg192
Nsg193
Nsg194
Nsbag2
(g3
g4
Ntp276
Rp277
(dp278
g8
g11
sg172
Nsg173
(dp279
sg175
Nsg26
g29
sg176
(lp280
I1
aI11
asg178
Nsg179
VII Kings 1:11
p281
sg181
(lp282
sg183
g134
sg184
Nsg185
(lp283
I1
aI11
asg187
Nsg188
g281
sg189
(lp284
sg191
g60
sg192
Nsg193
Nsg194
Nsbag2
(g3
g4
Ntp285
Rp286
(dp287
g8
g11
sg172
Nsg173
(dp288
sg175
Nsg26
g29
sg176
(lp289
I1
aI12
asg178
Nsg179
VII Kings 1:12
p290
sg181
(lp291
sg183
g134
sg184
Nsg185
(lp292
I1
aI12
asg187
Nsg188
g290
sg189
(lp293
sg191
g60
sg192
Nsg193
Nsg194
Nsbag2
(g3
g4
Ntp294
Rp295
(dp296
g8
g11
sg172
Nsg173
(dp297
sg175
Nsg26
g29
sg176
(lp298
I1
aI13
asg178
Nsg179
VII Kings 1:13
p299
sg181
(lp300
sg183
g134
sg184
Nsg185
(lp301
I1
aI13
asg187
Nsg188
g299
sg189
(lp302
sg191
g60
sg192
Nsg193
Nsg194
Nsbag2
(g3
g4
Ntp303
Rp304
(dp305
g8
g11
sg172
Nsg173
(dp306
sg175
Nsg26
g29
sg176
(lp307
I1
aI14
asg178
Nsg179
VII Kings 1:14
p308
sg181
(lp309
sg183
g134
sg184
Nsg185
(lp310
I1
aI14
asg187
Nsg188
g308
sg189
(lp311
sg191
g60
sg192
Nsg193
Nsg194
Nsbag2
(g3
g4
Ntp312
Rp313
(dp314
g8
g11
sg172
Nsg173
(dp315
sg175
Nsg26
g29
sg176
(lp316
I1
aI15
asg178
Nsg179
VII Kings 1:15
p317
sg181
(lp318
sg183
g134
sg184
Nsg185
(lp319
I1
aI15
asg187
Nsg188
g317
sg189
(lp320
sg191
g60
sg192
Nsg193
Nsg194
Nsbag2
(g3
g4
Ntp321
Rp322
(dp323
g8
g11
sg172
Nsg173
(dp324
sg175
Nsg26
g29
sg176
(lp325
I1
aI16
asg178
Nsg179
VII Kings 1:16
p326
sg181
(lp327
sg183
g134
sg184
Nsg185
(lp328
I1
aI16
asg187
Nsg188
g326
sg189
(lp329
sg191
g60
sg192
Nsg193
Nsg194
Nsbag2
(g3
g4
Ntp330
Rp331
(dp332
g8
g11
sg172
Nsg173
(dp333
sg175
Nsg26
g29
sg176
(lp334
I1
aI17
asg178
Nsg179
VII Kings 1:17
p335
sg181
(lp336
sg183
g134
sg184
Nsg185
(lp337
I1
aI17
asg187
Nsg188
g335
sg189
(lp338
sg191
g60
sg192
Nsg193
Nsg194
Nsbag2
(g3
g4
Ntp339
Rp340
(dp341
g8
g11
sg172
Nsg173
(dp342
sg175
Nsg26
g29
sg176
(lp343
I1
aI18
asg178
Nsg179
VII Kings 1:18
p344
sg181
(lp345
sg183
g134
sg184
Nsg185
(lp346
I1
aI18
asg187
Nsg188
g344
sg189
(lp347
sg191
g60
sg192
Nsg193
Nsg194
Nsbag2
(g3
g4
Ntp348
Rp349
(dp350
g8
g11
sg172
Nsg173
(dp351
sg175
Nsg26
g29
sg176
(lp352
I2
aI1
asg178
Nsg179
VII Kings 2:1
p353
sg181
(lp354
sg183
g134
sg184
Nsg185
(lp355
I2
aI1
asg187
Nsg188
g353
sg189
(lp356
sg191
g60
sg192
Nsg193
Nsg194
Nsbag2
(g3
g4
Ntp357
Rp358
(dp359
g8
g11
sg172
Nsg173
(dp360
sg175
Nsg26
g29
sg176
(lp361
I2
aI2
asg178
Nsg179
VII Kings 2:2
p362
sg181
(lp363
sg183
g134
sg184
Nsg185
(lp364
I2
aI2
asg187
Nsg188
g362
sg189
(lp365
sg191
g60
sg192
Nsg193
Nsg194
Nsbag2
(g3
g4
Ntp366
Rp367
(dp368
g8
g11
sg172
Nsg173
(dp369
sg175
Nsg26
g29
sg176
(lp370
I2
aI3
asg178
Nsg179
VII Kings 2:3
p371
sg181
(lp372
sg183
g134
sg184
Nsg185
(lp373
I2
aI3
asg187
Nsg188
g371
sg189
(lp374
sg191
g60
sg192
Nsg193
Nsg194
Nsbag2
(g3
g4
Ntp375
Rp376
(dp377
g8
g11
sg172
Nsg173
(dp378
sg175
Nsg26
g29
sg176
(lp379
I2
aI4
asg178
Nsg179
VII Kings 2:4
p380
sg181
(lp381
sg183
g134
sg184
Nsg185
(lp382
I2
aI4
asg187
Nsg188
g380
sg189
(lp383
sg191
g60
sg192
Nsg193
Nsg194
Nsbag2
(g3
g4
Ntp384
Rp385
(dp386
g8
g11
sg172
Nsg173
(dp387
sg175
Nsg26
g29
sg176
(lp388
I2
aI5
asg178
Nsg179
VII Kings 2:5
p389
sg181
(lp390
sg183
g134
sg184
Nsg185
(lp391
I2
aI5
asg187
Nsg188
g389
sg189
(lp392
sg191
g60
sg192
Nsg193
Nsg194
Nsbag2
(g3
g4
Ntp393
Rp394
(dp395
g8
g11
sg172
Nsg173
(dp396
sg175
Nsg26
g29
sg176
(lp397
I2
aI6
asg178
Nsg179
VII Kings 2:6
p398
sg181
(lp399
sg183
g134
sg184
Nsg185
(lp400
I2
aI6
asg187
Nsg188
g398
sg189
(lp401
sg191
g60
sg192
Nsg193
Nsg194
Nsbag2
(g3
g4
Ntp402
Rp403
(dp404
g8
g11
sg172
Nsg173
(dp405
sg175
Nsg26
g29
sg176
(lp406
I2
aI7
asg178
Nsg179
VII Kings 2:7
p407
sg181
(lp408
sg183
g134
sg184
Nsg185
(lp409
I2
aI7
asg187
Nsg188
g407
sg189
(lp410
sg191
g60
sg192
Nsg193
Nsg194
Nsbag2
(g3
g4
Ntp411
Rp412
(dp413
g8
g11
sg172
Nsg173
(dp414
sg175
Nsg26
g29
sg176
(lp415
I2
aI8
asg178
Nsg179
VII Kings 2:8
p416
sg181
(lp417
sg183
g134
sg184
Nsg185
(lp418
I2
aI8
asg187
Nsg188
g416
sg189
(lp419
sg191
g60
sg192
Nsg193
Nsg194
Nsbag2
(g3
g4
Ntp420
Rp421
(dp422
g8
g11
sg172
Nsg173
(dp423
sg175
Nsg26
g29
sg176
(lp424
I2
aI9
asg178
Nsg179
VII Kings 2:9
p425
sg181
(lp426
sg183
g134
sg184
Nsg185
(lp427
I2
aI9
asg187
Nsg188
g425
sg189
(lp428
sg191
g60
sg192
Nsg193
Nsg194
Nsbag2
(g3
g4
Ntp429
Rp430
(dp431
g8
g11
sg172
Nsg173
(dp432
sg175
Nsg26
g29
sg176
(lp433
I2
aI10
asg178
Nsg179
VII Kings 2:10
p434
sg181
(lp435
sg183
g134
sg184
Nsg185
(lp436
I2
aI10
asg187
Nsg188
g434
sg189
(lp437
sg191
g60
sg192
Nsg193
Nsg194
Nsbag2
(g3
g4
Ntp438
Rp439
(dp440
g8
g11
sg172
Nsg173
(dp441
sg175
Nsg26
g29
sg176
(lp442
I2
aI11
asg178
Nsg179
VII Kings 2:11
p443
sg181
(lp444
sg183
g134
sg184
Nsg185
(lp445
I2
aI11
asg187
Nsg188
g443
sg189
(lp446
sg191
g60
sg192
Nsg193
Nsg194
Nsbag2
(g3
g4
Ntp447
Rp448
(dp449
g8
g11
sg172
Nsg173
(dp450
sg175
Nsg26
g29
sg176
(lp451
I2
aI12
asg178
Nsg179
VII Kings 2:12
p452
sg181
(lp453
sg183
g134
sg184
Nsg185
(lp454
I2
aI12
asg187
Nsg188
g452
sg189
(lp455
sg191
g60
sg192
Nsg193
Nsg194
Nsbag2
(g3
g4
Ntp456
Rp457
(dp458
g8
g11
sg172
Nsg173
(dp459
sg175
Nsg26
g29
sg176
(lp460
I2
aI13
asg178
Nsg179
VII Kings 2:13
p461
sg181
(lp462
sg183
g134
sg184
Nsg185
(lp463
I2
aI13
asg187
Nsg188
g461
sg189
(lp464
sg191
g60
sg192
Nsg193
Nsg194
Nsbag2
(g3
g4
Ntp465
Rp466
(dp467
g8
g11
sg172
Nsg173
(dp468
sg175
Nsg26
g29
sg176
(lp469
I2
aI14
asg178
Nsg179
VII Kings 2:14
p470
sg181
(lp471
sg183
g134
sg184
Nsg185
(lp472
I2
aI14
asg187
Nsg188
g470
sg189
(lp473
sg191
g60
sg192
Nsg193
Nsg194
Nsbag2
(g3
g4
Ntp474
Rp475
(dp476
g8
g11
sg172
Nsg173
(dp477
sg175
Nsg26
g29
sg176
(lp478
I2
aI15
asg178
Nsg179
VII Kings 2:15
p479
sg181
(lp480
sg183
g134
sg184
Nsg185
(lp481
I2
aI15
asg187
Nsg188
g479
sg189
(lp482
sg191
g60
sg192
Nsg193
Nsg194
Nsbag2
(g3
g4
Ntp483
Rp484
(dp485
g8
g11
sg172
Nsg173
(dp486
sg175
Nsg26
g29
sg176
(lp487
I2
aI16
asg178
Nsg179
VII Kings 2:16
p488
sg181
(lp489
sg183
g134
sg184
Nsg185
(lp490
I2
aI16
asg187
Nsg188
g488
sg189
(lp491
sg191
g60
sg192
Nsg193
Nsg194
Nsbag2
(g3
g4
Ntp492
Rp493
(dp494
g8
g11
sg172
Nsg173
(dp495
sg175
Nsg26
g29
sg176
(lp496
I2
aI17
asg178
Nsg179
VII Kings 2:17
p497
sg181
(lp498
sg183
g134
sg184
Nsg185
(lp499
I2
aI17
asg187
Nsg188
g497
sg189
(lp500
sg191
g60
sg192
Nsg193
Nsg194
Nsbag2
(g3
g4
Ntp501
Rp502
(dp503
g8
g11
sg172
Nsg173
(dp504
sg175
Nsg26
g29
sg176
(lp505
I2
aI18
asg178
Nsg179
VII Kings 2:18
p506
sg181
(lp507
sg183
g134
sg184
Nsg185
(lp508
I2
aI18
asg187
Nsg188
g506
sg189
(lp509
sg191
g60
sg192
Nsg193
Nsg194
Nsbag2
(g3
g4
Ntp510
Rp511
(dp512
g8
g11
sg172
Nsg173
(dp513
sg175
Nsg26
g29
sg176
(lp514
I2
aI19
asg178
Nsg179
VII Kings 2:19
p515
sg181
(lp516
sg183
g134
sg184
Nsg185
(lp517
I2
aI19
asg187
Nsg188
g515
sg189
(lp518
sg191
g60
sg192
Nsg193
Nsg194
Nsbag2
(g3
g4
Ntp519
Rp520
(dp521
g8
g11
sg172
Nsg173
(dp522
sg175
Nsg26
g29
sg176
(lp523
I2
aI20
asg178
Nsg179
VII Kings 2:20
p524
sg181
(lp525
sg183
g134
sg184
Nsg185
(lp526
I2
aI20
asg187
Nsg188
g524
sg189
(lp527
sg191
g60
sg192
Nsg193
Nsg194
Nsbag2
(g3
g4
Ntp528
Rp529
(dp530
g8
g11
sg172
Nsg173
(dp531
sg175
Nsg26
g29
sg176
(lp532
I2
aI21
asg178
Nsg179
VII Kings 2:21
p533
sg181
(lp534
sg183
g134
sg184
Nsg185
(lp535
I2
aI21
asg187
Nsg188
g533
sg189
(lp536
sg191
g60
sg192
Nsg193
Nsg194
Nsbag2
(g3
g4
Ntp537
Rp538
(dp539
g8
g11
sg172
Nsg173
(dp540
sg175
Nsg26
g29
sg176
(lp541
I2
aI22
asg178
Nsg179
VII Kings 2:22
p542
sg181
(lp543
sg183
g134
sg184
Nsg185
(lp544
I2
aI22
asg187
Nsg188
g542
sg189
(lp545
sg191
g60
sg192
Nsg193
Nsg194
Nsbag2
(g3
g4
Ntp546
Rp547
(dp548
g8
g11
sg172
Nsg173
(dp549
sg175
Nsg26
g29
sg176
(lp550
I2
aI23
asg178
Nsg179
VII Kings 2:23
p551
sg181
(lp552
sg183
g134
sg184
Nsg185
(lp553
I2
aI23
asg187
Nsg188
g551
sg189
(lp554
sg191
g60
sg192
Nsg193
Nsg194
Nsbag2
(g3
g4
Ntp555
Rp556
(dp557
g8
g11
sg172
Nsg173
(dp558
sg175
Nsg26
g29
sg176
(lp559
I2
aI24
asg178
Nsg179
VII Kings 2:24
p560
sg181
(lp561
sg183
g134
sg184
Nsg185
(lp562
I2
aI24
asg187
Nsg188
g560
sg189
(lp563
sg191
g60
sg192
Nsg193
Nsg194
Nsbag2
(g3
g4
Ntp564
Rp565
(dp566
g8
g11
sg172
Nsg173
(dp567
sg175
Nsg26
g29
sg176
(lp568
I2
aI25
asg178
Nsg179
VII Kings 2:25
p569
sg181
(lp570
sg183
g134
sg184
Nsg185
(lp571
I2
aI25
asg187
Nsg188
g569
sg189
(lp572
sg191
g60
sg192
Nsg193
Nsg194
Nsbag2
(g3
g4
Ntp573
Rp574
(dp575
g8
g11
sg172
Nsg173
(dp576
sg175
Nsg26
g29
sg176
(lp577
I3
aI1
asg178
Nsg179
VII Kings 3:1
p578
sg181
(lp579
sg183
g134
sg184
Nsg185
(lp580
I3
aI1
asg187
Nsg188
g578
sg189
(lp581
sg191
g60
sg192
Nsg193
Nsg194
Nsbag2
(g3
g4
Ntp582
Rp583
(dp584
g8
g11
sg172
Nsg173
(dp585
sg175
Nsg26
g29
sg176
(lp586
I3
aI2
asg178
Nsg179
VII Kings 3:2
p587
sg181
(lp588
sg183
g134
sg184
Nsg185
(lp589
I3
aI2
asg187
Nsg188
g587
sg189
(lp590
sg191
g60
sg192
Nsg193
Nsg194
Nsbag2
(g3
g4
Ntp591
Rp592
(dp593
g8
g11
sg172
Nsg173
(dp594
sg175
Nsg26
g29
sg176
(lp595
I3
aI3
asg178
Nsg179
VII Kings 3:3
p596
sg181
(lp597
sg183
g134
sg184
Nsg185
(lp598
I3
aI3
asg187
Nsg188
g596
sg189
(lp599
sg191
g60
sg192
Nsg193
Nsg194
Nsbag2
(g3
g4
Ntp600
Rp601
(dp602
g8
g11
sg172
Nsg173
(dp603
sg175
Nsg26
g29
sg176
(lp604
I3
aI4
asg178
Nsg179
VII Kings 3:4
p605
sg181
(lp606
sg183
g134
sg184
Nsg185
(lp607
I3
aI4
asg187
Nsg188
g605
sg189
(lp608
sg191
g60
sg192
Nsg193
Nsg194
Nsbag2
(g3
g4
Ntp609
Rp610
(dp611
g8
g11
sg172
Nsg173
(dp612
sg175
Nsg26
g29
sg176
(lp613
I3
aI5
asg178
Nsg179
VII Kings 3:5
p614
sg181
(lp615
sg183
g134
sg184
Nsg185
(lp616
I3
aI5
asg187
Nsg188
g614
sg189
(lp617
sg191
g60
sg192
Nsg193
Nsg194
Nsbag2
(g3
g4
Ntp618
Rp619
(dp620
g8
g11
sg172
Nsg173
(dp621
sg175
Nsg26
g29
sg176
(lp622
I3
aI6
asg178
Nsg179
VII Kings 3:6
p623
sg181
(lp624
sg183
g134
sg184
Nsg185
(lp625
I3
aI6
asg187
Nsg188
g623
sg189
(lp626
sg191
g60
sg192
Nsg193
Nsg194
Nsbag2
(g3
g4
Ntp627
Rp628
(dp629
g8
g11
sg172
Nsg173
(dp630
sg175
Nsg26
g29
sg176
(lp631
I3
aI7
asg178
Nsg179
VII Kings 3:7
p632
sg181
(lp633
sg183
g134
sg184
Nsg185
(lp634
I3
aI7
asg187
Nsg188
g632
sg189
(lp635
sg191
g60
sg192
Nsg193
Nsg194
Nsbag2
(g3
g4
Ntp636
Rp637
(dp638
g8
g11
sg172
Nsg173
(dp639
sg175
Nsg26
g29
sg176
(lp640
I3
aI8
asg178
Nsg179
VII Kings 3:8
p641
sg181
(lp642
sg183
g134
sg184
Nsg185
(lp643
I3
aI8
asg187
Nsg188
g641
sg189
(lp644
sg191
g60
sg192
Nsg193
Nsg194
Nsbag2
(g3
g4
Ntp645
Rp646
(dp647
g8
g11
sg172
Nsg173
(dp648
sg175
Nsg26
g29
sg176
(lp649
I3
aI9
asg178
Nsg179
VII Kings 3:9
p650
sg181
(lp651
sg183
g134
sg184
Nsg185
(lp652
I3
aI9
asg187
Nsg188
g650
sg189
(lp653
sg191
g60
sg192
Nsg193
Nsg194
Nsbag2
(g3
g4
Ntp654
Rp655
(dp656
g8
g11
sg172
Nsg173
(dp657
sg175
Nsg26
g29
sg176
(lp658
I3
aI10
asg178
Nsg179
VII Kings 3:10
p659
sg181
(lp660
sg183
g134
sg184
Nsg185
(lp661
I3
aI10
asg187
Nsg188
g659
sg189
(lp662
sg191
g60
sg192
Nsg193
Nsg194
Nsbag2
(g3
g4
Ntp663
Rp664
(dp665
g8
g11
sg172
Nsg173
(dp666
sg175
Nsg26
g29
sg176
(lp667
I3
aI11
asg178
Nsg179
VII Kings 3:11
p668
sg181
(lp669
sg183
g134
sg184
Nsg185
(lp670
I3
aI11
asg187
Nsg188
g668
sg189
(lp671
sg191
g60
sg192
Nsg193
Nsg194
Nsbag2
(g3
g4
Ntp672
Rp673
(dp674
g8
g11
sg172
Nsg173
(dp675
sg175
Nsg26
g29
sg176
(lp676
I3
aI12
asg178
Nsg179
VII Kings 3:12
p677
sg181
(lp678
sg183
g134
sg184
Nsg185
(lp679
I3
aI12
asg187
Nsg188
g677
sg189
(lp680
sg191
g60
sg192
Nsg193
Nsg194
Nsbag2
(g3
g4
Ntp681
Rp682
(dp683
g8
g11
sg172
Nsg173
(dp684
sg175
Nsg26
g29
sg176
(lp685
I3
aI13
asg178
Nsg179
VII Kings 3:13
p686
sg181
(lp687
sg183
g134
sg184
Nsg185
(lp688
I3
aI13
asg187
Nsg188
g686
sg189
(lp689
sg191
g60
sg192
Nsg193
Nsg194
Nsbag2
(g3
g4
Ntp690
Rp691
(dp692
g8
g11
sg172
Nsg173
(dp693
sg175
Nsg26
g29
sg176
(lp694
I3
aI14
asg178
Nsg179
VII Kings 3:14
p695
sg181
(lp696
sg183
g134
sg184
Nsg185
(lp697
I3
aI14
asg187
Nsg188
g695
sg189
(lp698
sg191
g60
sg192
Nsg193
Nsg194
Nsbag2
(g3
g4
Ntp699
Rp700
(dp701
g8
g11
sg172
Nsg173
(dp702
sg175
Nsg26
g29
sg176
(lp703
I3
aI15
asg178
Nsg179
VII Kings 3:15
p704
sg181
(lp705
sg183
g134
sg184
Nsg185
(lp706
I3
aI15
asg187
Nsg188
g704
sg189
(lp707
sg191
g60
sg192
Nsg193
Nsg194
Nsbag2
(g3
g4
Ntp708
Rp709
(dp710
g8
g11
sg172
Nsg173
(dp711
sg175
Nsg26
g29
sg176
(lp712
I3
aI16
asg178
Nsg179
VII Kings 3:16
p713
sg181
(lp714
sg183
g134
sg184
Nsg185
(lp715
I3
aI16
asg187
Nsg188
g713
sg189
(lp716
sg191
g60
sg192
Nsg193
Nsg194
Nsbag2
(g3
g4
Ntp717
Rp718
(dp719
g8
g11
sg172
Nsg173
(dp720
sg175
Nsg26
g29
sg176
(lp721
I3
aI17
asg178
Nsg179
VII Kings 3:17
p722
sg181
(lp723
sg183
g134
sg184
Nsg185
(lp724
I3
aI17
asg187
Nsg188
g722
sg189
(lp725
sg191
g60
sg192
Nsg193
Nsg194
Nsbag2
(g3
g4
Ntp726
Rp727
(dp728
g8
g11
sg172
Nsg173
(dp729
sg175
Nsg26
g29
sg176
(lp730
I3
aI18
asg178
Nsg179
VII Kings 3:18
p731
sg181
(lp732
sg183
g134
sg184
Nsg185
(lp733
I3
aI18
asg187
Nsg188
g731
sg189
(lp734
sg191
g60
sg192
Nsg193
Nsg194
Nsbag2
(g3
g4
Ntp735
Rp736
(dp737
g8
g11
sg172
Nsg173
(dp738
sg175
Nsg26
g29
sg176
(lp739
I3
aI19
asg178
Nsg179
VII Kings 3:19
p740
sg181
(lp741
sg183
g134
sg184
Nsg185
(lp742
I3
aI19
asg187
Nsg188
g740
sg189
(lp743
sg191
g60
sg192
Nsg193
Nsg194
Nsbag2
(g3
g4
Ntp744
Rp745
(dp746
g8
g11
sg172
Nsg173
(dp747
sg175
Nsg26
g29
sg176
(lp748
I3
aI20
asg178
Nsg179
VII Kings 3:20
p749
sg181
(lp750
sg183
g134
sg184
Nsg185
(lp751
I3
aI20
asg187
Nsg188
g749
sg189
(lp752
sg191
g60
sg192
Nsg193
Nsg194
Nsbag2
(g3
g4
Ntp753
Rp754
(dp755
g8
g11
sg172
Nsg173
(dp756
sg175
Nsg26
g29
sg176
(lp757
I3
aI21
asg178
Nsg179
VII Kings 3:21
p758
sg181
(lp759
sg183
g134
sg184
Nsg185
(lp760
I3
aI21
asg187
Nsg188
g758
sg189
(lp761
sg191
g60
sg192
Nsg193
Nsg194
Nsbag2
(g3
g4
Ntp762
Rp763
(dp764
g8
g11
sg172
Nsg173
(dp765
sg175
Nsg26
g29
sg176
(lp766
I3
aI22
asg178
Nsg179
VII Kings 3:22
p767
sg181
(lp768
sg183
g134
sg184
Nsg185
(lp769
I3
aI22
asg187
Nsg188
g767
sg189
(lp770
sg191
g60
sg192
Nsg193
Nsg194
Nsbag2
(g3
g4
Ntp771
Rp772
(dp773
g8
g11
sg172
Nsg173
(dp774
sg175
Nsg26
g29
sg176
(lp775
I3
aI23
asg178
Nsg179
VII Kings 3:23
p776
sg181
(lp777
sg183
g134
sg184
Nsg185
(lp778
I3
aI23
asg187
Nsg188
g776
sg189
(lp779
sg191
g60
sg192
Nsg193
Nsg194
Nsbag2
(g3
g4
Ntp780
Rp781
(dp782
g8
g11
sg172
Nsg173
(dp783
sg175
Nsg26
g29
sg176
(lp784
I3
aI24
asg178
Nsg179
VII Kings 3:24
p785
sg181
(lp786
sg183
g134
sg184
Nsg185
(lp787
I3
aI24
asg187
Nsg188
g785
sg189
(lp788
sg191
g60
sg192
Nsg193
Nsg194
Nsbag2
(g3
g4
Ntp789
Rp790
(dp791
g8
g11
sg172
Nsg173
(dp792
sg175
Nsg26
g29
sg176
(lp793
I3
aI25
asg178
Nsg179
VII Kings 3:25
p794
sg181
(lp795
sg183
g134
sg184
Nsg185
(lp796
I3
aI25
asg187
Nsg188
g794
sg189
(lp797
sg191
g60
sg192
Nsg193
Nsg194
Nsbag2
(g3
g4
Ntp798
Rp799
(dp800
g8
g11
sg172
Nsg173
(dp801
sg175
Nsg26
g29
sg176
(lp802
I3
aI26
asg178
Nsg179
VII Kings 3:26
p803
sg181
(lp804
sg183
g134
sg184
Nsg185
(lp805
I3
aI26
asg187
Nsg188
g803
sg189
(lp806
sg191
g60
sg192
Nsg193
Nsg194
Nsbag2
(g3
g4
Ntp807
Rp808
(dp809
g8
g11
sg172
Nsg173
(dp810
sg175
Nsg26
g29
sg176
(lp811
I3
aI27
asg178
Nsg179
VII Kings 3:27
p812
sg181
(lp813
sg183
g134
sg184
Nsg185
(lp814
I3
aI27
asg187
Nsg188
g812
sg189
(lp815
sg191
g60
sg192
Nsg193
Nsg194
Nsbag2
(g3
g4
Ntp816
Rp817
(dp818
g8
g11
sg172
Nsg173
(dp819
sg175
Nsg26
g29
sg176
(lp820
I4
aI1
asg178
Nsg179
VII Kings 4:1
p821
sg181
(lp822
sg183
g134
sg184
Nsg185
(lp823
I4
aI1
asg187
Nsg188
g821
sg189
(lp824
sg191
g60
sg192
Nsg193
Nsg194
Nsbag2
(g3
g4
Ntp825
Rp826
(dp827
g8
g11
sg172
Nsg173
(dp828
sg175
Nsg26
g29
sg176
(lp829
I4
aI2
asg178
Nsg179
VII Kings 4:2
p830
sg181
(lp831
sg183
g134
sg184
Nsg185
(lp832
I4
aI2
asg187
Nsg188
g830
sg189
(lp833
sg191
g60
sg192
Nsg193
Nsg194
Nsbag2
(g3
g4
Ntp834
Rp835
(dp836
g8
g11
sg172
Nsg173
(dp837
sg175
Nsg26
g29
sg176
(lp838
I4
aI3
asg178
Nsg179
VII Kings 4:3
p839
sg181
(lp840
sg183
g134
sg184
Nsg185
(lp841
I4
aI3
asg187
Nsg188
g839
sg189
(lp842
sg191
g60
sg192
Nsg193
Nsg194
Nsbag2
(g3
g4
Ntp843
Rp844
(dp845
g8
g11
sg172
Nsg173
(dp846
sg175
Nsg26
g29
sg176
(lp847
I4
aI4
asg178
Nsg179
VII Kings 4:4
p848
sg181
(lp849
sg183
g134
sg184
Nsg185
(lp850
I4
aI4
asg187
Nsg188
g848
sg189
(lp851
sg191
g60
sg192
Nsg193
Nsg194
Nsbag2
(g3
g4
Ntp852
Rp853
(dp854
g8
g11
sg172
Nsg173
(dp855
sg175
Nsg26
g29
sg176
(lp856
I4
aI5
asg178
Nsg179
VII Kings 4:5
p857
sg181
(lp858
sg183
g134
sg184
Nsg185
(lp859
I4
aI5
asg187
Nsg188
g857
sg189
(lp860
sg191
g60
sg192
Nsg193
Nsg194
Nsbag2
(g3
g4
Ntp861
Rp862
(dp863
g8
g11
sg172
Nsg173
(dp864
sg175
Nsg26
g29
sg176
(lp865
I4
aI6
asg178
Nsg179
VII Kings 4:6
p866
sg181
(lp867
sg183
g134
sg184
Nsg185
(lp868
I4
aI6
asg187
Nsg188
g866
sg189
(lp869
sg191
g60
sg192
Nsg193
Nsg194
Nsbag2
(g3
g4
Ntp870
Rp871
(dp872
g8
g11
sg172
Nsg173
(dp873
sg175
Nsg26
g29
sg176
(lp874
I4
aI7
asg178
Nsg179
VII Kings 4:7
p875
sg181
(lp876
sg183
g134
sg184
Nsg185
(lp877
I4
aI7
asg187
Nsg188
g875
sg189
(lp878
sg191
g60
sg192
Nsg193
Nsg194
Nsbag2
(g3
g4
Ntp879
Rp880
(dp881
g8
g11
sg172
Nsg173
(dp882
sg175
Nsg26
g29
sg176
(lp883
I4
aI8
asg178
Nsg179
VII Kings 4:8
p884
sg181
(lp885
sg183
g134
sg184
Nsg185
(lp886
I4
aI8
asg187
Nsg188
g884
sg189
(lp887
sg191
g60
sg192
Nsg193
Nsg194
Nsbag2
(g3
g4
Ntp888
Rp889
(dp890
g8
g11
sg172
Nsg173
(dp891
sg175
Nsg26
g29
sg176
(lp892
I4
aI9
asg178
Nsg179
VII Kings 4:9
p893
sg181
(lp894
sg183
g134
sg184
Nsg185
(lp895
I4
aI9
asg187
Nsg188
g893
sg189
(lp896
sg191
g60
sg192
Nsg193
Nsg194
Nsbag2
(g3
g4
Ntp897
Rp898
(dp899
g8
g11
sg172
Nsg173
(dp900
sg175
Nsg26
g29
sg176
(lp901
I4
aI10
asg178
Nsg179
VII Kings 4:10
p902
sg181
(lp903
sg183
g134
sg184
Nsg185
(lp904
I4
aI10
asg187
Nsg188
g902
sg189
(lp905
sg191
g60
sg192
Nsg193
Nsg194
Nsbag2
(g3
g4
Ntp906
Rp907
(dp908
g8
g11
sg172
Nsg173
(dp909
sg175
Nsg26
g29
sg176
(lp910
I4
aI11
asg178
Nsg179
VII Kings 4:11
p911
sg181
(lp912
sg183
g134
sg184
Nsg185
(lp913
I4
aI11
asg187
Nsg188
g911
sg189
(lp914
sg191
g60
sg192
Nsg193
Nsg194
Nsbag2
(g3
g4
Ntp915
Rp916
(dp917
g8
g11
sg172
Nsg173
(dp918
sg175
Nsg26
g29
sg176
(lp919
I4
aI12
asg178
Nsg179
VII Kings 4:12
p920
sg181
(lp921
sg183
g134
sg184
Nsg185
(lp922
I4
aI12
asg187
Nsg188
g920
sg189
(lp923
sg191
g60
sg192
Nsg193
Nsg194
Nsbag2
(g3
g4
Ntp924
Rp925
(dp926
g8
g11
sg172
Nsg173
(dp927
sg175
Nsg26
g29
sg176
(lp928
I4
aI13
asg178
Nsg179
VII Kings 4:13
p929
sg181
(lp930
sg183
g134
sg184
Nsg185
(lp931
I4
aI13
asg187
Nsg188
g929
sg189
(lp932
sg191
g60
sg192
Nsg193
Nsg194
Nsbag2
(g3
g4
Ntp933
Rp934
(dp935
g8
g11
sg172
Nsg173
(dp936
sg175
Nsg26
g29
sg176
(lp937
I4
aI14
asg178
Nsg179
VII Kings 4:14
p938
sg181
(lp939
sg183
g134
sg184
Nsg185
(lp940
I4
aI14
asg187
Nsg188
g938
sg189
(lp941
sg191
g60
sg192
Nsg193
Nsg194
Nsbag2
(g3
g4
Ntp942
Rp943
(dp944
g8
g11
sg172
Nsg173
(dp945
sg175
Nsg26
g29
sg176
(lp946
I4
aI15
asg178
Nsg179
VII Kings 4:15
p947
sg181
(lp948
sg183
g134
sg184
Nsg185
(lp949
I4
aI15
asg187
Nsg188
g947
sg189
(lp950
sg191
g60
sg192
Nsg193
Nsg194
Nsbag2
(g3
g4
Ntp951
Rp952
(dp953
g8
g11
sg172
Nsg173
(dp954
sg175
Nsg26
g29
sg176
(lp955
I4
aI16
asg178
Nsg179
VII Kings 4:16
p956
sg181
(lp957
sg183
g134
sg184
Nsg185
(lp958
I4
aI16
asg187
Nsg188
g956
sg189
(lp959
sg191
g60
sg192
Nsg193
Nsg194
Nsbag2
(g3
g4
Ntp960
Rp961
(dp962
g8
g11
sg172
Nsg173
(dp963
sg175
Nsg26
g29
sg176
(lp964
I4
aI17
asg178
Nsg179
VII Kings 4:17
p965
sg181
(lp966
sg183
g134
sg184
Nsg185
(lp967
I4
aI17
asg187
Nsg188
g965
sg189
(lp968
sg191
g60
sg192
Nsg193
Nsg194
Nsbag2
(g3
g4
Ntp969
Rp970
(dp971
g8
g11
sg172
Nsg173
(dp972
sg175
Nsg26
g29
sg176
(lp973
I4
aI18
asg178
Nsg179
VII Kings 4:18
p974
sg181
(lp975
sg183
g134
sg184
Nsg185
(lp976
I4
aI18
asg187
Nsg188
g974
sg189
(lp977
sg191
g60
sg192
Nsg193
Nsg194
Nsbag2
(g3
g4
Ntp978
Rp979
(dp980
g8
g11
sg172
Nsg173
(dp981
sg175
Nsg26
g29
sg176
(lp982
I4
aI19
asg178
Nsg179
VII Kings 4:19
p983
sg181
(lp984
sg183
g134
sg184
Nsg185
(lp985
I4
aI19
asg187
Nsg188
g983
sg189
(lp986
sg191
g60
sg192
Nsg193
Nsg194
Nsbag2
(g3
g4
Ntp987
Rp988
(dp989
g8
g11
sg172
Nsg173
(dp990
sg175
Nsg26
g29
sg176
(lp991
I4
aI20
asg178
Nsg179
VII Kings 4:20
p992
sg181
(lp993
sg183
g134
sg184
Nsg185
(lp994
I4
aI20
asg187
Nsg188
g992
sg189
(lp995
sg191
g60
sg192
Nsg193
Nsg194
Nsbag2
(g3
g4
Ntp996
Rp997
(dp998
g8
g11
sg172
Nsg173
(dp999
sg175
Nsg26
g29
sg176
(lp1000
I4
aI21
asg178
Nsg179
VII Kings 4:21
p1001
sg181
(lp1002
sg183
g134
sg184
Nsg185
(lp1003
I4
aI21
asg187
Nsg188
g1001
sg189
(lp1004
sg191
g60
sg192
Nsg193
Nsg194
Nsbag2
(g3
g4
Ntp1005
Rp1006
(dp1007
g8
g11
sg172
Nsg173
(dp1008
sg175
Nsg26
g29
sg176
(lp1009
I4
aI22
asg178
Nsg179
VII Kings 4:22
p1010
sg181
(lp1011
sg183
g134
sg184
Nsg185
(lp1012
I4
aI22
asg187
Nsg188
g1010
sg189
(lp1013
sg191
g60
sg192
Nsg193
Nsg194
Nsbag2
(g3
g4
Ntp1014
Rp1015
(dp1016
g8
g11
sg172
Nsg173
(dp1017
sg175
Nsg26
g29
sg176
(lp1018
I4
aI23
asg178
Nsg179
VII Kings 4:23
p1019
sg181
(lp1020
sg183
g134
sg184
Nsg185
(lp1021
I4
aI23
asg187
Nsg188
g1019
sg189
(lp1022
sg191
g60
sg192
Nsg193
Nsg194
Nsbag2
(g3
g4
Ntp1023
Rp1024
(dp1025
g8
g11
sg172
Nsg173
(dp1026
sg175
Nsg26
g29
sg176
(lp1027
I4
aI24
asg178
Nsg179
VII Kings 4:24
p1028
sg181
(lp1029
sg183
g134
sg184
Nsg185
(lp1030
I4
aI24
asg187
Nsg188
g1028
sg189
(lp1031
sg191
g60
sg192
Nsg193
Nsg194
Nsbag2
(g3
g4
Ntp1032
Rp1033
(dp1034
g8
g11
sg172
Nsg173
(dp1035
sg175
Nsg26
g29
sg176
(lp1036
I4
aI25
asg178
Nsg179
VII Kings 4:25
p1037
sg181
(lp1038
sg183
g134
sg184
Nsg185
(lp1039
I4
aI25
asg187
Nsg188
g1037
sg189
(lp1040
sg191
g60
sg192
Nsg193
Nsg194
Nsbag2
(g3
g4
Ntp1041
Rp1042
(dp1043
g8
g11
sg172
Nsg173
(dp1044
sg175
Nsg26
g29
sg176
(lp1045
I4
aI26
asg178
Nsg179
VII Kings 4:26
p1046
sg181
(lp1047
sg183
g134
sg184
Nsg185
(lp1048
I4
aI26
asg187
Nsg188
g1046
sg189
(lp1049
sg191
g60
sg192
Nsg193
Nsg194
Nsbag2
(g3
g4
Ntp1050
Rp1051
(dp1052
g8
g11
sg172
Nsg173
(dp1053
sg175
Nsg26
g29
sg176
(lp1054
I4
aI27
asg178
Nsg179
VII Kings 4:27
p1055
sg181
(lp1056
sg183
g134
sg184
Nsg185
(lp1057
I4
aI27
asg187
Nsg188
g1055
sg189
(lp1058
sg191
g60
sg192
Nsg193
Nsg194
Nsbag2
(g3
g4
Ntp1059
Rp1060
(dp1061
g8
g11
sg172
Nsg173
(dp1062
sg175
Nsg26
g29
sg176
(lp1063
I4
aI28
asg178
Nsg179
VII Kings 4:28
p1064
sg181
(lp1065
sg183
g134
sg184
Nsg185
(lp1066
I4
aI28
asg187
Nsg188
g1064
sg189
(lp1067
sg191
g60
sg192
Nsg193
Nsg194
Nsbag2
(g3
g4
Ntp1068
Rp1069
(dp1070
g8
g11
sg172
Nsg173
(dp1071
sg175
Nsg26
g29
sg176
(lp1072
I4
aI29
asg178
Nsg179
VII Kings 4:29
p1073
sg181
(lp1074
sg183
g134
sg184
Nsg185
(lp1075
I4
aI29
asg187
Nsg188
g1073
sg189
(lp1076
sg191
g60
sg192
Nsg193
Nsg194
Nsbag2
(g3
g4
Ntp1077
Rp1078
(dp1079
g8
g11
sg172
Nsg173
(dp1080
sg175
Nsg26
g29
sg176
(lp1081
I4
aI30
asg178
Nsg179
VII Kings 4:30
p1082
sg181
(lp1083
sg183
g134
sg184
Nsg185
(lp1084
I4
aI30
asg187
Nsg188
g1082
sg189
(lp1085
sg191
g60
sg192
Nsg193
Nsg194
Nsbag2
(g3
g4
Ntp1086
Rp1087
(dp1088
g8
g11
sg172
Nsg173
(dp1089
sg175
Nsg26
g29
sg176
(lp1090
I4
aI31
asg178
Nsg179
VII Kings 4:31
p1091
sg181
(lp1092
sg183
g134
sg184
Nsg185
(lp1093
I4
aI31
asg187
Nsg188
g1091
sg189
(lp1094
sg191
g60
sg192
Nsg193
Nsg194
Nsbag2
(g3
g4
Ntp1095
Rp1096
(dp1097
g8
g11
sg172
Nsg173
(dp1098
sg175
Nsg26
g29
sg176
(lp1099
I4
aI32
asg178
Nsg179
VII Kings 4:32
p1100
sg181
(lp1101
sg183
g134
sg184
Nsg185
(lp1102
I4
aI32
asg187
Nsg188
g1100
sg189
(lp1103
sg191
g60
sg192
Nsg193
Nsg194
Nsbag2
(g3
g4
Ntp1104
Rp1105
(dp1106
g8
g11
sg172
Nsg173
(dp1107
sg175
Nsg26
g29
sg176
(lp1108
I4
aI33
asg178
Nsg179
VII Kings 4:33
p1109
sg181
(lp1110
sg183
g134
sg184
Nsg185
(lp1111
I4
aI33
asg187
Nsg188
g1109
sg189
(lp1112
sg191
g60
sg192
Nsg193
Nsg194
Nsbag2
(g3
g4
Ntp1113
Rp1114
(dp1115
g8
g11
sg172
Nsg173
(dp1116
sg175
Nsg26
g29
sg176
(lp1117
I4
aI34
asg178
Nsg179
VII Kings 4:34
p1118
sg181
(lp1119
sg183
g134
sg184
Nsg185
(lp1120
I4
aI34
asg187
Nsg188
g1118
sg189
(lp1121
sg191
g60
sg192
Nsg193
Nsg194
Nsbag2
(g3
g4
Ntp1122
Rp1123
(dp1124
g8
g11
sg172
Nsg173
(dp1125
sg175
Nsg26
g29
sg176
(lp1126
I4
aI35
asg178
Nsg179
VII Kings 4:35
p1127
sg181
(lp1128
sg183
g134
sg184
Nsg185
(lp1129
I4
aI35
asg187
Nsg188
g1127
sg189
(lp1130
sg191
g60
sg192
Nsg193
Nsg194
Nsbag2
(g3
g4
Ntp1131
Rp1132
(dp1133
g8
g11
sg172
Nsg173
(dp1134
sg175
Nsg26
g29
sg176
(lp1135
I4
aI36
asg178
Nsg179
VII Kings 4:36
p1136
sg181
(lp1137
sg183
g134
sg184
Nsg185
(lp1138
I4
aI36
asg187
Nsg188
g1136
sg189
(lp1139
sg191
g60
sg192
Nsg193
Nsg194
Nsbag2
(g3
g4
Ntp1140
Rp1141
(dp1142
g8
g11
sg172
Nsg173
(dp1143
sg175
Nsg26
g29
sg176
(lp1144
I4
aI37
asg178
Nsg179
VII Kings 4:37
p1145
sg181
(lp1146
sg183
g134
sg184
Nsg185
(lp1147
I4
aI37
asg187
Nsg188
g1145
sg189
(lp1148
sg191
g60
sg192
Nsg193
Nsg194
Nsbag2
(g3
g4
Ntp1149
Rp1150
(dp1151
g8
g11
sg172
Nsg173
(dp1152
sg175
Nsg26
g29
sg176
(lp1153
I4
aI38
asg178
Nsg179
VII Kings 4:38
p1154
sg181
(lp1155
sg183
g134
sg184
Nsg185
(lp1156
I4
aI38
asg187
Nsg188
g1154
sg189
(lp1157
sg191
g60
sg192
Nsg193
Nsg194
Nsbag2
(g3
g4
Ntp1158
Rp1159
(dp1160
g8
g11
sg172
Nsg173
(dp1161
sg175
Nsg26
g29
sg176
(lp1162
I4
aI39
asg178
Nsg179
VII Kings 4:39
p1163
sg181
(lp1164
sg183
g134
sg184
Nsg185
(lp1165
I4
aI39
asg187
Nsg188
g1163
sg189
(lp1166
sg191
g60
sg192
Nsg193
Nsg194
Nsbag2
(g3
g4
Ntp1167
Rp1168
(dp1169
g8
g11
sg172
Nsg173
(dp1170
sg175
Nsg26
g29
sg176
(lp1171
I4
aI40
asg178
Nsg179
VII Kings 4:40
p1172
sg181
(lp1173
sg183
g134
sg184
Nsg185
(lp1174
I4
aI40
asg187
Nsg188
g1172
sg189
(lp1175
sg191
g60
sg192
Nsg193
Nsg194
Nsbag2
(g3
g4
Ntp1176
Rp1177
(dp1178
g8
g11
sg172
Nsg173
(dp1179
sg175
Nsg26
g29
sg176
(lp1180
I4
aI41
asg178
Nsg179
VII Kings 4:41
p1181
sg181
(lp1182
sg183
g134
sg184
Nsg185
(lp1183
I4
aI41
asg187
Nsg188
g1181
sg189
(lp1184
sg191
g60
sg192
Nsg193
Nsg194
Nsbag2
(g3
g4
Ntp1185
Rp1186
(dp1187
g8
g11
sg172
Nsg173
(dp1188
sg175
Nsg26
g29
sg176
(lp1189
I4
aI42
asg178
Nsg179
VII Kings 4:42
p1190
sg181
(lp1191
sg183
g134
sg184
Nsg185
(lp1192
I4
aI42
asg187
Nsg188
g1190
sg189
(lp1193
sg191
g60
sg192
Nsg193
Nsg194
Nsbag2
(g3
g4
Ntp1194
Rp1195
(dp1196
g8
g11
sg172
Nsg173
(dp1197
sg175
Nsg26
g29
sg176
(lp1198
I4
aI43
asg178
Nsg179
VII Kings 4:43
p1199
sg181
(lp1200
sg183
g134
sg184
Nsg185
(lp1201
I4
aI43
asg187
Nsg188
g1199
sg189
(lp1202
sg191
g60
sg192
Nsg193
Nsg194
Nsbag2
(g3
g4
Ntp1203
Rp1204
(dp1205
g8
g11
sg172
Nsg173
(dp1206
sg175
Nsg26
g29
sg176
(lp1207
I4
aI44
asg178
Nsg179
VII Kings 4:44
p1208
sg181
(lp1209
sg183
g134
sg184
Nsg185
(lp1210
I4
aI44
asg187
Nsg188
g1208
sg189
(lp1211
sg191
g60
sg192
Nsg193
Nsg194
Nsbag2
(g3
g4
Ntp1212
Rp1213
(dp1214
g8
g11
sg172
Nsg173
(dp1215
sg175
Nsg26
g29
sg176
(lp1216
I5
aI1
asg178
Nsg179
VII Kings 5:1
p1217
sg181
(lp1218
sg183
g134
sg184
Nsg185
(lp1219
I5
aI1
asg187
Nsg188
g1217
sg189
(lp1220
sg191
g60
sg192
Nsg193
Nsg194
Nsbag2
(g3
g4
Ntp1221
Rp1222
(dp1223
g8
g11
sg172
Nsg173
(dp1224
sg175
Nsg26
g29
sg176
(lp1225
I5
aI2
asg178
Nsg179
VII Kings 5:2
p1226
sg181
(lp1227
sg183
g134
sg184
Nsg185
(lp1228
I5
aI2
asg187
Nsg188
g1226
sg189
(lp1229
sg191
g60
sg192
Nsg193
Nsg194
Nsbag2
(g3
g4
Ntp1230
Rp1231
(dp1232
g8
g11
sg172
Nsg173
(dp1233
sg175
Nsg26
g29
sg176
(lp1234
I5
aI3
asg178
Nsg179
VII Kings 5:3
p1235
sg181
(lp1236
sg183
g134
sg184
Nsg185
(lp1237
I5
aI3
asg187
Nsg188
g1235
sg189
(lp1238
sg191
g60
sg192
Nsg193
Nsg194
Nsbag2
(g3
g4
Ntp1239
Rp1240
(dp1241
g8
g11
sg172
Nsg173
(dp1242
sg175
Nsg26
g29
sg176
(lp1243
I5
aI4
asg178
Nsg179
VII Kings 5:4
p1244
sg181
(lp1245
sg183
g134
sg184
Nsg185
(lp1246
I5
aI4
asg187
Nsg188
g1244
sg189
(lp1247
sg191
g60
sg192
Nsg193
Nsg194
Nsbag2
(g3
g4
Ntp1248
Rp1249
(dp1250
g8
g11
sg172
Nsg173
(dp1251
sg175
Nsg26
g29
sg176
(lp1252
I5
aI5
asg178
Nsg179
VII Kings 5:5
p1253
sg181
(lp1254
sg183
g134
sg184
Nsg185
(lp1255
I5
aI5
asg187
Nsg188
g1253
sg189
(lp1256
sg191
g60
sg192
Nsg193
Nsg194
Nsbag2
(g3
g4
Ntp1257
Rp1258
(dp1259
g8
g11
sg172
Nsg173
(dp1260
sg175
Nsg26
g29
sg176
(lp1261
I5
aI6
asg178
Nsg179
VII Kings 5:6
p1262
sg181
(lp1263
sg183
g134
sg184
Nsg185
(lp1264
I5
aI6
asg187
Nsg188
g1262
sg189
(lp1265
sg191
g60
sg192
Nsg193
Nsg194
Nsbag2
(g3
g4
Ntp1266
Rp1267
(dp1268
g8
g11
sg172
Nsg173
(dp1269
sg175
Nsg26
g29
sg176
(lp1270
I5
aI7
asg178
Nsg179
VII Kings 5:7
p1271
sg181
(lp1272
sg183
g134
sg184
Nsg185
(lp1273
I5
aI7
asg187
Nsg188
g1271
sg189
(lp1274
sg191
g60
sg192
Nsg193
Nsg194
Nsbag2
(g3
g4
Ntp1275
Rp1276
(dp1277
g8
g11
sg172
Nsg173
(dp1278
sg175
Nsg26
g29
sg176
(lp1279
I5
aI8
asg178
Nsg179
VII Kings 5:8
p1280
sg181
(lp1281
sg183
g134
sg184
Nsg185
(lp1282
I5
aI8
asg187
Nsg188
g1280
sg189
(lp1283
sg191
g60
sg192
Nsg193
Nsg194
Nsbag2
(g3
g4
Ntp1284
Rp1285
(dp1286
g8
g11
sg172
Nsg173
(dp1287
sg175
Nsg26
g29
sg176
(lp1288
I5
aI9
asg178
Nsg179
VII Kings 5:9
p1289
sg181
(lp1290
sg183
g134
sg184
Nsg185
(lp1291
I5
aI9
asg187
Nsg188
g1289
sg189
(lp1292
sg191
g60
sg192
Nsg193
Nsg194
Nsbag2
(g3
g4
Ntp1293
Rp1294
(dp1295
g8
g11
sg172
Nsg173
(dp1296
sg175
Nsg26
g29
sg176
(lp1297
I5
aI10
asg178
Nsg179
VII Kings 5:10
p1298
sg181
(lp1299
sg183
g134
sg184
Nsg185
(lp1300
I5
aI10
asg187
Nsg188
g1298
sg189
(lp1301
sg191
g60
sg192
Nsg193
Nsg194
Nsbag2
(g3
g4
Ntp1302
Rp1303
(dp1304
g8
g11
sg172
Nsg173
(dp1305
sg175
Nsg26
g29
sg176
(lp1306
I5
aI11
asg178
Nsg179
VII Kings 5:11
p1307
sg181
(lp1308
sg183
g134
sg184
Nsg185
(lp1309
I5
aI11
asg187
Nsg188
g1307
sg189
(lp1310
sg191
g60
sg192
Nsg193
Nsg194
Nsbag2
(g3
g4
Ntp1311
Rp1312
(dp1313
g8
g11
sg172
Nsg173
(dp1314
sg175
Nsg26
g29
sg176
(lp1315
I5
aI12
asg178
Nsg179
VII Kings 5:12
p1316
sg181
(lp1317
sg183
g134
sg184
Nsg185
(lp1318
I5
aI12
asg187
Nsg188
g1316
sg189
(lp1319
sg191
g60
sg192
Nsg193
Nsg194
Nsbag2
(g3
g4
Ntp1320
Rp1321
(dp1322
g8
g11
sg172
Nsg173
(dp1323
sg175
Nsg26
g29
sg176
(lp1324
I5
aI13
asg178
Nsg179
VII Kings 5:13
p1325
sg181
(lp1326
sg183
g134
sg184
Nsg185
(lp1327
I5
aI13
asg187
Nsg188
g1325
sg189
(lp1328
sg191
g60
sg192
Nsg193
Nsg194
Nsbag2
(g3
g4
Ntp1329
Rp1330
(dp1331
g8
g11
sg172
Nsg173
(dp1332
sg175
Nsg26
g29
sg176
(lp1333
I5
aI14
asg178
Nsg179
VII Kings 5:14
p1334
sg181
(lp1335
sg183
g134
sg184
Nsg185
(lp1336
I5
aI14
asg187
Nsg188
g1334
sg189
(lp1337
sg191
g60
sg192
Nsg193
Nsg194
Nsbag2
(g3
g4
Ntp1338
Rp1339
(dp1340
g8
g11
sg172
Nsg173
(dp1341
sg175
Nsg26
g29
sg176
(lp1342
I5
aI15
asg178
Nsg179
VII Kings 5:15
p1343
sg181
(lp1344
sg183
g134
sg184
Nsg185
(lp1345
I5
aI15
asg187
Nsg188
g1343
sg189
(lp1346
sg191
g60
sg192
Nsg193
Nsg194
Nsbag2
(g3
g4
Ntp1347
Rp1348
(dp1349
g8
g11
sg172
Nsg173
(dp1350
sg175
Nsg26
g29
sg176
(lp1351
I5
aI16
asg178
Nsg179
VII Kings 5:16
p1352
sg181
(lp1353
sg183
g134
sg184
Nsg185
(lp1354
I5
aI16
asg187
Nsg188
g1352
sg189
(lp1355
sg191
g60
sg192
Nsg193
Nsg194
Nsbag2
(g3
g4
Ntp1356
Rp1357
(dp1358
g8
g11
sg172
Nsg173
(dp1359
sg175
Nsg26
g29
sg176
(lp1360
I5
aI17
asg178
Nsg179
VII Kings 5:17
p1361
sg181
(lp1362
sg183
g134
sg184
Nsg185
(lp1363
I5
aI17
asg187
Nsg188
g1361
sg189
(lp1364
sg191
g60
sg192
Nsg193
Nsg194
Nsbag2
(g3
g4
Ntp1365
Rp1366
(dp1367
g8
g11
sg172
Nsg173
(dp1368
sg175
Nsg26
g29
sg176
(lp1369
I5
aI18
asg178
Nsg179
VII Kings 5:18
p1370
sg181
(lp1371
sg183
g134
sg184
Nsg185
(lp1372
I5
aI18
asg187
Nsg188
g1370
sg189
(lp1373
sg191
g60
sg192
Nsg193
Nsg194
Nsbag2
(g3
g4
Ntp1374
Rp1375
(dp1376
g8
g11
sg172
Nsg173
(dp1377
sg175
Nsg26
g29
sg176
(lp1378
I5
aI19
asg178
Nsg179
VII Kings 5:19
p1379
sg181
(lp1380
sg183
g134
sg184
Nsg185
(lp1381
I5
aI19
asg187
Nsg188
g1379
sg189
(lp1382
sg191
g60
sg192
Nsg193
Nsg194
Nsbag2
(g3
g4
Ntp1383
Rp1384
(dp1385
g8
g11
sg172
Nsg173
(dp1386
sg175
Nsg26
g29
sg176
(lp1387
I5
aI20
asg178
Nsg179
VII Kings 5:20
p1388
sg181
(lp1389
sg183
g134
sg184
Nsg185
(lp1390
I5
aI20
asg187
Nsg188
g1388
sg189
(lp1391
sg191
g60
sg192
Nsg193
Nsg194
Nsbag2
(g3
g4
Ntp1392
Rp1393
(dp1394
g8
g11
sg172
Nsg173
(dp1395
sg175
Nsg26
g29
sg176
(lp1396
I5
aI21
asg178
Nsg179
VII Kings 5:21
p1397
sg181
(lp1398
sg183
g134
sg184
Nsg185
(lp1399
I5
aI21
asg187
Nsg188
g1397
sg189
(lp1400
sg191
g60
sg192
Nsg193
Nsg194
Nsbag2
(g3
g4
Ntp1401
Rp1402
(dp1403
g8
g11
sg172
Nsg173
(dp1404
sg175
Nsg26
g29
sg176
(lp1405
I5
aI22
asg178
Nsg179
VII Kings 5:22
p1406
sg181
(lp1407
sg183
g134
sg184
Nsg185
(lp1408
I5
aI22
asg187
Nsg188
g1406
sg189
(lp1409
sg191
g60
sg192
Nsg193
Nsg194
Nsbag2
(g3
g4
Ntp1410
Rp1411
(dp1412
g8
g11
sg172
Nsg173
(dp1413
sg175
Nsg26
g29
sg176
(lp1414
I5
aI23
asg178
Nsg179
VII Kings 5:23
p1415
sg181
(lp1416
sg183
g134
sg184
Nsg185
(lp1417
I5
aI23
asg187
Nsg188
g1415
sg189
(lp1418
sg191
g60
sg192
Nsg193
Nsg194
Nsbag2
(g3
g4
Ntp1419
Rp1420
(dp1421
g8
g11
sg172
Nsg173
(dp1422
sg175
Nsg26
g29
sg176
(lp1423
I5
aI24
asg178
Nsg179
VII Kings 5:24
p1424
sg181
(lp1425
sg183
g134
sg184
Nsg185
(lp1426
I5
aI24
asg187
Nsg188
g1424
sg189
(lp1427
sg191
g60
sg192
Nsg193
Nsg194
Nsbag2
(g3
g4
Ntp1428
Rp1429
(dp1430
g8
g11
sg172
Nsg173
(dp1431
sg175
Nsg26
g29
sg176
(lp1432
I5
aI25
asg178
Nsg179
VII Kings 5:25
p1433
sg181
(lp1434
sg183
g134
sg184
Nsg185
(lp1435
I5
aI25
asg187
Nsg188
g1433
sg189
(lp1436
sg191
g60
sg192
Nsg193
Nsg194
Nsbag2
(g3
g4
Ntp1437
Rp1438
(dp1439
g8
g11
sg172
Nsg173
(dp1440
sg175
Nsg26
g29
sg176
(lp1441
I5
aI26
asg178
Nsg179
VII Kings 5:26
p1442
sg181
(lp1443
sg183
g134
sg184
Nsg185
(lp1444
I5
aI26
asg187
Nsg188
g1442
sg189
(lp1445
sg191
g60
sg192
Nsg193
Nsg194
Nsbag2
(g3
g4
Ntp1446
Rp1447
(dp1448
g8
g11
sg172
Nsg173
(dp1449
sg175
Nsg26
g29
sg176
(lp1450
I5
aI27
asg178
Nsg179
VII Kings 5:27
p1451
sg181
(lp1452
sg183
g134
sg184
Nsg185
(lp1453
I5
aI27
asg187
Nsg188
g1451
sg189
(lp1454
sg191
g60
sg192
Nsg193
Nsg194
Nsbag2
(g3
g4
Ntp1455
Rp1456
(dp1457
g8
g11
sg172
Nsg173
(dp1458
sg175
Nsg26
g29
sg176
(lp1459
I6
aI1
asg178
Nsg179
VII Kings 6:1
p1460
sg181
(lp1461
sg183
g134
sg184
Nsg185
(lp1462
I6
aI1
asg187
Nsg188
g1460
sg189
(lp1463
sg191
g60
sg192
Nsg193
Nsg194
Nsbag2
(g3
g4
Ntp1464
Rp1465
(dp1466
g8
g11
sg172
Nsg173
(dp1467
sg175
Nsg26
g29
sg176
(lp1468
I6
aI2
asg178
Nsg179
VII Kings 6:2
p1469
sg181
(lp1470
sg183
g134
sg184
Nsg185
(lp1471
I6
aI2
asg187
Nsg188
g1469
sg189
(lp1472
sg191
g60
sg192
Nsg193
Nsg194
Nsbag2
(g3
g4
Ntp1473
Rp1474
(dp1475
g8
g11
sg172
Nsg173
(dp1476
sg175
Nsg26
g29
sg176
(lp1477
I6
aI3
asg178
Nsg179
VII Kings 6:3
p1478
sg181
(lp1479
sg183
g134
sg184
Nsg185
(lp1480
I6
aI3
asg187
Nsg188
g1478
sg189
(lp1481
sg191
g60
sg192
Nsg193
Nsg194
Nsbag2
(g3
g4
Ntp1482
Rp1483
(dp1484
g8
g11
sg172
Nsg173
(dp1485
sg175
Nsg26
g29
sg176
(lp1486
I6
aI4
asg178
Nsg179
VII Kings 6:4
p1487
sg181
(lp1488
sg183
g134
sg184
Nsg185
(lp1489
I6
aI4
asg187
Nsg188
g1487
sg189
(lp1490
sg191
g60
sg192
Nsg193
Nsg194
Nsbag2
(g3
g4
Ntp1491
Rp1492
(dp1493
g8
g11
sg172
Nsg173
(dp1494
sg175
Nsg26
g29
sg176
(lp1495
I6
aI5
asg178
Nsg179
VII Kings 6:5
p1496
sg181
(lp1497
sg183
g134
sg184
Nsg185
(lp1498
I6
aI5
asg187
Nsg188
g1496
sg189
(lp1499
sg191
g60
sg192
Nsg193
Nsg194
Nsbag2
(g3
g4
Ntp1500
Rp1501
(dp1502
g8
g11
sg172
Nsg173
(dp1503
sg175
Nsg26
g29
sg176
(lp1504
I6
aI6
asg178
Nsg179
VII Kings 6:6
p1505
sg181
(lp1506
sg183
g134
sg184
Nsg185
(lp1507
I6
aI6
asg187
Nsg188
g1505
sg189
(lp1508
sg191
g60
sg192
Nsg193
Nsg194
Nsbag2
(g3
g4
Ntp1509
Rp1510
(dp1511
g8
g11
sg172
Nsg173
(dp1512
sg175
Nsg26
g29
sg176
(lp1513
I6
aI7
asg178
Nsg179
VII Kings 6:7
p1514
sg181
(lp1515
sg183
g134
sg184
Nsg185
(lp1516
I6
aI7
asg187
Nsg188
g1514
sg189
(lp1517
sg191
g60
sg192
Nsg193
Nsg194
Nsbag2
(g3
g4
Ntp1518
Rp1519
(dp1520
g8
g11
sg172
Nsg173
(dp1521
sg175
Nsg26
g29
sg176
(lp1522
I6
aI8
asg178
Nsg179
VII Kings 6:8
p1523
sg181
(lp1524
sg183
g134
sg184
Nsg185
(lp1525
I6
aI8
asg187
Nsg188
g1523
sg189
(lp1526
sg191
g60
sg192
Nsg193
Nsg194
Nsbag2
(g3
g4
Ntp1527
Rp1528
(dp1529
g8
g11
sg172
Nsg173
(dp1530
sg175
Nsg26
g29
sg176
(lp1531
I6
aI9
asg178
Nsg179
VII Kings 6:9
p1532
sg181
(lp1533
sg183
g134
sg184
Nsg185
(lp1534
I6
aI9
asg187
Nsg188
g1532
sg189
(lp1535
sg191
g60
sg192
Nsg193
Nsg194
Nsbag2
(g3
g4
Ntp1536
Rp1537
(dp1538
g8
g11
sg172
Nsg173
(dp1539
sg175
Nsg26
g29
sg176
(lp1540
I6
aI10
asg178
Nsg179
VII Kings 6:10
p1541
sg181
(lp1542
sg183
g134
sg184
Nsg185
(lp1543
I6
aI10
asg187
Nsg188
g1541
sg189
(lp1544
sg191
g60
sg192
Nsg193
Nsg194
Nsbag2
(g3
g4
Ntp1545
Rp1546
(dp1547
g8
g11
sg172
Nsg173
(dp1548
sg175
Nsg26
g29
sg176
(lp1549
I6
aI11
asg178
Nsg179
VII Kings 6:11
p1550
sg181
(lp1551
sg183
g134
sg184
Nsg185
(lp1552
I6
aI11
asg187
Nsg188
g1550
sg189
(lp1553
sg191
g60
sg192
Nsg193
Nsg194
Nsbag2
(g3
g4
Ntp1554
Rp1555
(dp1556
g8
g11
sg172
Nsg173
(dp1557
sg175
Nsg26
g29
sg176
(lp1558
I6
aI12
asg178
Nsg179
VII Kings 6:12
p1559
sg181
(lp1560
sg183
g134
sg184
Nsg185
(lp1561
I6
aI12
asg187
Nsg188
g1559
sg189
(lp1562
sg191
g60
sg192
Nsg193
Nsg194
Nsbag2
(g3
g4
Ntp1563
Rp1564
(dp1565
g8
g11
sg172
Nsg173
(dp1566
sg175
Nsg26
g29
sg176
(lp1567
I6
aI13
asg178
Nsg179
VII Kings 6:13
p1568
sg181
(lp1569
sg183
g134
sg184
Nsg185
(lp1570
I6
aI13
asg187
Nsg188
g1568
sg189
(lp1571
sg191
g60
sg192
Nsg193
Nsg194
Nsbag2
(g3
g4
Ntp1572
Rp1573
(dp1574
g8
g11
sg172
Nsg173
(dp1575
sg175
Nsg26
g29
sg176
(lp1576
I6
aI14
asg178
Nsg179
VII Kings 6:14
p1577
sg181
(lp1578
sg183
g134
sg184
Nsg185
(lp1579
I6
aI14
asg187
Nsg188
g1577
sg189
(lp1580
sg191
g60
sg192
Nsg193
Nsg194
Nsbag2
(g3
g4
Ntp1581
Rp1582
(dp1583
g8
g11
sg172
Nsg173
(dp1584
sg175
Nsg26
g29
sg176
(lp1585
I6
aI15
asg178
Nsg179
VII Kings 6:15
p1586
sg181
(lp1587
sg183
g134
sg184
Nsg185
(lp1588
I6
aI15
asg187
Nsg188
g1586
sg189
(lp1589
sg191
g60
sg192
Nsg193
Nsg194
Nsbag2
(g3
g4
Ntp1590
Rp1591
(dp1592
g8
g11
sg172
Nsg173
(dp1593
sg175
Nsg26
g29
sg176
(lp1594
I6
aI16
asg178
Nsg179
VII Kings 6:16
p1595
sg181
(lp1596
sg183
g134
sg184
Nsg185
(lp1597
I6
aI16
asg187
Nsg188
g1595
sg189
(lp1598
sg191
g60
sg192
Nsg193
Nsg194
Nsbag2
(g3
g4
Ntp1599
Rp1600
(dp1601
g8
g11
sg172
Nsg173
(dp1602
sg175
Nsg26
g29
sg176
(lp1603
I6
aI17
asg178
Nsg179
VII Kings 6:17
p1604
sg181
(lp1605
sg183
g134
sg184
Nsg185
(lp1606
I6
aI17
asg187
Nsg188
g1604
sg189
(lp1607
sg191
g60
sg192
Nsg193
Nsg194
Nsbag2
(g3
g4
Ntp1608
Rp1609
(dp1610
g8
g11
sg172
Nsg173
(dp1611
sg175
Nsg26
g29
sg176
(lp1612
I6
aI18
asg178
Nsg179
VII Kings 6:18
p1613
sg181
(lp1614
sg183
g134
sg184
Nsg185
(lp1615
I6
aI18
asg187
Nsg188
g1613
sg189
(lp1616
sg191
g60
sg192
Nsg193
Nsg194
Nsbag2
(g3
g4
Ntp1617
Rp1618
(dp1619
g8
g11
sg172
Nsg173
(dp1620
sg175
Nsg26
g29
sg176
(lp1621
I6
aI19
asg178
Nsg179
VII Kings 6:19
p1622
sg181
(lp1623
sg183
g134
sg184
Nsg185
(lp1624
I6
aI19
asg187
Nsg188
g1622
sg189
(lp1625
sg191
g60
sg192
Nsg193
Nsg194
Nsbag2
(g3
g4
Ntp1626
Rp1627
(dp1628
g8
g11
sg172
Nsg173
(dp1629
sg175
Nsg26
g29
sg176
(lp1630
I6
aI20
asg178
Nsg179
VII Kings 6:20
p1631
sg181
(lp1632
sg183
g134
sg184
Nsg185
(lp1633
I6
aI20
asg187
Nsg188
g1631
sg189
(lp1634
sg191
g60
sg192
Nsg193
Nsg194
Nsbag2
(g3
g4
Ntp1635
Rp1636
(dp1637
g8
g11
sg172
Nsg173
(dp1638
sg175
Nsg26
g29
sg176
(lp1639
I6
aI21
asg178
Nsg179
VII Kings 6:21
p1640
sg181
(lp1641
sg183
g134
sg184
Nsg185
(lp1642
I6
aI21
asg187
Nsg188
g1640
sg189
(lp1643
sg191
g60
sg192
Nsg193
Nsg194
Nsbag2
(g3
g4
Ntp1644
Rp1645
(dp1646
g8
g11
sg172
Nsg173
(dp1647
sg175
Nsg26
g29
sg176
(lp1648
I6
aI22
asg178
Nsg179
VII Kings 6:22
p1649
sg181
(lp1650
sg183
g134
sg184
Nsg185
(lp1651
I6
aI22
asg187
Nsg188
g1649
sg189
(lp1652
sg191
g60
sg192
Nsg193
Nsg194
Nsbag2
(g3
g4
Ntp1653
Rp1654
(dp1655
g8
g11
sg172
Nsg173
(dp1656
sg175
Nsg26
g29
sg176
(lp1657
I6
aI23
asg178
Nsg179
VII Kings 6:23
p1658
sg181
(lp1659
sg183
g134
sg184
Nsg185
(lp1660
I6
aI23
asg187
Nsg188
g1658
sg189
(lp1661
sg191
g60
sg192
Nsg193
Nsg194
Nsbag2
(g3
g4
Ntp1662
Rp1663
(dp1664
g8
g11
sg172
Nsg173
(dp1665
sg175
Nsg26
g29
sg176
(lp1666
I6
aI24
asg178
Nsg179
VII Kings 6:24
p1667
sg181
(lp1668
sg183
g134
sg184
Nsg185
(lp1669
I6
aI24
asg187
Nsg188
g1667
sg189
(lp1670
sg191
g60
sg192
Nsg193
Nsg194
Nsbag2
(g3
g4
Ntp1671
Rp1672
(dp1673
g8
g11
sg172
Nsg173
(dp1674
sg175
Nsg26
g29
sg176
(lp1675
I6
aI25
asg178
Nsg179
VII Kings 6:25
p1676
sg181
(lp1677
sg183
g134
sg184
Nsg185
(lp1678
I6
aI25
asg187
Nsg188
g1676
sg189
(lp1679
sg191
g60
sg192
Nsg193
Nsg194
Nsbag2
(g3
g4
Ntp1680
Rp1681
(dp1682
g8
g11
sg172
Nsg173
(dp1683
sg175
Nsg26
g29
sg176
(lp1684
I6
aI26
asg178
Nsg179
VII Kings 6:26
p1685
sg181
(lp1686
sg183
g134
sg184
Nsg185
(lp1687
I6
aI26
asg187
Nsg188
g1685
sg189
(lp1688
sg191
g60
sg192
Nsg193
Nsg194
Nsbag2
(g3
g4
Ntp1689
Rp1690
(dp1691
g8
g11
sg172
Nsg173
(dp1692
sg175
Nsg26
g29
sg176
(lp1693
I6
aI27
asg178
Nsg179
VII Kings 6:27
p1694
sg181
(lp1695
sg183
g134
sg184
Nsg185
(lp1696
I6
aI27
asg187
Nsg188
g1694
sg189
(lp1697
sg191
g60
sg192
Nsg193
Nsg194
Nsbag2
(g3
g4
Ntp1698
Rp1699
(dp1700
g8
g11
sg172
Nsg173
(dp1701
sg175
Nsg26
g29
sg176
(lp1702
I6
aI28
asg178
Nsg179
VII Kings 6:28
p1703
sg181
(lp1704
sg183
g134
sg184
Nsg185
(lp1705
I6
aI28
asg187
Nsg188
g1703
sg189
(lp1706
sg191
g60
sg192
Nsg193
Nsg194
Nsbag2
(g3
g4
Ntp1707
Rp1708
(dp1709
g8
g11
sg172
Nsg173
(dp1710
sg175
Nsg26
g29
sg176
(lp1711
I6
aI29
asg178
Nsg179
VII Kings 6:29
p1712
sg181
(lp1713
sg183
g134
sg184
Nsg185
(lp1714
I6
aI29
asg187
Nsg188
g1712
sg189
(lp1715
sg191
g60
sg192
Nsg193
Nsg194
Nsbag2
(g3
g4
Ntp1716
Rp1717
(dp1718
g8
g11
sg172
Nsg173
(dp1719
sg175
Nsg26
g29
sg176
(lp1720
I6
aI30
asg178
Nsg179
VII Kings 6:30
p1721
sg181
(lp1722
sg183
g134
sg184
Nsg185
(lp1723
I6
aI30
asg187
Nsg188
g1721
sg189
(lp1724
sg191
g60
sg192
Nsg193
Nsg194
Nsbag2
(g3
g4
Ntp1725
Rp1726
(dp1727
g8
g11
sg172
Nsg173
(dp1728
sg175
Nsg26
g29
sg176
(lp1729
I6
aI31
asg178
Nsg179
VII Kings 6:31
p1730
sg181
(lp1731
sg183
g134
sg184
Nsg185
(lp1732
I6
aI31
asg187
Nsg188
g1730
sg189
(lp1733
sg191
g60
sg192
Nsg193
Nsg194
Nsbag2
(g3
g4
Ntp1734
Rp1735
(dp1736
g8
g11
sg172
Nsg173
(dp1737
sg175
Nsg26
g29
sg176
(lp1738
I6
aI32
asg178
Nsg179
VII Kings 6:32
p1739
sg181
(lp1740
sg183
g134
sg184
Nsg185
(lp1741
I6
aI32
asg187
Nsg188
g1739
sg189
(lp1742
sg191
g60
sg192
Nsg193
Nsg194
Nsbag2
(g3
g4
Ntp1743
Rp1744
(dp1745
g8
g11
sg172
Nsg173
(dp1746
sg175
Nsg26
g29
sg176
(lp1747
I6
aI33
asg178
Nsg179
VII Kings 6:33
p1748
sg181
(lp1749
sg183
g134
sg184
Nsg185
(lp1750
I6
aI33
asg187
Nsg188
g1748
sg189
(lp1751
sg191
g60
sg192
Nsg193
Nsg194
Nsbag2
(g3
g4
Ntp1752
Rp1753
(dp1754
g8
g11
sg172
Nsg173
(dp1755
sg175
Nsg26
g29
sg176
(lp1756
I7
aI1
asg178
Nsg179
VII Kings 7:1
p1757
sg181
(lp1758
sg183
g134
sg184
Nsg185
(lp1759
I7
aI1
asg187
Nsg188
g1757
sg189
(lp1760
sg191
g60
sg192
Nsg193
Nsg194
Nsbag2
(g3
g4
Ntp1761
Rp1762
(dp1763
g8
g11
sg172
Nsg173
(dp1764
sg175
Nsg26
g29
sg176
(lp1765
I7
aI2
asg178
Nsg179
VII Kings 7:2
p1766
sg181
(lp1767
sg183
g134
sg184
Nsg185
(lp1768
I7
aI2
asg187
Nsg188
g1766
sg189
(lp1769
sg191
g60
sg192
Nsg193
Nsg194
Nsbag2
(g3
g4
Ntp1770
Rp1771
(dp1772
g8
g11
sg172
Nsg173
(dp1773
sg175
Nsg26
g29
sg176
(lp1774
I7
aI3
asg178
Nsg179
VII Kings 7:3
p1775
sg181
(lp1776
sg183
g134
sg184
Nsg185
(lp1777
I7
aI3
asg187
Nsg188
g1775
sg189
(lp1778
sg191
g60
sg192
Nsg193
Nsg194
Nsbag2
(g3
g4
Ntp1779
Rp1780
(dp1781
g8
g11
sg172
Nsg173
(dp1782
sg175
Nsg26
g29
sg176
(lp1783
I7
aI4
asg178
Nsg179
VII Kings 7:4
p1784
sg181
(lp1785
sg183
g134
sg184
Nsg185
(lp1786
I7
aI4
asg187
Nsg188
g1784
sg189
(lp1787
sg191
g60
sg192
Nsg193
Nsg194
Nsbag2
(g3
g4
Ntp1788
Rp1789
(dp1790
g8
g11
sg172
Nsg173
(dp1791
sg175
Nsg26
g29
sg176
(lp1792
I7
aI5
asg178
Nsg179
VII Kings 7:5
p1793
sg181
(lp1794
sg183
g134
sg184
Nsg185
(lp1795
I7
aI5
asg187
Nsg188
g1793
sg189
(lp1796
sg191
g60
sg192
Nsg193
Nsg194
Nsbag2
(g3
g4
Ntp1797
Rp1798
(dp1799
g8
g11
sg172
Nsg173
(dp1800
sg175
Nsg26
g29
sg176
(lp1801
I7
aI6
asg178
Nsg179
VII Kings 7:6
p1802
sg181
(lp1803
sg183
g134
sg184
Nsg185
(lp1804
I7
aI6
asg187
Nsg188
g1802
sg189
(lp1805
sg191
g60
sg192
Nsg193
Nsg194
Nsbag2
(g3
g4
Ntp1806
Rp1807
(dp1808
g8
g11
sg172
Nsg173
(dp1809
sg175
Nsg26
g29
sg176
(lp1810
I7
aI7
asg178
Nsg179
VII Kings 7:7
p1811
sg181
(lp1812
sg183
g134
sg184
Nsg185
(lp1813
I7
aI7
asg187
Nsg188
g1811
sg189
(lp1814
sg191
g60
sg192
Nsg193
Nsg194
Nsbag2
(g3
g4
Ntp1815
Rp1816
(dp1817
g8
g11
sg172
Nsg173
(dp1818
sg175
Nsg26
g29
sg176
(lp1819
I7
aI8
asg178
Nsg179
VII Kings 7:8
p1820
sg181
(lp1821
sg183
g134
sg184
Nsg185
(lp1822
I7
aI8
asg187
Nsg188
g1820
sg189
(lp1823
sg191
g60
sg192
Nsg193
Nsg194
Nsbag2
(g3
g4
Ntp1824
Rp1825
(dp1826
g8
g11
sg172
Nsg173
(dp1827
sg175
Nsg26
g29
sg176
(lp1828
I7
aI9
asg178
Nsg179
VII Kings 7:9
p1829
sg181
(lp1830
sg183
g134
sg184
Nsg185
(lp1831
I7
aI9
asg187
Nsg188
g1829
sg189
(lp1832
sg191
g60
sg192
Nsg193
Nsg194
Nsbag2
(g3
g4
Ntp1833
Rp1834
(dp1835
g8
g11
sg172
Nsg173
(dp1836
sg175
Nsg26
g29
sg176
(lp1837
I7
aI10
asg178
Nsg179
VII Kings 7:10
p1838
sg181
(lp1839
sg183
g134
sg184
Nsg185
(lp1840
I7
aI10
asg187
Nsg188
g1838
sg189
(lp1841
sg191
g60
sg192
Nsg193
Nsg194
Nsbag2
(g3
g4
Ntp1842
Rp1843
(dp1844
g8
g11
sg172
Nsg173
(dp1845
sg175
Nsg26
g29
sg176
(lp1846
I7
aI11
asg178
Nsg179
VII Kings 7:11
p1847
sg181
(lp1848
sg183
g134
sg184
Nsg185
(lp1849
I7
aI11
asg187
Nsg188
g1847
sg189
(lp1850
sg191
g60
sg192
Nsg193
Nsg194
Nsbag2
(g3
g4
Ntp1851
Rp1852
(dp1853
g8
g11
sg172
Nsg173
(dp1854
sg175
Nsg26
g29
sg176
(lp1855
I7
aI12
asg178
Nsg179
VII Kings 7:12
p1856
sg181
(lp1857
sg183
g134
sg184
Nsg185
(lp1858
I7
aI12
asg187
Nsg188
g1856
sg189
(lp1859
sg191
g60
sg192
Nsg193
Nsg194
Nsbag2
(g3
g4
Ntp1860
Rp1861
(dp1862
g8
g11
sg172
Nsg173
(dp1863
sg175
Nsg26
g29
sg176
(lp1864
I7
aI13
asg178
Nsg179
VII Kings 7:13
p1865
sg181
(lp1866
sg183
g134
sg184
Nsg185
(lp1867
I7
aI13
asg187
Nsg188
g1865
sg189
(lp1868
sg191
g60
sg192
Nsg193
Nsg194
Nsbag2
(g3
g4
Ntp1869
Rp1870
(dp1871
g8
g11
sg172
Nsg173
(dp1872
sg175
Nsg26
g29
sg176
(lp1873
I7
aI14
asg178
Nsg179
VII Kings 7:14
p1874
sg181
(lp1875
sg183
g134
sg184
Nsg185
(lp1876
I7
aI14
asg187
Nsg188
g1874
sg189
(lp1877
sg191
g60
sg192
Nsg193
Nsg194
Nsbag2
(g3
g4
Ntp1878
Rp1879
(dp1880
g8
g11
sg172
Nsg173
(dp1881
sg175
Nsg26
g29
sg176
(lp1882
I7
aI15
asg178
Nsg179
VII Kings 7:15
p1883
sg181
(lp1884
sg183
g134
sg184
Nsg185
(lp1885
I7
aI15
asg187
Nsg188
g1883
sg189
(lp1886
sg191
g60
sg192
Nsg193
Nsg194
Nsbag2
(g3
g4
Ntp1887
Rp1888
(dp1889
g8
g11
sg172
Nsg173
(dp1890
sg175
Nsg26
g29
sg176
(lp1891
I7
aI16
asg178
Nsg179
VII Kings 7:16
p1892
sg181
(lp1893
sg183
g134
sg184
Nsg185
(lp1894
I7
aI16
asg187
Nsg188
g1892
sg189
(lp1895
sg191
g60
sg192
Nsg193
Nsg194
Nsbag2
(g3
g4
Ntp1896
Rp1897
(dp1898
g8
g11
sg172
Nsg173
(dp1899
sg175
Nsg26
g29
sg176
(lp1900
I7
aI17
asg178
Nsg179
VII Kings 7:17
p1901
sg181
(lp1902
sg183
g134
sg184
Nsg185
(lp1903
I7
aI17
asg187
Nsg188
g1901
sg189
(lp1904
sg191
g60
sg192
Nsg193
Nsg194
Nsbag2
(g3
g4
Ntp1905
Rp1906
(dp1907
g8
g11
sg172
Nsg173
(dp1908
sg175
Nsg26
g29
sg176
(lp1909
I7
aI18
asg178
Nsg179
VII Kings 7:18
p1910
sg181
(lp1911
sg183
g134
sg184
Nsg185
(lp1912
I7
aI18
asg187
Nsg188
g1910
sg189
(lp1913
sg191
g60
sg192
Nsg193
Nsg194
Nsbag2
(g3
g4
Ntp1914
Rp1915
(dp1916
g8
g11
sg172
Nsg173
(dp1917
sg175
Nsg26
g29
sg176
(lp1918
I7
aI19
asg178
Nsg179
VII Kings 7:19
p1919
sg181
(lp1920
sg183
g134
sg184
Nsg185
(lp1921
I7
aI19
asg187
Nsg188
g1919
sg189
(lp1922
sg191
g60
sg192
Nsg193
Nsg194
Nsbag2
(g3
g4
Ntp1923
Rp1924
(dp1925
g8
g11
sg172
Nsg173
(dp1926
sg175
Nsg26
g29
sg176
(lp1927
I7
aI20
asg178
Nsg179
VII Kings 7:20
p1928
sg181
(lp1929
sg183
g134
sg184
Nsg185
(lp1930
I7
aI20
asg187
Nsg188
g1928
sg189
(lp1931
sg191
g60
sg192
Nsg193
Nsg194
Nsbag2
(g3
g4
Ntp1932
Rp1933
(dp1934
g8
g11
sg172
Nsg173
(dp1935
sg175
Nsg26
g29
sg176
(lp1936
I8
aI1
asg178
Nsg179
VII Kings 8:1
p1937
sg181
(lp1938
sg183
g134
sg184
Nsg185
(lp1939
I8
aI1
asg187
Nsg188
g1937
sg189
(lp1940
sg191
g60
sg192
Nsg193
Nsg194
Nsbag2
(g3
g4
Ntp1941
Rp1942
(dp1943
g8
g11
sg172
Nsg173
(dp1944
sg175
Nsg26
g29
sg176
(lp1945
I8
aI2
asg178
Nsg179
VII Kings 8:2
p1946
sg181
(lp1947
sg183
g134
sg184
Nsg185
(lp1948
I8
aI2
asg187
Nsg188
g1946
sg189
(lp1949
sg191
g60
sg192
Nsg193
Nsg194
Nsbag2
(g3
g4
Ntp1950
Rp1951
(dp1952
g8
g11
sg172
Nsg173
(dp1953
sg175
Nsg26
g29
sg176
(lp1954
I8
aI3
asg178
Nsg179
VII Kings 8:3
p1955
sg181
(lp1956
sg183
g134
sg184
Nsg185
(lp1957
I8
aI3
asg187
Nsg188
g1955
sg189
(lp1958
sg191
g60
sg192
Nsg193
Nsg194
Nsbag2
(g3
g4
Ntp1959
Rp1960
(dp1961
g8
g11
sg172
Nsg173
(dp1962
sg175
Nsg26
g29
sg176
(lp1963
I8
aI4
asg178
Nsg179
VII Kings 8:4
p1964
sg181
(lp1965
sg183
g134
sg184
Nsg185
(lp1966
I8
aI4
asg187
Nsg188
g1964
sg189
(lp1967
sg191
g60
sg192
Nsg193
Nsg194
Nsbag2
(g3
g4
Ntp1968
Rp1969
(dp1970
g8
g11
sg172
Nsg173
(dp1971
sg175
Nsg26
g29
sg176
(lp1972
I8
aI5
asg178
Nsg179
VII Kings 8:5
p1973
sg181
(lp1974
sg183
g134
sg184
Nsg185
(lp1975
I8
aI5
asg187
Nsg188
g1973
sg189
(lp1976
sg191
g60
sg192
Nsg193
Nsg194
Nsbag2
(g3
g4
Ntp1977
Rp1978
(dp1979
g8
g11
sg172
Nsg173
(dp1980
sg175
Nsg26
g29
sg176
(lp1981
I8
aI6
asg178
Nsg179
VII Kings 8:6
p1982
sg181
(lp1983
sg183
g134
sg184
Nsg185
(lp1984
I8
aI6
asg187
Nsg188
g1982
sg189
(lp1985
sg191
g60
sg192
Nsg193
Nsg194
Nsbag2
(g3
g4
Ntp1986
Rp1987
(dp1988
g8
g11
sg172
Nsg173
(dp1989
sg175
Nsg26
g29
sg176
(lp1990
I8
aI7
asg178
Nsg179
VII Kings 8:7
p1991
sg181
(lp1992
sg183
g134
sg184
Nsg185
(lp1993
I8
aI7
asg187
Nsg188
g1991
sg189
(lp1994
sg191
g60
sg192
Nsg193
Nsg194
Nsbag2
(g3
g4
Ntp1995
Rp1996
(dp1997
g8
g11
sg172
Nsg173
(dp1998
sg175
Nsg26
g29
sg176
(lp1999
I8
aI8
asg178
Nsg179
VII Kings 8:8
p2000
sg181
(lp2001
sg183
g134
sg184
Nsg185
(lp2002
I8
aI8
asg187
Nsg188
g2000
sg189
(lp2003
sg191
g60
sg192
Nsg193
Nsg194
Nsbag2
(g3
g4
Ntp2004
Rp2005
(dp2006
g8
g11
sg172
Nsg173
(dp2007
sg175
Nsg26
g29
sg176
(lp2008
I8
aI9
asg178
Nsg179
VII Kings 8:9
p2009
sg181
(lp2010
sg183
g134
sg184
Nsg185
(lp2011
I8
aI9
asg187
Nsg188
g2009
sg189
(lp2012
sg191
g60
sg192
Nsg193
Nsg194
Nsbag2
(g3
g4
Ntp2013
Rp2014
(dp2015
g8
g11
sg172
Nsg173
(dp2016
sg175
Nsg26
g29
sg176
(lp2017
I8
aI10
asg178
Nsg179
VII Kings 8:10
p2018
sg181
(lp2019
sg183
g134
sg184
Nsg185
(lp2020
I8
aI10
asg187
Nsg188
g2018
sg189
(lp2021
sg191
g60
sg192
Nsg193
Nsg194
Nsbag2
(g3
g4
Ntp2022
Rp2023
(dp2024
g8
g11
sg172
Nsg173
(dp2025
sg175
Nsg26
g29
sg176
(lp2026
I8
aI11
asg178
Nsg179
VII Kings 8:11
p2027
sg181
(lp2028
sg183
g134
sg184
Nsg185
(lp2029
I8
aI11
asg187
Nsg188
g2027
sg189
(lp2030
sg191
g60
sg192
Nsg193
Nsg194
Nsbag2
(g3
g4
Ntp2031
Rp2032
(dp2033
g8
g11
sg172
Nsg173
(dp2034
sg175
Nsg26
g29
sg176
(lp2035
I8
aI12
asg178
Nsg179
VII Kings 8:12
p2036
sg181
(lp2037
sg183
g134
sg184
Nsg185
(lp2038
I8
aI12
asg187
Nsg188
g2036
sg189
(lp2039
sg191
g60
sg192
Nsg193
Nsg194
Nsbag2
(g3
g4
Ntp2040
Rp2041
(dp2042
g8
g11
sg172
Nsg173
(dp2043
sg175
Nsg26
g29
sg176
(lp2044
I8
aI13
asg178
Nsg179
VII Kings 8:13
p2045
sg181
(lp2046
sg183
g134
sg184
Nsg185
(lp2047
I8
aI13
asg187
Nsg188
g2045
sg189
(lp2048
sg191
g60
sg192
Nsg193
Nsg194
Nsbag2
(g3
g4
Ntp2049
Rp2050
(dp2051
g8
g11
sg172
Nsg173
(dp2052
sg175
Nsg26
g29
sg176
(lp2053
I8
aI14
asg178
Nsg179
VII Kings 8:14
p2054
sg181
(lp2055
sg183
g134
sg184
Nsg185
(lp2056
I8
aI14
asg187
Nsg188
g2054
sg189
(lp2057
sg191
g60
sg192
Nsg193
Nsg194
Nsbag2
(g3
g4
Ntp2058
Rp2059
(dp2060
g8
g11
sg172
Nsg173
(dp2061
sg175
Nsg26
g29
sg176
(lp2062
I8
aI15
asg178
Nsg179
VII Kings 8:15
p2063
sg181
(lp2064
sg183
g134
sg184
Nsg185
(lp2065
I8
aI15
asg187
Nsg188
g2063
sg189
(lp2066
sg191
g60
sg192
Nsg193
Nsg194
Nsbag2
(g3
g4
Ntp2067
Rp2068
(dp2069
g8
g11
sg172
Nsg173
(dp2070
sg175
Nsg26
g29
sg176
(lp2071
I8
aI16
asg178
Nsg179
VII Kings 8:16
p2072
sg181
(lp2073
sg183
g134
sg184
Nsg185
(lp2074
I8
aI16
asg187
Nsg188
g2072
sg189
(lp2075
sg191
g60
sg192
Nsg193
Nsg194
Nsbag2
(g3
g4
Ntp2076
Rp2077
(dp2078
g8
g11
sg172
Nsg173
(dp2079
sg175
Nsg26
g29
sg176
(lp2080
I8
aI17
asg178
Nsg179
VII Kings 8:17
p2081
sg181
(lp2082
sg183
g134
sg184
Nsg185
(lp2083
I8
aI17
asg187
Nsg188
g2081
sg189
(lp2084
sg191
g60
sg192
Nsg193
Nsg194
Nsbag2
(g3
g4
Ntp2085
Rp2086
(dp2087
g8
g11
sg172
Nsg173
(dp2088
sg175
Nsg26
g29
sg176
(lp2089
I8
aI18
asg178
Nsg179
VII Kings 8:18
p2090
sg181
(lp2091
sg183
g134
sg184
Nsg185
(lp2092
I8
aI18
asg187
Nsg188
g2090
sg189
(lp2093
sg191
g60
sg192
Nsg193
Nsg194
Nsbag2
(g3
g4
Ntp2094
Rp2095
(dp2096
g8
g11
sg172
Nsg173
(dp2097
sg175
Nsg26
g29
sg176
(lp2098
I8
aI19
asg178
Nsg179
VII Kings 8:19
p2099
sg181
(lp2100
sg183
g134
sg184
Nsg185
(lp2101
I8
aI19
asg187
Nsg188
g2099
sg189
(lp2102
sg191
g60
sg192
Nsg193
Nsg194
Nsbag2
(g3
g4
Ntp2103
Rp2104
(dp2105
g8
g11
sg172
Nsg173
(dp2106
sg175
Nsg26
g29
sg176
(lp2107
I8
aI20
asg178
Nsg179
VII Kings 8:20
p2108
sg181
(lp2109
sg183
g134
sg184
Nsg185
(lp2110
I8
aI20
asg187
Nsg188
g2108
sg189
(lp2111
sg191
g60
sg192
Nsg193
Nsg194
Nsbag2
(g3
g4
Ntp2112
Rp2113
(dp2114
g8
g11
sg172
Nsg173
(dp2115
sg175
Nsg26
g29
sg176
(lp2116
I8
aI21
asg178
Nsg179
VII Kings 8:21
p2117
sg181
(lp2118
sg183
g134
sg184
Nsg185
(lp2119
I8
aI21
asg187
Nsg188
g2117
sg189
(lp2120
sg191
g60
sg192
Nsg193
Nsg194
Nsbag2
(g3
g4
Ntp2121
Rp2122
(dp2123
g8
g11
sg172
Nsg173
(dp2124
sg175
Nsg26
g29
sg176
(lp2125
I8
aI22
asg178
Nsg179
VII Kings 8:22
p2126
sg181
(lp2127
sg183
g134
sg184
Nsg185
(lp2128
I8
aI22
asg187
Nsg188
g2126
sg189
(lp2129
sg191
g60
sg192
Nsg193
Nsg194
Nsbag2
(g3
g4
Ntp2130
Rp2131
(dp2132
g8
g11
sg172
Nsg173
(dp2133
sg175
Nsg26
g29
sg176
(lp2134
I8
aI23
asg178
Nsg179
VII Kings 8:23
p2135
sg181
(lp2136
sg183
g134
sg184
Nsg185
(lp2137
I8
aI23
asg187
Nsg188
g2135
sg189
(lp2138
sg191
g60
sg192
Nsg193
Nsg194
Nsbag2
(g3
g4
Ntp2139
Rp2140
(dp2141
g8
g11
sg172
Nsg173
(dp2142
sg175
Nsg26
g29
sg176
(lp2143
I8
aI24
asg178
Nsg179
VII Kings 8:24
p2144
sg181
(lp2145
sg183
g134
sg184
Nsg185
(lp2146
I8
aI24
asg187
Nsg188
g2144
sg189
(lp2147
sg191
g60
sg192
Nsg193
Nsg194
Nsbag2
(g3
g4
Ntp2148
Rp2149
(dp2150
g8
g11
sg172
Nsg173
(dp2151
sg175
Nsg26
g29
sg176
(lp2152
I8
aI25
asg178
Nsg179
VII Kings 8:25
p2153
sg181
(lp2154
sg183
g134
sg184
Nsg185
(lp2155
I8
aI25
asg187
Nsg188
g2153
sg189
(lp2156
sg191
g60
sg192
Nsg193
Nsg194
Nsbag2
(g3
g4
Ntp2157
Rp2158
(dp2159
g8
g11
sg172
Nsg173
(dp2160
sg175
Nsg26
g29
sg176
(lp2161
I8
aI26
asg178
Nsg179
VII Kings 8:26
p2162
sg181
(lp2163
sg183
g134
sg184
Nsg185
(lp2164
I8
aI26
asg187
Nsg188
g2162
sg189
(lp2165
sg191
g60
sg192
Nsg193
Nsg194
Nsbag2
(g3
g4
Ntp2166
Rp2167
(dp2168
g8
g11
sg172
Nsg173
(dp2169
sg175
Nsg26
g29
sg176
(lp2170
I8
aI27
asg178
Nsg179
VII Kings 8:27
p2171
sg181
(lp2172
sg183
g134
sg184
Nsg185
(lp2173
I8
aI27
asg187
Nsg188
g2171
sg189
(lp2174
sg191
g60
sg192
Nsg193
Nsg194
Nsbag2
(g3
g4
Ntp2175
Rp2176
(dp2177
g8
g11
sg172
Nsg173
(dp2178
sg175
Nsg26
g29
sg176
(lp2179
I8
aI28
asg178
Nsg179
VII Kings 8:28
p2180
sg181
(lp2181
sg183
g134
sg184
Nsg185
(lp2182
I8
aI28
asg187
Nsg188
g2180
sg189
(lp2183
sg191
g60
sg192
Nsg193
Nsg194
Nsbag2
(g3
g4
Ntp2184
Rp2185
(dp2186
g8
g11
sg172
Nsg173
(dp2187
sg175
Nsg26
g29
sg176
(lp2188
I8
aI29
asg178
Nsg179
VII Kings 8:29
p2189
sg181
(lp2190
sg183
g134
sg184
Nsg185
(lp2191
I8
aI29
asg187
Nsg188
g2189
sg189
(lp2192
sg191
g60
sg192
Nsg193
Nsg194
Nsbag2
(g3
g4
Ntp2193
Rp2194
(dp2195
g8
g11
sg172
Nsg173
(dp2196
sg175
Nsg26
g29
sg176
(lp2197
I9
aI1
asg178
Nsg179
VII Kings 9:1
p2198
sg181
(lp2199
sg183
g134
sg184
Nsg185
(lp2200
I9
aI1
asg187
Nsg188
g2198
sg189
(lp2201
sg191
g60
sg192
Nsg193
Nsg194
Nsbag2
(g3
g4
Ntp2202
Rp2203
(dp2204
g8
g11
sg172
Nsg173
(dp2205
sg175
Nsg26
g29
sg176
(lp2206
I9
aI2
asg178
Nsg179
VII Kings 9:2
p2207
sg181
(lp2208
sg183
g134
sg184
Nsg185
(lp2209
I9
aI2
asg187
Nsg188
g2207
sg189
(lp2210
sg191
g60
sg192
Nsg193
Nsg194
Nsbag2
(g3
g4
Ntp2211
Rp2212
(dp2213
g8
g11
sg172
Nsg173
(dp2214
sg175
Nsg26
g29
sg176
(lp2215
I9
aI3
asg178
Nsg179
VII Kings 9:3
p2216
sg181
(lp2217
sg183
g134
sg184
Nsg185
(lp2218
I9
aI3
asg187
Nsg188
g2216
sg189
(lp2219
sg191
g60
sg192
Nsg193
Nsg194
Nsbag2
(g3
g4
Ntp2220
Rp2221
(dp2222
g8
g11
sg172
Nsg173
(dp2223
sg175
Nsg26
g29
sg176
(lp2224
I9
aI4
asg178
Nsg179
VII Kings 9:4
p2225
sg181
(lp2226
sg183
g134
sg184
Nsg185
(lp2227
I9
aI4
asg187
Nsg188
g2225
sg189
(lp2228
sg191
g60
sg192
Nsg193
Nsg194
Nsbag2
(g3
g4
Ntp2229
Rp2230
(dp2231
g8
g11
sg172
Nsg173
(dp2232
sg175
Nsg26
g29
sg176
(lp2233
I9
aI5
asg178
Nsg179
VII Kings 9:5
p2234
sg181
(lp2235
sg183
g134
sg184
Nsg185
(lp2236
I9
aI5
asg187
Nsg188
g2234
sg189
(lp2237
sg191
g60
sg192
Nsg193
Nsg194
Nsbag2
(g3
g4
Ntp2238
Rp2239
(dp2240
g8
g11
sg172
Nsg173
(dp2241
sg175
Nsg26
g29
sg176
(lp2242
I9
aI6
asg178
Nsg179
VII Kings 9:6
p2243
sg181
(lp2244
sg183
g134
sg184
Nsg185
(lp2245
I9
aI6
asg187
Nsg188
g2243
sg189
(lp2246
sg191
g60
sg192
Nsg193
Nsg194
Nsbag2
(g3
g4
Ntp2247
Rp2248
(dp2249
g8
g11
sg172
Nsg173
(dp2250
sg175
Nsg26
g29
sg176
(lp2251
I9
aI7
asg178
Nsg179
VII Kings 9:7
p2252
sg181
(lp2253
sg183
g134
sg184
Nsg185
(lp2254
I9
aI7
asg187
Nsg188
g2252
sg189
(lp2255
sg191
g60
sg192
Nsg193
Nsg194
Nsbag2
(g3
g4
Ntp2256
Rp2257
(dp2258
g8
g11
sg172
Nsg173
(dp2259
sg175
Nsg26
g29
sg176
(lp2260
I9
aI8
asg178
Nsg179
VII Kings 9:8
p2261
sg181
(lp2262
sg183
g134
sg184
Nsg185
(lp2263
I9
aI8
asg187
Nsg188
g2261
sg189
(lp2264
sg191
g60
sg192
Nsg193
Nsg194
Nsbag2
(g3
g4
Ntp2265
Rp2266
(dp2267
g8
g11
sg172
Nsg173
(dp2268
sg175
Nsg26
g29
sg176
(lp2269
I9
aI9
asg178
Nsg179
VII Kings 9:9
p2270
sg181
(lp2271
sg183
g134
sg184
Nsg185
(lp2272
I9
aI9
asg187
Nsg188
g2270
sg189
(lp2273
sg191
g60
sg192
Nsg193
Nsg194
Nsbag2
(g3
g4
Ntp2274
Rp2275
(dp2276
g8
g11
sg172
Nsg173
(dp2277
sg175
Nsg26
g29
sg176
(lp2278
I9
aI10
asg178
Nsg179
VII Kings 9:10
p2279
sg181
(lp2280
sg183
g134
sg184
Nsg185
(lp2281
I9
aI10
asg187
Nsg188
g2279
sg189
(lp2282
sg191
g60
sg192
Nsg193
Nsg194
Nsbag2
(g3
g4
Ntp2283
Rp2284
(dp2285
g8
g11
sg172
Nsg173
(dp2286
sg175
Nsg26
g29
sg176
(lp2287
I9
aI11
asg178
Nsg179
VII Kings 9:11
p2288
sg181
(lp2289
sg183
g134
sg184
Nsg185
(lp2290
I9
aI11
asg187
Nsg188
g2288
sg189
(lp2291
sg191
g60
sg192
Nsg193
Nsg194
Nsbag2
(g3
g4
Ntp2292
Rp2293
(dp2294
g8
g11
sg172
Nsg173
(dp2295
sg175
Nsg26
g29
sg176
(lp2296
I9
aI12
asg178
Nsg179
VII Kings 9:12
p2297
sg181
(lp2298
sg183
g134
sg184
Nsg185
(lp2299
I9
aI12
asg187
Nsg188
g2297
sg189
(lp2300
sg191
g60
sg192
Nsg193
Nsg194
Nsbag2
(g3
g4
Ntp2301
Rp2302
(dp2303
g8
g11
sg172
Nsg173
(dp2304
sg175
Nsg26
g29
sg176
(lp2305
I9
aI13
asg178
Nsg179
VII Kings 9:13
p2306
sg181
(lp2307
sg183
g134
sg184
Nsg185
(lp2308
I9
aI13
asg187
Nsg188
g2306
sg189
(lp2309
sg191
g60
sg192
Nsg193
Nsg194
Nsbag2
(g3
g4
Ntp2310
Rp2311
(dp2312
g8
g11
sg172
Nsg173
(dp2313
sg175
Nsg26
g29
sg176
(lp2314
I9
aI14
asg178
Nsg179
VII Kings 9:14
p2315
sg181
(lp2316
sg183
g134
sg184
Nsg185
(lp2317
I9
aI14
asg187
Nsg188
g2315
sg189
(lp2318
sg191
g60
sg192
Nsg193
Nsg194
Nsbag2
(g3
g4
Ntp2319
Rp2320
(dp2321
g8
g11
sg172
Nsg173
(dp2322
sg175
Nsg26
g29
sg176
(lp2323
I9
aI15
asg178
Nsg179
VII Kings 9:15
p2324
sg181
(lp2325
sg183
g134
sg184
Nsg185
(lp2326
I9
aI15
asg187
Nsg188
g2324
sg189
(lp2327
sg191
g60
sg192
Nsg193
Nsg194
Nsbag2
(g3
g4
Ntp2328
Rp2329
(dp2330
g8
g11
sg172
Nsg173
(dp2331
sg175
Nsg26
g29
sg176
(lp2332
I9
aI16
asg178
Nsg179
VII Kings 9:16
p2333
sg181
(lp2334
sg183
g134
sg184
Nsg185
(lp2335
I9
aI16
asg187
Nsg188
g2333
sg189
(lp2336
sg191
g60
sg192
Nsg193
Nsg194
Nsbag2
(g3
g4
Ntp2337
Rp2338
(dp2339
g8
g11
sg172
Nsg173
(dp2340
sg175
Nsg26
g29
sg176
(lp2341
I9
aI17
asg178
Nsg179
VII Kings 9:17
p2342
sg181
(lp2343
sg183
g134
sg184
Nsg185
(lp2344
I9
aI17
asg187
Nsg188
g2342
sg189
(lp2345
sg191
g60
sg192
Nsg193
Nsg194
Nsbag2
(g3
g4
Ntp2346
Rp2347
(dp2348
g8
g11
sg172
Nsg173
(dp2349
sg175
Nsg26
g29
sg176
(lp2350
I9
aI18
asg178
Nsg179
VII Kings 9:18
p2351
sg181
(lp2352
sg183
g134
sg184
Nsg185
(lp2353
I9
aI18
asg187
Nsg188
g2351
sg189
(lp2354
sg191
g60
sg192
Nsg193
Nsg194
Nsbag2
(g3
g4
Ntp2355
Rp2356
(dp2357
g8
g11
sg172
Nsg173
(dp2358
sg175
Nsg26
g29
sg176
(lp2359
I9
aI19
asg178
Nsg179
VII Kings 9:19
p2360
sg181
(lp2361
sg183
g134
sg184
Nsg185
(lp2362
I9
aI19
asg187
Nsg188
g2360
sg189
(lp2363
sg191
g60
sg192
Nsg193
Nsg194
Nsbag2
(g3
g4
Ntp2364
Rp2365
(dp2366
g8
g11
sg172
Nsg173
(dp2367
sg175
Nsg26
g29
sg176
(lp2368
I9
aI20
asg178
Nsg179
VII Kings 9:20
p2369
sg181
(lp2370
sg183
g134
sg184
Nsg185
(lp2371
I9
aI20
asg187
Nsg188
g2369
sg189
(lp2372
sg191
g60
sg192
Nsg193
Nsg194
Nsbag2
(g3
g4
Ntp2373
Rp2374
(dp2375
g8
g11
sg172
Nsg173
(dp2376
sg175
Nsg26
g29
sg176
(lp2377
I9
aI21
asg178
Nsg179
VII Kings 9:21
p2378
sg181
(lp2379
sg183
g134
sg184
Nsg185
(lp2380
I9
aI21
asg187
Nsg188
g2378
sg189
(lp2381
sg191
g60
sg192
Nsg193
Nsg194
Nsbag2
(g3
g4
Ntp2382
Rp2383
(dp2384
g8
g11
sg172
Nsg173
(dp2385
sg175
Nsg26
g29
sg176
(lp2386
I9
aI22
asg178
Nsg179
VII Kings 9:22
p2387
sg181
(lp2388
sg183
g134
sg184
Nsg185
(lp2389
I9
aI22
asg187
Nsg188
g2387
sg189
(lp2390
sg191
g60
sg192
Nsg193
Nsg194
Nsbag2
(g3
g4
Ntp2391
Rp2392
(dp2393
g8
g11
sg172
Nsg173
(dp2394
sg175
Nsg26
g29
sg176
(lp2395
I9
aI23
asg178
Nsg179
VII Kings 9:23
p2396
sg181
(lp2397
sg183
g134
sg184
Nsg185
(lp2398
I9
aI23
asg187
Nsg188
g2396
sg189
(lp2399
sg191
g60
sg192
Nsg193
Nsg194
Nsbag2
(g3
g4
Ntp2400
Rp2401
(dp2402
g8
g11
sg172
Nsg173
(dp2403
sg175
Nsg26
g29
sg176
(lp2404
I9
aI24
asg178
Nsg179
VII Kings 9:24
p2405
sg181
(lp2406
sg183
g134
sg184
Nsg185
(lp2407
I9
aI24
asg187
Nsg188
g2405
sg189
(lp2408
sg191
g60
sg192
Nsg193
Nsg194
Nsbag2
(g3
g4
Ntp2409
Rp2410
(dp2411
g8
g11
sg172
Nsg173
(dp2412
sg175
Nsg26
g29
sg176
(lp2413
I9
aI25
asg178
Nsg179
VII Kings 9:25
p2414
sg181
(lp2415
sg183
g134
sg184
Nsg185
(lp2416
I9
aI25
asg187
Nsg188
g2414
sg189
(lp2417
sg191
g60
sg192
Nsg193
Nsg194
Nsbag2
(g3
g4
Ntp2418
Rp2419
(dp2420
g8
g11
sg172
Nsg173
(dp2421
sg175
Nsg26
g29
sg176
(lp2422
I9
aI26
asg178
Nsg179
VII Kings 9:26
p2423
sg181
(lp2424
sg183
g134
sg184
Nsg185
(lp2425
I9
aI26
asg187
Nsg188
g2423
sg189
(lp2426
sg191
g60
sg192
Nsg193
Nsg194
Nsbag2
(g3
g4
Ntp2427
Rp2428
(dp2429
g8
g11
sg172
Nsg173
(dp2430
sg175
Nsg26
g29
sg176
(lp2431
I9
aI27
asg178
Nsg179
VII Kings 9:27
p2432
sg181
(lp2433
sg183
g134
sg184
Nsg185
(lp2434
I9
aI27
asg187
Nsg188
g2432
sg189
(lp2435
sg191
g60
sg192
Nsg193
Nsg194
Nsbag2
(g3
g4
Ntp2436
Rp2437
(dp2438
g8
g11
sg172
Nsg173
(dp2439
sg175
Nsg26
g29
sg176
(lp2440
I9
aI28
asg178
Nsg179
VII Kings 9:28
p2441
sg181
(lp2442
sg183
g134
sg184
Nsg185
(lp2443
I9
aI28
asg187
Nsg188
g2441
sg189
(lp2444
sg191
g60
sg192
Nsg193
Nsg194
Nsbag2
(g3
g4
Ntp2445
Rp2446
(dp2447
g8
g11
sg172
Nsg173
(dp2448
sg175
Nsg26
g29
sg176
(lp2449
I9
aI29
asg178
Nsg179
VII Kings 9:29
p2450
sg181
(lp2451
sg183
g134
sg184
Nsg185
(lp2452
I9
aI29
asg187
Nsg188
g2450
sg189
(lp2453
sg191
g60
sg192
Nsg193
Nsg194
Nsbag2
(g3
g4
Ntp2454
Rp2455
(dp2456
g8
g11
sg172
Nsg173
(dp2457
sg175
Nsg26
g29
sg176
(lp2458
I9
aI30
asg178
Nsg179
VII Kings 9:30
p2459
sg181
(lp2460
sg183
g134
sg184
Nsg185
(lp2461
I9
aI30
asg187
Nsg188
g2459
sg189
(lp2462
sg191
g60
sg192
Nsg193
Nsg194
Nsbag2
(g3
g4
Ntp2463
Rp2464
(dp2465
g8
g11
sg172
Nsg173
(dp2466
sg175
Nsg26
g29
sg176
(lp2467
I9
aI31
asg178
Nsg179
VII Kings 9:31
p2468
sg181
(lp2469
sg183
g134
sg184
Nsg185
(lp2470
I9
aI31
asg187
Nsg188
g2468
sg189
(lp2471
sg191
g60
sg192
Nsg193
Nsg194
Nsbag2
(g3
g4
Ntp2472
Rp2473
(dp2474
g8
g11
sg172
Nsg173
(dp2475
sg175
Nsg26
g29
sg176
(lp2476
I9
aI32
asg178
Nsg179
VII Kings 9:32
p2477
sg181
(lp2478
sg183
g134
sg184
Nsg185
(lp2479
I9
aI32
asg187
Nsg188
g2477
sg189
(lp2480
sg191
g60
sg192
Nsg193
Nsg194
Nsbag2
(g3
g4
Ntp2481
Rp2482
(dp2483
g8
g11
sg172
Nsg173
(dp2484
sg175
Nsg26
g29
sg176
(lp2485
I9
aI33
asg178
Nsg179
VII Kings 9:33
p2486
sg181
(lp2487
sg183
g134
sg184
Nsg185
(lp2488
I9
aI33
asg187
Nsg188
g2486
sg189
(lp2489
sg191
g60
sg192
Nsg193
Nsg194
Nsbag2
(g3
g4
Ntp2490
Rp2491
(dp2492
g8
g11
sg172
Nsg173
(dp2493
sg175
Nsg26
g29
sg176
(lp2494
I9
aI34
asg178
Nsg179
VII Kings 9:34
p2495
sg181
(lp2496
sg183
g134
sg184
Nsg185
(lp2497
I9
aI34
asg187
Nsg188
g2495
sg189
(lp2498
sg191
g60
sg192
Nsg193
Nsg194
Nsbag2
(g3
g4
Ntp2499
Rp2500
(dp2501
g8
g11
sg172
Nsg173
(dp2502
sg175
Nsg26
g29
sg176
(lp2503
I9
aI35
asg178
Nsg179
VII Kings 9:35
p2504
sg181
(lp2505
sg183
g134
sg184
Nsg185
(lp2506
I9
aI35
asg187
Nsg188
g2504
sg189
(lp2507
sg191
g60
sg192
Nsg193
Nsg194
Nsbag2
(g3
g4
Ntp2508
Rp2509
(dp2510
g8
g11
sg172
Nsg173
(dp2511
sg175
Nsg26
g29
sg176
(lp2512
I9
aI36
asg178
Nsg179
VII Kings 9:36
p2513
sg181
(lp2514
sg183
g134
sg184
Nsg185
(lp2515
I9
aI36
asg187
Nsg188
g2513
sg189
(lp2516
sg191
g60
sg192
Nsg193
Nsg194
Nsbag2
(g3
g4
Ntp2517
Rp2518
(dp2519
g8
g11
sg172
Nsg173
(dp2520
sg175
Nsg26
g29
sg176
(lp2521
I9
aI37
asg178
Nsg179
VII Kings 9:37
p2522
sg181
(lp2523
sg183
g134
sg184
Nsg185
(lp2524
I9
aI37
asg187
Nsg188
g2522
sg189
(lp2525
sg191
g60
sg192
Nsg193
Nsg194
Nsbag2
(g3
g4
Ntp2526
Rp2527
(dp2528
g8
g11
sg172
Nsg173
(dp2529
sg175
Nsg26
g29
sg176
(lp2530
I10
aI1
asg178
Nsg179
VII Kings 10:1
p2531
sg181
(lp2532
sg183
g134
sg184
Nsg185
(lp2533
I10
aI1
asg187
Nsg188
g2531
sg189
(lp2534
sg191
g60
sg192
Nsg193
Nsg194
Nsbag2
(g3
g4
Ntp2535
Rp2536
(dp2537
g8
g11
sg172
Nsg173
(dp2538
sg175
Nsg26
g29
sg176
(lp2539
I10
aI2
asg178
Nsg179
VII Kings 10:2
p2540
sg181
(lp2541
sg183
g134
sg184
Nsg185
(lp2542
I10
aI2
asg187
Nsg188
g2540
sg189
(lp2543
sg191
g60
sg192
Nsg193
Nsg194
Nsbag2
(g3
g4
Ntp2544
Rp2545
(dp2546
g8
g11
sg172
Nsg173
(dp2547
sg175
Nsg26
g29
sg176
(lp2548
I10
aI3
asg178
Nsg179
VII Kings 10:3
p2549
sg181
(lp2550
sg183
g134
sg184
Nsg185
(lp2551
I10
aI3
asg187
Nsg188
g2549
sg189
(lp2552
sg191
g60
sg192
Nsg193
Nsg194
Nsbag2
(g3
g4
Ntp2553
Rp2554
(dp2555
g8
g11
sg172
Nsg173
(dp2556
sg175
Nsg26
g29
sg176
(lp2557
I10
aI4
asg178
Nsg179
VII Kings 10:4
p2558
sg181
(lp2559
sg183
g134
sg184
Nsg185
(lp2560
I10
aI4
asg187
Nsg188
g2558
sg189
(lp2561
sg191
g60
sg192
Nsg193
Nsg194
Nsbag2
(g3
g4
Ntp2562
Rp2563
(dp2564
g8
g11
sg172
Nsg173
(dp2565
sg175
Nsg26
g29
sg176
(lp2566
I10
aI5
asg178
Nsg179
VII Kings 10:5
p2567
sg181
(lp2568
sg183
g134
sg184
Nsg185
(lp2569
I10
aI5
asg187
Nsg188
g2567
sg189
(lp2570
sg191
g60
sg192
Nsg193
Nsg194
Nsbag2
(g3
g4
Ntp2571
Rp2572
(dp2573
g8
g11
sg172
Nsg173
(dp2574
sg175
Nsg26
g29
sg176
(lp2575
I10
aI6
asg178
Nsg179
VII Kings 10:6
p2576
sg181
(lp2577
sg183
g134
sg184
Nsg185
(lp2578
I10
aI6
asg187
Nsg188
g2576
sg189
(lp2579
sg191
g60
sg192
Nsg193
Nsg194
Nsbag2
(g3
g4
Ntp2580
Rp2581
(dp2582
g8
g11
sg172
Nsg173
(dp2583
sg175
Nsg26
g29
sg176
(lp2584
I10
aI7
asg178
Nsg179
VII Kings 10:7
p2585
sg181
(lp2586
sg183
g134
sg184
Nsg185
(lp2587
I10
aI7
asg187
Nsg188
g2585
sg189
(lp2588
sg191
g60
sg192
Nsg193
Nsg194
Nsbag2
(g3
g4
Ntp2589
Rp2590
(dp2591
g8
g11
sg172
Nsg173
(dp2592
sg175
Nsg26
g29
sg176
(lp2593
I10
aI8
asg178
Nsg179
VII Kings 10:8
p2594
sg181
(lp2595
sg183
g134
sg184
Nsg185
(lp2596
I10
aI8
asg187
Nsg188
g2594
sg189
(lp2597
sg191
g60
sg192
Nsg193
Nsg194
Nsbag2
(g3
g4
Ntp2598
Rp2599
(dp2600
g8
g11
sg172
Nsg173
(dp2601
sg175
Nsg26
g29
sg176
(lp2602
I10
aI9
asg178
Nsg179
VII Kings 10:9
p2603
sg181
(lp2604
sg183
g134
sg184
Nsg185
(lp2605
I10
aI9
asg187
Nsg188
g2603
sg189
(lp2606
sg191
g60
sg192
Nsg193
Nsg194
Nsbag2
(g3
g4
Ntp2607
Rp2608
(dp2609
g8
g11
sg172
Nsg173
(dp2610
sg175
Nsg26
g29
sg176
(lp2611
I10
aI10
asg178
Nsg179
VII Kings 10:10
p2612
sg181
(lp2613
sg183
g134
sg184
Nsg185
(lp2614
I10
aI10
asg187
Nsg188
g2612
sg189
(lp2615
sg191
g60
sg192
Nsg193
Nsg194
Nsbag2
(g3
g4
Ntp2616
Rp2617
(dp2618
g8
g11
sg172
Nsg173
(dp2619
sg175
Nsg26
g29
sg176
(lp2620
I10
aI11
asg178
Nsg179
VII Kings 10:11
p2621
sg181
(lp2622
sg183
g134
sg184
Nsg185
(lp2623
I10
aI11
asg187
Nsg188
g2621
sg189
(lp2624
sg191
g60
sg192
Nsg193
Nsg194
Nsbag2
(g3
g4
Ntp2625
Rp2626
(dp2627
g8
g11
sg172
Nsg173
(dp2628
sg175
Nsg26
g29
sg176
(lp2629
I10
aI12
asg178
Nsg179
VII Kings 10:12
p2630
sg181
(lp2631
sg183
g134
sg184
Nsg185
(lp2632
I10
aI12
asg187
Nsg188
g2630
sg189
(lp2633
sg191
g60
sg192
Nsg193
Nsg194
Nsbag2
(g3
g4
Ntp2634
Rp2635
(dp2636
g8
g11
sg172
Nsg173
(dp2637
sg175
Nsg26
g29
sg176
(lp2638
I10
aI13
asg178
Nsg179
VII Kings 10:13
p2639
sg181
(lp2640
sg183
g134
sg184
Nsg185
(lp2641
I10
aI13
asg187
Nsg188
g2639
sg189
(lp2642
sg191
g60
sg192
Nsg193
Nsg194
Nsbag2
(g3
g4
Ntp2643
Rp2644
(dp2645
g8
g11
sg172
Nsg173
(dp2646
sg175
Nsg26
g29
sg176
(lp2647
I10
aI14
asg178
Nsg179
VII Kings 10:14
p2648
sg181
(lp2649
sg183
g134
sg184
Nsg185
(lp2650
I10
aI14
asg187
Nsg188
g2648
sg189
(lp2651
sg191
g60
sg192
Nsg193
Nsg194
Nsbag2
(g3
g4
Ntp2652
Rp2653
(dp2654
g8
g11
sg172
Nsg173
(dp2655
sg175
Nsg26
g29
sg176
(lp2656
I10
aI15
asg178
Nsg179
VII Kings 10:15
p2657
sg181
(lp2658
sg183
g134
sg184
Nsg185
(lp2659
I10
aI15
asg187
Nsg188
g2657
sg189
(lp2660
sg191
g60
sg192
Nsg193
Nsg194
Nsbag2
(g3
g4
Ntp2661
Rp2662
(dp2663
g8
g11
sg172
Nsg173
(dp2664
sg175
Nsg26
g29
sg176
(lp2665
I10
aI16
asg178
Nsg179
VII Kings 10:16
p2666
sg181
(lp2667
sg183
g134
sg184
Nsg185
(lp2668
I10
aI16
asg187
Nsg188
g2666
sg189
(lp2669
sg191
g60
sg192
Nsg193
Nsg194
Nsbag2
(g3
g4
Ntp2670
Rp2671
(dp2672
g8
g11
sg172
Nsg173
(dp2673
sg175
Nsg26
g29
sg176
(lp2674
I10
aI17
asg178
Nsg179
VII Kings 10:17
p2675
sg181
(lp2676
sg183
g134
sg184
Nsg185
(lp2677
I10
aI17
asg187
Nsg188
g2675
sg189
(lp2678
sg191
g60
sg192
Nsg193
Nsg194
Nsbag2
(g3
g4
Ntp2679
Rp2680
(dp2681
g8
g11
sg172
Nsg173
(dp2682
sg175
Nsg26
g29
sg176
(lp2683
I10
aI18
asg178
Nsg179
VII Kings 10:18
p2684
sg181
(lp2685
sg183
g134
sg184
Nsg185
(lp2686
I10
aI18
asg187
Nsg188
g2684
sg189
(lp2687
sg191
g60
sg192
Nsg193
Nsg194
Nsbag2
(g3
g4
Ntp2688
Rp2689
(dp2690
g8
g11
sg172
Nsg173
(dp2691
sg175
Nsg26
g29
sg176
(lp2692
I10
aI19
asg178
Nsg179
VII Kings 10:19
p2693
sg181
(lp2694
sg183
g134
sg184
Nsg185
(lp2695
I10
aI19
asg187
Nsg188
g2693
sg189
(lp2696
sg191
g60
sg192
Nsg193
Nsg194
Nsbag2
(g3
g4
Ntp2697
Rp2698
(dp2699
g8
g11
sg172
Nsg173
(dp2700
sg175
Nsg26
g29
sg176
(lp2701
I10
aI20
asg178
Nsg179
VII Kings 10:20
p2702
sg181
(lp2703
sg183
g134
sg184
Nsg185
(lp2704
I10
aI20
asg187
Nsg188
g2702
sg189
(lp2705
sg191
g60
sg192
Nsg193
Nsg194
Nsbag2
(g3
g4
Ntp2706
Rp2707
(dp2708
g8
g11
sg172
Nsg173
(dp2709
sg175
Nsg26
g29
sg176
(lp2710
I10
aI21
asg178
Nsg179
VII Kings 10:21
p2711
sg181
(lp2712
sg183
g134
sg184
Nsg185
(lp2713
I10
aI21
asg187
Nsg188
g2711
sg189
(lp2714
sg191
g60
sg192
Nsg193
Nsg194
Nsbag2
(g3
g4
Ntp2715
Rp2716
(dp2717
g8
g11
sg172
Nsg173
(dp2718
sg175
Nsg26
g29
sg176
(lp2719
I10
aI22
asg178
Nsg179
VII Kings 10:22
p2720
sg181
(lp2721
sg183
g134
sg184
Nsg185
(lp2722
I10
aI22
asg187
Nsg188
g2720
sg189
(lp2723
sg191
g60
sg192
Nsg193
Nsg194
Nsbag2
(g3
g4
Ntp2724
Rp2725
(dp2726
g8
g11
sg172
Nsg173
(dp2727
sg175
Nsg26
g29
sg176
(lp2728
I10
aI23
asg178
Nsg179
VII Kings 10:23
p2729
sg181
(lp2730
sg183
g134
sg184
Nsg185
(lp2731
I10
aI23
asg187
Nsg188
g2729
sg189
(lp2732
sg191
g60
sg192
Nsg193
Nsg194
Nsbag2
(g3
g4
Ntp2733
Rp2734
(dp2735
g8
g11
sg172
Nsg173
(dp2736
sg175
Nsg26
g29
sg176
(lp2737
I10
aI24
asg178
Nsg179
VII Kings 10:24
p2738
sg181
(lp2739
sg183
g134
sg184
Nsg185
(lp2740
I10
aI24
asg187
Nsg188
g2738
sg189
(lp2741
sg191
g60
sg192
Nsg193
Nsg194
Nsbag2
(g3
g4
Ntp2742
Rp2743
(dp2744
g8
g11
sg172
Nsg173
(dp2745
sg175
Nsg26
g29
sg176
(lp2746
I10
aI25
asg178
Nsg179
VII Kings 10:25
p2747
sg181
(lp2748
sg183
g134
sg184
Nsg185
(lp2749
I10
aI25
asg187
Nsg188
g2747
sg189
(lp2750
sg191
g60
sg192
Nsg193
Nsg194
Nsbag2
(g3
g4
Ntp2751
Rp2752
(dp2753
g8
g11
sg172
Nsg173
(dp2754
sg175
Nsg26
g29
sg176
(lp2755
I10
aI26
asg178
Nsg179
VII Kings 10:26
p2756
sg181
(lp2757
sg183
g134
sg184
Nsg185
(lp2758
I10
aI26
asg187
Nsg188
g2756
sg189
(lp2759
sg191
g60
sg192
Nsg193
Nsg194
Nsbag2
(g3
g4
Ntp2760
Rp2761
(dp2762
g8
g11
sg172
Nsg173
(dp2763
sg175
Nsg26
g29
sg176
(lp2764
I10
aI27
asg178
Nsg179
VII Kings 10:27
p2765
sg181
(lp2766
sg183
g134
sg184
Nsg185
(lp2767
I10
aI27
asg187
Nsg188
g2765
sg189
(lp2768
sg191
g60
sg192
Nsg193
Nsg194
Nsbag2
(g3
g4
Ntp2769
Rp2770
(dp2771
g8
g11
sg172
Nsg173
(dp2772
sg175
Nsg26
g29
sg176
(lp2773
I10
aI28
asg178
Nsg179
VII Kings 10:28
p2774
sg181
(lp2775
sg183
g134
sg184
Nsg185
(lp2776
I10
aI28
asg187
Nsg188
g2774
sg189
(lp2777
sg191
g60
sg192
Nsg193
Nsg194
Nsbag2
(g3
g4
Ntp2778
Rp2779
(dp2780
g8
g11
sg172
Nsg173
(dp2781
sg175
Nsg26
g29
sg176
(lp2782
I10
aI29
asg178
Nsg179
VII Kings 10:29
p2783
sg181
(lp2784
sg183
g134
sg184
Nsg185
(lp2785
I10
aI29
asg187
Nsg188
g2783
sg189
(lp2786
sg191
g60
sg192
Nsg193
Nsg194
Nsbag2
(g3
g4
Ntp2787
Rp2788
(dp2789
g8
g11
sg172
Nsg173
(dp2790
sg175
Nsg26
g29
sg176
(lp2791
I10
aI30
asg178
Nsg179
VII Kings 10:30
p2792
sg181
(lp2793
sg183
g134
sg184
Nsg185
(lp2794
I10
aI30
asg187
Nsg188
g2792
sg189
(lp2795
sg191
g60
sg192
Nsg193
Nsg194
Nsbag2
(g3
g4
Ntp2796
Rp2797
(dp2798
g8
g11
sg172
Nsg173
(dp2799
sg175
Nsg26
g29
sg176
(lp2800
I10
aI31
asg178
Nsg179
VII Kings 10:31
p2801
sg181
(lp2802
sg183
g134
sg184
Nsg185
(lp2803
I10
aI31
asg187
Nsg188
g2801
sg189
(lp2804
sg191
g60
sg192
Nsg193
Nsg194
Nsbag2
(g3
g4
Ntp2805
Rp2806
(dp2807
g8
g11
sg172
Nsg173
(dp2808
sg175
Nsg26
g29
sg176
(lp2809
I10
aI32
asg178
Nsg179
VII Kings 10:32
p2810
sg181
(lp2811
sg183
g134
sg184
Nsg185
(lp2812
I10
aI32
asg187
Nsg188
g2810
sg189
(lp2813
sg191
g60
sg192
Nsg193
Nsg194
Nsbag2
(g3
g4
Ntp2814
Rp2815
(dp2816
g8
g11
sg172
Nsg173
(dp2817
sg175
Nsg26
g29
sg176
(lp2818
I10
aI33
asg178
Nsg179
VII Kings 10:33
p2819
sg181
(lp2820
sg183
g134
sg184
Nsg185
(lp2821
I10
aI33
asg187
Nsg188
g2819
sg189
(lp2822
sg191
g60
sg192
Nsg193
Nsg194
Nsbag2
(g3
g4
Ntp2823
Rp2824
(dp2825
g8
g11
sg172
Nsg173
(dp2826
sg175
Nsg26
g29
sg176
(lp2827
I10
aI34
asg178
Nsg179
VII Kings 10:34
p2828
sg181
(lp2829
sg183
g134
sg184
Nsg185
(lp2830
I10
aI34
asg187
Nsg188
g2828
sg189
(lp2831
sg191
g60
sg192
Nsg193
Nsg194
Nsbag2
(g3
g4
Ntp2832
Rp2833
(dp2834
g8
g11
sg172
Nsg173
(dp2835
sg175
Nsg26
g29
sg176
(lp2836
I10
aI35
asg178
Nsg179
VII Kings 10:35
p2837
sg181
(lp2838
sg183
g134
sg184
Nsg185
(lp2839
I10
aI35
asg187
Nsg188
g2837
sg189
(lp2840
sg191
g60
sg192
Nsg193
Nsg194
Nsbag2
(g3
g4
Ntp2841
Rp2842
(dp2843
g8
g11
sg172
Nsg173
(dp2844
sg175
Nsg26
g29
sg176
(lp2845
I10
aI36
asg178
Nsg179
VII Kings 10:36
p2846
sg181
(lp2847
sg183
g134
sg184
Nsg185
(lp2848
I10
aI36
asg187
Nsg188
g2846
sg189
(lp2849
sg191
g60
sg192
Nsg193
Nsg194
Nsbag2
(g3
g4
Ntp2850
Rp2851
(dp2852
g8
g11
sg172
Nsg173
(dp2853
sg175
Nsg26
g29
sg176
(lp2854
I11
aI1
asg178
Nsg179
VII Kings 11:1
p2855
sg181
(lp2856
sg183
g134
sg184
Nsg185
(lp2857
I11
aI1
asg187
Nsg188
g2855
sg189
(lp2858
sg191
g60
sg192
Nsg193
Nsg194
Nsbag2
(g3
g4
Ntp2859
Rp2860
(dp2861
g8
g11
sg172
Nsg173
(dp2862
sg175
Nsg26
g29
sg176
(lp2863
I11
aI2
asg178
Nsg179
VII Kings 11:2
p2864
sg181
(lp2865
sg183
g134
sg184
Nsg185
(lp2866
I11
aI2
asg187
Nsg188
g2864
sg189
(lp2867
sg191
g60
sg192
Nsg193
Nsg194
Nsbag2
(g3
g4
Ntp2868
Rp2869
(dp2870
g8
g11
sg172
Nsg173
(dp2871
sg175
Nsg26
g29
sg176
(lp2872
I11
aI3
asg178
Nsg179
VII Kings 11:3
p2873
sg181
(lp2874
sg183
g134
sg184
Nsg185
(lp2875
I11
aI3
asg187
Nsg188
g2873
sg189
(lp2876
sg191
g60
sg192
Nsg193
Nsg194
Nsbag2
(g3
g4
Ntp2877
Rp2878
(dp2879
g8
g11
sg172
Nsg173
(dp2880
sg175
Nsg26
g29
sg176
(lp2881
I11
aI4
asg178
Nsg179
VII Kings 11:4
p2882
sg181
(lp2883
sg183
g134
sg184
Nsg185
(lp2884
I11
aI4
asg187
Nsg188
g2882
sg189
(lp2885
sg191
g60
sg192
Nsg193
Nsg194
Nsbag2
(g3
g4
Ntp2886
Rp2887
(dp2888
g8
g11
sg172
Nsg173
(dp2889
sg175
Nsg26
g29
sg176
(lp2890
I11
aI5
asg178
Nsg179
VII Kings 11:5
p2891
sg181
(lp2892
sg183
g134
sg184
Nsg185
(lp2893
I11
aI5
asg187
Nsg188
g2891
sg189
(lp2894
sg191
g60
sg192
Nsg193
Nsg194
Nsbag2
(g3
g4
Ntp2895
Rp2896
(dp2897
g8
g11
sg172
Nsg173
(dp2898
sg175
Nsg26
g29
sg176
(lp2899
I11
aI6
asg178
Nsg179
VII Kings 11:6
p2900
sg181
(lp2901
sg183
g134
sg184
Nsg185
(lp2902
I11
aI6
asg187
Nsg188
g2900
sg189
(lp2903
sg191
g60
sg192
Nsg193
Nsg194
Nsbag2
(g3
g4
Ntp2904
Rp2905
(dp2906
g8
g11
sg172
Nsg173
(dp2907
sg175
Nsg26
g29
sg176
(lp2908
I11
aI7
asg178
Nsg179
VII Kings 11:7
p2909
sg181
(lp2910
sg183
g134
sg184
Nsg185
(lp2911
I11
aI7
asg187
Nsg188
g2909
sg189
(lp2912
sg191
g60
sg192
Nsg193
Nsg194
Nsbag2
(g3
g4
Ntp2913
Rp2914
(dp2915
g8
g11
sg172
Nsg173
(dp2916
sg175
Nsg26
g29
sg176
(lp2917
I11
aI8
asg178
Nsg179
VII Kings 11:8
p2918
sg181
(lp2919
sg183
g134
sg184
Nsg185
(lp2920
I11
aI8
asg187
Nsg188
g2918
sg189
(lp2921
sg191
g60
sg192
Nsg193
Nsg194
Nsbag2
(g3
g4
Ntp2922
Rp2923
(dp2924
g8
g11
sg172
Nsg173
(dp2925
sg175
Nsg26
g29
sg176
(lp2926
I11
aI9
asg178
Nsg179
VII Kings 11:9
p2927
sg181
(lp2928
sg183
g134
sg184
Nsg185
(lp2929
I11
aI9
asg187
Nsg188
g2927
sg189
(lp2930
sg191
g60
sg192
Nsg193
Nsg194
Nsbag2
(g3
g4
Ntp2931
Rp2932
(dp2933
g8
g11
sg172
Nsg173
(dp2934
sg175
Nsg26
g29
sg176
(lp2935
I11
aI10
asg178
Nsg179
VII Kings 11:10
p2936
sg181
(lp2937
sg183
g134
sg184
Nsg185
(lp2938
I11
aI10
asg187
Nsg188
g2936
sg189
(lp2939
sg191
g60
sg192
Nsg193
Nsg194
Nsbag2
(g3
g4
Ntp2940
Rp2941
(dp2942
g8
g11
sg172
Nsg173
(dp2943
sg175
Nsg26
g29
sg176
(lp2944
I11
aI11
asg178
Nsg179
VII Kings 11:11
p2945
sg181
(lp2946
sg183
g134
sg184
Nsg185
(lp2947
I11
aI11
asg187
Nsg188
g2945
sg189
(lp2948
sg191
g60
sg192
Nsg193
Nsg194
Nsbag2
(g3
g4
Ntp2949
Rp2950
(dp2951
g8
g11
sg172
Nsg173
(dp2952
sg175
Nsg26
g29
sg176
(lp2953
I11
aI12
asg178
Nsg179
VII Kings 11:12
p2954
sg181
(lp2955
sg183
g134
sg184
Nsg185
(lp2956
I11
aI12
asg187
Nsg188
g2954
sg189
(lp2957
sg191
g60
sg192
Nsg193
Nsg194
Nsbag2
(g3
g4
Ntp2958
Rp2959
(dp2960
g8
g11
sg172
Nsg173
(dp2961
sg175
Nsg26
g29
sg176
(lp2962
I11
aI13
asg178
Nsg179
VII Kings 11:13
p2963
sg181
(lp2964
sg183
g134
sg184
Nsg185
(lp2965
I11
aI13
asg187
Nsg188
g2963
sg189
(lp2966
sg191
g60
sg192
Nsg193
Nsg194
Nsbag2
(g3
g4
Ntp2967
Rp2968
(dp2969
g8
g11
sg172
Nsg173
(dp2970
sg175
Nsg26
g29
sg176
(lp2971
I11
aI14
asg178
Nsg179
VII Kings 11:14
p2972
sg181
(lp2973
sg183
g134
sg184
Nsg185
(lp2974
I11
aI14
asg187
Nsg188
g2972
sg189
(lp2975
sg191
g60
sg192
Nsg193
Nsg194
Nsbag2
(g3
g4
Ntp2976
Rp2977
(dp2978
g8
g11
sg172
Nsg173
(dp2979
sg175
Nsg26
g29
sg176
(lp2980
I11
aI15
asg178
Nsg179
VII Kings 11:15
p2981
sg181
(lp2982
sg183
g134
sg184
Nsg185
(lp2983
I11
aI15
asg187
Nsg188
g2981
sg189
(lp2984
sg191
g60
sg192
Nsg193
Nsg194
Nsbag2
(g3
g4
Ntp2985
Rp2986
(dp2987
g8
g11
sg172
Nsg173
(dp2988
sg175
Nsg26
g29
sg176
(lp2989
I11
aI16
asg178
Nsg179
VII Kings 11:16
p2990
sg181
(lp2991
sg183
g134
sg184
Nsg185
(lp2992
I11
aI16
asg187
Nsg188
g2990
sg189
(lp2993
sg191
g60
sg192
Nsg193
Nsg194
Nsbag2
(g3
g4
Ntp2994
Rp2995
(dp2996
g8
g11
sg172
Nsg173
(dp2997
sg175
Nsg26
g29
sg176
(lp2998
I11
aI17
asg178
Nsg179
VII Kings 11:17
p2999
sg181
(lp3000
sg183
g134
sg184
Nsg185
(lp3001
I11
aI17
asg187
Nsg188
g2999
sg189
(lp3002
sg191
g60
sg192
Nsg193
Nsg194
Nsbag2
(g3
g4
Ntp3003
Rp3004
(dp3005
g8
g11
sg172
Nsg173
(dp3006
sg175
Nsg26
g29
sg176
(lp3007
I11
aI18
asg178
Nsg179
VII Kings 11:18
p3008
sg181
(lp3009
sg183
g134
sg184
Nsg185
(lp3010
I11
aI18
asg187
Nsg188
g3008
sg189
(lp3011
sg191
g60
sg192
Nsg193
Nsg194
Nsbag2
(g3
g4
Ntp3012
Rp3013
(dp3014
g8
g11
sg172
Nsg173
(dp3015
sg175
Nsg26
g29
sg176
(lp3016
I11
aI19
asg178
Nsg179
VII Kings 11:19
p3017
sg181
(lp3018
sg183
g134
sg184
Nsg185
(lp3019
I11
aI19
asg187
Nsg188
g3017
sg189
(lp3020
sg191
g60
sg192
Nsg193
Nsg194
Nsbag2
(g3
g4
Ntp3021
Rp3022
(dp3023
g8
g11
sg172
Nsg173
(dp3024
sg175
Nsg26
g29
sg176
(lp3025
I11
aI20
asg178
Nsg179
VII Kings 11:20
p3026
sg181
(lp3027
sg183
g134
sg184
Nsg185
(lp3028
I11
aI20
asg187
Nsg188
g3026
sg189
(lp3029
sg191
g60
sg192
Nsg193
Nsg194
Nsbag2
(g3
g4
Ntp3030
Rp3031
(dp3032
g8
g11
sg172
Nsg173
(dp3033
sg175
Nsg26
g29
sg176
(lp3034
I12
aI1
asg178
Nsg179
VII Kings 12:1
p3035
sg181
(lp3036
sg183
g134
sg184
Nsg185
(lp3037
I12
aI1
asg187
Nsg188
g3035
sg189
(lp3038
sg191
g60
sg192
Nsg193
Nsg194
Nsbag2
(g3
g4
Ntp3039
Rp3040
(dp3041
g8
g11
sg172
Nsg173
(dp3042
sg175
Nsg26
g29
sg176
(lp3043
I12
aI2
asg178
Nsg179
VII Kings 12:2
p3044
sg181
(lp3045
sg183
g134
sg184
Nsg185
(lp3046
I12
aI2
asg187
Nsg188
g3044
sg189
(lp3047
sg191
g60
sg192
Nsg193
Nsg194
Nsbag2
(g3
g4
Ntp3048
Rp3049
(dp3050
g8
g11
sg172
Nsg173
(dp3051
sg175
Nsg26
g29
sg176
(lp3052
I12
aI3
asg178
Nsg179
VII Kings 12:3
p3053
sg181
(lp3054
sg183
g134
sg184
Nsg185
(lp3055
I12
aI3
asg187
Nsg188
g3053
sg189
(lp3056
sg191
g60
sg192
Nsg193
Nsg194
Nsbag2
(g3
g4
Ntp3057
Rp3058
(dp3059
g8
g11
sg172
Nsg173
(dp3060
sg175
Nsg26
g29
sg176
(lp3061
I12
aI4
asg178
Nsg179
VII Kings 12:4
p3062
sg181
(lp3063
sg183
g134
sg184
Nsg185
(lp3064
I12
aI4
asg187
Nsg188
g3062
sg189
(lp3065
sg191
g60
sg192
Nsg193
Nsg194
Nsbag2
(g3
g4
Ntp3066
Rp3067
(dp3068
g8
g11
sg172
Nsg173
(dp3069
sg175
Nsg26
g29
sg176
(lp3070
I12
aI5
asg178
Nsg179
VII Kings 12:5
p3071
sg181
(lp3072
sg183
g134
sg184
Nsg185
(lp3073
I12
aI5
asg187
Nsg188
g3071
sg189
(lp3074
sg191
g60
sg192
Nsg193
Nsg194
Nsbag2
(g3
g4
Ntp3075
Rp3076
(dp3077
g8
g11
sg172
Nsg173
(dp3078
sg175
Nsg26
g29
sg176
(lp3079
I12
aI6
asg178
Nsg179
VII Kings 12:6
p3080
sg181
(lp3081
sg183
g134
sg184
Nsg185
(lp3082
I12
aI6
asg187
Nsg188
g3080
sg189
(lp3083
sg191
g60
sg192
Nsg193
Nsg194
Nsbag2
(g3
g4
Ntp3084
Rp3085
(dp3086
g8
g11
sg172
Nsg173
(dp3087
sg175
Nsg26
g29
sg176
(lp3088
I12
aI7
asg178
Nsg179
VII Kings 12:7
p3089
sg181
(lp3090
sg183
g134
sg184
Nsg185
(lp3091
I12
aI7
asg187
Nsg188
g3089
sg189
(lp3092
sg191
g60
sg192
Nsg193
Nsg194
Nsbag2
(g3
g4
Ntp3093
Rp3094
(dp3095
g8
g11
sg172
Nsg173
(dp3096
sg175
Nsg26
g29
sg176
(lp3097
I12
aI8
asg178
Nsg179
VII Kings 12:8
p3098
sg181
(lp3099
sg183
g134
sg184
Nsg185
(lp3100
I12
aI8
asg187
Nsg188
g3098
sg189
(lp3101
sg191
g60
sg192
Nsg193
Nsg194
Nsbag2
(g3
g4
Ntp3102
Rp3103
(dp3104
g8
g11
sg172
Nsg173
(dp3105
sg175
Nsg26
g29
sg176
(lp3106
I12
aI9
asg178
Nsg179
VII Kings 12:9
p3107
sg181
(lp3108
sg183
g134
sg184
Nsg185
(lp3109
I12
aI9
asg187
Nsg188
g3107
sg189
(lp3110
sg191
g60
sg192
Nsg193
Nsg194
Nsbag2
(g3
g4
Ntp3111
Rp3112
(dp3113
g8
g11
sg172
Nsg173
(dp3114
sg175
Nsg26
g29
sg176
(lp3115
I12
aI10
asg178
Nsg179
VII Kings 12:10
p3116
sg181
(lp3117
sg183
g134
sg184
Nsg185
(lp3118
I12
aI10
asg187
Nsg188
g3116
sg189
(lp3119
sg191
g60
sg192
Nsg193
Nsg194
Nsbag2
(g3
g4
Ntp3120
Rp3121
(dp3122
g8
g11
sg172
Nsg173
(dp3123
sg175
Nsg26
g29
sg176
(lp3124
I12
aI11
asg178
Nsg179
VII Kings 12:11
p3125
sg181
(lp3126
sg183
g134
sg184
Nsg185
(lp3127
I12
aI11
asg187
Nsg188
g3125
sg189
(lp3128
sg191
g60
sg192
Nsg193
Nsg194
Nsbag2
(g3
g4
Ntp3129
Rp3130
(dp3131
g8
g11
sg172
Nsg173
(dp3132
sg175
Nsg26
g29
sg176
(lp3133
I12
aI12
asg178
Nsg179
VII Kings 12:12
p3134
sg181
(lp3135
sg183
g134
sg184
Nsg185
(lp3136
I12
aI12
asg187
Nsg188
g3134
sg189
(lp3137
sg191
g60
sg192
Nsg193
Nsg194
Nsbag2
(g3
g4
Ntp3138
Rp3139
(dp3140
g8
g11
sg172
Nsg173
(dp3141
sg175
Nsg26
g29
sg176
(lp3142
I12
aI13
asg178
Nsg179
VII Kings 12:13
p3143
sg181
(lp3144
sg183
g134
sg184
Nsg185
(lp3145
I12
aI13
asg187
Nsg188
g3143
sg189
(lp3146
sg191
g60
sg192
Nsg193
Nsg194
Nsbag2
(g3
g4
Ntp3147
Rp3148
(dp3149
g8
g11
sg172
Nsg173
(dp3150
sg175
Nsg26
g29
sg176
(lp3151
I12
aI14
asg178
Nsg179
VII Kings 12:14
p3152
sg181
(lp3153
sg183
g134
sg184
Nsg185
(lp3154
I12
aI14
asg187
Nsg188
g3152
sg189
(lp3155
sg191
g60
sg192
Nsg193
Nsg194
Nsbag2
(g3
g4
Ntp3156
Rp3157
(dp3158
g8
g11
sg172
Nsg173
(dp3159
sg175
Nsg26
g29
sg176
(lp3160
I12
aI15
asg178
Nsg179
VII Kings 12:15
p3161
sg181
(lp3162
sg183
g134
sg184
Nsg185
(lp3163
I12
aI15
asg187
Nsg188
g3161
sg189
(lp3164
sg191
g60
sg192
Nsg193
Nsg194
Nsbag2
(g3
g4
Ntp3165
Rp3166
(dp3167
g8
g11
sg172
Nsg173
(dp3168
sg175
Nsg26
g29
sg176
(lp3169
I12
aI16
asg178
Nsg179
VII Kings 12:16
p3170
sg181
(lp3171
sg183
g134
sg184
Nsg185
(lp3172
I12
aI16
asg187
Nsg188
g3170
sg189
(lp3173
sg191
g60
sg192
Nsg193
Nsg194
Nsbag2
(g3
g4
Ntp3174
Rp3175
(dp3176
g8
g11
sg172
Nsg173
(dp3177
sg175
Nsg26
g29
sg176
(lp3178
I12
aI17
asg178
Nsg179
VII Kings 12:17
p3179
sg181
(lp3180
sg183
g134
sg184
Nsg185
(lp3181
I12
aI17
asg187
Nsg188
g3179
sg189
(lp3182
sg191
g60
sg192
Nsg193
Nsg194
Nsbag2
(g3
g4
Ntp3183
Rp3184
(dp3185
g8
g11
sg172
Nsg173
(dp3186
sg175
Nsg26
g29
sg176
(lp3187
I12
aI18
asg178
Nsg179
VII Kings 12:18
p3188
sg181
(lp3189
sg183
g134
sg184
Nsg185
(lp3190
I12
aI18
asg187
Nsg188
g3188
sg189
(lp3191
sg191
g60
sg192
Nsg193
Nsg194
Nsbag2
(g3
g4
Ntp3192
Rp3193
(dp3194
g8
g11
sg172
Nsg173
(dp3195
sg175
Nsg26
g29
sg176
(lp3196
I12
aI19
asg178
Nsg179
VII Kings 12:19
p3197
sg181
(lp3198
sg183
g134
sg184
Nsg185
(lp3199
I12
aI19
asg187
Nsg188
g3197
sg189
(lp3200
sg191
g60
sg192
Nsg193
Nsg194
Nsbag2
(g3
g4
Ntp3201
Rp3202
(dp3203
g8
g11
sg172
Nsg173
(dp3204
sg175
Nsg26
g29
sg176
(lp3205
I12
aI20
asg178
Nsg179
VII Kings 12:20
p3206
sg181
(lp3207
sg183
g134
sg184
Nsg185
(lp3208
I12
aI20
asg187
Nsg188
g3206
sg189
(lp3209
sg191
g60
sg192
Nsg193
Nsg194
Nsbag2
(g3
g4
Ntp3210
Rp3211
(dp3212
g8
g11
sg172
Nsg173
(dp3213
sg175
Nsg26
g29
sg176
(lp3214
I12
aI21
asg178
Nsg179
VII Kings 12:21
p3215
sg181
(lp3216
sg183
g134
sg184
Nsg185
(lp3217
I12
aI21
asg187
Nsg188
g3215
sg189
(lp3218
sg191
g60
sg192
Nsg193
Nsg194
Nsbag2
(g3
g4
Ntp3219
Rp3220
(dp3221
g8
g11
sg172
Nsg173
(dp3222
sg175
Nsg26
g29
sg176
(lp3223
I12
aI22
asg178
Nsg179
VII Kings 12:22
p3224
sg181
(lp3225
sg183
g134
sg184
Nsg185
(lp3226
I12
aI22
asg187
Nsg188
g3224
sg189
(lp3227
sg191
g60
sg192
Nsg193
Nsg194
Nsbag2
(g3
g4
Ntp3228
Rp3229
(dp3230
g8
g11
sg172
Nsg173
(dp3231
sg175
Nsg26
g29
sg176
(lp3232
I13
aI1
asg178
Nsg179
VII Kings 13:1
p3233
sg181
(lp3234
sg183
g134
sg184
Nsg185
(lp3235
I13
aI1
asg187
Nsg188
g3233
sg189
(lp3236
sg191
g60
sg192
Nsg193
Nsg194
Nsbag2
(g3
g4
Ntp3237
Rp3238
(dp3239
g8
g11
sg172
Nsg173
(dp3240
sg175
Nsg26
g29
sg176
(lp3241
I13
aI2
asg178
Nsg179
VII Kings 13:2
p3242
sg181
(lp3243
sg183
g134
sg184
Nsg185
(lp3244
I13
aI2
asg187
Nsg188
g3242
sg189
(lp3245
sg191
g60
sg192
Nsg193
Nsg194
Nsbag2
(g3
g4
Ntp3246
Rp3247
(dp3248
g8
g11
sg172
Nsg173
(dp3249
sg175
Nsg26
g29
sg176
(lp3250
I13
aI3
asg178
Nsg179
VII Kings 13:3
p3251
sg181
(lp3252
sg183
g134
sg184
Nsg185
(lp3253
I13
aI3
asg187
Nsg188
g3251
sg189
(lp3254
sg191
g60
sg192
Nsg193
Nsg194
Nsbag2
(g3
g4
Ntp3255
Rp3256
(dp3257
g8
g11
sg172
Nsg173
(dp3258
sg175
Nsg26
g29
sg176
(lp3259
I13
aI4
asg178
Nsg179
VII Kings 13:4
p3260
sg181
(lp3261
sg183
g134
sg184
Nsg185
(lp3262
I13
aI4
asg187
Nsg188
g3260
sg189
(lp3263
sg191
g60
sg192
Nsg193
Nsg194
Nsbag2
(g3
g4
Ntp3264
Rp3265
(dp3266
g8
g11
sg172
Nsg173
(dp3267
sg175
Nsg26
g29
sg176
(lp3268
I13
aI5
asg178
Nsg179
VII Kings 13:5
p3269
sg181
(lp3270
sg183
g134
sg184
Nsg185
(lp3271
I13
aI5
asg187
Nsg188
g3269
sg189
(lp3272
sg191
g60
sg192
Nsg193
Nsg194
Nsbag2
(g3
g4
Ntp3273
Rp3274
(dp3275
g8
g11
sg172
Nsg173
(dp3276
sg175
Nsg26
g29
sg176
(lp3277
I13
aI6
asg178
Nsg179
VII Kings 13:6
p3278
sg181
(lp3279
sg183
g134
sg184
Nsg185
(lp3280
I13
aI6
asg187
Nsg188
g3278
sg189
(lp3281
sg191
g60
sg192
Nsg193
Nsg194
Nsbag2
(g3
g4
Ntp3282
Rp3283
(dp3284
g8
g11
sg172
Nsg173
(dp3285
sg175
Nsg26
g29
sg176
(lp3286
I13
aI7
asg178
Nsg179
VII Kings 13:7
p3287
sg181
(lp3288
sg183
g134
sg184
Nsg185
(lp3289
I13
aI7
asg187
Nsg188
g3287
sg189
(lp3290
sg191
g60
sg192
Nsg193
Nsg194
Nsbag2
(g3
g4
Ntp3291
Rp3292
(dp3293
g8
g11
sg172
Nsg173
(dp3294
sg175
Nsg26
g29
sg176
(lp3295
I13
aI8
asg178
Nsg179
VII Kings 13:8
p3296
sg181
(lp3297
sg183
g134
sg184
Nsg185
(lp3298
I13
aI8
asg187
Nsg188
g3296
sg189
(lp3299
sg191
g60
sg192
Nsg193
Nsg194
Nsbag2
(g3
g4
Ntp3300
Rp3301
(dp3302
g8
g11
sg172
Nsg173
(dp3303
sg175
Nsg26
g29
sg176
(lp3304
I13
aI9
asg178
Nsg179
VII Kings 13:9
p3305
sg181
(lp3306
sg183
g134
sg184
Nsg185
(lp3307
I13
aI9
asg187
Nsg188
g3305
sg189
(lp3308
sg191
g60
sg192
Nsg193
Nsg194
Nsbag2
(g3
g4
Ntp3309
Rp3310
(dp3311
g8
g11
sg172
Nsg173
(dp3312
sg175
Nsg26
g29
sg176
(lp3313
I13
aI10
asg178
Nsg179
VII Kings 13:10
p3314
sg181
(lp3315
sg183
g134
sg184
Nsg185
(lp3316
I13
aI10
asg187
Nsg188
g3314
sg189
(lp3317
sg191
g60
sg192
Nsg193
Nsg194
Nsbag2
(g3
g4
Ntp3318
Rp3319
(dp3320
g8
g11
sg172
Nsg173
(dp3321
sg175
Nsg26
g29
sg176
(lp3322
I13
aI11
asg178
Nsg179
VII Kings 13:11
p3323
sg181
(lp3324
sg183
g134
sg184
Nsg185
(lp3325
I13
aI11
asg187
Nsg188
g3323
sg189
(lp3326
sg191
g60
sg192
Nsg193
Nsg194
Nsbag2
(g3
g4
Ntp3327
Rp3328
(dp3329
g8
g11
sg172
Nsg173
(dp3330
sg175
Nsg26
g29
sg176
(lp3331
I13
aI12
asg178
Nsg179
VII Kings 13:12
p3332
sg181
(lp3333
sg183
g134
sg184
Nsg185
(lp3334
I13
aI12
asg187
Nsg188
g3332
sg189
(lp3335
sg191
g60
sg192
Nsg193
Nsg194
Nsbag2
(g3
g4
Ntp3336
Rp3337
(dp3338
g8
g11
sg172
Nsg173
(dp3339
sg175
Nsg26
g29
sg176
(lp3340
I13
aI13
asg178
Nsg179
VII Kings 13:13
p3341
sg181
(lp3342
sg183
g134
sg184
Nsg185
(lp3343
I13
aI13
asg187
Nsg188
g3341
sg189
(lp3344
sg191
g60
sg192
Nsg193
Nsg194
Nsbag2
(g3
g4
Ntp3345
Rp3346
(dp3347
g8
g11
sg172
Nsg173
(dp3348
sg175
Nsg26
g29
sg176
(lp3349
I13
aI14
asg178
Nsg179
VII Kings 13:14
p3350
sg181
(lp3351
sg183
g134
sg184
Nsg185
(lp3352
I13
aI14
asg187
Nsg188
g3350
sg189
(lp3353
sg191
g60
sg192
Nsg193
Nsg194
Nsbag2
(g3
g4
Ntp3354
Rp3355
(dp3356
g8
g11
sg172
Nsg173
(dp3357
sg175
Nsg26
g29
sg176
(lp3358
I13
aI15
asg178
Nsg179
VII Kings 13:15
p3359
sg181
(lp3360
sg183
g134
sg184
Nsg185
(lp3361
I13
aI15
asg187
Nsg188
g3359
sg189
(lp3362
sg191
g60
sg192
Nsg193
Nsg194
Nsbag2
(g3
g4
Ntp3363
Rp3364
(dp3365
g8
g11
sg172
Nsg173
(dp3366
sg175
Nsg26
g29
sg176
(lp3367
I13
aI16
asg178
Nsg179
VII Kings 13:16
p3368
sg181
(lp3369
sg183
g134
sg184
Nsg185
(lp3370
I13
aI16
asg187
Nsg188
g3368
sg189
(lp3371
sg191
g60
sg192
Nsg193
Nsg194
Nsbag2
(g3
g4
Ntp3372
Rp3373
(dp3374
g8
g11
sg172
Nsg173
(dp3375
sg175
Nsg26
g29
sg176
(lp3376
I13
aI17
asg178
Nsg179
VII Kings 13:17
p3377
sg181
(lp3378
sg183
g134
sg184
Nsg185
(lp3379
I13
aI17
asg187
Nsg188
g3377
sg189
(lp3380
sg191
g60
sg192
Nsg193
Nsg194
Nsbag2
(g3
g4
Ntp3381
Rp3382
(dp3383
g8
g11
sg172
Nsg173
(dp3384
sg175
Nsg26
g29
sg176
(lp3385
I13
aI18
asg178
Nsg179
VII Kings 13:18
p3386
sg181
(lp3387
sg183
g134
sg184
Nsg185
(lp3388
I13
aI18
asg187
Nsg188
g3386
sg189
(lp3389
sg191
g60
sg192
Nsg193
Nsg194
Nsbag2
(g3
g4
Ntp3390
Rp3391
(dp3392
g8
g11
sg172
Nsg173
(dp3393
sg175
Nsg26
g29
sg176
(lp3394
I13
aI19
asg178
Nsg179
VII Kings 13:19
p3395
sg181
(lp3396
sg183
g134
sg184
Nsg185
(lp3397
I13
aI19
asg187
Nsg188
g3395
sg189
(lp3398
sg191
g60
sg192
Nsg193
Nsg194
Nsbag2
(g3
g4
Ntp3399
Rp3400
(dp3401
g8
g11
sg172
Nsg173
(dp3402
sg175
Nsg26
g29
sg176
(lp3403
I13
aI20
asg178
Nsg179
VII Kings 13:20
p3404
sg181
(lp3405
sg183
g134
sg184
Nsg185
(lp3406
I13
aI20
asg187
Nsg188
g3404
sg189
(lp3407
sg191
g60
sg192
Nsg193
Nsg194
Nsbag2
(g3
g4
Ntp3408
Rp3409
(dp3410
g8
g11
sg172
Nsg173
(dp3411
sg175
Nsg26
g29
sg176
(lp3412
I13
aI21
asg178
Nsg179
VII Kings 13:21
p3413
sg181
(lp3414
sg183
g134
sg184
Nsg185
(lp3415
I13
aI21
asg187
Nsg188
g3413
sg189
(lp3416
sg191
g60
sg192
Nsg193
Nsg194
Nsbag2
(g3
g4
Ntp3417
Rp3418
(dp3419
g8
g11
sg172
Nsg173
(dp3420
sg175
Nsg26
g29
sg176
(lp3421
I13
aI22
asg178
Nsg179
VII Kings 13:22
p3422
sg181
(lp3423
sg183
g134
sg184
Nsg185
(lp3424
I13
aI22
asg187
Nsg188
g3422
sg189
(lp3425
sg191
g60
sg192
Nsg193
Nsg194
Nsbag2
(g3
g4
Ntp3426
Rp3427
(dp3428
g8
g11
sg172
Nsg173
(dp3429
sg175
Nsg26
g29
sg176
(lp3430
I13
aI23
asg178
Nsg179
VII Kings 13:23
p3431
sg181
(lp3432
sg183
g134
sg184
Nsg185
(lp3433
I13
aI23
asg187
Nsg188
g3431
sg189
(lp3434
sg191
g60
sg192
Nsg193
Nsg194
Nsbag2
(g3
g4
Ntp3435
Rp3436
(dp3437
g8
g11
sg172
Nsg173
(dp3438
sg175
Nsg26
g29
sg176
(lp3439
I13
aI24
asg178
Nsg179
VII Kings 13:24
p3440
sg181
(lp3441
sg183
g134
sg184
Nsg185
(lp3442
I13
aI24
asg187
Nsg188
g3440
sg189
(lp3443
sg191
g60
sg192
Nsg193
Nsg194
Nsbag2
(g3
g4
Ntp3444
Rp3445
(dp3446
g8
g11
sg172
Nsg173
(dp3447
sg175
Nsg26
g29
sg176
(lp3448
I13
aI25
asg178
Nsg179
VII Kings 13:25
p3449
sg181
(lp3450
sg183
g134
sg184
Nsg185
(lp3451
I13
aI25
asg187
Nsg188
g3449
sg189
(lp3452
sg191
g60
sg192
Nsg193
Nsg194
Nsbag2
(g3
g4
Ntp3453
Rp3454
(dp3455
g8
g11
sg172
Nsg173
(dp3456
sg175
Nsg26
g29
sg176
(lp3457
I14
aI1
asg178
Nsg179
VII Kings 14:1
p3458
sg181
(lp3459
sg183
g134
sg184
Nsg185
(lp3460
I14
aI1
asg187
Nsg188
g3458
sg189
(lp3461
sg191
g60
sg192
Nsg193
Nsg194
Nsbag2
(g3
g4
Ntp3462
Rp3463
(dp3464
g8
g11
sg172
Nsg173
(dp3465
sg175
Nsg26
g29
sg176
(lp3466
I14
aI2
asg178
Nsg179
VII Kings 14:2
p3467
sg181
(lp3468
sg183
g134
sg184
Nsg185
(lp3469
I14
aI2
asg187
Nsg188
g3467
sg189
(lp3470
sg191
g60
sg192
Nsg193
Nsg194
Nsbag2
(g3
g4
Ntp3471
Rp3472
(dp3473
g8
g11
sg172
Nsg173
(dp3474
sg175
Nsg26
g29
sg176
(lp3475
I14
aI3
asg178
Nsg179
VII Kings 14:3
p3476
sg181
(lp3477
sg183
g134
sg184
Nsg185
(lp3478
I14
aI3
asg187
Nsg188
g3476
sg189
(lp3479
sg191
g60
sg192
Nsg193
Nsg194
Nsbag2
(g3
g4
Ntp3480
Rp3481
(dp3482
g8
g11
sg172
Nsg173
(dp3483
sg175
Nsg26
g29
sg176
(lp3484
I14
aI4
asg178
Nsg179
VII Kings 14:4
p3485
sg181
(lp3486
sg183
g134
sg184
Nsg185
(lp3487
I14
aI4
asg187
Nsg188
g3485
sg189
(lp3488
sg191
g60
sg192
Nsg193
Nsg194
Nsbag2
(g3
g4
Ntp3489
Rp3490
(dp3491
g8
g11
sg172
Nsg173
(dp3492
sg175
Nsg26
g29
sg176
(lp3493
I14
aI5
asg178
Nsg179
VII Kings 14:5
p3494
sg181
(lp3495
sg183
g134
sg184
Nsg185
(lp3496
I14
aI5
asg187
Nsg188
g3494
sg189
(lp3497
sg191
g60
sg192
Nsg193
Nsg194
Nsbag2
(g3
g4
Ntp3498
Rp3499
(dp3500
g8
g11
sg172
Nsg173
(dp3501
sg175
Nsg26
g29
sg176
(lp3502
I14
aI6
asg178
Nsg179
VII Kings 14:6
p3503
sg181
(lp3504
sg183
g134
sg184
Nsg185
(lp3505
I14
aI6
asg187
Nsg188
g3503
sg189
(lp3506
sg191
g60
sg192
Nsg193
Nsg194
Nsbag2
(g3
g4
Ntp3507
Rp3508
(dp3509
g8
g11
sg172
Nsg173
(dp3510
sg175
Nsg26
g29
sg176
(lp3511
I14
aI7
asg178
Nsg179
VII Kings 14:7
p3512
sg181
(lp3513
sg183
g134
sg184
Nsg185
(lp3514
I14
aI7
asg187
Nsg188
g3512
sg189
(lp3515
sg191
g60
sg192
Nsg193
Nsg194
Nsbag2
(g3
g4
Ntp3516
Rp3517
(dp3518
g8
g11
sg172
Nsg173
(dp3519
sg175
Nsg26
g29
sg176
(lp3520
I14
aI8
asg178
Nsg179
VII Kings 14:8
p3521
sg181
(lp3522
sg183
g134
sg184
Nsg185
(lp3523
I14
aI8
asg187
Nsg188
g3521
sg189
(lp3524
sg191
g60
sg192
Nsg193
Nsg194
Nsbag2
(g3
g4
Ntp3525
Rp3526
(dp3527
g8
g11
sg172
Nsg173
(dp3528
sg175
Nsg26
g29
sg176
(lp3529
I14
aI9
asg178
Nsg179
VII Kings 14:9
p3530
sg181
(lp3531
sg183
g134
sg184
Nsg185
(lp3532
I14
aI9
asg187
Nsg188
g3530
sg189
(lp3533
sg191
g60
sg192
Nsg193
Nsg194
Nsbag2
(g3
g4
Ntp3534
Rp3535
(dp3536
g8
g11
sg172
Nsg173
(dp3537
sg175
Nsg26
g29
sg176
(lp3538
I14
aI10
asg178
Nsg179
VII Kings 14:10
p3539
sg181
(lp3540
sg183
g134
sg184
Nsg185
(lp3541
I14
aI10
asg187
Nsg188
g3539
sg189
(lp3542
sg191
g60
sg192
Nsg193
Nsg194
Nsbag2
(g3
g4
Ntp3543
Rp3544
(dp3545
g8
g11
sg172
Nsg173
(dp3546
sg175
Nsg26
g29
sg176
(lp3547
I14
aI11
asg178
Nsg179
VII Kings 14:11
p3548
sg181
(lp3549
sg183
g134
sg184
Nsg185
(lp3550
I14
aI11
asg187
Nsg188
g3548
sg189
(lp3551
sg191
g60
sg192
Nsg193
Nsg194
Nsbag2
(g3
g4
Ntp3552
Rp3553
(dp3554
g8
g11
sg172
Nsg173
(dp3555
sg175
Nsg26
g29
sg176
(lp3556
I14
aI12
asg178
Nsg179
VII Kings 14:12
p3557
sg181
(lp3558
sg183
g134
sg184
Nsg185
(lp3559
I14
aI12
asg187
Nsg188
g3557
sg189
(lp3560
sg191
g60
sg192
Nsg193
Nsg194
Nsbag2
(g3
g4
Ntp3561
Rp3562
(dp3563
g8
g11
sg172
Nsg173
(dp3564
sg175
Nsg26
g29
sg176
(lp3565
I14
aI13
asg178
Nsg179
VII Kings 14:13
p3566
sg181
(lp3567
sg183
g134
sg184
Nsg185
(lp3568
I14
aI13
asg187
Nsg188
g3566
sg189
(lp3569
sg191
g60
sg192
Nsg193
Nsg194
Nsbag2
(g3
g4
Ntp3570
Rp3571
(dp3572
g8
g11
sg172
Nsg173
(dp3573
sg175
Nsg26
g29
sg176
(lp3574
I14
aI14
asg178
Nsg179
VII Kings 14:14
p3575
sg181
(lp3576
sg183
g134
sg184
Nsg185
(lp3577
I14
aI14
asg187
Nsg188
g3575
sg189
(lp3578
sg191
g60
sg192
Nsg193
Nsg194
Nsbag2
(g3
g4
Ntp3579
Rp3580
(dp3581
g8
g11
sg172
Nsg173
(dp3582
sg175
Nsg26
g29
sg176
(lp3583
I14
aI15
asg178
Nsg179
VII Kings 14:15
p3584
sg181
(lp3585
sg183
g134
sg184
Nsg185
(lp3586
I14
aI15
asg187
Nsg188
g3584
sg189
(lp3587
sg191
g60
sg192
Nsg193
Nsg194
Nsbag2
(g3
g4
Ntp3588
Rp3589
(dp3590
g8
g11
sg172
Nsg173
(dp3591
sg175
Nsg26
g29
sg176
(lp3592
I14
aI16
asg178
Nsg179
VII Kings 14:16
p3593
sg181
(lp3594
sg183
g134
sg184
Nsg185
(lp3595
I14
aI16
asg187
Nsg188
g3593
sg189
(lp3596
sg191
g60
sg192
Nsg193
Nsg194
Nsbag2
(g3
g4
Ntp3597
Rp3598
(dp3599
g8
g11
sg172
Nsg173
(dp3600
sg175
Nsg26
g29
sg176
(lp3601
I14
aI17
asg178
Nsg179
VII Kings 14:17
p3602
sg181
(lp3603
sg183
g134
sg184
Nsg185
(lp3604
I14
aI17
asg187
Nsg188
g3602
sg189
(lp3605
sg191
g60
sg192
Nsg193
Nsg194
Nsbag2
(g3
g4
Ntp3606
Rp3607
(dp3608
g8
g11
sg172
Nsg173
(dp3609
sg175
Nsg26
g29
sg176
(lp3610
I14
aI18
asg178
Nsg179
VII Kings 14:18
p3611
sg181
(lp3612
sg183
g134
sg184
Nsg185
(lp3613
I14
aI18
asg187
Nsg188
g3611
sg189
(lp3614
sg191
g60
sg192
Nsg193
Nsg194
Nsbag2
(g3
g4
Ntp3615
Rp3616
(dp3617
g8
g11
sg172
Nsg173
(dp3618
sg175
Nsg26
g29
sg176
(lp3619
I14
aI19
asg178
Nsg179
VII Kings 14:19
p3620
sg181
(lp3621
sg183
g134
sg184
Nsg185
(lp3622
I14
aI19
asg187
Nsg188
g3620
sg189
(lp3623
sg191
g60
sg192
Nsg193
Nsg194
Nsbag2
(g3
g4
Ntp3624
Rp3625
(dp3626
g8
g11
sg172
Nsg173
(dp3627
sg175
Nsg26
g29
sg176
(lp3628
I14
aI20
asg178
Nsg179
VII Kings 14:20
p3629
sg181
(lp3630
sg183
g134
sg184
Nsg185
(lp3631
I14
aI20
asg187
Nsg188
g3629
sg189
(lp3632
sg191
g60
sg192
Nsg193
Nsg194
Nsbag2
(g3
g4
Ntp3633
Rp3634
(dp3635
g8
g11
sg172
Nsg173
(dp3636
sg175
Nsg26
g29
sg176
(lp3637
I14
aI21
asg178
Nsg179
VII Kings 14:21
p3638
sg181
(lp3639
sg183
g134
sg184
Nsg185
(lp3640
I14
aI21
asg187
Nsg188
g3638
sg189
(lp3641
sg191
g60
sg192
Nsg193
Nsg194
Nsbag2
(g3
g4
Ntp3642
Rp3643
(dp3644
g8
g11
sg172
Nsg173
(dp3645
sg175
Nsg26
g29
sg176
(lp3646
I14
aI22
asg178
Nsg179
VII Kings 14:22
p3647
sg181
(lp3648
sg183
g134
sg184
Nsg185
(lp3649
I14
aI22
asg187
Nsg188
g3647
sg189
(lp3650
sg191
g60
sg192
Nsg193
Nsg194
Nsbag2
(g3
g4
Ntp3651
Rp3652
(dp3653
g8
g11
sg172
Nsg173
(dp3654
sg175
Nsg26
g29
sg176
(lp3655
I14
aI23
asg178
Nsg179
VII Kings 14:23
p3656
sg181
(lp3657
sg183
g134
sg184
Nsg185
(lp3658
I14
aI23
asg187
Nsg188
g3656
sg189
(lp3659
sg191
g60
sg192
Nsg193
Nsg194
Nsbag2
(g3
g4
Ntp3660
Rp3661
(dp3662
g8
g11
sg172
Nsg173
(dp3663
sg175
Nsg26
g29
sg176
(lp3664
I14
aI24
asg178
Nsg179
VII Kings 14:24
p3665
sg181
(lp3666
sg183
g134
sg184
Nsg185
(lp3667
I14
aI24
asg187
Nsg188
g3665
sg189
(lp3668
sg191
g60
sg192
Nsg193
Nsg194
Nsbag2
(g3
g4
Ntp3669
Rp3670
(dp3671
g8
g11
sg172
Nsg173
(dp3672
sg175
Nsg26
g29
sg176
(lp3673
I14
aI25
asg178
Nsg179
VII Kings 14:25
p3674
sg181
(lp3675
sg183
g134
sg184
Nsg185
(lp3676
I14
aI25
asg187
Nsg188
g3674
sg189
(lp3677
sg191
g60
sg192
Nsg193
Nsg194
Nsbag2
(g3
g4
Ntp3678
Rp3679
(dp3680
g8
g11
sg172
Nsg173
(dp3681
sg175
Nsg26
g29
sg176
(lp3682
I14
aI26
asg178
Nsg179
VII Kings 14:26
p3683
sg181
(lp3684
sg183
g134
sg184
Nsg185
(lp3685
I14
aI26
asg187
Nsg188
g3683
sg189
(lp3686
sg191
g60
sg192
Nsg193
Nsg194
Nsbag2
(g3
g4
Ntp3687
Rp3688
(dp3689
g8
g11
sg172
Nsg173
(dp3690
sg175
Nsg26
g29
sg176
(lp3691
I14
aI27
asg178
Nsg179
VII Kings 14:27
p3692
sg181
(lp3693
sg183
g134
sg184
Nsg185
(lp3694
I14
aI27
asg187
Nsg188
g3692
sg189
(lp3695
sg191
g60
sg192
Nsg193
Nsg194
Nsbag2
(g3
g4
Ntp3696
Rp3697
(dp3698
g8
g11
sg172
Nsg173
(dp3699
sg175
Nsg26
g29
sg176
(lp3700
I14
aI28
asg178
Nsg179
VII Kings 14:28
p3701
sg181
(lp3702
sg183
g134
sg184
Nsg185
(lp3703
I14
aI28
asg187
Nsg188
g3701
sg189
(lp3704
sg191
g60
sg192
Nsg193
Nsg194
Nsbag2
(g3
g4
Ntp3705
Rp3706
(dp3707
g8
g11
sg172
Nsg173
(dp3708
sg175
Nsg26
g29
sg176
(lp3709
I14
aI29
asg178
Nsg179
VII Kings 14:29
p3710
sg181
(lp3711
sg183
g134
sg184
Nsg185
(lp3712
I14
aI29
asg187
Nsg188
g3710
sg189
(lp3713
sg191
g60
sg192
Nsg193
Nsg194
Nsbag2
(g3
g4
Ntp3714
Rp3715
(dp3716
g8
g11
sg172
Nsg173
(dp3717
sg175
Nsg26
g29
sg176
(lp3718
I15
aI1
asg178
Nsg179
VII Kings 15:1
p3719
sg181
(lp3720
sg183
g134
sg184
Nsg185
(lp3721
I15
aI1
asg187
Nsg188
g3719
sg189
(lp3722
sg191
g60
sg192
Nsg193
Nsg194
Nsbag2
(g3
g4
Ntp3723
Rp3724
(dp3725
g8
g11
sg172
Nsg173
(dp3726
sg175
Nsg26
g29
sg176
(lp3727
I15
aI2
asg178
Nsg179
VII Kings 15:2
p3728
sg181
(lp3729
sg183
g134
sg184
Nsg185
(lp3730
I15
aI2
asg187
Nsg188
g3728
sg189
(lp3731
sg191
g60
sg192
Nsg193
Nsg194
Nsbag2
(g3
g4
Ntp3732
Rp3733
(dp3734
g8
g11
sg172
Nsg173
(dp3735
sg175
Nsg26
g29
sg176
(lp3736
I15
aI3
asg178
Nsg179
VII Kings 15:3
p3737
sg181
(lp3738
sg183
g134
sg184
Nsg185
(lp3739
I15
aI3
asg187
Nsg188
g3737
sg189
(lp3740
sg191
g60
sg192
Nsg193
Nsg194
Nsbag2
(g3
g4
Ntp3741
Rp3742
(dp3743
g8
g11
sg172
Nsg173
(dp3744
sg175
Nsg26
g29
sg176
(lp3745
I15
aI4
asg178
Nsg179
VII Kings 15:4
p3746
sg181
(lp3747
sg183
g134
sg184
Nsg185
(lp3748
I15
aI4
asg187
Nsg188
g3746
sg189
(lp3749
sg191
g60
sg192
Nsg193
Nsg194
Nsbag2
(g3
g4
Ntp3750
Rp3751
(dp3752
g8
g11
sg172
Nsg173
(dp3753
sg175
Nsg26
g29
sg176
(lp3754
I15
aI5
asg178
Nsg179
VII Kings 15:5
p3755
sg181
(lp3756
sg183
g134
sg184
Nsg185
(lp3757
I15
aI5
asg187
Nsg188
g3755
sg189
(lp3758
sg191
g60
sg192
Nsg193
Nsg194
Nsbag2
(g3
g4
Ntp3759
Rp3760
(dp3761
g8
g11
sg172
Nsg173
(dp3762
sg175
Nsg26
g29
sg176
(lp3763
I15
aI6
asg178
Nsg179
VII Kings 15:6
p3764
sg181
(lp3765
sg183
g134
sg184
Nsg185
(lp3766
I15
aI6
asg187
Nsg188
g3764
sg189
(lp3767
sg191
g60
sg192
Nsg193
Nsg194
Nsbag2
(g3
g4
Ntp3768
Rp3769
(dp3770
g8
g11
sg172
Nsg173
(dp3771
sg175
Nsg26
g29
sg176
(lp3772
I15
aI7
asg178
Nsg179
VII Kings 15:7
p3773
sg181
(lp3774
sg183
g134
sg184
Nsg185
(lp3775
I15
aI7
asg187
Nsg188
g3773
sg189
(lp3776
sg191
g60
sg192
Nsg193
Nsg194
Nsbag2
(g3
g4
Ntp3777
Rp3778
(dp3779
g8
g11
sg172
Nsg173
(dp3780
sg175
Nsg26
g29
sg176
(lp3781
I15
aI8
asg178
Nsg179
VII Kings 15:8
p3782
sg181
(lp3783
sg183
g134
sg184
Nsg185
(lp3784
I15
aI8
asg187
Nsg188
g3782
sg189
(lp3785
sg191
g60
sg192
Nsg193
Nsg194
Nsbag2
(g3
g4
Ntp3786
Rp3787
(dp3788
g8
g11
sg172
Nsg173
(dp3789
sg175
Nsg26
g29
sg176
(lp3790
I15
aI9
asg178
Nsg179
VII Kings 15:9
p3791
sg181
(lp3792
sg183
g134
sg184
Nsg185
(lp3793
I15
aI9
asg187
Nsg188
g3791
sg189
(lp3794
sg191
g60
sg192
Nsg193
Nsg194
Nsbag2
(g3
g4
Ntp3795
Rp3796
(dp3797
g8
g11
sg172
Nsg173
(dp3798
sg175
Nsg26
g29
sg176
(lp3799
I15
aI10
asg178
Nsg179
VII Kings 15:10
p3800
sg181
(lp3801
sg183
g134
sg184
Nsg185
(lp3802
I15
aI10
asg187
Nsg188
g3800
sg189
(lp3803
sg191
g60
sg192
Nsg193
Nsg194
Nsbag2
(g3
g4
Ntp3804
Rp3805
(dp3806
g8
g11
sg172
Nsg173
(dp3807
sg175
Nsg26
g29
sg176
(lp3808
I15
aI11
asg178
Nsg179
VII Kings 15:11
p3809
sg181
(lp3810
sg183
g134
sg184
Nsg185
(lp3811
I15
aI11
asg187
Nsg188
g3809
sg189
(lp3812
sg191
g60
sg192
Nsg193
Nsg194
Nsbag2
(g3
g4
Ntp3813
Rp3814
(dp3815
g8
g11
sg172
Nsg173
(dp3816
sg175
Nsg26
g29
sg176
(lp3817
I15
aI12
asg178
Nsg179
VII Kings 15:12
p3818
sg181
(lp3819
sg183
g134
sg184
Nsg185
(lp3820
I15
aI12
asg187
Nsg188
g3818
sg189
(lp3821
sg191
g60
sg192
Nsg193
Nsg194
Nsbag2
(g3
g4
Ntp3822
Rp3823
(dp3824
g8
g11
sg172
Nsg173
(dp3825
sg175
Nsg26
g29
sg176
(lp3826
I15
aI13
asg178
Nsg179
VII Kings 15:13
p3827
sg181
(lp3828
sg183
g134
sg184
Nsg185
(lp3829
I15
aI13
asg187
Nsg188
g3827
sg189
(lp3830
sg191
g60
sg192
Nsg193
Nsg194
Nsbag2
(g3
g4
Ntp3831
Rp3832
(dp3833
g8
g11
sg172
Nsg173
(dp3834
sg175
Nsg26
g29
sg176
(lp3835
I15
aI14
asg178
Nsg179
VII Kings 15:14
p3836
sg181
(lp3837
sg183
g134
sg184
Nsg185
(lp3838
I15
aI14
asg187
Nsg188
g3836
sg189
(lp3839
sg191
g60
sg192
Nsg193
Nsg194
Nsbag2
(g3
g4
Ntp3840
Rp3841
(dp3842
g8
g11
sg172
Nsg173
(dp3843
sg175
Nsg26
g29
sg176
(lp3844
I15
aI15
asg178
Nsg179
VII Kings 15:15
p3845
sg181
(lp3846
sg183
g134
sg184
Nsg185
(lp3847
I15
aI15
asg187
Nsg188
g3845
sg189
(lp3848
sg191
g60
sg192
Nsg193
Nsg194
Nsbag2
(g3
g4
Ntp3849
Rp3850
(dp3851
g8
g11
sg172
Nsg173
(dp3852
sg175
Nsg26
g29
sg176
(lp3853
I15
aI16
asg178
Nsg179
VII Kings 15:16
p3854
sg181
(lp3855
sg183
g134
sg184
Nsg185
(lp3856
I15
aI16
asg187
Nsg188
g3854
sg189
(lp3857
sg191
g60
sg192
Nsg193
Nsg194
Nsbag2
(g3
g4
Ntp3858
Rp3859
(dp3860
g8
g11
sg172
Nsg173
(dp3861
sg175
Nsg26
g29
sg176
(lp3862
I15
aI17
asg178
Nsg179
VII Kings 15:17
p3863
sg181
(lp3864
sg183
g134
sg184
Nsg185
(lp3865
I15
aI17
asg187
Nsg188
g3863
sg189
(lp3866
sg191
g60
sg192
Nsg193
Nsg194
Nsbag2
(g3
g4
Ntp3867
Rp3868
(dp3869
g8
g11
sg172
Nsg173
(dp3870
sg175
Nsg26
g29
sg176
(lp3871
I15
aI18
asg178
Nsg179
VII Kings 15:18
p3872
sg181
(lp3873
sg183
g134
sg184
Nsg185
(lp3874
I15
aI18
asg187
Nsg188
g3872
sg189
(lp3875
sg191
g60
sg192
Nsg193
Nsg194
Nsbag2
(g3
g4
Ntp3876
Rp3877
(dp3878
g8
g11
sg172
Nsg173
(dp3879
sg175
Nsg26
g29
sg176
(lp3880
I15
aI19
asg178
Nsg179
VII Kings 15:19
p3881
sg181
(lp3882
sg183
g134
sg184
Nsg185
(lp3883
I15
aI19
asg187
Nsg188
g3881
sg189
(lp3884
sg191
g60
sg192
Nsg193
Nsg194
Nsbag2
(g3
g4
Ntp3885
Rp3886
(dp3887
g8
g11
sg172
Nsg173
(dp3888
sg175
Nsg26
g29
sg176
(lp3889
I15
aI20
asg178
Nsg179
VII Kings 15:20
p3890
sg181
(lp3891
sg183
g134
sg184
Nsg185
(lp3892
I15
aI20
asg187
Nsg188
g3890
sg189
(lp3893
sg191
g60
sg192
Nsg193
Nsg194
Nsbag2
(g3
g4
Ntp3894
Rp3895
(dp3896
g8
g11
sg172
Nsg173
(dp3897
sg175
Nsg26
g29
sg176
(lp3898
I15
aI21
asg178
Nsg179
VII Kings 15:21
p3899
sg181
(lp3900
sg183
g134
sg184
Nsg185
(lp3901
I15
aI21
asg187
Nsg188
g3899
sg189
(lp3902
sg191
g60
sg192
Nsg193
Nsg194
Nsbag2
(g3
g4
Ntp3903
Rp3904
(dp3905
g8
g11
sg172
Nsg173
(dp3906
sg175
Nsg26
g29
sg176
(lp3907
I15
aI22
asg178
Nsg179
VII Kings 15:22
p3908
sg181
(lp3909
sg183
g134
sg184
Nsg185
(lp3910
I15
aI22
asg187
Nsg188
g3908
sg189
(lp3911
sg191
g60
sg192
Nsg193
Nsg194
Nsbag2
(g3
g4
Ntp3912
Rp3913
(dp3914
g8
g11
sg172
Nsg173
(dp3915
sg175
Nsg26
g29
sg176
(lp3916
I15
aI23
asg178
Nsg179
VII Kings 15:23
p3917
sg181
(lp3918
sg183
g134
sg184
Nsg185
(lp3919
I15
aI23
asg187
Nsg188
g3917
sg189
(lp3920
sg191
g60
sg192
Nsg193
Nsg194
Nsbag2
(g3
g4
Ntp3921
Rp3922
(dp3923
g8
g11
sg172
Nsg173
(dp3924
sg175
Nsg26
g29
sg176
(lp3925
I15
aI24
asg178
Nsg179
VII Kings 15:24
p3926
sg181
(lp3927
sg183
g134
sg184
Nsg185
(lp3928
I15
aI24
asg187
Nsg188
g3926
sg189
(lp3929
sg191
g60
sg192
Nsg193
Nsg194
Nsbag2
(g3
g4
Ntp3930
Rp3931
(dp3932
g8
g11
sg172
Nsg173
(dp3933
sg175
Nsg26
g29
sg176
(lp3934
I15
aI25
asg178
Nsg179
VII Kings 15:25
p3935
sg181
(lp3936
sg183
g134
sg184
Nsg185
(lp3937
I15
aI25
asg187
Nsg188
g3935
sg189
(lp3938
sg191
g60
sg192
Nsg193
Nsg194
Nsbag2
(g3
g4
Ntp3939
Rp3940
(dp3941
g8
g11
sg172
Nsg173
(dp3942
sg175
Nsg26
g29
sg176
(lp3943
I15
aI26
asg178
Nsg179
VII Kings 15:26
p3944
sg181
(lp3945
sg183
g134
sg184
Nsg185
(lp3946
I15
aI26
asg187
Nsg188
g3944
sg189
(lp3947
sg191
g60
sg192
Nsg193
Nsg194
Nsbag2
(g3
g4
Ntp3948
Rp3949
(dp3950
g8
g11
sg172
Nsg173
(dp3951
sg175
Nsg26
g29
sg176
(lp3952
I15
aI27
asg178
Nsg179
VII Kings 15:27
p3953
sg181
(lp3954
sg183
g134
sg184
Nsg185
(lp3955
I15
aI27
asg187
Nsg188
g3953
sg189
(lp3956
sg191
g60
sg192
Nsg193
Nsg194
Nsbag2
(g3
g4
Ntp3957
Rp3958
(dp3959
g8
g11
sg172
Nsg173
(dp3960
sg175
Nsg26
g29
sg176
(lp3961
I15
aI28
asg178
Nsg179
VII Kings 15:28
p3962
sg181
(lp3963
sg183
g134
sg184
Nsg185
(lp3964
I15
aI28
asg187
Nsg188
g3962
sg189
(lp3965
sg191
g60
sg192
Nsg193
Nsg194
Nsbag2
(g3
g4
Ntp3966
Rp3967
(dp3968
g8
g11
sg172
Nsg173
(dp3969
sg175
Nsg26
g29
sg176
(lp3970
I15
aI29
asg178
Nsg179
VII Kings 15:29
p3971
sg181
(lp3972
sg183
g134
sg184
Nsg185
(lp3973
I15
aI29
asg187
Nsg188
g3971
sg189
(lp3974
sg191
g60
sg192
Nsg193
Nsg194
Nsbag2
(g3
g4
Ntp3975
Rp3976
(dp3977
g8
g11
sg172
Nsg173
(dp3978
sg175
Nsg26
g29
sg176
(lp3979
I15
aI30
asg178
Nsg179
VII Kings 15:30
p3980
sg181
(lp3981
sg183
g134
sg184
Nsg185
(lp3982
I15
aI30
asg187
Nsg188
g3980
sg189
(lp3983
sg191
g60
sg192
Nsg193
Nsg194
Nsbag2
(g3
g4
Ntp3984
Rp3985
(dp3986
g8
g11
sg172
Nsg173
(dp3987
sg175
Nsg26
g29
sg176
(lp3988
I15
aI31
asg178
Nsg179
VII Kings 15:31
p3989
sg181
(lp3990
sg183
g134
sg184
Nsg185
(lp3991
I15
aI31
asg187
Nsg188
g3989
sg189
(lp3992
sg191
g60
sg192
Nsg193
Nsg194
Nsbag2
(g3
g4
Ntp3993
Rp3994
(dp3995
g8
g11
sg172
Nsg173
(dp3996
sg175
Nsg26
g29
sg176
(lp3997
I15
aI32
asg178
Nsg179
VII Kings 15:32
p3998
sg181
(lp3999
sg183
g134
sg184
Nsg185
(lp4000
I15
aI32
asg187
Nsg188
g3998
sg189
(lp4001
sg191
g60
sg192
Nsg193
Nsg194
Nsbag2
(g3
g4
Ntp4002
Rp4003
(dp4004
g8
g11
sg172
Nsg173
(dp4005
sg175
Nsg26
g29
sg176
(lp4006
I15
aI33
asg178
Nsg179
VII Kings 15:33
p4007
sg181
(lp4008
sg183
g134
sg184
Nsg185
(lp4009
I15
aI33
asg187
Nsg188
g4007
sg189
(lp4010
sg191
g60
sg192
Nsg193
Nsg194
Nsbag2
(g3
g4
Ntp4011
Rp4012
(dp4013
g8
g11
sg172
Nsg173
(dp4014
sg175
Nsg26
g29
sg176
(lp4015
I15
aI34
asg178
Nsg179
VII Kings 15:34
p4016
sg181
(lp4017
sg183
g134
sg184
Nsg185
(lp4018
I15
aI34
asg187
Nsg188
g4016
sg189
(lp4019
sg191
g60
sg192
Nsg193
Nsg194
Nsbag2
(g3
g4
Ntp4020
Rp4021
(dp4022
g8
g11
sg172
Nsg173
(dp4023
sg175
Nsg26
g29
sg176
(lp4024
I15
aI35
asg178
Nsg179
VII Kings 15:35
p4025
sg181
(lp4026
sg183
g134
sg184
Nsg185
(lp4027
I15
aI35
asg187
Nsg188
g4025
sg189
(lp4028
sg191
g60
sg192
Nsg193
Nsg194
Nsbag2
(g3
g4
Ntp4029
Rp4030
(dp4031
g8
g11
sg172
Nsg173
(dp4032
sg175
Nsg26
g29
sg176
(lp4033
I15
aI36
asg178
Nsg179
VII Kings 15:36
p4034
sg181
(lp4035
sg183
g134
sg184
Nsg185
(lp4036
I15
aI36
asg187
Nsg188
g4034
sg189
(lp4037
sg191
g60
sg192
Nsg193
Nsg194
Nsbag2
(g3
g4
Ntp4038
Rp4039
(dp4040
g8
g11
sg172
Nsg173
(dp4041
sg175
Nsg26
g29
sg176
(lp4042
I15
aI37
asg178
Nsg179
VII Kings 15:37
p4043
sg181
(lp4044
sg183
g134
sg184
Nsg185
(lp4045
I15
aI37
asg187
Nsg188
g4043
sg189
(lp4046
sg191
g60
sg192
Nsg193
Nsg194
Nsbag2
(g3
g4
Ntp4047
Rp4048
(dp4049
g8
g11
sg172
Nsg173
(dp4050
sg175
Nsg26
g29
sg176
(lp4051
I15
aI38
asg178
Nsg179
VII Kings 15:38
p4052
sg181
(lp4053
sg183
g134
sg184
Nsg185
(lp4054
I15
aI38
asg187
Nsg188
g4052
sg189
(lp4055
sg191
g60
sg192
Nsg193
Nsg194
Nsbag2
(g3
g4
Ntp4056
Rp4057
(dp4058
g8
g11
sg172
Nsg173
(dp4059
sg175
Nsg26
g29
sg176
(lp4060
I16
aI1
asg178
Nsg179
VII Kings 16:1
p4061
sg181
(lp4062
sg183
g134
sg184
Nsg185
(lp4063
I16
aI1
asg187
Nsg188
g4061
sg189
(lp4064
sg191
g60
sg192
Nsg193
Nsg194
Nsbag2
(g3
g4
Ntp4065
Rp4066
(dp4067
g8
g11
sg172
Nsg173
(dp4068
sg175
Nsg26
g29
sg176
(lp4069
I16
aI2
asg178
Nsg179
VII Kings 16:2
p4070
sg181
(lp4071
sg183
g134
sg184
Nsg185
(lp4072
I16
aI2
asg187
Nsg188
g4070
sg189
(lp4073
sg191
g60
sg192
Nsg193
Nsg194
Nsbag2
(g3
g4
Ntp4074
Rp4075
(dp4076
g8
g11
sg172
Nsg173
(dp4077
sg175
Nsg26
g29
sg176
(lp4078
I16
aI3
asg178
Nsg179
VII Kings 16:3
p4079
sg181
(lp4080
sg183
g134
sg184
Nsg185
(lp4081
I16
aI3
asg187
Nsg188
g4079
sg189
(lp4082
sg191
g60
sg192
Nsg193
Nsg194
Nsbag2
(g3
g4
Ntp4083
Rp4084
(dp4085
g8
g11
sg172
Nsg173
(dp4086
sg175
Nsg26
g29
sg176
(lp4087
I16
aI4
asg178
Nsg179
VII Kings 16:4
p4088
sg181
(lp4089
sg183
g134
sg184
Nsg185
(lp4090
I16
aI4
asg187
Nsg188
g4088
sg189
(lp4091
sg191
g60
sg192
Nsg193
Nsg194
Nsbag2
(g3
g4
Ntp4092
Rp4093
(dp4094
g8
g11
sg172
Nsg173
(dp4095
sg175
Nsg26
g29
sg176
(lp4096
I16
aI5
asg178
Nsg179
VII Kings 16:5
p4097
sg181
(lp4098
sg183
g134
sg184
Nsg185
(lp4099
I16
aI5
asg187
Nsg188
g4097
sg189
(lp4100
sg191
g60
sg192
Nsg193
Nsg194
Nsbag2
(g3
g4
Ntp4101
Rp4102
(dp4103
g8
g11
sg172
Nsg173
(dp4104
sg175
Nsg26
g29
sg176
(lp4105
I16
aI6
asg178
Nsg179
VII Kings 16:6
p4106
sg181
(lp4107
sg183
g134
sg184
Nsg185
(lp4108
I16
aI6
asg187
Nsg188
g4106
sg189
(lp4109
sg191
g60
sg192
Nsg193
Nsg194
Nsbag2
(g3
g4
Ntp4110
Rp4111
(dp4112
g8
g11
sg172
Nsg173
(dp4113
sg175
Nsg26
g29
sg176
(lp4114
I16
aI7
asg178
Nsg179
VII Kings 16:7
p4115
sg181
(lp4116
sg183
g134
sg184
Nsg185
(lp4117
I16
aI7
asg187
Nsg188
g4115
sg189
(lp4118
sg191
g60
sg192
Nsg193
Nsg194
Nsbag2
(g3
g4
Ntp4119
Rp4120
(dp4121
g8
g11
sg172
Nsg173
(dp4122
sg175
Nsg26
g29
sg176
(lp4123
I16
aI8
asg178
Nsg179
VII Kings 16:8
p4124
sg181
(lp4125
sg183
g134
sg184
Nsg185
(lp4126
I16
aI8
asg187
Nsg188
g4124
sg189
(lp4127
sg191
g60
sg192
Nsg193
Nsg194
Nsbag2
(g3
g4
Ntp4128
Rp4129
(dp4130
g8
g11
sg172
Nsg173
(dp4131
sg175
Nsg26
g29
sg176
(lp4132
I16
aI9
asg178
Nsg179
VII Kings 16:9
p4133
sg181
(lp4134
sg183
g134
sg184
Nsg185
(lp4135
I16
aI9
asg187
Nsg188
g4133
sg189
(lp4136
sg191
g60
sg192
Nsg193
Nsg194
Nsbag2
(g3
g4
Ntp4137
Rp4138
(dp4139
g8
g11
sg172
Nsg173
(dp4140
sg175
Nsg26
g29
sg176
(lp4141
I16
aI10
asg178
Nsg179
VII Kings 16:10
p4142
sg181
(lp4143
sg183
g134
sg184
Nsg185
(lp4144
I16
aI10
asg187
Nsg188
g4142
sg189
(lp4145
sg191
g60
sg192
Nsg193
Nsg194
Nsbag2
(g3
g4
Ntp4146
Rp4147
(dp4148
g8
g11
sg172
Nsg173
(dp4149
sg175
Nsg26
g29
sg176
(lp4150
I16
aI11
asg178
Nsg179
VII Kings 16:11
p4151
sg181
(lp4152
sg183
g134
sg184
Nsg185
(lp4153
I16
aI11
asg187
Nsg188
g4151
sg189
(lp4154
sg191
g60
sg192
Nsg193
Nsg194
Nsbag2
(g3
g4
Ntp4155
Rp4156
(dp4157
g8
g11
sg172
Nsg173
(dp4158
sg175
Nsg26
g29
sg176
(lp4159
I16
aI12
asg178
Nsg179
VII Kings 16:12
p4160
sg181
(lp4161
sg183
g134
sg184
Nsg185
(lp4162
I16
aI12
asg187
Nsg188
g4160
sg189
(lp4163
sg191
g60
sg192
Nsg193
Nsg194
Nsbag2
(g3
g4
Ntp4164
Rp4165
(dp4166
g8
g11
sg172
Nsg173
(dp4167
sg175
Nsg26
g29
sg176
(lp4168
I16
aI13
asg178
Nsg179
VII Kings 16:13
p4169
sg181
(lp4170
sg183
g134
sg184
Nsg185
(lp4171
I16
aI13
asg187
Nsg188
g4169
sg189
(lp4172
sg191
g60
sg192
Nsg193
Nsg194
Nsbag2
(g3
g4
Ntp4173
Rp4174
(dp4175
g8
g11
sg172
Nsg173
(dp4176
sg175
Nsg26
g29
sg176
(lp4177
I16
aI14
asg178
Nsg179
VII Kings 16:14
p4178
sg181
(lp4179
sg183
g134
sg184
Nsg185
(lp4180
I16
aI14
asg187
Nsg188
g4178
sg189
(lp4181
sg191
g60
sg192
Nsg193
Nsg194
Nsbag2
(g3
g4
Ntp4182
Rp4183
(dp4184
g8
g11
sg172
Nsg173
(dp4185
sg175
Nsg26
g29
sg176
(lp4186
I16
aI15
asg178
Nsg179
VII Kings 16:15
p4187
sg181
(lp4188
sg183
g134
sg184
Nsg185
(lp4189
I16
aI15
asg187
Nsg188
g4187
sg189
(lp4190
sg191
g60
sg192
Nsg193
Nsg194
Nsbag2
(g3
g4
Ntp4191
Rp4192
(dp4193
g8
g11
sg172
Nsg173
(dp4194
sg175
Nsg26
g29
sg176
(lp4195
I16
aI16
asg178
Nsg179
VII Kings 16:16
p4196
sg181
(lp4197
sg183
g134
sg184
Nsg185
(lp4198
I16
aI16
asg187
Nsg188
g4196
sg189
(lp4199
sg191
g60
sg192
Nsg193
Nsg194
Nsbag2
(g3
g4
Ntp4200
Rp4201
(dp4202
g8
g11
sg172
Nsg173
(dp4203
sg175
Nsg26
g29
sg176
(lp4204
I16
aI17
asg178
Nsg179
VII Kings 16:17
p4205
sg181
(lp4206
sg183
g134
sg184
Nsg185
(lp4207
I16
aI17
asg187
Nsg188
g4205
sg189
(lp4208
sg191
g60
sg192
Nsg193
Nsg194
Nsbag2
(g3
g4
Ntp4209
Rp4210
(dp4211
g8
g11
sg172
Nsg173
(dp4212
sg175
Nsg26
g29
sg176
(lp4213
I16
aI18
asg178
Nsg179
VII Kings 16:18
p4214
sg181
(lp4215
sg183
g134
sg184
Nsg185
(lp4216
I16
aI18
asg187
Nsg188
g4214
sg189
(lp4217
sg191
g60
sg192
Nsg193
Nsg194
Nsbag2
(g3
g4
Ntp4218
Rp4219
(dp4220
g8
g11
sg172
Nsg173
(dp4221
sg175
Nsg26
g29
sg176
(lp4222
I16
aI19
asg178
Nsg179
VII Kings 16:19
p4223
sg181
(lp4224
sg183
g134
sg184
Nsg185
(lp4225
I16
aI19
asg187
Nsg188
g4223
sg189
(lp4226
sg191
g60
sg192
Nsg193
Nsg194
Nsbag2
(g3
g4
Ntp4227
Rp4228
(dp4229
g8
g11
sg172
Nsg173
(dp4230
sg175
Nsg26
g29
sg176
(lp4231
I16
aI20
asg178
Nsg179
VII Kings 16:20
p4232
sg181
(lp4233
sg183
g134
sg184
Nsg185
(lp4234
I16
aI20
asg187
Nsg188
g4232
sg189
(lp4235
sg191
g60
sg192
Nsg193
Nsg194
Nsbag2
(g3
g4
Ntp4236
Rp4237
(dp4238
g8
g11
sg172
Nsg173
(dp4239
sg175
Nsg26
g29
sg176
(lp4240
I17
aI1
asg178
Nsg179
VII Kings 17:1
p4241
sg181
(lp4242
sg183
g134
sg184
Nsg185
(lp4243
I17
aI1
asg187
Nsg188
g4241
sg189
(lp4244
sg191
g60
sg192
Nsg193
Nsg194
Nsbag2
(g3
g4
Ntp4245
Rp4246
(dp4247
g8
g11
sg172
Nsg173
(dp4248
sg175
Nsg26
g29
sg176
(lp4249
I17
aI2
asg178
Nsg179
VII Kings 17:2
p4250
sg181
(lp4251
sg183
g134
sg184
Nsg185
(lp4252
I17
aI2
asg187
Nsg188
g4250
sg189
(lp4253
sg191
g60
sg192
Nsg193
Nsg194
Nsbag2
(g3
g4
Ntp4254
Rp4255
(dp4256
g8
g11
sg172
Nsg173
(dp4257
sg175
Nsg26
g29
sg176
(lp4258
I17
aI3
asg178
Nsg179
VII Kings 17:3
p4259
sg181
(lp4260
sg183
g134
sg184
Nsg185
(lp4261
I17
aI3
asg187
Nsg188
g4259
sg189
(lp4262
sg191
g60
sg192
Nsg193
Nsg194
Nsbag2
(g3
g4
Ntp4263
Rp4264
(dp4265
g8
g11
sg172
Nsg173
(dp4266
sg175
Nsg26
g29
sg176
(lp4267
I17
aI4
asg178
Nsg179
VII Kings 17:4
p4268
sg181
(lp4269
sg183
g134
sg184
Nsg185
(lp4270
I17
aI4
asg187
Nsg188
g4268
sg189
(lp4271
sg191
g60
sg192
Nsg193
Nsg194
Nsbag2
(g3
g4
Ntp4272
Rp4273
(dp4274
g8
g11
sg172
Nsg173
(dp4275
sg175
Nsg26
g29
sg176
(lp4276
I17
aI5
asg178
Nsg179
VII Kings 17:5
p4277
sg181
(lp4278
sg183
g134
sg184
Nsg185
(lp4279
I17
aI5
asg187
Nsg188
g4277
sg189
(lp4280
sg191
g60
sg192
Nsg193
Nsg194
Nsbag2
(g3
g4
Ntp4281
Rp4282
(dp4283
g8
g11
sg172
Nsg173
(dp4284
sg175
Nsg26
g29
sg176
(lp4285
I17
aI6
asg178
Nsg179
VII Kings 17:6
p4286
sg181
(lp4287
sg183
g134
sg184
Nsg185
(lp4288
I17
aI6
asg187
Nsg188
g4286
sg189
(lp4289
sg191
g60
sg192
Nsg193
Nsg194
Nsbag2
(g3
g4
Ntp4290
Rp4291
(dp4292
g8
g11
sg172
Nsg173
(dp4293
sg175
Nsg26
g29
sg176
(lp4294
I17
aI7
asg178
Nsg179
VII Kings 17:7
p4295
sg181
(lp4296
sg183
g134
sg184
Nsg185
(lp4297
I17
aI7
asg187
Nsg188
g4295
sg189
(lp4298
sg191
g60
sg192
Nsg193
Nsg194
Nsbag2
(g3
g4
Ntp4299
Rp4300
(dp4301
g8
g11
sg172
Nsg173
(dp4302
sg175
Nsg26
g29
sg176
(lp4303
I17
aI8
asg178
Nsg179
VII Kings 17:8
p4304
sg181
(lp4305
sg183
g134
sg184
Nsg185
(lp4306
I17
aI8
asg187
Nsg188
g4304
sg189
(lp4307
sg191
g60
sg192
Nsg193
Nsg194
Nsbag2
(g3
g4
Ntp4308
Rp4309
(dp4310
g8
g11
sg172
Nsg173
(dp4311
sg175
Nsg26
g29
sg176
(lp4312
I17
aI9
asg178
Nsg179
VII Kings 17:9
p4313
sg181
(lp4314
sg183
g134
sg184
Nsg185
(lp4315
I17
aI9
asg187
Nsg188
g4313
sg189
(lp4316
sg191
g60
sg192
Nsg193
Nsg194
Nsbag2
(g3
g4
Ntp4317
Rp4318
(dp4319
g8
g11
sg172
Nsg173
(dp4320
sg175
Nsg26
g29
sg176
(lp4321
I17
aI10
asg178
Nsg179
VII Kings 17:10
p4322
sg181
(lp4323
sg183
g134
sg184
Nsg185
(lp4324
I17
aI10
asg187
Nsg188
g4322
sg189
(lp4325
sg191
g60
sg192
Nsg193
Nsg194
Nsbag2
(g3
g4
Ntp4326
Rp4327
(dp4328
g8
g11
sg172
Nsg173
(dp4329
sg175
Nsg26
g29
sg176
(lp4330
I17
aI11
asg178
Nsg179
VII Kings 17:11
p4331
sg181
(lp4332
sg183
g134
sg184
Nsg185
(lp4333
I17
aI11
asg187
Nsg188
g4331
sg189
(lp4334
sg191
g60
sg192
Nsg193
Nsg194
Nsbag2
(g3
g4
Ntp4335
Rp4336
(dp4337
g8
g11
sg172
Nsg173
(dp4338
sg175
Nsg26
g29
sg176
(lp4339
I17
aI12
asg178
Nsg179
VII Kings 17:12
p4340
sg181
(lp4341
sg183
g134
sg184
Nsg185
(lp4342
I17
aI12
asg187
Nsg188
g4340
sg189
(lp4343
sg191
g60
sg192
Nsg193
Nsg194
Nsbag2
(g3
g4
Ntp4344
Rp4345
(dp4346
g8
g11
sg172
Nsg173
(dp4347
sg175
Nsg26
g29
sg176
(lp4348
I17
aI13
asg178
Nsg179
VII Kings 17:13
p4349
sg181
(lp4350
sg183
g134
sg184
Nsg185
(lp4351
I17
aI13
asg187
Nsg188
g4349
sg189
(lp4352
sg191
g60
sg192
Nsg193
Nsg194
Nsbag2
(g3
g4
Ntp4353
Rp4354
(dp4355
g8
g11
sg172
Nsg173
(dp4356
sg175
Nsg26
g29
sg176
(lp4357
I17
aI14
asg178
Nsg179
VII Kings 17:14
p4358
sg181
(lp4359
sg183
g134
sg184
Nsg185
(lp4360
I17
aI14
asg187
Nsg188
g4358
sg189
(lp4361
sg191
g60
sg192
Nsg193
Nsg194
Nsbag2
(g3
g4
Ntp4362
Rp4363
(dp4364
g8
g11
sg172
Nsg173
(dp4365
sg175
Nsg26
g29
sg176
(lp4366
I17
aI15
asg178
Nsg179
VII Kings 17:15
p4367
sg181
(lp4368
sg183
g134
sg184
Nsg185
(lp4369
I17
aI15
asg187
Nsg188
g4367
sg189
(lp4370
sg191
g60
sg192
Nsg193
Nsg194
Nsbag2
(g3
g4
Ntp4371
Rp4372
(dp4373
g8
g11
sg172
Nsg173
(dp4374
sg175
Nsg26
g29
sg176
(lp4375
I17
aI16
asg178
Nsg179
VII Kings 17:16
p4376
sg181
(lp4377
sg183
g134
sg184
Nsg185
(lp4378
I17
aI16
asg187
Nsg188
g4376
sg189
(lp4379
sg191
g60
sg192
Nsg193
Nsg194
Nsbag2
(g3
g4
Ntp4380
Rp4381
(dp4382
g8
g11
sg172
Nsg173
(dp4383
sg175
Nsg26
g29
sg176
(lp4384
I17
aI17
asg178
Nsg179
VII Kings 17:17
p4385
sg181
(lp4386
sg183
g134
sg184
Nsg185
(lp4387
I17
aI17
asg187
Nsg188
g4385
sg189
(lp4388
sg191
g60
sg192
Nsg193
Nsg194
Nsbag2
(g3
g4
Ntp4389
Rp4390
(dp4391
g8
g11
sg172
Nsg173
(dp4392
sg175
Nsg26
g29
sg176
(lp4393
I17
aI18
asg178
Nsg179
VII Kings 17:18
p4394
sg181
(lp4395
sg183
g134
sg184
Nsg185
(lp4396
I17
aI18
asg187
Nsg188
g4394
sg189
(lp4397
sg191
g60
sg192
Nsg193
Nsg194
Nsbag2
(g3
g4
Ntp4398
Rp4399
(dp4400
g8
g11
sg172
Nsg173
(dp4401
sg175
Nsg26
g29
sg176
(lp4402
I17
aI19
asg178
Nsg179
VII Kings 17:19
p4403
sg181
(lp4404
sg183
g134
sg184
Nsg185
(lp4405
I17
aI19
asg187
Nsg188
g4403
sg189
(lp4406
sg191
g60
sg192
Nsg193
Nsg194
Nsbag2
(g3
g4
Ntp4407
Rp4408
(dp4409
g8
g11
sg172
Nsg173
(dp4410
sg175
Nsg26
g29
sg176
(lp4411
I17
aI20
asg178
Nsg179
VII Kings 17:20
p4412
sg181
(lp4413
sg183
g134
sg184
Nsg185
(lp4414
I17
aI20
asg187
Nsg188
g4412
sg189
(lp4415
sg191
g60
sg192
Nsg193
Nsg194
Nsbag2
(g3
g4
Ntp4416
Rp4417
(dp4418
g8
g11
sg172
Nsg173
(dp4419
sg175
Nsg26
g29
sg176
(lp4420
I17
aI21
asg178
Nsg179
VII Kings 17:21
p4421
sg181
(lp4422
sg183
g134
sg184
Nsg185
(lp4423
I17
aI21
asg187
Nsg188
g4421
sg189
(lp4424
sg191
g60
sg192
Nsg193
Nsg194
Nsbag2
(g3
g4
Ntp4425
Rp4426
(dp4427
g8
g11
sg172
Nsg173
(dp4428
sg175
Nsg26
g29
sg176
(lp4429
I17
aI22
asg178
Nsg179
VII Kings 17:22
p4430
sg181
(lp4431
sg183
g134
sg184
Nsg185
(lp4432
I17
aI22
asg187
Nsg188
g4430
sg189
(lp4433
sg191
g60
sg192
Nsg193
Nsg194
Nsbag2
(g3
g4
Ntp4434
Rp4435
(dp4436
g8
g11
sg172
Nsg173
(dp4437
sg175
Nsg26
g29
sg176
(lp4438
I17
aI23
asg178
Nsg179
VII Kings 17:23
p4439
sg181
(lp4440
sg183
g134
sg184
Nsg185
(lp4441
I17
aI23
asg187
Nsg188
g4439
sg189
(lp4442
sg191
g60
sg192
Nsg193
Nsg194
Nsbag2
(g3
g4
Ntp4443
Rp4444
(dp4445
g8
g11
sg172
Nsg173
(dp4446
sg175
Nsg26
g29
sg176
(lp4447
I17
aI24
asg178
Nsg179
VII Kings 17:24
p4448
sg181
(lp4449
sg183
g134
sg184
Nsg185
(lp4450
I17
aI24
asg187
Nsg188
g4448
sg189
(lp4451
sg191
g60
sg192
Nsg193
Nsg194
Nsbag2
(g3
g4
Ntp4452
Rp4453
(dp4454
g8
g11
sg172
Nsg173
(dp4455
sg175
Nsg26
g29
sg176
(lp4456
I17
aI25
asg178
Nsg179
VII Kings 17:25
p4457
sg181
(lp4458
sg183
g134
sg184
Nsg185
(lp4459
I17
aI25
asg187
Nsg188
g4457
sg189
(lp4460
sg191
g60
sg192
Nsg193
Nsg194
Nsbag2
(g3
g4
Ntp4461
Rp4462
(dp4463
g8
g11
sg172
Nsg173
(dp4464
sg175
Nsg26
g29
sg176
(lp4465
I17
aI26
asg178
Nsg179
VII Kings 17:26
p4466
sg181
(lp4467
sg183
g134
sg184
Nsg185
(lp4468
I17
aI26
asg187
Nsg188
g4466
sg189
(lp4469
sg191
g60
sg192
Nsg193
Nsg194
Nsbag2
(g3
g4
Ntp4470
Rp4471
(dp4472
g8
g11
sg172
Nsg173
(dp4473
sg175
Nsg26
g29
sg176
(lp4474
I17
aI27
asg178
Nsg179
VII Kings 17:27
p4475
sg181
(lp4476
sg183
g134
sg184
Nsg185
(lp4477
I17
aI27
asg187
Nsg188
g4475
sg189
(lp4478
sg191
g60
sg192
Nsg193
Nsg194
Nsbag2
(g3
g4
Ntp4479
Rp4480
(dp4481
g8
g11
sg172
Nsg173
(dp4482
sg175
Nsg26
g29
sg176
(lp4483
I17
aI28
asg178
Nsg179
VII Kings 17:28
p4484
sg181
(lp4485
sg183
g134
sg184
Nsg185
(lp4486
I17
aI28
asg187
Nsg188
g4484
sg189
(lp4487
sg191
g60
sg192
Nsg193
Nsg194
Nsbag2
(g3
g4
Ntp4488
Rp4489
(dp4490
g8
g11
sg172
Nsg173
(dp4491
sg175
Nsg26
g29
sg176
(lp4492
I17
aI29
asg178
Nsg179
VII Kings 17:29
p4493
sg181
(lp4494
sg183
g134
sg184
Nsg185
(lp4495
I17
aI29
asg187
Nsg188
g4493
sg189
(lp4496
sg191
g60
sg192
Nsg193
Nsg194
Nsbag2
(g3
g4
Ntp4497
Rp4498
(dp4499
g8
g11
sg172
Nsg173
(dp4500
sg175
Nsg26
g29
sg176
(lp4501
I17
aI30
asg178
Nsg179
VII Kings 17:30
p4502
sg181
(lp4503
sg183
g134
sg184
Nsg185
(lp4504
I17
aI30
asg187
Nsg188
g4502
sg189
(lp4505
sg191
g60
sg192
Nsg193
Nsg194
Nsbag2
(g3
g4
Ntp4506
Rp4507
(dp4508
g8
g11
sg172
Nsg173
(dp4509
sg175
Nsg26
g29
sg176
(lp4510
I17
aI31
asg178
Nsg179
VII Kings 17:31
p4511
sg181
(lp4512
sg183
g134
sg184
Nsg185
(lp4513
I17
aI31
asg187
Nsg188
g4511
sg189
(lp4514
sg191
g60
sg192
Nsg193
Nsg194
Nsbag2
(g3
g4
Ntp4515
Rp4516
(dp4517
g8
g11
sg172
Nsg173
(dp4518
sg175
Nsg26
g29
sg176
(lp4519
I17
aI32
asg178
Nsg179
VII Kings 17:32
p4520
sg181
(lp4521
sg183
g134
sg184
Nsg185
(lp4522
I17
aI32
asg187
Nsg188
g4520
sg189
(lp4523
sg191
g60
sg192
Nsg193
Nsg194
Nsbag2
(g3
g4
Ntp4524
Rp4525
(dp4526
g8
g11
sg172
Nsg173
(dp4527
sg175
Nsg26
g29
sg176
(lp4528
I17
aI33
asg178
Nsg179
VII Kings 17:33
p4529
sg181
(lp4530
sg183
g134
sg184
Nsg185
(lp4531
I17
aI33
asg187
Nsg188
g4529
sg189
(lp4532
sg191
g60
sg192
Nsg193
Nsg194
Nsbag2
(g3
g4
Ntp4533
Rp4534
(dp4535
g8
g11
sg172
Nsg173
(dp4536
sg175
Nsg26
g29
sg176
(lp4537
I17
aI34
asg178
Nsg179
VII Kings 17:34
p4538
sg181
(lp4539
sg183
g134
sg184
Nsg185
(lp4540
I17
aI34
asg187
Nsg188
g4538
sg189
(lp4541
sg191
g60
sg192
Nsg193
Nsg194
Nsbag2
(g3
g4
Ntp4542
Rp4543
(dp4544
g8
g11
sg172
Nsg173
(dp4545
sg175
Nsg26
g29
sg176
(lp4546
I17
aI35
asg178
Nsg179
VII Kings 17:35
p4547
sg181
(lp4548
sg183
g134
sg184
Nsg185
(lp4549
I17
aI35
asg187
Nsg188
g4547
sg189
(lp4550
sg191
g60
sg192
Nsg193
Nsg194
Nsbag2
(g3
g4
Ntp4551
Rp4552
(dp4553
g8
g11
sg172
Nsg173
(dp4554
sg175
Nsg26
g29
sg176
(lp4555
I17
aI36
asg178
Nsg179
VII Kings 17:36
p4556
sg181
(lp4557
sg183
g134
sg184
Nsg185
(lp4558
I17
aI36
asg187
Nsg188
g4556
sg189
(lp4559
sg191
g60
sg192
Nsg193
Nsg194
Nsbag2
(g3
g4
Ntp4560
Rp4561
(dp4562
g8
g11
sg172
Nsg173
(dp4563
sg175
Nsg26
g29
sg176
(lp4564
I17
aI37
asg178
Nsg179
VII Kings 17:37
p4565
sg181
(lp4566
sg183
g134
sg184
Nsg185
(lp4567
I17
aI37
asg187
Nsg188
g4565
sg189
(lp4568
sg191
g60
sg192
Nsg193
Nsg194
Nsbag2
(g3
g4
Ntp4569
Rp4570
(dp4571
g8
g11
sg172
Nsg173
(dp4572
sg175
Nsg26
g29
sg176
(lp4573
I17
aI38
asg178
Nsg179
VII Kings 17:38
p4574
sg181
(lp4575
sg183
g134
sg184
Nsg185
(lp4576
I17
aI38
asg187
Nsg188
g4574
sg189
(lp4577
sg191
g60
sg192
Nsg193
Nsg194
Nsbag2
(g3
g4
Ntp4578
Rp4579
(dp4580
g8
g11
sg172
Nsg173
(dp4581
sg175
Nsg26
g29
sg176
(lp4582
I17
aI39
asg178
Nsg179
VII Kings 17:39
p4583
sg181
(lp4584
sg183
g134
sg184
Nsg185
(lp4585
I17
aI39
asg187
Nsg188
g4583
sg189
(lp4586
sg191
g60
sg192
Nsg193
Nsg194
Nsbag2
(g3
g4
Ntp4587
Rp4588
(dp4589
g8
g11
sg172
Nsg173
(dp4590
sg175
Nsg26
g29
sg176
(lp4591
I17
aI40
asg178
Nsg179
VII Kings 17:40
p4592
sg181
(lp4593
sg183
g134
sg184
Nsg185
(lp4594
I17
aI40
asg187
Nsg188
g4592
sg189
(lp4595
sg191
g60
sg192
Nsg193
Nsg194
Nsbag2
(g3
g4
Ntp4596
Rp4597
(dp4598
g8
g11
sg172
Nsg173
(dp4599
sg175
Nsg26
g29
sg176
(lp4600
I17
aI41
asg178
Nsg179
VII Kings 17:41
p4601
sg181
(lp4602
sg183
g134
sg184
Nsg185
(lp4603
I17
aI41
asg187
Nsg188
g4601
sg189
(lp4604
sg191
g60
sg192
Nsg193
Nsg194
Nsbag2
(g3
g4
Ntp4605
Rp4606
(dp4607
g8
g11
sg172
Nsg173
(dp4608
sg175
Nsg26
g29
sg176
(lp4609
I18
aI1
asg178
Nsg179
VII Kings 18:1
p4610
sg181
(lp4611
sg183
g134
sg184
Nsg185
(lp4612
I18
aI1
asg187
Nsg188
g4610
sg189
(lp4613
sg191
g60
sg192
Nsg193
Nsg194
Nsbag2
(g3
g4
Ntp4614
Rp4615
(dp4616
g8
g11
sg172
Nsg173
(dp4617
sg175
Nsg26
g29
sg176
(lp4618
I18
aI2
asg178
Nsg179
VII Kings 18:2
p4619
sg181
(lp4620
sg183
g134
sg184
Nsg185
(lp4621
I18
aI2
asg187
Nsg188
g4619
sg189
(lp4622
sg191
g60
sg192
Nsg193
Nsg194
Nsbag2
(g3
g4
Ntp4623
Rp4624
(dp4625
g8
g11
sg172
Nsg173
(dp4626
sg175
Nsg26
g29
sg176
(lp4627
I18
aI3
asg178
Nsg179
VII Kings 18:3
p4628
sg181
(lp4629
sg183
g134
sg184
Nsg185
(lp4630
I18
aI3
asg187
Nsg188
g4628
sg189
(lp4631
sg191
g60
sg192
Nsg193
Nsg194
Nsbag2
(g3
g4
Ntp4632
Rp4633
(dp4634
g8
g11
sg172
Nsg173
(dp4635
sg175
Nsg26
g29
sg176
(lp4636
I18
aI4
asg178
Nsg179
VII Kings 18:4
p4637
sg181
(lp4638
sg183
g134
sg184
Nsg185
(lp4639
I18
aI4
asg187
Nsg188
g4637
sg189
(lp4640
sg191
g60
sg192
Nsg193
Nsg194
Nsbag2
(g3
g4
Ntp4641
Rp4642
(dp4643
g8
g11
sg172
Nsg173
(dp4644
sg175
Nsg26
g29
sg176
(lp4645
I18
aI5
asg178
Nsg179
VII Kings 18:5
p4646
sg181
(lp4647
sg183
g134
sg184
Nsg185
(lp4648
I18
aI5
asg187
Nsg188
g4646
sg189
(lp4649
sg191
g60
sg192
Nsg193
Nsg194
Nsbag2
(g3
g4
Ntp4650
Rp4651
(dp4652
g8
g11
sg172
Nsg173
(dp4653
sg175
Nsg26
g29
sg176
(lp4654
I18
aI6
asg178
Nsg179
VII Kings 18:6
p4655
sg181
(lp4656
sg183
g134
sg184
Nsg185
(lp4657
I18
aI6
asg187
Nsg188
g4655
sg189
(lp4658
sg191
g60
sg192
Nsg193
Nsg194
Nsbag2
(g3
g4
Ntp4659
Rp4660
(dp4661
g8
g11
sg172
Nsg173
(dp4662
sg175
Nsg26
g29
sg176
(lp4663
I18
aI7
asg178
Nsg179
VII Kings 18:7
p4664
sg181
(lp4665
sg183
g134
sg184
Nsg185
(lp4666
I18
aI7
asg187
Nsg188
g4664
sg189
(lp4667
sg191
g60
sg192
Nsg193
Nsg194
Nsbag2
(g3
g4
Ntp4668
Rp4669
(dp4670
g8
g11
sg172
Nsg173
(dp4671
sg175
Nsg26
g29
sg176
(lp4672
I18
aI8
asg178
Nsg179
VII Kings 18:8
p4673
sg181
(lp4674
sg183
g134
sg184
Nsg185
(lp4675
I18
aI8
asg187
Nsg188
g4673
sg189
(lp4676
sg191
g60
sg192
Nsg193
Nsg194
Nsbag2
(g3
g4
Ntp4677
Rp4678
(dp4679
g8
g11
sg172
Nsg173
(dp4680
sg175
Nsg26
g29
sg176
(lp4681
I18
aI9
asg178
Nsg179
VII Kings 18:9
p4682
sg181
(lp4683
sg183
g134
sg184
Nsg185
(lp4684
I18
aI9
asg187
Nsg188
g4682
sg189
(lp4685
sg191
g60
sg192
Nsg193
Nsg194
Nsbag2
(g3
g4
Ntp4686
Rp4687
(dp4688
g8
g11
sg172
Nsg173
(dp4689
sg175
Nsg26
g29
sg176
(lp4690
I18
aI10
asg178
Nsg179
VII Kings 18:10
p4691
sg181
(lp4692
sg183
g134
sg184
Nsg185
(lp4693
I18
aI10
asg187
Nsg188
g4691
sg189
(lp4694
sg191
g60
sg192
Nsg193
Nsg194
Nsbag2
(g3
g4
Ntp4695
Rp4696
(dp4697
g8
g11
sg172
Nsg173
(dp4698
sg175
Nsg26
g29
sg176
(lp4699
I18
aI11
asg178
Nsg179
VII Kings 18:11
p4700
sg181
(lp4701
sg183
g134
sg184
Nsg185
(lp4702
I18
aI11
asg187
Nsg188
g4700
sg189
(lp4703
sg191
g60
sg192
Nsg193
Nsg194
Nsbag2
(g3
g4
Ntp4704
Rp4705
(dp4706
g8
g11
sg172
Nsg173
(dp4707
sg175
Nsg26
g29
sg176
(lp4708
I18
aI12
asg178
Nsg179
VII Kings 18:12
p4709
sg181
(lp4710
sg183
g134
sg184
Nsg185
(lp4711
I18
aI12
asg187
Nsg188
g4709
sg189
(lp4712
sg191
g60
sg192
Nsg193
Nsg194
Nsbag2
(g3
g4
Ntp4713
Rp4714
(dp4715
g8
g11
sg172
Nsg173
(dp4716
sg175
Nsg26
g29
sg176
(lp4717
I18
aI13
asg178
Nsg179
VII Kings 18:13
p4718
sg181
(lp4719
sg183
g134
sg184
Nsg185
(lp4720
I18
aI13
asg187
Nsg188
g4718
sg189
(lp4721
sg191
g60
sg192
Nsg193
Nsg194
Nsbag2
(g3
g4
Ntp4722
Rp4723
(dp4724
g8
g11
sg172
Nsg173
(dp4725
sg175
Nsg26
g29
sg176
(lp4726
I18
aI14
asg178
Nsg179
VII Kings 18:14
p4727
sg181
(lp4728
sg183
g134
sg184
Nsg185
(lp4729
I18
aI14
asg187
Nsg188
g4727
sg189
(lp4730
sg191
g60
sg192
Nsg193
Nsg194
Nsbag2
(g3
g4
Ntp4731
Rp4732
(dp4733
g8
g11
sg172
Nsg173
(dp4734
sg175
Nsg26
g29
sg176
(lp4735
I18
aI15
asg178
Nsg179
VII Kings 18:15
p4736
sg181
(lp4737
sg183
g134
sg184
Nsg185
(lp4738
I18
aI15
asg187
Nsg188
g4736
sg189
(lp4739
sg191
g60
sg192
Nsg193
Nsg194
Nsbag2
(g3
g4
Ntp4740
Rp4741
(dp4742
g8
g11
sg172
Nsg173
(dp4743
sg175
Nsg26
g29
sg176
(lp4744
I18
aI16
asg178
Nsg179
VII Kings 18:16
p4745
sg181
(lp4746
sg183
g134
sg184
Nsg185
(lp4747
I18
aI16
asg187
Nsg188
g4745
sg189
(lp4748
sg191
g60
sg192
Nsg193
Nsg194
Nsbag2
(g3
g4
Ntp4749
Rp4750
(dp4751
g8
g11
sg172
Nsg173
(dp4752
sg175
Nsg26
g29
sg176
(lp4753
I18
aI17
asg178
Nsg179
VII Kings 18:17
p4754
sg181
(lp4755
sg183
g134
sg184
Nsg185
(lp4756
I18
aI17
asg187
Nsg188
g4754
sg189
(lp4757
sg191
g60
sg192
Nsg193
Nsg194
Nsbag2
(g3
g4
Ntp4758
Rp4759
(dp4760
g8
g11
sg172
Nsg173
(dp4761
sg175
Nsg26
g29
sg176
(lp4762
I18
aI18
asg178
Nsg179
VII Kings 18:18
p4763
sg181
(lp4764
sg183
g134
sg184
Nsg185
(lp4765
I18
aI18
asg187
Nsg188
g4763
sg189
(lp4766
sg191
g60
sg192
Nsg193
Nsg194
Nsbag2
(g3
g4
Ntp4767
Rp4768
(dp4769
g8
g11
sg172
Nsg173
(dp4770
sg175
Nsg26
g29
sg176
(lp4771
I18
aI19
asg178
Nsg179
VII Kings 18:19
p4772
sg181
(lp4773
sg183
g134
sg184
Nsg185
(lp4774
I18
aI19
asg187
Nsg188
g4772
sg189
(lp4775
sg191
g60
sg192
Nsg193
Nsg194
Nsbag2
(g3
g4
Ntp4776
Rp4777
(dp4778
g8
g11
sg172
Nsg173
(dp4779
sg175
Nsg26
g29
sg176
(lp4780
I18
aI20
asg178
Nsg179
VII Kings 18:20
p4781
sg181
(lp4782
sg183
g134
sg184
Nsg185
(lp4783
I18
aI20
asg187
Nsg188
g4781
sg189
(lp4784
sg191
g60
sg192
Nsg193
Nsg194
Nsbag2
(g3
g4
Ntp4785
Rp4786
(dp4787
g8
g11
sg172
Nsg173
(dp4788
sg175
Nsg26
g29
sg176
(lp4789
I18
aI21
asg178
Nsg179
VII Kings 18:21
p4790
sg181
(lp4791
sg183
g134
sg184
Nsg185
(lp4792
I18
aI21
asg187
Nsg188
g4790
sg189
(lp4793
sg191
g60
sg192
Nsg193
Nsg194
Nsbag2
(g3
g4
Ntp4794
Rp4795
(dp4796
g8
g11
sg172
Nsg173
(dp4797
sg175
Nsg26
g29
sg176
(lp4798
I18
aI22
asg178
Nsg179
VII Kings 18:22
p4799
sg181
(lp4800
sg183
g134
sg184
Nsg185
(lp4801
I18
aI22
asg187
Nsg188
g4799
sg189
(lp4802
sg191
g60
sg192
Nsg193
Nsg194
Nsbag2
(g3
g4
Ntp4803
Rp4804
(dp4805
g8
g11
sg172
Nsg173
(dp4806
sg175
Nsg26
g29
sg176
(lp4807
I18
aI23
asg178
Nsg179
VII Kings 18:23
p4808
sg181
(lp4809
sg183
g134
sg184
Nsg185
(lp4810
I18
aI23
asg187
Nsg188
g4808
sg189
(lp4811
sg191
g60
sg192
Nsg193
Nsg194
Nsbag2
(g3
g4
Ntp4812
Rp4813
(dp4814
g8
g11
sg172
Nsg173
(dp4815
sg175
Nsg26
g29
sg176
(lp4816
I18
aI24
asg178
Nsg179
VII Kings 18:24
p4817
sg181
(lp4818
sg183
g134
sg184
Nsg185
(lp4819
I18
aI24
asg187
Nsg188
g4817
sg189
(lp4820
sg191
g60
sg192
Nsg193
Nsg194
Nsbag2
(g3
g4
Ntp4821
Rp4822
(dp4823
g8
g11
sg172
Nsg173
(dp4824
sg175
Nsg26
g29
sg176
(lp4825
I18
aI25
asg178
Nsg179
VII Kings 18:25
p4826
sg181
(lp4827
sg183
g134
sg184
Nsg185
(lp4828
I18
aI25
asg187
Nsg188
g4826
sg189
(lp4829
sg191
g60
sg192
Nsg193
Nsg194
Nsbag2
(g3
g4
Ntp4830
Rp4831
(dp4832
g8
g11
sg172
Nsg173
(dp4833
sg175
Nsg26
g29
sg176
(lp4834
I18
aI26
asg178
Nsg179
VII Kings 18:26
p4835
sg181
(lp4836
sg183
g134
sg184
Nsg185
(lp4837
I18
aI26
asg187
Nsg188
g4835
sg189
(lp4838
sg191
g60
sg192
Nsg193
Nsg194
Nsbag2
(g3
g4
Ntp4839
Rp4840
(dp4841
g8
g11
sg172
Nsg173
(dp4842
sg175
Nsg26
g29
sg176
(lp4843
I18
aI27
asg178
Nsg179
VII Kings 18:27
p4844
sg181
(lp4845
sg183
g134
sg184
Nsg185
(lp4846
I18
aI27
asg187
Nsg188
g4844
sg189
(lp4847
sg191
g60
sg192
Nsg193
Nsg194
Nsbag2
(g3
g4
Ntp4848
Rp4849
(dp4850
g8
g11
sg172
Nsg173
(dp4851
sg175
Nsg26
g29
sg176
(lp4852
I18
aI28
asg178
Nsg179
VII Kings 18:28
p4853
sg181
(lp4854
sg183
g134
sg184
Nsg185
(lp4855
I18
aI28
asg187
Nsg188
g4853
sg189
(lp4856
sg191
g60
sg192
Nsg193
Nsg194
Nsbag2
(g3
g4
Ntp4857
Rp4858
(dp4859
g8
g11
sg172
Nsg173
(dp4860
sg175
Nsg26
g29
sg176
(lp4861
I18
aI29
asg178
Nsg179
VII Kings 18:29
p4862
sg181
(lp4863
sg183
g134
sg184
Nsg185
(lp4864
I18
aI29
asg187
Nsg188
g4862
sg189
(lp4865
sg191
g60
sg192
Nsg193
Nsg194
Nsbag2
(g3
g4
Ntp4866
Rp4867
(dp4868
g8
g11
sg172
Nsg173
(dp4869
sg175
Nsg26
g29
sg176
(lp4870
I18
aI30
asg178
Nsg179
VII Kings 18:30
p4871
sg181
(lp4872
sg183
g134
sg184
Nsg185
(lp4873
I18
aI30
asg187
Nsg188
g4871
sg189
(lp4874
sg191
g60
sg192
Nsg193
Nsg194
Nsbag2
(g3
g4
Ntp4875
Rp4876
(dp4877
g8
g11
sg172
Nsg173
(dp4878
sg175
Nsg26
g29
sg176
(lp4879
I18
aI31
asg178
Nsg179
VII Kings 18:31
p4880
sg181
(lp4881
sg183
g134
sg184
Nsg185
(lp4882
I18
aI31
asg187
Nsg188
g4880
sg189
(lp4883
sg191
g60
sg192
Nsg193
Nsg194
Nsbag2
(g3
g4
Ntp4884
Rp4885
(dp4886
g8
g11
sg172
Nsg173
(dp4887
sg175
Nsg26
g29
sg176
(lp4888
I18
aI32
asg178
Nsg179
VII Kings 18:32
p4889
sg181
(lp4890
sg183
g134
sg184
Nsg185
(lp4891
I18
aI32
asg187
Nsg188
g4889
sg189
(lp4892
sg191
g60
sg192
Nsg193
Nsg194
Nsbag2
(g3
g4
Ntp4893
Rp4894
(dp4895
g8
g11
sg172
Nsg173
(dp4896
sg175
Nsg26
g29
sg176
(lp4897
I18
aI33
asg178
Nsg179
VII Kings 18:33
p4898
sg181
(lp4899
sg183
g134
sg184
Nsg185
(lp4900
I18
aI33
asg187
Nsg188
g4898
sg189
(lp4901
sg191
g60
sg192
Nsg193
Nsg194
Nsbag2
(g3
g4
Ntp4902
Rp4903
(dp4904
g8
g11
sg172
Nsg173
(dp4905
sg175
Nsg26
g29
sg176
(lp4906
I18
aI34
asg178
Nsg179
VII Kings 18:34
p4907
sg181
(lp4908
sg183
g134
sg184
Nsg185
(lp4909
I18
aI34
asg187
Nsg188
g4907
sg189
(lp4910
sg191
g60
sg192
Nsg193
Nsg194
Nsbag2
(g3
g4
Ntp4911
Rp4912
(dp4913
g8
g11
sg172
Nsg173
(dp4914
sg175
Nsg26
g29
sg176
(lp4915
I18
aI35
asg178
Nsg179
VII Kings 18:35
p4916
sg181
(lp4917
sg183
g134
sg184
Nsg185
(lp4918
I18
aI35
asg187
Nsg188
g4916
sg189
(lp4919
sg191
g60
sg192
Nsg193
Nsg194
Nsbag2
(g3
g4
Ntp4920
Rp4921
(dp4922
g8
g11
sg172
Nsg173
(dp4923
sg175
Nsg26
g29
sg176
(lp4924
I18
aI36
asg178
Nsg179
VII Kings 18:36
p4925
sg181
(lp4926
sg183
g134
sg184
Nsg185
(lp4927
I18
aI36
asg187
Nsg188
g4925
sg189
(lp4928
sg191
g60
sg192
Nsg193
Nsg194
Nsbag2
(g3
g4
Ntp4929
Rp4930
(dp4931
g8
g11
sg172
Nsg173
(dp4932
sg175
Nsg26
g29
sg176
(lp4933
I18
aI37
asg178
Nsg179
VII Kings 18:37
p4934
sg181
(lp4935
sg183
g134
sg184
Nsg185
(lp4936
I18
aI37
asg187
Nsg188
g4934
sg189
(lp4937
sg191
g60
sg192
Nsg193
Nsg194
Nsbag2
(g3
g4
Ntp4938
Rp4939
(dp4940
g8
g11
sg172
Nsg173
(dp4941
sg175
Nsg26
g29
sg176
(lp4942
I19
aI1
asg178
Nsg179
VII Kings 19:1
p4943
sg181
(lp4944
sg183
g134
sg184
Nsg185
(lp4945
I19
aI1
asg187
Nsg188
g4943
sg189
(lp4946
sg191
g60
sg192
Nsg193
Nsg194
Nsbag2
(g3
g4
Ntp4947
Rp4948
(dp4949
g8
g11
sg172
Nsg173
(dp4950
sg175
Nsg26
g29
sg176
(lp4951
I19
aI2
asg178
Nsg179
VII Kings 19:2
p4952
sg181
(lp4953
sg183
g134
sg184
Nsg185
(lp4954
I19
aI2
asg187
Nsg188
g4952
sg189
(lp4955
sg191
g60
sg192
Nsg193
Nsg194
Nsbag2
(g3
g4
Ntp4956
Rp4957
(dp4958
g8
g11
sg172
Nsg173
(dp4959
sg175
Nsg26
g29
sg176
(lp4960
I19
aI3
asg178
Nsg179
VII Kings 19:3
p4961
sg181
(lp4962
sg183
g134
sg184
Nsg185
(lp4963
I19
aI3
asg187
Nsg188
g4961
sg189
(lp4964
sg191
g60
sg192
Nsg193
Nsg194
Nsbag2
(g3
g4
Ntp4965
Rp4966
(dp4967
g8
g11
sg172
Nsg173
(dp4968
sg175
Nsg26
g29
sg176
(lp4969
I19
aI4
asg178
Nsg179
VII Kings 19:4
p4970
sg181
(lp4971
sg183
g134
sg184
Nsg185
(lp4972
I19
aI4
asg187
Nsg188
g4970
sg189
(lp4973
sg191
g60
sg192
Nsg193
Nsg194
Nsbag2
(g3
g4
Ntp4974
Rp4975
(dp4976
g8
g11
sg172
Nsg173
(dp4977
sg175
Nsg26
g29
sg176
(lp4978
I19
aI5
asg178
Nsg179
VII Kings 19:5
p4979
sg181
(lp4980
sg183
g134
sg184
Nsg185
(lp4981
I19
aI5
asg187
Nsg188
g4979
sg189
(lp4982
sg191
g60
sg192
Nsg193
Nsg194
Nsbag2
(g3
g4
Ntp4983
Rp4984
(dp4985
g8
g11
sg172
Nsg173
(dp4986
sg175
Nsg26
g29
sg176
(lp4987
I19
aI6
asg178
Nsg179
VII Kings 19:6
p4988
sg181
(lp4989
sg183
g134
sg184
Nsg185
(lp4990
I19
aI6
asg187
Nsg188
g4988
sg189
(lp4991
sg191
g60
sg192
Nsg193
Nsg194
Nsbag2
(g3
g4
Ntp4992
Rp4993
(dp4994
g8
g11
sg172
Nsg173
(dp4995
sg175
Nsg26
g29
sg176
(lp4996
I19
aI7
asg178
Nsg179
VII Kings 19:7
p4997
sg181
(lp4998
sg183
g134
sg184
Nsg185
(lp4999
I19
aI7
asg187
Nsg188
g4997
sg189
(lp5000
sg191
g60
sg192
Nsg193
Nsg194
Nsbag2
(g3
g4
Ntp5001
Rp5002
(dp5003
g8
g11
sg172
Nsg173
(dp5004
sg175
Nsg26
g29
sg176
(lp5005
I19
aI8
asg178
Nsg179
VII Kings 19:8
p5006
sg181
(lp5007
sg183
g134
sg184
Nsg185
(lp5008
I19
aI8
asg187
Nsg188
g5006
sg189
(lp5009
sg191
g60
sg192
Nsg193
Nsg194
Nsbag2
(g3
g4
Ntp5010
Rp5011
(dp5012
g8
g11
sg172
Nsg173
(dp5013
sg175
Nsg26
g29
sg176
(lp5014
I19
aI9
asg178
Nsg179
VII Kings 19:9
p5015
sg181
(lp5016
sg183
g134
sg184
Nsg185
(lp5017
I19
aI9
asg187
Nsg188
g5015
sg189
(lp5018
sg191
g60
sg192
Nsg193
Nsg194
Nsbag2
(g3
g4
Ntp5019
Rp5020
(dp5021
g8
g11
sg172
Nsg173
(dp5022
sg175
Nsg26
g29
sg176
(lp5023
I19
aI10
asg178
Nsg179
VII Kings 19:10
p5024
sg181
(lp5025
sg183
g134
sg184
Nsg185
(lp5026
I19
aI10
asg187
Nsg188
g5024
sg189
(lp5027
sg191
g60
sg192
Nsg193
Nsg194
Nsbag2
(g3
g4
Ntp5028
Rp5029
(dp5030
g8
g11
sg172
Nsg173
(dp5031
sg175
Nsg26
g29
sg176
(lp5032
I19
aI11
asg178
Nsg179
VII Kings 19:11
p5033
sg181
(lp5034
sg183
g134
sg184
Nsg185
(lp5035
I19
aI11
asg187
Nsg188
g5033
sg189
(lp5036
sg191
g60
sg192
Nsg193
Nsg194
Nsbag2
(g3
g4
Ntp5037
Rp5038
(dp5039
g8
g11
sg172
Nsg173
(dp5040
sg175
Nsg26
g29
sg176
(lp5041
I19
aI12
asg178
Nsg179
VII Kings 19:12
p5042
sg181
(lp5043
sg183
g134
sg184
Nsg185
(lp5044
I19
aI12
asg187
Nsg188
g5042
sg189
(lp5045
sg191
g60
sg192
Nsg193
Nsg194
Nsbag2
(g3
g4
Ntp5046
Rp5047
(dp5048
g8
g11
sg172
Nsg173
(dp5049
sg175
Nsg26
g29
sg176
(lp5050
I19
aI13
asg178
Nsg179
VII Kings 19:13
p5051
sg181
(lp5052
sg183
g134
sg184
Nsg185
(lp5053
I19
aI13
asg187
Nsg188
g5051
sg189
(lp5054
sg191
g60
sg192
Nsg193
Nsg194
Nsbag2
(g3
g4
Ntp5055
Rp5056
(dp5057
g8
g11
sg172
Nsg173
(dp5058
sg175
Nsg26
g29
sg176
(lp5059
I19
aI14
asg178
Nsg179
VII Kings 19:14
p5060
sg181
(lp5061
sg183
g134
sg184
Nsg185
(lp5062
I19
aI14
asg187
Nsg188
g5060
sg189
(lp5063
sg191
g60
sg192
Nsg193
Nsg194
Nsbag2
(g3
g4
Ntp5064
Rp5065
(dp5066
g8
g11
sg172
Nsg173
(dp5067
sg175
Nsg26
g29
sg176
(lp5068
I19
aI15
asg178
Nsg179
VII Kings 19:15
p5069
sg181
(lp5070
sg183
g134
sg184
Nsg185
(lp5071
I19
aI15
asg187
Nsg188
g5069
sg189
(lp5072
sg191
g60
sg192
Nsg193
Nsg194
Nsbag2
(g3
g4
Ntp5073
Rp5074
(dp5075
g8
g11
sg172
Nsg173
(dp5076
sg175
Nsg26
g29
sg176
(lp5077
I19
aI16
asg178
Nsg179
VII Kings 19:16
p5078
sg181
(lp5079
sg183
g134
sg184
Nsg185
(lp5080
I19
aI16
asg187
Nsg188
g5078
sg189
(lp5081
sg191
g60
sg192
Nsg193
Nsg194
Nsbag2
(g3
g4
Ntp5082
Rp5083
(dp5084
g8
g11
sg172
Nsg173
(dp5085
sg175
Nsg26
g29
sg176
(lp5086
I19
aI17
asg178
Nsg179
VII Kings 19:17
p5087
sg181
(lp5088
sg183
g134
sg184
Nsg185
(lp5089
I19
aI17
asg187
Nsg188
g5087
sg189
(lp5090
sg191
g60
sg192
Nsg193
Nsg194
Nsbag2
(g3
g4
Ntp5091
Rp5092
(dp5093
g8
g11
sg172
Nsg173
(dp5094
sg175
Nsg26
g29
sg176
(lp5095
I19
aI18
asg178
Nsg179
VII Kings 19:18
p5096
sg181
(lp5097
sg183
g134
sg184
Nsg185
(lp5098
I19
aI18
asg187
Nsg188
g5096
sg189
(lp5099
sg191
g60
sg192
Nsg193
Nsg194
Nsbag2
(g3
g4
Ntp5100
Rp5101
(dp5102
g8
g11
sg172
Nsg173
(dp5103
sg175
Nsg26
g29
sg176
(lp5104
I19
aI19
asg178
Nsg179
VII Kings 19:19
p5105
sg181
(lp5106
sg183
g134
sg184
Nsg185
(lp5107
I19
aI19
asg187
Nsg188
g5105
sg189
(lp5108
sg191
g60
sg192
Nsg193
Nsg194
Nsbag2
(g3
g4
Ntp5109
Rp5110
(dp5111
g8
g11
sg172
Nsg173
(dp5112
sg175
Nsg26
g29
sg176
(lp5113
I19
aI20
asg178
Nsg179
VII Kings 19:20
p5114
sg181
(lp5115
sg183
g134
sg184
Nsg185
(lp5116
I19
aI20
asg187
Nsg188
g5114
sg189
(lp5117
sg191
g60
sg192
Nsg193
Nsg194
Nsbag2
(g3
g4
Ntp5118
Rp5119
(dp5120
g8
g11
sg172
Nsg173
(dp5121
sg175
Nsg26
g29
sg176
(lp5122
I19
aI21
asg178
Nsg179
VII Kings 19:21
p5123
sg181
(lp5124
sg183
g134
sg184
Nsg185
(lp5125
I19
aI21
asg187
Nsg188
g5123
sg189
(lp5126
sg191
g60
sg192
Nsg193
Nsg194
Nsbag2
(g3
g4
Ntp5127
Rp5128
(dp5129
g8
g11
sg172
Nsg173
(dp5130
sg175
Nsg26
g29
sg176
(lp5131
I19
aI22
asg178
Nsg179
VII Kings 19:22
p5132
sg181
(lp5133
sg183
g134
sg184
Nsg185
(lp5134
I19
aI22
asg187
Nsg188
g5132
sg189
(lp5135
sg191
g60
sg192
Nsg193
Nsg194
Nsbag2
(g3
g4
Ntp5136
Rp5137
(dp5138
g8
g11
sg172
Nsg173
(dp5139
sg175
Nsg26
g29
sg176
(lp5140
I19
aI23
asg178
Nsg179
VII Kings 19:23
p5141
sg181
(lp5142
sg183
g134
sg184
Nsg185
(lp5143
I19
aI23
asg187
Nsg188
g5141
sg189
(lp5144
sg191
g60
sg192
Nsg193
Nsg194
Nsbag2
(g3
g4
Ntp5145
Rp5146
(dp5147
g8
g11
sg172
Nsg173
(dp5148
sg175
Nsg26
g29
sg176
(lp5149
I19
aI24
asg178
Nsg179
VII Kings 19:24
p5150
sg181
(lp5151
sg183
g134
sg184
Nsg185
(lp5152
I19
aI24
asg187
Nsg188
g5150
sg189
(lp5153
sg191
g60
sg192
Nsg193
Nsg194
Nsbag2
(g3
g4
Ntp5154
Rp5155
(dp5156
g8
g11
sg172
Nsg173
(dp5157
sg175
Nsg26
g29
sg176
(lp5158
I19
aI25
asg178
Nsg179
VII Kings 19:25
p5159
sg181
(lp5160
sg183
g134
sg184
Nsg185
(lp5161
I19
aI25
asg187
Nsg188
g5159
sg189
(lp5162
sg191
g60
sg192
Nsg193
Nsg194
Nsbag2
(g3
g4
Ntp5163
Rp5164
(dp5165
g8
g11
sg172
Nsg173
(dp5166
sg175
Nsg26
g29
sg176
(lp5167
I19
aI26
asg178
Nsg179
VII Kings 19:26
p5168
sg181
(lp5169
sg183
g134
sg184
Nsg185
(lp5170
I19
aI26
asg187
Nsg188
g5168
sg189
(lp5171
sg191
g60
sg192
Nsg193
Nsg194
Nsbag2
(g3
g4
Ntp5172
Rp5173
(dp5174
g8
g11
sg172
Nsg173
(dp5175
sg175
Nsg26
g29
sg176
(lp5176
I19
aI27
asg178
Nsg179
VII Kings 19:27
p5177
sg181
(lp5178
sg183
g134
sg184
Nsg185
(lp5179
I19
aI27
asg187
Nsg188
g5177
sg189
(lp5180
sg191
g60
sg192
Nsg193
Nsg194
Nsbag2
(g3
g4
Ntp5181
Rp5182
(dp5183
g8
g11
sg172
Nsg173
(dp5184
sg175
Nsg26
g29
sg176
(lp5185
I19
aI28
asg178
Nsg179
VII Kings 19:28
p5186
sg181
(lp5187
sg183
g134
sg184
Nsg185
(lp5188
I19
aI28
asg187
Nsg188
g5186
sg189
(lp5189
sg191
g60
sg192
Nsg193
Nsg194
Nsbag2
(g3
g4
Ntp5190
Rp5191
(dp5192
g8
g11
sg172
Nsg173
(dp5193
sg175
Nsg26
g29
sg176
(lp5194
I19
aI29
asg178
Nsg179
VII Kings 19:29
p5195
sg181
(lp5196
sg183
g134
sg184
Nsg185
(lp5197
I19
aI29
asg187
Nsg188
g5195
sg189
(lp5198
sg191
g60
sg192
Nsg193
Nsg194
Nsbag2
(g3
g4
Ntp5199
Rp5200
(dp5201
g8
g11
sg172
Nsg173
(dp5202
sg175
Nsg26
g29
sg176
(lp5203
I19
aI30
asg178
Nsg179
VII Kings 19:30
p5204
sg181
(lp5205
sg183
g134
sg184
Nsg185
(lp5206
I19
aI30
asg187
Nsg188
g5204
sg189
(lp5207
sg191
g60
sg192
Nsg193
Nsg194
Nsbag2
(g3
g4
Ntp5208
Rp5209
(dp5210
g8
g11
sg172
Nsg173
(dp5211
sg175
Nsg26
g29
sg176
(lp5212
I19
aI31
asg178
Nsg179
VII Kings 19:31
p5213
sg181
(lp5214
sg183
g134
sg184
Nsg185
(lp5215
I19
aI31
asg187
Nsg188
g5213
sg189
(lp5216
sg191
g60
sg192
Nsg193
Nsg194
Nsbag2
(g3
g4
Ntp5217
Rp5218
(dp5219
g8
g11
sg172
Nsg173
(dp5220
sg175
Nsg26
g29
sg176
(lp5221
I19
aI32
asg178
Nsg179
VII Kings 19:32
p5222
sg181
(lp5223
sg183
g134
sg184
Nsg185
(lp5224
I19
aI32
asg187
Nsg188
g5222
sg189
(lp5225
sg191
g60
sg192
Nsg193
Nsg194
Nsbag2
(g3
g4
Ntp5226
Rp5227
(dp5228
g8
g11
sg172
Nsg173
(dp5229
sg175
Nsg26
g29
sg176
(lp5230
I19
aI33
asg178
Nsg179
VII Kings 19:33
p5231
sg181
(lp5232
sg183
g134
sg184
Nsg185
(lp5233
I19
aI33
asg187
Nsg188
g5231
sg189
(lp5234
sg191
g60
sg192
Nsg193
Nsg194
Nsbag2
(g3
g4
Ntp5235
Rp5236
(dp5237
g8
g11
sg172
Nsg173
(dp5238
sg175
Nsg26
g29
sg176
(lp5239
I19
aI34
asg178
Nsg179
VII Kings 19:34
p5240
sg181
(lp5241
sg183
g134
sg184
Nsg185
(lp5242
I19
aI34
asg187
Nsg188
g5240
sg189
(lp5243
sg191
g60
sg192
Nsg193
Nsg194
Nsbag2
(g3
g4
Ntp5244
Rp5245
(dp5246
g8
g11
sg172
Nsg173
(dp5247
sg175
Nsg26
g29
sg176
(lp5248
I19
aI35
asg178
Nsg179
VII Kings 19:35
p5249
sg181
(lp5250
sg183
g134
sg184
Nsg185
(lp5251
I19
aI35
asg187
Nsg188
g5249
sg189
(lp5252
sg191
g60
sg192
Nsg193
Nsg194
Nsbag2
(g3
g4
Ntp5253
Rp5254
(dp5255
g8
g11
sg172
Nsg173
(dp5256
sg175
Nsg26
g29
sg176
(lp5257
I19
aI36
asg178
Nsg179
VII Kings 19:36
p5258
sg181
(lp5259
sg183
g134
sg184
Nsg185
(lp5260
I19
aI36
asg187
Nsg188
g5258
sg189
(lp5261
sg191
g60
sg192
Nsg193
Nsg194
Nsbag2
(g3
g4
Ntp5262
Rp5263
(dp5264
g8
g11
sg172
Nsg173
(dp5265
sg175
Nsg26
g29
sg176
(lp5266
I19
aI37
asg178
Nsg179
VII Kings 19:37
p5267
sg181
(lp5268
sg183
g134
sg184
Nsg185
(lp5269
I19
aI37
asg187
Nsg188
g5267
sg189
(lp5270
sg191
g60
sg192
Nsg193
Nsg194
Nsbag2
(g3
g4
Ntp5271
Rp5272
(dp5273
g8
g11
sg172
Nsg173
(dp5274
sg175
Nsg26
g29
sg176
(lp5275
I20
aI1
asg178
Nsg179
VII Kings 20:1
p5276
sg181
(lp5277
sg183
g134
sg184
Nsg185
(lp5278
I20
aI1
asg187
Nsg188
g5276
sg189
(lp5279
sg191
g60
sg192
Nsg193
Nsg194
Nsbag2
(g3
g4
Ntp5280
Rp5281
(dp5282
g8
g11
sg172
Nsg173
(dp5283
sg175
Nsg26
g29
sg176
(lp5284
I20
aI2
asg178
Nsg179
VII Kings 20:2
p5285
sg181
(lp5286
sg183
g134
sg184
Nsg185
(lp5287
I20
aI2
asg187
Nsg188
g5285
sg189
(lp5288
sg191
g60
sg192
Nsg193
Nsg194
Nsbag2
(g3
g4
Ntp5289
Rp5290
(dp5291
g8
g11
sg172
Nsg173
(dp5292
sg175
Nsg26
g29
sg176
(lp5293
I20
aI3
asg178
Nsg179
VII Kings 20:3
p5294
sg181
(lp5295
sg183
g134
sg184
Nsg185
(lp5296
I20
aI3
asg187
Nsg188
g5294
sg189
(lp5297
sg191
g60
sg192
Nsg193
Nsg194
Nsbag2
(g3
g4
Ntp5298
Rp5299
(dp5300
g8
g11
sg172
Nsg173
(dp5301
sg175
Nsg26
g29
sg176
(lp5302
I20
aI4
asg178
Nsg179
VII Kings 20:4
p5303
sg181
(lp5304
sg183
g134
sg184
Nsg185
(lp5305
I20
aI4
asg187
Nsg188
g5303
sg189
(lp5306
sg191
g60
sg192
Nsg193
Nsg194
Nsbag2
(g3
g4
Ntp5307
Rp5308
(dp5309
g8
g11
sg172
Nsg173
(dp5310
sg175
Nsg26
g29
sg176
(lp5311
I20
aI5
asg178
Nsg179
VII Kings 20:5
p5312
sg181
(lp5313
sg183
g134
sg184
Nsg185
(lp5314
I20
aI5
asg187
Nsg188
g5312
sg189
(lp5315
sg191
g60
sg192
Nsg193
Nsg194
Nsbag2
(g3
g4
Ntp5316
Rp5317
(dp5318
g8
g11
sg172
Nsg173
(dp5319
sg175
Nsg26
g29
sg176
(lp5320
I20
aI6
asg178
Nsg179
VII Kings 20:6
p5321
sg181
(lp5322
sg183
g134
sg184
Nsg185
(lp5323
I20
aI6
asg187
Nsg188
g5321
sg189
(lp5324
sg191
g60
sg192
Nsg193
Nsg194
Nsbag2
(g3
g4
Ntp5325
Rp5326
(dp5327
g8
g11
sg172
Nsg173
(dp5328
sg175
Nsg26
g29
sg176
(lp5329
I20
aI7
asg178
Nsg179
VII Kings 20:7
p5330
sg181
(lp5331
sg183
g134
sg184
Nsg185
(lp5332
I20
aI7
asg187
Nsg188
g5330
sg189
(lp5333
sg191
g60
sg192
Nsg193
Nsg194
Nsbag2
(g3
g4
Ntp5334
Rp5335
(dp5336
g8
g11
sg172
Nsg173
(dp5337
sg175
Nsg26
g29
sg176
(lp5338
I20
aI8
asg178
Nsg179
VII Kings 20:8
p5339
sg181
(lp5340
sg183
g134
sg184
Nsg185
(lp5341
I20
aI8
asg187
Nsg188
g5339
sg189
(lp5342
sg191
g60
sg192
Nsg193
Nsg194
Nsbag2
(g3
g4
Ntp5343
Rp5344
(dp5345
g8
g11
sg172
Nsg173
(dp5346
sg175
Nsg26
g29
sg176
(lp5347
I20
aI9
asg178
Nsg179
VII Kings 20:9
p5348
sg181
(lp5349
sg183
g134
sg184
Nsg185
(lp5350
I20
aI9
asg187
Nsg188
g5348
sg189
(lp5351
sg191
g60
sg192
Nsg193
Nsg194
Nsbag2
(g3
g4
Ntp5352
Rp5353
(dp5354
g8
g11
sg172
Nsg173
(dp5355
sg175
Nsg26
g29
sg176
(lp5356
I20
aI10
asg178
Nsg179
VII Kings 20:10
p5357
sg181
(lp5358
sg183
g134
sg184
Nsg185
(lp5359
I20
aI10
asg187
Nsg188
g5357
sg189
(lp5360
sg191
g60
sg192
Nsg193
Nsg194
Nsbag2
(g3
g4
Ntp5361
Rp5362
(dp5363
g8
g11
sg172
Nsg173
(dp5364
sg175
Nsg26
g29
sg176
(lp5365
I20
aI11
asg178
Nsg179
VII Kings 20:11
p5366
sg181
(lp5367
sg183
g134
sg184
Nsg185
(lp5368
I20
aI11
asg187
Nsg188
g5366
sg189
(lp5369
sg191
g60
sg192
Nsg193
Nsg194
Nsbag2
(g3
g4
Ntp5370
Rp5371
(dp5372
g8
g11
sg172
Nsg173
(dp5373
sg175
Nsg26
g29
sg176
(lp5374
I20
aI12
asg178
Nsg179
VII Kings 20:12
p5375
sg181
(lp5376
sg183
g134
sg184
Nsg185
(lp5377
I20
aI12
asg187
Nsg188
g5375
sg189
(lp5378
sg191
g60
sg192
Nsg193
Nsg194
Nsbag2
(g3
g4
Ntp5379
Rp5380
(dp5381
g8
g11
sg172
Nsg173
(dp5382
sg175
Nsg26
g29
sg176
(lp5383
I20
aI13
asg178
Nsg179
VII Kings 20:13
p5384
sg181
(lp5385
sg183
g134
sg184
Nsg185
(lp5386
I20
aI13
asg187
Nsg188
g5384
sg189
(lp5387
sg191
g60
sg192
Nsg193
Nsg194
Nsbag2
(g3
g4
Ntp5388
Rp5389
(dp5390
g8
g11
sg172
Nsg173
(dp5391
sg175
Nsg26
g29
sg176
(lp5392
I20
aI14
asg178
Nsg179
VII Kings 20:14
p5393
sg181
(lp5394
sg183
g134
sg184
Nsg185
(lp5395
I20
aI14
asg187
Nsg188
g5393
sg189
(lp5396
sg191
g60
sg192
Nsg193
Nsg194
Nsbag2
(g3
g4
Ntp5397
Rp5398
(dp5399
g8
g11
sg172
Nsg173
(dp5400
sg175
Nsg26
g29
sg176
(lp5401
I20
aI15
asg178
Nsg179
VII Kings 20:15
p5402
sg181
(lp5403
sg183
g134
sg184
Nsg185
(lp5404
I20
aI15
asg187
Nsg188
g5402
sg189
(lp5405
sg191
g60
sg192
Nsg193
Nsg194
Nsbag2
(g3
g4
Ntp5406
Rp5407
(dp5408
g8
g11
sg172
Nsg173
(dp5409
sg175
Nsg26
g29
sg176
(lp5410
I20
aI16
asg178
Nsg179
VII Kings 20:16
p5411
sg181
(lp5412
sg183
g134
sg184
Nsg185
(lp5413
I20
aI16
asg187
Nsg188
g5411
sg189
(lp5414
sg191
g60
sg192
Nsg193
Nsg194
Nsbag2
(g3
g4
Ntp5415
Rp5416
(dp5417
g8
g11
sg172
Nsg173
(dp5418
sg175
Nsg26
g29
sg176
(lp5419
I20
aI17
asg178
Nsg179
VII Kings 20:17
p5420
sg181
(lp5421
sg183
g134
sg184
Nsg185
(lp5422
I20
aI17
asg187
Nsg188
g5420
sg189
(lp5423
sg191
g60
sg192
Nsg193
Nsg194
Nsbag2
(g3
g4
Ntp5424
Rp5425
(dp5426
g8
g11
sg172
Nsg173
(dp5427
sg175
Nsg26
g29
sg176
(lp5428
I20
aI18
asg178
Nsg179
VII Kings 20:18
p5429
sg181
(lp5430
sg183
g134
sg184
Nsg185
(lp5431
I20
aI18
asg187
Nsg188
g5429
sg189
(lp5432
sg191
g60
sg192
Nsg193
Nsg194
Nsbag2
(g3
g4
Ntp5433
Rp5434
(dp5435
g8
g11
sg172
Nsg173
(dp5436
sg175
Nsg26
g29
sg176
(lp5437
I20
aI19
asg178
Nsg179
VII Kings 20:19
p5438
sg181
(lp5439
sg183
g134
sg184
Nsg185
(lp5440
I20
aI19
asg187
Nsg188
g5438
sg189
(lp5441
sg191
g60
sg192
Nsg193
Nsg194
Nsbag2
(g3
g4
Ntp5442
Rp5443
(dp5444
g8
g11
sg172
Nsg173
(dp5445
sg175
Nsg26
g29
sg176
(lp5446
I20
aI20
asg178
Nsg179
VII Kings 20:20
p5447
sg181
(lp5448
sg183
g134
sg184
Nsg185
(lp5449
I20
aI20
asg187
Nsg188
g5447
sg189
(lp5450
sg191
g60
sg192
Nsg193
Nsg194
Nsbag2
(g3
g4
Ntp5451
Rp5452
(dp5453
g8
g11
sg172
Nsg173
(dp5454
sg175
Nsg26
g29
sg176
(lp5455
I20
aI21
asg178
Nsg179
VII Kings 20:21
p5456
sg181
(lp5457
sg183
g134
sg184
Nsg185
(lp5458
I20
aI21
asg187
Nsg188
g5456
sg189
(lp5459
sg191
g60
sg192
Nsg193
Nsg194
Nsbag2
(g3
g4
Ntp5460
Rp5461
(dp5462
g8
g11
sg172
Nsg173
(dp5463
sg175
Nsg26
g29
sg176
(lp5464
I21
aI1
asg178
Nsg179
VII Kings 21:1
p5465
sg181
(lp5466
sg183
g134
sg184
Nsg185
(lp5467
I21
aI1
asg187
Nsg188
g5465
sg189
(lp5468
sg191
g60
sg192
Nsg193
Nsg194
Nsbag2
(g3
g4
Ntp5469
Rp5470
(dp5471
g8
g11
sg172
Nsg173
(dp5472
sg175
Nsg26
g29
sg176
(lp5473
I21
aI2
asg178
Nsg179
VII Kings 21:2
p5474
sg181
(lp5475
sg183
g134
sg184
Nsg185
(lp5476
I21
aI2
asg187
Nsg188
g5474
sg189
(lp5477
sg191
g60
sg192
Nsg193
Nsg194
Nsbag2
(g3
g4
Ntp5478
Rp5479
(dp5480
g8
g11
sg172
Nsg173
(dp5481
sg175
Nsg26
g29
sg176
(lp5482
I21
aI3
asg178
Nsg179
VII Kings 21:3
p5483
sg181
(lp5484
sg183
g134
sg184
Nsg185
(lp5485
I21
aI3
asg187
Nsg188
g5483
sg189
(lp5486
sg191
g60
sg192
Nsg193
Nsg194
Nsbag2
(g3
g4
Ntp5487
Rp5488
(dp5489
g8
g11
sg172
Nsg173
(dp5490
sg175
Nsg26
g29
sg176
(lp5491
I21
aI4
asg178
Nsg179
VII Kings 21:4
p5492
sg181
(lp5493
sg183
g134
sg184
Nsg185
(lp5494
I21
aI4
asg187
Nsg188
g5492
sg189
(lp5495
sg191
g60
sg192
Nsg193
Nsg194
Nsbag2
(g3
g4
Ntp5496
Rp5497
(dp5498
g8
g11
sg172
Nsg173
(dp5499
sg175
Nsg26
g29
sg176
(lp5500
I21
aI5
asg178
Nsg179
VII Kings 21:5
p5501
sg181
(lp5502
sg183
g134
sg184
Nsg185
(lp5503
I21
aI5
asg187
Nsg188
g5501
sg189
(lp5504
sg191
g60
sg192
Nsg193
Nsg194
Nsbag2
(g3
g4
Ntp5505
Rp5506
(dp5507
g8
g11
sg172
Nsg173
(dp5508
sg175
Nsg26
g29
sg176
(lp5509
I21
aI6
asg178
Nsg179
VII Kings 21:6
p5510
sg181
(lp5511
sg183
g134
sg184
Nsg185
(lp5512
I21
aI6
asg187
Nsg188
g5510
sg189
(lp5513
sg191
g60
sg192
Nsg193
Nsg194
Nsbag2
(g3
g4
Ntp5514
Rp5515
(dp5516
g8
g11
sg172
Nsg173
(dp5517
sg175
Nsg26
g29
sg176
(lp5518
I21
aI7
asg178
Nsg179
VII Kings 21:7
p5519
sg181
(lp5520
sg183
g134
sg184
Nsg185
(lp5521
I21
aI7
asg187
Nsg188
g5519
sg189
(lp5522
sg191
g60
sg192
Nsg193
Nsg194
Nsbag2
(g3
g4
Ntp5523
Rp5524
(dp5525
g8
g11
sg172
Nsg173
(dp5526
sg175
Nsg26
g29
sg176
(lp5527
I21
aI8
asg178
Nsg179
VII Kings 21:8
p5528
sg181
(lp5529
sg183
g134
sg184
Nsg185
(lp5530
I21
aI8
asg187
Nsg188
g5528
sg189
(lp5531
sg191
g60
sg192
Nsg193
Nsg194
Nsbag2
(g3
g4
Ntp5532
Rp5533
(dp5534
g8
g11
sg172
Nsg173
(dp5535
sg175
Nsg26
g29
sg176
(lp5536
I21
aI9
asg178
Nsg179
VII Kings 21:9
p5537
sg181
(lp5538
sg183
g134
sg184
Nsg185
(lp5539
I21
aI9
asg187
Nsg188
g5537
sg189
(lp5540
sg191
g60
sg192
Nsg193
Nsg194
Nsbag2
(g3
g4
Ntp5541
Rp5542
(dp5543
g8
g11
sg172
Nsg173
(dp5544
sg175
Nsg26
g29
sg176
(lp5545
I21
aI10
asg178
Nsg179
VII Kings 21:10
p5546
sg181
(lp5547
sg183
g134
sg184
Nsg185
(lp5548
I21
aI10
asg187
Nsg188
g5546
sg189
(lp5549
sg191
g60
sg192
Nsg193
Nsg194
Nsbag2
(g3
g4
Ntp5550
Rp5551
(dp5552
g8
g11
sg172
Nsg173
(dp5553
sg175
Nsg26
g29
sg176
(lp5554
I21
aI11
asg178
Nsg179
VII Kings 21:11
p5555
sg181
(lp5556
sg183
g134
sg184
Nsg185
(lp5557
I21
aI11
asg187
Nsg188
g5555
sg189
(lp5558
sg191
g60
sg192
Nsg193
Nsg194
Nsbag2
(g3
g4
Ntp5559
Rp5560
(dp5561
g8
g11
sg172
Nsg173
(dp5562
sg175
Nsg26
g29
sg176
(lp5563
I21
aI12
asg178
Nsg179
VII Kings 21:12
p5564
sg181
(lp5565
sg183
g134
sg184
Nsg185
(lp5566
I21
aI12
asg187
Nsg188
g5564
sg189
(lp5567
sg191
g60
sg192
Nsg193
Nsg194
Nsbag2
(g3
g4
Ntp5568
Rp5569
(dp5570
g8
g11
sg172
Nsg173
(dp5571
sg175
Nsg26
g29
sg176
(lp5572
I21
aI13
asg178
Nsg179
VII Kings 21:13
p5573
sg181
(lp5574
sg183
g134
sg184
Nsg185
(lp5575
I21
aI13
asg187
Nsg188
g5573
sg189
(lp5576
sg191
g60
sg192
Nsg193
Nsg194
Nsbag2
(g3
g4
Ntp5577
Rp5578
(dp5579
g8
g11
sg172
Nsg173
(dp5580
sg175
Nsg26
g29
sg176
(lp5581
I21
aI14
asg178
Nsg179
VII Kings 21:14
p5582
sg181
(lp5583
sg183
g134
sg184
Nsg185
(lp5584
I21
aI14
asg187
Nsg188
g5582
sg189
(lp5585
sg191
g60
sg192
Nsg193
Nsg194
Nsbag2
(g3
g4
Ntp5586
Rp5587
(dp5588
g8
g11
sg172
Nsg173
(dp5589
sg175
Nsg26
g29
sg176
(lp5590
I21
aI15
asg178
Nsg179
VII Kings 21:15
p5591
sg181
(lp5592
sg183
g134
sg184
Nsg185
(lp5593
I21
aI15
asg187
Nsg188
g5591
sg189
(lp5594
sg191
g60
sg192
Nsg193
Nsg194
Nsbag2
(g3
g4
Ntp5595
Rp5596
(dp5597
g8
g11
sg172
Nsg173
(dp5598
sg175
Nsg26
g29
sg176
(lp5599
I21
aI16
asg178
Nsg179
VII Kings 21:16
p5600
sg181
(lp5601
sg183
g134
sg184
Nsg185
(lp5602
I21
aI16
asg187
Nsg188
g5600
sg189
(lp5603
sg191
g60
sg192
Nsg193
Nsg194
Nsbag2
(g3
g4
Ntp5604
Rp5605
(dp5606
g8
g11
sg172
Nsg173
(dp5607
sg175
Nsg26
g29
sg176
(lp5608
I21
aI17
asg178
Nsg179
VII Kings 21:17
p5609
sg181
(lp5610
sg183
g134
sg184
Nsg185
(lp5611
I21
aI17
asg187
Nsg188
g5609
sg189
(lp5612
sg191
g60
sg192
Nsg193
Nsg194
Nsbag2
(g3
g4
Ntp5613
Rp5614
(dp5615
g8
g11
sg172
Nsg173
(dp5616
sg175
Nsg26
g29
sg176
(lp5617
I21
aI18
asg178
Nsg179
VII Kings 21:18
p5618
sg181
(lp5619
sg183
g134
sg184
Nsg185
(lp5620
I21
aI18
asg187
Nsg188
g5618
sg189
(lp5621
sg191
g60
sg192
Nsg193
Nsg194
Nsbag2
(g3
g4
Ntp5622
Rp5623
(dp5624
g8
g11
sg172
Nsg173
(dp5625
sg175
Nsg26
g29
sg176
(lp5626
I21
aI19
asg178
Nsg179
VII Kings 21:19
p5627
sg181
(lp5628
sg183
g134
sg184
Nsg185
(lp5629
I21
aI19
asg187
Nsg188
g5627
sg189
(lp5630
sg191
g60
sg192
Nsg193
Nsg194
Nsbag2
(g3
g4
Ntp5631
Rp5632
(dp5633
g8
g11
sg172
Nsg173
(dp5634
sg175
Nsg26
g29
sg176
(lp5635
I21
aI20
asg178
Nsg179
VII Kings 21:20
p5636
sg181
(lp5637
sg183
g134
sg184
Nsg185
(lp5638
I21
aI20
asg187
Nsg188
g5636
sg189
(lp5639
sg191
g60
sg192
Nsg193
Nsg194
Nsbag2
(g3
g4
Ntp5640
Rp5641
(dp5642
g8
g11
sg172
Nsg173
(dp5643
sg175
Nsg26
g29
sg176
(lp5644
I21
aI21
asg178
Nsg179
VII Kings 21:21
p5645
sg181
(lp5646
sg183
g134
sg184
Nsg185
(lp5647
I21
aI21
asg187
Nsg188
g5645
sg189
(lp5648
sg191
g60
sg192
Nsg193
Nsg194
Nsbag2
(g3
g4
Ntp5649
Rp5650
(dp5651
g8
g11
sg172
Nsg173
(dp5652
sg175
Nsg26
g29
sg176
(lp5653
I21
aI22
asg178
Nsg179
VII Kings 21:22
p5654
sg181
(lp5655
sg183
g134
sg184
Nsg185
(lp5656
I21
aI22
asg187
Nsg188
g5654
sg189
(lp5657
sg191
g60
sg192
Nsg193
Nsg194
Nsbag2
(g3
g4
Ntp5658
Rp5659
(dp5660
g8
g11
sg172
Nsg173
(dp5661
sg175
Nsg26
g29
sg176
(lp5662
I21
aI23
asg178
Nsg179
VII Kings 21:23
p5663
sg181
(lp5664
sg183
g134
sg184
Nsg185
(lp5665
I21
aI23
asg187
Nsg188
g5663
sg189
(lp5666
sg191
g60
sg192
Nsg193
Nsg194
Nsbag2
(g3
g4
Ntp5667
Rp5668
(dp5669
g8
g11
sg172
Nsg173
(dp5670
sg175
Nsg26
g29
sg176
(lp5671
I21
aI24
asg178
Nsg179
VII Kings 21:24
p5672
sg181
(lp5673
sg183
g134
sg184
Nsg185
(lp5674
I21
aI24
asg187
Nsg188
g5672
sg189
(lp5675
sg191
g60
sg192
Nsg193
Nsg194
Nsbag2
(g3
g4
Ntp5676
Rp5677
(dp5678
g8
g11
sg172
Nsg173
(dp5679
sg175
Nsg26
g29
sg176
(lp5680
I21
aI25
asg178
Nsg179
VII Kings 21:25
p5681
sg181
(lp5682
sg183
g134
sg184
Nsg185
(lp5683
I21
aI25
asg187
Nsg188
g5681
sg189
(lp5684
sg191
g60
sg192
Nsg193
Nsg194
Nsbag2
(g3
g4
Ntp5685
Rp5686
(dp5687
g8
g11
sg172
Nsg173
(dp5688
sg175
Nsg26
g29
sg176
(lp5689
I21
aI26
asg178
Nsg179
VII Kings 21:26
p5690
sg181
(lp5691
sg183
g134
sg184
Nsg185
(lp5692
I21
aI26
asg187
Nsg188
g5690
sg189
(lp5693
sg191
g60
sg192
Nsg193
Nsg194
Nsbag2
(g3
g4
Ntp5694
Rp5695
(dp5696
g8
g11
sg172
Nsg173
(dp5697
sg175
Nsg26
g29
sg176
(lp5698
I22
aI1
asg178
Nsg179
VII Kings 22:1
p5699
sg181
(lp5700
sg183
g134
sg184
Nsg185
(lp5701
I22
aI1
asg187
Nsg188
g5699
sg189
(lp5702
sg191
g60
sg192
Nsg193
Nsg194
Nsbag2
(g3
g4
Ntp5703
Rp5704
(dp5705
g8
g11
sg172
Nsg173
(dp5706
sg175
Nsg26
g29
sg176
(lp5707
I22
aI2
asg178
Nsg179
VII Kings 22:2
p5708
sg181
(lp5709
sg183
g134
sg184
Nsg185
(lp5710
I22
aI2
asg187
Nsg188
g5708
sg189
(lp5711
sg191
g60
sg192
Nsg193
Nsg194
Nsbag2
(g3
g4
Ntp5712
Rp5713
(dp5714
g8
g11
sg172
Nsg173
(dp5715
sg175
Nsg26
g29
sg176
(lp5716
I22
aI3
asg178
Nsg179
VII Kings 22:3
p5717
sg181
(lp5718
sg183
g134
sg184
Nsg185
(lp5719
I22
aI3
asg187
Nsg188
g5717
sg189
(lp5720
sg191
g60
sg192
Nsg193
Nsg194
Nsbag2
(g3
g4
Ntp5721
Rp5722
(dp5723
g8
g11
sg172
Nsg173
(dp5724
sg175
Nsg26
g29
sg176
(lp5725
I22
aI4
asg178
Nsg179
VII Kings 22:4
p5726
sg181
(lp5727
sg183
g134
sg184
Nsg185
(lp5728
I22
aI4
asg187
Nsg188
g5726
sg189
(lp5729
sg191
g60
sg192
Nsg193
Nsg194
Nsbag2
(g3
g4
Ntp5730
Rp5731
(dp5732
g8
g11
sg172
Nsg173
(dp5733
sg175
Nsg26
g29
sg176
(lp5734
I22
aI5
asg178
Nsg179
VII Kings 22:5
p5735
sg181
(lp5736
sg183
g134
sg184
Nsg185
(lp5737
I22
aI5
asg187
Nsg188
g5735
sg189
(lp5738
sg191
g60
sg192
Nsg193
Nsg194
Nsbag2
(g3
g4
Ntp5739
Rp5740
(dp5741
g8
g11
sg172
Nsg173
(dp5742
sg175
Nsg26
g29
sg176
(lp5743
I22
aI6
asg178
Nsg179
VII Kings 22:6
p5744
sg181
(lp5745
sg183
g134
sg184
Nsg185
(lp5746
I22
aI6
asg187
Nsg188
g5744
sg189
(lp5747
sg191
g60
sg192
Nsg193
Nsg194
Nsbag2
(g3
g4
Ntp5748
Rp5749
(dp5750
g8
g11
sg172
Nsg173
(dp5751
sg175
Nsg26
g29
sg176
(lp5752
I22
aI7
asg178
Nsg179
VII Kings 22:7
p5753
sg181
(lp5754
sg183
g134
sg184
Nsg185
(lp5755
I22
aI7
asg187
Nsg188
g5753
sg189
(lp5756
sg191
g60
sg192
Nsg193
Nsg194
Nsbag2
(g3
g4
Ntp5757
Rp5758
(dp5759
g8
g11
sg172
Nsg173
(dp5760
sg175
Nsg26
g29
sg176
(lp5761
I22
aI8
asg178
Nsg179
VII Kings 22:8
p5762
sg181
(lp5763
sg183
g134
sg184
Nsg185
(lp5764
I22
aI8
asg187
Nsg188
g5762
sg189
(lp5765
sg191
g60
sg192
Nsg193
Nsg194
Nsbag2
(g3
g4
Ntp5766
Rp5767
(dp5768
g8
g11
sg172
Nsg173
(dp5769
sg175
Nsg26
g29
sg176
(lp5770
I22
aI9
asg178
Nsg179
VII Kings 22:9
p5771
sg181
(lp5772
sg183
g134
sg184
Nsg185
(lp5773
I22
aI9
asg187
Nsg188
g5771
sg189
(lp5774
sg191
g60
sg192
Nsg193
Nsg194
Nsbag2
(g3
g4
Ntp5775
Rp5776
(dp5777
g8
g11
sg172
Nsg173
(dp5778
sg175
Nsg26
g29
sg176
(lp5779
I22
aI10
asg178
Nsg179
VII Kings 22:10
p5780
sg181
(lp5781
sg183
g134
sg184
Nsg185
(lp5782
I22
aI10
asg187
Nsg188
g5780
sg189
(lp5783
sg191
g60
sg192
Nsg193
Nsg194
Nsbag2
(g3
g4
Ntp5784
Rp5785
(dp5786
g8
g11
sg172
Nsg173
(dp5787
sg175
Nsg26
g29
sg176
(lp5788
I22
aI11
asg178
Nsg179
VII Kings 22:11
p5789
sg181
(lp5790
sg183
g134
sg184
Nsg185
(lp5791
I22
aI11
asg187
Nsg188
g5789
sg189
(lp5792
sg191
g60
sg192
Nsg193
Nsg194
Nsbag2
(g3
g4
Ntp5793
Rp5794
(dp5795
g8
g11
sg172
Nsg173
(dp5796
sg175
Nsg26
g29
sg176
(lp5797
I22
aI12
asg178
Nsg179
VII Kings 22:12
p5798
sg181
(lp5799
sg183
g134
sg184
Nsg185
(lp5800
I22
aI12
asg187
Nsg188
g5798
sg189
(lp5801
sg191
g60
sg192
Nsg193
Nsg194
Nsbag2
(g3
g4
Ntp5802
Rp5803
(dp5804
g8
g11
sg172
Nsg173
(dp5805
sg175
Nsg26
g29
sg176
(lp5806
I22
aI13
asg178
Nsg179
VII Kings 22:13
p5807
sg181
(lp5808
sg183
g134
sg184
Nsg185
(lp5809
I22
aI13
asg187
Nsg188
g5807
sg189
(lp5810
sg191
g60
sg192
Nsg193
Nsg194
Nsbag2
(g3
g4
Ntp5811
Rp5812
(dp5813
g8
g11
sg172
Nsg173
(dp5814
sg175
Nsg26
g29
sg176
(lp5815
I22
aI14
asg178
Nsg179
VII Kings 22:14
p5816
sg181
(lp5817
sg183
g134
sg184
Nsg185
(lp5818
I22
aI14
asg187
Nsg188
g5816
sg189
(lp5819
sg191
g60
sg192
Nsg193
Nsg194
Nsbag2
(g3
g4
Ntp5820
Rp5821
(dp5822
g8
g11
sg172
Nsg173
(dp5823
sg175
Nsg26
g29
sg176
(lp5824
I22
aI15
asg178
Nsg179
VII Kings 22:15
p5825
sg181
(lp5826
sg183
g134
sg184
Nsg185
(lp5827
I22
aI15
asg187
Nsg188
g5825
sg189
(lp5828
sg191
g60
sg192
Nsg193
Nsg194
Nsbag2
(g3
g4
Ntp5829
Rp5830
(dp5831
g8
g11
sg172
Nsg173
(dp5832
sg175
Nsg26
g29
sg176
(lp5833
I22
aI16
asg178
Nsg179
VII Kings 22:16
p5834
sg181
(lp5835
sg183
g134
sg184
Nsg185
(lp5836
I22
aI16
asg187
Nsg188
g5834
sg189
(lp5837
sg191
g60
sg192
Nsg193
Nsg194
Nsbag2
(g3
g4
Ntp5838
Rp5839
(dp5840
g8
g11
sg172
Nsg173
(dp5841
sg175
Nsg26
g29
sg176
(lp5842
I22
aI17
asg178
Nsg179
VII Kings 22:17
p5843
sg181
(lp5844
sg183
g134
sg184
Nsg185
(lp5845
I22
aI17
asg187
Nsg188
g5843
sg189
(lp5846
sg191
g60
sg192
Nsg193
Nsg194
Nsbag2
(g3
g4
Ntp5847
Rp5848
(dp5849
g8
g11
sg172
Nsg173
(dp5850
sg175
Nsg26
g29
sg176
(lp5851
I22
aI18
asg178
Nsg179
VII Kings 22:18
p5852
sg181
(lp5853
sg183
g134
sg184
Nsg185
(lp5854
I22
aI18
asg187
Nsg188
g5852
sg189
(lp5855
sg191
g60
sg192
Nsg193
Nsg194
Nsbag2
(g3
g4
Ntp5856
Rp5857
(dp5858
g8
g11
sg172
Nsg173
(dp5859
sg175
Nsg26
g29
sg176
(lp5860
I22
aI19
asg178
Nsg179
VII Kings 22:19
p5861
sg181
(lp5862
sg183
g134
sg184
Nsg185
(lp5863
I22
aI19
asg187
Nsg188
g5861
sg189
(lp5864
sg191
g60
sg192
Nsg193
Nsg194
Nsbag2
(g3
g4
Ntp5865
Rp5866
(dp5867
g8
g11
sg172
Nsg173
(dp5868
sg175
Nsg26
g29
sg176
(lp5869
I22
aI20
asg178
Nsg179
VII Kings 22:20
p5870
sg181
(lp5871
sg183
g134
sg184
Nsg185
(lp5872
I22
aI20
asg187
Nsg188
g5870
sg189
(lp5873
sg191
g60
sg192
Nsg193
Nsg194
Nsbag2
(g3
g4
Ntp5874
Rp5875
(dp5876
g8
g11
sg172
Nsg173
(dp5877
sg175
Nsg26
g29
sg176
(lp5878
I23
aI1
asg178
Nsg179
VII Kings 23:1
p5879
sg181
(lp5880
sg183
g134
sg184
Nsg185
(lp5881
I23
aI1
asg187
Nsg188
g5879
sg189
(lp5882
sg191
g60
sg192
Nsg193
Nsg194
Nsbag2
(g3
g4
Ntp5883
Rp5884
(dp5885
g8
g11
sg172
Nsg173
(dp5886
sg175
Nsg26
g29
sg176
(lp5887
I23
aI2
asg178
Nsg179
VII Kings 23:2
p5888
sg181
(lp5889
sg183
g134
sg184
Nsg185
(lp5890
I23
aI2
asg187
Nsg188
g5888
sg189
(lp5891
sg191
g60
sg192
Nsg193
Nsg194
Nsbag2
(g3
g4
Ntp5892
Rp5893
(dp5894
g8
g11
sg172
Nsg173
(dp5895
sg175
Nsg26
g29
sg176
(lp5896
I23
aI3
asg178
Nsg179
VII Kings 23:3
p5897
sg181
(lp5898
sg183
g134
sg184
Nsg185
(lp5899
I23
aI3
asg187
Nsg188
g5897
sg189
(lp5900
sg191
g60
sg192
Nsg193
Nsg194
Nsbag2
(g3
g4
Ntp5901
Rp5902
(dp5903
g8
g11
sg172
Nsg173
(dp5904
sg175
Nsg26
g29
sg176
(lp5905
I23
aI4
asg178
Nsg179
VII Kings 23:4
p5906
sg181
(lp5907
sg183
g134
sg184
Nsg185
(lp5908
I23
aI4
asg187
Nsg188
g5906
sg189
(lp5909
sg191
g60
sg192
Nsg193
Nsg194
Nsbag2
(g3
g4
Ntp5910
Rp5911
(dp5912
g8
g11
sg172
Nsg173
(dp5913
sg175
Nsg26
g29
sg176
(lp5914
I23
aI5
asg178
Nsg179
VII Kings 23:5
p5915
sg181
(lp5916
sg183
g134
sg184
Nsg185
(lp5917
I23
aI5
asg187
Nsg188
g5915
sg189
(lp5918
sg191
g60
sg192
Nsg193
Nsg194
Nsbag2
(g3
g4
Ntp5919
Rp5920
(dp5921
g8
g11
sg172
Nsg173
(dp5922
sg175
Nsg26
g29
sg176
(lp5923
I23
aI6
asg178
Nsg179
VII Kings 23:6
p5924
sg181
(lp5925
sg183
g134
sg184
Nsg185
(lp5926
I23
aI6
asg187
Nsg188
g5924
sg189
(lp5927
sg191
g60
sg192
Nsg193
Nsg194
Nsbag2
(g3
g4
Ntp5928
Rp5929
(dp5930
g8
g11
sg172
Nsg173
(dp5931
sg175
Nsg26
g29
sg176
(lp5932
I23
aI7
asg178
Nsg179
VII Kings 23:7
p5933
sg181
(lp5934
sg183
g134
sg184
Nsg185
(lp5935
I23
aI7
asg187
Nsg188
g5933
sg189
(lp5936
sg191
g60
sg192
Nsg193
Nsg194
Nsbag2
(g3
g4
Ntp5937
Rp5938
(dp5939
g8
g11
sg172
Nsg173
(dp5940
sg175
Nsg26
g29
sg176
(lp5941
I23
aI8
asg178
Nsg179
VII Kings 23:8
p5942
sg181
(lp5943
sg183
g134
sg184
Nsg185
(lp5944
I23
aI8
asg187
Nsg188
g5942
sg189
(lp5945
sg191
g60
sg192
Nsg193
Nsg194
Nsbag2
(g3
g4
Ntp5946
Rp5947
(dp5948
g8
g11
sg172
Nsg173
(dp5949
sg175
Nsg26
g29
sg176
(lp5950
I23
aI9
asg178
Nsg179
VII Kings 23:9
p5951
sg181
(lp5952
sg183
g134
sg184
Nsg185
(lp5953
I23
aI9
asg187
Nsg188
g5951
sg189
(lp5954
sg191
g60
sg192
Nsg193
Nsg194
Nsbag2
(g3
g4
Ntp5955
Rp5956
(dp5957
g8
g11
sg172
Nsg173
(dp5958
sg175
Nsg26
g29
sg176
(lp5959
I23
aI10
asg178
Nsg179
VII Kings 23:10
p5960
sg181
(lp5961
sg183
g134
sg184
Nsg185
(lp5962
I23
aI10
asg187
Nsg188
g5960
sg189
(lp5963
sg191
g60
sg192
Nsg193
Nsg194
Nsbag2
(g3
g4
Ntp5964
Rp5965
(dp5966
g8
g11
sg172
Nsg173
(dp5967
sg175
Nsg26
g29
sg176
(lp5968
I23
aI11
asg178
Nsg179
VII Kings 23:11
p5969
sg181
(lp5970
sg183
g134
sg184
Nsg185
(lp5971
I23
aI11
asg187
Nsg188
g5969
sg189
(lp5972
sg191
g60
sg192
Nsg193
Nsg194
Nsbag2
(g3
g4
Ntp5973
Rp5974
(dp5975
g8
g11
sg172
Nsg173
(dp5976
sg175
Nsg26
g29
sg176
(lp5977
I23
aI12
asg178
Nsg179
VII Kings 23:12
p5978
sg181
(lp5979
sg183
g134
sg184
Nsg185
(lp5980
I23
aI12
asg187
Nsg188
g5978
sg189
(lp5981
sg191
g60
sg192
Nsg193
Nsg194
Nsbag2
(g3
g4
Ntp5982
Rp5983
(dp5984
g8
g11
sg172
Nsg173
(dp5985
sg175
Nsg26
g29
sg176
(lp5986
I23
aI13
asg178
Nsg179
VII Kings 23:13
p5987
sg181
(lp5988
sg183
g134
sg184
Nsg185
(lp5989
I23
aI13
asg187
Nsg188
g5987
sg189
(lp5990
sg191
g60
sg192
Nsg193
Nsg194
Nsbag2
(g3
g4
Ntp5991
Rp5992
(dp5993
g8
g11
sg172
Nsg173
(dp5994
sg175
Nsg26
g29
sg176
(lp5995
I23
aI14
asg178
Nsg179
VII Kings 23:14
p5996
sg181
(lp5997
sg183
g134
sg184
Nsg185
(lp5998
I23
aI14
asg187
Nsg188
g5996
sg189
(lp5999
sg191
g60
sg192
Nsg193
Nsg194
Nsbag2
(g3
g4
Ntp6000
Rp6001
(dp6002
g8
g11
sg172
Nsg173
(dp6003
sg175
Nsg26
g29
sg176
(lp6004
I23
aI15
asg178
Nsg179
VII Kings 23:15
p6005
sg181
(lp6006
sg183
g134
sg184
Nsg185
(lp6007
I23
aI15
asg187
Nsg188
g6005
sg189
(lp6008
sg191
g60
sg192
Nsg193
Nsg194
Nsbag2
(g3
g4
Ntp6009
Rp6010
(dp6011
g8
g11
sg172
Nsg173
(dp6012
sg175
Nsg26
g29
sg176
(lp6013
I23
aI16
asg178
Nsg179
VII Kings 23:16
p6014
sg181
(lp6015
sg183
g134
sg184
Nsg185
(lp6016
I23
aI16
asg187
Nsg188
g6014
sg189
(lp6017
sg191
g60
sg192
Nsg193
Nsg194
Nsbag2
(g3
g4
Ntp6018
Rp6019
(dp6020
g8
g11
sg172
Nsg173
(dp6021
sg175
Nsg26
g29
sg176
(lp6022
I23
aI17
asg178
Nsg179
VII Kings 23:17
p6023
sg181
(lp6024
sg183
g134
sg184
Nsg185
(lp6025
I23
aI17
asg187
Nsg188
g6023
sg189
(lp6026
sg191
g60
sg192
Nsg193
Nsg194
Nsbag2
(g3
g4
Ntp6027
Rp6028
(dp6029
g8
g11
sg172
Nsg173
(dp6030
sg175
Nsg26
g29
sg176
(lp6031
I23
aI18
asg178
Nsg179
VII Kings 23:18
p6032
sg181
(lp6033
sg183
g134
sg184
Nsg185
(lp6034
I23
aI18
asg187
Nsg188
g6032
sg189
(lp6035
sg191
g60
sg192
Nsg193
Nsg194
Nsbag2
(g3
g4
Ntp6036
Rp6037
(dp6038
g8
g11
sg172
Nsg173
(dp6039
sg175
Nsg26
g29
sg176
(lp6040
I23
aI19
asg178
Nsg179
VII Kings 23:19
p6041
sg181
(lp6042
sg183
g134
sg184
Nsg185
(lp6043
I23
aI19
asg187
Nsg188
g6041
sg189
(lp6044
sg191
g60
sg192
Nsg193
Nsg194
Nsbag2
(g3
g4
Ntp6045
Rp6046
(dp6047
g8
g11
sg172
Nsg173
(dp6048
sg175
Nsg26
g29
sg176
(lp6049
I23
aI20
asg178
Nsg179
VII Kings 23:20
p6050
sg181
(lp6051
sg183
g134
sg184
Nsg185
(lp6052
I23
aI20
asg187
Nsg188
g6050
sg189
(lp6053
sg191
g60
sg192
Nsg193
Nsg194
Nsbag2
(g3
g4
Ntp6054
Rp6055
(dp6056
g8
g11
sg172
Nsg173
(dp6057
sg175
Nsg26
g29
sg176
(lp6058
I23
aI21
asg178
Nsg179
VII Kings 23:21
p6059
sg181
(lp6060
sg183
g134
sg184
Nsg185
(lp6061
I23
aI21
asg187
Nsg188
g6059
sg189
(lp6062
sg191
g60
sg192
Nsg193
Nsg194
Nsbag2
(g3
g4
Ntp6063
Rp6064
(dp6065
g8
g11
sg172
Nsg173
(dp6066
sg175
Nsg26
g29
sg176
(lp6067
I23
aI22
asg178
Nsg179
VII Kings 23:22
p6068
sg181
(lp6069
sg183
g134
sg184
Nsg185
(lp6070
I23
aI22
asg187
Nsg188
g6068
sg189
(lp6071
sg191
g60
sg192
Nsg193
Nsg194
Nsbag2
(g3
g4
Ntp6072
Rp6073
(dp6074
g8
g11
sg172
Nsg173
(dp6075
sg175
Nsg26
g29
sg176
(lp6076
I23
aI23
asg178
Nsg179
VII Kings 23:23
p6077
sg181
(lp6078
sg183
g134
sg184
Nsg185
(lp6079
I23
aI23
asg187
Nsg188
g6077
sg189
(lp6080
sg191
g60
sg192
Nsg193
Nsg194
Nsbag2
(g3
g4
Ntp6081
Rp6082
(dp6083
g8
g11
sg172
Nsg173
(dp6084
sg175
Nsg26
g29
sg176
(lp6085
I23
aI24
asg178
Nsg179
VII Kings 23:24
p6086
sg181
(lp6087
sg183
g134
sg184
Nsg185
(lp6088
I23
aI24
asg187
Nsg188
g6086
sg189
(lp6089
sg191
g60
sg192
Nsg193
Nsg194
Nsbag2
(g3
g4
Ntp6090
Rp6091
(dp6092
g8
g11
sg172
Nsg173
(dp6093
sg175
Nsg26
g29
sg176
(lp6094
I23
aI25
asg178
Nsg179
VII Kings 23:25
p6095
sg181
(lp6096
sg183
g134
sg184
Nsg185
(lp6097
I23
aI25
asg187
Nsg188
g6095
sg189
(lp6098
sg191
g60
sg192
Nsg193
Nsg194
Nsbag2
(g3
g4
Ntp6099
Rp6100
(dp6101
g8
g11
sg172
Nsg173
(dp6102
sg175
Nsg26
g29
sg176
(lp6103
I23
aI26
asg178
Nsg179
VII Kings 23:26
p6104
sg181
(lp6105
sg183
g134
sg184
Nsg185
(lp6106
I23
aI26
asg187
Nsg188
g6104
sg189
(lp6107
sg191
g60
sg192
Nsg193
Nsg194
Nsbag2
(g3
g4
Ntp6108
Rp6109
(dp6110
g8
g11
sg172
Nsg173
(dp6111
sg175
Nsg26
g29
sg176
(lp6112
I23
aI27
asg178
Nsg179
VII Kings 23:27
p6113
sg181
(lp6114
sg183
g134
sg184
Nsg185
(lp6115
I23
aI27
asg187
Nsg188
g6113
sg189
(lp6116
sg191
g60
sg192
Nsg193
Nsg194
Nsbag2
(g3
g4
Ntp6117
Rp6118
(dp6119
g8
g11
sg172
Nsg173
(dp6120
sg175
Nsg26
g29
sg176
(lp6121
I23
aI28
asg178
Nsg179
VII Kings 23:28
p6122
sg181
(lp6123
sg183
g134
sg184
Nsg185
(lp6124
I23
aI28
asg187
Nsg188
g6122
sg189
(lp6125
sg191
g60
sg192
Nsg193
Nsg194
Nsbag2
(g3
g4
Ntp6126
Rp6127
(dp6128
g8
g11
sg172
Nsg173
(dp6129
sg175
Nsg26
g29
sg176
(lp6130
I23
aI29
asg178
Nsg179
VII Kings 23:29
p6131
sg181
(lp6132
sg183
g134
sg184
Nsg185
(lp6133
I23
aI29
asg187
Nsg188
g6131
sg189
(lp6134
sg191
g60
sg192
Nsg193
Nsg194
Nsbag2
(g3
g4
Ntp6135
Rp6136
(dp6137
g8
g11
sg172
Nsg173
(dp6138
sg175
Nsg26
g29
sg176
(lp6139
I23
aI30
asg178
Nsg179
VII Kings 23:30
p6140
sg181
(lp6141
sg183
g134
sg184
Nsg185
(lp6142
I23
aI30
asg187
Nsg188
g6140
sg189
(lp6143
sg191
g60
sg192
Nsg193
Nsg194
Nsbag2
(g3
g4
Ntp6144
Rp6145
(dp6146
g8
g11
sg172
Nsg173
(dp6147
sg175
Nsg26
g29
sg176
(lp6148
I23
aI31
asg178
Nsg179
VII Kings 23:31
p6149
sg181
(lp6150
sg183
g134
sg184
Nsg185
(lp6151
I23
aI31
asg187
Nsg188
g6149
sg189
(lp6152
sg191
g60
sg192
Nsg193
Nsg194
Nsbag2
(g3
g4
Ntp6153
Rp6154
(dp6155
g8
g11
sg172
Nsg173
(dp6156
sg175
Nsg26
g29
sg176
(lp6157
I23
aI32
asg178
Nsg179
VII Kings 23:32
p6158
sg181
(lp6159
sg183
g134
sg184
Nsg185
(lp6160
I23
aI32
asg187
Nsg188
g6158
sg189
(lp6161
sg191
g60
sg192
Nsg193
Nsg194
Nsbag2
(g3
g4
Ntp6162
Rp6163
(dp6164
g8
g11
sg172
Nsg173
(dp6165
sg175
Nsg26
g29
sg176
(lp6166
I23
aI33
asg178
Nsg179
VII Kings 23:33
p6167
sg181
(lp6168
sg183
g134
sg184
Nsg185
(lp6169
I23
aI33
asg187
Nsg188
g6167
sg189
(lp6170
sg191
g60
sg192
Nsg193
Nsg194
Nsbag2
(g3
g4
Ntp6171
Rp6172
(dp6173
g8
g11
sg172
Nsg173
(dp6174
sg175
Nsg26
g29
sg176
(lp6175
I23
aI34
asg178
Nsg179
VII Kings 23:34
p6176
sg181
(lp6177
sg183
g134
sg184
Nsg185
(lp6178
I23
aI34
asg187
Nsg188
g6176
sg189
(lp6179
sg191
g60
sg192
Nsg193
Nsg194
Nsbag2
(g3
g4
Ntp6180
Rp6181
(dp6182
g8
g11
sg172
Nsg173
(dp6183
sg175
Nsg26
g29
sg176
(lp6184
I23
aI35
asg178
Nsg179
VII Kings 23:35
p6185
sg181
(lp6186
sg183
g134
sg184
Nsg185
(lp6187
I23
aI35
asg187
Nsg188
g6185
sg189
(lp6188
sg191
g60
sg192
Nsg193
Nsg194
Nsbag2
(g3
g4
Ntp6189
Rp6190
(dp6191
g8
g11
sg172
Nsg173
(dp6192
sg175
Nsg26
g29
sg176
(lp6193
I23
aI36
asg178
Nsg179
VII Kings 23:36
p6194
sg181
(lp6195
sg183
g134
sg184
Nsg185
(lp6196
I23
aI36
asg187
Nsg188
g6194
sg189
(lp6197
sg191
g60
sg192
Nsg193
Nsg194
Nsbag2
(g3
g4
Ntp6198
Rp6199
(dp6200
g8
g11
sg172
Nsg173
(dp6201
sg175
Nsg26
g29
sg176
(lp6202
I23
aI37
asg178
Nsg179
VII Kings 23:37
p6203
sg181
(lp6204
sg183
g134
sg184
Nsg185
(lp6205
I23
aI37
asg187
Nsg188
g6203
sg189
(lp6206
sg191
g60
sg192
Nsg193
Nsg194
Nsbag2
(g3
g4
Ntp6207
Rp6208
(dp6209
g8
g11
sg172
Nsg173
(dp6210
sg175
Nsg26
g29
sg176
(lp6211
I24
aI1
asg178
Nsg179
VII Kings 24:1
p6212
sg181
(lp6213
sg183
g134
sg184
Nsg185
(lp6214
I24
aI1
asg187
Nsg188
g6212
sg189
(lp6215
sg191
g60
sg192
Nsg193
Nsg194
Nsbag2
(g3
g4
Ntp6216
Rp6217
(dp6218
g8
g11
sg172
Nsg173
(dp6219
sg175
Nsg26
g29
sg176
(lp6220
I24
aI2
asg178
Nsg179
VII Kings 24:2
p6221
sg181
(lp6222
sg183
g134
sg184
Nsg185
(lp6223
I24
aI2
asg187
Nsg188
g6221
sg189
(lp6224
sg191
g60
sg192
Nsg193
Nsg194
Nsbag2
(g3
g4
Ntp6225
Rp6226
(dp6227
g8
g11
sg172
Nsg173
(dp6228
sg175
Nsg26
g29
sg176
(lp6229
I24
aI3
asg178
Nsg179
VII Kings 24:3
p6230
sg181
(lp6231
sg183
g134
sg184
Nsg185
(lp6232
I24
aI3
asg187
Nsg188
g6230
sg189
(lp6233
sg191
g60
sg192
Nsg193
Nsg194
Nsbag2
(g3
g4
Ntp6234
Rp6235
(dp6236
g8
g11
sg172
Nsg173
(dp6237
sg175
Nsg26
g29
sg176
(lp6238
I24
aI4
asg178
Nsg179
VII Kings 24:4
p6239
sg181
(lp6240
sg183
g134
sg184
Nsg185
(lp6241
I24
aI4
asg187
Nsg188
g6239
sg189
(lp6242
sg191
g60
sg192
Nsg193
Nsg194
Nsbag2
(g3
g4
Ntp6243
Rp6244
(dp6245
g8
g11
sg172
Nsg173
(dp6246
sg175
Nsg26
g29
sg176
(lp6247
I24
aI5
asg178
Nsg179
VII Kings 24:5
p6248
sg181
(lp6249
sg183
g134
sg184
Nsg185
(lp6250
I24
aI5
asg187
Nsg188
g6248
sg189
(lp6251
sg191
g60
sg192
Nsg193
Nsg194
Nsbag2
(g3
g4
Ntp6252
Rp6253
(dp6254
g8
g11
sg172
Nsg173
(dp6255
sg175
Nsg26
g29
sg176
(lp6256
I24
aI6
asg178
Nsg179
VII Kings 24:6
p6257
sg181
(lp6258
sg183
g134
sg184
Nsg185
(lp6259
I24
aI6
asg187
Nsg188
g6257
sg189
(lp6260
sg191
g60
sg192
Nsg193
Nsg194
Nsbag2
(g3
g4
Ntp6261
Rp6262
(dp6263
g8
g11
sg172
Nsg173
(dp6264
sg175
Nsg26
g29
sg176
(lp6265
I24
aI7
asg178
Nsg179
VII Kings 24:7
p6266
sg181
(lp6267
sg183
g134
sg184
Nsg185
(lp6268
I24
aI7
asg187
Nsg188
g6266
sg189
(lp6269
sg191
g60
sg192
Nsg193
Nsg194
Nsbag2
(g3
g4
Ntp6270
Rp6271
(dp6272
g8
g11
sg172
Nsg173
(dp6273
sg175
Nsg26
g29
sg176
(lp6274
I24
aI8
asg178
Nsg179
VII Kings 24:8
p6275
sg181
(lp6276
sg183
g134
sg184
Nsg185
(lp6277
I24
aI8
asg187
Nsg188
g6275
sg189
(lp6278
sg191
g60
sg192
Nsg193
Nsg194
Nsbag2
(g3
g4
Ntp6279
Rp6280
(dp6281
g8
g11
sg172
Nsg173
(dp6282
sg175
Nsg26
g29
sg176
(lp6283
I24
aI9
asg178
Nsg179
VII Kings 24:9
p6284
sg181
(lp6285
sg183
g134
sg184
Nsg185
(lp6286
I24
aI9
asg187
Nsg188
g6284
sg189
(lp6287
sg191
g60
sg192
Nsg193
Nsg194
Nsbag2
(g3
g4
Ntp6288
Rp6289
(dp6290
g8
g11
sg172
Nsg173
(dp6291
sg175
Nsg26
g29
sg176
(lp6292
I24
aI10
asg178
Nsg179
VII Kings 24:10
p6293
sg181
(lp6294
sg183
g134
sg184
Nsg185
(lp6295
I24
aI10
asg187
Nsg188
g6293
sg189
(lp6296
sg191
g60
sg192
Nsg193
Nsg194
Nsbag2
(g3
g4
Ntp6297
Rp6298
(dp6299
g8
g11
sg172
Nsg173
(dp6300
sg175
Nsg26
g29
sg176
(lp6301
I24
aI11
asg178
Nsg179
VII Kings 24:11
p6302
sg181
(lp6303
sg183
g134
sg184
Nsg185
(lp6304
I24
aI11
asg187
Nsg188
g6302
sg189
(lp6305
sg191
g60
sg192
Nsg193
Nsg194
Nsbag2
(g3
g4
Ntp6306
Rp6307
(dp6308
g8
g11
sg172
Nsg173
(dp6309
sg175
Nsg26
g29
sg176
(lp6310
I24
aI12
asg178
Nsg179
VII Kings 24:12
p6311
sg181
(lp6312
sg183
g134
sg184
Nsg185
(lp6313
I24
aI12
asg187
Nsg188
g6311
sg189
(lp6314
sg191
g60
sg192
Nsg193
Nsg194
Nsbag2
(g3
g4
Ntp6315
Rp6316
(dp6317
g8
g11
sg172
Nsg173
(dp6318
sg175
Nsg26
g29
sg176
(lp6319
I24
aI13
asg178
Nsg179
VII Kings 24:13
p6320
sg181
(lp6321
sg183
g134
sg184
Nsg185
(lp6322
I24
aI13
asg187
Nsg188
g6320
sg189
(lp6323
sg191
g60
sg192
Nsg193
Nsg194
Nsbag2
(g3
g4
Ntp6324
Rp6325
(dp6326
g8
g11
sg172
Nsg173
(dp6327
sg175
Nsg26
g29
sg176
(lp6328
I24
aI14
asg178
Nsg179
VII Kings 24:14
p6329
sg181
(lp6330
sg183
g134
sg184
Nsg185
(lp6331
I24
aI14
asg187
Nsg188
g6329
sg189
(lp6332
sg191
g60
sg192
Nsg193
Nsg194
Nsbag2
(g3
g4
Ntp6333
Rp6334
(dp6335
g8
g11
sg172
Nsg173
(dp6336
sg175
Nsg26
g29
sg176
(lp6337
I24
aI15
asg178
Nsg179
VII Kings 24:15
p6338
sg181
(lp6339
sg183
g134
sg184
Nsg185
(lp6340
I24
aI15
asg187
Nsg188
g6338
sg189
(lp6341
sg191
g60
sg192
Nsg193
Nsg194
Nsbag2
(g3
g4
Ntp6342
Rp6343
(dp6344
g8
g11
sg172
Nsg173
(dp6345
sg175
Nsg26
g29
sg176
(lp6346
I24
aI16
asg178
Nsg179
VII Kings 24:16
p6347
sg181
(lp6348
sg183
g134
sg184
Nsg185
(lp6349
I24
aI16
asg187
Nsg188
g6347
sg189
(lp6350
sg191
g60
sg192
Nsg193
Nsg194
Nsbag2
(g3
g4
Ntp6351
Rp6352
(dp6353
g8
g11
sg172
Nsg173
(dp6354
sg175
Nsg26
g29
sg176
(lp6355
I24
aI17
asg178
Nsg179
VII Kings 24:17
p6356
sg181
(lp6357
sg183
g134
sg184
Nsg185
(lp6358
I24
aI17
asg187
Nsg188
g6356
sg189
(lp6359
sg191
g60
sg192
Nsg193
Nsg194
Nsbag2
(g3
g4
Ntp6360
Rp6361
(dp6362
g8
g11
sg172
Nsg173
(dp6363
sg175
Nsg26
g29
sg176
(lp6364
I24
aI18
asg178
Nsg179
VII Kings 24:18
p6365
sg181
(lp6366
sg183
g134
sg184
Nsg185
(lp6367
I24
aI18
asg187
Nsg188
g6365
sg189
(lp6368
sg191
g60
sg192
Nsg193
Nsg194
Nsbag2
(g3
g4
Ntp6369
Rp6370
(dp6371
g8
g11
sg172
Nsg173
(dp6372
sg175
Nsg26
g29
sg176
(lp6373
I24
aI19
asg178
Nsg179
VII Kings 24:19
p6374
sg181
(lp6375
sg183
g134
sg184
Nsg185
(lp6376
I24
aI19
asg187
Nsg188
g6374
sg189
(lp6377
sg191
g60
sg192
Nsg193
Nsg194
Nsbag2
(g3
g4
Ntp6378
Rp6379
(dp6380
g8
g11
sg172
Nsg173
(dp6381
sg175
Nsg26
g29
sg176
(lp6382
I24
aI20
asg178
Nsg179
VII Kings 24:20
p6383
sg181
(lp6384
sg183
g134
sg184
Nsg185
(lp6385
I24
aI20
asg187
Nsg188
g6383
sg189
(lp6386
sg191
g60
sg192
Nsg193
Nsg194
Nsbag2
(g3
g4
Ntp6387
Rp6388
(dp6389
g8
g11
sg172
Nsg173
(dp6390
sg175
Nsg26
g29
sg176
(lp6391
I25
aI1
asg178
Nsg179
VII Kings 25:1
p6392
sg181
(lp6393
sg183
g134
sg184
Nsg185
(lp6394
I25
aI1
asg187
Nsg188
g6392
sg189
(lp6395
sg191
g60
sg192
Nsg193
Nsg194
Nsbag2
(g3
g4
Ntp6396
Rp6397
(dp6398
g8
g11
sg172
Nsg173
(dp6399
sg175
Nsg26
g29
sg176
(lp6400
I25
aI2
asg178
Nsg179
VII Kings 25:2
p6401
sg181
(lp6402
sg183
g134
sg184
Nsg185
(lp6403
I25
aI2
asg187
Nsg188
g6401
sg189
(lp6404
sg191
g60
sg192
Nsg193
Nsg194
Nsbag2
(g3
g4
Ntp6405
Rp6406
(dp6407
g8
g11
sg172
Nsg173
(dp6408
sg175
Nsg26
g29
sg176
(lp6409
I25
aI3
asg178
Nsg179
VII Kings 25:3
p6410
sg181
(lp6411
sg183
g134
sg184
Nsg185
(lp6412
I25
aI3
asg187
Nsg188
g6410
sg189
(lp6413
sg191
g60
sg192
Nsg193
Nsg194
Nsbag2
(g3
g4
Ntp6414
Rp6415
(dp6416
g8
g11
sg172
Nsg173
(dp6417
sg175
Nsg26
g29
sg176
(lp6418
I25
aI4
asg178
Nsg179
VII Kings 25:4
p6419
sg181
(lp6420
sg183
g134
sg184
Nsg185
(lp6421
I25
aI4
asg187
Nsg188
g6419
sg189
(lp6422
sg191
g60
sg192
Nsg193
Nsg194
Nsbag2
(g3
g4
Ntp6423
Rp6424
(dp6425
g8
g11
sg172
Nsg173
(dp6426
sg175
Nsg26
g29
sg176
(lp6427
I25
aI5
asg178
Nsg179
VII Kings 25:5
p6428
sg181
(lp6429
sg183
g134
sg184
Nsg185
(lp6430
I25
aI5
asg187
Nsg188
g6428
sg189
(lp6431
sg191
g60
sg192
Nsg193
Nsg194
Nsbag2
(g3
g4
Ntp6432
Rp6433
(dp6434
g8
g11
sg172
Nsg173
(dp6435
sg175
Nsg26
g29
sg176
(lp6436
I25
aI6
asg178
Nsg179
VII Kings 25:6
p6437
sg181
(lp6438
sg183
g134
sg184
Nsg185
(lp6439
I25
aI6
asg187
Nsg188
g6437
sg189
(lp6440
sg191
g60
sg192
Nsg193
Nsg194
Nsbag2
(g3
g4
Ntp6441
Rp6442
(dp6443
g8
g11
sg172
Nsg173
(dp6444
sg175
Nsg26
g29
sg176
(lp6445
I25
aI7
asg178
Nsg179
VII Kings 25:7
p6446
sg181
(lp6447
sg183
g134
sg184
Nsg185
(lp6448
I25
aI7
asg187
Nsg188
g6446
sg189
(lp6449
sg191
g60
sg192
Nsg193
Nsg194
Nsbag2
(g3
g4
Ntp6450
Rp6451
(dp6452
g8
g11
sg172
Nsg173
(dp6453
sg175
Nsg26
g29
sg176
(lp6454
I25
aI8
asg178
Nsg179
VII Kings 25:8
p6455
sg181
(lp6456
sg183
g134
sg184
Nsg185
(lp6457
I25
aI8
asg187
Nsg188
g6455
sg189
(lp6458
sg191
g60
sg192
Nsg193
Nsg194
Nsbag2
(g3
g4
Ntp6459
Rp6460
(dp6461
g8
g11
sg172
Nsg173
(dp6462
sg175
Nsg26
g29
sg176
(lp6463
I25
aI9
asg178
Nsg179
VII Kings 25:9
p6464
sg181
(lp6465
sg183
g134
sg184
Nsg185
(lp6466
I25
aI9
asg187
Nsg188
g6464
sg189
(lp6467
sg191
g60
sg192
Nsg193
Nsg194
Nsbag2
(g3
g4
Ntp6468
Rp6469
(dp6470
g8
g11
sg172
Nsg173
(dp6471
sg175
Nsg26
g29
sg176
(lp6472
I25
aI10
asg178
Nsg179
VII Kings 25:10
p6473
sg181
(lp6474
sg183
g134
sg184
Nsg185
(lp6475
I25
aI10
asg187
Nsg188
g6473
sg189
(lp6476
sg191
g60
sg192
Nsg193
Nsg194
Nsbag2
(g3
g4
Ntp6477
Rp6478
(dp6479
g8
g11
sg172
Nsg173
(dp6480
sg175
Nsg26
g29
sg176
(lp6481
I25
aI11
asg178
Nsg179
VII Kings 25:11
p6482
sg181
(lp6483
sg183
g134
sg184
Nsg185
(lp6484
I25
aI11
asg187
Nsg188
g6482
sg189
(lp6485
sg191
g60
sg192
Nsg193
Nsg194
Nsbag2
(g3
g4
Ntp6486
Rp6487
(dp6488
g8
g11
sg172
Nsg173
(dp6489
sg175
Nsg26
g29
sg176
(lp6490
I25
aI12
asg178
Nsg179
VII Kings 25:12
p6491
sg181
(lp6492
sg183
g134
sg184
Nsg185
(lp6493
I25
aI12
asg187
Nsg188
g6491
sg189
(lp6494
sg191
g60
sg192
Nsg193
Nsg194
Nsbag2
(g3
g4
Ntp6495
Rp6496
(dp6497
g8
g11
sg172
Nsg173
(dp6498
sg175
Nsg26
g29
sg176
(lp6499
I25
aI13
asg178
Nsg179
VII Kings 25:13
p6500
sg181
(lp6501
sg183
g134
sg184
Nsg185
(lp6502
I25
aI13
asg187
Nsg188
g6500
sg189
(lp6503
sg191
g60
sg192
Nsg193
Nsg194
Nsbag2
(g3
g4
Ntp6504
Rp6505
(dp6506
g8
g11
sg172
Nsg173
(dp6507
sg175
Nsg26
g29
sg176
(lp6508
I25
aI14
asg178
Nsg179
VII Kings 25:14
p6509
sg181
(lp6510
sg183
g134
sg184
Nsg185
(lp6511
I25
aI14
asg187
Nsg188
g6509
sg189
(lp6512
sg191
g60
sg192
Nsg193
Nsg194
Nsbag2
(g3
g4
Ntp6513
Rp6514
(dp6515
g8
g11
sg172
Nsg173
(dp6516
sg175
Nsg26
g29
sg176
(lp6517
I25
aI15
asg178
Nsg179
VII Kings 25:15
p6518
sg181
(lp6519
sg183
g134
sg184
Nsg185
(lp6520
I25
aI15
asg187
Nsg188
g6518
sg189
(lp6521
sg191
g60
sg192
Nsg193
Nsg194
Nsbag2
(g3
g4
Ntp6522
Rp6523
(dp6524
g8
g11
sg172
Nsg173
(dp6525
sg175
Nsg26
g29
sg176
(lp6526
I25
aI16
asg178
Nsg179
VII Kings 25:16
p6527
sg181
(lp6528
sg183
g134
sg184
Nsg185
(lp6529
I25
aI16
asg187
Nsg188
g6527
sg189
(lp6530
sg191
g60
sg192
Nsg193
Nsg194
Nsbag2
(g3
g4
Ntp6531
Rp6532
(dp6533
g8
g11
sg172
Nsg173
(dp6534
sg175
Nsg26
g29
sg176
(lp6535
I25
aI17
asg178
Nsg179
VII Kings 25:17
p6536
sg181
(lp6537
sg183
g134
sg184
Nsg185
(lp6538
I25
aI17
asg187
Nsg188
g6536
sg189
(lp6539
sg191
g60
sg192
Nsg193
Nsg194
Nsbag2
(g3
g4
Ntp6540
Rp6541
(dp6542
g8
g11
sg172
Nsg173
(dp6543
sg175
Nsg26
g29
sg176
(lp6544
I25
aI18
asg178
Nsg179
VII Kings 25:18
p6545
sg181
(lp6546
sg183
g134
sg184
Nsg185
(lp6547
I25
aI18
asg187
Nsg188
g6545
sg189
(lp6548
sg191
g60
sg192
Nsg193
Nsg194
Nsbag2
(g3
g4
Ntp6549
Rp6550
(dp6551
g8
g11
sg172
Nsg173
(dp6552
sg175
Nsg26
g29
sg176
(lp6553
I25
aI19
asg178
Nsg179
VII Kings 25:19
p6554
sg181
(lp6555
sg183
g134
sg184
Nsg185
(lp6556
I25
aI19
asg187
Nsg188
g6554
sg189
(lp6557
sg191
g60
sg192
Nsg193
Nsg194
Nsbag2
(g3
g4
Ntp6558
Rp6559
(dp6560
g8
g11
sg172
Nsg173
(dp6561
sg175
Nsg26
g29
sg176
(lp6562
I25
aI20
asg178
Nsg179
VII Kings 25:20
p6563
sg181
(lp6564
sg183
g134
sg184
Nsg185
(lp6565
I25
aI20
asg187
Nsg188
g6563
sg189
(lp6566
sg191
g60
sg192
Nsg193
Nsg194
Nsbag2
(g3
g4
Ntp6567
Rp6568
(dp6569
g8
g11
sg172
Nsg173
(dp6570
sg175
Nsg26
g29
sg176
(lp6571
I25
aI21
asg178
Nsg179
VII Kings 25:21
p6572
sg181
(lp6573
sg183
g134
sg184
Nsg185
(lp6574
I25
aI21
asg187
Nsg188
g6572
sg189
(lp6575
sg191
g60
sg192
Nsg193
Nsg194
Nsbag2
(g3
g4
Ntp6576
Rp6577
(dp6578
g8
g11
sg172
Nsg173
(dp6579
sg175
Nsg26
g29
sg176
(lp6580
I25
aI22
asg178
Nsg179
VII Kings 25:22
p6581
sg181
(lp6582
sg183
g134
sg184
Nsg185
(lp6583
I25
aI22
asg187
Nsg188
g6581
sg189
(lp6584
sg191
g60
sg192
Nsg193
Nsg194
Nsbag2
(g3
g4
Ntp6585
Rp6586
(dp6587
g8
g11
sg172
Nsg173
(dp6588
sg175
Nsg26
g29
sg176
(lp6589
I25
aI23
asg178
Nsg179
VII Kings 25:23
p6590
sg181
(lp6591
sg183
g134
sg184
Nsg185
(lp6592
I25
aI23
asg187
Nsg188
g6590
sg189
(lp6593
sg191
g60
sg192
Nsg193
Nsg194
Nsbag2
(g3
g4
Ntp6594
Rp6595
(dp6596
g8
g11
sg172
Nsg173
(dp6597
sg175
Nsg26
g29
sg176
(lp6598
I25
aI24
asg178
Nsg179
VII Kings 25:24
p6599
sg181
(lp6600
sg183
g134
sg184
Nsg185
(lp6601
I25
aI24
asg187
Nsg188
g6599
sg189
(lp6602
sg191
g60
sg192
Nsg193
Nsg194
Nsbag2
(g3
g4
Ntp6603
Rp6604
(dp6605
g8
g11
sg172
Nsg173
(dp6606
sg175
Nsg26
g29
sg176
(lp6607
I25
aI25
asg178
Nsg179
VII Kings 25:25
p6608
sg181
(lp6609
sg183
g134
sg184
Nsg185
(lp6610
I25
aI25
asg187
Nsg188
g6608
sg189
(lp6611
sg191
g60
sg192
Nsg193
Nsg194
Nsbag2
(g3
g4
Ntp6612
Rp6613
(dp6614
g8
g11
sg172
Nsg173
(dp6615
sg175
Nsg26
g29
sg176
(lp6616
I25
aI26
asg178
Nsg179
VII Kings 25:26
p6617
sg181
(lp6618
sg183
g134
sg184
Nsg185
(lp6619
I25
aI26
asg187
Nsg188
g6617
sg189
(lp6620
sg191
g60
sg192
Nsg193
Nsg194
Nsbag2
(g3
g4
Ntp6621
Rp6622
(dp6623
g8
g11
sg172
Nsg173
(dp6624
sg175
Nsg26
g29
sg176
(lp6625
I25
aI27
asg178
Nsg179
VII Kings 25:27
p6626
sg181
(lp6627
sg183
g134
sg184
Nsg185
(lp6628
I25
aI27
asg187
Nsg188
g6626
sg189
(lp6629
sg191
g60
sg192
Nsg193
Nsg194
Nsbag2
(g3
g4
Ntp6630
Rp6631
(dp6632
g8
g11
sg172
Nsg173
(dp6633
sg175
Nsg26
g29
sg176
(lp6634
I25
aI28
asg178
Nsg179
VII Kings 25:28
p6635
sg181
(lp6636
sg183
g134
sg184
Nsg185
(lp6637
I25
aI28
asg187
Nsg188
g6635
sg189
(lp6638
sg191
g60
sg192
Nsg193
Nsg194
Nsbag2
(g3
g4
Ntp6639
Rp6640
(dp6641
g8
g11
sg172
Nsg173
(dp6642
sg175
Nsg26
g29
sg176
(lp6643
I25
aI29
asg178
Nsg179
VII Kings 25:29
p6644
sg181
(lp6645
sg183
g134
sg184
Nsg185
(lp6646
I25
aI29
asg187
Nsg188
g6644
sg189
(lp6647
sg191
g60
sg192
Nsg193
Nsg194
Nsbag2
(g3
g4
Ntp6648
Rp6649
(dp6650
g8
g11
sg172
Nsg173
(dp6651
sg175
Nsg26
g29
sg176
(lp6652
I25
aI30
asg178
Nsg179
VII Kings 25:30
p6653
sg181
(lp6654
sg183
g134
sg184
Nsg185
(lp6655
I25
aI30
asg187
Nsg188
g6653
sg189
(lp6656
sg191
g60
sg192
Nsg193
Nsg194
Nsbatp6657
.