((lp0
I0
aI14
aI35
aI48
aI66
aI83
aI98
aI120
aI143
aI158
aI164
aI193
aI200
aI219
aI240
aI271
aI284
aI301
aI318
aI343
aI357
aI376
aI391
aI407
aI417
aI431
aI439
aI459
aI485
aI504
aI524
aI542
aI564
aI575
aI593
aI602
aI629
aI651
aI661
aI672
aI688
aI704
aI720
aI736
aI744
aI763
aI789
aI800
aI819
aI839
aI854
aI866
aI889
aI898
aI911
aI933
aI946
aI966
aI993
aI1015
aI1028
aI1040
aI1065
aI1080
aI1102
aI1116
aI1139
aI1167
aI1186
aI1213
aI1225
aI1241
aI1252
aI1270
aI1275
aI1284
aI1292
aI1318
aI1330
aI1342
aI1357
aI1367
aI1388
aI1406
aI1444
aI1459
aI1471
aI1489
aI1504
aI1542
aI1557
aI1568
aI1586
aI1600
aI1610
aI1628
aI1651
aI1673
aI1694
aI1704
aI1717
aI1732
aI1750
aI1772
aI1792
aI1805
aI1825
aI1839
aI1860
aI1872
aI1880
aI1905
aI1918
aI1939
aI1956
aI1979
aI1996
aI2008
aI2033
aI2050
aI2071
aI2095
aI2111
aI2139
aI2161
aI2169
aI2188
aI2212
aI2240
aI2251
aI2270
aI2289
aI2312
aI2322
aI2338
aI2350
aI2370
aI2393
aI2417
aI2439
aI2458
aI2468
aI2483
aI2494
aI2516
aI2530
aI2555
aI2565
aI2578
aI2613
aI2632
aI2655
aI2684
aI2701
aI2717
aI2734
aI2750
aI2765
aI2775
aI2789
aI2808
aI2821
aI2839
aI2853
aI2871
aI2897
aI2905
aI2919
aI2937
aI2957
aI2972
aI2995
aI3013
aI3033
aI3042
aI3069
aI3083
aI3097
aI3111
aI3122
aI3154
aI3163
aI3189
aI3202
aI3240
aI3253
aI3273
aI3295
aI3304
aI3313
aI3328
aI3341
aI3359
aI3374
aI3386
aI3404
aI3422
aI3443
aI3458
aI3473
aI3481
aI3493
aI3510
aI3524
aI3541
aI3558
aI3572
aI3587
aI3604
aI3617
aI3652
aI3661
aI3671
aI3689
aI3717
aI3734
aI3756
aI3769
aI3792
aI3819
aI3831
aI3846
aI3855
aI3873
aI3901
aI3922
aI3945
aI3959
aI3967
aI3974
aI3983
aI3995
aI4013
aI4031
aI4047
aI4061
aI4086
aI4120
aI4139
aI4154
aI4179
aI4207
aI4217
aI4243
aI4254
aI4275
aI4292
aI4303
aI4321
aI4330
aI4358
aI4366
aI4395
aI4419
aI4431
aI4447
aI4455
aI4471
aI4483
aI4496
aI4510
aI4523
aI4548
aI4561
aI4583
aI4596
aI4615
aI4632
aI4652
aI4667
aI4690
aI4713
aI4735
aI4754
aI4763
aI4779
aI4804
aI4829
aI4840
aI4860
aI4882
aI4904
aI4922
aI4931
aI4947
aI4963
aI4989
aI5001
aI5011
aI5017
aI5023
aI5029
aI5035
aI5041
aI5047
aI5054
aI5060
aI5066
aI5072
aI5079
aI5085
aI5092
aI5101
aI5108
aI5124
aI5132
aI5153
aI5165
aI5179
aI5200
aI5211
aI5229
aI5244
aI5256
aI5267
aI5282
aI5298
aI5313
aI5319
aI5336
aI5347
aI5350
aI5356
aI5362
aI5394
aI5404
aI5417
aI5424
aI5441
aI5450
aI5471
aI5478
aI5489
aI5506
aI5521
aI5531
aI5545
aI5564
aI5575
aI5590
aI5610
aI5622
aI5650
aI5669
aI5682
aI5705
aI5735
aI5750
aI5779
aI5787
aI5805
aI5817
aI5831
aI5842
aI5859
aI5874
aI5888
aI5901
aI5928
aI5954
aI5973
aI5993
aI6011
aI6022
aI6040
aI6055
aI6065
aI6079
aI6090
aI6105
aI6125
aI6131
aI6144
aI6147
aI6150
aI6153
aI6159
aI6162
aI6167
aI6172
aI6175
aI6178
aI6181
aI6190
aI6194
aI6199
aI6203
aI6211
aI6215
aI6218
aI6221
aI6224
aI6233
aI6236
aI6239
aI6245
aI6248
aI6256
aI6269
aI6273
aI6278
aI6281
aI6288
aI6291
aI6296
aI6305
aI6309
aI6312
aI6318
aI6322
aI6329
aI6338
aI6343
aI6351
aI6370
aI6385
aI6394
aI6410
aI6415
aI6430
aI6444
aI6452
aI6467
aI6478
aI6494
aI6516
aI6539
aI6559
aI6587
aI6598
aI6611
aI6628
aI6638
aI6657
aI6669
aI6694
aI6707
aI6719
aI6741
aI6761
aI6782
aI6800
aI6822
aI6836
aI6846
aI6865
aI6880
aI6895
aI6911
aI6936
aI6961
aI6977
aI6992
aI7007
aI7029
aI7051
aI7080
aI7093
aI7117
aI7133
aI7141
aI7165
aI7177
aI7188
aI7193
aI7196
aI7205
aI7208
aI7211
aI7214
aI7230
aI7244
aI7251
aI7255
aI7258
aI7263
aI7270
aI7277
aI7294
aI7311
aI7322
aI7335
aI7349
aI7361
aI7371
aI7381
aI7389
aI7396
aI7401
aI7404
aI7407
aI7414
aI7429
aI7437
aI7444
aI7450
aI7458
aI7476
aI7483
aI7499
aI7506
aI7515
aI7523
aI7536
aI7554
aI7561
aI7564
aI7568
aI7580
aI7588
aI7595
aI7602
aI7605
aI7608
aI7611
aI7616
aI7623
aI7650
aI7659
aI7671
aI7690
aI7714
aI7719
aI7734
aI7747
aI7772
aI7794
aI7823
aI7840
aI7862
aI7887
aI7903
aI7919
aI7932
aI7952
aI7966
aI7983
aI7995
aI8010
aI8024
aI8036
aI8050
aI8059
aI8075
aI8083
aI8091
aI8110
aI8120
aI8130
aI8139
aI8151
aI8167
aI8178
aI8188
aI8199
aI8213
aI8221
aI8244
aI8254
aI8265
aI8275
aI8285
aI8307
aI8315
aI8331
aI8341
aI8351
aI8361
aI8376
aI8387
aI8400
aI8411
aI8422
aI8435
aI8455
aI8469
aI8477
aI8495
aI8511
aI8535
aI8565
aI8571
aI8593
aI8615
aI8646
aI8668
aI8694
aI8706
aI8726
aI8745
aI8762
aI8784
aI8800
aI8816
aI8847
aI8865
aI8878
aI8898
aI8917
aI8935
aI8958
aI8969
aI8994
aI9020
aI9041
aI9063
aI9094
aI9116
aI9140
aI9153
aI9168
aI9182
aI9200
aI9219
aI9235
aI9250
aI9268
aI9278
aI9292
aI9306
aI9313
aI9330
aI9361
aI9394
aI9426
aI9452
aI9468
aI9490
aI9510
aI9527
aI9541
aI9555
aI9578
aI9597
aI9610
aI9620
aI9640
aI9654
aI9674
aI9694
aI9729
aI9740
aI9770
aI9788
aI9808
aI9824
aI9833
aI9850
aI9864
aI9874
aI9885
aI9903
aI9930
aI9936
aI9948
aI9960
aI9984
aI10010
a(lp1
ccopy_reg
_reconstructor
p2
(csefaria.model.text
Ref
p3
c__builtin__
object
p4
Ntp5
Rp6
(dp7
S'index_node'
p8
g2
(csefaria.model.schema
JaggedArrayNode
p9
g4
Ntp10
Rp11
(dp12
S'_address'
p13
(lp14
VJoshua
p15
asS'_full_titles'
p16
(dp17
sVnodeType
p18
VJaggedArrayNode
p19
sS'parent'
p20
NsVaddressTypes
p21
(lp22
VInteger
p23
aVInteger
p24
asS'default'
p25
I00
sS'index'
p26
g2
(csefaria.model.text
Index
p27
g4
Ntp28
Rp29
(dp30
S'_id'
p31
g2
(cbson.objectid
ObjectId
p32
g4
Ntp33
Rp34
S'NJ\xb8l\xed\xba\xb4X3\x00\x00\x05'
p35
bsS'pkeys_orig_values'
p36
(dp37
S'title'
p38
VJoshua
p39
ssS'pubDate'
p40
V1488
p41
sS'compDate'
p42
V-900
p43
sS'pubPlace'
p44
VSoncino
p45
sS'compPlace'
p46
VCanaan
p47
sS'enDesc'
p48
VThe first of the four books making up the Neviim Rishonim (Early Prophets) - Joshua begins with a commandment to take possession of Canaan and a warning to Joshua to keep faith with the Covenant. Then the Israelites cross the Jordan through the miraculous intervention of God and the Ark of the Covenant and are circumcised. The conquest of Canaan begins with Jericho and Ai and renewal of the Berit (Covenant). The book continues with the conquest of the south of country before the narratives moves on to the northern campaign. Joshua defeats a multi-ethic coalition headed by the King of Hazor. The book shifts from the conquest of the land to its division between the tribes. The book concludes with Joshua charging the leaders of Israel to remain faithful to God and a warning of the consequences of not doing so.
p49
sS'order'
p50
(lp51
I6
aI1
asS'struct_objs'
p52
(dp53
sS'nodes'
p54
g11
sS'errorMargin'
p55
V400
p56
sS'_title'
p57
g39
sS'categories'
p58
(lp59
VTanakh
p60
aVProphets
p61
asS'schema'
p62
(dp63
g18
g19
sg21
g22
sVlengths
p64
(lp65
I24
aI658
asVdepth
p66
I2
sVtitles
p67
(lp68
(dp69
Vlang
p70
Ven
p71
sVtext
p72
VJos
p73
sa(dp74
Vlang
p75
Ven
p76
sVtext
p77
VYehoshua
p78
sa(dp79
Vlang
p80
Ven
p81
sVtext
p82
VJos.
p83
sa(dp84
Vlang
p85
Ven
p86
sVtext
p87
VJosh
p88
sa(dp89
Vlang
p90
Ven
p91
sVtext
p92
VJosh.
p93
sa(dp94
Vlang
p95
Vhe
p96
sVtext
p97
V\u05d9\u05d4\u05d5\u05e9\u05e2
p98
sVprimary
p99
I01
sa(dp100
Vlang
p101
Ven
p102
sVtext
p103
VJoshua
p104
sVprimary
p105
I01
sasVkey
p106
g15
sVsectionNames
p107
(lp108
VChapter
p109
aVVerse
p110
assbsS'_primary_title'
p111
(dp112
sS'title_group'
p113
g2
(csefaria.model.schema
TitleGroup
p114
g4
Ntp115
Rp116
(dp117
g111
(dp118
S'en'
p119
g104
ssS'titles'
p120
g68
sbsS'_addressTypes'
p121
(lp122
g2
(csefaria.model.schema
AddressInteger
p123
g4
Ntp124
Rp125
(dp126
S'length'
p127
I24
sg50
I0
sbag2
(g123
g4
Ntp128
Rp129
(dp130
g127
Nsg50
I1
sbasS'sharedTitle'
p131
Nsg64
g65
sg66
I2
sS'_full_title'
p132
(dp133
g119
g104
ssS'key'
p134
g15
sS'checkFirst'
p135
NsS'_regexes'
p136
(dp137
sS'_leaf_nodes'
p138
(lp139
sg107
g108
sS'children'
p140
(lp141
sbsS'_range_index'
p142
NsS'_context'
p143
(dp144
sS'_padded'
p145
Nsg26
g29
sS'sections'
p146
(lp147
I1
aI1
asS'_first_spanned_ref'
p148
NsS'tref'
p149
VJoshua 1:1
p150
sS'_spanned_refs'
p151
(lp152
sS'book'
p153
g104
sS'_range_depth'
p154
NsS'toSections'
p155
(lp156
I1
aI1
asS'_url'
p157
NsS'_normal'
p158
g150
sS'_ranged_refs'
p159
(lp160
sS'type'
p161
g60
sS'_prev'
p162
NsS'_he_normal'
p163
NsS'_next'
p164
Nsbag2
(g3
g4
Ntp165
Rp166
(dp167
g8
g11
sg142
Nsg143
(dp168
sg145
Nsg26
g29
sg146
(lp169
I1
aI2
asg148
Nsg149
VJoshua 1:2
p170
sg151
(lp171
sg153
g104
sg154
Nsg155
(lp172
I1
aI2
asg157
Nsg158
g170
sg159
(lp173
sg161
g60
sg162
Nsg163
Nsg164
Nsbag2
(g3
g4
Ntp174
Rp175
(dp176
g8
g11
sg142
Nsg143
(dp177
sg145
Nsg26
g29
sg146
(lp178
I1
aI3
asg148
Nsg149
VJoshua 1:3
p179
sg151
(lp180
sg153
g104
sg154
Nsg155
(lp181
I1
aI3
asg157
Nsg158
g179
sg159
(lp182
sg161
g60
sg162
Nsg163
Nsg164
Nsbag2
(g3
g4
Ntp183
Rp184
(dp185
g8
g11
sg142
Nsg143
(dp186
sg145
Nsg26
g29
sg146
(lp187
I1
aI4
asg148
Nsg149
VJoshua 1:4
p188
sg151
(lp189
sg153
g104
sg154
Nsg155
(lp190
I1
aI4
asg157
Nsg158
g188
sg159
(lp191
sg161
g60
sg162
Nsg163
Nsg164
Nsbag2
(g3
g4
Ntp192
Rp193
(dp194
g8
g11
sg142
Nsg143
(dp195
sg145
Nsg26
g29
sg146
(lp196
I1
aI5
asg148
Nsg149
VJoshua 1:5
p197
sg151
(lp198
sg153
g104
sg154
Nsg155
(lp199
I1
aI5
asg157
Nsg158
g197
sg159
(lp200
sg161
g60
sg162
Nsg163
Nsg164
Nsbag2
(g3
g4
Ntp201
Rp202
(dp203
g8
g11
sg142
Nsg143
(dp204
sg145
Nsg26
g29
sg146
(lp205
I1
aI6
asg148
Nsg149
VJoshua 1:6
p206
sg151
(lp207
sg153
g104
sg154
Nsg155
(lp208
I1
aI6
asg157
Nsg158
g206
sg159
(lp209
sg161
g60
sg162
Nsg163
Nsg164
Nsbag2
(g3
g4
Ntp210
Rp211
(dp212
g8
g11
sg142
Nsg143
(dp213
sg145
Nsg26
g29
sg146
(lp214
I1
aI7
asg148
Nsg149
VJoshua 1:7
p215
sg151
(lp216
sg153
g104
sg154
Nsg155
(lp217
I1
aI7
asg157
Nsg158
g215
sg159
(lp218
sg161
g60
sg162
Nsg163
Nsg164
Nsbag2
(g3
g4
Ntp219
Rp220
(dp221
g8
g11
sg142
Nsg143
(dp222
sg145
Nsg26
g29
sg146
(lp223
I1
aI8
asg148
Nsg149
VJoshua 1:8
p224
sg151
(lp225
sg153
g104
sg154
Nsg155
(lp226
I1
aI8
asg157
Nsg158
g224
sg159
(lp227
sg161
g60
sg162
Nsg163
Nsg164
Nsbag2
(g3
g4
Ntp228
Rp229
(dp230
g8
g11
sg142
Nsg143
(dp231
sg145
Nsg26
g29
sg146
(lp232
I1
aI9
asg148
Nsg149
VJoshua 1:9
p233
sg151
(lp234
sg153
g104
sg154
Nsg155
(lp235
I1
aI9
asg157
Nsg158
g233
sg159
(lp236
sg161
g60
sg162
Nsg163
Nsg164
Nsbag2
(g3
g4
Ntp237
Rp238
(dp239
g8
g11
sg142
Nsg143
(dp240
sg145
Nsg26
g29
sg146
(lp241
I1
aI10
asg148
Nsg149
VJoshua 1:10
p242
sg151
(lp243
sg153
g104
sg154
Nsg155
(lp244
I1
aI10
asg157
Nsg158
g242
sg159
(lp245
sg161
g60
sg162
Nsg163
Nsg164
Nsbag2
(g3
g4
Ntp246
Rp247
(dp248
g8
g11
sg142
Nsg143
(dp249
sg145
Nsg26
g29
sg146
(lp250
I1
aI11
asg148
Nsg149
VJoshua 1:11
p251
sg151
(lp252
sg153
g104
sg154
Nsg155
(lp253
I1
aI11
asg157
Nsg158
g251
sg159
(lp254
sg161
g60
sg162
Nsg163
Nsg164
Nsbag2
(g3
g4
Ntp255
Rp256
(dp257
g8
g11
sg142
Nsg143
(dp258
sg145
Nsg26
g29
sg146
(lp259
I1
aI12
asg148
Nsg149
VJoshua 1:12
p260
sg151
(lp261
sg153
g104
sg154
Nsg155
(lp262
I1
aI12
asg157
Nsg158
g260
sg159
(lp263
sg161
g60
sg162
Nsg163
Nsg164
Nsbag2
(g3
g4
Ntp264
Rp265
(dp266
g8
g11
sg142
Nsg143
(dp267
sg145
Nsg26
g29
sg146
(lp268
I1
aI13
asg148
Nsg149
VJoshua 1:13
p269
sg151
(lp270
sg153
g104
sg154
Nsg155
(lp271
I1
aI13
asg157
Nsg158
g269
sg159
(lp272
sg161
g60
sg162
Nsg163
Nsg164
Nsbag2
(g3
g4
Ntp273
Rp274
(dp275
g8
g11
sg142
Nsg143
(dp276
sg145
Nsg26
g29
sg146
(lp277
I1
aI14
asg148
Nsg149
VJoshua 1:14
p278
sg151
(lp279
sg153
g104
sg154
Nsg155
(lp280
I1
aI14
asg157
Nsg158
g278
sg159
(lp281
sg161
g60
sg162
Nsg163
Nsg164
Nsbag2
(g3
g4
Ntp282
Rp283
(dp284
g8
g11
sg142
Nsg143
(dp285
sg145
Nsg26
g29
sg146
(lp286
I1
aI15
asg148
Nsg149
VJoshua 1:15
p287
sg151
(lp288
sg153
g104
sg154
Nsg155
(lp289
I1
aI15
asg157
Nsg158
g287
sg159
(lp290
sg161
g60
sg162
Nsg163
Nsg164
Nsbag2
(g3
g4
Ntp291
Rp292
(dp293
g8
g11
sg142
Nsg143
(dp294
sg145
Nsg26
g29
sg146
(lp295
I1
aI16
asg148
Nsg149
VJoshua 1:16
p296
sg151
(lp297
sg153
g104
sg154
Nsg155
(lp298
I1
aI16
asg157
Nsg158
g296
sg159
(lp299
sg161
g60
sg162
Nsg163
Nsg164
Nsbag2
(g3
g4
Ntp300
Rp301
(dp302
g8
g11
sg142
Nsg143
(dp303
sg145
Nsg26
g29
sg146
(lp304
I1
aI17
asg148
Nsg149
VJoshua 1:17
p305
sg151
(lp306
sg153
g104
sg154
Nsg155
(lp307
I1
aI17
asg157
Nsg158
g305
sg159
(lp308
sg161
g60
sg162
Nsg163
Nsg164
Nsbag2
(g3
g4
Ntp309
Rp310
(dp311
g8
g11
sg142
Nsg143
(dp312
sg145
Nsg26
g29
sg146
(lp313
I1
aI18
asg148
Nsg149
VJoshua 1:18
p314
sg151
(lp315
sg153
g104
sg154
Nsg155
(lp316
I1
aI18
asg157
Nsg158
g314
sg159
(lp317
sg161
g60
sg162
Nsg163
Nsg164
Nsbag2
(g3
g4
Ntp318
Rp319
(dp320
g8
g11
sg142
Nsg143
(dp321
sg145
Nsg26
g29
sg146
(lp322
I2
aI1
asg148
Nsg149
VJoshua 2:1
p323
sg151
(lp324
sg153
g104
sg154
Nsg155
(lp325
I2
aI1
asg157
Nsg158
g323
sg159
(lp326
sg161
g60
sg162
Nsg163
Nsg164
Nsbag2
(g3
g4
Ntp327
Rp328
(dp329
g8
g11
sg142
Nsg143
(dp330
sg145
Nsg26
g29
sg146
(lp331
I2
aI2
asg148
Nsg149
VJoshua 2:2
p332
sg151
(lp333
sg153
g104
sg154
Nsg155
(lp334
I2
aI2
asg157
Nsg158
g332
sg159
(lp335
sg161
g60
sg162
Nsg163
Nsg164
Nsbag2
(g3
g4
Ntp336
Rp337
(dp338
g8
g11
sg142
Nsg143
(dp339
sg145
Nsg26
g29
sg146
(lp340
I2
aI3
asg148
Nsg149
VJoshua 2:3
p341
sg151
(lp342
sg153
g104
sg154
Nsg155
(lp343
I2
aI3
asg157
Nsg158
g341
sg159
(lp344
sg161
g60
sg162
Nsg163
Nsg164
Nsbag2
(g3
g4
Ntp345
Rp346
(dp347
g8
g11
sg142
Nsg143
(dp348
sg145
Nsg26
g29
sg146
(lp349
I2
aI4
asg148
Nsg149
VJoshua 2:4
p350
sg151
(lp351
sg153
g104
sg154
Nsg155
(lp352
I2
aI4
asg157
Nsg158
g350
sg159
(lp353
sg161
g60
sg162
Nsg163
Nsg164
Nsbag2
(g3
g4
Ntp354
Rp355
(dp356
g8
g11
sg142
Nsg143
(dp357
sg145
Nsg26
g29
sg146
(lp358
I2
aI5
asg148
Nsg149
VJoshua 2:5
p359
sg151
(lp360
sg153
g104
sg154
Nsg155
(lp361
I2
aI5
asg157
Nsg158
g359
sg159
(lp362
sg161
g60
sg162
Nsg163
Nsg164
Nsbag2
(g3
g4
Ntp363
Rp364
(dp365
g8
g11
sg142
Nsg143
(dp366
sg145
Nsg26
g29
sg146
(lp367
I2
aI6
asg148
Nsg149
VJoshua 2:6
p368
sg151
(lp369
sg153
g104
sg154
Nsg155
(lp370
I2
aI6
asg157
Nsg158
g368
sg159
(lp371
sg161
g60
sg162
Nsg163
Nsg164
Nsbag2
(g3
g4
Ntp372
Rp373
(dp374
g8
g11
sg142
Nsg143
(dp375
sg145
Nsg26
g29
sg146
(lp376
I2
aI7
asg148
Nsg149
VJoshua 2:7
p377
sg151
(lp378
sg153
g104
sg154
Nsg155
(lp379
I2
aI7
asg157
Nsg158
g377
sg159
(lp380
sg161
g60
sg162
Nsg163
Nsg164
Nsbag2
(g3
g4
Ntp381
Rp382
(dp383
g8
g11
sg142
Nsg143
(dp384
sg145
Nsg26
g29
sg146
(lp385
I2
aI8
asg148
Nsg149
VJoshua 2:8
p386
sg151
(lp387
sg153
g104
sg154
Nsg155
(lp388
I2
aI8
asg157
Nsg158
g386
sg159
(lp389
sg161
g60
sg162
Nsg163
Nsg164
Nsbag2
(g3
g4
Ntp390
Rp391
(dp392
g8
g11
sg142
Nsg143
(dp393
sg145
Nsg26
g29
sg146
(lp394
I2
aI9
asg148
Nsg149
VJoshua 2:9
p395
sg151
(lp396
sg153
g104
sg154
Nsg155
(lp397
I2
aI9
asg157
Nsg158
g395
sg159
(lp398
sg161
g60
sg162
Nsg163
Nsg164
Nsbag2
(g3
g4
Ntp399
Rp400
(dp401
g8
g11
sg142
Nsg143
(dp402
sg145
Nsg26
g29
sg146
(lp403
I2
aI10
asg148
Nsg149
VJoshua 2:10
p404
sg151
(lp405
sg153
g104
sg154
Nsg155
(lp406
I2
aI10
asg157
Nsg158
g404
sg159
(lp407
sg161
g60
sg162
Nsg163
Nsg164
Nsbag2
(g3
g4
Ntp408
Rp409
(dp410
g8
g11
sg142
Nsg143
(dp411
sg145
Nsg26
g29
sg146
(lp412
I2
aI11
asg148
Nsg149
VJoshua 2:11
p413
sg151
(lp414
sg153
g104
sg154
Nsg155
(lp415
I2
aI11
asg157
Nsg158
g413
sg159
(lp416
sg161
g60
sg162
Nsg163
Nsg164
Nsbag2
(g3
g4
Ntp417
Rp418
(dp419
g8
g11
sg142
Nsg143
(dp420
sg145
Nsg26
g29
sg146
(lp421
I2
aI12
asg148
Nsg149
VJoshua 2:12
p422
sg151
(lp423
sg153
g104
sg154
Nsg155
(lp424
I2
aI12
asg157
Nsg158
g422
sg159
(lp425
sg161
g60
sg162
Nsg163
Nsg164
Nsbag2
(g3
g4
Ntp426
Rp427
(dp428
g8
g11
sg142
Nsg143
(dp429
sg145
Nsg26
g29
sg146
(lp430
I2
aI13
asg148
Nsg149
VJoshua 2:13
p431
sg151
(lp432
sg153
g104
sg154
Nsg155
(lp433
I2
aI13
asg157
Nsg158
g431
sg159
(lp434
sg161
g60
sg162
Nsg163
Nsg164
Nsbag2
(g3
g4
Ntp435
Rp436
(dp437
g8
g11
sg142
Nsg143
(dp438
sg145
Nsg26
g29
sg146
(lp439
I2
aI14
asg148
Nsg149
VJoshua 2:14
p440
sg151
(lp441
sg153
g104
sg154
Nsg155
(lp442
I2
aI14
asg157
Nsg158
g440
sg159
(lp443
sg161
g60
sg162
Nsg163
Nsg164
Nsbag2
(g3
g4
Ntp444
Rp445
(dp446
g8
g11
sg142
Nsg143
(dp447
sg145
Nsg26
g29
sg146
(lp448
I2
aI15
asg148
Nsg149
VJoshua 2:15
p449
sg151
(lp450
sg153
g104
sg154
Nsg155
(lp451
I2
aI15
asg157
Nsg158
g449
sg159
(lp452
sg161
g60
sg162
Nsg163
Nsg164
Nsbag2
(g3
g4
Ntp453
Rp454
(dp455
g8
g11
sg142
Nsg143
(dp456
sg145
Nsg26
g29
sg146
(lp457
I2
aI16
asg148
Nsg149
VJoshua 2:16
p458
sg151
(lp459
sg153
g104
sg154
Nsg155
(lp460
I2
aI16
asg157
Nsg158
g458
sg159
(lp461
sg161
g60
sg162
Nsg163
Nsg164
Nsbag2
(g3
g4
Ntp462
Rp463
(dp464
g8
g11
sg142
Nsg143
(dp465
sg145
Nsg26
g29
sg146
(lp466
I2
aI17
asg148
Nsg149
VJoshua 2:17
p467
sg151
(lp468
sg153
g104
sg154
Nsg155
(lp469
I2
aI17
asg157
Nsg158
g467
sg159
(lp470
sg161
g60
sg162
Nsg163
Nsg164
Nsbag2
(g3
g4
Ntp471
Rp472
(dp473
g8
g11
sg142
Nsg143
(dp474
sg145
Nsg26
g29
sg146
(lp475
I2
aI18
asg148
Nsg149
VJoshua 2:18
p476
sg151
(lp477
sg153
g104
sg154
Nsg155
(lp478
I2
aI18
asg157
Nsg158
g476
sg159
(lp479
sg161
g60
sg162
Nsg163
Nsg164
Nsbag2
(g3
g4
Ntp480
Rp481
(dp482
g8
g11
sg142
Nsg143
(dp483
sg145
Nsg26
g29
sg146
(lp484
I2
aI19
asg148
Nsg149
VJoshua 2:19
p485
sg151
(lp486
sg153
g104
sg154
Nsg155
(lp487
I2
aI19
asg157
Nsg158
g485
sg159
(lp488
sg161
g60
sg162
Nsg163
Nsg164
Nsbag2
(g3
g4
Ntp489
Rp490
(dp491
g8
g11
sg142
Nsg143
(dp492
sg145
Nsg26
g29
sg146
(lp493
I2
aI20
asg148
Nsg149
VJoshua 2:20
p494
sg151
(lp495
sg153
g104
sg154
Nsg155
(lp496
I2
aI20
asg157
Nsg158
g494
sg159
(lp497
sg161
g60
sg162
Nsg163
Nsg164
Nsbag2
(g3
g4
Ntp498
Rp499
(dp500
g8
g11
sg142
Nsg143
(dp501
sg145
Nsg26
g29
sg146
(lp502
I2
aI21
asg148
Nsg149
VJoshua 2:21
p503
sg151
(lp504
sg153
g104
sg154
Nsg155
(lp505
I2
aI21
asg157
Nsg158
g503
sg159
(lp506
sg161
g60
sg162
Nsg163
Nsg164
Nsbag2
(g3
g4
Ntp507
Rp508
(dp509
g8
g11
sg142
Nsg143
(dp510
sg145
Nsg26
g29
sg146
(lp511
I2
aI22
asg148
Nsg149
VJoshua 2:22
p512
sg151
(lp513
sg153
g104
sg154
Nsg155
(lp514
I2
aI22
asg157
Nsg158
g512
sg159
(lp515
sg161
g60
sg162
Nsg163
Nsg164
Nsbag2
(g3
g4
Ntp516
Rp517
(dp518
g8
g11
sg142
Nsg143
(dp519
sg145
Nsg26
g29
sg146
(lp520
I2
aI23
asg148
Nsg149
VJoshua 2:23
p521
sg151
(lp522
sg153
g104
sg154
Nsg155
(lp523
I2
aI23
asg157
Nsg158
g521
sg159
(lp524
sg161
g60
sg162
Nsg163
Nsg164
Nsbag2
(g3
g4
Ntp525
Rp526
(dp527
g8
g11
sg142
Nsg143
(dp528
sg145
Nsg26
g29
sg146
(lp529
I2
aI24
asg148
Nsg149
VJoshua 2:24
p530
sg151
(lp531
sg153
g104
sg154
Nsg155
(lp532
I2
aI24
asg157
Nsg158
g530
sg159
(lp533
sg161
g60
sg162
Nsg163
Nsg164
Nsbag2
(g3
g4
Ntp534
Rp535
(dp536
g8
g11
sg142
Nsg143
(dp537
sg145
Nsg26
g29
sg146
(lp538
I3
aI1
asg148
Nsg149
VJoshua 3:1
p539
sg151
(lp540
sg153
g104
sg154
Nsg155
(lp541
I3
aI1
asg157
Nsg158
g539
sg159
(lp542
sg161
g60
sg162
Nsg163
Nsg164
Nsbag2
(g3
g4
Ntp543
Rp544
(dp545
g8
g11
sg142
Nsg143
(dp546
sg145
Nsg26
g29
sg146
(lp547
I3
aI2
asg148
Nsg149
VJoshua 3:2
p548
sg151
(lp549
sg153
g104
sg154
Nsg155
(lp550
I3
aI2
asg157
Nsg158
g548
sg159
(lp551
sg161
g60
sg162
Nsg163
Nsg164
Nsbag2
(g3
g4
Ntp552
Rp553
(dp554
g8
g11
sg142
Nsg143
(dp555
sg145
Nsg26
g29
sg146
(lp556
I3
aI3
asg148
Nsg149
VJoshua 3:3
p557
sg151
(lp558
sg153
g104
sg154
Nsg155
(lp559
I3
aI3
asg157
Nsg158
g557
sg159
(lp560
sg161
g60
sg162
Nsg163
Nsg164
Nsbag2
(g3
g4
Ntp561
Rp562
(dp563
g8
g11
sg142
Nsg143
(dp564
sg145
Nsg26
g29
sg146
(lp565
I3
aI4
asg148
Nsg149
VJoshua 3:4
p566
sg151
(lp567
sg153
g104
sg154
Nsg155
(lp568
I3
aI4
asg157
Nsg158
g566
sg159
(lp569
sg161
g60
sg162
Nsg163
Nsg164
Nsbag2
(g3
g4
Ntp570
Rp571
(dp572
g8
g11
sg142
Nsg143
(dp573
sg145
Nsg26
g29
sg146
(lp574
I3
aI5
asg148
Nsg149
VJoshua 3:5
p575
sg151
(lp576
sg153
g104
sg154
Nsg155
(lp577
I3
aI5
asg157
Nsg158
g575
sg159
(lp578
sg161
g60
sg162
Nsg163
Nsg164
Nsbag2
(g3
g4
Ntp579
Rp580
(dp581
g8
g11
sg142
Nsg143
(dp582
sg145
Nsg26
g29
sg146
(lp583
I3
aI6
asg148
Nsg149
VJoshua 3:6
p584
sg151
(lp585
sg153
g104
sg154
Nsg155
(lp586
I3
aI6
asg157
Nsg158
g584
sg159
(lp587
sg161
g60
sg162
Nsg163
Nsg164
Nsbag2
(g3
g4
Ntp588
Rp589
(dp590
g8
g11
sg142
Nsg143
(dp591
sg145
Nsg26
g29
sg146
(lp592
I3
aI7
asg148
Nsg149
VJoshua 3:7
p593
sg151
(lp594
sg153
g104
sg154
Nsg155
(lp595
I3
aI7
asg157
Nsg158
g593
sg159
(lp596
sg161
g60
sg162
Nsg163
Nsg164
Nsbag2
(g3
g4
Ntp597
Rp598
(dp599
g8
g11
sg142
Nsg143
(dp600
sg145
Nsg26
g29
sg146
(lp601
I3
aI8
asg148
Nsg149
VJoshua 3:8
p602
sg151
(lp603
sg153
g104
sg154
Nsg155
(lp604
I3
aI8
asg157
Nsg158
g602
sg159
(lp605
sg161
g60
sg162
Nsg163
Nsg164
Nsbag2
(g3
g4
Ntp606
Rp607
(dp608
g8
g11
sg142
Nsg143
(dp609
sg145
Nsg26
g29
sg146
(lp610
I3
aI9
asg148
Nsg149
VJoshua 3:9
p611
sg151
(lp612
sg153
g104
sg154
Nsg155
(lp613
I3
aI9
asg157
Nsg158
g611
sg159
(lp614
sg161
g60
sg162
Nsg163
Nsg164
Nsbag2
(g3
g4
Ntp615
Rp616
(dp617
g8
g11
sg142
Nsg143
(dp618
sg145
Nsg26
g29
sg146
(lp619
I3
aI10
asg148
Nsg149
VJoshua 3:10
p620
sg151
(lp621
sg153
g104
sg154
Nsg155
(lp622
I3
aI10
asg157
Nsg158
g620
sg159
(lp623
sg161
g60
sg162
Nsg163
Nsg164
Nsbag2
(g3
g4
Ntp624
Rp625
(dp626
g8
g11
sg142
Nsg143
(dp627
sg145
Nsg26
g29
sg146
(lp628
I3
aI11
asg148
Nsg149
VJoshua 3:11
p629
sg151
(lp630
sg153
g104
sg154
Nsg155
(lp631
I3
aI11
asg157
Nsg158
g629
sg159
(lp632
sg161
g60
sg162
Nsg163
Nsg164
Nsbag2
(g3
g4
Ntp633
Rp634
(dp635
g8
g11
sg142
Nsg143
(dp636
sg145
Nsg26
g29
sg146
(lp637
I3
aI12
asg148
Nsg149
VJoshua 3:12
p638
sg151
(lp639
sg153
g104
sg154
Nsg155
(lp640
I3
aI12
asg157
Nsg158
g638
sg159
(lp641
sg161
g60
sg162
Nsg163
Nsg164
Nsbag2
(g3
g4
Ntp642
Rp643
(dp644
g8
g11
sg142
Nsg143
(dp645
sg145
Nsg26
g29
sg146
(lp646
I3
aI13
asg148
Nsg149
VJoshua 3:13
p647
sg151
(lp648
sg153
g104
sg154
Nsg155
(lp649
I3
aI13
asg157
Nsg158
g647
sg159
(lp650
sg161
g60
sg162
Nsg163
Nsg164
Nsbag2
(g3
g4
Ntp651
Rp652
(dp653
g8
g11
sg142
Nsg143
(dp654
sg145
Nsg26
g29
sg146
(lp655
I3
aI14
asg148
Nsg149
VJoshua 3:14
p656
sg151
(lp657
sg153
g104
sg154
Nsg155
(lp658
I3
aI14
asg157
Nsg158
g656
sg159
(lp659
sg161
g60
sg162
Nsg163
Nsg164
Nsbag2
(g3
g4
Ntp660
Rp661
(dp662
g8
g11
sg142
Nsg143
(dp663
sg145
Nsg26
g29
sg146
(lp664
I3
aI15
asg148
Nsg149
VJoshua 3:15
p665
sg151
(lp666
sg153
g104
sg154
Nsg155
(lp667
I3
aI15
asg157
Nsg158
g665
sg159
(lp668
sg161
g60
sg162
Nsg163
Nsg164
Nsbag2
(g3
g4
Ntp669
Rp670
(dp671
g8
g11
sg142
Nsg143
(dp672
sg145
Nsg26
g29
sg146
(lp673
I3
aI16
asg148
Nsg149
VJoshua 3:16
p674
sg151
(lp675
sg153
g104
sg154
Nsg155
(lp676
I3
aI16
asg157
Nsg158
g674
sg159
(lp677
sg161
g60
sg162
Nsg163
Nsg164
Nsbag2
(g3
g4
Ntp678
Rp679
(dp680
g8
g11
sg142
Nsg143
(dp681
sg145
Nsg26
g29
sg146
(lp682
I3
aI17
asg148
Nsg149
VJoshua 3:17
p683
sg151
(lp684
sg153
g104
sg154
Nsg155
(lp685
I3
aI17
asg157
Nsg158
g683
sg159
(lp686
sg161
g60
sg162
Nsg163
Nsg164
Nsbag2
(g3
g4
Ntp687
Rp688
(dp689
g8
g11
sg142
Nsg143
(dp690
sg145
Nsg26
g29
sg146
(lp691
I4
aI1
asg148
Nsg149
VJoshua 4:1
p692
sg151
(lp693
sg153
g104
sg154
Nsg155
(lp694
I4
aI1
asg157
Nsg158
g692
sg159
(lp695
sg161
g60
sg162
Nsg163
Nsg164
Nsbag2
(g3
g4
Ntp696
Rp697
(dp698
g8
g11
sg142
Nsg143
(dp699
sg145
Nsg26
g29
sg146
(lp700
I4
aI2
asg148
Nsg149
VJoshua 4:2
p701
sg151
(lp702
sg153
g104
sg154
Nsg155
(lp703
I4
aI2
asg157
Nsg158
g701
sg159
(lp704
sg161
g60
sg162
Nsg163
Nsg164
Nsbag2
(g3
g4
Ntp705
Rp706
(dp707
g8
g11
sg142
Nsg143
(dp708
sg145
Nsg26
g29
sg146
(lp709
I4
aI3
asg148
Nsg149
VJoshua 4:3
p710
sg151
(lp711
sg153
g104
sg154
Nsg155
(lp712
I4
aI3
asg157
Nsg158
g710
sg159
(lp713
sg161
g60
sg162
Nsg163
Nsg164
Nsbag2
(g3
g4
Ntp714
Rp715
(dp716
g8
g11
sg142
Nsg143
(dp717
sg145
Nsg26
g29
sg146
(lp718
I4
aI4
asg148
Nsg149
VJoshua 4:4
p719
sg151
(lp720
sg153
g104
sg154
Nsg155
(lp721
I4
aI4
asg157
Nsg158
g719
sg159
(lp722
sg161
g60
sg162
Nsg163
Nsg164
Nsbag2
(g3
g4
Ntp723
Rp724
(dp725
g8
g11
sg142
Nsg143
(dp726
sg145
Nsg26
g29
sg146
(lp727
I4
aI5
asg148
Nsg149
VJoshua 4:5
p728
sg151
(lp729
sg153
g104
sg154
Nsg155
(lp730
I4
aI5
asg157
Nsg158
g728
sg159
(lp731
sg161
g60
sg162
Nsg163
Nsg164
Nsbag2
(g3
g4
Ntp732
Rp733
(dp734
g8
g11
sg142
Nsg143
(dp735
sg145
Nsg26
g29
sg146
(lp736
I4
aI6
asg148
Nsg149
VJoshua 4:6
p737
sg151
(lp738
sg153
g104
sg154
Nsg155
(lp739
I4
aI6
asg157
Nsg158
g737
sg159
(lp740
sg161
g60
sg162
Nsg163
Nsg164
Nsbag2
(g3
g4
Ntp741
Rp742
(dp743
g8
g11
sg142
Nsg143
(dp744
sg145
Nsg26
g29
sg146
(lp745
I4
aI7
asg148
Nsg149
VJoshua 4:7
p746
sg151
(lp747
sg153
g104
sg154
Nsg155
(lp748
I4
aI7
asg157
Nsg158
g746
sg159
(lp749
sg161
g60
sg162
Nsg163
Nsg164
Nsbag2
(g3
g4
Ntp750
Rp751
(dp752
g8
g11
sg142
Nsg143
(dp753
sg145
Nsg26
g29
sg146
(lp754
I4
aI8
asg148
Nsg149
VJoshua 4:8
p755
sg151
(lp756
sg153
g104
sg154
Nsg155
(lp757
I4
aI8
asg157
Nsg158
g755
sg159
(lp758
sg161
g60
sg162
Nsg163
Nsg164
Nsbag2
(g3
g4
Ntp759
Rp760
(dp761
g8
g11
sg142
Nsg143
(dp762
sg145
Nsg26
g29
sg146
(lp763
I4
aI9
asg148
Nsg149
VJoshua 4:9
p764
sg151
(lp765
sg153
g104
sg154
Nsg155
(lp766
I4
aI9
asg157
Nsg158
g764
sg159
(lp767
sg161
g60
sg162
Nsg163
Nsg164
Nsbag2
(g3
g4
Ntp768
Rp769
(dp770
g8
g11
sg142
Nsg143
(dp771
sg145
Nsg26
g29
sg146
(lp772
I4
aI10
asg148
Nsg149
VJoshua 4:10
p773
sg151
(lp774
sg153
g104
sg154
Nsg155
(lp775
I4
aI10
asg157
Nsg158
g773
sg159
(lp776
sg161
g60
sg162
Nsg163
Nsg164
Nsbag2
(g3
g4
Ntp777
Rp778
(dp779
g8
g11
sg142
Nsg143
(dp780
sg145
Nsg26
g29
sg146
(lp781
I4
aI11
asg148
Nsg149
VJoshua 4:11
p782
sg151
(lp783
sg153
g104
sg154
Nsg155
(lp784
I4
aI11
asg157
Nsg158
g782
sg159
(lp785
sg161
g60
sg162
Nsg163
Nsg164
Nsbag2
(g3
g4
Ntp786
Rp787
(dp788
g8
g11
sg142
Nsg143
(dp789
sg145
Nsg26
g29
sg146
(lp790
I4
aI12
asg148
Nsg149
VJoshua 4:12
p791
sg151
(lp792
sg153
g104
sg154
Nsg155
(lp793
I4
aI12
asg157
Nsg158
g791
sg159
(lp794
sg161
g60
sg162
Nsg163
Nsg164
Nsbag2
(g3
g4
Ntp795
Rp796
(dp797
g8
g11
sg142
Nsg143
(dp798
sg145
Nsg26
g29
sg146
(lp799
I4
aI13
asg148
Nsg149
VJoshua 4:13
p800
sg151
(lp801
sg153
g104
sg154
Nsg155
(lp802
I4
aI13
asg157
Nsg158
g800
sg159
(lp803
sg161
g60
sg162
Nsg163
Nsg164
Nsbag2
(g3
g4
Ntp804
Rp805
(dp806
g8
g11
sg142
Nsg143
(dp807
sg145
Nsg26
g29
sg146
(lp808
I4
aI14
asg148
Nsg149
VJoshua 4:14
p809
sg151
(lp810
sg153
g104
sg154
Nsg155
(lp811
I4
aI14
asg157
Nsg158
g809
sg159
(lp812
sg161
g60
sg162
Nsg163
Nsg164
Nsbag2
(g3
g4
Ntp813
Rp814
(dp815
g8
g11
sg142
Nsg143
(dp816
sg145
Nsg26
g29
sg146
(lp817
I4
aI15
asg148
Nsg149
VJoshua 4:15
p818
sg151
(lp819
sg153
g104
sg154
Nsg155
(lp820
I4
aI15
asg157
Nsg158
g818
sg159
(lp821
sg161
g60
sg162
Nsg163
Nsg164
Nsbag2
(g3
g4
Ntp822
Rp823
(dp824
g8
g11
sg142
Nsg143
(dp825
sg145
Nsg26
g29
sg146
(lp826
I4
aI16
asg148
Nsg149
VJoshua 4:16
p827
sg151
(lp828
sg153
g104
sg154
Nsg155
(lp829
I4
aI16
asg157
Nsg158
g827
sg159
(lp830
sg161
g60
sg162
Nsg163
Nsg164
Nsbag2
(g3
g4
Ntp831
Rp832
(dp833
g8
g11
sg142
Nsg143
(dp834
sg145
Nsg26
g29
sg146
(lp835
I4
aI17
asg148
Nsg149
VJoshua 4:17
p836
sg151
(lp837
sg153
g104
sg154
Nsg155
(lp838
I4
aI17
asg157
Nsg158
g836
sg159
(lp839
sg161
g60
sg162
Nsg163
Nsg164
Nsbag2
(g3
g4
Ntp840
Rp841
(dp842
g8
g11
sg142
Nsg143
(dp843
sg145
Nsg26
g29
sg146
(lp844
I4
aI18
asg148
Nsg149
VJoshua 4:18
p845
sg151
(lp846
sg153
g104
sg154
Nsg155
(lp847
I4
aI18
asg157
Nsg158
g845
sg159
(lp848
sg161
g60
sg162
Nsg163
Nsg164
Nsbag2
(g3
g4
Ntp849
Rp850
(dp851
g8
g11
sg142
Nsg143
(dp852
sg145
Nsg26
g29
sg146
(lp853
I4
aI19
asg148
Nsg149
VJoshua 4:19
p854
sg151
(lp855
sg153
g104
sg154
Nsg155
(lp856
I4
aI19
asg157
Nsg158
g854
sg159
(lp857
sg161
g60
sg162
Nsg163
Nsg164
Nsbag2
(g3
g4
Ntp858
Rp859
(dp860
g8
g11
sg142
Nsg143
(dp861
sg145
Nsg26
g29
sg146
(lp862
I4
aI20
asg148
Nsg149
VJoshua 4:20
p863
sg151
(lp864
sg153
g104
sg154
Nsg155
(lp865
I4
aI20
asg157
Nsg158
g863
sg159
(lp866
sg161
g60
sg162
Nsg163
Nsg164
Nsbag2
(g3
g4
Ntp867
Rp868
(dp869
g8
g11
sg142
Nsg143
(dp870
sg145
Nsg26
g29
sg146
(lp871
I4
aI21
asg148
Nsg149
VJoshua 4:21
p872
sg151
(lp873
sg153
g104
sg154
Nsg155
(lp874
I4
aI21
asg157
Nsg158
g872
sg159
(lp875
sg161
g60
sg162
Nsg163
Nsg164
Nsbag2
(g3
g4
Ntp876
Rp877
(dp878
g8
g11
sg142
Nsg143
(dp879
sg145
Nsg26
g29
sg146
(lp880
I4
aI22
asg148
Nsg149
VJoshua 4:22
p881
sg151
(lp882
sg153
g104
sg154
Nsg155
(lp883
I4
aI22
asg157
Nsg158
g881
sg159
(lp884
sg161
g60
sg162
Nsg163
Nsg164
Nsbag2
(g3
g4
Ntp885
Rp886
(dp887
g8
g11
sg142
Nsg143
(dp888
sg145
Nsg26
g29
sg146
(lp889
I4
aI23
asg148
Nsg149
VJoshua 4:23
p890
sg151
(lp891
sg153
g104
sg154
Nsg155
(lp892
I4
aI23
asg157
Nsg158
g890
sg159
(lp893
sg161
g60
sg162
Nsg163
Nsg164
Nsbag2
(g3
g4
Ntp894
Rp895
(dp896
g8
g11
sg142
Nsg143
(dp897
sg145
Nsg26
g29
sg146
(lp898
I4
aI24
asg148
Nsg149
VJoshua 4:24
p899
sg151
(lp900
sg153
g104
sg154
Nsg155
(lp901
I4
aI24
asg157
Nsg158
g899
sg159
(lp902
sg161
g60
sg162
Nsg163
Nsg164
Nsbag2
(g3
g4
Ntp903
Rp904
(dp905
g8
g11
sg142
Nsg143
(dp906
sg145
Nsg26
g29
sg146
(lp907
I5
aI1
asg148
Nsg149
VJoshua 5:1
p908
sg151
(lp909
sg153
g104
sg154
Nsg155
(lp910
I5
aI1
asg157
Nsg158
g908
sg159
(lp911
sg161
g60
sg162
Nsg163
Nsg164
Nsbag2
(g3
g4
Ntp912
Rp913
(dp914
g8
g11
sg142
Nsg143
(dp915
sg145
Nsg26
g29
sg146
(lp916
I5
aI2
asg148
Nsg149
VJoshua 5:2
p917
sg151
(lp918
sg153
g104
sg154
Nsg155
(lp919
I5
aI2
asg157
Nsg158
g917
sg159
(lp920
sg161
g60
sg162
Nsg163
Nsg164
Nsbag2
(g3
g4
Ntp921
Rp922
(dp923
g8
g11
sg142
Nsg143
(dp924
sg145
Nsg26
g29
sg146
(lp925
I5
aI3
asg148
Nsg149
VJoshua 5:3
p926
sg151
(lp927
sg153
g104
sg154
Nsg155
(lp928
I5
aI3
asg157
Nsg158
g926
sg159
(lp929
sg161
g60
sg162
Nsg163
Nsg164
Nsbag2
(g3
g4
Ntp930
Rp931
(dp932
g8
g11
sg142
Nsg143
(dp933
sg145
Nsg26
g29
sg146
(lp934
I5
aI4
asg148
Nsg149
VJoshua 5:4
p935
sg151
(lp936
sg153
g104
sg154
Nsg155
(lp937
I5
aI4
asg157
Nsg158
g935
sg159
(lp938
sg161
g60
sg162
Nsg163
Nsg164
Nsbag2
(g3
g4
Ntp939
Rp940
(dp941
g8
g11
sg142
Nsg143
(dp942
sg145
Nsg26
g29
sg146
(lp943
I5
aI5
asg148
Nsg149
VJoshua 5:5
p944
sg151
(lp945
sg153
g104
sg154
Nsg155
(lp946
I5
aI5
asg157
Nsg158
g944
sg159
(lp947
sg161
g60
sg162
Nsg163
Nsg164
Nsbag2
(g3
g4
Ntp948
Rp949
(dp950
g8
g11
sg142
Nsg143
(dp951
sg145
Nsg26
g29
sg146
(lp952
I5
aI6
asg148
Nsg149
VJoshua 5:6
p953
sg151
(lp954
sg153
g104
sg154
Nsg155
(lp955
I5
aI6
asg157
Nsg158
g953
sg159
(lp956
sg161
g60
sg162
Nsg163
Nsg164
Nsbag2
(g3
g4
Ntp957
Rp958
(dp959
g8
g11
sg142
Nsg143
(dp960
sg145
Nsg26
g29
sg146
(lp961
I5
aI7
asg148
Nsg149
VJoshua 5:7
p962
sg151
(lp963
sg153
g104
sg154
Nsg155
(lp964
I5
aI7
asg157
Nsg158
g962
sg159
(lp965
sg161
g60
sg162
Nsg163
Nsg164
Nsbag2
(g3
g4
Ntp966
Rp967
(dp968
g8
g11
sg142
Nsg143
(dp969
sg145
Nsg26
g29
sg146
(lp970
I5
aI8
asg148
Nsg149
VJoshua 5:8
p971
sg151
(lp972
sg153
g104
sg154
Nsg155
(lp973
I5
aI8
asg157
Nsg158
g971
sg159
(lp974
sg161
g60
sg162
Nsg163
Nsg164
Nsbag2
(g3
g4
Ntp975
Rp976
(dp977
g8
g11
sg142
Nsg143
(dp978
sg145
Nsg26
g29
sg146
(lp979
I5
aI9
asg148
Nsg149
VJoshua 5:9
p980
sg151
(lp981
sg153
g104
sg154
Nsg155
(lp982
I5
aI9
asg157
Nsg158
g980
sg159
(lp983
sg161
g60
sg162
Nsg163
Nsg164
Nsbag2
(g3
g4
Ntp984
Rp985
(dp986
g8
g11
sg142
Nsg143
(dp987
sg145
Nsg26
g29
sg146
(lp988
I5
aI10
asg148
Nsg149
VJoshua 5:10
p989
sg151
(lp990
sg153
g104
sg154
Nsg155
(lp991
I5
aI10
asg157
Nsg158
g989
sg159
(lp992
sg161
g60
sg162
Nsg163
Nsg164
Nsbag2
(g3
g4
Ntp993
Rp994
(dp995
g8
g11
sg142
Nsg143
(dp996
sg145
Nsg26
g29
sg146
(lp997
I5
aI11
asg148
Nsg149
VJoshua 5:11
p998
sg151
(lp999
sg153
g104
sg154
Nsg155
(lp1000
I5
aI11
asg157
Nsg158
g998
sg159
(lp1001
sg161
g60
sg162
Nsg163
Nsg164
Nsbag2
(g3
g4
Ntp1002
Rp1003
(dp1004
g8
g11
sg142
Nsg143
(dp1005
sg145
Nsg26
g29
sg146
(lp1006
I5
aI12
asg148
Nsg149
VJoshua 5:12
p1007
sg151
(lp1008
sg153
g104
sg154
Nsg155
(lp1009
I5
aI12
asg157
Nsg158
g1007
sg159
(lp1010
sg161
g60
sg162
Nsg163
Nsg164
Nsbag2
(g3
g4
Ntp1011
Rp1012
(dp1013
g8
g11
sg142
Nsg143
(dp1014
sg145
Nsg26
g29
sg146
(lp1015
I5
aI13
asg148
Nsg149
VJoshua 5:13
p1016
sg151
(lp1017
sg153
g104
sg154
Nsg155
(lp1018
I5
aI13
asg157
Nsg158
g1016
sg159
(lp1019
sg161
g60
sg162
Nsg163
Nsg164
Nsbag2
(g3
g4
Ntp1020
Rp1021
(dp1022
g8
g11
sg142
Nsg143
(dp1023
sg145
Nsg26
g29
sg146
(lp1024
I5
aI14
asg148
Nsg149
VJoshua 5:14
p1025
sg151
(lp1026
sg153
g104
sg154
Nsg155
(lp1027
I5
aI14
asg157
Nsg158
g1025
sg159
(lp1028
sg161
g60
sg162
Nsg163
Nsg164
Nsbag2
(g3
g4
Ntp1029
Rp1030
(dp1031
g8
g11
sg142
Nsg143
(dp1032
sg145
Nsg26
g29
sg146
(lp1033
I5
aI15
asg148
Nsg149
VJoshua 5:15
p1034
sg151
(lp1035
sg153
g104
sg154
Nsg155
(lp1036
I5
aI15
asg157
Nsg158
g1034
sg159
(lp1037
sg161
g60
sg162
Nsg163
Nsg164
Nsbag2
(g3
g4
Ntp1038
Rp1039
(dp1040
g8
g11
sg142
Nsg143
(dp1041
sg145
Nsg26
g29
sg146
(lp1042
I6
aI1
asg148
Nsg149
VJoshua 6:1
p1043
sg151
(lp1044
sg153
g104
sg154
Nsg155
(lp1045
I6
aI1
asg157
Nsg158
g1043
sg159
(lp1046
sg161
g60
sg162
Nsg163
Nsg164
Nsbag2
(g3
g4
Ntp1047
Rp1048
(dp1049
g8
g11
sg142
Nsg143
(dp1050
sg145
Nsg26
g29
sg146
(lp1051
I6
aI2
asg148
Nsg149
VJoshua 6:2
p1052
sg151
(lp1053
sg153
g104
sg154
Nsg155
(lp1054
I6
aI2
asg157
Nsg158
g1052
sg159
(lp1055
sg161
g60
sg162
Nsg163
Nsg164
Nsbag2
(g3
g4
Ntp1056
Rp1057
(dp1058
g8
g11
sg142
Nsg143
(dp1059
sg145
Nsg26
g29
sg146
(lp1060
I6
aI3
asg148
Nsg149
VJoshua 6:3
p1061
sg151
(lp1062
sg153
g104
sg154
Nsg155
(lp1063
I6
aI3
asg157
Nsg158
g1061
sg159
(lp1064
sg161
g60
sg162
Nsg163
Nsg164
Nsbag2
(g3
g4
Ntp1065
Rp1066
(dp1067
g8
g11
sg142
Nsg143
(dp1068
sg145
Nsg26
g29
sg146
(lp1069
I6
aI4
asg148
Nsg149
VJoshua 6:4
p1070
sg151
(lp1071
sg153
g104
sg154
Nsg155
(lp1072
I6
aI4
asg157
Nsg158
g1070
sg159
(lp1073
sg161
g60
sg162
Nsg163
Nsg164
Nsbag2
(g3
g4
Ntp1074
Rp1075
(dp1076
g8
g11
sg142
Nsg143
(dp1077
sg145
Nsg26
g29
sg146
(lp1078
I6
aI5
asg148
Nsg149
VJoshua 6:5
p1079
sg151
(lp1080
sg153
g104
sg154
Nsg155
(lp1081
I6
aI5
asg157
Nsg158
g1079
sg159
(lp1082
sg161
g60
sg162
Nsg163
Nsg164
Nsbag2
(g3
g4
Ntp1083
Rp1084
(dp1085
g8
g11
sg142
Nsg143
(dp1086
sg145
Nsg26
g29
sg146
(lp1087
I6
aI6
asg148
Nsg149
VJoshua 6:6
p1088
sg151
(lp1089
sg153
g104
sg154
Nsg155
(lp1090
I6
aI6
asg157
Nsg158
g1088
sg159
(lp1091
sg161
g60
sg162
Nsg163
Nsg164
Nsbag2
(g3
g4
Ntp1092
Rp1093
(dp1094
g8
g11
sg142
Nsg143
(dp1095
sg145
Nsg26
g29
sg146
(lp1096
I6
aI7
asg148
Nsg149
VJoshua 6:7
p1097
sg151
(lp1098
sg153
g104
sg154
Nsg155
(lp1099
I6
aI7
asg157
Nsg158
g1097
sg159
(lp1100
sg161
g60
sg162
Nsg163
Nsg164
Nsbag2
(g3
g4
Ntp1101
Rp1102
(dp1103
g8
g11
sg142
Nsg143
(dp1104
sg145
Nsg26
g29
sg146
(lp1105
I6
aI8
asg148
Nsg149
VJoshua 6:8
p1106
sg151
(lp1107
sg153
g104
sg154
Nsg155
(lp1108
I6
aI8
asg157
Nsg158
g1106
sg159
(lp1109
sg161
g60
sg162
Nsg163
Nsg164
Nsbag2
(g3
g4
Ntp1110
Rp1111
(dp1112
g8
g11
sg142
Nsg143
(dp1113
sg145
Nsg26
g29
sg146
(lp1114
I6
aI9
asg148
Nsg149
VJoshua 6:9
p1115
sg151
(lp1116
sg153
g104
sg154
Nsg155
(lp1117
I6
aI9
asg157
Nsg158
g1115
sg159
(lp1118
sg161
g60
sg162
Nsg163
Nsg164
Nsbag2
(g3
g4
Ntp1119
Rp1120
(dp1121
g8
g11
sg142
Nsg143
(dp1122
sg145
Nsg26
g29
sg146
(lp1123
I6
aI10
asg148
Nsg149
VJoshua 6:10
p1124
sg151
(lp1125
sg153
g104
sg154
Nsg155
(lp1126
I6
aI10
asg157
Nsg158
g1124
sg159
(lp1127
sg161
g60
sg162
Nsg163
Nsg164
Nsbag2
(g3
g4
Ntp1128
Rp1129
(dp1130
g8
g11
sg142
Nsg143
(dp1131
sg145
Nsg26
g29
sg146
(lp1132
I6
aI11
asg148
Nsg149
VJoshua 6:11
p1133
sg151
(lp1134
sg153
g104
sg154
Nsg155
(lp1135
I6
aI11
asg157
Nsg158
g1133
sg159
(lp1136
sg161
g60
sg162
Nsg163
Nsg164
Nsbag2
(g3
g4
Ntp1137
Rp1138
(dp1139
g8
g11
sg142
Nsg143
(dp1140
sg145
Nsg26
g29
sg146
(lp1141
I6
aI12
asg148
Nsg149
VJoshua 6:12
p1142
sg151
(lp1143
sg153
g104
sg154
Nsg155
(lp1144
I6
aI12
asg157
Nsg158
g1142
sg159
(lp1145
sg161
g60
sg162
Nsg163
Nsg164
Nsbag2
(g3
g4
Ntp1146
Rp1147
(dp1148
g8
g11
sg142
Nsg143
(dp1149
sg145
Nsg26
g29
sg146
(lp1150
I6
aI13
asg148
Nsg149
VJoshua 6:13
p1151
sg151
(lp1152
sg153
g104
sg154
Nsg155
(lp1153
I6
aI13
asg157
Nsg158
g1151
sg159
(lp1154
sg161
g60
sg162
Nsg163
Nsg164
Nsbag2
(g3
g4
Ntp1155
Rp1156
(dp1157
g8
g11
sg142
Nsg143
(dp1158
sg145
Nsg26
g29
sg146
(lp1159
I6
aI14
asg148
Nsg149
VJoshua 6:14
p1160
sg151
(lp1161
sg153
g104
sg154
Nsg155
(lp1162
I6
aI14
asg157
Nsg158
g1160
sg159
(lp1163
sg161
g60
sg162
Nsg163
Nsg164
Nsbag2
(g3
g4
Ntp1164
Rp1165
(dp1166
g8
g11
sg142
Nsg143
(dp1167
sg145
Nsg26
g29
sg146
(lp1168
I6
aI15
asg148
Nsg149
VJoshua 6:15
p1169
sg151
(lp1170
sg153
g104
sg154
Nsg155
(lp1171
I6
aI15
asg157
Nsg158
g1169
sg159
(lp1172
sg161
g60
sg162
Nsg163
Nsg164
Nsbag2
(g3
g4
Ntp1173
Rp1174
(dp1175
g8
g11
sg142
Nsg143
(dp1176
sg145
Nsg26
g29
sg146
(lp1177
I6
aI16
asg148
Nsg149
VJoshua 6:16
p1178
sg151
(lp1179
sg153
g104
sg154
Nsg155
(lp1180
I6
aI16
asg157
Nsg158
g1178
sg159
(lp1181
sg161
g60
sg162
Nsg163
Nsg164
Nsbag2
(g3
g4
Ntp1182
Rp1183
(dp1184
g8
g11
sg142
Nsg143
(dp1185
sg145
Nsg26
g29
sg146
(lp1186
I6
aI17
asg148
Nsg149
VJoshua 6:17
p1187
sg151
(lp1188
sg153
g104
sg154
Nsg155
(lp1189
I6
aI17
asg157
Nsg158
g1187
sg159
(lp1190
sg161
g60
sg162
Nsg163
Nsg164
Nsbag2
(g3
g4
Ntp1191
Rp1192
(dp1193
g8
g11
sg142
Nsg143
(dp1194
sg145
Nsg26
g29
sg146
(lp1195
I6
aI18
asg148
Nsg149
VJoshua 6:18
p1196
sg151
(lp1197
sg153
g104
sg154
Nsg155
(lp1198
I6
aI18
asg157
Nsg158
g1196
sg159
(lp1199
sg161
g60
sg162
Nsg163
Nsg164
Nsbag2
(g3
g4
Ntp1200
Rp1201
(dp1202
g8
g11
sg142
Nsg143
(dp1203
sg145
Nsg26
g29
sg146
(lp1204
I6
aI19
asg148
Nsg149
VJoshua 6:19
p1205
sg151
(lp1206
sg153
g104
sg154
Nsg155
(lp1207
I6
aI19
asg157
Nsg158
g1205
sg159
(lp1208
sg161
g60
sg162
Nsg163
Nsg164
Nsbag2
(g3
g4
Ntp1209
Rp1210
(dp1211
g8
g11
sg142
Nsg143
(dp1212
sg145
Nsg26
g29
sg146
(lp1213
I6
aI20
asg148
Nsg149
VJoshua 6:20
p1214
sg151
(lp1215
sg153
g104
sg154
Nsg155
(lp1216
I6
aI20
asg157
Nsg158
g1214
sg159
(lp1217
sg161
g60
sg162
Nsg163
Nsg164
Nsbag2
(g3
g4
Ntp1218
Rp1219
(dp1220
g8
g11
sg142
Nsg143
(dp1221
sg145
Nsg26
g29
sg146
(lp1222
I6
aI21
asg148
Nsg149
VJoshua 6:21
p1223
sg151
(lp1224
sg153
g104
sg154
Nsg155
(lp1225
I6
aI21
asg157
Nsg158
g1223
sg159
(lp1226
sg161
g60
sg162
Nsg163
Nsg164
Nsbag2
(g3
g4
Ntp1227
Rp1228
(dp1229
g8
g11
sg142
Nsg143
(dp1230
sg145
Nsg26
g29
sg146
(lp1231
I6
aI22
asg148
Nsg149
VJoshua 6:22
p1232
sg151
(lp1233
sg153
g104
sg154
Nsg155
(lp1234
I6
aI22
asg157
Nsg158
g1232
sg159
(lp1235
sg161
g60
sg162
Nsg163
Nsg164
Nsbag2
(g3
g4
Ntp1236
Rp1237
(dp1238
g8
g11
sg142
Nsg143
(dp1239
sg145
Nsg26
g29
sg146
(lp1240
I6
aI23
asg148
Nsg149
VJoshua 6:23
p1241
sg151
(lp1242
sg153
g104
sg154
Nsg155
(lp1243
I6
aI23
asg157
Nsg158
g1241
sg159
(lp1244
sg161
g60
sg162
Nsg163
Nsg164
Nsbag2
(g3
g4
Ntp1245
Rp1246
(dp1247
g8
g11
sg142
Nsg143
(dp1248
sg145
Nsg26
g29
sg146
(lp1249
I6
aI24
asg148
Nsg149
VJoshua 6:24
p1250
sg151
(lp1251
sg153
g104
sg154
Nsg155
(lp1252
I6
aI24
asg157
Nsg158
g1250
sg159
(lp1253
sg161
g60
sg162
Nsg163
Nsg164
Nsbag2
(g3
g4
Ntp1254
Rp1255
(dp1256
g8
g11
sg142
Nsg143
(dp1257
sg145
Nsg26
g29
sg146
(lp1258
I6
aI25
asg148
Nsg149
VJoshua 6:25
p1259
sg151
(lp1260
sg153
g104
sg154
Nsg155
(lp1261
I6
aI25
asg157
Nsg158
g1259
sg159
(lp1262
sg161
g60
sg162
Nsg163
Nsg164
Nsbag2
(g3
g4
Ntp1263
Rp1264
(dp1265
g8
g11
sg142
Nsg143
(dp1266
sg145
Nsg26
g29
sg146
(lp1267
I6
aI26
asg148
Nsg149
VJoshua 6:26
p1268
sg151
(lp1269
sg153
g104
sg154
Nsg155
(lp1270
I6
aI26
asg157
Nsg158
g1268
sg159
(lp1271
sg161
g60
sg162
Nsg163
Nsg164
Nsbag2
(g3
g4
Ntp1272
Rp1273
(dp1274
g8
g11
sg142
Nsg143
(dp1275
sg145
Nsg26
g29
sg146
(lp1276
I6
aI27
asg148
Nsg149
VJoshua 6:27
p1277
sg151
(lp1278
sg153
g104
sg154
Nsg155
(lp1279
I6
aI27
asg157
Nsg158
g1277
sg159
(lp1280
sg161
g60
sg162
Nsg163
Nsg164
Nsbag2
(g3
g4
Ntp1281
Rp1282
(dp1283
g8
g11
sg142
Nsg143
(dp1284
sg145
Nsg26
g29
sg146
(lp1285
I7
aI1
asg148
Nsg149
VJoshua 7:1
p1286
sg151
(lp1287
sg153
g104
sg154
Nsg155
(lp1288
I7
aI1
asg157
Nsg158
g1286
sg159
(lp1289
sg161
g60
sg162
Nsg163
Nsg164
Nsbag2
(g3
g4
Ntp1290
Rp1291
(dp1292
g8
g11
sg142
Nsg143
(dp1293
sg145
Nsg26
g29
sg146
(lp1294
I7
aI2
asg148
Nsg149
VJoshua 7:2
p1295
sg151
(lp1296
sg153
g104
sg154
Nsg155
(lp1297
I7
aI2
asg157
Nsg158
g1295
sg159
(lp1298
sg161
g60
sg162
Nsg163
Nsg164
Nsbag2
(g3
g4
Ntp1299
Rp1300
(dp1301
g8
g11
sg142
Nsg143
(dp1302
sg145
Nsg26
g29
sg146
(lp1303
I7
aI3
asg148
Nsg149
VJoshua 7:3
p1304
sg151
(lp1305
sg153
g104
sg154
Nsg155
(lp1306
I7
aI3
asg157
Nsg158
g1304
sg159
(lp1307
sg161
g60
sg162
Nsg163
Nsg164
Nsbag2
(g3
g4
Ntp1308
Rp1309
(dp1310
g8
g11
sg142
Nsg143
(dp1311
sg145
Nsg26
g29
sg146
(lp1312
I7
aI4
asg148
Nsg149
VJoshua 7:4
p1313
sg151
(lp1314
sg153
g104
sg154
Nsg155
(lp1315
I7
aI4
asg157
Nsg158
g1313
sg159
(lp1316
sg161
g60
sg162
Nsg163
Nsg164
Nsbag2
(g3
g4
Ntp1317
Rp1318
(dp1319
g8
g11
sg142
Nsg143
(dp1320
sg145
Nsg26
g29
sg146
(lp1321
I7
aI5
asg148
Nsg149
VJoshua 7:5
p1322
sg151
(lp1323
sg153
g104
sg154
Nsg155
(lp1324
I7
aI5
asg157
Nsg158
g1322
sg159
(lp1325
sg161
g60
sg162
Nsg163
Nsg164
Nsbag2
(g3
g4
Ntp1326
Rp1327
(dp1328
g8
g11
sg142
Nsg143
(dp1329
sg145
Nsg26
g29
sg146
(lp1330
I7
aI6
asg148
Nsg149
VJoshua 7:6
p1331
sg151
(lp1332
sg153
g104
sg154
Nsg155
(lp1333
I7
aI6
asg157
Nsg158
g1331
sg159
(lp1334
sg161
g60
sg162
Nsg163
Nsg164
Nsbag2
(g3
g4
Ntp1335
Rp1336
(dp1337
g8
g11
sg142
Nsg143
(dp1338
sg145
Nsg26
g29
sg146
(lp1339
I7
aI7
asg148
Nsg149
VJoshua 7:7
p1340
sg151
(lp1341
sg153
g104
sg154
Nsg155
(lp1342
I7
aI7
asg157
Nsg158
g1340
sg159
(lp1343
sg161
g60
sg162
Nsg163
Nsg164
Nsbag2
(g3
g4
Ntp1344
Rp1345
(dp1346
g8
g11
sg142
Nsg143
(dp1347
sg145
Nsg26
g29
sg146
(lp1348
I7
aI8
asg148
Nsg149
VJoshua 7:8
p1349
sg151
(lp1350
sg153
g104
sg154
Nsg155
(lp1351
I7
aI8
asg157
Nsg158
g1349
sg159
(lp1352
sg161
g60
sg162
Nsg163
Nsg164
Nsbag2
(g3
g4
Ntp1353
Rp1354
(dp1355
g8
g11
sg142
Nsg143
(dp1356
sg145
Nsg26
g29
sg146
(lp1357
I7
aI9
asg148
Nsg149
VJoshua 7:9
p1358
sg151
(lp1359
sg153
g104
sg154
Nsg155
(lp1360
I7
aI9
asg157
Nsg158
g1358
sg159
(lp1361
sg161
g60
sg162
Nsg163
Nsg164
Nsbag2
(g3
g4
Ntp1362
Rp1363
(dp1364
g8
g11
sg142
Nsg143
(dp1365
sg145
Nsg26
g29
sg146
(lp1366
I7
aI10
asg148
Nsg149
VJoshua 7:10
p1367
sg151
(lp1368
sg153
g104
sg154
Nsg155
(lp1369
I7
aI10
asg157
Nsg158
g1367
sg159
(lp1370
sg161
g60
sg162
Nsg163
Nsg164
Nsbag2
(g3
g4
Ntp1371
Rp1372
(dp1373
g8
g11
sg142
Nsg143
(dp1374
sg145
Nsg26
g29
sg146
(lp1375
I7
aI11
asg148
Nsg149
VJoshua 7:11
p1376
sg151
(lp1377
sg153
g104
sg154
Nsg155
(lp1378
I7
aI11
asg157
Nsg158
g1376
sg159
(lp1379
sg161
g60
sg162
Nsg163
Nsg164
Nsbag2
(g3
g4
Ntp1380
Rp1381
(dp1382
g8
g11
sg142
Nsg143
(dp1383
sg145
Nsg26
g29
sg146
(lp1384
I7
aI12
asg148
Nsg149
VJoshua 7:12
p1385
sg151
(lp1386
sg153
g104
sg154
Nsg155
(lp1387
I7
aI12
asg157
Nsg158
g1385
sg159
(lp1388
sg161
g60
sg162
Nsg163
Nsg164
Nsbag2
(g3
g4
Ntp1389
Rp1390
(dp1391
g8
g11
sg142
Nsg143
(dp1392
sg145
Nsg26
g29
sg146
(lp1393
I7
aI13
asg148
Nsg149
VJoshua 7:13
p1394
sg151
(lp1395
sg153
g104
sg154
Nsg155
(lp1396
I7
aI13
asg157
Nsg158
g1394
sg159
(lp1397
sg161
g60
sg162
Nsg163
Nsg164
Nsbag2
(g3
g4
Ntp1398
Rp1399
(dp1400
g8
g11
sg142
Nsg143
(dp1401
sg145
Nsg26
g29
sg146
(lp1402
I7
aI14
asg148
Nsg149
VJoshua 7:14
p1403
sg151
(lp1404
sg153
g104
sg154
Nsg155
(lp1405
I7
aI14
asg157
Nsg158
g1403
sg159
(lp1406
sg161
g60
sg162
Nsg163
Nsg164
Nsbag2
(g3
g4
Ntp1407
Rp1408
(dp1409
g8
g11
sg142
Nsg143
(dp1410
sg145
Nsg26
g29
sg146
(lp1411
I7
aI15
asg148
Nsg149
VJoshua 7:15
p1412
sg151
(lp1413
sg153
g104
sg154
Nsg155
(lp1414
I7
aI15
asg157
Nsg158
g1412
sg159
(lp1415
sg161
g60
sg162
Nsg163
Nsg164
Nsbag2
(g3
g4
Ntp1416
Rp1417
(dp1418
g8
g11
sg142
Nsg143
(dp1419
sg145
Nsg26
g29
sg146
(lp1420
I7
aI16
asg148
Nsg149
VJoshua 7:16
p1421
sg151
(lp1422
sg153
g104
sg154
Nsg155
(lp1423
I7
aI16
asg157
Nsg158
g1421
sg159
(lp1424
sg161
g60
sg162
Nsg163
Nsg164
Nsbag2
(g3
g4
Ntp1425
Rp1426
(dp1427
g8
g11
sg142
Nsg143
(dp1428
sg145
Nsg26
g29
sg146
(lp1429
I7
aI17
asg148
Nsg149
VJoshua 7:17
p1430
sg151
(lp1431
sg153
g104
sg154
Nsg155
(lp1432
I7
aI17
asg157
Nsg158
g1430
sg159
(lp1433
sg161
g60
sg162
Nsg163
Nsg164
Nsbag2
(g3
g4
Ntp1434
Rp1435
(dp1436
g8
g11
sg142
Nsg143
(dp1437
sg145
Nsg26
g29
sg146
(lp1438
I7
aI18
asg148
Nsg149
VJoshua 7:18
p1439
sg151
(lp1440
sg153
g104
sg154
Nsg155
(lp1441
I7
aI18
asg157
Nsg158
g1439
sg159
(lp1442
sg161
g60
sg162
Nsg163
Nsg164
Nsbag2
(g3
g4
Ntp1443
Rp1444
(dp1445
g8
g11
sg142
Nsg143
(dp1446
sg145
Nsg26
g29
sg146
(lp1447
I7
aI19
asg148
Nsg149
VJoshua 7:19
p1448
sg151
(lp1449
sg153
g104
sg154
Nsg155
(lp1450
I7
aI19
asg157
Nsg158
g1448
sg159
(lp1451
sg161
g60
sg162
Nsg163
Nsg164
Nsbag2
(g3
g4
Ntp1452
Rp1453
(dp1454
g8
g11
sg142
Nsg143
(dp1455
sg145
Nsg26
g29
sg146
(lp1456
I7
aI20
asg148
Nsg149
VJoshua 7:20
p1457
sg151
(lp1458
sg153
g104
sg154
Nsg155
(lp1459
I7
aI20
asg157
Nsg158
g1457
sg159
(lp1460
sg161
g60
sg162
Nsg163
Nsg164
Nsbag2
(g3
g4
Ntp1461
Rp1462
(dp1463
g8
g11
sg142
Nsg143
(dp1464
sg145
Nsg26
g29
sg146
(lp1465
I7
aI21
asg148
Nsg149
VJoshua 7:21
p1466
sg151
(lp1467
sg153
g104
sg154
Nsg155
(lp1468
I7
aI21
asg157
Nsg158
g1466
sg159
(lp1469
sg161
g60
sg162
Nsg163
Nsg164
Nsbag2
(g3
g4
Ntp1470
Rp1471
(dp1472
g8
g11
sg142
Nsg143
(dp1473
sg145
Nsg26
g29
sg146
(lp1474
I7
aI22
asg148
Nsg149
VJoshua 7:22
p1475
sg151
(lp1476
sg153
g104
sg154
Nsg155
(lp1477
I7
aI22
asg157
Nsg158
g1475
sg159
(lp1478
sg161
g60
sg162
Nsg163
Nsg164
Nsbag2
(g3
g4
Ntp1479
Rp1480
(dp1481
g8
g11
sg142
Nsg143
(dp1482
sg145
Nsg26
g29
sg146
(lp1483
I7
aI23
asg148
Nsg149
VJoshua 7:23
p1484
sg151
(lp1485
sg153
g104
sg154
Nsg155
(lp1486
I7
aI23
asg157
Nsg158
g1484
sg159
(lp1487
sg161
g60
sg162
Nsg163
Nsg164
Nsbag2
(g3
g4
Ntp1488
Rp1489
(dp1490
g8
g11
sg142
Nsg143
(dp1491
sg145
Nsg26
g29
sg146
(lp1492
I7
aI24
asg148
Nsg149
VJoshua 7:24
p1493
sg151
(lp1494
sg153
g104
sg154
Nsg155
(lp1495
I7
aI24
asg157
Nsg158
g1493
sg159
(lp1496
sg161
g60
sg162
Nsg163
Nsg164
Nsbag2
(g3
g4
Ntp1497
Rp1498
(dp1499
g8
g11
sg142
Nsg143
(dp1500
sg145
Nsg26
g29
sg146
(lp1501
I7
aI25
asg148
Nsg149
VJoshua 7:25
p1502
sg151
(lp1503
sg153
g104
sg154
Nsg155
(lp1504
I7
aI25
asg157
Nsg158
g1502
sg159
(lp1505
sg161
g60
sg162
Nsg163
Nsg164
Nsbag2
(g3
g4
Ntp1506
Rp1507
(dp1508
g8
g11
sg142
Nsg143
(dp1509
sg145
Nsg26
g29
sg146
(lp1510
I7
aI26
asg148
Nsg149
VJoshua 7:26
p1511
sg151
(lp1512
sg153
g104
sg154
Nsg155
(lp1513
I7
aI26
asg157
Nsg158
g1511
sg159
(lp1514
sg161
g60
sg162
Nsg163
Nsg164
Nsbag2
(g3
g4
Ntp1515
Rp1516
(dp1517
g8
g11
sg142
Nsg143
(dp1518
sg145
Nsg26
g29
sg146
(lp1519
I8
aI1
asg148
Nsg149
VJoshua 8:1
p1520
sg151
(lp1521
sg153
g104
sg154
Nsg155
(lp1522
I8
aI1
asg157
Nsg158
g1520
sg159
(lp1523
sg161
g60
sg162
Nsg163
Nsg164
Nsbag2
(g3
g4
Ntp1524
Rp1525
(dp1526
g8
g11
sg142
Nsg143
(dp1527
sg145
Nsg26
g29
sg146
(lp1528
I8
aI2
asg148
Nsg149
VJoshua 8:2
p1529
sg151
(lp1530
sg153
g104
sg154
Nsg155
(lp1531
I8
aI2
asg157
Nsg158
g1529
sg159
(lp1532
sg161
g60
sg162
Nsg163
Nsg164
Nsbag2
(g3
g4
Ntp1533
Rp1534
(dp1535
g8
g11
sg142
Nsg143
(dp1536
sg145
Nsg26
g29
sg146
(lp1537
I8
aI3
asg148
Nsg149
VJoshua 8:3
p1538
sg151
(lp1539
sg153
g104
sg154
Nsg155
(lp1540
I8
aI3
asg157
Nsg158
g1538
sg159
(lp1541
sg161
g60
sg162
Nsg163
Nsg164
Nsbag2
(g3
g4
Ntp1542
Rp1543
(dp1544
g8
g11
sg142
Nsg143
(dp1545
sg145
Nsg26
g29
sg146
(lp1546
I8
aI4
asg148
Nsg149
VJoshua 8:4
p1547
sg151
(lp1548
sg153
g104
sg154
Nsg155
(lp1549
I8
aI4
asg157
Nsg158
g1547
sg159
(lp1550
sg161
g60
sg162
Nsg163
Nsg164
Nsbag2
(g3
g4
Ntp1551
Rp1552
(dp1553
g8
g11
sg142
Nsg143
(dp1554
sg145
Nsg26
g29
sg146
(lp1555
I8
aI5
asg148
Nsg149
VJoshua 8:5
p1556
sg151
(lp1557
sg153
g104
sg154
Nsg155
(lp1558
I8
aI5
asg157
Nsg158
g1556
sg159
(lp1559
sg161
g60
sg162
Nsg163
Nsg164
Nsbag2
(g3
g4
Ntp1560
Rp1561
(dp1562
g8
g11
sg142
Nsg143
(dp1563
sg145
Nsg26
g29
sg146
(lp1564
I8
aI6
asg148
Nsg149
VJoshua 8:6
p1565
sg151
(lp1566
sg153
g104
sg154
Nsg155
(lp1567
I8
aI6
asg157
Nsg158
g1565
sg159
(lp1568
sg161
g60
sg162
Nsg163
Nsg164
Nsbag2
(g3
g4
Ntp1569
Rp1570
(dp1571
g8
g11
sg142
Nsg143
(dp1572
sg145
Nsg26
g29
sg146
(lp1573
I8
aI7
asg148
Nsg149
VJoshua 8:7
p1574
sg151
(lp1575
sg153
g104
sg154
Nsg155
(lp1576
I8
aI7
asg157
Nsg158
g1574
sg159
(lp1577
sg161
g60
sg162
Nsg163
Nsg164
Nsbag2
(g3
g4
Ntp1578
Rp1579
(dp1580
g8
g11
sg142
Nsg143
(dp1581
sg145
Nsg26
g29
sg146
(lp1582
I8
aI8
asg148
Nsg149
VJoshua 8:8
p1583
sg151
(lp1584
sg153
g104
sg154
Nsg155
(lp1585
I8
aI8
asg157
Nsg158
g1583
sg159
(lp1586
sg161
g60
sg162
Nsg163
Nsg164
Nsbag2
(g3
g4
Ntp1587
Rp1588
(dp1589
g8
g11
sg142
Nsg143
(dp1590
sg145
Nsg26
g29
sg146
(lp1591
I8
aI9
asg148
Nsg149
VJoshua 8:9
p1592
sg151
(lp1593
sg153
g104
sg154
Nsg155
(lp1594
I8
aI9
asg157
Nsg158
g1592
sg159
(lp1595
sg161
g60
sg162
Nsg163
Nsg164
Nsbag2
(g3
g4
Ntp1596
Rp1597
(dp1598
g8
g11
sg142
Nsg143
(dp1599
sg145
Nsg26
g29
sg146
(lp1600
I8
aI10
asg148
Nsg149
VJoshua 8:10
p1601
sg151
(lp1602
sg153
g104
sg154
Nsg155
(lp1603
I8
aI10
asg157
Nsg158
g1601
sg159
(lp1604
sg161
g60
sg162
Nsg163
Nsg164
Nsbag2
(g3
g4
Ntp1605
Rp1606
(dp1607
g8
g11
sg142
Nsg143
(dp1608
sg145
Nsg26
g29
sg146
(lp1609
I8
aI11
asg148
Nsg149
VJoshua 8:11
p1610
sg151
(lp1611
sg153
g104
sg154
Nsg155
(lp1612
I8
aI11
asg157
Nsg158
g1610
sg159
(lp1613
sg161
g60
sg162
Nsg163
Nsg164
Nsbag2
(g3
g4
Ntp1614
Rp1615
(dp1616
g8
g11
sg142
Nsg143
(dp1617
sg145
Nsg26
g29
sg146
(lp1618
I8
aI12
asg148
Nsg149
VJoshua 8:12
p1619
sg151
(lp1620
sg153
g104
sg154
Nsg155
(lp1621
I8
aI12
asg157
Nsg158
g1619
sg159
(lp1622
sg161
g60
sg162
Nsg163
Nsg164
Nsbag2
(g3
g4
Ntp1623
Rp1624
(dp1625
g8
g11
sg142
Nsg143
(dp1626
sg145
Nsg26
g29
sg146
(lp1627
I8
aI13
asg148
Nsg149
VJoshua 8:13
p1628
sg151
(lp1629
sg153
g104
sg154
Nsg155
(lp1630
I8
aI13
asg157
Nsg158
g1628
sg159
(lp1631
sg161
g60
sg162
Nsg163
Nsg164
Nsbag2
(g3
g4
Ntp1632
Rp1633
(dp1634
g8
g11
sg142
Nsg143
(dp1635
sg145
Nsg26
g29
sg146
(lp1636
I8
aI14
asg148
Nsg149
VJoshua 8:14
p1637
sg151
(lp1638
sg153
g104
sg154
Nsg155
(lp1639
I8
aI14
asg157
Nsg158
g1637
sg159
(lp1640
sg161
g60
sg162
Nsg163
Nsg164
Nsbag2
(g3
g4
Ntp1641
Rp1642
(dp1643
g8
g11
sg142
Nsg143
(dp1644
sg145
Nsg26
g29
sg146
(lp1645
I8
aI15
asg148
Nsg149
VJoshua 8:15
p1646
sg151
(lp1647
sg153
g104
sg154
Nsg155
(lp1648
I8
aI15
asg157
Nsg158
g1646
sg159
(lp1649
sg161
g60
sg162
Nsg163
Nsg164
Nsbag2
(g3
g4
Ntp1650
Rp1651
(dp1652
g8
g11
sg142
Nsg143
(dp1653
sg145
Nsg26
g29
sg146
(lp1654
I8
aI16
asg148
Nsg149
VJoshua 8:16
p1655
sg151
(lp1656
sg153
g104
sg154
Nsg155
(lp1657
I8
aI16
asg157
Nsg158
g1655
sg159
(lp1658
sg161
g60
sg162
Nsg163
Nsg164
Nsbag2
(g3
g4
Ntp1659
Rp1660
(dp1661
g8
g11
sg142
Nsg143
(dp1662
sg145
Nsg26
g29
sg146
(lp1663
I8
aI17
asg148
Nsg149
VJoshua 8:17
p1664
sg151
(lp1665
sg153
g104
sg154
Nsg155
(lp1666
I8
aI17
asg157
Nsg158
g1664
sg159
(lp1667
sg161
g60
sg162
Nsg163
Nsg164
Nsbag2
(g3
g4
Ntp1668
Rp1669
(dp1670
g8
g11
sg142
Nsg143
(dp1671
sg145
Nsg26
g29
sg146
(lp1672
I8
aI18
asg148
Nsg149
VJoshua 8:18
p1673
sg151
(lp1674
sg153
g104
sg154
Nsg155
(lp1675
I8
aI18
asg157
Nsg158
g1673
sg159
(lp1676
sg161
g60
sg162
Nsg163
Nsg164
Nsbag2
(g3
g4
Ntp1677
Rp1678
(dp1679
g8
g11
sg142
Nsg143
(dp1680
sg145
Nsg26
g29
sg146
(lp1681
I8
aI19
asg148
Nsg149
VJoshua 8:19
p1682
sg151
(lp1683
sg153
g104
sg154
Nsg155
(lp1684
I8
aI19
asg157
Nsg158
g1682
sg159
(lp1685
sg161
g60
sg162
Nsg163
Nsg164
Nsbag2
(g3
g4
Ntp1686
Rp1687
(dp1688
g8
g11
sg142
Nsg143
(dp1689
sg145
Nsg26
g29
sg146
(lp1690
I8
aI20
asg148
Nsg149
VJoshua 8:20
p1691
sg151
(lp1692
sg153
g104
sg154
Nsg155
(lp1693
I8
aI20
asg157
Nsg158
g1691
sg159
(lp1694
sg161
g60
sg162
Nsg163
Nsg164
Nsbag2
(g3
g4
Ntp1695
Rp1696
(dp1697
g8
g11
sg142
Nsg143
(dp1698
sg145
Nsg26
g29
sg146
(lp1699
I8
aI21
asg148
Nsg149
VJoshua 8:21
p1700
sg151
(lp1701
sg153
g104
sg154
Nsg155
(lp1702
I8
aI21
asg157
Nsg158
g1700
sg159
(lp1703
sg161
g60
sg162
Nsg163
Nsg164
Nsbag2
(g3
g4
Ntp1704
Rp1705
(dp1706
g8
g11
sg142
Nsg143
(dp1707
sg145
Nsg26
g29
sg146
(lp1708
I8
aI22
asg148
Nsg149
VJoshua 8:22
p1709
sg151
(lp1710
sg153
g104
sg154
Nsg155
(lp1711
I8
aI22
asg157
Nsg158
g1709
sg159
(lp1712
sg161
g60
sg162
Nsg163
Nsg164
Nsbag2
(g3
g4
Ntp1713
Rp1714
(dp1715
g8
g11
sg142
Nsg143
(dp1716
sg145
Nsg26
g29
sg146
(lp1717
I8
aI23
asg148
Nsg149
VJoshua 8:23
p1718
sg151
(lp1719
sg153
g104
sg154
Nsg155
(lp1720
I8
aI23
asg157
Nsg158
g1718
sg159
(lp1721
sg161
g60
sg162
Nsg163
Nsg164
Nsbag2
(g3
g4
Ntp1722
Rp1723
(dp1724
g8
g11
sg142
Nsg143
(dp1725
sg145
Nsg26
g29
sg146
(lp1726
I8
aI24
asg148
Nsg149
VJoshua 8:24
p1727
sg151
(lp1728
sg153
g104
sg154
Nsg155
(lp1729
I8
aI24
asg157
Nsg158
g1727
sg159
(lp1730
sg161
g60
sg162
Nsg163
Nsg164
Nsbag2
(g3
g4
Ntp1731
Rp1732
(dp1733
g8
g11
sg142
Nsg143
(dp1734
sg145
Nsg26
g29
sg146
(lp1735
I8
aI25
asg148
Nsg149
VJoshua 8:25
p1736
sg151
(lp1737
sg153
g104
sg154
Nsg155
(lp1738
I8
aI25
asg157
Nsg158
g1736
sg159
(lp1739
sg161
g60
sg162
Nsg163
Nsg164
Nsbag2
(g3
g4
Ntp1740
Rp1741
(dp1742
g8
g11
sg142
Nsg143
(dp1743
sg145
Nsg26
g29
sg146
(lp1744
I8
aI26
asg148
Nsg149
VJoshua 8:26
p1745
sg151
(lp1746
sg153
g104
sg154
Nsg155
(lp1747
I8
aI26
asg157
Nsg158
g1745
sg159
(lp1748
sg161
g60
sg162
Nsg163
Nsg164
Nsbag2
(g3
g4
Ntp1749
Rp1750
(dp1751
g8
g11
sg142
Nsg143
(dp1752
sg145
Nsg26
g29
sg146
(lp1753
I8
aI27
asg148
Nsg149
VJoshua 8:27
p1754
sg151
(lp1755
sg153
g104
sg154
Nsg155
(lp1756
I8
aI27
asg157
Nsg158
g1754
sg159
(lp1757
sg161
g60
sg162
Nsg163
Nsg164
Nsbag2
(g3
g4
Ntp1758
Rp1759
(dp1760
g8
g11
sg142
Nsg143
(dp1761
sg145
Nsg26
g29
sg146
(lp1762
I8
aI28
asg148
Nsg149
VJoshua 8:28
p1763
sg151
(lp1764
sg153
g104
sg154
Nsg155
(lp1765
I8
aI28
asg157
Nsg158
g1763
sg159
(lp1766
sg161
g60
sg162
Nsg163
Nsg164
Nsbag2
(g3
g4
Ntp1767
Rp1768
(dp1769
g8
g11
sg142
Nsg143
(dp1770
sg145
Nsg26
g29
sg146
(lp1771
I8
aI29
asg148
Nsg149
VJoshua 8:29
p1772
sg151
(lp1773
sg153
g104
sg154
Nsg155
(lp1774
I8
aI29
asg157
Nsg158
g1772
sg159
(lp1775
sg161
g60
sg162
Nsg163
Nsg164
Nsbag2
(g3
g4
Ntp1776
Rp1777
(dp1778
g8
g11
sg142
Nsg143
(dp1779
sg145
Nsg26
g29
sg146
(lp1780
I8
aI30
asg148
Nsg149
VJoshua 8:30
p1781
sg151
(lp1782
sg153
g104
sg154
Nsg155
(lp1783
I8
aI30
asg157
Nsg158
g1781
sg159
(lp1784
sg161
g60
sg162
Nsg163
Nsg164
Nsbag2
(g3
g4
Ntp1785
Rp1786
(dp1787
g8
g11
sg142
Nsg143
(dp1788
sg145
Nsg26
g29
sg146
(lp1789
I8
aI31
asg148
Nsg149
VJoshua 8:31
p1790
sg151
(lp1791
sg153
g104
sg154
Nsg155
(lp1792
I8
aI31
asg157
Nsg158
g1790
sg159
(lp1793
sg161
g60
sg162
Nsg163
Nsg164
Nsbag2
(g3
g4
Ntp1794
Rp1795
(dp1796
g8
g11
sg142
Nsg143
(dp1797
sg145
Nsg26
g29
sg146
(lp1798
I8
aI32
asg148
Nsg149
VJoshua 8:32
p1799
sg151
(lp1800
sg153
g104
sg154
Nsg155
(lp1801
I8
aI32
asg157
Nsg158
g1799
sg159
(lp1802
sg161
g60
sg162
Nsg163
Nsg164
Nsbag2
(g3
g4
Ntp1803
Rp1804
(dp1805
g8
g11
sg142
Nsg143
(dp1806
sg145
Nsg26
g29
sg146
(lp1807
I8
aI33
asg148
Nsg149
VJoshua 8:33
p1808
sg151
(lp1809
sg153
g104
sg154
Nsg155
(lp1810
I8
aI33
asg157
Nsg158
g1808
sg159
(lp1811
sg161
g60
sg162
Nsg163
Nsg164
Nsbag2
(g3
g4
Ntp1812
Rp1813
(dp1814
g8
g11
sg142
Nsg143
(dp1815
sg145
Nsg26
g29
sg146
(lp1816
I8
aI34
asg148
Nsg149
VJoshua 8:34
p1817
sg151
(lp1818
sg153
g104
sg154
Nsg155
(lp1819
I8
aI34
asg157
Nsg158
g1817
sg159
(lp1820
sg161
g60
sg162
Nsg163
Nsg164
Nsbag2
(g3
g4
Ntp1821
Rp1822
(dp1823
g8
g11
sg142
Nsg143
(dp1824
sg145
Nsg26
g29
sg146
(lp1825
I8
aI35
asg148
Nsg149
VJoshua 8:35
p1826
sg151
(lp1827
sg153
g104
sg154
Nsg155
(lp1828
I8
aI35
asg157
Nsg158
g1826
sg159
(lp1829
sg161
g60
sg162
Nsg163
Nsg164
Nsbag2
(g3
g4
Ntp1830
Rp1831
(dp1832
g8
g11
sg142
Nsg143
(dp1833
sg145
Nsg26
g29
sg146
(lp1834
I9
aI1
asg148
Nsg149
VJoshua 9:1
p1835
sg151
(lp1836
sg153
g104
sg154
Nsg155
(lp1837
I9
aI1
asg157
Nsg158
g1835
sg159
(lp1838
sg161
g60
sg162
Nsg163
Nsg164
Nsbag2
(g3
g4
Ntp1839
Rp1840
(dp1841
g8
g11
sg142
Nsg143
(dp1842
sg145
Nsg26
g29
sg146
(lp1843
I9
aI2
asg148
Nsg149
VJoshua 9:2
p1844
sg151
(lp1845
sg153
g104
sg154
Nsg155
(lp1846
I9
aI2
asg157
Nsg158
g1844
sg159
(lp1847
sg161
g60
sg162
Nsg163
Nsg164
Nsbag2
(g3
g4
Ntp1848
Rp1849
(dp1850
g8
g11
sg142
Nsg143
(dp1851
sg145
Nsg26
g29
sg146
(lp1852
I9
aI3
asg148
Nsg149
VJoshua 9:3
p1853
sg151
(lp1854
sg153
g104
sg154
Nsg155
(lp1855
I9
aI3
asg157
Nsg158
g1853
sg159
(lp1856
sg161
g60
sg162
Nsg163
Nsg164
Nsbag2
(g3
g4
Ntp1857
Rp1858
(dp1859
g8
g11
sg142
Nsg143
(dp1860
sg145
Nsg26
g29
sg146
(lp1861
I9
aI4
asg148
Nsg149
VJoshua 9:4
p1862
sg151
(lp1863
sg153
g104
sg154
Nsg155
(lp1864
I9
aI4
asg157
Nsg158
g1862
sg159
(lp1865
sg161
g60
sg162
Nsg163
Nsg164
Nsbag2
(g3
g4
Ntp1866
Rp1867
(dp1868
g8
g11
sg142
Nsg143
(dp1869
sg145
Nsg26
g29
sg146
(lp1870
I9
aI5
asg148
Nsg149
VJoshua 9:5
p1871
sg151
(lp1872
sg153
g104
sg154
Nsg155
(lp1873
I9
aI5
asg157
Nsg158
g1871
sg159
(lp1874
sg161
g60
sg162
Nsg163
Nsg164
Nsbag2
(g3
g4
Ntp1875
Rp1876
(dp1877
g8
g11
sg142
Nsg143
(dp1878
sg145
Nsg26
g29
sg146
(lp1879
I9
aI6
asg148
Nsg149
VJoshua 9:6
p1880
sg151
(lp1881
sg153
g104
sg154
Nsg155
(lp1882
I9
aI6
asg157
Nsg158
g1880
sg159
(lp1883
sg161
g60
sg162
Nsg163
Nsg164
Nsbag2
(g3
g4
Ntp1884
Rp1885
(dp1886
g8
g11
sg142
Nsg143
(dp1887
sg145
Nsg26
g29
sg146
(lp1888
I9
aI7
asg148
Nsg149
VJoshua 9:7
p1889
sg151
(lp1890
sg153
g104
sg154
Nsg155
(lp1891
I9
aI7
asg157
Nsg158
g1889
sg159
(lp1892
sg161
g60
sg162
Nsg163
Nsg164
Nsbag2
(g3
g4
Ntp1893
Rp1894
(dp1895
g8
g11
sg142
Nsg143
(dp1896
sg145
Nsg26
g29
sg146
(lp1897
I9
aI8
asg148
Nsg149
VJoshua 9:8
p1898
sg151
(lp1899
sg153
g104
sg154
Nsg155
(lp1900
I9
aI8
asg157
Nsg158
g1898
sg159
(lp1901
sg161
g60
sg162
Nsg163
Nsg164
Nsbag2
(g3
g4
Ntp1902
Rp1903
(dp1904
g8
g11
sg142
Nsg143
(dp1905
sg145
Nsg26
g29
sg146
(lp1906
I9
aI9
asg148
Nsg149
VJoshua 9:9
p1907
sg151
(lp1908
sg153
g104
sg154
Nsg155
(lp1909
I9
aI9
asg157
Nsg158
g1907
sg159
(lp1910
sg161
g60
sg162
Nsg163
Nsg164
Nsbag2
(g3
g4
Ntp1911
Rp1912
(dp1913
g8
g11
sg142
Nsg143
(dp1914
sg145
Nsg26
g29
sg146
(lp1915
I9
aI10
asg148
Nsg149
VJoshua 9:10
p1916
sg151
(lp1917
sg153
g104
sg154
Nsg155
(lp1918
I9
aI10
asg157
Nsg158
g1916
sg159
(lp1919
sg161
g60
sg162
Nsg163
Nsg164
Nsbag2
(g3
g4
Ntp1920
Rp1921
(dp1922
g8
g11
sg142
Nsg143
(dp1923
sg145
Nsg26
g29
sg146
(lp1924
I9
aI11
asg148
Nsg149
VJoshua 9:11
p1925
sg151
(lp1926
sg153
g104
sg154
Nsg155
(lp1927
I9
aI11
asg157
Nsg158
g1925
sg159
(lp1928
sg161
g60
sg162
Nsg163
Nsg164
Nsbag2
(g3
g4
Ntp1929
Rp1930
(dp1931
g8
g11
sg142
Nsg143
(dp1932
sg145
Nsg26
g29
sg146
(lp1933
I9
aI12
asg148
Nsg149
VJoshua 9:12
p1934
sg151
(lp1935
sg153
g104
sg154
Nsg155
(lp1936
I9
aI12
asg157
Nsg158
g1934
sg159
(lp1937
sg161
g60
sg162
Nsg163
Nsg164
Nsbag2
(g3
g4
Ntp1938
Rp1939
(dp1940
g8
g11
sg142
Nsg143
(dp1941
sg145
Nsg26
g29
sg146
(lp1942
I9
aI13
asg148
Nsg149
VJoshua 9:13
p1943
sg151
(lp1944
sg153
g104
sg154
Nsg155
(lp1945
I9
aI13
asg157
Nsg158
g1943
sg159
(lp1946
sg161
g60
sg162
Nsg163
Nsg164
Nsbag2
(g3
g4
Ntp1947
Rp1948
(dp1949
g8
g11
sg142
Nsg143
(dp1950
sg145
Nsg26
g29
sg146
(lp1951
I9
aI14
asg148
Nsg149
VJoshua 9:14
p1952
sg151
(lp1953
sg153
g104
sg154
Nsg155
(lp1954
I9
aI14
asg157
Nsg158
g1952
sg159
(lp1955
sg161
g60
sg162
Nsg163
Nsg164
Nsbag2
(g3
g4
Ntp1956
Rp1957
(dp1958
g8
g11
sg142
Nsg143
(dp1959
sg145
Nsg26
g29
sg146
(lp1960
I9
aI15
asg148
Nsg149
VJoshua 9:15
p1961
sg151
(lp1962
sg153
g104
sg154
Nsg155
(lp1963
I9
aI15
asg157
Nsg158
g1961
sg159
(lp1964
sg161
g60
sg162
Nsg163
Nsg164
Nsbag2
(g3
g4
Ntp1965
Rp1966
(dp1967
g8
g11
sg142
Nsg143
(dp1968
sg145
Nsg26
g29
sg146
(lp1969
I9
aI16
asg148
Nsg149
VJoshua 9:16
p1970
sg151
(lp1971
sg153
g104
sg154
Nsg155
(lp1972
I9
aI16
asg157
Nsg158
g1970
sg159
(lp1973
sg161
g60
sg162
Nsg163
Nsg164
Nsbag2
(g3
g4
Ntp1974
Rp1975
(dp1976
g8
g11
sg142
Nsg143
(dp1977
sg145
Nsg26
g29
sg146
(lp1978
I9
aI17
asg148
Nsg149
VJoshua 9:17
p1979
sg151
(lp1980
sg153
g104
sg154
Nsg155
(lp1981
I9
aI17
asg157
Nsg158
g1979
sg159
(lp1982
sg161
g60
sg162
Nsg163
Nsg164
Nsbag2
(g3
g4
Ntp1983
Rp1984
(dp1985
g8
g11
sg142
Nsg143
(dp1986
sg145
Nsg26
g29
sg146
(lp1987
I9
aI18
asg148
Nsg149
VJoshua 9:18
p1988
sg151
(lp1989
sg153
g104
sg154
Nsg155
(lp1990
I9
aI18
asg157
Nsg158
g1988
sg159
(lp1991
sg161
g60
sg162
Nsg163
Nsg164
Nsbag2
(g3
g4
Ntp1992
Rp1993
(dp1994
g8
g11
sg142
Nsg143
(dp1995
sg145
Nsg26
g29
sg146
(lp1996
I9
aI19
asg148
Nsg149
VJoshua 9:19
p1997
sg151
(lp1998
sg153
g104
sg154
Nsg155
(lp1999
I9
aI19
asg157
Nsg158
g1997
sg159
(lp2000
sg161
g60
sg162
Nsg163
Nsg164
Nsbag2
(g3
g4
Ntp2001
Rp2002
(dp2003
g8
g11
sg142
Nsg143
(dp2004
sg145
Nsg26
g29
sg146
(lp2005
I9
aI20
asg148
Nsg149
VJoshua 9:20
p2006
sg151
(lp2007
sg153
g104
sg154
Nsg155
(lp2008
I9
aI20
asg157
Nsg158
g2006
sg159
(lp2009
sg161
g60
sg162
Nsg163
Nsg164
Nsbag2
(g3
g4
Ntp2010
Rp2011
(dp2012
g8
g11
sg142
Nsg143
(dp2013
sg145
Nsg26
g29
sg146
(lp2014
I9
aI21
asg148
Nsg149
VJoshua 9:21
p2015
sg151
(lp2016
sg153
g104
sg154
Nsg155
(lp2017
I9
aI21
asg157
Nsg158
g2015
sg159
(lp2018
sg161
g60
sg162
Nsg163
Nsg164
Nsbag2
(g3
g4
Ntp2019
Rp2020
(dp2021
g8
g11
sg142
Nsg143
(dp2022
sg145
Nsg26
g29
sg146
(lp2023
I9
aI22
asg148
Nsg149
VJoshua 9:22
p2024
sg151
(lp2025
sg153
g104
sg154
Nsg155
(lp2026
I9
aI22
asg157
Nsg158
g2024
sg159
(lp2027
sg161
g60
sg162
Nsg163
Nsg164
Nsbag2
(g3
g4
Ntp2028
Rp2029
(dp2030
g8
g11
sg142
Nsg143
(dp2031
sg145
Nsg26
g29
sg146
(lp2032
I9
aI23
asg148
Nsg149
VJoshua 9:23
p2033
sg151
(lp2034
sg153
g104
sg154
Nsg155
(lp2035
I9
aI23
asg157
Nsg158
g2033
sg159
(lp2036
sg161
g60
sg162
Nsg163
Nsg164
Nsbag2
(g3
g4
Ntp2037
Rp2038
(dp2039
g8
g11
sg142
Nsg143
(dp2040
sg145
Nsg26
g29
sg146
(lp2041
I9
aI24
asg148
Nsg149
VJoshua 9:24
p2042
sg151
(lp2043
sg153
g104
sg154
Nsg155
(lp2044
I9
aI24
asg157
Nsg158
g2042
sg159
(lp2045
sg161
g60
sg162
Nsg163
Nsg164
Nsbag2
(g3
g4
Ntp2046
Rp2047
(dp2048
g8
g11
sg142
Nsg143
(dp2049
sg145
Nsg26
g29
sg146
(lp2050
I9
aI25
asg148
Nsg149
VJoshua 9:25
p2051
sg151
(lp2052
sg153
g104
sg154
Nsg155
(lp2053
I9
aI25
asg157
Nsg158
g2051
sg159
(lp2054
sg161
g60
sg162
Nsg163
Nsg164
Nsbag2
(g3
g4
Ntp2055
Rp2056
(dp2057
g8
g11
sg142
Nsg143
(dp2058
sg145
Nsg26
g29
sg146
(lp2059
I9
aI26
asg148
Nsg149
VJoshua 9:26
p2060
sg151
(lp2061
sg153
g104
sg154
Nsg155
(lp2062
I9
aI26
asg157
Nsg158
g2060
sg159
(lp2063
sg161
g60
sg162
Nsg163
Nsg164
Nsbag2
(g3
g4
Ntp2064
Rp2065
(dp2066
g8
g11
sg142
Nsg143
(dp2067
sg145
Nsg26
g29
sg146
(lp2068
I9
aI27
asg148
Nsg149
VJoshua 9:27
p2069
sg151
(lp2070
sg153
g104
sg154
Nsg155
(lp2071
I9
aI27
asg157
Nsg158
g2069
sg159
(lp2072
sg161
g60
sg162
Nsg163
Nsg164
Nsbag2
(g3
g4
Ntp2073
Rp2074
(dp2075
g8
g11
sg142
Nsg143
(dp2076
sg145
Nsg26
g29
sg146
(lp2077
I10
aI1
asg148
Nsg149
VJoshua 10:1
p2078
sg151
(lp2079
sg153
g104
sg154
Nsg155
(lp2080
I10
aI1
asg157
Nsg158
g2078
sg159
(lp2081
sg161
g60
sg162
Nsg163
Nsg164
Nsbag2
(g3
g4
Ntp2082
Rp2083
(dp2084
g8
g11
sg142
Nsg143
(dp2085
sg145
Nsg26
g29
sg146
(lp2086
I10
aI2
asg148
Nsg149
VJoshua 10:2
p2087
sg151
(lp2088
sg153
g104
sg154
Nsg155
(lp2089
I10
aI2
asg157
Nsg158
g2087
sg159
(lp2090
sg161
g60
sg162
Nsg163
Nsg164
Nsbag2
(g3
g4
Ntp2091
Rp2092
(dp2093
g8
g11
sg142
Nsg143
(dp2094
sg145
Nsg26
g29
sg146
(lp2095
I10
aI3
asg148
Nsg149
VJoshua 10:3
p2096
sg151
(lp2097
sg153
g104
sg154
Nsg155
(lp2098
I10
aI3
asg157
Nsg158
g2096
sg159
(lp2099
sg161
g60
sg162
Nsg163
Nsg164
Nsbag2
(g3
g4
Ntp2100
Rp2101
(dp2102
g8
g11
sg142
Nsg143
(dp2103
sg145
Nsg26
g29
sg146
(lp2104
I10
aI4
asg148
Nsg149
VJoshua 10:4
p2105
sg151
(lp2106
sg153
g104
sg154
Nsg155
(lp2107
I10
aI4
asg157
Nsg158
g2105
sg159
(lp2108
sg161
g60
sg162
Nsg163
Nsg164
Nsbag2
(g3
g4
Ntp2109
Rp2110
(dp2111
g8
g11
sg142
Nsg143
(dp2112
sg145
Nsg26
g29
sg146
(lp2113
I10
aI5
asg148
Nsg149
VJoshua 10:5
p2114
sg151
(lp2115
sg153
g104
sg154
Nsg155
(lp2116
I10
aI5
asg157
Nsg158
g2114
sg159
(lp2117
sg161
g60
sg162
Nsg163
Nsg164
Nsbag2
(g3
g4
Ntp2118
Rp2119
(dp2120
g8
g11
sg142
Nsg143
(dp2121
sg145
Nsg26
g29
sg146
(lp2122
I10
aI6
asg148
Nsg149
VJoshua 10:6
p2123
sg151
(lp2124
sg153
g104
sg154
Nsg155
(lp2125
I10
aI6
asg157
Nsg158
g2123
sg159
(lp2126
sg161
g60
sg162
Nsg163
Nsg164
Nsbag2
(g3
g4
Ntp2127
Rp2128
(dp2129
g8
g11
sg142
Nsg143
(dp2130
sg145
Nsg26
g29
sg146
(lp2131
I10
aI7
asg148
Nsg149
VJoshua 10:7
p2132
sg151
(lp2133
sg153
g104
sg154
Nsg155
(lp2134
I10
aI7
asg157
Nsg158
g2132
sg159
(lp2135
sg161
g60
sg162
Nsg163
Nsg164
Nsbag2
(g3
g4
Ntp2136
Rp2137
(dp2138
g8
g11
sg142
Nsg143
(dp2139
sg145
Nsg26
g29
sg146
(lp2140
I10
aI8
asg148
Nsg149
VJoshua 10:8
p2141
sg151
(lp2142
sg153
g104
sg154
Nsg155
(lp2143
I10
aI8
asg157
Nsg158
g2141
sg159
(lp2144
sg161
g60
sg162
Nsg163
Nsg164
Nsbag2
(g3
g4
Ntp2145
Rp2146
(dp2147
g8
g11
sg142
Nsg143
(dp2148
sg145
Nsg26
g29
sg146
(lp2149
I10
aI9
asg148
Nsg149
VJoshua 10:9
p2150
sg151
(lp2151
sg153
g104
sg154
Nsg155
(lp2152
I10
aI9
asg157
Nsg158
g2150
sg159
(lp2153
sg161
g60
sg162
Nsg163
Nsg164
Nsbag2
(g3
g4
Ntp2154
Rp2155
(dp2156
g8
g11
sg142
Nsg143
(dp2157
sg145
Nsg26
g29
sg146
(lp2158
I10
aI10
asg148
Nsg149
VJoshua 10:10
p2159
sg151
(lp2160
sg153
g104
sg154
Nsg155
(lp2161
I10
aI10
asg157
Nsg158
g2159
sg159
(lp2162
sg161
g60
sg162
Nsg163
Nsg164
Nsbag2
(g3
g4
Ntp2163
Rp2164
(dp2165
g8
g11
sg142
Nsg143
(dp2166
sg145
Nsg26
g29
sg146
(lp2167
I10
aI11
asg148
Nsg149
VJoshua 10:11
p2168
sg151
(lp2169
sg153
g104
sg154
Nsg155
(lp2170
I10
aI11
asg157
Nsg158
g2168
sg159
(lp2171
sg161
g60
sg162
Nsg163
Nsg164
Nsbag2
(g3
g4
Ntp2172
Rp2173
(dp2174
g8
g11
sg142
Nsg143
(dp2175
sg145
Nsg26
g29
sg146
(lp2176
I10
aI12
asg148
Nsg149
VJoshua 10:12
p2177
sg151
(lp2178
sg153
g104
sg154
Nsg155
(lp2179
I10
aI12
asg157
Nsg158
g2177
sg159
(lp2180
sg161
g60
sg162
Nsg163
Nsg164
Nsbag2
(g3
g4
Ntp2181
Rp2182
(dp2183
g8
g11
sg142
Nsg143
(dp2184
sg145
Nsg26
g29
sg146
(lp2185
I10
aI13
asg148
Nsg149
VJoshua 10:13
p2186
sg151
(lp2187
sg153
g104
sg154
Nsg155
(lp2188
I10
aI13
asg157
Nsg158
g2186
sg159
(lp2189
sg161
g60
sg162
Nsg163
Nsg164
Nsbag2
(g3
g4
Ntp2190
Rp2191
(dp2192
g8
g11
sg142
Nsg143
(dp2193
sg145
Nsg26
g29
sg146
(lp2194
I10
aI14
asg148
Nsg149
VJoshua 10:14
p2195
sg151
(lp2196
sg153
g104
sg154
Nsg155
(lp2197
I10
aI14
asg157
Nsg158
g2195
sg159
(lp2198
sg161
g60
sg162
Nsg163
Nsg164
Nsbag2
(g3
g4
Ntp2199
Rp2200
(dp2201
g8
g11
sg142
Nsg143
(dp2202
sg145
Nsg26
g29
sg146
(lp2203
I10
aI15
asg148
Nsg149
VJoshua 10:15
p2204
sg151
(lp2205
sg153
g104
sg154
Nsg155
(lp2206
I10
aI15
asg157
Nsg158
g2204
sg159
(lp2207
sg161
g60
sg162
Nsg163
Nsg164
Nsbag2
(g3
g4
Ntp2208
Rp2209
(dp2210
g8
g11
sg142
Nsg143
(dp2211
sg145
Nsg26
g29
sg146
(lp2212
I10
aI16
asg148
Nsg149
VJoshua 10:16
p2213
sg151
(lp2214
sg153
g104
sg154
Nsg155
(lp2215
I10
aI16
asg157
Nsg158
g2213
sg159
(lp2216
sg161
g60
sg162
Nsg163
Nsg164
Nsbag2
(g3
g4
Ntp2217
Rp2218
(dp2219
g8
g11
sg142
Nsg143
(dp2220
sg145
Nsg26
g29
sg146
(lp2221
I10
aI17
asg148
Nsg149
VJoshua 10:17
p2222
sg151
(lp2223
sg153
g104
sg154
Nsg155
(lp2224
I10
aI17
asg157
Nsg158
g2222
sg159
(lp2225
sg161
g60
sg162
Nsg163
Nsg164
Nsbag2
(g3
g4
Ntp2226
Rp2227
(dp2228
g8
g11
sg142
Nsg143
(dp2229
sg145
Nsg26
g29
sg146
(lp2230
I10
aI18
asg148
Nsg149
VJoshua 10:18
p2231
sg151
(lp2232
sg153
g104
sg154
Nsg155
(lp2233
I10
aI18
asg157
Nsg158
g2231
sg159
(lp2234
sg161
g60
sg162
Nsg163
Nsg164
Nsbag2
(g3
g4
Ntp2235
Rp2236
(dp2237
g8
g11
sg142
Nsg143
(dp2238
sg145
Nsg26
g29
sg146
(lp2239
I10
aI19
asg148
Nsg149
VJoshua 10:19
p2240
sg151
(lp2241
sg153
g104
sg154
Nsg155
(lp2242
I10
aI19
asg157
Nsg158
g2240
sg159
(lp2243
sg161
g60
sg162
Nsg163
Nsg164
Nsbag2
(g3
g4
Ntp2244
Rp2245
(dp2246
g8
g11
sg142
Nsg143
(dp2247
sg145
Nsg26
g29
sg146
(lp2248
I10
aI20
asg148
Nsg149
VJoshua 10:20
p2249
sg151
(lp2250
sg153
g104
sg154
Nsg155
(lp2251
I10
aI20
asg157
Nsg158
g2249
sg159
(lp2252
sg161
g60
sg162
Nsg163
Nsg164
Nsbag2
(g3
g4
Ntp2253
Rp2254
(dp2255
g8
g11
sg142
Nsg143
(dp2256
sg145
Nsg26
g29
sg146
(lp2257
I10
aI21
asg148
Nsg149
VJoshua 10:21
p2258
sg151
(lp2259
sg153
g104
sg154
Nsg155
(lp2260
I10
aI21
asg157
Nsg158
g2258
sg159
(lp2261
sg161
g60
sg162
Nsg163
Nsg164
Nsbag2
(g3
g4
Ntp2262
Rp2263
(dp2264
g8
g11
sg142
Nsg143
(dp2265
sg145
Nsg26
g29
sg146
(lp2266
I10
aI22
asg148
Nsg149
VJoshua 10:22
p2267
sg151
(lp2268
sg153
g104
sg154
Nsg155
(lp2269
I10
aI22
asg157
Nsg158
g2267
sg159
(lp2270
sg161
g60
sg162
Nsg163
Nsg164
Nsbag2
(g3
g4
Ntp2271
Rp2272
(dp2273
g8
g11
sg142
Nsg143
(dp2274
sg145
Nsg26
g29
sg146
(lp2275
I10
aI23
asg148
Nsg149
VJoshua 10:23
p2276
sg151
(lp2277
sg153
g104
sg154
Nsg155
(lp2278
I10
aI23
asg157
Nsg158
g2276
sg159
(lp2279
sg161
g60
sg162
Nsg163
Nsg164
Nsbag2
(g3
g4
Ntp2280
Rp2281
(dp2282
g8
g11
sg142
Nsg143
(dp2283
sg145
Nsg26
g29
sg146
(lp2284
I10
aI24
asg148
Nsg149
VJoshua 10:24
p2285
sg151
(lp2286
sg153
g104
sg154
Nsg155
(lp2287
I10
aI24
asg157
Nsg158
g2285
sg159
(lp2288
sg161
g60
sg162
Nsg163
Nsg164
Nsbag2
(g3
g4
Ntp2289
Rp2290
(dp2291
g8
g11
sg142
Nsg143
(dp2292
sg145
Nsg26
g29
sg146
(lp2293
I10
aI25
asg148
Nsg149
VJoshua 10:25
p2294
sg151
(lp2295
sg153
g104
sg154
Nsg155
(lp2296
I10
aI25
asg157
Nsg158
g2294
sg159
(lp2297
sg161
g60
sg162
Nsg163
Nsg164
Nsbag2
(g3
g4
Ntp2298
Rp2299
(dp2300
g8
g11
sg142
Nsg143
(dp2301
sg145
Nsg26
g29
sg146
(lp2302
I10
aI26
asg148
Nsg149
VJoshua 10:26
p2303
sg151
(lp2304
sg153
g104
sg154
Nsg155
(lp2305
I10
aI26
asg157
Nsg158
g2303
sg159
(lp2306
sg161
g60
sg162
Nsg163
Nsg164
Nsbag2
(g3
g4
Ntp2307
Rp2308
(dp2309
g8
g11
sg142
Nsg143
(dp2310
sg145
Nsg26
g29
sg146
(lp2311
I10
aI27
asg148
Nsg149
VJoshua 10:27
p2312
sg151
(lp2313
sg153
g104
sg154
Nsg155
(lp2314
I10
aI27
asg157
Nsg158
g2312
sg159
(lp2315
sg161
g60
sg162
Nsg163
Nsg164
Nsbag2
(g3
g4
Ntp2316
Rp2317
(dp2318
g8
g11
sg142
Nsg143
(dp2319
sg145
Nsg26
g29
sg146
(lp2320
I10
aI28
asg148
Nsg149
VJoshua 10:28
p2321
sg151
(lp2322
sg153
g104
sg154
Nsg155
(lp2323
I10
aI28
asg157
Nsg158
g2321
sg159
(lp2324
sg161
g60
sg162
Nsg163
Nsg164
Nsbag2
(g3
g4
Ntp2325
Rp2326
(dp2327
g8
g11
sg142
Nsg143
(dp2328
sg145
Nsg26
g29
sg146
(lp2329
I10
aI29
asg148
Nsg149
VJoshua 10:29
p2330
sg151
(lp2331
sg153
g104
sg154
Nsg155
(lp2332
I10
aI29
asg157
Nsg158
g2330
sg159
(lp2333
sg161
g60
sg162
Nsg163
Nsg164
Nsbag2
(g3
g4
Ntp2334
Rp2335
(dp2336
g8
g11
sg142
Nsg143
(dp2337
sg145
Nsg26
g29
sg146
(lp2338
I10
aI30
asg148
Nsg149
VJoshua 10:30
p2339
sg151
(lp2340
sg153
g104
sg154
Nsg155
(lp2341
I10
aI30
asg157
Nsg158
g2339
sg159
(lp2342
sg161
g60
sg162
Nsg163
Nsg164
Nsbag2
(g3
g4
Ntp2343
Rp2344
(dp2345
g8
g11
sg142
Nsg143
(dp2346
sg145
Nsg26
g29
sg146
(lp2347
I10
aI31
asg148
Nsg149
VJoshua 10:31
p2348
sg151
(lp2349
sg153
g104
sg154
Nsg155
(lp2350
I10
aI31
asg157
Nsg158
g2348
sg159
(lp2351
sg161
g60
sg162
Nsg163
Nsg164
Nsbag2
(g3
g4
Ntp2352
Rp2353
(dp2354
g8
g11
sg142
Nsg143
(dp2355
sg145
Nsg26
g29
sg146
(lp2356
I10
aI32
asg148
Nsg149
VJoshua 10:32
p2357
sg151
(lp2358
sg153
g104
sg154
Nsg155
(lp2359
I10
aI32
asg157
Nsg158
g2357
sg159
(lp2360
sg161
g60
sg162
Nsg163
Nsg164
Nsbag2
(g3
g4
Ntp2361
Rp2362
(dp2363
g8
g11
sg142
Nsg143
(dp2364
sg145
Nsg26
g29
sg146
(lp2365
I10
aI33
asg148
Nsg149
VJoshua 10:33
p2366
sg151
(lp2367
sg153
g104
sg154
Nsg155
(lp2368
I10
aI33
asg157
Nsg158
g2366
sg159
(lp2369
sg161
g60
sg162
Nsg163
Nsg164
Nsbag2
(g3
g4
Ntp2370
Rp2371
(dp2372
g8
g11
sg142
Nsg143
(dp2373
sg145
Nsg26
g29
sg146
(lp2374
I10
aI34
asg148
Nsg149
VJoshua 10:34
p2375
sg151
(lp2376
sg153
g104
sg154
Nsg155
(lp2377
I10
aI34
asg157
Nsg158
g2375
sg159
(lp2378
sg161
g60
sg162
Nsg163
Nsg164
Nsbag2
(g3
g4
Ntp2379
Rp2380
(dp2381
g8
g11
sg142
Nsg143
(dp2382
sg145
Nsg26
g29
sg146
(lp2383
I10
aI35
asg148
Nsg149
VJoshua 10:35
p2384
sg151
(lp2385
sg153
g104
sg154
Nsg155
(lp2386
I10
aI35
asg157
Nsg158
g2384
sg159
(lp2387
sg161
g60
sg162
Nsg163
Nsg164
Nsbag2
(g3
g4
Ntp2388
Rp2389
(dp2390
g8
g11
sg142
Nsg143
(dp2391
sg145
Nsg26
g29
sg146
(lp2392
I10
aI36
asg148
Nsg149
VJoshua 10:36
p2393
sg151
(lp2394
sg153
g104
sg154
Nsg155
(lp2395
I10
aI36
asg157
Nsg158
g2393
sg159
(lp2396
sg161
g60
sg162
Nsg163
Nsg164
Nsbag2
(g3
g4
Ntp2397
Rp2398
(dp2399
g8
g11
sg142
Nsg143
(dp2400
sg145
Nsg26
g29
sg146
(lp2401
I10
aI37
asg148
Nsg149
VJoshua 10:37
p2402
sg151
(lp2403
sg153
g104
sg154
Nsg155
(lp2404
I10
aI37
asg157
Nsg158
g2402
sg159
(lp2405
sg161
g60
sg162
Nsg163
Nsg164
Nsbag2
(g3
g4
Ntp2406
Rp2407
(dp2408
g8
g11
sg142
Nsg143
(dp2409
sg145
Nsg26
g29
sg146
(lp2410
I10
aI38
asg148
Nsg149
VJoshua 10:38
p2411
sg151
(lp2412
sg153
g104
sg154
Nsg155
(lp2413
I10
aI38
asg157
Nsg158
g2411
sg159
(lp2414
sg161
g60
sg162
Nsg163
Nsg164
Nsbag2
(g3
g4
Ntp2415
Rp2416
(dp2417
g8
g11
sg142
Nsg143
(dp2418
sg145
Nsg26
g29
sg146
(lp2419
I10
aI39
asg148
Nsg149
VJoshua 10:39
p2420
sg151
(lp2421
sg153
g104
sg154
Nsg155
(lp2422
I10
aI39
asg157
Nsg158
g2420
sg159
(lp2423
sg161
g60
sg162
Nsg163
Nsg164
Nsbag2
(g3
g4
Ntp2424
Rp2425
(dp2426
g8
g11
sg142
Nsg143
(dp2427
sg145
Nsg26
g29
sg146
(lp2428
I10
aI40
asg148
Nsg149
VJoshua 10:40
p2429
sg151
(lp2430
sg153
g104
sg154
Nsg155
(lp2431
I10
aI40
asg157
Nsg158
g2429
sg159
(lp2432
sg161
g60
sg162
Nsg163
Nsg164
Nsbag2
(g3
g4
Ntp2433
Rp2434
(dp2435
g8
g11
sg142
Nsg143
(dp2436
sg145
Nsg26
g29
sg146
(lp2437
I10
aI41
asg148
Nsg149
VJoshua 10:41
p2438
sg151
(lp2439
sg153
g104
sg154
Nsg155
(lp2440
I10
aI41
asg157
Nsg158
g2438
sg159
(lp2441
sg161
g60
sg162
Nsg163
Nsg164
Nsbag2
(g3
g4
Ntp2442
Rp2443
(dp2444
g8
g11
sg142
Nsg143
(dp2445
sg145
Nsg26
g29
sg146
(lp2446
I10
aI42
asg148
Nsg149
VJoshua 10:42
p2447
sg151
(lp2448
sg153
g104
sg154
Nsg155
(lp2449
I10
aI42
asg157
Nsg158
g2447
sg159
(lp2450
sg161
g60
sg162
Nsg163
Nsg164
Nsbag2
(g3
g4
Ntp2451
Rp2452
(dp2453
g8
g11
sg142
Nsg143
(dp2454
sg145
Nsg26
g29
sg146
(lp2455
I10
aI43
asg148
Nsg149
VJoshua 10:43
p2456
sg151
(lp2457
sg153
g104
sg154
Nsg155
(lp2458
I10
aI43
asg157
Nsg158
g2456
sg159
(lp2459
sg161
g60
sg162
Nsg163
Nsg164
Nsbag2
(g3
g4
Ntp2460
Rp2461
(dp2462
g8
g11
sg142
Nsg143
(dp2463
sg145
Nsg26
g29
sg146
(lp2464
I11
aI1
asg148
Nsg149
VJoshua 11:1
p2465
sg151
(lp2466
sg153
g104
sg154
Nsg155
(lp2467
I11
aI1
asg157
Nsg158
g2465
sg159
(lp2468
sg161
g60
sg162
Nsg163
Nsg164
Nsbag2
(g3
g4
Ntp2469
Rp2470
(dp2471
g8
g11
sg142
Nsg143
(dp2472
sg145
Nsg26
g29
sg146
(lp2473
I11
aI2
asg148
Nsg149
VJoshua 11:2
p2474
sg151
(lp2475
sg153
g104
sg154
Nsg155
(lp2476
I11
aI2
asg157
Nsg158
g2474
sg159
(lp2477
sg161
g60
sg162
Nsg163
Nsg164
Nsbag2
(g3
g4
Ntp2478
Rp2479
(dp2480
g8
g11
sg142
Nsg143
(dp2481
sg145
Nsg26
g29
sg146
(lp2482
I11
aI3
asg148
Nsg149
VJoshua 11:3
p2483
sg151
(lp2484
sg153
g104
sg154
Nsg155
(lp2485
I11
aI3
asg157
Nsg158
g2483
sg159
(lp2486
sg161
g60
sg162
Nsg163
Nsg164
Nsbag2
(g3
g4
Ntp2487
Rp2488
(dp2489
g8
g11
sg142
Nsg143
(dp2490
sg145
Nsg26
g29
sg146
(lp2491
I11
aI4
asg148
Nsg149
VJoshua 11:4
p2492
sg151
(lp2493
sg153
g104
sg154
Nsg155
(lp2494
I11
aI4
asg157
Nsg158
g2492
sg159
(lp2495
sg161
g60
sg162
Nsg163
Nsg164
Nsbag2
(g3
g4
Ntp2496
Rp2497
(dp2498
g8
g11
sg142
Nsg143
(dp2499
sg145
Nsg26
g29
sg146
(lp2500
I11
aI5
asg148
Nsg149
VJoshua 11:5
p2501
sg151
(lp2502
sg153
g104
sg154
Nsg155
(lp2503
I11
aI5
asg157
Nsg158
g2501
sg159
(lp2504
sg161
g60
sg162
Nsg163
Nsg164
Nsbag2
(g3
g4
Ntp2505
Rp2506
(dp2507
g8
g11
sg142
Nsg143
(dp2508
sg145
Nsg26
g29
sg146
(lp2509
I11
aI6
asg148
Nsg149
VJoshua 11:6
p2510
sg151
(lp2511
sg153
g104
sg154
Nsg155
(lp2512
I11
aI6
asg157
Nsg158
g2510
sg159
(lp2513
sg161
g60
sg162
Nsg163
Nsg164
Nsbag2
(g3
g4
Ntp2514
Rp2515
(dp2516
g8
g11
sg142
Nsg143
(dp2517
sg145
Nsg26
g29
sg146
(lp2518
I11
aI7
asg148
Nsg149
VJoshua 11:7
p2519
sg151
(lp2520
sg153
g104
sg154
Nsg155
(lp2521
I11
aI7
asg157
Nsg158
g2519
sg159
(lp2522
sg161
g60
sg162
Nsg163
Nsg164
Nsbag2
(g3
g4
Ntp2523
Rp2524
(dp2525
g8
g11
sg142
Nsg143
(dp2526
sg145
Nsg26
g29
sg146
(lp2527
I11
aI8
asg148
Nsg149
VJoshua 11:8
p2528
sg151
(lp2529
sg153
g104
sg154
Nsg155
(lp2530
I11
aI8
asg157
Nsg158
g2528
sg159
(lp2531
sg161
g60
sg162
Nsg163
Nsg164
Nsbag2
(g3
g4
Ntp2532
Rp2533
(dp2534
g8
g11
sg142
Nsg143
(dp2535
sg145
Nsg26
g29
sg146
(lp2536
I11
aI9
asg148
Nsg149
VJoshua 11:9
p2537
sg151
(lp2538
sg153
g104
sg154
Nsg155
(lp2539
I11
aI9
asg157
Nsg158
g2537
sg159
(lp2540
sg161
g60
sg162
Nsg163
Nsg164
Nsbag2
(g3
g4
Ntp2541
Rp2542
(dp2543
g8
g11
sg142
Nsg143
(dp2544
sg145
Nsg26
g29
sg146
(lp2545
I11
aI10
asg148
Nsg149
VJoshua 11:10
p2546
sg151
(lp2547
sg153
g104
sg154
Nsg155
(lp2548
I11
aI10
asg157
Nsg158
g2546
sg159
(lp2549
sg161
g60
sg162
Nsg163
Nsg164
Nsbag2
(g3
g4
Ntp2550
Rp2551
(dp2552
g8
g11
sg142
Nsg143
(dp2553
sg145
Nsg26
g29
sg146
(lp2554
I11
aI11
asg148
Nsg149
VJoshua 11:11
p2555
sg151
(lp2556
sg153
g104
sg154
Nsg155
(lp2557
I11
aI11
asg157
Nsg158
g2555
sg159
(lp2558
sg161
g60
sg162
Nsg163
Nsg164
Nsbag2
(g3
g4
Ntp2559
Rp2560
(dp2561
g8
g11
sg142
Nsg143
(dp2562
sg145
Nsg26
g29
sg146
(lp2563
I11
aI12
asg148
Nsg149
VJoshua 11:12
p2564
sg151
(lp2565
sg153
g104
sg154
Nsg155
(lp2566
I11
aI12
asg157
Nsg158
g2564
sg159
(lp2567
sg161
g60
sg162
Nsg163
Nsg164
Nsbag2
(g3
g4
Ntp2568
Rp2569
(dp2570
g8
g11
sg142
Nsg143
(dp2571
sg145
Nsg26
g29
sg146
(lp2572
I11
aI13
asg148
Nsg149
VJoshua 11:13
p2573
sg151
(lp2574
sg153
g104
sg154
Nsg155
(lp2575
I11
aI13
asg157
Nsg158
g2573
sg159
(lp2576
sg161
g60
sg162
Nsg163
Nsg164
Nsbag2
(g3
g4
Ntp2577
Rp2578
(dp2579
g8
g11
sg142
Nsg143
(dp2580
sg145
Nsg26
g29
sg146
(lp2581
I11
aI14
asg148
Nsg149
VJoshua 11:14
p2582
sg151
(lp2583
sg153
g104
sg154
Nsg155
(lp2584
I11
aI14
asg157
Nsg158
g2582
sg159
(lp2585
sg161
g60
sg162
Nsg163
Nsg164
Nsbag2
(g3
g4
Ntp2586
Rp2587
(dp2588
g8
g11
sg142
Nsg143
(dp2589
sg145
Nsg26
g29
sg146
(lp2590
I11
aI15
asg148
Nsg149
VJoshua 11:15
p2591
sg151
(lp2592
sg153
g104
sg154
Nsg155
(lp2593
I11
aI15
asg157
Nsg158
g2591
sg159
(lp2594
sg161
g60
sg162
Nsg163
Nsg164
Nsbag2
(g3
g4
Ntp2595
Rp2596
(dp2597
g8
g11
sg142
Nsg143
(dp2598
sg145
Nsg26
g29
sg146
(lp2599
I11
aI16
asg148
Nsg149
VJoshua 11:16
p2600
sg151
(lp2601
sg153
g104
sg154
Nsg155
(lp2602
I11
aI16
asg157
Nsg158
g2600
sg159
(lp2603
sg161
g60
sg162
Nsg163
Nsg164
Nsbag2
(g3
g4
Ntp2604
Rp2605
(dp2606
g8
g11
sg142
Nsg143
(dp2607
sg145
Nsg26
g29
sg146
(lp2608
I11
aI17
asg148
Nsg149
VJoshua 11:17
p2609
sg151
(lp2610
sg153
g104
sg154
Nsg155
(lp2611
I11
aI17
asg157
Nsg158
g2609
sg159
(lp2612
sg161
g60
sg162
Nsg163
Nsg164
Nsbag2
(g3
g4
Ntp2613
Rp2614
(dp2615
g8
g11
sg142
Nsg143
(dp2616
sg145
Nsg26
g29
sg146
(lp2617
I11
aI18
asg148
Nsg149
VJoshua 11:18
p2618
sg151
(lp2619
sg153
g104
sg154
Nsg155
(lp2620
I11
aI18
asg157
Nsg158
g2618
sg159
(lp2621
sg161
g60
sg162
Nsg163
Nsg164
Nsbag2
(g3
g4
Ntp2622
Rp2623
(dp2624
g8
g11
sg142
Nsg143
(dp2625
sg145
Nsg26
g29
sg146
(lp2626
I11
aI19
asg148
Nsg149
VJoshua 11:19
p2627
sg151
(lp2628
sg153
g104
sg154
Nsg155
(lp2629
I11
aI19
asg157
Nsg158
g2627
sg159
(lp2630
sg161
g60
sg162
Nsg163
Nsg164
Nsbag2
(g3
g4
Ntp2631
Rp2632
(dp2633
g8
g11
sg142
Nsg143
(dp2634
sg145
Nsg26
g29
sg146
(lp2635
I11
aI20
asg148
Nsg149
VJoshua 11:20
p2636
sg151
(lp2637
sg153
g104
sg154
Nsg155
(lp2638
I11
aI20
asg157
Nsg158
g2636
sg159
(lp2639
sg161
g60
sg162
Nsg163
Nsg164
Nsbag2
(g3
g4
Ntp2640
Rp2641
(dp2642
g8
g11
sg142
Nsg143
(dp2643
sg145
Nsg26
g29
sg146
(lp2644
I11
aI21
asg148
Nsg149
VJoshua 11:21
p2645
sg151
(lp2646
sg153
g104
sg154
Nsg155
(lp2647
I11
aI21
asg157
Nsg158
g2645
sg159
(lp2648
sg161
g60
sg162
Nsg163
Nsg164
Nsbag2
(g3
g4
Ntp2649
Rp2650
(dp2651
g8
g11
sg142
Nsg143
(dp2652
sg145
Nsg26
g29
sg146
(lp2653
I11
aI22
asg148
Nsg149
VJoshua 11:22
p2654
sg151
(lp2655
sg153
g104
sg154
Nsg155
(lp2656
I11
aI22
asg157
Nsg158
g2654
sg159
(lp2657
sg161
g60
sg162
Nsg163
Nsg164
Nsbag2
(g3
g4
Ntp2658
Rp2659
(dp2660
g8
g11
sg142
Nsg143
(dp2661
sg145
Nsg26
g29
sg146
(lp2662
I11
aI23
asg148
Nsg149
VJoshua 11:23
p2663
sg151
(lp2664
sg153
g104
sg154
Nsg155
(lp2665
I11
aI23
asg157
Nsg158
g2663
sg159
(lp2666
sg161
g60
sg162
Nsg163
Nsg164
Nsbag2
(g3
g4
Ntp2667
Rp2668
(dp2669
g8
g11
sg142
Nsg143
(dp2670
sg145
Nsg26
g29
sg146
(lp2671
I12
aI1
asg148
Nsg149
VJoshua 12:1
p2672
sg151
(lp2673
sg153
g104
sg154
Nsg155
(lp2674
I12
aI1
asg157
Nsg158
g2672
sg159
(lp2675
sg161
g60
sg162
Nsg163
Nsg164
Nsbag2
(g3
g4
Ntp2676
Rp2677
(dp2678
g8
g11
sg142
Nsg143
(dp2679
sg145
Nsg26
g29
sg146
(lp2680
I12
aI2
asg148
Nsg149
VJoshua 12:2
p2681
sg151
(lp2682
sg153
g104
sg154
Nsg155
(lp2683
I12
aI2
asg157
Nsg158
g2681
sg159
(lp2684
sg161
g60
sg162
Nsg163
Nsg164
Nsbag2
(g3
g4
Ntp2685
Rp2686
(dp2687
g8
g11
sg142
Nsg143
(dp2688
sg145
Nsg26
g29
sg146
(lp2689
I12
aI3
asg148
Nsg149
VJoshua 12:3
p2690
sg151
(lp2691
sg153
g104
sg154
Nsg155
(lp2692
I12
aI3
asg157
Nsg158
g2690
sg159
(lp2693
sg161
g60
sg162
Nsg163
Nsg164
Nsbag2
(g3
g4
Ntp2694
Rp2695
(dp2696
g8
g11
sg142
Nsg143
(dp2697
sg145
Nsg26
g29
sg146
(lp2698
I12
aI4
asg148
Nsg149
VJoshua 12:4
p2699
sg151
(lp2700
sg153
g104
sg154
Nsg155
(lp2701
I12
aI4
asg157
Nsg158
g2699
sg159
(lp2702
sg161
g60
sg162
Nsg163
Nsg164
Nsbag2
(g3
g4
Ntp2703
Rp2704
(dp2705
g8
g11
sg142
Nsg143
(dp2706
sg145
Nsg26
g29
sg146
(lp2707
I12
aI5
asg148
Nsg149
VJoshua 12:5
p2708
sg151
(lp2709
sg153
g104
sg154
Nsg155
(lp2710
I12
aI5
asg157
Nsg158
g2708
sg159
(lp2711
sg161
g60
sg162
Nsg163
Nsg164
Nsbag2
(g3
g4
Ntp2712
Rp2713
(dp2714
g8
g11
sg142
Nsg143
(dp2715
sg145
Nsg26
g29
sg146
(lp2716
I12
aI6
asg148
Nsg149
VJoshua 12:6
p2717
sg151
(lp2718
sg153
g104
sg154
Nsg155
(lp2719
I12
aI6
asg157
Nsg158
g2717
sg159
(lp2720
sg161
g60
sg162
Nsg163
Nsg164
Nsbag2
(g3
g4
Ntp2721
Rp2722
(dp2723
g8
g11
sg142
Nsg143
(dp2724
sg145
Nsg26
g29
sg146
(lp2725
I12
aI7
asg148
Nsg149
VJoshua 12:7
p2726
sg151
(lp2727
sg153
g104
sg154
Nsg155
(lp2728
I12
aI7
asg157
Nsg158
g2726
sg159
(lp2729
sg161
g60
sg162
Nsg163
Nsg164
Nsbag2
(g3
g4
Ntp2730
Rp2731
(dp2732
g8
g11
sg142
Nsg143
(dp2733
sg145
Nsg26
g29
sg146
(lp2734
I12
aI8
asg148
Nsg149
VJoshua 12:8
p2735
sg151
(lp2736
sg153
g104
sg154
Nsg155
(lp2737
I12
aI8
asg157
Nsg158
g2735
sg159
(lp2738
sg161
g60
sg162
Nsg163
Nsg164
Nsbag2
(g3
g4
Ntp2739
Rp2740
(dp2741
g8
g11
sg142
Nsg143
(dp2742
sg145
Nsg26
g29
sg146
(lp2743
I12
aI9
asg148
Nsg149
VJoshua 12:9
p2744
sg151
(lp2745
sg153
g104
sg154
Nsg155
(lp2746
I12
aI9
asg157
Nsg158
g2744
sg159
(lp2747
sg161
g60
sg162
Nsg163
Nsg164
Nsbag2
(g3
g4
Ntp2748
Rp2749
(dp2750
g8
g11
sg142
Nsg143
(dp2751
sg145
Nsg26
g29
sg146
(lp2752
I12
aI10
asg148
Nsg149
VJoshua 12:10
p2753
sg151
(lp2754
sg153
g104
sg154
Nsg155
(lp2755
I12
aI10
asg157
Nsg158
g2753
sg159
(lp2756
sg161
g60
sg162
Nsg163
Nsg164
Nsbag2
(g3
g4
Ntp2757
Rp2758
(dp2759
g8
g11
sg142
Nsg143
(dp2760
sg145
Nsg26
g29
sg146
(lp2761
I12
aI11
asg148
Nsg149
VJoshua 12:11
p2762
sg151
(lp2763
sg153
g104
sg154
Nsg155
(lp2764
I12
aI11
asg157
Nsg158
g2762
sg159
(lp2765
sg161
g60
sg162
Nsg163
Nsg164
Nsbag2
(g3
g4
Ntp2766
Rp2767
(dp2768
g8
g11
sg142
Nsg143
(dp2769
sg145
Nsg26
g29
sg146
(lp2770
I12
aI12
asg148
Nsg149
VJoshua 12:12
p2771
sg151
(lp2772
sg153
g104
sg154
Nsg155
(lp2773
I12
aI12
asg157
Nsg158
g2771
sg159
(lp2774
sg161
g60
sg162
Nsg163
Nsg164
Nsbag2
(g3
g4
Ntp2775
Rp2776
(dp2777
g8
g11
sg142
Nsg143
(dp2778
sg145
Nsg26
g29
sg146
(lp2779
I12
aI13
asg148
Nsg149
VJoshua 12:13
p2780
sg151
(lp2781
sg153
g104
sg154
Nsg155
(lp2782
I12
aI13
asg157
Nsg158
g2780
sg159
(lp2783
sg161
g60
sg162
Nsg163
Nsg164
Nsbag2
(g3
g4
Ntp2784
Rp2785
(dp2786
g8
g11
sg142
Nsg143
(dp2787
sg145
Nsg26
g29
sg146
(lp2788
I12
aI14
asg148
Nsg149
VJoshua 12:14
p2789
sg151
(lp2790
sg153
g104
sg154
Nsg155
(lp2791
I12
aI14
asg157
Nsg158
g2789
sg159
(lp2792
sg161
g60
sg162
Nsg163
Nsg164
Nsbag2
(g3
g4
Ntp2793
Rp2794
(dp2795
g8
g11
sg142
Nsg143
(dp2796
sg145
Nsg26
g29
sg146
(lp2797
I12
aI15
asg148
Nsg149
VJoshua 12:15
p2798
sg151
(lp2799
sg153
g104
sg154
Nsg155
(lp2800
I12
aI15
asg157
Nsg158
g2798
sg159
(lp2801
sg161
g60
sg162
Nsg163
Nsg164
Nsbag2
(g3
g4
Ntp2802
Rp2803
(dp2804
g8
g11
sg142
Nsg143
(dp2805
sg145
Nsg26
g29
sg146
(lp2806
I12
aI16
asg148
Nsg149
VJoshua 12:16
p2807
sg151
(lp2808
sg153
g104
sg154
Nsg155
(lp2809
I12
aI16
asg157
Nsg158
g2807
sg159
(lp2810
sg161
g60
sg162
Nsg163
Nsg164
Nsbag2
(g3
g4
Ntp2811
Rp2812
(dp2813
g8
g11
sg142
Nsg143
(dp2814
sg145
Nsg26
g29
sg146
(lp2815
I12
aI17
asg148
Nsg149
VJoshua 12:17
p2816
sg151
(lp2817
sg153
g104
sg154
Nsg155
(lp2818
I12
aI17
asg157
Nsg158
g2816
sg159
(lp2819
sg161
g60
sg162
Nsg163
Nsg164
Nsbag2
(g3
g4
Ntp2820
Rp2821
(dp2822
g8
g11
sg142
Nsg143
(dp2823
sg145
Nsg26
g29
sg146
(lp2824
I12
aI18
asg148
Nsg149
VJoshua 12:18
p2825
sg151
(lp2826
sg153
g104
sg154
Nsg155
(lp2827
I12
aI18
asg157
Nsg158
g2825
sg159
(lp2828
sg161
g60
sg162
Nsg163
Nsg164
Nsbag2
(g3
g4
Ntp2829
Rp2830
(dp2831
g8
g11
sg142
Nsg143
(dp2832
sg145
Nsg26
g29
sg146
(lp2833
I12
aI19
asg148
Nsg149
VJoshua 12:19
p2834
sg151
(lp2835
sg153
g104
sg154
Nsg155
(lp2836
I12
aI19
asg157
Nsg158
g2834
sg159
(lp2837
sg161
g60
sg162
Nsg163
Nsg164
Nsbag2
(g3
g4
Ntp2838
Rp2839
(dp2840
g8
g11
sg142
Nsg143
(dp2841
sg145
Nsg26
g29
sg146
(lp2842
I12
aI20
asg148
Nsg149
VJoshua 12:20
p2843
sg151
(lp2844
sg153
g104
sg154
Nsg155
(lp2845
I12
aI20
asg157
Nsg158
g2843
sg159
(lp2846
sg161
g60
sg162
Nsg163
Nsg164
Nsbag2
(g3
g4
Ntp2847
Rp2848
(dp2849
g8
g11
sg142
Nsg143
(dp2850
sg145
Nsg26
g29
sg146
(lp2851
I12
aI21
asg148
Nsg149
VJoshua 12:21
p2852
sg151
(lp2853
sg153
g104
sg154
Nsg155
(lp2854
I12
aI21
asg157
Nsg158
g2852
sg159
(lp2855
sg161
g60
sg162
Nsg163
Nsg164
Nsbag2
(g3
g4
Ntp2856
Rp2857
(dp2858
g8
g11
sg142
Nsg143
(dp2859
sg145
Nsg26
g29
sg146
(lp2860
I12
aI22
asg148
Nsg149
VJoshua 12:22
p2861
sg151
(lp2862
sg153
g104
sg154
Nsg155
(lp2863
I12
aI22
asg157
Nsg158
g2861
sg159
(lp2864
sg161
g60
sg162
Nsg163
Nsg164
Nsbag2
(g3
g4
Ntp2865
Rp2866
(dp2867
g8
g11
sg142
Nsg143
(dp2868
sg145
Nsg26
g29
sg146
(lp2869
I12
aI23
asg148
Nsg149
VJoshua 12:23
p2870
sg151
(lp2871
sg153
g104
sg154
Nsg155
(lp2872
I12
aI23
asg157
Nsg158
g2870
sg159
(lp2873
sg161
g60
sg162
Nsg163
Nsg164
Nsbag2
(g3
g4
Ntp2874
Rp2875
(dp2876
g8
g11
sg142
Nsg143
(dp2877
sg145
Nsg26
g29
sg146
(lp2878
I12
aI24
asg148
Nsg149
VJoshua 12:24
p2879
sg151
(lp2880
sg153
g104
sg154
Nsg155
(lp2881
I12
aI24
asg157
Nsg158
g2879
sg159
(lp2882
sg161
g60
sg162
Nsg163
Nsg164
Nsbag2
(g3
g4
Ntp2883
Rp2884
(dp2885
g8
g11
sg142
Nsg143
(dp2886
sg145
Nsg26
g29
sg146
(lp2887
I13
aI1
asg148
Nsg149
VJoshua 13:1
p2888
sg151
(lp2889
sg153
g104
sg154
Nsg155
(lp2890
I13
aI1
asg157
Nsg158
g2888
sg159
(lp2891
sg161
g60
sg162
Nsg163
Nsg164
Nsbag2
(g3
g4
Ntp2892
Rp2893
(dp2894
g8
g11
sg142
Nsg143
(dp2895
sg145
Nsg26
g29
sg146
(lp2896
I13
aI2
asg148
Nsg149
VJoshua 13:2
p2897
sg151
(lp2898
sg153
g104
sg154
Nsg155
(lp2899
I13
aI2
asg157
Nsg158
g2897
sg159
(lp2900
sg161
g60
sg162
Nsg163
Nsg164
Nsbag2
(g3
g4
Ntp2901
Rp2902
(dp2903
g8
g11
sg142
Nsg143
(dp2904
sg145
Nsg26
g29
sg146
(lp2905
I13
aI3
asg148
Nsg149
VJoshua 13:3
p2906
sg151
(lp2907
sg153
g104
sg154
Nsg155
(lp2908
I13
aI3
asg157
Nsg158
g2906
sg159
(lp2909
sg161
g60
sg162
Nsg163
Nsg164
Nsbag2
(g3
g4
Ntp2910
Rp2911
(dp2912
g8
g11
sg142
Nsg143
(dp2913
sg145
Nsg26
g29
sg146
(lp2914
I13
aI4
asg148
Nsg149
VJoshua 13:4
p2915
sg151
(lp2916
sg153
g104
sg154
Nsg155
(lp2917
I13
aI4
asg157
Nsg158
g2915
sg159
(lp2918
sg161
g60
sg162
Nsg163
Nsg164
Nsbag2
(g3
g4
Ntp2919
Rp2920
(dp2921
g8
g11
sg142
Nsg143
(dp2922
sg145
Nsg26
g29
sg146
(lp2923
I13
aI5
asg148
Nsg149
VJoshua 13:5
p2924
sg151
(lp2925
sg153
g104
sg154
Nsg155
(lp2926
I13
aI5
asg157
Nsg158
g2924
sg159
(lp2927
sg161
g60
sg162
Nsg163
Nsg164
Nsbag2
(g3
g4
Ntp2928
Rp2929
(dp2930
g8
g11
sg142
Nsg143
(dp2931
sg145
Nsg26
g29
sg146
(lp2932
I13
aI6
asg148
Nsg149
VJoshua 13:6
p2933
sg151
(lp2934
sg153
g104
sg154
Nsg155
(lp2935
I13
aI6
asg157
Nsg158
g2933
sg159
(lp2936
sg161
g60
sg162
Nsg163
Nsg164
Nsbag2
(g3
g4
Ntp2937
Rp2938
(dp2939
g8
g11
sg142
Nsg143
(dp2940
sg145
Nsg26
g29
sg146
(lp2941
I13
aI7
asg148
Nsg149
VJoshua 13:7
p2942
sg151
(lp2943
sg153
g104
sg154
Nsg155
(lp2944
I13
aI7
asg157
Nsg158
g2942
sg159
(lp2945
sg161
g60
sg162
Nsg163
Nsg164
Nsbag2
(g3
g4
Ntp2946
Rp2947
(dp2948
g8
g11
sg142
Nsg143
(dp2949
sg145
Nsg26
g29
sg146
(lp2950
I13
aI8
asg148
Nsg149
VJoshua 13:8
p2951
sg151
(lp2952
sg153
g104
sg154
Nsg155
(lp2953
I13
aI8
asg157
Nsg158
g2951
sg159
(lp2954
sg161
g60
sg162
Nsg163
Nsg164
Nsbag2
(g3
g4
Ntp2955
Rp2956
(dp2957
g8
g11
sg142
Nsg143
(dp2958
sg145
Nsg26
g29
sg146
(lp2959
I13
aI9
asg148
Nsg149
VJoshua 13:9
p2960
sg151
(lp2961
sg153
g104
sg154
Nsg155
(lp2962
I13
aI9
asg157
Nsg158
g2960
sg159
(lp2963
sg161
g60
sg162
Nsg163
Nsg164
Nsbag2
(g3
g4
Ntp2964
Rp2965
(dp2966
g8
g11
sg142
Nsg143
(dp2967
sg145
Nsg26
g29
sg146
(lp2968
I13
aI10
asg148
Nsg149
VJoshua 13:10
p2969
sg151
(lp2970
sg153
g104
sg154
Nsg155
(lp2971
I13
aI10
asg157
Nsg158
g2969
sg159
(lp2972
sg161
g60
sg162
Nsg163
Nsg164
Nsbag2
(g3
g4
Ntp2973
Rp2974
(dp2975
g8
g11
sg142
Nsg143
(dp2976
sg145
Nsg26
g29
sg146
(lp2977
I13
aI11
asg148
Nsg149
VJoshua 13:11
p2978
sg151
(lp2979
sg153
g104
sg154
Nsg155
(lp2980
I13
aI11
asg157
Nsg158
g2978
sg159
(lp2981
sg161
g60
sg162
Nsg163
Nsg164
Nsbag2
(g3
g4
Ntp2982
Rp2983
(dp2984
g8
g11
sg142
Nsg143
(dp2985
sg145
Nsg26
g29
sg146
(lp2986
I13
aI12
asg148
Nsg149
VJoshua 13:12
p2987
sg151
(lp2988
sg153
g104
sg154
Nsg155
(lp2989
I13
aI12
asg157
Nsg158
g2987
sg159
(lp2990
sg161
g60
sg162
Nsg163
Nsg164
Nsbag2
(g3
g4
Ntp2991
Rp2992
(dp2993
g8
g11
sg142
Nsg143
(dp2994
sg145
Nsg26
g29
sg146
(lp2995
I13
aI13
asg148
Nsg149
VJoshua 13:13
p2996
sg151
(lp2997
sg153
g104
sg154
Nsg155
(lp2998
I13
aI13
asg157
Nsg158
g2996
sg159
(lp2999
sg161
g60
sg162
Nsg163
Nsg164
Nsbag2
(g3
g4
Ntp3000
Rp3001
(dp3002
g8
g11
sg142
Nsg143
(dp3003
sg145
Nsg26
g29
sg146
(lp3004
I13
aI14
asg148
Nsg149
VJoshua 13:14
p3005
sg151
(lp3006
sg153
g104
sg154
Nsg155
(lp3007
I13
aI14
asg157
Nsg158
g3005
sg159
(lp3008
sg161
g60
sg162
Nsg163
Nsg164
Nsbag2
(g3
g4
Ntp3009
Rp3010
(dp3011
g8
g11
sg142
Nsg143
(dp3012
sg145
Nsg26
g29
sg146
(lp3013
I13
aI15
asg148
Nsg149
VJoshua 13:15
p3014
sg151
(lp3015
sg153
g104
sg154
Nsg155
(lp3016
I13
aI15
asg157
Nsg158
g3014
sg159
(lp3017
sg161
g60
sg162
Nsg163
Nsg164
Nsbag2
(g3
g4
Ntp3018
Rp3019
(dp3020
g8
g11
sg142
Nsg143
(dp3021
sg145
Nsg26
g29
sg146
(lp3022
I13
aI16
asg148
Nsg149
VJoshua 13:16
p3023
sg151
(lp3024
sg153
g104
sg154
Nsg155
(lp3025
I13
aI16
asg157
Nsg158
g3023
sg159
(lp3026
sg161
g60
sg162
Nsg163
Nsg164
Nsbag2
(g3
g4
Ntp3027
Rp3028
(dp3029
g8
g11
sg142
Nsg143
(dp3030
sg145
Nsg26
g29
sg146
(lp3031
I13
aI17
asg148
Nsg149
VJoshua 13:17
p3032
sg151
(lp3033
sg153
g104
sg154
Nsg155
(lp3034
I13
aI17
asg157
Nsg158
g3032
sg159
(lp3035
sg161
g60
sg162
Nsg163
Nsg164
Nsbag2
(g3
g4
Ntp3036
Rp3037
(dp3038
g8
g11
sg142
Nsg143
(dp3039
sg145
Nsg26
g29
sg146
(lp3040
I13
aI18
asg148
Nsg149
VJoshua 13:18
p3041
sg151
(lp3042
sg153
g104
sg154
Nsg155
(lp3043
I13
aI18
asg157
Nsg158
g3041
sg159
(lp3044
sg161
g60
sg162
Nsg163
Nsg164
Nsbag2
(g3
g4
Ntp3045
Rp3046
(dp3047
g8
g11
sg142
Nsg143
(dp3048
sg145
Nsg26
g29
sg146
(lp3049
I13
aI19
asg148
Nsg149
VJoshua 13:19
p3050
sg151
(lp3051
sg153
g104
sg154
Nsg155
(lp3052
I13
aI19
asg157
Nsg158
g3050
sg159
(lp3053
sg161
g60
sg162
Nsg163
Nsg164
Nsbag2
(g3
g4
Ntp3054
Rp3055
(dp3056
g8
g11
sg142
Nsg143
(dp3057
sg145
Nsg26
g29
sg146
(lp3058
I13
aI20
asg148
Nsg149
VJoshua 13:20
p3059
sg151
(lp3060
sg153
g104
sg154
Nsg155
(lp3061
I13
aI20
asg157
Nsg158
g3059
sg159
(lp3062
sg161
g60
sg162
Nsg163
Nsg164
Nsbag2
(g3
g4
Ntp3063
Rp3064
(dp3065
g8
g11
sg142
Nsg143
(dp3066
sg145
Nsg26
g29
sg146
(lp3067
I13
aI21
asg148
Nsg149
VJoshua 13:21
p3068
sg151
(lp3069
sg153
g104
sg154
Nsg155
(lp3070
I13
aI21
asg157
Nsg158
g3068
sg159
(lp3071
sg161
g60
sg162
Nsg163
Nsg164
Nsbag2
(g3
g4
Ntp3072
Rp3073
(dp3074
g8
g11
sg142
Nsg143
(dp3075
sg145
Nsg26
g29
sg146
(lp3076
I13
aI22
asg148
Nsg149
VJoshua 13:22
p3077
sg151
(lp3078
sg153
g104
sg154
Nsg155
(lp3079
I13
aI22
asg157
Nsg158
g3077
sg159
(lp3080
sg161
g60
sg162
Nsg163
Nsg164
Nsbag2
(g3
g4
Ntp3081
Rp3082
(dp3083
g8
g11
sg142
Nsg143
(dp3084
sg145
Nsg26
g29
sg146
(lp3085
I13
aI23
asg148
Nsg149
VJoshua 13:23
p3086
sg151
(lp3087
sg153
g104
sg154
Nsg155
(lp3088
I13
aI23
asg157
Nsg158
g3086
sg159
(lp3089
sg161
g60
sg162
Nsg163
Nsg164
Nsbag2
(g3
g4
Ntp3090
Rp3091
(dp3092
g8
g11
sg142
Nsg143
(dp3093
sg145
Nsg26
g29
sg146
(lp3094
I13
aI24
asg148
Nsg149
VJoshua 13:24
p3095
sg151
(lp3096
sg153
g104
sg154
Nsg155
(lp3097
I13
aI24
asg157
Nsg158
g3095
sg159
(lp3098
sg161
g60
sg162
Nsg163
Nsg164
Nsbag2
(g3
g4
Ntp3099
Rp3100
(dp3101
g8
g11
sg142
Nsg143
(dp3102
sg145
Nsg26
g29
sg146
(lp3103
I13
aI25
asg148
Nsg149
VJoshua 13:25
p3104
sg151
(lp3105
sg153
g104
sg154
Nsg155
(lp3106
I13
aI25
asg157
Nsg158
g3104
sg159
(lp3107
sg161
g60
sg162
Nsg163
Nsg164
Nsbag2
(g3
g4
Ntp3108
Rp3109
(dp3110
g8
g11
sg142
Nsg143
(dp3111
sg145
Nsg26
g29
sg146
(lp3112
I13
aI26
asg148
Nsg149
VJoshua 13:26
p3113
sg151
(lp3114
sg153
g104
sg154
Nsg155
(lp3115
I13
aI26
asg157
Nsg158
g3113
sg159
(lp3116
sg161
g60
sg162
Nsg163
Nsg164
Nsbag2
(g3
g4
Ntp3117
Rp3118
(dp3119
g8
g11
sg142
Nsg143
(dp3120
sg145
Nsg26
g29
sg146
(lp3121
I13
aI27
asg148
Nsg149
VJoshua 13:27
p3122
sg151
(lp3123
sg153
g104
sg154
Nsg155
(lp3124
I13
aI27
asg157
Nsg158
g3122
sg159
(lp3125
sg161
g60
sg162
Nsg163
Nsg164
Nsbag2
(g3
g4
Ntp3126
Rp3127
(dp3128
g8
g11
sg142
Nsg143
(dp3129
sg145
Nsg26
g29
sg146
(lp3130
I13
aI28
asg148
Nsg149
VJoshua 13:28
p3131
sg151
(lp3132
sg153
g104
sg154
Nsg155
(lp3133
I13
aI28
asg157
Nsg158
g3131
sg159
(lp3134
sg161
g60
sg162
Nsg163
Nsg164
Nsbag2
(g3
g4
Ntp3135
Rp3136
(dp3137
g8
g11
sg142
Nsg143
(dp3138
sg145
Nsg26
g29
sg146
(lp3139
I13
aI29
asg148
Nsg149
VJoshua 13:29
p3140
sg151
(lp3141
sg153
g104
sg154
Nsg155
(lp3142
I13
aI29
asg157
Nsg158
g3140
sg159
(lp3143
sg161
g60
sg162
Nsg163
Nsg164
Nsbag2
(g3
g4
Ntp3144
Rp3145
(dp3146
g8
g11
sg142
Nsg143
(dp3147
sg145
Nsg26
g29
sg146
(lp3148
I13
aI30
asg148
Nsg149
VJoshua 13:30
p3149
sg151
(lp3150
sg153
g104
sg154
Nsg155
(lp3151
I13
aI30
asg157
Nsg158
g3149
sg159
(lp3152
sg161
g60
sg162
Nsg163
Nsg164
Nsbag2
(g3
g4
Ntp3153
Rp3154
(dp3155
g8
g11
sg142
Nsg143
(dp3156
sg145
Nsg26
g29
sg146
(lp3157
I13
aI31
asg148
Nsg149
VJoshua 13:31
p3158
sg151
(lp3159
sg153
g104
sg154
Nsg155
(lp3160
I13
aI31
asg157
Nsg158
g3158
sg159
(lp3161
sg161
g60
sg162
Nsg163
Nsg164
Nsbag2
(g3
g4
Ntp3162
Rp3163
(dp3164
g8
g11
sg142
Nsg143
(dp3165
sg145
Nsg26
g29
sg146
(lp3166
I13
aI32
asg148
Nsg149
VJoshua 13:32
p3167
sg151
(lp3168
sg153
g104
sg154
Nsg155
(lp3169
I13
aI32
asg157
Nsg158
g3167
sg159
(lp3170
sg161
g60
sg162
Nsg163
Nsg164
Nsbag2
(g3
g4
Ntp3171
Rp3172
(dp3173
g8
g11
sg142
Nsg143
(dp3174
sg145
Nsg26
g29
sg146
(lp3175
I13
aI33
asg148
Nsg149
VJoshua 13:33
p3176
sg151
(lp3177
sg153
g104
sg154
Nsg155
(lp3178
I13
aI33
asg157
Nsg158
g3176
sg159
(lp3179
sg161
g60
sg162
Nsg163
Nsg164
Nsbag2
(g3
g4
Ntp3180
Rp3181
(dp3182
g8
g11
sg142
Nsg143
(dp3183
sg145
Nsg26
g29
sg146
(lp3184
I14
aI1
asg148
Nsg149
VJoshua 14:1
p3185
sg151
(lp3186
sg153
g104
sg154
Nsg155
(lp3187
I14
aI1
asg157
Nsg158
g3185
sg159
(lp3188
sg161
g60
sg162
Nsg163
Nsg164
Nsbag2
(g3
g4
Ntp3189
Rp3190
(dp3191
g8
g11
sg142
Nsg143
(dp3192
sg145
Nsg26
g29
sg146
(lp3193
I14
aI2
asg148
Nsg149
VJoshua 14:2
p3194
sg151
(lp3195
sg153
g104
sg154
Nsg155
(lp3196
I14
aI2
asg157
Nsg158
g3194
sg159
(lp3197
sg161
g60
sg162
Nsg163
Nsg164
Nsbag2
(g3
g4
Ntp3198
Rp3199
(dp3200
g8
g11
sg142
Nsg143
(dp3201
sg145
Nsg26
g29
sg146
(lp3202
I14
aI3
asg148
Nsg149
VJoshua 14:3
p3203
sg151
(lp3204
sg153
g104
sg154
Nsg155
(lp3205
I14
aI3
asg157
Nsg158
g3203
sg159
(lp3206
sg161
g60
sg162
Nsg163
Nsg164
Nsbag2
(g3
g4
Ntp3207
Rp3208
(dp3209
g8
g11
sg142
Nsg143
(dp3210
sg145
Nsg26
g29
sg146
(lp3211
I14
aI4
asg148
Nsg149
VJoshua 14:4
p3212
sg151
(lp3213
sg153
g104
sg154
Nsg155
(lp3214
I14
aI4
asg157
Nsg158
g3212
sg159
(lp3215
sg161
g60
sg162
Nsg163
Nsg164
Nsbag2
(g3
g4
Ntp3216
Rp3217
(dp3218
g8
g11
sg142
Nsg143
(dp3219
sg145
Nsg26
g29
sg146
(lp3220
I14
aI5
asg148
Nsg149
VJoshua 14:5
p3221
sg151
(lp3222
sg153
g104
sg154
Nsg155
(lp3223
I14
aI5
asg157
Nsg158
g3221
sg159
(lp3224
sg161
g60
sg162
Nsg163
Nsg164
Nsbag2
(g3
g4
Ntp3225
Rp3226
(dp3227
g8
g11
sg142
Nsg143
(dp3228
sg145
Nsg26
g29
sg146
(lp3229
I14
aI6
asg148
Nsg149
VJoshua 14:6
p3230
sg151
(lp3231
sg153
g104
sg154
Nsg155
(lp3232
I14
aI6
asg157
Nsg158
g3230
sg159
(lp3233
sg161
g60
sg162
Nsg163
Nsg164
Nsbag2
(g3
g4
Ntp3234
Rp3235
(dp3236
g8
g11
sg142
Nsg143
(dp3237
sg145
Nsg26
g29
sg146
(lp3238
I14
aI7
asg148
Nsg149
VJoshua 14:7
p3239
sg151
(lp3240
sg153
g104
sg154
Nsg155
(lp3241
I14
aI7
asg157
Nsg158
g3239
sg159
(lp3242
sg161
g60
sg162
Nsg163
Nsg164
Nsbag2
(g3
g4
Ntp3243
Rp3244
(dp3245
g8
g11
sg142
Nsg143
(dp3246
sg145
Nsg26
g29
sg146
(lp3247
I14
aI8
asg148
Nsg149
VJoshua 14:8
p3248
sg151
(lp3249
sg153
g104
sg154
Nsg155
(lp3250
I14
aI8
asg157
Nsg158
g3248
sg159
(lp3251
sg161
g60
sg162
Nsg163
Nsg164
Nsbag2
(g3
g4
Ntp3252
Rp3253
(dp3254
g8
g11
sg142
Nsg143
(dp3255
sg145
Nsg26
g29
sg146
(lp3256
I14
aI9
asg148
Nsg149
VJoshua 14:9
p3257
sg151
(lp3258
sg153
g104
sg154
Nsg155
(lp3259
I14
aI9
asg157
Nsg158
g3257
sg159
(lp3260
sg161
g60
sg162
Nsg163
Nsg164
Nsbag2
(g3
g4
Ntp3261
Rp3262
(dp3263
g8
g11
sg142
Nsg143
(dp3264
sg145
Nsg26
g29
sg146
(lp3265
I14
aI10
asg148
Nsg149
VJoshua 14:10
p3266
sg151
(lp3267
sg153
g104
sg154
Nsg155
(lp3268
I14
aI10
asg157
Nsg158
g3266
sg159
(lp3269
sg161
g60
sg162
Nsg163
Nsg164
Nsbag2
(g3
g4
Ntp3270
Rp3271
(dp3272
g8
g11
sg142
Nsg143
(dp3273
sg145
Nsg26
g29
sg146
(lp3274
I14
aI11
asg148
Nsg149
VJoshua 14:11
p3275
sg151
(lp3276
sg153
g104
sg154
Nsg155
(lp3277
I14
aI11
asg157
Nsg158
g3275
sg159
(lp3278
sg161
g60
sg162
Nsg163
Nsg164
Nsbag2
(g3
g4
Ntp3279
Rp3280
(dp3281
g8
g11
sg142
Nsg143
(dp3282
sg145
Nsg26
g29
sg146
(lp3283
I14
aI12
asg148
Nsg149
VJoshua 14:12
p3284
sg151
(lp3285
sg153
g104
sg154
Nsg155
(lp3286
I14
aI12
asg157
Nsg158
g3284
sg159
(lp3287
sg161
g60
sg162
Nsg163
Nsg164
Nsbag2
(g3
g4
Ntp3288
Rp3289
(dp3290
g8
g11
sg142
Nsg143
(dp3291
sg145
Nsg26
g29
sg146
(lp3292
I14
aI13
asg148
Nsg149
VJoshua 14:13
p3293
sg151
(lp3294
sg153
g104
sg154
Nsg155
(lp3295
I14
aI13
asg157
Nsg158
g3293
sg159
(lp3296
sg161
g60
sg162
Nsg163
Nsg164
Nsbag2
(g3
g4
Ntp3297
Rp3298
(dp3299
g8
g11
sg142
Nsg143
(dp3300
sg145
Nsg26
g29
sg146
(lp3301
I14
aI14
asg148
Nsg149
VJoshua 14:14
p3302
sg151
(lp3303
sg153
g104
sg154
Nsg155
(lp3304
I14
aI14
asg157
Nsg158
g3302
sg159
(lp3305
sg161
g60
sg162
Nsg163
Nsg164
Nsbag2
(g3
g4
Ntp3306
Rp3307
(dp3308
g8
g11
sg142
Nsg143
(dp3309
sg145
Nsg26
g29
sg146
(lp3310
I14
aI15
asg148
Nsg149
VJoshua 14:15
p3311
sg151
(lp3312
sg153
g104
sg154
Nsg155
(lp3313
I14
aI15
asg157
Nsg158
g3311
sg159
(lp3314
sg161
g60
sg162
Nsg163
Nsg164
Nsbag2
(g3
g4
Ntp3315
Rp3316
(dp3317
g8
g11
sg142
Nsg143
(dp3318
sg145
Nsg26
g29
sg146
(lp3319
I15
aI1
asg148
Nsg149
VJoshua 15:1
p3320
sg151
(lp3321
sg153
g104
sg154
Nsg155
(lp3322
I15
aI1
asg157
Nsg158
g3320
sg159
(lp3323
sg161
g60
sg162
Nsg163
Nsg164
Nsbag2
(g3
g4
Ntp3324
Rp3325
(dp3326
g8
g11
sg142
Nsg143
(dp3327
sg145
Nsg26
g29
sg146
(lp3328
I15
aI2
asg148
Nsg149
VJoshua 15:2
p3329
sg151
(lp3330
sg153
g104
sg154
Nsg155
(lp3331
I15
aI2
asg157
Nsg158
g3329
sg159
(lp3332
sg161
g60
sg162
Nsg163
Nsg164
Nsbag2
(g3
g4
Ntp3333
Rp3334
(dp3335
g8
g11
sg142
Nsg143
(dp3336
sg145
Nsg26
g29
sg146
(lp3337
I15
aI3
asg148
Nsg149
VJoshua 15:3
p3338
sg151
(lp3339
sg153
g104
sg154
Nsg155
(lp3340
I15
aI3
asg157
Nsg158
g3338
sg159
(lp3341
sg161
g60
sg162
Nsg163
Nsg164
Nsbag2
(g3
g4
Ntp3342
Rp3343
(dp3344
g8
g11
sg142
Nsg143
(dp3345
sg145
Nsg26
g29
sg146
(lp3346
I15
aI4
asg148
Nsg149
VJoshua 15:4
p3347
sg151
(lp3348
sg153
g104
sg154
Nsg155
(lp3349
I15
aI4
asg157
Nsg158
g3347
sg159
(lp3350
sg161
g60
sg162
Nsg163
Nsg164
Nsbag2
(g3
g4
Ntp3351
Rp3352
(dp3353
g8
g11
sg142
Nsg143
(dp3354
sg145
Nsg26
g29
sg146
(lp3355
I15
aI5
asg148
Nsg149
VJoshua 15:5
p3356
sg151
(lp3357
sg153
g104
sg154
Nsg155
(lp3358
I15
aI5
asg157
Nsg158
g3356
sg159
(lp3359
sg161
g60
sg162
Nsg163
Nsg164
Nsbag2
(g3
g4
Ntp3360
Rp3361
(dp3362
g8
g11
sg142
Nsg143
(dp3363
sg145
Nsg26
g29
sg146
(lp3364
I15
aI6
asg148
Nsg149
VJoshua 15:6
p3365
sg151
(lp3366
sg153
g104
sg154
Nsg155
(lp3367
I15
aI6
asg157
Nsg158
g3365
sg159
(lp3368
sg161
g60
sg162
Nsg163
Nsg164
Nsbag2
(g3
g4
Ntp3369
Rp3370
(dp3371
g8
g11
sg142
Nsg143
(dp3372
sg145
Nsg26
g29
sg146
(lp3373
I15
aI7
asg148
Nsg149
VJoshua 15:7
p3374
sg151
(lp3375
sg153
g104
sg154
Nsg155
(lp3376
I15
aI7
asg157
Nsg158
g3374
sg159
(lp3377
sg161
g60
sg162
Nsg163
Nsg164
Nsbag2
(g3
g4
Ntp3378
Rp3379
(dp3380
g8
g11
sg142
Nsg143
(dp3381
sg145
Nsg26
g29
sg146
(lp3382
I15
aI8
asg148
Nsg149
VJoshua 15:8
p3383
sg151
(lp3384
sg153
g104
sg154
Nsg155
(lp3385
I15
aI8
asg157
Nsg158
g3383
sg159
(lp3386
sg161
g60
sg162
Nsg163
Nsg164
Nsbag2
(g3
g4
Ntp3387
Rp3388
(dp3389
g8
g11
sg142
Nsg143
(dp3390
sg145
Nsg26
g29
sg146
(lp3391
I15
aI9
asg148
Nsg149
VJoshua 15:9
p3392
sg151
(lp3393
sg153
g104
sg154
Nsg155
(lp3394
I15
aI9
asg157
Nsg158
g3392
sg159
(lp3395
sg161
g60
sg162
Nsg163
Nsg164
Nsbag2
(g3
g4
Ntp3396
Rp3397
(dp3398
g8
g11
sg142
Nsg143
(dp3399
sg145
Nsg26
g29
sg146
(lp3400
I15
aI10
asg148
Nsg149
VJoshua 15:10
p3401
sg151
(lp3402
sg153
g104
sg154
Nsg155
(lp3403
I15
aI10
asg157
Nsg158
g3401
sg159
(lp3404
sg161
g60
sg162
Nsg163
Nsg164
Nsbag2
(g3
g4
Ntp3405
Rp3406
(dp3407
g8
g11
sg142
Nsg143
(dp3408
sg145
Nsg26
g29
sg146
(lp3409
I15
aI11
asg148
Nsg149
VJoshua 15:11
p3410
sg151
(lp3411
sg153
g104
sg154
Nsg155
(lp3412
I15
aI11
asg157
Nsg158
g3410
sg159
(lp3413
sg161
g60
sg162
Nsg163
Nsg164
Nsbag2
(g3
g4
Ntp3414
Rp3415
(dp3416
g8
g11
sg142
Nsg143
(dp3417
sg145
Nsg26
g29
sg146
(lp3418
I15
aI12
asg148
Nsg149
VJoshua 15:12
p3419
sg151
(lp3420
sg153
g104
sg154
Nsg155
(lp3421
I15
aI12
asg157
Nsg158
g3419
sg159
(lp3422
sg161
g60
sg162
Nsg163
Nsg164
Nsbag2
(g3
g4
Ntp3423
Rp3424
(dp3425
g8
g11
sg142
Nsg143
(dp3426
sg145
Nsg26
g29
sg146
(lp3427
I15
aI13
asg148
Nsg149
VJoshua 15:13
p3428
sg151
(lp3429
sg153
g104
sg154
Nsg155
(lp3430
I15
aI13
asg157
Nsg158
g3428
sg159
(lp3431
sg161
g60
sg162
Nsg163
Nsg164
Nsbag2
(g3
g4
Ntp3432
Rp3433
(dp3434
g8
g11
sg142
Nsg143
(dp3435
sg145
Nsg26
g29
sg146
(lp3436
I15
aI14
asg148
Nsg149
VJoshua 15:14
p3437
sg151
(lp3438
sg153
g104
sg154
Nsg155
(lp3439
I15
aI14
asg157
Nsg158
g3437
sg159
(lp3440
sg161
g60
sg162
Nsg163
Nsg164
Nsbag2
(g3
g4
Ntp3441
Rp3442
(dp3443
g8
g11
sg142
Nsg143
(dp3444
sg145
Nsg26
g29
sg146
(lp3445
I15
aI15
asg148
Nsg149
VJoshua 15:15
p3446
sg151
(lp3447
sg153
g104
sg154
Nsg155
(lp3448
I15
aI15
asg157
Nsg158
g3446
sg159
(lp3449
sg161
g60
sg162
Nsg163
Nsg164
Nsbag2
(g3
g4
Ntp3450
Rp3451
(dp3452
g8
g11
sg142
Nsg143
(dp3453
sg145
Nsg26
g29
sg146
(lp3454
I15
aI16
asg148
Nsg149
VJoshua 15:16
p3455
sg151
(lp3456
sg153
g104
sg154
Nsg155
(lp3457
I15
aI16
asg157
Nsg158
g3455
sg159
(lp3458
sg161
g60
sg162
Nsg163
Nsg164
Nsbag2
(g3
g4
Ntp3459
Rp3460
(dp3461
g8
g11
sg142
Nsg143
(dp3462
sg145
Nsg26
g29
sg146
(lp3463
I15
aI17
asg148
Nsg149
VJoshua 15:17
p3464
sg151
(lp3465
sg153
g104
sg154
Nsg155
(lp3466
I15
aI17
asg157
Nsg158
g3464
sg159
(lp3467
sg161
g60
sg162
Nsg163
Nsg164
Nsbag2
(g3
g4
Ntp3468
Rp3469
(dp3470
g8
g11
sg142
Nsg143
(dp3471
sg145
Nsg26
g29
sg146
(lp3472
I15
aI18
asg148
Nsg149
VJoshua 15:18
p3473
sg151
(lp3474
sg153
g104
sg154
Nsg155
(lp3475
I15
aI18
asg157
Nsg158
g3473
sg159
(lp3476
sg161
g60
sg162
Nsg163
Nsg164
Nsbag2
(g3
g4
Ntp3477
Rp3478
(dp3479
g8
g11
sg142
Nsg143
(dp3480
sg145
Nsg26
g29
sg146
(lp3481
I15
aI19
asg148
Nsg149
VJoshua 15:19
p3482
sg151
(lp3483
sg153
g104
sg154
Nsg155
(lp3484
I15
aI19
asg157
Nsg158
g3482
sg159
(lp3485
sg161
g60
sg162
Nsg163
Nsg164
Nsbag2
(g3
g4
Ntp3486
Rp3487
(dp3488
g8
g11
sg142
Nsg143
(dp3489
sg145
Nsg26
g29
sg146
(lp3490
I15
aI20
asg148
Nsg149
VJoshua 15:20
p3491
sg151
(lp3492
sg153
g104
sg154
Nsg155
(lp3493
I15
aI20
asg157
Nsg158
g3491
sg159
(lp3494
sg161
g60
sg162
Nsg163
Nsg164
Nsbag2
(g3
g4
Ntp3495
Rp3496
(dp3497
g8
g11
sg142
Nsg143
(dp3498
sg145
Nsg26
g29
sg146
(lp3499
I15
aI21
asg148
Nsg149
VJoshua 15:21
p3500
sg151
(lp3501
sg153
g104
sg154
Nsg155
(lp3502
I15
aI21
asg157
Nsg158
g3500
sg159
(lp3503
sg161
g60
sg162
Nsg163
Nsg164
Nsbag2
(g3
g4
Ntp3504
Rp3505
(dp3506
g8
g11
sg142
Nsg143
(dp3507
sg145
Nsg26
g29
sg146
(lp3508
I15
aI22
asg148
Nsg149
VJoshua 15:22
p3509
sg151
(lp3510
sg153
g104
sg154
Nsg155
(lp3511
I15
aI22
asg157
Nsg158
g3509
sg159
(lp3512
sg161
g60
sg162
Nsg163
Nsg164
Nsbag2
(g3
g4
Ntp3513
Rp3514
(dp3515
g8
g11
sg142
Nsg143
(dp3516
sg145
Nsg26
g29
sg146
(lp3517
I15
aI23
asg148
Nsg149
VJoshua 15:23
p3518
sg151
(lp3519
sg153
g104
sg154
Nsg155
(lp3520
I15
aI23
asg157
Nsg158
g3518
sg159
(lp3521
sg161
g60
sg162
Nsg163
Nsg164
Nsbag2
(g3
g4
Ntp3522
Rp3523
(dp3524
g8
g11
sg142
Nsg143
(dp3525
sg145
Nsg26
g29
sg146
(lp3526
I15
aI24
asg148
Nsg149
VJoshua 15:24
p3527
sg151
(lp3528
sg153
g104
sg154
Nsg155
(lp3529
I15
aI24
asg157
Nsg158
g3527
sg159
(lp3530
sg161
g60
sg162
Nsg163
Nsg164
Nsbag2
(g3
g4
Ntp3531
Rp3532
(dp3533
g8
g11
sg142
Nsg143
(dp3534
sg145
Nsg26
g29
sg146
(lp3535
I15
aI25
asg148
Nsg149
VJoshua 15:25
p3536
sg151
(lp3537
sg153
g104
sg154
Nsg155
(lp3538
I15
aI25
asg157
Nsg158
g3536
sg159
(lp3539
sg161
g60
sg162
Nsg163
Nsg164
Nsbag2
(g3
g4
Ntp3540
Rp3541
(dp3542
g8
g11
sg142
Nsg143
(dp3543
sg145
Nsg26
g29
sg146
(lp3544
I15
aI26
asg148
Nsg149
VJoshua 15:26
p3545
sg151
(lp3546
sg153
g104
sg154
Nsg155
(lp3547
I15
aI26
asg157
Nsg158
g3545
sg159
(lp3548
sg161
g60
sg162
Nsg163
Nsg164
Nsbag2
(g3
g4
Ntp3549
Rp3550
(dp3551
g8
g11
sg142
Nsg143
(dp3552
sg145
Nsg26
g29
sg146
(lp3553
I15
aI27
asg148
Nsg149
VJoshua 15:27
p3554
sg151
(lp3555
sg153
g104
sg154
Nsg155
(lp3556
I15
aI27
asg157
Nsg158
g3554
sg159
(lp3557
sg161
g60
sg162
Nsg163
Nsg164
Nsbag2
(g3
g4
Ntp3558
Rp3559
(dp3560
g8
g11
sg142
Nsg143
(dp3561
sg145
Nsg26
g29
sg146
(lp3562
I15
aI28
asg148
Nsg149
VJoshua 15:28
p3563
sg151
(lp3564
sg153
g104
sg154
Nsg155
(lp3565
I15
aI28
asg157
Nsg158
g3563
sg159
(lp3566
sg161
g60
sg162
Nsg163
Nsg164
Nsbag2
(g3
g4
Ntp3567
Rp3568
(dp3569
g8
g11
sg142
Nsg143
(dp3570
sg145
Nsg26
g29
sg146
(lp3571
I15
aI29
asg148
Nsg149
VJoshua 15:29
p3572
sg151
(lp3573
sg153
g104
sg154
Nsg155
(lp3574
I15
aI29
asg157
Nsg158
g3572
sg159
(lp3575
sg161
g60
sg162
Nsg163
Nsg164
Nsbag2
(g3
g4
Ntp3576
Rp3577
(dp3578
g8
g11
sg142
Nsg143
(dp3579
sg145
Nsg26
g29
sg146
(lp3580
I15
aI30
asg148
Nsg149
VJoshua 15:30
p3581
sg151
(lp3582
sg153
g104
sg154
Nsg155
(lp3583
I15
aI30
asg157
Nsg158
g3581
sg159
(lp3584
sg161
g60
sg162
Nsg163
Nsg164
Nsbag2
(g3
g4
Ntp3585
Rp3586
(dp3587
g8
g11
sg142
Nsg143
(dp3588
sg145
Nsg26
g29
sg146
(lp3589
I15
aI31
asg148
Nsg149
VJoshua 15:31
p3590
sg151
(lp3591
sg153
g104
sg154
Nsg155
(lp3592
I15
aI31
asg157
Nsg158
g3590
sg159
(lp3593
sg161
g60
sg162
Nsg163
Nsg164
Nsbag2
(g3
g4
Ntp3594
Rp3595
(dp3596
g8
g11
sg142
Nsg143
(dp3597
sg145
Nsg26
g29
sg146
(lp3598
I15
aI32
asg148
Nsg149
VJoshua 15:32
p3599
sg151
(lp3600
sg153
g104
sg154
Nsg155
(lp3601
I15
aI32
asg157
Nsg158
g3599
sg159
(lp3602
sg161
g60
sg162
Nsg163
Nsg164
Nsbag2
(g3
g4
Ntp3603
Rp3604
(dp3605
g8
g11
sg142
Nsg143
(dp3606
sg145
Nsg26
g29
sg146
(lp3607
I15
aI33
asg148
Nsg149
VJoshua 15:33
p3608
sg151
(lp3609
sg153
g104
sg154
Nsg155
(lp3610
I15
aI33
asg157
Nsg158
g3608
sg159
(lp3611
sg161
g60
sg162
Nsg163
Nsg164
Nsbag2
(g3
g4
Ntp3612
Rp3613
(dp3614
g8
g11
sg142
Nsg143
(dp3615
sg145
Nsg26
g29
sg146
(lp3616
I15
aI34
asg148
Nsg149
VJoshua 15:34
p3617
sg151
(lp3618
sg153
g104
sg154
Nsg155
(lp3619
I15
aI34
asg157
Nsg158
g3617
sg159
(lp3620
sg161
g60
sg162
Nsg163
Nsg164
Nsbag2
(g3
g4
Ntp3621
Rp3622
(dp3623
g8
g11
sg142
Nsg143
(dp3624
sg145
Nsg26
g29
sg146
(lp3625
I15
aI35
asg148
Nsg149
VJoshua 15:35
p3626
sg151
(lp3627
sg153
g104
sg154
Nsg155
(lp3628
I15
aI35
asg157
Nsg158
g3626
sg159
(lp3629
sg161
g60
sg162
Nsg163
Nsg164
Nsbag2
(g3
g4
Ntp3630
Rp3631
(dp3632
g8
g11
sg142
Nsg143
(dp3633
sg145
Nsg26
g29
sg146
(lp3634
I15
aI36
asg148
Nsg149
VJoshua 15:36
p3635
sg151
(lp3636
sg153
g104
sg154
Nsg155
(lp3637
I15
aI36
asg157
Nsg158
g3635
sg159
(lp3638
sg161
g60
sg162
Nsg163
Nsg164
Nsbag2
(g3
g4
Ntp3639
Rp3640
(dp3641
g8
g11
sg142
Nsg143
(dp3642
sg145
Nsg26
g29
sg146
(lp3643
I15
aI37
asg148
Nsg149
VJoshua 15:37
p3644
sg151
(lp3645
sg153
g104
sg154
Nsg155
(lp3646
I15
aI37
asg157
Nsg158
g3644
sg159
(lp3647
sg161
g60
sg162
Nsg163
Nsg164
Nsbag2
(g3
g4
Ntp3648
Rp3649
(dp3650
g8
g11
sg142
Nsg143
(dp3651
sg145
Nsg26
g29
sg146
(lp3652
I15
aI38
asg148
Nsg149
VJoshua 15:38
p3653
sg151
(lp3654
sg153
g104
sg154
Nsg155
(lp3655
I15
aI38
asg157
Nsg158
g3653
sg159
(lp3656
sg161
g60
sg162
Nsg163
Nsg164
Nsbag2
(g3
g4
Ntp3657
Rp3658
(dp3659
g8
g11
sg142
Nsg143
(dp3660
sg145
Nsg26
g29
sg146
(lp3661
I15
aI39
asg148
Nsg149
VJoshua 15:39
p3662
sg151
(lp3663
sg153
g104
sg154
Nsg155
(lp3664
I15
aI39
asg157
Nsg158
g3662
sg159
(lp3665
sg161
g60
sg162
Nsg163
Nsg164
Nsbag2
(g3
g4
Ntp3666
Rp3667
(dp3668
g8
g11
sg142
Nsg143
(dp3669
sg145
Nsg26
g29
sg146
(lp3670
I15
aI40
asg148
Nsg149
VJoshua 15:40
p3671
sg151
(lp3672
sg153
g104
sg154
Nsg155
(lp3673
I15
aI40
asg157
Nsg158
g3671
sg159
(lp3674
sg161
g60
sg162
Nsg163
Nsg164
Nsbag2
(g3
g4
Ntp3675
Rp3676
(dp3677
g8
g11
sg142
Nsg143
(dp3678
sg145
Nsg26
g29
sg146
(lp3679
I15
aI41
asg148
Nsg149
VJoshua 15:41
p3680
sg151
(lp3681
sg153
g104
sg154
Nsg155
(lp3682
I15
aI41
asg157
Nsg158
g3680
sg159
(lp3683
sg161
g60
sg162
Nsg163
Nsg164
Nsbag2
(g3
g4
Ntp3684
Rp3685
(dp3686
g8
g11
sg142
Nsg143
(dp3687
sg145
Nsg26
g29
sg146
(lp3688
I15
aI42
asg148
Nsg149
VJoshua 15:42
p3689
sg151
(lp3690
sg153
g104
sg154
Nsg155
(lp3691
I15
aI42
asg157
Nsg158
g3689
sg159
(lp3692
sg161
g60
sg162
Nsg163
Nsg164
Nsbag2
(g3
g4
Ntp3693
Rp3694
(dp3695
g8
g11
sg142
Nsg143
(dp3696
sg145
Nsg26
g29
sg146
(lp3697
I15
aI43
asg148
Nsg149
VJoshua 15:43
p3698
sg151
(lp3699
sg153
g104
sg154
Nsg155
(lp3700
I15
aI43
asg157
Nsg158
g3698
sg159
(lp3701
sg161
g60
sg162
Nsg163
Nsg164
Nsbag2
(g3
g4
Ntp3702
Rp3703
(dp3704
g8
g11
sg142
Nsg143
(dp3705
sg145
Nsg26
g29
sg146
(lp3706
I15
aI44
asg148
Nsg149
VJoshua 15:44
p3707
sg151
(lp3708
sg153
g104
sg154
Nsg155
(lp3709
I15
aI44
asg157
Nsg158
g3707
sg159
(lp3710
sg161
g60
sg162
Nsg163
Nsg164
Nsbag2
(g3
g4
Ntp3711
Rp3712
(dp3713
g8
g11
sg142
Nsg143
(dp3714
sg145
Nsg26
g29
sg146
(lp3715
I15
aI45
asg148
Nsg149
VJoshua 15:45
p3716
sg151
(lp3717
sg153
g104
sg154
Nsg155
(lp3718
I15
aI45
asg157
Nsg158
g3716
sg159
(lp3719
sg161
g60
sg162
Nsg163
Nsg164
Nsbag2
(g3
g4
Ntp3720
Rp3721
(dp3722
g8
g11
sg142
Nsg143
(dp3723
sg145
Nsg26
g29
sg146
(lp3724
I15
aI46
asg148
Nsg149
VJoshua 15:46
p3725
sg151
(lp3726
sg153
g104
sg154
Nsg155
(lp3727
I15
aI46
asg157
Nsg158
g3725
sg159
(lp3728
sg161
g60
sg162
Nsg163
Nsg164
Nsbag2
(g3
g4
Ntp3729
Rp3730
(dp3731
g8
g11
sg142
Nsg143
(dp3732
sg145
Nsg26
g29
sg146
(lp3733
I15
aI47
asg148
Nsg149
VJoshua 15:47
p3734
sg151
(lp3735
sg153
g104
sg154
Nsg155
(lp3736
I15
aI47
asg157
Nsg158
g3734
sg159
(lp3737
sg161
g60
sg162
Nsg163
Nsg164
Nsbag2
(g3
g4
Ntp3738
Rp3739
(dp3740
g8
g11
sg142
Nsg143
(dp3741
sg145
Nsg26
g29
sg146
(lp3742
I15
aI48
asg148
Nsg149
VJoshua 15:48
p3743
sg151
(lp3744
sg153
g104
sg154
Nsg155
(lp3745
I15
aI48
asg157
Nsg158
g3743
sg159
(lp3746
sg161
g60
sg162
Nsg163
Nsg164
Nsbag2
(g3
g4
Ntp3747
Rp3748
(dp3749
g8
g11
sg142
Nsg143
(dp3750
sg145
Nsg26
g29
sg146
(lp3751
I15
aI49
asg148
Nsg149
VJoshua 15:49
p3752
sg151
(lp3753
sg153
g104
sg154
Nsg155
(lp3754
I15
aI49
asg157
Nsg158
g3752
sg159
(lp3755
sg161
g60
sg162
Nsg163
Nsg164
Nsbag2
(g3
g4
Ntp3756
Rp3757
(dp3758
g8
g11
sg142
Nsg143
(dp3759
sg145
Nsg26
g29
sg146
(lp3760
I15
aI50
asg148
Nsg149
VJoshua 15:50
p3761
sg151
(lp3762
sg153
g104
sg154
Nsg155
(lp3763
I15
aI50
asg157
Nsg158
g3761
sg159
(lp3764
sg161
g60
sg162
Nsg163
Nsg164
Nsbag2
(g3
g4
Ntp3765
Rp3766
(dp3767
g8
g11
sg142
Nsg143
(dp3768
sg145
Nsg26
g29
sg146
(lp3769
I15
aI51
asg148
Nsg149
VJoshua 15:51
p3770
sg151
(lp3771
sg153
g104
sg154
Nsg155
(lp3772
I15
aI51
asg157
Nsg158
g3770
sg159
(lp3773
sg161
g60
sg162
Nsg163
Nsg164
Nsbag2
(g3
g4
Ntp3774
Rp3775
(dp3776
g8
g11
sg142
Nsg143
(dp3777
sg145
Nsg26
g29
sg146
(lp3778
I15
aI52
asg148
Nsg149
VJoshua 15:52
p3779
sg151
(lp3780
sg153
g104
sg154
Nsg155
(lp3781
I15
aI52
asg157
Nsg158
g3779
sg159
(lp3782
sg161
g60
sg162
Nsg163
Nsg164
Nsbag2
(g3
g4
Ntp3783
Rp3784
(dp3785
g8
g11
sg142
Nsg143
(dp3786
sg145
Nsg26
g29
sg146
(lp3787
I15
aI53
asg148
Nsg149
VJoshua 15:53
p3788
sg151
(lp3789
sg153
g104
sg154
Nsg155
(lp3790
I15
aI53
asg157
Nsg158
g3788
sg159
(lp3791
sg161
g60
sg162
Nsg163
Nsg164
Nsbag2
(g3
g4
Ntp3792
Rp3793
(dp3794
g8
g11
sg142
Nsg143
(dp3795
sg145
Nsg26
g29
sg146
(lp3796
I15
aI54
asg148
Nsg149
VJoshua 15:54
p3797
sg151
(lp3798
sg153
g104
sg154
Nsg155
(lp3799
I15
aI54
asg157
Nsg158
g3797
sg159
(lp3800
sg161
g60
sg162
Nsg163
Nsg164
Nsbag2
(g3
g4
Ntp3801
Rp3802
(dp3803
g8
g11
sg142
Nsg143
(dp3804
sg145
Nsg26
g29
sg146
(lp3805
I15
aI55
asg148
Nsg149
VJoshua 15:55
p3806
sg151
(lp3807
sg153
g104
sg154
Nsg155
(lp3808
I15
aI55
asg157
Nsg158
g3806
sg159
(lp3809
sg161
g60
sg162
Nsg163
Nsg164
Nsbag2
(g3
g4
Ntp3810
Rp3811
(dp3812
g8
g11
sg142
Nsg143
(dp3813
sg145
Nsg26
g29
sg146
(lp3814
I15
aI56
asg148
Nsg149
VJoshua 15:56
p3815
sg151
(lp3816
sg153
g104
sg154
Nsg155
(lp3817
I15
aI56
asg157
Nsg158
g3815
sg159
(lp3818
sg161
g60
sg162
Nsg163
Nsg164
Nsbag2
(g3
g4
Ntp3819
Rp3820
(dp3821
g8
g11
sg142
Nsg143
(dp3822
sg145
Nsg26
g29
sg146
(lp3823
I15
aI57
asg148
Nsg149
VJoshua 15:57
p3824
sg151
(lp3825
sg153
g104
sg154
Nsg155
(lp3826
I15
aI57
asg157
Nsg158
g3824
sg159
(lp3827
sg161
g60
sg162
Nsg163
Nsg164
Nsbag2
(g3
g4
Ntp3828
Rp3829
(dp3830
g8
g11
sg142
Nsg143
(dp3831
sg145
Nsg26
g29
sg146
(lp3832
I15
aI58
asg148
Nsg149
VJoshua 15:58
p3833
sg151
(lp3834
sg153
g104
sg154
Nsg155
(lp3835
I15
aI58
asg157
Nsg158
g3833
sg159
(lp3836
sg161
g60
sg162
Nsg163
Nsg164
Nsbag2
(g3
g4
Ntp3837
Rp3838
(dp3839
g8
g11
sg142
Nsg143
(dp3840
sg145
Nsg26
g29
sg146
(lp3841
I15
aI59
asg148
Nsg149
VJoshua 15:59
p3842
sg151
(lp3843
sg153
g104
sg154
Nsg155
(lp3844
I15
aI59
asg157
Nsg158
g3842
sg159
(lp3845
sg161
g60
sg162
Nsg163
Nsg164
Nsbag2
(g3
g4
Ntp3846
Rp3847
(dp3848
g8
g11
sg142
Nsg143
(dp3849
sg145
Nsg26
g29
sg146
(lp3850
I15
aI60
asg148
Nsg149
VJoshua 15:60
p3851
sg151
(lp3852
sg153
g104
sg154
Nsg155
(lp3853
I15
aI60
asg157
Nsg158
g3851
sg159
(lp3854
sg161
g60
sg162
Nsg163
Nsg164
Nsbag2
(g3
g4
Ntp3855
Rp3856
(dp3857
g8
g11
sg142
Nsg143
(dp3858
sg145
Nsg26
g29
sg146
(lp3859
I15
aI61
asg148
Nsg149
VJoshua 15:61
p3860
sg151
(lp3861
sg153
g104
sg154
Nsg155
(lp3862
I15
aI61
asg157
Nsg158
g3860
sg159
(lp3863
sg161
g60
sg162
Nsg163
Nsg164
Nsbag2
(g3
g4
Ntp3864
Rp3865
(dp3866
g8
g11
sg142
Nsg143
(dp3867
sg145
Nsg26
g29
sg146
(lp3868
I15
aI62
asg148
Nsg149
VJoshua 15:62
p3869
sg151
(lp3870
sg153
g104
sg154
Nsg155
(lp3871
I15
aI62
asg157
Nsg158
g3869
sg159
(lp3872
sg161
g60
sg162
Nsg163
Nsg164
Nsbag2
(g3
g4
Ntp3873
Rp3874
(dp3875
g8
g11
sg142
Nsg143
(dp3876
sg145
Nsg26
g29
sg146
(lp3877
I15
aI63
asg148
Nsg149
VJoshua 15:63
p3878
sg151
(lp3879
sg153
g104
sg154
Nsg155
(lp3880
I15
aI63
asg157
Nsg158
g3878
sg159
(lp3881
sg161
g60
sg162
Nsg163
Nsg164
Nsbag2
(g3
g4
Ntp3882
Rp3883
(dp3884
g8
g11
sg142
Nsg143
(dp3885
sg145
Nsg26
g29
sg146
(lp3886
I16
aI1
asg148
Nsg149
VJoshua 16:1
p3887
sg151
(lp3888
sg153
g104
sg154
Nsg155
(lp3889
I16
aI1
asg157
Nsg158
g3887
sg159
(lp3890
sg161
g60
sg162
Nsg163
Nsg164
Nsbag2
(g3
g4
Ntp3891
Rp3892
(dp3893
g8
g11
sg142
Nsg143
(dp3894
sg145
Nsg26
g29
sg146
(lp3895
I16
aI2
asg148
Nsg149
VJoshua 16:2
p3896
sg151
(lp3897
sg153
g104
sg154
Nsg155
(lp3898
I16
aI2
asg157
Nsg158
g3896
sg159
(lp3899
sg161
g60
sg162
Nsg163
Nsg164
Nsbag2
(g3
g4
Ntp3900
Rp3901
(dp3902
g8
g11
sg142
Nsg143
(dp3903
sg145
Nsg26
g29
sg146
(lp3904
I16
aI3
asg148
Nsg149
VJoshua 16:3
p3905
sg151
(lp3906
sg153
g104
sg154
Nsg155
(lp3907
I16
aI3
asg157
Nsg158
g3905
sg159
(lp3908
sg161
g60
sg162
Nsg163
Nsg164
Nsbag2
(g3
g4
Ntp3909
Rp3910
(dp3911
g8
g11
sg142
Nsg143
(dp3912
sg145
Nsg26
g29
sg146
(lp3913
I16
aI4
asg148
Nsg149
VJoshua 16:4
p3914
sg151
(lp3915
sg153
g104
sg154
Nsg155
(lp3916
I16
aI4
asg157
Nsg158
g3914
sg159
(lp3917
sg161
g60
sg162
Nsg163
Nsg164
Nsbag2
(g3
g4
Ntp3918
Rp3919
(dp3920
g8
g11
sg142
Nsg143
(dp3921
sg145
Nsg26
g29
sg146
(lp3922
I16
aI5
asg148
Nsg149
VJoshua 16:5
p3923
sg151
(lp3924
sg153
g104
sg154
Nsg155
(lp3925
I16
aI5
asg157
Nsg158
g3923
sg159
(lp3926
sg161
g60
sg162
Nsg163
Nsg164
Nsbag2
(g3
g4
Ntp3927
Rp3928
(dp3929
g8
g11
sg142
Nsg143
(dp3930
sg145
Nsg26
g29
sg146
(lp3931
I16
aI6
asg148
Nsg149
VJoshua 16:6
p3932
sg151
(lp3933
sg153
g104
sg154
Nsg155
(lp3934
I16
aI6
asg157
Nsg158
g3932
sg159
(lp3935
sg161
g60
sg162
Nsg163
Nsg164
Nsbag2
(g3
g4
Ntp3936
Rp3937
(dp3938
g8
g11
sg142
Nsg143
(dp3939
sg145
Nsg26
g29
sg146
(lp3940
I16
aI7
asg148
Nsg149
VJoshua 16:7
p3941
sg151
(lp3942
sg153
g104
sg154
Nsg155
(lp3943
I16
aI7
asg157
Nsg158
g3941
sg159
(lp3944
sg161
g60
sg162
Nsg163
Nsg164
Nsbag2
(g3
g4
Ntp3945
Rp3946
(dp3947
g8
g11
sg142
Nsg143
(dp3948
sg145
Nsg26
g29
sg146
(lp3949
I16
aI8
asg148
Nsg149
VJoshua 16:8
p3950
sg151
(lp3951
sg153
g104
sg154
Nsg155
(lp3952
I16
aI8
asg157
Nsg158
g3950
sg159
(lp3953
sg161
g60
sg162
Nsg163
Nsg164
Nsbag2
(g3
g4
Ntp3954
Rp3955
(dp3956
g8
g11
sg142
Nsg143
(dp3957
sg145
Nsg26
g29
sg146
(lp3958
I16
aI9
asg148
Nsg149
VJoshua 16:9
p3959
sg151
(lp3960
sg153
g104
sg154
Nsg155
(lp3961
I16
aI9
asg157
Nsg158
g3959
sg159
(lp3962
sg161
g60
sg162
Nsg163
Nsg164
Nsbag2
(g3
g4
Ntp3963
Rp3964
(dp3965
g8
g11
sg142
Nsg143
(dp3966
sg145
Nsg26
g29
sg146
(lp3967
I16
aI10
asg148
Nsg149
VJoshua 16:10
p3968
sg151
(lp3969
sg153
g104
sg154
Nsg155
(lp3970
I16
aI10
asg157
Nsg158
g3968
sg159
(lp3971
sg161
g60
sg162
Nsg163
Nsg164
Nsbag2
(g3
g4
Ntp3972
Rp3973
(dp3974
g8
g11
sg142
Nsg143
(dp3975
sg145
Nsg26
g29
sg146
(lp3976
I17
aI1
asg148
Nsg149
VJoshua 17:1
p3977
sg151
(lp3978
sg153
g104
sg154
Nsg155
(lp3979
I17
aI1
asg157
Nsg158
g3977
sg159
(lp3980
sg161
g60
sg162
Nsg163
Nsg164
Nsbag2
(g3
g4
Ntp3981
Rp3982
(dp3983
g8
g11
sg142
Nsg143
(dp3984
sg145
Nsg26
g29
sg146
(lp3985
I17
aI2
asg148
Nsg149
VJoshua 17:2
p3986
sg151
(lp3987
sg153
g104
sg154
Nsg155
(lp3988
I17
aI2
asg157
Nsg158
g3986
sg159
(lp3989
sg161
g60
sg162
Nsg163
Nsg164
Nsbag2
(g3
g4
Ntp3990
Rp3991
(dp3992
g8
g11
sg142
Nsg143
(dp3993
sg145
Nsg26
g29
sg146
(lp3994
I17
aI3
asg148
Nsg149
VJoshua 17:3
p3995
sg151
(lp3996
sg153
g104
sg154
Nsg155
(lp3997
I17
aI3
asg157
Nsg158
g3995
sg159
(lp3998
sg161
g60
sg162
Nsg163
Nsg164
Nsbag2
(g3
g4
Ntp3999
Rp4000
(dp4001
g8
g11
sg142
Nsg143
(dp4002
sg145
Nsg26
g29
sg146
(lp4003
I17
aI4
asg148
Nsg149
VJoshua 17:4
p4004
sg151
(lp4005
sg153
g104
sg154
Nsg155
(lp4006
I17
aI4
asg157
Nsg158
g4004
sg159
(lp4007
sg161
g60
sg162
Nsg163
Nsg164
Nsbag2
(g3
g4
Ntp4008
Rp4009
(dp4010
g8
g11
sg142
Nsg143
(dp4011
sg145
Nsg26
g29
sg146
(lp4012
I17
aI5
asg148
Nsg149
VJoshua 17:5
p4013
sg151
(lp4014
sg153
g104
sg154
Nsg155
(lp4015
I17
aI5
asg157
Nsg158
g4013
sg159
(lp4016
sg161
g60
sg162
Nsg163
Nsg164
Nsbag2
(g3
g4
Ntp4017
Rp4018
(dp4019
g8
g11
sg142
Nsg143
(dp4020
sg145
Nsg26
g29
sg146
(lp4021
I17
aI6
asg148
Nsg149
VJoshua 17:6
p4022
sg151
(lp4023
sg153
g104
sg154
Nsg155
(lp4024
I17
aI6
asg157
Nsg158
g4022
sg159
(lp4025
sg161
g60
sg162
Nsg163
Nsg164
Nsbag2
(g3
g4
Ntp4026
Rp4027
(dp4028
g8
g11
sg142
Nsg143
(dp4029
sg145
Nsg26
g29
sg146
(lp4030
I17
aI7
asg148
Nsg149
VJoshua 17:7
p4031
sg151
(lp4032
sg153
g104
sg154
Nsg155
(lp4033
I17
aI7
asg157
Nsg158
g4031
sg159
(lp4034
sg161
g60
sg162
Nsg163
Nsg164
Nsbag2
(g3
g4
Ntp4035
Rp4036
(dp4037
g8
g11
sg142
Nsg143
(dp4038
sg145
Nsg26
g29
sg146
(lp4039
I17
aI8
asg148
Nsg149
VJoshua 17:8
p4040
sg151
(lp4041
sg153
g104
sg154
Nsg155
(lp4042
I17
aI8
asg157
Nsg158
g4040
sg159
(lp4043
sg161
g60
sg162
Nsg163
Nsg164
Nsbag2
(g3
g4
Ntp4044
Rp4045
(dp4046
g8
g11
sg142
Nsg143
(dp4047
sg145
Nsg26
g29
sg146
(lp4048
I17
aI9
asg148
Nsg149
VJoshua 17:9
p4049
sg151
(lp4050
sg153
g104
sg154
Nsg155
(lp4051
I17
aI9
asg157
Nsg158
g4049
sg159
(lp4052
sg161
g60
sg162
Nsg163
Nsg164
Nsbag2
(g3
g4
Ntp4053
Rp4054
(dp4055
g8
g11
sg142
Nsg143
(dp4056
sg145
Nsg26
g29
sg146
(lp4057
I17
aI10
asg148
Nsg149
VJoshua 17:10
p4058
sg151
(lp4059
sg153
g104
sg154
Nsg155
(lp4060
I17
aI10
asg157
Nsg158
g4058
sg159
(lp4061
sg161
g60
sg162
Nsg163
Nsg164
Nsbag2
(g3
g4
Ntp4062
Rp4063
(dp4064
g8
g11
sg142
Nsg143
(dp4065
sg145
Nsg26
g29
sg146
(lp4066
I17
aI11
asg148
Nsg149
VJoshua 17:11
p4067
sg151
(lp4068
sg153
g104
sg154
Nsg155
(lp4069
I17
aI11
asg157
Nsg158
g4067
sg159
(lp4070
sg161
g60
sg162
Nsg163
Nsg164
Nsbag2
(g3
g4
Ntp4071
Rp4072
(dp4073
g8
g11
sg142
Nsg143
(dp4074
sg145
Nsg26
g29
sg146
(lp4075
I17
aI12
asg148
Nsg149
VJoshua 17:12
p4076
sg151
(lp4077
sg153
g104
sg154
Nsg155
(lp4078
I17
aI12
asg157
Nsg158
g4076
sg159
(lp4079
sg161
g60
sg162
Nsg163
Nsg164
Nsbag2
(g3
g4
Ntp4080
Rp4081
(dp4082
g8
g11
sg142
Nsg143
(dp4083
sg145
Nsg26
g29
sg146
(lp4084
I17
aI13
asg148
Nsg149
VJoshua 17:13
p4085
sg151
(lp4086
sg153
g104
sg154
Nsg155
(lp4087
I17
aI13
asg157
Nsg158
g4085
sg159
(lp4088
sg161
g60
sg162
Nsg163
Nsg164
Nsbag2
(g3
g4
Ntp4089
Rp4090
(dp4091
g8
g11
sg142
Nsg143
(dp4092
sg145
Nsg26
g29
sg146
(lp4093
I17
aI14
asg148
Nsg149
VJoshua 17:14
p4094
sg151
(lp4095
sg153
g104
sg154
Nsg155
(lp4096
I17
aI14
asg157
Nsg158
g4094
sg159
(lp4097
sg161
g60
sg162
Nsg163
Nsg164
Nsbag2
(g3
g4
Ntp4098
Rp4099
(dp4100
g8
g11
sg142
Nsg143
(dp4101
sg145
Nsg26
g29
sg146
(lp4102
I17
aI15
asg148
Nsg149
VJoshua 17:15
p4103
sg151
(lp4104
sg153
g104
sg154
Nsg155
(lp4105
I17
aI15
asg157
Nsg158
g4103
sg159
(lp4106
sg161
g60
sg162
Nsg163
Nsg164
Nsbag2
(g3
g4
Ntp4107
Rp4108
(dp4109
g8
g11
sg142
Nsg143
(dp4110
sg145
Nsg26
g29
sg146
(lp4111
I17
aI16
asg148
Nsg149
VJoshua 17:16
p4112
sg151
(lp4113
sg153
g104
sg154
Nsg155
(lp4114
I17
aI16
asg157
Nsg158
g4112
sg159
(lp4115
sg161
g60
sg162
Nsg163
Nsg164
Nsbag2
(g3
g4
Ntp4116
Rp4117
(dp4118
g8
g11
sg142
Nsg143
(dp4119
sg145
Nsg26
g29
sg146
(lp4120
I17
aI17
asg148
Nsg149
VJoshua 17:17
p4121
sg151
(lp4122
sg153
g104
sg154
Nsg155
(lp4123
I17
aI17
asg157
Nsg158
g4121
sg159
(lp4124
sg161
g60
sg162
Nsg163
Nsg164
Nsbag2
(g3
g4
Ntp4125
Rp4126
(dp4127
g8
g11
sg142
Nsg143
(dp4128
sg145
Nsg26
g29
sg146
(lp4129
I17
aI18
asg148
Nsg149
VJoshua 17:18
p4130
sg151
(lp4131
sg153
g104
sg154
Nsg155
(lp4132
I17
aI18
asg157
Nsg158
g4130
sg159
(lp4133
sg161
g60
sg162
Nsg163
Nsg164
Nsbag2
(g3
g4
Ntp4134
Rp4135
(dp4136
g8
g11
sg142
Nsg143
(dp4137
sg145
Nsg26
g29
sg146
(lp4138
I18
aI1
asg148
Nsg149
VJoshua 18:1
p4139
sg151
(lp4140
sg153
g104
sg154
Nsg155
(lp4141
I18
aI1
asg157
Nsg158
g4139
sg159
(lp4142
sg161
g60
sg162
Nsg163
Nsg164
Nsbag2
(g3
g4
Ntp4143
Rp4144
(dp4145
g8
g11
sg142
Nsg143
(dp4146
sg145
Nsg26
g29
sg146
(lp4147
I18
aI2
asg148
Nsg149
VJoshua 18:2
p4148
sg151
(lp4149
sg153
g104
sg154
Nsg155
(lp4150
I18
aI2
asg157
Nsg158
g4148
sg159
(lp4151
sg161
g60
sg162
Nsg163
Nsg164
Nsbag2
(g3
g4
Ntp4152
Rp4153
(dp4154
g8
g11
sg142
Nsg143
(dp4155
sg145
Nsg26
g29
sg146
(lp4156
I18
aI3
asg148
Nsg149
VJoshua 18:3
p4157
sg151
(lp4158
sg153
g104
sg154
Nsg155
(lp4159
I18
aI3
asg157
Nsg158
g4157
sg159
(lp4160
sg161
g60
sg162
Nsg163
Nsg164
Nsbag2
(g3
g4
Ntp4161
Rp4162
(dp4163
g8
g11
sg142
Nsg143
(dp4164
sg145
Nsg26
g29
sg146
(lp4165
I18
aI4
asg148
Nsg149
VJoshua 18:4
p4166
sg151
(lp4167
sg153
g104
sg154
Nsg155
(lp4168
I18
aI4
asg157
Nsg158
g4166
sg159
(lp4169
sg161
g60
sg162
Nsg163
Nsg164
Nsbag2
(g3
g4
Ntp4170
Rp4171
(dp4172
g8
g11
sg142
Nsg143
(dp4173
sg145
Nsg26
g29
sg146
(lp4174
I18
aI5
asg148
Nsg149
VJoshua 18:5
p4175
sg151
(lp4176
sg153
g104
sg154
Nsg155
(lp4177
I18
aI5
asg157
Nsg158
g4175
sg159
(lp4178
sg161
g60
sg162
Nsg163
Nsg164
Nsbag2
(g3
g4
Ntp4179
Rp4180
(dp4181
g8
g11
sg142
Nsg143
(dp4182
sg145
Nsg26
g29
sg146
(lp4183
I18
aI6
asg148
Nsg149
VJoshua 18:6
p4184
sg151
(lp4185
sg153
g104
sg154
Nsg155
(lp4186
I18
aI6
asg157
Nsg158
g4184
sg159
(lp4187
sg161
g60
sg162
Nsg163
Nsg164
Nsbag2
(g3
g4
Ntp4188
Rp4189
(dp4190
g8
g11
sg142
Nsg143
(dp4191
sg145
Nsg26
g29
sg146
(lp4192
I18
aI7
asg148
Nsg149
VJoshua 18:7
p4193
sg151
(lp4194
sg153
g104
sg154
Nsg155
(lp4195
I18
aI7
asg157
Nsg158
g4193
sg159
(lp4196
sg161
g60
sg162
Nsg163
Nsg164
Nsbag2
(g3
g4
Ntp4197
Rp4198
(dp4199
g8
g11
sg142
Nsg143
(dp4200
sg145
Nsg26
g29
sg146
(lp4201
I18
aI8
asg148
Nsg149
VJoshua 18:8
p4202
sg151
(lp4203
sg153
g104
sg154
Nsg155
(lp4204
I18
aI8
asg157
Nsg158
g4202
sg159
(lp4205
sg161
g60
sg162
Nsg163
Nsg164
Nsbag2
(g3
g4
Ntp4206
Rp4207
(dp4208
g8
g11
sg142
Nsg143
(dp4209
sg145
Nsg26
g29
sg146
(lp4210
I18
aI9
asg148
Nsg149
VJoshua 18:9
p4211
sg151
(lp4212
sg153
g104
sg154
Nsg155
(lp4213
I18
aI9
asg157
Nsg158
g4211
sg159
(lp4214
sg161
g60
sg162
Nsg163
Nsg164
Nsbag2
(g3
g4
Ntp4215
Rp4216
(dp4217
g8
g11
sg142
Nsg143
(dp4218
sg145
Nsg26
g29
sg146
(lp4219
I18
aI10
asg148
Nsg149
VJoshua 18:10
p4220
sg151
(lp4221
sg153
g104
sg154
Nsg155
(lp4222
I18
aI10
asg157
Nsg158
g4220
sg159
(lp4223
sg161
g60
sg162
Nsg163
Nsg164
Nsbag2
(g3
g4
Ntp4224
Rp4225
(dp4226
g8
g11
sg142
Nsg143
(dp4227
sg145
Nsg26
g29
sg146
(lp4228
I18
aI11
asg148
Nsg149
VJoshua 18:11
p4229
sg151
(lp4230
sg153
g104
sg154
Nsg155
(lp4231
I18
aI11
asg157
Nsg158
g4229
sg159
(lp4232
sg161
g60
sg162
Nsg163
Nsg164
Nsbag2
(g3
g4
Ntp4233
Rp4234
(dp4235
g8
g11
sg142
Nsg143
(dp4236
sg145
Nsg26
g29
sg146
(lp4237
I18
aI12
asg148
Nsg149
VJoshua 18:12
p4238
sg151
(lp4239
sg153
g104
sg154
Nsg155
(lp4240
I18
aI12
asg157
Nsg158
g4238
sg159
(lp4241
sg161
g60
sg162
Nsg163
Nsg164
Nsbag2
(g3
g4
Ntp4242
Rp4243
(dp4244
g8
g11
sg142
Nsg143
(dp4245
sg145
Nsg26
g29
sg146
(lp4246
I18
aI13
asg148
Nsg149
VJoshua 18:13
p4247
sg151
(lp4248
sg153
g104
sg154
Nsg155
(lp4249
I18
aI13
asg157
Nsg158
g4247
sg159
(lp4250
sg161
g60
sg162
Nsg163
Nsg164
Nsbag2
(g3
g4
Ntp4251
Rp4252
(dp4253
g8
g11
sg142
Nsg143
(dp4254
sg145
Nsg26
g29
sg146
(lp4255
I18
aI14
asg148
Nsg149
VJoshua 18:14
p4256
sg151
(lp4257
sg153
g104
sg154
Nsg155
(lp4258
I18
aI14
asg157
Nsg158
g4256
sg159
(lp4259
sg161
g60
sg162
Nsg163
Nsg164
Nsbag2
(g3
g4
Ntp4260
Rp4261
(dp4262
g8
g11
sg142
Nsg143
(dp4263
sg145
Nsg26
g29
sg146
(lp4264
I18
aI15
asg148
Nsg149
VJoshua 18:15
p4265
sg151
(lp4266
sg153
g104
sg154
Nsg155
(lp4267
I18
aI15
asg157
Nsg158
g4265
sg159
(lp4268
sg161
g60
sg162
Nsg163
Nsg164
Nsbag2
(g3
g4
Ntp4269
Rp4270
(dp4271
g8
g11
sg142
Nsg143
(dp4272
sg145
Nsg26
g29
sg146
(lp4273
I18
aI16
asg148
Nsg149
VJoshua 18:16
p4274
sg151
(lp4275
sg153
g104
sg154
Nsg155
(lp4276
I18
aI16
asg157
Nsg158
g4274
sg159
(lp4277
sg161
g60
sg162
Nsg163
Nsg164
Nsbag2
(g3
g4
Ntp4278
Rp4279
(dp4280
g8
g11
sg142
Nsg143
(dp4281
sg145
Nsg26
g29
sg146
(lp4282
I18
aI17
asg148
Nsg149
VJoshua 18:17
p4283
sg151
(lp4284
sg153
g104
sg154
Nsg155
(lp4285
I18
aI17
asg157
Nsg158
g4283
sg159
(lp4286
sg161
g60
sg162
Nsg163
Nsg164
Nsbag2
(g3
g4
Ntp4287
Rp4288
(dp4289
g8
g11
sg142
Nsg143
(dp4290
sg145
Nsg26
g29
sg146
(lp4291
I18
aI18
asg148
Nsg149
VJoshua 18:18
p4292
sg151
(lp4293
sg153
g104
sg154
Nsg155
(lp4294
I18
aI18
asg157
Nsg158
g4292
sg159
(lp4295
sg161
g60
sg162
Nsg163
Nsg164
Nsbag2
(g3
g4
Ntp4296
Rp4297
(dp4298
g8
g11
sg142
Nsg143
(dp4299
sg145
Nsg26
g29
sg146
(lp4300
I18
aI19
asg148
Nsg149
VJoshua 18:19
p4301
sg151
(lp4302
sg153
g104
sg154
Nsg155
(lp4303
I18
aI19
asg157
Nsg158
g4301
sg159
(lp4304
sg161
g60
sg162
Nsg163
Nsg164
Nsbag2
(g3
g4
Ntp4305
Rp4306
(dp4307
g8
g11
sg142
Nsg143
(dp4308
sg145
Nsg26
g29
sg146
(lp4309
I18
aI20
asg148
Nsg149
VJoshua 18:20
p4310
sg151
(lp4311
sg153
g104
sg154
Nsg155
(lp4312
I18
aI20
asg157
Nsg158
g4310
sg159
(lp4313
sg161
g60
sg162
Nsg163
Nsg164
Nsbag2
(g3
g4
Ntp4314
Rp4315
(dp4316
g8
g11
sg142
Nsg143
(dp4317
sg145
Nsg26
g29
sg146
(lp4318
I18
aI21
asg148
Nsg149
VJoshua 18:21
p4319
sg151
(lp4320
sg153
g104
sg154
Nsg155
(lp4321
I18
aI21
asg157
Nsg158
g4319
sg159
(lp4322
sg161
g60
sg162
Nsg163
Nsg164
Nsbag2
(g3
g4
Ntp4323
Rp4324
(dp4325
g8
g11
sg142
Nsg143
(dp4326
sg145
Nsg26
g29
sg146
(lp4327
I18
aI22
asg148
Nsg149
VJoshua 18:22
p4328
sg151
(lp4329
sg153
g104
sg154
Nsg155
(lp4330
I18
aI22
asg157
Nsg158
g4328
sg159
(lp4331
sg161
g60
sg162
Nsg163
Nsg164
Nsbag2
(g3
g4
Ntp4332
Rp4333
(dp4334
g8
g11
sg142
Nsg143
(dp4335
sg145
Nsg26
g29
sg146
(lp4336
I18
aI23
asg148
Nsg149
VJoshua 18:23
p4337
sg151
(lp4338
sg153
g104
sg154
Nsg155
(lp4339
I18
aI23
asg157
Nsg158
g4337
sg159
(lp4340
sg161
g60
sg162
Nsg163
Nsg164
Nsbag2
(g3
g4
Ntp4341
Rp4342
(dp4343
g8
g11
sg142
Nsg143
(dp4344
sg145
Nsg26
g29
sg146
(lp4345
I18
aI24
asg148
Nsg149
VJoshua 18:24
p4346
sg151
(lp4347
sg153
g104
sg154
Nsg155
(lp4348
I18
aI24
asg157
Nsg158
g4346
sg159
(lp4349
sg161
g60
sg162
Nsg163
Nsg164
Nsbag2
(g3
g4
Ntp4350
Rp4351
(dp4352
g8
g11
sg142
Nsg143
(dp4353
sg145
Nsg26
g29
sg146
(lp4354
I18
aI25
asg148
Nsg149
VJoshua 18:25
p4355
sg151
(lp4356
sg153
g104
sg154
Nsg155
(lp4357
I18
aI25
asg157
Nsg158
g4355
sg159
(lp4358
sg161
g60
sg162
Nsg163
Nsg164
Nsbag2
(g3
g4
Ntp4359
Rp4360
(dp4361
g8
g11
sg142
Nsg143
(dp4362
sg145
Nsg26
g29
sg146
(lp4363
I18
aI26
asg148
Nsg149
VJoshua 18:26
p4364
sg151
(lp4365
sg153
g104
sg154
Nsg155
(lp4366
I18
aI26
asg157
Nsg158
g4364
sg159
(lp4367
sg161
g60
sg162
Nsg163
Nsg164
Nsbag2
(g3
g4
Ntp4368
Rp4369
(dp4370
g8
g11
sg142
Nsg143
(dp4371
sg145
Nsg26
g29
sg146
(lp4372
I18
aI27
asg148
Nsg149
VJoshua 18:27
p4373
sg151
(lp4374
sg153
g104
sg154
Nsg155
(lp4375
I18
aI27
asg157
Nsg158
g4373
sg159
(lp4376
sg161
g60
sg162
Nsg163
Nsg164
Nsbag2
(g3
g4
Ntp4377
Rp4378
(dp4379
g8
g11
sg142
Nsg143
(dp4380
sg145
Nsg26
g29
sg146
(lp4381
I18
aI28
asg148
Nsg149
VJoshua 18:28
p4382
sg151
(lp4383
sg153
g104
sg154
Nsg155
(lp4384
I18
aI28
asg157
Nsg158
g4382
sg159
(lp4385
sg161
g60
sg162
Nsg163
Nsg164
Nsbag2
(g3
g4
Ntp4386
Rp4387
(dp4388
g8
g11
sg142
Nsg143
(dp4389
sg145
Nsg26
g29
sg146
(lp4390
I19
aI1
asg148
Nsg149
VJoshua 19:1
p4391
sg151
(lp4392
sg153
g104
sg154
Nsg155
(lp4393
I19
aI1
asg157
Nsg158
g4391
sg159
(lp4394
sg161
g60
sg162
Nsg163
Nsg164
Nsbag2
(g3
g4
Ntp4395
Rp4396
(dp4397
g8
g11
sg142
Nsg143
(dp4398
sg145
Nsg26
g29
sg146
(lp4399
I19
aI2
asg148
Nsg149
VJoshua 19:2
p4400
sg151
(lp4401
sg153
g104
sg154
Nsg155
(lp4402
I19
aI2
asg157
Nsg158
g4400
sg159
(lp4403
sg161
g60
sg162
Nsg163
Nsg164
Nsbag2
(g3
g4
Ntp4404
Rp4405
(dp4406
g8
g11
sg142
Nsg143
(dp4407
sg145
Nsg26
g29
sg146
(lp4408
I19
aI3
asg148
Nsg149
VJoshua 19:3
p4409
sg151
(lp4410
sg153
g104
sg154
Nsg155
(lp4411
I19
aI3
asg157
Nsg158
g4409
sg159
(lp4412
sg161
g60
sg162
Nsg163
Nsg164
Nsbag2
(g3
g4
Ntp4413
Rp4414
(dp4415
g8
g11
sg142
Nsg143
(dp4416
sg145
Nsg26
g29
sg146
(lp4417
I19
aI4
asg148
Nsg149
VJoshua 19:4
p4418
sg151
(lp4419
sg153
g104
sg154
Nsg155
(lp4420
I19
aI4
asg157
Nsg158
g4418
sg159
(lp4421
sg161
g60
sg162
Nsg163
Nsg164
Nsbag2
(g3
g4
Ntp4422
Rp4423
(dp4424
g8
g11
sg142
Nsg143
(dp4425
sg145
Nsg26
g29
sg146
(lp4426
I19
aI5
asg148
Nsg149
VJoshua 19:5
p4427
sg151
(lp4428
sg153
g104
sg154
Nsg155
(lp4429
I19
aI5
asg157
Nsg158
g4427
sg159
(lp4430
sg161
g60
sg162
Nsg163
Nsg164
Nsbag2
(g3
g4
Ntp4431
Rp4432
(dp4433
g8
g11
sg142
Nsg143
(dp4434
sg145
Nsg26
g29
sg146
(lp4435
I19
aI6
asg148
Nsg149
VJoshua 19:6
p4436
sg151
(lp4437
sg153
g104
sg154
Nsg155
(lp4438
I19
aI6
asg157
Nsg158
g4436
sg159
(lp4439
sg161
g60
sg162
Nsg163
Nsg164
Nsbag2
(g3
g4
Ntp4440
Rp4441
(dp4442
g8
g11
sg142
Nsg143
(dp4443
sg145
Nsg26
g29
sg146
(lp4444
I19
aI7
asg148
Nsg149
VJoshua 19:7
p4445
sg151
(lp4446
sg153
g104
sg154
Nsg155
(lp4447
I19
aI7
asg157
Nsg158
g4445
sg159
(lp4448
sg161
g60
sg162
Nsg163
Nsg164
Nsbag2
(g3
g4
Ntp4449
Rp4450
(dp4451
g8
g11
sg142
Nsg143
(dp4452
sg145
Nsg26
g29
sg146
(lp4453
I19
aI8
asg148
Nsg149
VJoshua 19:8
p4454
sg151
(lp4455
sg153
g104
sg154
Nsg155
(lp4456
I19
aI8
asg157
Nsg158
g4454
sg159
(lp4457
sg161
g60
sg162
Nsg163
Nsg164
Nsbag2
(g3
g4
Ntp4458
Rp4459
(dp4460
g8
g11
sg142
Nsg143
(dp4461
sg145
Nsg26
g29
sg146
(lp4462
I19
aI9
asg148
Nsg149
VJoshua 19:9
p4463
sg151
(lp4464
sg153
g104
sg154
Nsg155
(lp4465
I19
aI9
asg157
Nsg158
g4463
sg159
(lp4466
sg161
g60
sg162
Nsg163
Nsg164
Nsbag2
(g3
g4
Ntp4467
Rp4468
(dp4469
g8
g11
sg142
Nsg143
(dp4470
sg145
Nsg26
g29
sg146
(lp4471
I19
aI10
asg148
Nsg149
VJoshua 19:10
p4472
sg151
(lp4473
sg153
g104
sg154
Nsg155
(lp4474
I19
aI10
asg157
Nsg158
g4472
sg159
(lp4475
sg161
g60
sg162
Nsg163
Nsg164
Nsbag2
(g3
g4
Ntp4476
Rp4477
(dp4478
g8
g11
sg142
Nsg143
(dp4479
sg145
Nsg26
g29
sg146
(lp4480
I19
aI11
asg148
Nsg149
VJoshua 19:11
p4481
sg151
(lp4482
sg153
g104
sg154
Nsg155
(lp4483
I19
aI11
asg157
Nsg158
g4481
sg159
(lp4484
sg161
g60
sg162
Nsg163
Nsg164
Nsbag2
(g3
g4
Ntp4485
Rp4486
(dp4487
g8
g11
sg142
Nsg143
(dp4488
sg145
Nsg26
g29
sg146
(lp4489
I19
aI12
asg148
Nsg149
VJoshua 19:12
p4490
sg151
(lp4491
sg153
g104
sg154
Nsg155
(lp4492
I19
aI12
asg157
Nsg158
g4490
sg159
(lp4493
sg161
g60
sg162
Nsg163
Nsg164
Nsbag2
(g3
g4
Ntp4494
Rp4495
(dp4496
g8
g11
sg142
Nsg143
(dp4497
sg145
Nsg26
g29
sg146
(lp4498
I19
aI13
asg148
Nsg149
VJoshua 19:13
p4499
sg151
(lp4500
sg153
g104
sg154
Nsg155
(lp4501
I19
aI13
asg157
Nsg158
g4499
sg159
(lp4502
sg161
g60
sg162
Nsg163
Nsg164
Nsbag2
(g3
g4
Ntp4503
Rp4504
(dp4505
g8
g11
sg142
Nsg143
(dp4506
sg145
Nsg26
g29
sg146
(lp4507
I19
aI14
asg148
Nsg149
VJoshua 19:14
p4508
sg151
(lp4509
sg153
g104
sg154
Nsg155
(lp4510
I19
aI14
asg157
Nsg158
g4508
sg159
(lp4511
sg161
g60
sg162
Nsg163
Nsg164
Nsbag2
(g3
g4
Ntp4512
Rp4513
(dp4514
g8
g11
sg142
Nsg143
(dp4515
sg145
Nsg26
g29
sg146
(lp4516
I19
aI15
asg148
Nsg149
VJoshua 19:15
p4517
sg151
(lp4518
sg153
g104
sg154
Nsg155
(lp4519
I19
aI15
asg157
Nsg158
g4517
sg159
(lp4520
sg161
g60
sg162
Nsg163
Nsg164
Nsbag2
(g3
g4
Ntp4521
Rp4522
(dp4523
g8
g11
sg142
Nsg143
(dp4524
sg145
Nsg26
g29
sg146
(lp4525
I19
aI16
asg148
Nsg149
VJoshua 19:16
p4526
sg151
(lp4527
sg153
g104
sg154
Nsg155
(lp4528
I19
aI16
asg157
Nsg158
g4526
sg159
(lp4529
sg161
g60
sg162
Nsg163
Nsg164
Nsbag2
(g3
g4
Ntp4530
Rp4531
(dp4532
g8
g11
sg142
Nsg143
(dp4533
sg145
Nsg26
g29
sg146
(lp4534
I19
aI17
asg148
Nsg149
VJoshua 19:17
p4535
sg151
(lp4536
sg153
g104
sg154
Nsg155
(lp4537
I19
aI17
asg157
Nsg158
g4535
sg159
(lp4538
sg161
g60
sg162
Nsg163
Nsg164
Nsbag2
(g3
g4
Ntp4539
Rp4540
(dp4541
g8
g11
sg142
Nsg143
(dp4542
sg145
Nsg26
g29
sg146
(lp4543
I19
aI18
asg148
Nsg149
VJoshua 19:18
p4544
sg151
(lp4545
sg153
g104
sg154
Nsg155
(lp4546
I19
aI18
asg157
Nsg158
g4544
sg159
(lp4547
sg161
g60
sg162
Nsg163
Nsg164
Nsbag2
(g3
g4
Ntp4548
Rp4549
(dp4550
g8
g11
sg142
Nsg143
(dp4551
sg145
Nsg26
g29
sg146
(lp4552
I19
aI19
asg148
Nsg149
VJoshua 19:19
p4553
sg151
(lp4554
sg153
g104
sg154
Nsg155
(lp4555
I19
aI19
asg157
Nsg158
g4553
sg159
(lp4556
sg161
g60
sg162
Nsg163
Nsg164
Nsbag2
(g3
g4
Ntp4557
Rp4558
(dp4559
g8
g11
sg142
Nsg143
(dp4560
sg145
Nsg26
g29
sg146
(lp4561
I19
aI20
asg148
Nsg149
VJoshua 19:20
p4562
sg151
(lp4563
sg153
g104
sg154
Nsg155
(lp4564
I19
aI20
asg157
Nsg158
g4562
sg159
(lp4565
sg161
g60
sg162
Nsg163
Nsg164
Nsbag2
(g3
g4
Ntp4566
Rp4567
(dp4568
g8
g11
sg142
Nsg143
(dp4569
sg145
Nsg26
g29
sg146
(lp4570
I19
aI21
asg148
Nsg149
VJoshua 19:21
p4571
sg151
(lp4572
sg153
g104
sg154
Nsg155
(lp4573
I19
aI21
asg157
Nsg158
g4571
sg159
(lp4574
sg161
g60
sg162
Nsg163
Nsg164
Nsbag2
(g3
g4
Ntp4575
Rp4576
(dp4577
g8
g11
sg142
Nsg143
(dp4578
sg145
Nsg26
g29
sg146
(lp4579
I19
aI22
asg148
Nsg149
VJoshua 19:22
p4580
sg151
(lp4581
sg153
g104
sg154
Nsg155
(lp4582
I19
aI22
asg157
Nsg158
g4580
sg159
(lp4583
sg161
g60
sg162
Nsg163
Nsg164
Nsbag2
(g3
g4
Ntp4584
Rp4585
(dp4586
g8
g11
sg142
Nsg143
(dp4587
sg145
Nsg26
g29
sg146
(lp4588
I19
aI23
asg148
Nsg149
VJoshua 19:23
p4589
sg151
(lp4590
sg153
g104
sg154
Nsg155
(lp4591
I19
aI23
asg157
Nsg158
g4589
sg159
(lp4592
sg161
g60
sg162
Nsg163
Nsg164
Nsbag2
(g3
g4
Ntp4593
Rp4594
(dp4595
g8
g11
sg142
Nsg143
(dp4596
sg145
Nsg26
g29
sg146
(lp4597
I19
aI24
asg148
Nsg149
VJoshua 19:24
p4598
sg151
(lp4599
sg153
g104
sg154
Nsg155
(lp4600
I19
aI24
asg157
Nsg158
g4598
sg159
(lp4601
sg161
g60
sg162
Nsg163
Nsg164
Nsbag2
(g3
g4
Ntp4602
Rp4603
(dp4604
g8
g11
sg142
Nsg143
(dp4605
sg145
Nsg26
g29
sg146
(lp4606
I19
aI25
asg148
Nsg149
VJoshua 19:25
p4607
sg151
(lp4608
sg153
g104
sg154
Nsg155
(lp4609
I19
aI25
asg157
Nsg158
g4607
sg159
(lp4610
sg161
g60
sg162
Nsg163
Nsg164
Nsbag2
(g3
g4
Ntp4611
Rp4612
(dp4613
g8
g11
sg142
Nsg143
(dp4614
sg145
Nsg26
g29
sg146
(lp4615
I19
aI26
asg148
Nsg149
VJoshua 19:26
p4616
sg151
(lp4617
sg153
g104
sg154
Nsg155
(lp4618
I19
aI26
asg157
Nsg158
g4616
sg159
(lp4619
sg161
g60
sg162
Nsg163
Nsg164
Nsbag2
(g3
g4
Ntp4620
Rp4621
(dp4622
g8
g11
sg142
Nsg143
(dp4623
sg145
Nsg26
g29
sg146
(lp4624
I19
aI27
asg148
Nsg149
VJoshua 19:27
p4625
sg151
(lp4626
sg153
g104
sg154
Nsg155
(lp4627
I19
aI27
asg157
Nsg158
g4625
sg159
(lp4628
sg161
g60
sg162
Nsg163
Nsg164
Nsbag2
(g3
g4
Ntp4629
Rp4630
(dp4631
g8
g11
sg142
Nsg143
(dp4632
sg145
Nsg26
g29
sg146
(lp4633
I19
aI28
asg148
Nsg149
VJoshua 19:28
p4634
sg151
(lp4635
sg153
g104
sg154
Nsg155
(lp4636
I19
aI28
asg157
Nsg158
g4634
sg159
(lp4637
sg161
g60
sg162
Nsg163
Nsg164
Nsbag2
(g3
g4
Ntp4638
Rp4639
(dp4640
g8
g11
sg142
Nsg143
(dp4641
sg145
Nsg26
g29
sg146
(lp4642
I19
aI29
asg148
Nsg149
VJoshua 19:29
p4643
sg151
(lp4644
sg153
g104
sg154
Nsg155
(lp4645
I19
aI29
asg157
Nsg158
g4643
sg159
(lp4646
sg161
g60
sg162
Nsg163
Nsg164
Nsbag2
(g3
g4
Ntp4647
Rp4648
(dp4649
g8
g11
sg142
Nsg143
(dp4650
sg145
Nsg26
g29
sg146
(lp4651
I19
aI30
asg148
Nsg149
VJoshua 19:30
p4652
sg151
(lp4653
sg153
g104
sg154
Nsg155
(lp4654
I19
aI30
asg157
Nsg158
g4652
sg159
(lp4655
sg161
g60
sg162
Nsg163
Nsg164
Nsbag2
(g3
g4
Ntp4656
Rp4657
(dp4658
g8
g11
sg142
Nsg143
(dp4659
sg145
Nsg26
g29
sg146
(lp4660
I19
aI31
asg148
Nsg149
VJoshua 19:31
p4661
sg151
(lp4662
sg153
g104
sg154
Nsg155
(lp4663
I19
aI31
asg157
Nsg158
g4661
sg159
(lp4664
sg161
g60
sg162
Nsg163
Nsg164
Nsbag2
(g3
g4
Ntp4665
Rp4666
(dp4667
g8
g11
sg142
Nsg143
(dp4668
sg145
Nsg26
g29
sg146
(lp4669
I19
aI32
asg148
Nsg149
VJoshua 19:32
p4670
sg151
(lp4671
sg153
g104
sg154
Nsg155
(lp4672
I19
aI32
asg157
Nsg158
g4670
sg159
(lp4673
sg161
g60
sg162
Nsg163
Nsg164
Nsbag2
(g3
g4
Ntp4674
Rp4675
(dp4676
g8
g11
sg142
Nsg143
(dp4677
sg145
Nsg26
g29
sg146
(lp4678
I19
aI33
asg148
Nsg149
VJoshua 19:33
p4679
sg151
(lp4680
sg153
g104
sg154
Nsg155
(lp4681
I19
aI33
asg157
Nsg158
g4679
sg159
(lp4682
sg161
g60
sg162
Nsg163
Nsg164
Nsbag2
(g3
g4
Ntp4683
Rp4684
(dp4685
g8
g11
sg142
Nsg143
(dp4686
sg145
Nsg26
g29
sg146
(lp4687
I19
aI34
asg148
Nsg149
VJoshua 19:34
p4688
sg151
(lp4689
sg153
g104
sg154
Nsg155
(lp4690
I19
aI34
asg157
Nsg158
g4688
sg159
(lp4691
sg161
g60
sg162
Nsg163
Nsg164
Nsbag2
(g3
g4
Ntp4692
Rp4693
(dp4694
g8
g11
sg142
Nsg143
(dp4695
sg145
Nsg26
g29
sg146
(lp4696
I19
aI35
asg148
Nsg149
VJoshua 19:35
p4697
sg151
(lp4698
sg153
g104
sg154
Nsg155
(lp4699
I19
aI35
asg157
Nsg158
g4697
sg159
(lp4700
sg161
g60
sg162
Nsg163
Nsg164
Nsbag2
(g3
g4
Ntp4701
Rp4702
(dp4703
g8
g11
sg142
Nsg143
(dp4704
sg145
Nsg26
g29
sg146
(lp4705
I19
aI36
asg148
Nsg149
VJoshua 19:36
p4706
sg151
(lp4707
sg153
g104
sg154
Nsg155
(lp4708
I19
aI36
asg157
Nsg158
g4706
sg159
(lp4709
sg161
g60
sg162
Nsg163
Nsg164
Nsbag2
(g3
g4
Ntp4710
Rp4711
(dp4712
g8
g11
sg142
Nsg143
(dp4713
sg145
Nsg26
g29
sg146
(lp4714
I19
aI37
asg148
Nsg149
VJoshua 19:37
p4715
sg151
(lp4716
sg153
g104
sg154
Nsg155
(lp4717
I19
aI37
asg157
Nsg158
g4715
sg159
(lp4718
sg161
g60
sg162
Nsg163
Nsg164
Nsbag2
(g3
g4
Ntp4719
Rp4720
(dp4721
g8
g11
sg142
Nsg143
(dp4722
sg145
Nsg26
g29
sg146
(lp4723
I19
aI38
asg148
Nsg149
VJoshua 19:38
p4724
sg151
(lp4725
sg153
g104
sg154
Nsg155
(lp4726
I19
aI38
asg157
Nsg158
g4724
sg159
(lp4727
sg161
g60
sg162
Nsg163
Nsg164
Nsbag2
(g3
g4
Ntp4728
Rp4729
(dp4730
g8
g11
sg142
Nsg143
(dp4731
sg145
Nsg26
g29
sg146
(lp4732
I19
aI39
asg148
Nsg149
VJoshua 19:39
p4733
sg151
(lp4734
sg153
g104
sg154
Nsg155
(lp4735
I19
aI39
asg157
Nsg158
g4733
sg159
(lp4736
sg161
g60
sg162
Nsg163
Nsg164
Nsbag2
(g3
g4
Ntp4737
Rp4738
(dp4739
g8
g11
sg142
Nsg143
(dp4740
sg145
Nsg26
g29
sg146
(lp4741
I19
aI40
asg148
Nsg149
VJoshua 19:40
p4742
sg151
(lp4743
sg153
g104
sg154
Nsg155
(lp4744
I19
aI40
asg157
Nsg158
g4742
sg159
(lp4745
sg161
g60
sg162
Nsg163
Nsg164
Nsbag2
(g3
g4
Ntp4746
Rp4747
(dp4748
g8
g11
sg142
Nsg143
(dp4749
sg145
Nsg26
g29
sg146
(lp4750
I19
aI41
asg148
Nsg149
VJoshua 19:41
p4751
sg151
(lp4752
sg153
g104
sg154
Nsg155
(lp4753
I19
aI41
asg157
Nsg158
g4751
sg159
(lp4754
sg161
g60
sg162
Nsg163
Nsg164
Nsbag2
(g3
g4
Ntp4755
Rp4756
(dp4757
g8
g11
sg142
Nsg143
(dp4758
sg145
Nsg26
g29
sg146
(lp4759
I19
aI42
asg148
Nsg149
VJoshua 19:42
p4760
sg151
(lp4761
sg153
g104
sg154
Nsg155
(lp4762
I19
aI42
asg157
Nsg158
g4760
sg159
(lp4763
sg161
g60
sg162
Nsg163
Nsg164
Nsbag2
(g3
g4
Ntp4764
Rp4765
(dp4766
g8
g11
sg142
Nsg143
(dp4767
sg145
Nsg26
g29
sg146
(lp4768
I19
aI43
asg148
Nsg149
VJoshua 19:43
p4769
sg151
(lp4770
sg153
g104
sg154
Nsg155
(lp4771
I19
aI43
asg157
Nsg158
g4769
sg159
(lp4772
sg161
g60
sg162
Nsg163
Nsg164
Nsbag2
(g3
g4
Ntp4773
Rp4774
(dp4775
g8
g11
sg142
Nsg143
(dp4776
sg145
Nsg26
g29
sg146
(lp4777
I19
aI44
asg148
Nsg149
VJoshua 19:44
p4778
sg151
(lp4779
sg153
g104
sg154
Nsg155
(lp4780
I19
aI44
asg157
Nsg158
g4778
sg159
(lp4781
sg161
g60
sg162
Nsg163
Nsg164
Nsbag2
(g3
g4
Ntp4782
Rp4783
(dp4784
g8
g11
sg142
Nsg143
(dp4785
sg145
Nsg26
g29
sg146
(lp4786
I19
aI45
asg148
Nsg149
VJoshua 19:45
p4787
sg151
(lp4788
sg153
g104
sg154
Nsg155
(lp4789
I19
aI45
asg157
Nsg158
g4787
sg159
(lp4790
sg161
g60
sg162
Nsg163
Nsg164
Nsbag2
(g3
g4
Ntp4791
Rp4792
(dp4793
g8
g11
sg142
Nsg143
(dp4794
sg145
Nsg26
g29
sg146
(lp4795
I19
aI46
asg148
Nsg149
VJoshua 19:46
p4796
sg151
(lp4797
sg153
g104
sg154
Nsg155
(lp4798
I19
aI46
asg157
Nsg158
g4796
sg159
(lp4799
sg161
g60
sg162
Nsg163
Nsg164
Nsbag2
(g3
g4
Ntp4800
Rp4801
(dp4802
g8
g11
sg142
Nsg143
(dp4803
sg145
Nsg26
g29
sg146
(lp4804
I19
aI47
asg148
Nsg149
VJoshua 19:47
p4805
sg151
(lp4806
sg153
g104
sg154
Nsg155
(lp4807
I19
aI47
asg157
Nsg158
g4805
sg159
(lp4808
sg161
g60
sg162
Nsg163
Nsg164
Nsbag2
(g3
g4
Ntp4809
Rp4810
(dp4811
g8
g11
sg142
Nsg143
(dp4812
sg145
Nsg26
g29
sg146
(lp4813
I19
aI48
asg148
Nsg149
VJoshua 19:48
p4814
sg151
(lp4815
sg153
g104
sg154
Nsg155
(lp4816
I19
aI48
asg157
Nsg158
g4814
sg159
(lp4817
sg161
g60
sg162
Nsg163
Nsg164
Nsbag2
(g3
g4
Ntp4818
Rp4819
(dp4820
g8
g11
sg142
Nsg143
(dp4821
sg145
Nsg26
g29
sg146
(lp4822
I19
aI49
asg148
Nsg149
VJoshua 19:49
p4823
sg151
(lp4824
sg153
g104
sg154
Nsg155
(lp4825
I19
aI49
asg157
Nsg158
g4823
sg159
(lp4826
sg161
g60
sg162
Nsg163
Nsg164
Nsbag2
(g3
g4
Ntp4827
Rp4828
(dp4829
g8
g11
sg142
Nsg143
(dp4830
sg145
Nsg26
g29
sg146
(lp4831
I19
aI50
asg148
Nsg149
VJoshua 19:50
p4832
sg151
(lp4833
sg153
g104
sg154
Nsg155
(lp4834
I19
aI50
asg157
Nsg158
g4832
sg159
(lp4835
sg161
g60
sg162
Nsg163
Nsg164
Nsbag2
(g3
g4
Ntp4836
Rp4837
(dp4838
g8
g11
sg142
Nsg143
(dp4839
sg145
Nsg26
g29
sg146
(lp4840
I19
aI51
asg148
Nsg149
VJoshua 19:51
p4841
sg151
(lp4842
sg153
g104
sg154
Nsg155
(lp4843
I19
aI51
asg157
Nsg158
g4841
sg159
(lp4844
sg161
g60
sg162
Nsg163
Nsg164
Nsbag2
(g3
g4
Ntp4845
Rp4846
(dp4847
g8
g11
sg142
Nsg143
(dp4848
sg145
Nsg26
g29
sg146
(lp4849
I20
aI1
asg148
Nsg149
VJoshua 20:1
p4850
sg151
(lp4851
sg153
g104
sg154
Nsg155
(lp4852
I20
aI1
asg157
Nsg158
g4850
sg159
(lp4853
sg161
g60
sg162
Nsg163
Nsg164
Nsbag2
(g3
g4
Ntp4854
Rp4855
(dp4856
g8
g11
sg142
Nsg143
(dp4857
sg145
Nsg26
g29
sg146
(lp4858
I20
aI2
asg148
Nsg149
VJoshua 20:2
p4859
sg151
(lp4860
sg153
g104
sg154
Nsg155
(lp4861
I20
aI2
asg157
Nsg158
g4859
sg159
(lp4862
sg161
g60
sg162
Nsg163
Nsg164
Nsbag2
(g3
g4
Ntp4863
Rp4864
(dp4865
g8
g11
sg142
Nsg143
(dp4866
sg145
Nsg26
g29
sg146
(lp4867
I20
aI3
asg148
Nsg149
VJoshua 20:3
p4868
sg151
(lp4869
sg153
g104
sg154
Nsg155
(lp4870
I20
aI3
asg157
Nsg158
g4868
sg159
(lp4871
sg161
g60
sg162
Nsg163
Nsg164
Nsbag2
(g3
g4
Ntp4872
Rp4873
(dp4874
g8
g11
sg142
Nsg143
(dp4875
sg145
Nsg26
g29
sg146
(lp4876
I20
aI4
asg148
Nsg149
VJoshua 20:4
p4877
sg151
(lp4878
sg153
g104
sg154
Nsg155
(lp4879
I20
aI4
asg157
Nsg158
g4877
sg159
(lp4880
sg161
g60
sg162
Nsg163
Nsg164
Nsbag2
(g3
g4
Ntp4881
Rp4882
(dp4883
g8
g11
sg142
Nsg143
(dp4884
sg145
Nsg26
g29
sg146
(lp4885
I20
aI5
asg148
Nsg149
VJoshua 20:5
p4886
sg151
(lp4887
sg153
g104
sg154
Nsg155
(lp4888
I20
aI5
asg157
Nsg158
g4886
sg159
(lp4889
sg161
g60
sg162
Nsg163
Nsg164
Nsbag2
(g3
g4
Ntp4890
Rp4891
(dp4892
g8
g11
sg142
Nsg143
(dp4893
sg145
Nsg26
g29
sg146
(lp4894
I20
aI6
asg148
Nsg149
VJoshua 20:6
p4895
sg151
(lp4896
sg153
g104
sg154
Nsg155
(lp4897
I20
aI6
asg157
Nsg158
g4895
sg159
(lp4898
sg161
g60
sg162
Nsg163
Nsg164
Nsbag2
(g3
g4
Ntp4899
Rp4900
(dp4901
g8
g11
sg142
Nsg143
(dp4902
sg145
Nsg26
g29
sg146
(lp4903
I20
aI7
asg148
Nsg149
VJoshua 20:7
p4904
sg151
(lp4905
sg153
g104
sg154
Nsg155
(lp4906
I20
aI7
asg157
Nsg158
g4904
sg159
(lp4907
sg161
g60
sg162
Nsg163
Nsg164
Nsbag2
(g3
g4
Ntp4908
Rp4909
(dp4910
g8
g11
sg142
Nsg143
(dp4911
sg145
Nsg26
g29
sg146
(lp4912
I20
aI8
asg148
Nsg149
VJoshua 20:8
p4913
sg151
(lp4914
sg153
g104
sg154
Nsg155
(lp4915
I20
aI8
asg157
Nsg158
g4913
sg159
(lp4916
sg161
g60
sg162
Nsg163
Nsg164
Nsbag2
(g3
g4
Ntp4917
Rp4918
(dp4919
g8
g11
sg142
Nsg143
(dp4920
sg145
Nsg26
g29
sg146
(lp4921
I20
aI9
asg148
Nsg149
VJoshua 20:9
p4922
sg151
(lp4923
sg153
g104
sg154
Nsg155
(lp4924
I20
aI9
asg157
Nsg158
g4922
sg159
(lp4925
sg161
g60
sg162
Nsg163
Nsg164
Nsbag2
(g3
g4
Ntp4926
Rp4927
(dp4928
g8
g11
sg142
Nsg143
(dp4929
sg145
Nsg26
g29
sg146
(lp4930
I21
aI1
asg148
Nsg149
VJoshua 21:1
p4931
sg151
(lp4932
sg153
g104
sg154
Nsg155
(lp4933
I21
aI1
asg157
Nsg158
g4931
sg159
(lp4934
sg161
g60
sg162
Nsg163
Nsg164
Nsbag2
(g3
g4
Ntp4935
Rp4936
(dp4937
g8
g11
sg142
Nsg143
(dp4938
sg145
Nsg26
g29
sg146
(lp4939
I21
aI2
asg148
Nsg149
VJoshua 21:2
p4940
sg151
(lp4941
sg153
g104
sg154
Nsg155
(lp4942
I21
aI2
asg157
Nsg158
g4940
sg159
(lp4943
sg161
g60
sg162
Nsg163
Nsg164
Nsbag2
(g3
g4
Ntp4944
Rp4945
(dp4946
g8
g11
sg142
Nsg143
(dp4947
sg145
Nsg26
g29
sg146
(lp4948
I21
aI3
asg148
Nsg149
VJoshua 21:3
p4949
sg151
(lp4950
sg153
g104
sg154
Nsg155
(lp4951
I21
aI3
asg157
Nsg158
g4949
sg159
(lp4952
sg161
g60
sg162
Nsg163
Nsg164
Nsbag2
(g3
g4
Ntp4953
Rp4954
(dp4955
g8
g11
sg142
Nsg143
(dp4956
sg145
Nsg26
g29
sg146
(lp4957
I21
aI4
asg148
Nsg149
VJoshua 21:4
p4958
sg151
(lp4959
sg153
g104
sg154
Nsg155
(lp4960
I21
aI4
asg157
Nsg158
g4958
sg159
(lp4961
sg161
g60
sg162
Nsg163
Nsg164
Nsbag2
(g3
g4
Ntp4962
Rp4963
(dp4964
g8
g11
sg142
Nsg143
(dp4965
sg145
Nsg26
g29
sg146
(lp4966
I21
aI5
asg148
Nsg149
VJoshua 21:5
p4967
sg151
(lp4968
sg153
g104
sg154
Nsg155
(lp4969
I21
aI5
asg157
Nsg158
g4967
sg159
(lp4970
sg161
g60
sg162
Nsg163
Nsg164
Nsbag2
(g3
g4
Ntp4971
Rp4972
(dp4973
g8
g11
sg142
Nsg143
(dp4974
sg145
Nsg26
g29
sg146
(lp4975
I21
aI6
asg148
Nsg149
VJoshua 21:6
p4976
sg151
(lp4977
sg153
g104
sg154
Nsg155
(lp4978
I21
aI6
asg157
Nsg158
g4976
sg159
(lp4979
sg161
g60
sg162
Nsg163
Nsg164
Nsbag2
(g3
g4
Ntp4980
Rp4981
(dp4982
g8
g11
sg142
Nsg143
(dp4983
sg145
Nsg26
g29
sg146
(lp4984
I21
aI7
asg148
Nsg149
VJoshua 21:7
p4985
sg151
(lp4986
sg153
g104
sg154
Nsg155
(lp4987
I21
aI7
asg157
Nsg158
g4985
sg159
(lp4988
sg161
g60
sg162
Nsg163
Nsg164
Nsbag2
(g3
g4
Ntp4989
Rp4990
(dp4991
g8
g11
sg142
Nsg143
(dp4992
sg145
Nsg26
g29
sg146
(lp4993
I21
aI8
asg148
Nsg149
VJoshua 21:8
p4994
sg151
(lp4995
sg153
g104
sg154
Nsg155
(lp4996
I21
aI8
asg157
Nsg158
g4994
sg159
(lp4997
sg161
g60
sg162
Nsg163
Nsg164
Nsbag2
(g3
g4
Ntp4998
Rp4999
(dp5000
g8
g11
sg142
Nsg143
(dp5001
sg145
Nsg26
g29
sg146
(lp5002
I21
aI9
asg148
Nsg149
VJoshua 21:9
p5003
sg151
(lp5004
sg153
g104
sg154
Nsg155
(lp5005
I21
aI9
asg157
Nsg158
g5003
sg159
(lp5006
sg161
g60
sg162
Nsg163
Nsg164
Nsbag2
(g3
g4
Ntp5007
Rp5008
(dp5009
g8
g11
sg142
Nsg143
(dp5010
sg145
Nsg26
g29
sg146
(lp5011
I21
aI10
asg148
Nsg149
VJoshua 21:10
p5012
sg151
(lp5013
sg153
g104
sg154
Nsg155
(lp5014
I21
aI10
asg157
Nsg158
g5012
sg159
(lp5015
sg161
g60
sg162
Nsg163
Nsg164
Nsbag2
(g3
g4
Ntp5016
Rp5017
(dp5018
g8
g11
sg142
Nsg143
(dp5019
sg145
Nsg26
g29
sg146
(lp5020
I21
aI11
asg148
Nsg149
VJoshua 21:11
p5021
sg151
(lp5022
sg153
g104
sg154
Nsg155
(lp5023
I21
aI11
asg157
Nsg158
g5021
sg159
(lp5024
sg161
g60
sg162
Nsg163
Nsg164
Nsbag2
(g3
g4
Ntp5025
Rp5026
(dp5027
g8
g11
sg142
Nsg143
(dp5028
sg145
Nsg26
g29
sg146
(lp5029
I21
aI12
asg148
Nsg149
VJoshua 21:12
p5030
sg151
(lp5031
sg153
g104
sg154
Nsg155
(lp5032
I21
aI12
asg157
Nsg158
g5030
sg159
(lp5033
sg161
g60
sg162
Nsg163
Nsg164
Nsbag2
(g3
g4
Ntp5034
Rp5035
(dp5036
g8
g11
sg142
Nsg143
(dp5037
sg145
Nsg26
g29
sg146
(lp5038
I21
aI13
asg148
Nsg149
VJoshua 21:13
p5039
sg151
(lp5040
sg153
g104
sg154
Nsg155
(lp5041
I21
aI13
asg157
Nsg158
g5039
sg159
(lp5042
sg161
g60
sg162
Nsg163
Nsg164
Nsbag2
(g3
g4
Ntp5043
Rp5044
(dp5045
g8
g11
sg142
Nsg143
(dp5046
sg145
Nsg26
g29
sg146
(lp5047
I21
aI14
asg148
Nsg149
VJoshua 21:14
p5048
sg151
(lp5049
sg153
g104
sg154
Nsg155
(lp5050
I21
aI14
asg157
Nsg158
g5048
sg159
(lp5051
sg161
g60
sg162
Nsg163
Nsg164
Nsbag2
(g3
g4
Ntp5052
Rp5053
(dp5054
g8
g11
sg142
Nsg143
(dp5055
sg145
Nsg26
g29
sg146
(lp5056
I21
aI15
asg148
Nsg149
VJoshua 21:15
p5057
sg151
(lp5058
sg153
g104
sg154
Nsg155
(lp5059
I21
aI15
asg157
Nsg158
g5057
sg159
(lp5060
sg161
g60
sg162
Nsg163
Nsg164
Nsbag2
(g3
g4
Ntp5061
Rp5062
(dp5063
g8
g11
sg142
Nsg143
(dp5064
sg145
Nsg26
g29
sg146
(lp5065
I21
aI16
asg148
Nsg149
VJoshua 21:16
p5066
sg151
(lp5067
sg153
g104
sg154
Nsg155
(lp5068
I21
aI16
asg157
Nsg158
g5066
sg159
(lp5069
sg161
g60
sg162
Nsg163
Nsg164
Nsbag2
(g3
g4
Ntp5070
Rp5071
(dp5072
g8
g11
sg142
Nsg143
(dp5073
sg145
Nsg26
g29
sg146
(lp5074
I21
aI17
asg148
Nsg149
VJoshua 21:17
p5075
sg151
(lp5076
sg153
g104
sg154
Nsg155
(lp5077
I21
aI17
asg157
Nsg158
g5075
sg159
(lp5078
sg161
g60
sg162
Nsg163
Nsg164
Nsbag2
(g3
g4
Ntp5079
Rp5080
(dp5081
g8
g11
sg142
Nsg143
(dp5082
sg145
Nsg26
g29
sg146
(lp5083
I21
aI18
asg148
Nsg149
VJoshua 21:18
p5084
sg151
(lp5085
sg153
g104
sg154
Nsg155
(lp5086
I21
aI18
asg157
Nsg158
g5084
sg159
(lp5087
sg161
g60
sg162
Nsg163
Nsg164
Nsbag2
(g3
g4
Ntp5088
Rp5089
(dp5090
g8
g11
sg142
Nsg143
(dp5091
sg145
Nsg26
g29
sg146
(lp5092
I21
aI19
asg148
Nsg149
VJoshua 21:19
p5093
sg151
(lp5094
sg153
g104
sg154
Nsg155
(lp5095
I21
aI19
asg157
Nsg158
g5093
sg159
(lp5096
sg161
g60
sg162
Nsg163
Nsg164
Nsbag2
(g3
g4
Ntp5097
Rp5098
(dp5099
g8
g11
sg142
Nsg143
(dp5100
sg145
Nsg26
g29
sg146
(lp5101
I21
aI20
asg148
Nsg149
VJoshua 21:20
p5102
sg151
(lp5103
sg153
g104
sg154
Nsg155
(lp5104
I21
aI20
asg157
Nsg158
g5102
sg159
(lp5105
sg161
g60
sg162
Nsg163
Nsg164
Nsbag2
(g3
g4
Ntp5106
Rp5107
(dp5108
g8
g11
sg142
Nsg143
(dp5109
sg145
Nsg26
g29
sg146
(lp5110
I21
aI21
asg148
Nsg149
VJoshua 21:21
p5111
sg151
(lp5112
sg153
g104
sg154
Nsg155
(lp5113
I21
aI21
asg157
Nsg158
g5111
sg159
(lp5114
sg161
g60
sg162
Nsg163
Nsg164
Nsbag2
(g3
g4
Ntp5115
Rp5116
(dp5117
g8
g11
sg142
Nsg143
(dp5118
sg145
Nsg26
g29
sg146
(lp5119
I21
aI22
asg148
Nsg149
VJoshua 21:22
p5120
sg151
(lp5121
sg153
g104
sg154
Nsg155
(lp5122
I21
aI22
asg157
Nsg158
g5120
sg159
(lp5123
sg161
g60
sg162
Nsg163
Nsg164
Nsbag2
(g3
g4
Ntp5124
Rp5125
(dp5126
g8
g11
sg142
Nsg143
(dp5127
sg145
Nsg26
g29
sg146
(lp5128
I21
aI23
asg148
Nsg149
VJoshua 21:23
p5129
sg151
(lp5130
sg153
g104
sg154
Nsg155
(lp5131
I21
aI23
asg157
Nsg158
g5129
sg159
(lp5132
sg161
g60
sg162
Nsg163
Nsg164
Nsbag2
(g3
g4
Ntp5133
Rp5134
(dp5135
g8
g11
sg142
Nsg143
(dp5136
sg145
Nsg26
g29
sg146
(lp5137
I21
aI24
asg148
Nsg149
VJoshua 21:24
p5138
sg151
(lp5139
sg153
g104
sg154
Nsg155
(lp5140
I21
aI24
asg157
Nsg158
g5138
sg159
(lp5141
sg161
g60
sg162
Nsg163
Nsg164
Nsbag2
(g3
g4
Ntp5142
Rp5143
(dp5144
g8
g11
sg142
Nsg143
(dp5145
sg145
Nsg26
g29
sg146
(lp5146
I21
aI25
asg148
Nsg149
VJoshua 21:25
p5147
sg151
(lp5148
sg153
g104
sg154
Nsg155
(lp5149
I21
aI25
asg157
Nsg158
g5147
sg159
(lp5150
sg161
g60
sg162
Nsg163
Nsg164
Nsbag2
(g3
g4
Ntp5151
Rp5152
(dp5153
g8
g11
sg142
Nsg143
(dp5154
sg145
Nsg26
g29
sg146
(lp5155
I21
aI26
asg148
Nsg149
VJoshua 21:26
p5156
sg151
(lp5157
sg153
g104
sg154
Nsg155
(lp5158
I21
aI26
asg157
Nsg158
g5156
sg159
(lp5159
sg161
g60
sg162
Nsg163
Nsg164
Nsbag2
(g3
g4
Ntp5160
Rp5161
(dp5162
g8
g11
sg142
Nsg143
(dp5163
sg145
Nsg26
g29
sg146
(lp5164
I21
aI27
asg148
Nsg149
VJoshua 21:27
p5165
sg151
(lp5166
sg153
g104
sg154
Nsg155
(lp5167
I21
aI27
asg157
Nsg158
g5165
sg159
(lp5168
sg161
g60
sg162
Nsg163
Nsg164
Nsbag2
(g3
g4
Ntp5169
Rp5170
(dp5171
g8
g11
sg142
Nsg143
(dp5172
sg145
Nsg26
g29
sg146
(lp5173
I21
aI28
asg148
Nsg149
VJoshua 21:28
p5174
sg151
(lp5175
sg153
g104
sg154
Nsg155
(lp5176
I21
aI28
asg157
Nsg158
g5174
sg159
(lp5177
sg161
g60
sg162
Nsg163
Nsg164
Nsbag2
(g3
g4
Ntp5178
Rp5179
(dp5180
g8
g11
sg142
Nsg143
(dp5181
sg145
Nsg26
g29
sg146
(lp5182
I21
aI29
asg148
Nsg149
VJoshua 21:29
p5183
sg151
(lp5184
sg153
g104
sg154
Nsg155
(lp5185
I21
aI29
asg157
Nsg158
g5183
sg159
(lp5186
sg161
g60
sg162
Nsg163
Nsg164
Nsbag2
(g3
g4
Ntp5187
Rp5188
(dp5189
g8
g11
sg142
Nsg143
(dp5190
sg145
Nsg26
g29
sg146
(lp5191
I21
aI30
asg148
Nsg149
VJoshua 21:30
p5192
sg151
(lp5193
sg153
g104
sg154
Nsg155
(lp5194
I21
aI30
asg157
Nsg158
g5192
sg159
(lp5195
sg161
g60
sg162
Nsg163
Nsg164
Nsbag2
(g3
g4
Ntp5196
Rp5197
(dp5198
g8
g11
sg142
Nsg143
(dp5199
sg145
Nsg26
g29
sg146
(lp5200
I21
aI31
asg148
Nsg149
VJoshua 21:31
p5201
sg151
(lp5202
sg153
g104
sg154
Nsg155
(lp5203
I21
aI31
asg157
Nsg158
g5201
sg159
(lp5204
sg161
g60
sg162
Nsg163
Nsg164
Nsbag2
(g3
g4
Ntp5205
Rp5206
(dp5207
g8
g11
sg142
Nsg143
(dp5208
sg145
Nsg26
g29
sg146
(lp5209
I21
aI32
asg148
Nsg149
VJoshua 21:32
p5210
sg151
(lp5211
sg153
g104
sg154
Nsg155
(lp5212
I21
aI32
asg157
Nsg158
g5210
sg159
(lp5213
sg161
g60
sg162
Nsg163
Nsg164
Nsbag2
(g3
g4
Ntp5214
Rp5215
(dp5216
g8
g11
sg142
Nsg143
(dp5217
sg145
Nsg26
g29
sg146
(lp5218
I21
aI33
asg148
Nsg149
VJoshua 21:33
p5219
sg151
(lp5220
sg153
g104
sg154
Nsg155
(lp5221
I21
aI33
asg157
Nsg158
g5219
sg159
(lp5222
sg161
g60
sg162
Nsg163
Nsg164
Nsbag2
(g3
g4
Ntp5223
Rp5224
(dp5225
g8
g11
sg142
Nsg143
(dp5226
sg145
Nsg26
g29
sg146
(lp5227
I21
aI34
asg148
Nsg149
VJoshua 21:34
p5228
sg151
(lp5229
sg153
g104
sg154
Nsg155
(lp5230
I21
aI34
asg157
Nsg158
g5228
sg159
(lp5231
sg161
g60
sg162
Nsg163
Nsg164
Nsbag2
(g3
g4
Ntp5232
Rp5233
(dp5234
g8
g11
sg142
Nsg143
(dp5235
sg145
Nsg26
g29
sg146
(lp5236
I21
aI35
asg148
Nsg149
VJoshua 21:35
p5237
sg151
(lp5238
sg153
g104
sg154
Nsg155
(lp5239
I21
aI35
asg157
Nsg158
g5237
sg159
(lp5240
sg161
g60
sg162
Nsg163
Nsg164
Nsbag2
(g3
g4
Ntp5241
Rp5242
(dp5243
g8
g11
sg142
Nsg143
(dp5244
sg145
Nsg26
g29
sg146
(lp5245
I21
aI36
asg148
Nsg149
VJoshua 21:36
p5246
sg151
(lp5247
sg153
g104
sg154
Nsg155
(lp5248
I21
aI36
asg157
Nsg158
g5246
sg159
(lp5249
sg161
g60
sg162
Nsg163
Nsg164
Nsbag2
(g3
g4
Ntp5250
Rp5251
(dp5252
g8
g11
sg142
Nsg143
(dp5253
sg145
Nsg26
g29
sg146
(lp5254
I21
aI37
asg148
Nsg149
VJoshua 21:37
p5255
sg151
(lp5256
sg153
g104
sg154
Nsg155
(lp5257
I21
aI37
asg157
Nsg158
g5255
sg159
(lp5258
sg161
g60
sg162
Nsg163
Nsg164
Nsbag2
(g3
g4
Ntp5259
Rp5260
(dp5261
g8
g11
sg142
Nsg143
(dp5262
sg145
Nsg26
g29
sg146
(lp5263
I21
aI38
asg148
Nsg149
VJoshua 21:38
p5264
sg151
(lp5265
sg153
g104
sg154
Nsg155
(lp5266
I21
aI38
asg157
Nsg158
g5264
sg159
(lp5267
sg161
g60
sg162
Nsg163
Nsg164
Nsbag2
(g3
g4
Ntp5268
Rp5269
(dp5270
g8
g11
sg142
Nsg143
(dp5271
sg145
Nsg26
g29
sg146
(lp5272
I21
aI39
asg148
Nsg149
VJoshua 21:39
p5273
sg151
(lp5274
sg153
g104
sg154
Nsg155
(lp5275
I21
aI39
asg157
Nsg158
g5273
sg159
(lp5276
sg161
g60
sg162
Nsg163
Nsg164
Nsbag2
(g3
g4
Ntp5277
Rp5278
(dp5279
g8
g11
sg142
Nsg143
(dp5280
sg145
Nsg26
g29
sg146
(lp5281
I21
aI40
asg148
Nsg149
VJoshua 21:40
p5282
sg151
(lp5283
sg153
g104
sg154
Nsg155
(lp5284
I21
aI40
asg157
Nsg158
g5282
sg159
(lp5285
sg161
g60
sg162
Nsg163
Nsg164
Nsbag2
(g3
g4
Ntp5286
Rp5287
(dp5288
g8
g11
sg142
Nsg143
(dp5289
sg145
Nsg26
g29
sg146
(lp5290
I21
aI41
asg148
Nsg149
VJoshua 21:41
p5291
sg151
(lp5292
sg153
g104
sg154
Nsg155
(lp5293
I21
aI41
asg157
Nsg158
g5291
sg159
(lp5294
sg161
g60
sg162
Nsg163
Nsg164
Nsbag2
(g3
g4
Ntp5295
Rp5296
(dp5297
g8
g11
sg142
Nsg143
(dp5298
sg145
Nsg26
g29
sg146
(lp5299
I21
aI42
asg148
Nsg149
VJoshua 21:42
p5300
sg151
(lp5301
sg153
g104
sg154
Nsg155
(lp5302
I21
aI42
asg157
Nsg158
g5300
sg159
(lp5303
sg161
g60
sg162
Nsg163
Nsg164
Nsbag2
(g3
g4
Ntp5304
Rp5305
(dp5306
g8
g11
sg142
Nsg143
(dp5307
sg145
Nsg26
g29
sg146
(lp5308
I21
aI43
asg148
Nsg149
VJoshua 21:43
p5309
sg151
(lp5310
sg153
g104
sg154
Nsg155
(lp5311
I21
aI43
asg157
Nsg158
g5309
sg159
(lp5312
sg161
g60
sg162
Nsg163
Nsg164
Nsbag2
(g3
g4
Ntp5313
Rp5314
(dp5315
g8
g11
sg142
Nsg143
(dp5316
sg145
Nsg26
g29
sg146
(lp5317
I21
aI44
asg148
Nsg149
VJoshua 21:44
p5318
sg151
(lp5319
sg153
g104
sg154
Nsg155
(lp5320
I21
aI44
asg157
Nsg158
g5318
sg159
(lp5321
sg161
g60
sg162
Nsg163
Nsg164
Nsbag2
(g3
g4
Ntp5322
Rp5323
(dp5324
g8
g11
sg142
Nsg143
(dp5325
sg145
Nsg26
g29
sg146
(lp5326
I21
aI45
asg148
Nsg149
VJoshua 21:45
p5327
sg151
(lp5328
sg153
g104
sg154
Nsg155
(lp5329
I21
aI45
asg157
Nsg158
g5327
sg159
(lp5330
sg161
g60
sg162
Nsg163
Nsg164
Nsbag2
(g3
g4
Ntp5331
Rp5332
(dp5333
g8
g11
sg142
Nsg143
(dp5334
sg145
Nsg26
g29
sg146
(lp5335
I22
aI1
asg148
Nsg149
VJoshua 22:1
p5336
sg151
(lp5337
sg153
g104
sg154
Nsg155
(lp5338
I22
aI1
asg157
Nsg158
g5336
sg159
(lp5339
sg161
g60
sg162
Nsg163
Nsg164
Nsbag2
(g3
g4
Ntp5340
Rp5341
(dp5342
g8
g11
sg142
Nsg143
(dp5343
sg145
Nsg26
g29
sg146
(lp5344
I22
aI2
asg148
Nsg149
VJoshua 22:2
p5345
sg151
(lp5346
sg153
g104
sg154
Nsg155
(lp5347
I22
aI2
asg157
Nsg158
g5345
sg159
(lp5348
sg161
g60
sg162
Nsg163
Nsg164
Nsbag2
(g3
g4
Ntp5349
Rp5350
(dp5351
g8
g11
sg142
Nsg143
(dp5352
sg145
Nsg26
g29
sg146
(lp5353
I22
aI3
asg148
Nsg149
VJoshua 22:3
p5354
sg151
(lp5355
sg153
g104
sg154
Nsg155
(lp5356
I22
aI3
asg157
Nsg158
g5354
sg159
(lp5357
sg161
g60
sg162
Nsg163
Nsg164
Nsbag2
(g3
g4
Ntp5358
Rp5359
(dp5360
g8
g11
sg142
Nsg143
(dp5361
sg145
Nsg26
g29
sg146
(lp5362
I22
aI4
asg148
Nsg149
VJoshua 22:4
p5363
sg151
(lp5364
sg153
g104
sg154
Nsg155
(lp5365
I22
aI4
asg157
Nsg158
g5363
sg159
(lp5366
sg161
g60
sg162
Nsg163
Nsg164
Nsbag2
(g3
g4
Ntp5367
Rp5368
(dp5369
g8
g11
sg142
Nsg143
(dp5370
sg145
Nsg26
g29
sg146
(lp5371
I22
aI5
asg148
Nsg149
VJoshua 22:5
p5372
sg151
(lp5373
sg153
g104
sg154
Nsg155
(lp5374
I22
aI5
asg157
Nsg158
g5372
sg159
(lp5375
sg161
g60
sg162
Nsg163
Nsg164
Nsbag2
(g3
g4
Ntp5376
Rp5377
(dp5378
g8
g11
sg142
Nsg143
(dp5379
sg145
Nsg26
g29
sg146
(lp5380
I22
aI6
asg148
Nsg149
VJoshua 22:6
p5381
sg151
(lp5382
sg153
g104
sg154
Nsg155
(lp5383
I22
aI6
asg157
Nsg158
g5381
sg159
(lp5384
sg161
g60
sg162
Nsg163
Nsg164
Nsbag2
(g3
g4
Ntp5385
Rp5386
(dp5387
g8
g11
sg142
Nsg143
(dp5388
sg145
Nsg26
g29
sg146
(lp5389
I22
aI7
asg148
Nsg149
VJoshua 22:7
p5390
sg151
(lp5391
sg153
g104
sg154
Nsg155
(lp5392
I22
aI7
asg157
Nsg158
g5390
sg159
(lp5393
sg161
g60
sg162
Nsg163
Nsg164
Nsbag2
(g3
g4
Ntp5394
Rp5395
(dp5396
g8
g11
sg142
Nsg143
(dp5397
sg145
Nsg26
g29
sg146
(lp5398
I22
aI8
asg148
Nsg149
VJoshua 22:8
p5399
sg151
(lp5400
sg153
g104
sg154
Nsg155
(lp5401
I22
aI8
asg157
Nsg158
g5399
sg159
(lp5402
sg161
g60
sg162
Nsg163
Nsg164
Nsbag2
(g3
g4
Ntp5403
Rp5404
(dp5405
g8
g11
sg142
Nsg143
(dp5406
sg145
Nsg26
g29
sg146
(lp5407
I22
aI9
asg148
Nsg149
VJoshua 22:9
p5408
sg151
(lp5409
sg153
g104
sg154
Nsg155
(lp5410
I22
aI9
asg157
Nsg158
g5408
sg159
(lp5411
sg161
g60
sg162
Nsg163
Nsg164
Nsbag2
(g3
g4
Ntp5412
Rp5413
(dp5414
g8
g11
sg142
Nsg143
(dp5415
sg145
Nsg26
g29
sg146
(lp5416
I22
aI10
asg148
Nsg149
VJoshua 22:10
p5417
sg151
(lp5418
sg153
g104
sg154
Nsg155
(lp5419
I22
aI10
asg157
Nsg158
g5417
sg159
(lp5420
sg161
g60
sg162
Nsg163
Nsg164
Nsbag2
(g3
g4
Ntp5421
Rp5422
(dp5423
g8
g11
sg142
Nsg143
(dp5424
sg145
Nsg26
g29
sg146
(lp5425
I22
aI11
asg148
Nsg149
VJoshua 22:11
p5426
sg151
(lp5427
sg153
g104
sg154
Nsg155
(lp5428
I22
aI11
asg157
Nsg158
g5426
sg159
(lp5429
sg161
g60
sg162
Nsg163
Nsg164
Nsbag2
(g3
g4
Ntp5430
Rp5431
(dp5432
g8
g11
sg142
Nsg143
(dp5433
sg145
Nsg26
g29
sg146
(lp5434
I22
aI12
asg148
Nsg149
VJoshua 22:12
p5435
sg151
(lp5436
sg153
g104
sg154
Nsg155
(lp5437
I22
aI12
asg157
Nsg158
g5435
sg159
(lp5438
sg161
g60
sg162
Nsg163
Nsg164
Nsbag2
(g3
g4
Ntp5439
Rp5440
(dp5441
g8
g11
sg142
Nsg143
(dp5442
sg145
Nsg26
g29
sg146
(lp5443
I22
aI13
asg148
Nsg149
VJoshua 22:13
p5444
sg151
(lp5445
sg153
g104
sg154
Nsg155
(lp5446
I22
aI13
asg157
Nsg158
g5444
sg159
(lp5447
sg161
g60
sg162
Nsg163
Nsg164
Nsbag2
(g3
g4
Ntp5448
Rp5449
(dp5450
g8
g11
sg142
Nsg143
(dp5451
sg145
Nsg26
g29
sg146
(lp5452
I22
aI14
asg148
Nsg149
VJoshua 22:14
p5453
sg151
(lp5454
sg153
g104
sg154
Nsg155
(lp5455
I22
aI14
asg157
Nsg158
g5453
sg159
(lp5456
sg161
g60
sg162
Nsg163
Nsg164
Nsbag2
(g3
g4
Ntp5457
Rp5458
(dp5459
g8
g11
sg142
Nsg143
(dp5460
sg145
Nsg26
g29
sg146
(lp5461
I22
aI15
asg148
Nsg149
VJoshua 22:15
p5462
sg151
(lp5463
sg153
g104
sg154
Nsg155
(lp5464
I22
aI15
asg157
Nsg158
g5462
sg159
(lp5465
sg161
g60
sg162
Nsg163
Nsg164
Nsbag2
(g3
g4
Ntp5466
Rp5467
(dp5468
g8
g11
sg142
Nsg143
(dp5469
sg145
Nsg26
g29
sg146
(lp5470
I22
aI16
asg148
Nsg149
VJoshua 22:16
p5471
sg151
(lp5472
sg153
g104
sg154
Nsg155
(lp5473
I22
aI16
asg157
Nsg158
g5471
sg159
(lp5474
sg161
g60
sg162
Nsg163
Nsg164
Nsbag2
(g3
g4
Ntp5475
Rp5476
(dp5477
g8
g11
sg142
Nsg143
(dp5478
sg145
Nsg26
g29
sg146
(lp5479
I22
aI17
asg148
Nsg149
VJoshua 22:17
p5480
sg151
(lp5481
sg153
g104
sg154
Nsg155
(lp5482
I22
aI17
asg157
Nsg158
g5480
sg159
(lp5483
sg161
g60
sg162
Nsg163
Nsg164
Nsbag2
(g3
g4
Ntp5484
Rp5485
(dp5486
g8
g11
sg142
Nsg143
(dp5487
sg145
Nsg26
g29
sg146
(lp5488
I22
aI18
asg148
Nsg149
VJoshua 22:18
p5489
sg151
(lp5490
sg153
g104
sg154
Nsg155
(lp5491
I22
aI18
asg157
Nsg158
g5489
sg159
(lp5492
sg161
g60
sg162
Nsg163
Nsg164
Nsbag2
(g3
g4
Ntp5493
Rp5494
(dp5495
g8
g11
sg142
Nsg143
(dp5496
sg145
Nsg26
g29
sg146
(lp5497
I22
aI19
asg148
Nsg149
VJoshua 22:19
p5498
sg151
(lp5499
sg153
g104
sg154
Nsg155
(lp5500
I22
aI19
asg157
Nsg158
g5498
sg159
(lp5501
sg161
g60
sg162
Nsg163
Nsg164
Nsbag2
(g3
g4
Ntp5502
Rp5503
(dp5504
g8
g11
sg142
Nsg143
(dp5505
sg145
Nsg26
g29
sg146
(lp5506
I22
aI20
asg148
Nsg149
VJoshua 22:20
p5507
sg151
(lp5508
sg153
g104
sg154
Nsg155
(lp5509
I22
aI20
asg157
Nsg158
g5507
sg159
(lp5510
sg161
g60
sg162
Nsg163
Nsg164
Nsbag2
(g3
g4
Ntp5511
Rp5512
(dp5513
g8
g11
sg142
Nsg143
(dp5514
sg145
Nsg26
g29
sg146
(lp5515
I22
aI21
asg148
Nsg149
VJoshua 22:21
p5516
sg151
(lp5517
sg153
g104
sg154
Nsg155
(lp5518
I22
aI21
asg157
Nsg158
g5516
sg159
(lp5519
sg161
g60
sg162
Nsg163
Nsg164
Nsbag2
(g3
g4
Ntp5520
Rp5521
(dp5522
g8
g11
sg142
Nsg143
(dp5523
sg145
Nsg26
g29
sg146
(lp5524
I22
aI22
asg148
Nsg149
VJoshua 22:22
p5525
sg151
(lp5526
sg153
g104
sg154
Nsg155
(lp5527
I22
aI22
asg157
Nsg158
g5525
sg159
(lp5528
sg161
g60
sg162
Nsg163
Nsg164
Nsbag2
(g3
g4
Ntp5529
Rp5530
(dp5531
g8
g11
sg142
Nsg143
(dp5532
sg145
Nsg26
g29
sg146
(lp5533
I22
aI23
asg148
Nsg149
VJoshua 22:23
p5534
sg151
(lp5535
sg153
g104
sg154
Nsg155
(lp5536
I22
aI23
asg157
Nsg158
g5534
sg159
(lp5537
sg161
g60
sg162
Nsg163
Nsg164
Nsbag2
(g3
g4
Ntp5538
Rp5539
(dp5540
g8
g11
sg142
Nsg143
(dp5541
sg145
Nsg26
g29
sg146
(lp5542
I22
aI24
asg148
Nsg149
VJoshua 22:24
p5543
sg151
(lp5544
sg153
g104
sg154
Nsg155
(lp5545
I22
aI24
asg157
Nsg158
g5543
sg159
(lp5546
sg161
g60
sg162
Nsg163
Nsg164
Nsbag2
(g3
g4
Ntp5547
Rp5548
(dp5549
g8
g11
sg142
Nsg143
(dp5550
sg145
Nsg26
g29
sg146
(lp5551
I22
aI25
asg148
Nsg149
VJoshua 22:25
p5552
sg151
(lp5553
sg153
g104
sg154
Nsg155
(lp5554
I22
aI25
asg157
Nsg158
g5552
sg159
(lp5555
sg161
g60
sg162
Nsg163
Nsg164
Nsbag2
(g3
g4
Ntp5556
Rp5557
(dp5558
g8
g11
sg142
Nsg143
(dp5559
sg145
Nsg26
g29
sg146
(lp5560
I22
aI26
asg148
Nsg149
VJoshua 22:26
p5561
sg151
(lp5562
sg153
g104
sg154
Nsg155
(lp5563
I22
aI26
asg157
Nsg158
g5561
sg159
(lp5564
sg161
g60
sg162
Nsg163
Nsg164
Nsbag2
(g3
g4
Ntp5565
Rp5566
(dp5567
g8
g11
sg142
Nsg143
(dp5568
sg145
Nsg26
g29
sg146
(lp5569
I22
aI27
asg148
Nsg149
VJoshua 22:27
p5570
sg151
(lp5571
sg153
g104
sg154
Nsg155
(lp5572
I22
aI27
asg157
Nsg158
g5570
sg159
(lp5573
sg161
g60
sg162
Nsg163
Nsg164
Nsbag2
(g3
g4
Ntp5574
Rp5575
(dp5576
g8
g11
sg142
Nsg143
(dp5577
sg145
Nsg26
g29
sg146
(lp5578
I22
aI28
asg148
Nsg149
VJoshua 22:28
p5579
sg151
(lp5580
sg153
g104
sg154
Nsg155
(lp5581
I22
aI28
asg157
Nsg158
g5579
sg159
(lp5582
sg161
g60
sg162
Nsg163
Nsg164
Nsbag2
(g3
g4
Ntp5583
Rp5584
(dp5585
g8
g11
sg142
Nsg143
(dp5586
sg145
Nsg26
g29
sg146
(lp5587
I22
aI29
asg148
Nsg149
VJoshua 22:29
p5588
sg151
(lp5589
sg153
g104
sg154
Nsg155
(lp5590
I22
aI29
asg157
Nsg158
g5588
sg159
(lp5591
sg161
g60
sg162
Nsg163
Nsg164
Nsbag2
(g3
g4
Ntp5592
Rp5593
(dp5594
g8
g11
sg142
Nsg143
(dp5595
sg145
Nsg26
g29
sg146
(lp5596
I22
aI30
asg148
Nsg149
VJoshua 22:30
p5597
sg151
(lp5598
sg153
g104
sg154
Nsg155
(lp5599
I22
aI30
asg157
Nsg158
g5597
sg159
(lp5600
sg161
g60
sg162
Nsg163
Nsg164
Nsbag2
(g3
g4
Ntp5601
Rp5602
(dp5603
g8
g11
sg142
Nsg143
(dp5604
sg145
Nsg26
g29
sg146
(lp5605
I22
aI31
asg148
Nsg149
VJoshua 22:31
p5606
sg151
(lp5607
sg153
g104
sg154
Nsg155
(lp5608
I22
aI31
asg157
Nsg158
g5606
sg159
(lp5609
sg161
g60
sg162
Nsg163
Nsg164
Nsbag2
(g3
g4
Ntp5610
Rp5611
(dp5612
g8
g11
sg142
Nsg143
(dp5613
sg145
Nsg26
g29
sg146
(lp5614
I22
aI32
asg148
Nsg149
VJoshua 22:32
p5615
sg151
(lp5616
sg153
g104
sg154
Nsg155
(lp5617
I22
aI32
asg157
Nsg158
g5615
sg159
(lp5618
sg161
g60
sg162
Nsg163
Nsg164
Nsbag2
(g3
g4
Ntp5619
Rp5620
(dp5621
g8
g11
sg142
Nsg143
(dp5622
sg145
Nsg26
g29
sg146
(lp5623
I22
aI33
asg148
Nsg149
VJoshua 22:33
p5624
sg151
(lp5625
sg153
g104
sg154
Nsg155
(lp5626
I22
aI33
asg157
Nsg158
g5624
sg159
(lp5627
sg161
g60
sg162
Nsg163
Nsg164
Nsbag2
(g3
g4
Ntp5628
Rp5629
(dp5630
g8
g11
sg142
Nsg143
(dp5631
sg145
Nsg26
g29
sg146
(lp5632
I22
aI34
asg148
Nsg149
VJoshua 22:34
p5633
sg151
(lp5634
sg153
g104
sg154
Nsg155
(lp5635
I22
aI34
asg157
Nsg158
g5633
sg159
(lp5636
sg161
g60
sg162
Nsg163
Nsg164
Nsbag2
(g3
g4
Ntp5637
Rp5638
(dp5639
g8
g11
sg142
Nsg143
(dp5640
sg145
Nsg26
g29
sg146
(lp5641
I23
aI1
asg148
Nsg149
VJoshua 23:1
p5642
sg151
(lp5643
sg153
g104
sg154
Nsg155
(lp5644
I23
aI1
asg157
Nsg158
g5642
sg159
(lp5645
sg161
g60
sg162
Nsg163
Nsg164
Nsbag2
(g3
g4
Ntp5646
Rp5647
(dp5648
g8
g11
sg142
Nsg143
(dp5649
sg145
Nsg26
g29
sg146
(lp5650
I23
aI2
asg148
Nsg149
VJoshua 23:2
p5651
sg151
(lp5652
sg153
g104
sg154
Nsg155
(lp5653
I23
aI2
asg157
Nsg158
g5651
sg159
(lp5654
sg161
g60
sg162
Nsg163
Nsg164
Nsbag2
(g3
g4
Ntp5655
Rp5656
(dp5657
g8
g11
sg142
Nsg143
(dp5658
sg145
Nsg26
g29
sg146
(lp5659
I23
aI3
asg148
Nsg149
VJoshua 23:3
p5660
sg151
(lp5661
sg153
g104
sg154
Nsg155
(lp5662
I23
aI3
asg157
Nsg158
g5660
sg159
(lp5663
sg161
g60
sg162
Nsg163
Nsg164
Nsbag2
(g3
g4
Ntp5664
Rp5665
(dp5666
g8
g11
sg142
Nsg143
(dp5667
sg145
Nsg26
g29
sg146
(lp5668
I23
aI4
asg148
Nsg149
VJoshua 23:4
p5669
sg151
(lp5670
sg153
g104
sg154
Nsg155
(lp5671
I23
aI4
asg157
Nsg158
g5669
sg159
(lp5672
sg161
g60
sg162
Nsg163
Nsg164
Nsbag2
(g3
g4
Ntp5673
Rp5674
(dp5675
g8
g11
sg142
Nsg143
(dp5676
sg145
Nsg26
g29
sg146
(lp5677
I23
aI5
asg148
Nsg149
VJoshua 23:5
p5678
sg151
(lp5679
sg153
g104
sg154
Nsg155
(lp5680
I23
aI5
asg157
Nsg158
g5678
sg159
(lp5681
sg161
g60
sg162
Nsg163
Nsg164
Nsbag2
(g3
g4
Ntp5682
Rp5683
(dp5684
g8
g11
sg142
Nsg143
(dp5685
sg145
Nsg26
g29
sg146
(lp5686
I23
aI6
asg148
Nsg149
VJoshua 23:6
p5687
sg151
(lp5688
sg153
g104
sg154
Nsg155
(lp5689
I23
aI6
asg157
Nsg158
g5687
sg159
(lp5690
sg161
g60
sg162
Nsg163
Nsg164
Nsbag2
(g3
g4
Ntp5691
Rp5692
(dp5693
g8
g11
sg142
Nsg143
(dp5694
sg145
Nsg26
g29
sg146
(lp5695
I23
aI7
asg148
Nsg149
VJoshua 23:7
p5696
sg151
(lp5697
sg153
g104
sg154
Nsg155
(lp5698
I23
aI7
asg157
Nsg158
g5696
sg159
(lp5699
sg161
g60
sg162
Nsg163
Nsg164
Nsbag2
(g3
g4
Ntp5700
Rp5701
(dp5702
g8
g11
sg142
Nsg143
(dp5703
sg145
Nsg26
g29
sg146
(lp5704
I23
aI8
asg148
Nsg149
VJoshua 23:8
p5705
sg151
(lp5706
sg153
g104
sg154
Nsg155
(lp5707
I23
aI8
asg157
Nsg158
g5705
sg159
(lp5708
sg161
g60
sg162
Nsg163
Nsg164
Nsbag2
(g3
g4
Ntp5709
Rp5710
(dp5711
g8
g11
sg142
Nsg143
(dp5712
sg145
Nsg26
g29
sg146
(lp5713
I23
aI9
asg148
Nsg149
VJoshua 23:9
p5714
sg151
(lp5715
sg153
g104
sg154
Nsg155
(lp5716
I23
aI9
asg157
Nsg158
g5714
sg159
(lp5717
sg161
g60
sg162
Nsg163
Nsg164
Nsbag2
(g3
g4
Ntp5718
Rp5719
(dp5720
g8
g11
sg142
Nsg143
(dp5721
sg145
Nsg26
g29
sg146
(lp5722
I23
aI10
asg148
Nsg149
VJoshua 23:10
p5723
sg151
(lp5724
sg153
g104
sg154
Nsg155
(lp5725
I23
aI10
asg157
Nsg158
g5723
sg159
(lp5726
sg161
g60
sg162
Nsg163
Nsg164
Nsbag2
(g3
g4
Ntp5727
Rp5728
(dp5729
g8
g11
sg142
Nsg143
(dp5730
sg145
Nsg26
g29
sg146
(lp5731
I23
aI11
asg148
Nsg149
VJoshua 23:11
p5732
sg151
(lp5733
sg153
g104
sg154
Nsg155
(lp5734
I23
aI11
asg157
Nsg158
g5732
sg159
(lp5735
sg161
g60
sg162
Nsg163
Nsg164
Nsbag2
(g3
g4
Ntp5736
Rp5737
(dp5738
g8
g11
sg142
Nsg143
(dp5739
sg145
Nsg26
g29
sg146
(lp5740
I23
aI12
asg148
Nsg149
VJoshua 23:12
p5741
sg151
(lp5742
sg153
g104
sg154
Nsg155
(lp5743
I23
aI12
asg157
Nsg158
g5741
sg159
(lp5744
sg161
g60
sg162
Nsg163
Nsg164
Nsbag2
(g3
g4
Ntp5745
Rp5746
(dp5747
g8
g11
sg142
Nsg143
(dp5748
sg145
Nsg26
g29
sg146
(lp5749
I23
aI13
asg148
Nsg149
VJoshua 23:13
p5750
sg151
(lp5751
sg153
g104
sg154
Nsg155
(lp5752
I23
aI13
asg157
Nsg158
g5750
sg159
(lp5753
sg161
g60
sg162
Nsg163
Nsg164
Nsbag2
(g3
g4
Ntp5754
Rp5755
(dp5756
g8
g11
sg142
Nsg143
(dp5757
sg145
Nsg26
g29
sg146
(lp5758
I23
aI14
asg148
Nsg149
VJoshua 23:14
p5759
sg151
(lp5760
sg153
g104
sg154
Nsg155
(lp5761
I23
aI14
asg157
Nsg158
g5759
sg159
(lp5762
sg161
g60
sg162
Nsg163
Nsg164
Nsbag2
(g3
g4
Ntp5763
Rp5764
(dp5765
g8
g11
sg142
Nsg143
(dp5766
sg145
Nsg26
g29
sg146
(lp5767
I23
aI15
asg148
Nsg149
VJoshua 23:15
p5768
sg151
(lp5769
sg153
g104
sg154
Nsg155
(lp5770
I23
aI15
asg157
Nsg158
g5768
sg159
(lp5771
sg161
g60
sg162
Nsg163
Nsg164
Nsbag2
(g3
g4
Ntp5772
Rp5773
(dp5774
g8
g11
sg142
Nsg143
(dp5775
sg145
Nsg26
g29
sg146
(lp5776
I23
aI16
asg148
Nsg149
VJoshua 23:16
p5777
sg151
(lp5778
sg153
g104
sg154
Nsg155
(lp5779
I23
aI16
asg157
Nsg158
g5777
sg159
(lp5780
sg161
g60
sg162
Nsg163
Nsg164
Nsbag2
(g3
g4
Ntp5781
Rp5782
(dp5783
g8
g11
sg142
Nsg143
(dp5784
sg145
Nsg26
g29
sg146
(lp5785
I24
aI1
asg148
Nsg149
VJoshua 24:1
p5786
sg151
(lp5787
sg153
g104
sg154
Nsg155
(lp5788
I24
aI1
asg157
Nsg158
g5786
sg159
(lp5789
sg161
g60
sg162
Nsg163
Nsg164
Nsbag2
(g3
g4
Ntp5790
Rp5791
(dp5792
g8
g11
sg142
Nsg143
(dp5793
sg145
Nsg26
g29
sg146
(lp5794
I24
aI2
asg148
Nsg149
VJoshua 24:2
p5795
sg151
(lp5796
sg153
g104
sg154
Nsg155
(lp5797
I24
aI2
asg157
Nsg158
g5795
sg159
(lp5798
sg161
g60
sg162
Nsg163
Nsg164
Nsbag2
(g3
g4
Ntp5799
Rp5800
(dp5801
g8
g11
sg142
Nsg143
(dp5802
sg145
Nsg26
g29
sg146
(lp5803
I24
aI3
asg148
Nsg149
VJoshua 24:3
p5804
sg151
(lp5805
sg153
g104
sg154
Nsg155
(lp5806
I24
aI3
asg157
Nsg158
g5804
sg159
(lp5807
sg161
g60
sg162
Nsg163
Nsg164
Nsbag2
(g3
g4
Ntp5808
Rp5809
(dp5810
g8
g11
sg142
Nsg143
(dp5811
sg145
Nsg26
g29
sg146
(lp5812
I24
aI4
asg148
Nsg149
VJoshua 24:4
p5813
sg151
(lp5814
sg153
g104
sg154
Nsg155
(lp5815
I24
aI4
asg157
Nsg158
g5813
sg159
(lp5816
sg161
g60
sg162
Nsg163
Nsg164
Nsbag2
(g3
g4
Ntp5817
Rp5818
(dp5819
g8
g11
sg142
Nsg143
(dp5820
sg145
Nsg26
g29
sg146
(lp5821
I24
aI5
asg148
Nsg149
VJoshua 24:5
p5822
sg151
(lp5823
sg153
g104
sg154
Nsg155
(lp5824
I24
aI5
asg157
Nsg158
g5822
sg159
(lp5825
sg161
g60
sg162
Nsg163
Nsg164
Nsbag2
(g3
g4
Ntp5826
Rp5827
(dp5828
g8
g11
sg142
Nsg143
(dp5829
sg145
Nsg26
g29
sg146
(lp5830
I24
aI6
asg148
Nsg149
VJoshua 24:6
p5831
sg151
(lp5832
sg153
g104
sg154
Nsg155
(lp5833
I24
aI6
asg157
Nsg158
g5831
sg159
(lp5834
sg161
g60
sg162
Nsg163
Nsg164
Nsbag2
(g3
g4
Ntp5835
Rp5836
(dp5837
g8
g11
sg142
Nsg143
(dp5838
sg145
Nsg26
g29
sg146
(lp5839
I24
aI7
asg148
Nsg149
VJoshua 24:7
p5840
sg151
(lp5841
sg153
g104
sg154
Nsg155
(lp5842
I24
aI7
asg157
Nsg158
g5840
sg159
(lp5843
sg161
g60
sg162
Nsg163
Nsg164
Nsbag2
(g3
g4
Ntp5844
Rp5845
(dp5846
g8
g11
sg142
Nsg143
(dp5847
sg145
Nsg26
g29
sg146
(lp5848
I24
aI8
asg148
Nsg149
VJoshua 24:8
p5849
sg151
(lp5850
sg153
g104
sg154
Nsg155
(lp5851
I24
aI8
asg157
Nsg158
g5849
sg159
(lp5852
sg161
g60
sg162
Nsg163
Nsg164
Nsbag2
(g3
g4
Ntp5853
Rp5854
(dp5855
g8
g11
sg142
Nsg143
(dp5856
sg145
Nsg26
g29
sg146
(lp5857
I24
aI9
asg148
Nsg149
VJoshua 24:9
p5858
sg151
(lp5859
sg153
g104
sg154
Nsg155
(lp5860
I24
aI9
asg157
Nsg158
g5858
sg159
(lp5861
sg161
g60
sg162
Nsg163
Nsg164
Nsbag2
(g3
g4
Ntp5862
Rp5863
(dp5864
g8
g11
sg142
Nsg143
(dp5865
sg145
Nsg26
g29
sg146
(lp5866
I24
aI10
asg148
Nsg149
VJoshua 24:10
p5867
sg151
(lp5868
sg153
g104
sg154
Nsg155
(lp5869
I24
aI10
asg157
Nsg158
g5867
sg159
(lp5870
sg161
g60
sg162
Nsg163
Nsg164
Nsbag2
(g3
g4
Ntp5871
Rp5872
(dp5873
g8
g11
sg142
Nsg143
(dp5874
sg145
Nsg26
g29
sg146
(lp5875
I24
aI11
asg148
Nsg149
VJoshua 24:11
p5876
sg151
(lp5877
sg153
g104
sg154
Nsg155
(lp5878
I24
aI11
asg157
Nsg158
g5876
sg159
(lp5879
sg161
g60
sg162
Nsg163
Nsg164
Nsbag2
(g3
g4
Ntp5880
Rp5881
(dp5882
g8
g11
sg142
Nsg143
(dp5883
sg145
Nsg26
g29
sg146
(lp5884
I24
aI12
asg148
Nsg149
VJoshua 24:12
p5885
sg151
(lp5886
sg153
g104
sg154
Nsg155
(lp5887
I24
aI12
asg157
Nsg158
g5885
sg159
(lp5888
sg161
g60
sg162
Nsg163
Nsg164
Nsbag2
(g3
g4
Ntp5889
Rp5890
(dp5891
g8
g11
sg142
Nsg143
(dp5892
sg145
Nsg26
g29
sg146
(lp5893
I24
aI13
asg148
Nsg149
VJoshua 24:13
p5894
sg151
(lp5895
sg153
g104
sg154
Nsg155
(lp5896
I24
aI13
asg157
Nsg158
g5894
sg159
(lp5897
sg161
g60
sg162
Nsg163
Nsg164
Nsbag2
(g3
g4
Ntp5898
Rp5899
(dp5900
g8
g11
sg142
Nsg143
(dp5901
sg145
Nsg26
g29
sg146
(lp5902
I24
aI14
asg148
Nsg149
VJoshua 24:14
p5903
sg151
(lp5904
sg153
g104
sg154
Nsg155
(lp5905
I24
aI14
asg157
Nsg158
g5903
sg159
(lp5906
sg161
g60
sg162
Nsg163
Nsg164
Nsbag2
(g3
g4
Ntp5907
Rp5908
(dp5909
g8
g11
sg142
Nsg143
(dp5910
sg145
Nsg26
g29
sg146
(lp5911
I24
aI15
asg148
Nsg149
VJoshua 24:15
p5912
sg151
(lp5913
sg153
g104
sg154
Nsg155
(lp5914
I24
aI15
asg157
Nsg158
g5912
sg159
(lp5915
sg161
g60
sg162
Nsg163
Nsg164
Nsbag2
(g3
g4
Ntp5916
Rp5917
(dp5918
g8
g11
sg142
Nsg143
(dp5919
sg145
Nsg26
g29
sg146
(lp5920
I24
aI16
asg148
Nsg149
VJoshua 24:16
p5921
sg151
(lp5922
sg153
g104
sg154
Nsg155
(lp5923
I24
aI16
asg157
Nsg158
g5921
sg159
(lp5924
sg161
g60
sg162
Nsg163
Nsg164
Nsbag2
(g3
g4
Ntp5925
Rp5926
(dp5927
g8
g11
sg142
Nsg143
(dp5928
sg145
Nsg26
g29
sg146
(lp5929
I24
aI17
asg148
Nsg149
VJoshua 24:17
p5930
sg151
(lp5931
sg153
g104
sg154
Nsg155
(lp5932
I24
aI17
asg157
Nsg158
g5930
sg159
(lp5933
sg161
g60
sg162
Nsg163
Nsg164
Nsbag2
(g3
g4
Ntp5934
Rp5935
(dp5936
g8
g11
sg142
Nsg143
(dp5937
sg145
Nsg26
g29
sg146
(lp5938
I24
aI18
asg148
Nsg149
VJoshua 24:18
p5939
sg151
(lp5940
sg153
g104
sg154
Nsg155
(lp5941
I24
aI18
asg157
Nsg158
g5939
sg159
(lp5942
sg161
g60
sg162
Nsg163
Nsg164
Nsbag2
(g3
g4
Ntp5943
Rp5944
(dp5945
g8
g11
sg142
Nsg143
(dp5946
sg145
Nsg26
g29
sg146
(lp5947
I24
aI19
asg148
Nsg149
VJoshua 24:19
p5948
sg151
(lp5949
sg153
g104
sg154
Nsg155
(lp5950
I24
aI19
asg157
Nsg158
g5948
sg159
(lp5951
sg161
g60
sg162
Nsg163
Nsg164
Nsbag2
(g3
g4
Ntp5952
Rp5953
(dp5954
g8
g11
sg142
Nsg143
(dp5955
sg145
Nsg26
g29
sg146
(lp5956
I24
aI20
asg148
Nsg149
VJoshua 24:20
p5957
sg151
(lp5958
sg153
g104
sg154
Nsg155
(lp5959
I24
aI20
asg157
Nsg158
g5957
sg159
(lp5960
sg161
g60
sg162
Nsg163
Nsg164
Nsbag2
(g3
g4
Ntp5961
Rp5962
(dp5963
g8
g11
sg142
Nsg143
(dp5964
sg145
Nsg26
g29
sg146
(lp5965
I24
aI21
asg148
Nsg149
VJoshua 24:21
p5966
sg151
(lp5967
sg153
g104
sg154
Nsg155
(lp5968
I24
aI21
asg157
Nsg158
g5966
sg159
(lp5969
sg161
g60
sg162
Nsg163
Nsg164
Nsbag2
(g3
g4
Ntp5970
Rp5971
(dp5972
g8
g11
sg142
Nsg143
(dp5973
sg145
Nsg26
g29
sg146
(lp5974
I24
aI22
asg148
Nsg149
VJoshua 24:22
p5975
sg151
(lp5976
sg153
g104
sg154
Nsg155
(lp5977
I24
aI22
asg157
Nsg158
g5975
sg159
(lp5978
sg161
g60
sg162
Nsg163
Nsg164
Nsbag2
(g3
g4
Ntp5979
Rp5980
(dp5981
g8
g11
sg142
Nsg143
(dp5982
sg145
Nsg26
g29
sg146
(lp5983
I24
aI23
asg148
Nsg149
VJoshua 24:23
p5984
sg151
(lp5985
sg153
g104
sg154
Nsg155
(lp5986
I24
aI23
asg157
Nsg158
g5984
sg159
(lp5987
sg161
g60
sg162
Nsg163
Nsg164
Nsbag2
(g3
g4
Ntp5988
Rp5989
(dp5990
g8
g11
sg142
Nsg143
(dp5991
sg145
Nsg26
g29
sg146
(lp5992
I24
aI24
asg148
Nsg149
VJoshua 24:24
p5993
sg151
(lp5994
sg153
g104
sg154
Nsg155
(lp5995
I24
aI24
asg157
Nsg158
g5993
sg159
(lp5996
sg161
g60
sg162
Nsg163
Nsg164
Nsbag2
(g3
g4
Ntp5997
Rp5998
(dp5999
g8
g11
sg142
Nsg143
(dp6000
sg145
Nsg26
g29
sg146
(lp6001
I24
aI25
asg148
Nsg149
VJoshua 24:25
p6002
sg151
(lp6003
sg153
g104
sg154
Nsg155
(lp6004
I24
aI25
asg157
Nsg158
g6002
sg159
(lp6005
sg161
g60
sg162
Nsg163
Nsg164
Nsbag2
(g3
g4
Ntp6006
Rp6007
(dp6008
g8
g11
sg142
Nsg143
(dp6009
sg145
Nsg26
g29
sg146
(lp6010
I24
aI26
asg148
Nsg149
VJoshua 24:26
p6011
sg151
(lp6012
sg153
g104
sg154
Nsg155
(lp6013
I24
aI26
asg157
Nsg158
g6011
sg159
(lp6014
sg161
g60
sg162
Nsg163
Nsg164
Nsbag2
(g3
g4
Ntp6015
Rp6016
(dp6017
g8
g11
sg142
Nsg143
(dp6018
sg145
Nsg26
g29
sg146
(lp6019
I24
aI27
asg148
Nsg149
VJoshua 24:27
p6020
sg151
(lp6021
sg153
g104
sg154
Nsg155
(lp6022
I24
aI27
asg157
Nsg158
g6020
sg159
(lp6023
sg161
g60
sg162
Nsg163
Nsg164
Nsbag2
(g3
g4
Ntp6024
Rp6025
(dp6026
g8
g11
sg142
Nsg143
(dp6027
sg145
Nsg26
g29
sg146
(lp6028
I24
aI28
asg148
Nsg149
VJoshua 24:28
p6029
sg151
(lp6030
sg153
g104
sg154
Nsg155
(lp6031
I24
aI28
asg157
Nsg158
g6029
sg159
(lp6032
sg161
g60
sg162
Nsg163
Nsg164
Nsbag2
(g3
g4
Ntp6033
Rp6034
(dp6035
g8
g11
sg142
Nsg143
(dp6036
sg145
Nsg26
g29
sg146
(lp6037
I24
aI29
asg148
Nsg149
VJoshua 24:29
p6038
sg151
(lp6039
sg153
g104
sg154
Nsg155
(lp6040
I24
aI29
asg157
Nsg158
g6038
sg159
(lp6041
sg161
g60
sg162
Nsg163
Nsg164
Nsbag2
(g3
g4
Ntp6042
Rp6043
(dp6044
g8
g11
sg142
Nsg143
(dp6045
sg145
Nsg26
g29
sg146
(lp6046
I24
aI30
asg148
Nsg149
VJoshua 24:30
p6047
sg151
(lp6048
sg153
g104
sg154
Nsg155
(lp6049
I24
aI30
asg157
Nsg158
g6047
sg159
(lp6050
sg161
g60
sg162
Nsg163
Nsg164
Nsbag2
(g3
g4
Ntp6051
Rp6052
(dp6053
g8
g11
sg142
Nsg143
(dp6054
sg145
Nsg26
g29
sg146
(lp6055
I24
aI31
asg148
Nsg149
VJoshua 24:31
p6056
sg151
(lp6057
sg153
g104
sg154
Nsg155
(lp6058
I24
aI31
asg157
Nsg158
g6056
sg159
(lp6059
sg161
g60
sg162
Nsg163
Nsg164
Nsbag2
(g3
g4
Ntp6060
Rp6061
(dp6062
g8
g11
sg142
Nsg143
(dp6063
sg145
Nsg26
g29
sg146
(lp6064
I24
aI32
asg148
Nsg149
VJoshua 24:32
p6065
sg151
(lp6066
sg153
g104
sg154
Nsg155
(lp6067
I24
aI32
asg157
Nsg158
g6065
sg159
(lp6068
sg161
g60
sg162
Nsg163
Nsg164
Nsbag2
(g3
g4
Ntp6069
Rp6070
(dp6071
g8
g11
sg142
Nsg143
(dp6072
sg145
Nsg26
g29
sg146
(lp6073
I24
aI33
asg148
Nsg149
VJoshua 24:33
p6074
sg151
(lp6075
sg153
g104
sg154
Nsg155
(lp6076
I24
aI33
asg157
Nsg158
g6074
sg159
(lp6077
sg161
g60
sg162
Nsg163
Nsg164
Nsbatp6078
.