((lp0
I0
aI17
aI26
aI43
aI56
aI68
aI80
aI103
aI116
aI126
aI144
aI154
aI168
aI181
aI196
aI218
aI237
aI254
aI268
aI285
aI298
aI315
aI324
aI333
aI349
aI364
aI378
aI411
aI422
aI433
aI447
aI466
aI475
aI499
aI510
aI523
aI529
aI552
aI567
aI580
aI596
aI604
aI616
aI641
aI649
aI660
aI682
aI692
aI714
aI720
aI739
aI757
aI763
aI788
aI810
aI828
aI847
aI860
aI877
aI889
aI907
aI920
aI936
aI952
aI962
aI974
aI990
aI1009
aI1027
aI1049
aI1056
aI1078
aI1092
aI1102
aI1127
aI1143
aI1153
aI1164
aI1184
aI1203
aI1216
aI1232
aI1240
aI1257
aI1274
aI1284
aI1298
aI1321
aI1337
aI1348
aI1365
aI1374
aI1390
aI1409
aI1420
aI1437
aI1463
aI1479
aI1492
aI1519
aI1534
aI1551
aI1559
aI1578
aI1604
aI1624
aI1643
aI1662
aI1679
aI1693
aI1708
aI1732
aI1757
aI1768
aI1785
aI1792
aI1799
aI1811
aI1826
aI1836
aI1848
aI1858
aI1871
aI1878
aI1888
aI1904
aI1916
aI1925
aI1940
aI1955
aI1967
aI1982
aI1991
aI2006
aI2014
aI2024
aI2031
aI2046
aI2055
aI2063
aI2076
aI2090
aI2106
aI2114
aI2132
aI2145
aI2157
aI2176
aI2187
aI2203
aI2219
aI2229
aI2239
aI2260
aI2274
aI2291
aI2311
aI2321
aI2351
aI2365
aI2381
aI2392
aI2405
aI2422
aI2442
aI2460
aI2484
aI2504
aI2513
aI2529
aI2556
aI2575
aI2598
aI2617
aI2633
aI2652
aI2680
aI2693
aI2704
aI2714
aI2729
aI2741
aI2766
aI2780
aI2807
aI2822
aI2842
aI2861
aI2883
aI2915
aI2942
aI2959
aI2978
aI3002
aI3014
aI3024
aI3041
aI3056
aI3084
aI3104
aI3126
aI3142
aI3158
aI3174
aI3196
aI3214
aI3225
aI3249
aI3261
aI3292
aI3321
aI3340
aI3352
aI3373
aI3385
aI3405
aI3417
aI3435
aI3449
aI3460
aI3481
aI3495
aI3512
aI3519
aI3534
aI3556
aI3570
aI3578
aI3595
aI3608
aI3623
aI3646
aI3663
aI3677
aI3695
aI3706
aI3731
aI3748
aI3763
aI3768
aI3779
aI3790
aI3802
aI3817
aI3830
aI3843
aI3859
aI3885
aI3905
aI3920
aI3940
aI3957
aI3976
aI3987
aI4002
aI4009
aI4022
aI4030
aI4043
aI4052
aI4076
aI4096
aI4108
aI4132
aI4148
aI4169
aI4179
aI4185
aI4198
aI4221
aI4238
aI4248
aI4264
aI4286
aI4300
aI4310
aI4327
aI4336
aI4356
aI4368
aI4382
aI4403
aI4420
aI4443
aI4450
aI4460
aI4471
aI4478
aI4495
aI4512
aI4531
aI4542
aI4550
aI4582
aI4608
aI4615
aI4634
aI4646
aI4657
aI4676
aI4685
aI4697
aI4710
aI4726
aI4735
aI4745
aI4766
aI4770
aI4803
aI4813
aI4834
aI4848
aI4863
aI4877
aI4887
aI4898
aI4910
aI4927
aI4939
aI4949
aI4968
aI4980
aI5001
aI5015
aI5022
aI5037
aI5046
aI5064
aI5084
aI5104
aI5118
aI5137
aI5153
aI5176
aI5185
aI5199
aI5210
aI5234
aI5259
aI5276
aI5293
aI5314
aI5326
aI5338
aI5355
aI5370
aI5390
aI5410
aI5421
aI5440
aI5452
aI5467
aI5477
aI5496
aI5515
aI5537
aI5559
aI5580
aI5594
aI5614
aI5626
aI5647
aI5664
aI5685
aI5709
aI5729
aI5752
aI5764
aI5771
aI5790
aI5795
aI5806
aI5813
aI5819
aI5835
aI5844
aI5857
aI5869
aI5884
aI5895
aI5918
aI5943
aI5967
aI5987
aI6004
aI6019
aI6037
aI6047
aI6058
aI6077
aI6089
aI6112
aI6124
aI6134
aI6150
aI6168
aI6185
aI6194
aI6215
aI6225
aI6235
aI6243
aI6258
aI6286
aI6303
aI6317
aI6334
aI6340
aI6354
aI6376
aI6388
aI6396
aI6419
aI6437
aI6451
aI6475
aI6500
aI6519
aI6542
aI6564
aI6571
aI6591
aI6608
aI6619
aI6638
aI6651
aI6673
aI6685
aI6697
aI6703
aI6719
aI6748
aI6764
aI6783
aI6807
aI6818
aI6829
aI6840
aI6860
aI6884
aI6891
aI6900
aI6920
aI6948
aI6957
aI6981
aI6994
aI7009
aI7021
aI7042
aI7058
aI7074
aI7092
aI7117
aI7132
aI7151
aI7162
aI7189
aI7218
aI7233
aI7251
aI7266
aI7272
aI7288
aI7308
aI7329
aI7347
aI7364
aI7385
aI7401
aI7427
aI7450
aI7456
aI7480
aI7501
aI7517
aI7533
aI7542
aI7554
aI7571
aI7588
aI7608
aI7618
aI7630
aI7643
aI7667
aI7697
aI7721
aI7732
aI7744
aI7755
aI7785
aI7795
aI7815
aI7836
aI7848
aI7867
aI7875
aI7899
aI7911
aI7923
aI7951
aI7969
aI7994
aI8007
aI8017
aI8033
aI8045
aI8063
aI8081
aI8095
aI8121
aI8142
aI8157
aI8176
aI8189
aI8209
aI8226
aI8247
aI8260
aI8278
aI8293
aI8302
aI8319
aI8349
aI8367
aI8386
aI8402
aI8412
aI8421
aI8436
aI8455
aI8470
aI8498
aI8517
aI8530
aI8538
aI8569
aI8593
aI8613
aI8636
aI8649
aI8667
aI8680
aI8697
aI8719
aI8736
aI8753
aI8769
aI8783
aI8799
aI8812
aI8821
aI8835
aI8843
aI8866
aI8875
aI8889
aI8910
aI8921
aI8941
aI8959
aI8974
aI8995
aI9002
aI9015
aI9029
aI9042
aI9064
aI9072
aI9092
aI9116
aI9126
aI9151
aI9157
aI9170
aI9196
aI9212
aI9226
aI9244
aI9265
aI9283
aI9296
aI9308
aI9329
aI9344
aI9356
aI9370
aI9381
aI9392
aI9411
aI9428
aI9442
aI9464
aI9476
aI9491
aI9504
aI9514
aI9540
aI9552
aI9565
aI9586
aI9595
aI9617
aI9629
aI9651
aI9664
aI9680
aI9689
aI9700
aI9708
aI9724
aI9744
aI9753
aI9773
aI9799
aI9819
aI9832
a(lp1
ccopy_reg
_reconstructor
p2
(csefaria.model.text
Ref
p3
c__builtin__
object
p4
Ntp5
Rp6
(dp7
S'index_node'
p8
g2
(csefaria.model.schema
JaggedArrayNode
p9
g4
Ntp10
Rp11
(dp12
S'_address'
p13
(lp14
VJudges
p15
asS'_full_titles'
p16
(dp17
sVnodeType
p18
VJaggedArrayNode
p19
sS'parent'
p20
NsVaddressTypes
p21
(lp22
VInteger
p23
aVInteger
p24
asS'default'
p25
I00
sS'index'
p26
g2
(csefaria.model.text
Index
p27
g4
Ntp28
Rp29
(dp30
S'_id'
p31
g2
(cbson.objectid
ObjectId
p32
g4
Ntp33
Rp34
S'NJ\xb8l\xed\xba\xb4X3\x00\x00\x06'
p35
bsS'pkeys_orig_values'
p36
(dp37
S'title'
p38
VJudges
p39
ssS'pubDate'
p40
V1488
p41
sS'compDate'
p42
V-900
p43
sS'pubPlace'
p44
VSoncino
p45
sS'compPlace'
p46
VCanaan
p47
sS'enDesc'
p48
VThe second of the four books making up the Neviim Rishonim (Early Prophets) - Shofetim (Judges) is divided into three major sections: a double prologue, a main body and a double epilogue. The book opens with the Israelites in the land of Canaan which God has promised to them, but worshiping foreign gods. The main body gives six accounts each concerning a major judge and their struggles against the oppressive kings of the surrounding nations. The main judges are Othniel, Ehud, Deborah and Barak, Gideon, Abimelch an Israelite who oppresses his own people, Jephthah and Samson. The minor judges are Shamgar, Tola, Jair, Ibzan, Elon and Abdon. The Epilogue concludes with stories that are not connected to a specific judge; Dan and the Idols of Micah and Gibeah and the Levite Concubine.
p49
sS'order'
p50
(lp51
I7
aI2
asS'struct_objs'
p52
(dp53
sS'nodes'
p54
g11
sS'errorMargin'
p55
V400
p56
sS'_title'
p57
g39
sS'categories'
p58
(lp59
VTanakh
p60
aVProphets
p61
asS'schema'
p62
(dp63
g18
g19
sg21
g22
sVlengths
p64
(lp65
I21
aI618
asVdepth
p66
I2
sVtitles
p67
(lp68
(dp69
Vlang
p70
Ven
p71
sVtext
p72
VShoftim
p73
sa(dp74
Vlang
p75
Ven
p76
sVtext
p77
VJdg
p78
sa(dp79
Vlang
p80
Ven
p81
sVtext
p82
VJudg
p83
sa(dp84
Vlang
p85
Ven
p86
sVtext
p87
VJdg.
p88
sa(dp89
Vlang
p90
Ven
p91
sVtext
p92
VJudg.
p93
sa(dp94
Vlang
p95
Vhe
p96
sVtext
p97
V\u05e9\u05d5\u05e4\u05d8\u05d9\u05dd
p98
sVprimary
p99
I01
sa(dp100
Vlang
p101
Ven
p102
sVtext
p103
VJudges
p104
sVprimary
p105
I01
sasVkey
p106
g15
sVsectionNames
p107
(lp108
VChapter
p109
aVVerse
p110
assbsS'_primary_title'
p111
(dp112
sS'title_group'
p113
g2
(csefaria.model.schema
TitleGroup
p114
g4
Ntp115
Rp116
(dp117
g111
(dp118
S'en'
p119
g104
ssS'titles'
p120
g68
sbsS'_addressTypes'
p121
(lp122
g2
(csefaria.model.schema
AddressInteger
p123
g4
Ntp124
Rp125
(dp126
S'length'
p127
I21
sg50
I0
sbag2
(g123
g4
Ntp128
Rp129
(dp130
g127
Nsg50
I1
sbasS'sharedTitle'
p131
Nsg64
g65
sg66
I2
sS'_full_title'
p132
(dp133
g119
g104
ssS'key'
p134
g15
sS'checkFirst'
p135
NsS'_regexes'
p136
(dp137
sS'_leaf_nodes'
p138
(lp139
sg107
g108
sS'children'
p140
(lp141
sbsS'_range_index'
p142
NsS'_context'
p143
(dp144
sS'_padded'
p145
Nsg26
g29
sS'sections'
p146
(lp147
I1
aI1
asS'_first_spanned_ref'
p148
NsS'tref'
p149
VJudges 1:1
p150
sS'_spanned_refs'
p151
(lp152
sS'book'
p153
g104
sS'_range_depth'
p154
NsS'toSections'
p155
(lp156
I1
aI1
asS'_url'
p157
NsS'_normal'
p158
g150
sS'_ranged_refs'
p159
(lp160
sS'type'
p161
g60
sS'_prev'
p162
NsS'_he_normal'
p163
NsS'_next'
p164
Nsbag2
(g3
g4
Ntp165
Rp166
(dp167
g8
g11
sg142
Nsg143
(dp168
sg145
Nsg26
g29
sg146
(lp169
I1
aI2
asg148
Nsg149
VJudges 1:2
p170
sg151
(lp171
sg153
g104
sg154
Nsg155
(lp172
I1
aI2
asg157
Nsg158
g170
sg159
(lp173
sg161
g60
sg162
Nsg163
Nsg164
Nsbag2
(g3
g4
Ntp174
Rp175
(dp176
g8
g11
sg142
Nsg143
(dp177
sg145
Nsg26
g29
sg146
(lp178
I1
aI3
asg148
Nsg149
VJudges 1:3
p179
sg151
(lp180
sg153
g104
sg154
Nsg155
(lp181
I1
aI3
asg157
Nsg158
g179
sg159
(lp182
sg161
g60
sg162
Nsg163
Nsg164
Nsbag2
(g3
g4
Ntp183
Rp184
(dp185
g8
g11
sg142
Nsg143
(dp186
sg145
Nsg26
g29
sg146
(lp187
I1
aI4
asg148
Nsg149
VJudges 1:4
p188
sg151
(lp189
sg153
g104
sg154
Nsg155
(lp190
I1
aI4
asg157
Nsg158
g188
sg159
(lp191
sg161
g60
sg162
Nsg163
Nsg164
Nsbag2
(g3
g4
Ntp192
Rp193
(dp194
g8
g11
sg142
Nsg143
(dp195
sg145
Nsg26
g29
sg146
(lp196
I1
aI5
asg148
Nsg149
VJudges 1:5
p197
sg151
(lp198
sg153
g104
sg154
Nsg155
(lp199
I1
aI5
asg157
Nsg158
g197
sg159
(lp200
sg161
g60
sg162
Nsg163
Nsg164
Nsbag2
(g3
g4
Ntp201
Rp202
(dp203
g8
g11
sg142
Nsg143
(dp204
sg145
Nsg26
g29
sg146
(lp205
I1
aI6
asg148
Nsg149
VJudges 1:6
p206
sg151
(lp207
sg153
g104
sg154
Nsg155
(lp208
I1
aI6
asg157
Nsg158
g206
sg159
(lp209
sg161
g60
sg162
Nsg163
Nsg164
Nsbag2
(g3
g4
Ntp210
Rp211
(dp212
g8
g11
sg142
Nsg143
(dp213
sg145
Nsg26
g29
sg146
(lp214
I1
aI7
asg148
Nsg149
VJudges 1:7
p215
sg151
(lp216
sg153
g104
sg154
Nsg155
(lp217
I1
aI7
asg157
Nsg158
g215
sg159
(lp218
sg161
g60
sg162
Nsg163
Nsg164
Nsbag2
(g3
g4
Ntp219
Rp220
(dp221
g8
g11
sg142
Nsg143
(dp222
sg145
Nsg26
g29
sg146
(lp223
I1
aI8
asg148
Nsg149
VJudges 1:8
p224
sg151
(lp225
sg153
g104
sg154
Nsg155
(lp226
I1
aI8
asg157
Nsg158
g224
sg159
(lp227
sg161
g60
sg162
Nsg163
Nsg164
Nsbag2
(g3
g4
Ntp228
Rp229
(dp230
g8
g11
sg142
Nsg143
(dp231
sg145
Nsg26
g29
sg146
(lp232
I1
aI9
asg148
Nsg149
VJudges 1:9
p233
sg151
(lp234
sg153
g104
sg154
Nsg155
(lp235
I1
aI9
asg157
Nsg158
g233
sg159
(lp236
sg161
g60
sg162
Nsg163
Nsg164
Nsbag2
(g3
g4
Ntp237
Rp238
(dp239
g8
g11
sg142
Nsg143
(dp240
sg145
Nsg26
g29
sg146
(lp241
I1
aI10
asg148
Nsg149
VJudges 1:10
p242
sg151
(lp243
sg153
g104
sg154
Nsg155
(lp244
I1
aI10
asg157
Nsg158
g242
sg159
(lp245
sg161
g60
sg162
Nsg163
Nsg164
Nsbag2
(g3
g4
Ntp246
Rp247
(dp248
g8
g11
sg142
Nsg143
(dp249
sg145
Nsg26
g29
sg146
(lp250
I1
aI11
asg148
Nsg149
VJudges 1:11
p251
sg151
(lp252
sg153
g104
sg154
Nsg155
(lp253
I1
aI11
asg157
Nsg158
g251
sg159
(lp254
sg161
g60
sg162
Nsg163
Nsg164
Nsbag2
(g3
g4
Ntp255
Rp256
(dp257
g8
g11
sg142
Nsg143
(dp258
sg145
Nsg26
g29
sg146
(lp259
I1
aI12
asg148
Nsg149
VJudges 1:12
p260
sg151
(lp261
sg153
g104
sg154
Nsg155
(lp262
I1
aI12
asg157
Nsg158
g260
sg159
(lp263
sg161
g60
sg162
Nsg163
Nsg164
Nsbag2
(g3
g4
Ntp264
Rp265
(dp266
g8
g11
sg142
Nsg143
(dp267
sg145
Nsg26
g29
sg146
(lp268
I1
aI13
asg148
Nsg149
VJudges 1:13
p269
sg151
(lp270
sg153
g104
sg154
Nsg155
(lp271
I1
aI13
asg157
Nsg158
g269
sg159
(lp272
sg161
g60
sg162
Nsg163
Nsg164
Nsbag2
(g3
g4
Ntp273
Rp274
(dp275
g8
g11
sg142
Nsg143
(dp276
sg145
Nsg26
g29
sg146
(lp277
I1
aI14
asg148
Nsg149
VJudges 1:14
p278
sg151
(lp279
sg153
g104
sg154
Nsg155
(lp280
I1
aI14
asg157
Nsg158
g278
sg159
(lp281
sg161
g60
sg162
Nsg163
Nsg164
Nsbag2
(g3
g4
Ntp282
Rp283
(dp284
g8
g11
sg142
Nsg143
(dp285
sg145
Nsg26
g29
sg146
(lp286
I1
aI15
asg148
Nsg149
VJudges 1:15
p287
sg151
(lp288
sg153
g104
sg154
Nsg155
(lp289
I1
aI15
asg157
Nsg158
g287
sg159
(lp290
sg161
g60
sg162
Nsg163
Nsg164
Nsbag2
(g3
g4
Ntp291
Rp292
(dp293
g8
g11
sg142
Nsg143
(dp294
sg145
Nsg26
g29
sg146
(lp295
I1
aI16
asg148
Nsg149
VJudges 1:16
p296
sg151
(lp297
sg153
g104
sg154
Nsg155
(lp298
I1
aI16
asg157
Nsg158
g296
sg159
(lp299
sg161
g60
sg162
Nsg163
Nsg164
Nsbag2
(g3
g4
Ntp300
Rp301
(dp302
g8
g11
sg142
Nsg143
(dp303
sg145
Nsg26
g29
sg146
(lp304
I1
aI17
asg148
Nsg149
VJudges 1:17
p305
sg151
(lp306
sg153
g104
sg154
Nsg155
(lp307
I1
aI17
asg157
Nsg158
g305
sg159
(lp308
sg161
g60
sg162
Nsg163
Nsg164
Nsbag2
(g3
g4
Ntp309
Rp310
(dp311
g8
g11
sg142
Nsg143
(dp312
sg145
Nsg26
g29
sg146
(lp313
I1
aI18
asg148
Nsg149
VJudges 1:18
p314
sg151
(lp315
sg153
g104
sg154
Nsg155
(lp316
I1
aI18
asg157
Nsg158
g314
sg159
(lp317
sg161
g60
sg162
Nsg163
Nsg164
Nsbag2
(g3
g4
Ntp318
Rp319
(dp320
g8
g11
sg142
Nsg143
(dp321
sg145
Nsg26
g29
sg146
(lp322
I1
aI19
asg148
Nsg149
VJudges 1:19
p323
sg151
(lp324
sg153
g104
sg154
Nsg155
(lp325
I1
aI19
asg157
Nsg158
g323
sg159
(lp326
sg161
g60
sg162
Nsg163
Nsg164
Nsbag2
(g3
g4
Ntp327
Rp328
(dp329
g8
g11
sg142
Nsg143
(dp330
sg145
Nsg26
g29
sg146
(lp331
I1
aI20
asg148
Nsg149
VJudges 1:20
p332
sg151
(lp333
sg153
g104
sg154
Nsg155
(lp334
I1
aI20
asg157
Nsg158
g332
sg159
(lp335
sg161
g60
sg162
Nsg163
Nsg164
Nsbag2
(g3
g4
Ntp336
Rp337
(dp338
g8
g11
sg142
Nsg143
(dp339
sg145
Nsg26
g29
sg146
(lp340
I1
aI21
asg148
Nsg149
VJudges 1:21
p341
sg151
(lp342
sg153
g104
sg154
Nsg155
(lp343
I1
aI21
asg157
Nsg158
g341
sg159
(lp344
sg161
g60
sg162
Nsg163
Nsg164
Nsbag2
(g3
g4
Ntp345
Rp346
(dp347
g8
g11
sg142
Nsg143
(dp348
sg145
Nsg26
g29
sg146
(lp349
I1
aI22
asg148
Nsg149
VJudges 1:22
p350
sg151
(lp351
sg153
g104
sg154
Nsg155
(lp352
I1
aI22
asg157
Nsg158
g350
sg159
(lp353
sg161
g60
sg162
Nsg163
Nsg164
Nsbag2
(g3
g4
Ntp354
Rp355
(dp356
g8
g11
sg142
Nsg143
(dp357
sg145
Nsg26
g29
sg146
(lp358
I1
aI23
asg148
Nsg149
VJudges 1:23
p359
sg151
(lp360
sg153
g104
sg154
Nsg155
(lp361
I1
aI23
asg157
Nsg158
g359
sg159
(lp362
sg161
g60
sg162
Nsg163
Nsg164
Nsbag2
(g3
g4
Ntp363
Rp364
(dp365
g8
g11
sg142
Nsg143
(dp366
sg145
Nsg26
g29
sg146
(lp367
I1
aI24
asg148
Nsg149
VJudges 1:24
p368
sg151
(lp369
sg153
g104
sg154
Nsg155
(lp370
I1
aI24
asg157
Nsg158
g368
sg159
(lp371
sg161
g60
sg162
Nsg163
Nsg164
Nsbag2
(g3
g4
Ntp372
Rp373
(dp374
g8
g11
sg142
Nsg143
(dp375
sg145
Nsg26
g29
sg146
(lp376
I1
aI25
asg148
Nsg149
VJudges 1:25
p377
sg151
(lp378
sg153
g104
sg154
Nsg155
(lp379
I1
aI25
asg157
Nsg158
g377
sg159
(lp380
sg161
g60
sg162
Nsg163
Nsg164
Nsbag2
(g3
g4
Ntp381
Rp382
(dp383
g8
g11
sg142
Nsg143
(dp384
sg145
Nsg26
g29
sg146
(lp385
I1
aI26
asg148
Nsg149
VJudges 1:26
p386
sg151
(lp387
sg153
g104
sg154
Nsg155
(lp388
I1
aI26
asg157
Nsg158
g386
sg159
(lp389
sg161
g60
sg162
Nsg163
Nsg164
Nsbag2
(g3
g4
Ntp390
Rp391
(dp392
g8
g11
sg142
Nsg143
(dp393
sg145
Nsg26
g29
sg146
(lp394
I1
aI27
asg148
Nsg149
VJudges 1:27
p395
sg151
(lp396
sg153
g104
sg154
Nsg155
(lp397
I1
aI27
asg157
Nsg158
g395
sg159
(lp398
sg161
g60
sg162
Nsg163
Nsg164
Nsbag2
(g3
g4
Ntp399
Rp400
(dp401
g8
g11
sg142
Nsg143
(dp402
sg145
Nsg26
g29
sg146
(lp403
I1
aI28
asg148
Nsg149
VJudges 1:28
p404
sg151
(lp405
sg153
g104
sg154
Nsg155
(lp406
I1
aI28
asg157
Nsg158
g404
sg159
(lp407
sg161
g60
sg162
Nsg163
Nsg164
Nsbag2
(g3
g4
Ntp408
Rp409
(dp410
g8
g11
sg142
Nsg143
(dp411
sg145
Nsg26
g29
sg146
(lp412
I1
aI29
asg148
Nsg149
VJudges 1:29
p413
sg151
(lp414
sg153
g104
sg154
Nsg155
(lp415
I1
aI29
asg157
Nsg158
g413
sg159
(lp416
sg161
g60
sg162
Nsg163
Nsg164
Nsbag2
(g3
g4
Ntp417
Rp418
(dp419
g8
g11
sg142
Nsg143
(dp420
sg145
Nsg26
g29
sg146
(lp421
I1
aI30
asg148
Nsg149
VJudges 1:30
p422
sg151
(lp423
sg153
g104
sg154
Nsg155
(lp424
I1
aI30
asg157
Nsg158
g422
sg159
(lp425
sg161
g60
sg162
Nsg163
Nsg164
Nsbag2
(g3
g4
Ntp426
Rp427
(dp428
g8
g11
sg142
Nsg143
(dp429
sg145
Nsg26
g29
sg146
(lp430
I1
aI31
asg148
Nsg149
VJudges 1:31
p431
sg151
(lp432
sg153
g104
sg154
Nsg155
(lp433
I1
aI31
asg157
Nsg158
g431
sg159
(lp434
sg161
g60
sg162
Nsg163
Nsg164
Nsbag2
(g3
g4
Ntp435
Rp436
(dp437
g8
g11
sg142
Nsg143
(dp438
sg145
Nsg26
g29
sg146
(lp439
I1
aI32
asg148
Nsg149
VJudges 1:32
p440
sg151
(lp441
sg153
g104
sg154
Nsg155
(lp442
I1
aI32
asg157
Nsg158
g440
sg159
(lp443
sg161
g60
sg162
Nsg163
Nsg164
Nsbag2
(g3
g4
Ntp444
Rp445
(dp446
g8
g11
sg142
Nsg143
(dp447
sg145
Nsg26
g29
sg146
(lp448
I1
aI33
asg148
Nsg149
VJudges 1:33
p449
sg151
(lp450
sg153
g104
sg154
Nsg155
(lp451
I1
aI33
asg157
Nsg158
g449
sg159
(lp452
sg161
g60
sg162
Nsg163
Nsg164
Nsbag2
(g3
g4
Ntp453
Rp454
(dp455
g8
g11
sg142
Nsg143
(dp456
sg145
Nsg26
g29
sg146
(lp457
I1
aI34
asg148
Nsg149
VJudges 1:34
p458
sg151
(lp459
sg153
g104
sg154
Nsg155
(lp460
I1
aI34
asg157
Nsg158
g458
sg159
(lp461
sg161
g60
sg162
Nsg163
Nsg164
Nsbag2
(g3
g4
Ntp462
Rp463
(dp464
g8
g11
sg142
Nsg143
(dp465
sg145
Nsg26
g29
sg146
(lp466
I1
aI35
asg148
Nsg149
VJudges 1:35
p467
sg151
(lp468
sg153
g104
sg154
Nsg155
(lp469
I1
aI35
asg157
Nsg158
g467
sg159
(lp470
sg161
g60
sg162
Nsg163
Nsg164
Nsbag2
(g3
g4
Ntp471
Rp472
(dp473
g8
g11
sg142
Nsg143
(dp474
sg145
Nsg26
g29
sg146
(lp475
I1
aI36
asg148
Nsg149
VJudges 1:36
p476
sg151
(lp477
sg153
g104
sg154
Nsg155
(lp478
I1
aI36
asg157
Nsg158
g476
sg159
(lp479
sg161
g60
sg162
Nsg163
Nsg164
Nsbag2
(g3
g4
Ntp480
Rp481
(dp482
g8
g11
sg142
Nsg143
(dp483
sg145
Nsg26
g29
sg146
(lp484
I2
aI1
asg148
Nsg149
VJudges 2:1
p485
sg151
(lp486
sg153
g104
sg154
Nsg155
(lp487
I2
aI1
asg157
Nsg158
g485
sg159
(lp488
sg161
g60
sg162
Nsg163
Nsg164
Nsbag2
(g3
g4
Ntp489
Rp490
(dp491
g8
g11
sg142
Nsg143
(dp492
sg145
Nsg26
g29
sg146
(lp493
I2
aI2
asg148
Nsg149
VJudges 2:2
p494
sg151
(lp495
sg153
g104
sg154
Nsg155
(lp496
I2
aI2
asg157
Nsg158
g494
sg159
(lp497
sg161
g60
sg162
Nsg163
Nsg164
Nsbag2
(g3
g4
Ntp498
Rp499
(dp500
g8
g11
sg142
Nsg143
(dp501
sg145
Nsg26
g29
sg146
(lp502
I2
aI3
asg148
Nsg149
VJudges 2:3
p503
sg151
(lp504
sg153
g104
sg154
Nsg155
(lp505
I2
aI3
asg157
Nsg158
g503
sg159
(lp506
sg161
g60
sg162
Nsg163
Nsg164
Nsbag2
(g3
g4
Ntp507
Rp508
(dp509
g8
g11
sg142
Nsg143
(dp510
sg145
Nsg26
g29
sg146
(lp511
I2
aI4
asg148
Nsg149
VJudges 2:4
p512
sg151
(lp513
sg153
g104
sg154
Nsg155
(lp514
I2
aI4
asg157
Nsg158
g512
sg159
(lp515
sg161
g60
sg162
Nsg163
Nsg164
Nsbag2
(g3
g4
Ntp516
Rp517
(dp518
g8
g11
sg142
Nsg143
(dp519
sg145
Nsg26
g29
sg146
(lp520
I2
aI5
asg148
Nsg149
VJudges 2:5
p521
sg151
(lp522
sg153
g104
sg154
Nsg155
(lp523
I2
aI5
asg157
Nsg158
g521
sg159
(lp524
sg161
g60
sg162
Nsg163
Nsg164
Nsbag2
(g3
g4
Ntp525
Rp526
(dp527
g8
g11
sg142
Nsg143
(dp528
sg145
Nsg26
g29
sg146
(lp529
I2
aI6
asg148
Nsg149
VJudges 2:6
p530
sg151
(lp531
sg153
g104
sg154
Nsg155
(lp532
I2
aI6
asg157
Nsg158
g530
sg159
(lp533
sg161
g60
sg162
Nsg163
Nsg164
Nsbag2
(g3
g4
Ntp534
Rp535
(dp536
g8
g11
sg142
Nsg143
(dp537
sg145
Nsg26
g29
sg146
(lp538
I2
aI7
asg148
Nsg149
VJudges 2:7
p539
sg151
(lp540
sg153
g104
sg154
Nsg155
(lp541
I2
aI7
asg157
Nsg158
g539
sg159
(lp542
sg161
g60
sg162
Nsg163
Nsg164
Nsbag2
(g3
g4
Ntp543
Rp544
(dp545
g8
g11
sg142
Nsg143
(dp546
sg145
Nsg26
g29
sg146
(lp547
I2
aI8
asg148
Nsg149
VJudges 2:8
p548
sg151
(lp549
sg153
g104
sg154
Nsg155
(lp550
I2
aI8
asg157
Nsg158
g548
sg159
(lp551
sg161
g60
sg162
Nsg163
Nsg164
Nsbag2
(g3
g4
Ntp552
Rp553
(dp554
g8
g11
sg142
Nsg143
(dp555
sg145
Nsg26
g29
sg146
(lp556
I2
aI9
asg148
Nsg149
VJudges 2:9
p557
sg151
(lp558
sg153
g104
sg154
Nsg155
(lp559
I2
aI9
asg157
Nsg158
g557
sg159
(lp560
sg161
g60
sg162
Nsg163
Nsg164
Nsbag2
(g3
g4
Ntp561
Rp562
(dp563
g8
g11
sg142
Nsg143
(dp564
sg145
Nsg26
g29
sg146
(lp565
I2
aI10
asg148
Nsg149
VJudges 2:10
p566
sg151
(lp567
sg153
g104
sg154
Nsg155
(lp568
I2
aI10
asg157
Nsg158
g566
sg159
(lp569
sg161
g60
sg162
Nsg163
Nsg164
Nsbag2
(g3
g4
Ntp570
Rp571
(dp572
g8
g11
sg142
Nsg143
(dp573
sg145
Nsg26
g29
sg146
(lp574
I2
aI11
asg148
Nsg149
VJudges 2:11
p575
sg151
(lp576
sg153
g104
sg154
Nsg155
(lp577
I2
aI11
asg157
Nsg158
g575
sg159
(lp578
sg161
g60
sg162
Nsg163
Nsg164
Nsbag2
(g3
g4
Ntp579
Rp580
(dp581
g8
g11
sg142
Nsg143
(dp582
sg145
Nsg26
g29
sg146
(lp583
I2
aI12
asg148
Nsg149
VJudges 2:12
p584
sg151
(lp585
sg153
g104
sg154
Nsg155
(lp586
I2
aI12
asg157
Nsg158
g584
sg159
(lp587
sg161
g60
sg162
Nsg163
Nsg164
Nsbag2
(g3
g4
Ntp588
Rp589
(dp590
g8
g11
sg142
Nsg143
(dp591
sg145
Nsg26
g29
sg146
(lp592
I2
aI13
asg148
Nsg149
VJudges 2:13
p593
sg151
(lp594
sg153
g104
sg154
Nsg155
(lp595
I2
aI13
asg157
Nsg158
g593
sg159
(lp596
sg161
g60
sg162
Nsg163
Nsg164
Nsbag2
(g3
g4
Ntp597
Rp598
(dp599
g8
g11
sg142
Nsg143
(dp600
sg145
Nsg26
g29
sg146
(lp601
I2
aI14
asg148
Nsg149
VJudges 2:14
p602
sg151
(lp603
sg153
g104
sg154
Nsg155
(lp604
I2
aI14
asg157
Nsg158
g602
sg159
(lp605
sg161
g60
sg162
Nsg163
Nsg164
Nsbag2
(g3
g4
Ntp606
Rp607
(dp608
g8
g11
sg142
Nsg143
(dp609
sg145
Nsg26
g29
sg146
(lp610
I2
aI15
asg148
Nsg149
VJudges 2:15
p611
sg151
(lp612
sg153
g104
sg154
Nsg155
(lp613
I2
aI15
asg157
Nsg158
g611
sg159
(lp614
sg161
g60
sg162
Nsg163
Nsg164
Nsbag2
(g3
g4
Ntp615
Rp616
(dp617
g8
g11
sg142
Nsg143
(dp618
sg145
Nsg26
g29
sg146
(lp619
I2
aI16
asg148
Nsg149
VJudges 2:16
p620
sg151
(lp621
sg153
g104
sg154
Nsg155
(lp622
I2
aI16
asg157
Nsg158
g620
sg159
(lp623
sg161
g60
sg162
Nsg163
Nsg164
Nsbag2
(g3
g4
Ntp624
Rp625
(dp626
g8
g11
sg142
Nsg143
(dp627
sg145
Nsg26
g29
sg146
(lp628
I2
aI17
asg148
Nsg149
VJudges 2:17
p629
sg151
(lp630
sg153
g104
sg154
Nsg155
(lp631
I2
aI17
asg157
Nsg158
g629
sg159
(lp632
sg161
g60
sg162
Nsg163
Nsg164
Nsbag2
(g3
g4
Ntp633
Rp634
(dp635
g8
g11
sg142
Nsg143
(dp636
sg145
Nsg26
g29
sg146
(lp637
I2
aI18
asg148
Nsg149
VJudges 2:18
p638
sg151
(lp639
sg153
g104
sg154
Nsg155
(lp640
I2
aI18
asg157
Nsg158
g638
sg159
(lp641
sg161
g60
sg162
Nsg163
Nsg164
Nsbag2
(g3
g4
Ntp642
Rp643
(dp644
g8
g11
sg142
Nsg143
(dp645
sg145
Nsg26
g29
sg146
(lp646
I2
aI19
asg148
Nsg149
VJudges 2:19
p647
sg151
(lp648
sg153
g104
sg154
Nsg155
(lp649
I2
aI19
asg157
Nsg158
g647
sg159
(lp650
sg161
g60
sg162
Nsg163
Nsg164
Nsbag2
(g3
g4
Ntp651
Rp652
(dp653
g8
g11
sg142
Nsg143
(dp654
sg145
Nsg26
g29
sg146
(lp655
I2
aI20
asg148
Nsg149
VJudges 2:20
p656
sg151
(lp657
sg153
g104
sg154
Nsg155
(lp658
I2
aI20
asg157
Nsg158
g656
sg159
(lp659
sg161
g60
sg162
Nsg163
Nsg164
Nsbag2
(g3
g4
Ntp660
Rp661
(dp662
g8
g11
sg142
Nsg143
(dp663
sg145
Nsg26
g29
sg146
(lp664
I2
aI21
asg148
Nsg149
VJudges 2:21
p665
sg151
(lp666
sg153
g104
sg154
Nsg155
(lp667
I2
aI21
asg157
Nsg158
g665
sg159
(lp668
sg161
g60
sg162
Nsg163
Nsg164
Nsbag2
(g3
g4
Ntp669
Rp670
(dp671
g8
g11
sg142
Nsg143
(dp672
sg145
Nsg26
g29
sg146
(lp673
I2
aI22
asg148
Nsg149
VJudges 2:22
p674
sg151
(lp675
sg153
g104
sg154
Nsg155
(lp676
I2
aI22
asg157
Nsg158
g674
sg159
(lp677
sg161
g60
sg162
Nsg163
Nsg164
Nsbag2
(g3
g4
Ntp678
Rp679
(dp680
g8
g11
sg142
Nsg143
(dp681
sg145
Nsg26
g29
sg146
(lp682
I2
aI23
asg148
Nsg149
VJudges 2:23
p683
sg151
(lp684
sg153
g104
sg154
Nsg155
(lp685
I2
aI23
asg157
Nsg158
g683
sg159
(lp686
sg161
g60
sg162
Nsg163
Nsg164
Nsbag2
(g3
g4
Ntp687
Rp688
(dp689
g8
g11
sg142
Nsg143
(dp690
sg145
Nsg26
g29
sg146
(lp691
I3
aI1
asg148
Nsg149
VJudges 3:1
p692
sg151
(lp693
sg153
g104
sg154
Nsg155
(lp694
I3
aI1
asg157
Nsg158
g692
sg159
(lp695
sg161
g60
sg162
Nsg163
Nsg164
Nsbag2
(g3
g4
Ntp696
Rp697
(dp698
g8
g11
sg142
Nsg143
(dp699
sg145
Nsg26
g29
sg146
(lp700
I3
aI2
asg148
Nsg149
VJudges 3:2
p701
sg151
(lp702
sg153
g104
sg154
Nsg155
(lp703
I3
aI2
asg157
Nsg158
g701
sg159
(lp704
sg161
g60
sg162
Nsg163
Nsg164
Nsbag2
(g3
g4
Ntp705
Rp706
(dp707
g8
g11
sg142
Nsg143
(dp708
sg145
Nsg26
g29
sg146
(lp709
I3
aI3
asg148
Nsg149
VJudges 3:3
p710
sg151
(lp711
sg153
g104
sg154
Nsg155
(lp712
I3
aI3
asg157
Nsg158
g710
sg159
(lp713
sg161
g60
sg162
Nsg163
Nsg164
Nsbag2
(g3
g4
Ntp714
Rp715
(dp716
g8
g11
sg142
Nsg143
(dp717
sg145
Nsg26
g29
sg146
(lp718
I3
aI4
asg148
Nsg149
VJudges 3:4
p719
sg151
(lp720
sg153
g104
sg154
Nsg155
(lp721
I3
aI4
asg157
Nsg158
g719
sg159
(lp722
sg161
g60
sg162
Nsg163
Nsg164
Nsbag2
(g3
g4
Ntp723
Rp724
(dp725
g8
g11
sg142
Nsg143
(dp726
sg145
Nsg26
g29
sg146
(lp727
I3
aI5
asg148
Nsg149
VJudges 3:5
p728
sg151
(lp729
sg153
g104
sg154
Nsg155
(lp730
I3
aI5
asg157
Nsg158
g728
sg159
(lp731
sg161
g60
sg162
Nsg163
Nsg164
Nsbag2
(g3
g4
Ntp732
Rp733
(dp734
g8
g11
sg142
Nsg143
(dp735
sg145
Nsg26
g29
sg146
(lp736
I3
aI6
asg148
Nsg149
VJudges 3:6
p737
sg151
(lp738
sg153
g104
sg154
Nsg155
(lp739
I3
aI6
asg157
Nsg158
g737
sg159
(lp740
sg161
g60
sg162
Nsg163
Nsg164
Nsbag2
(g3
g4
Ntp741
Rp742
(dp743
g8
g11
sg142
Nsg143
(dp744
sg145
Nsg26
g29
sg146
(lp745
I3
aI7
asg148
Nsg149
VJudges 3:7
p746
sg151
(lp747
sg153
g104
sg154
Nsg155
(lp748
I3
aI7
asg157
Nsg158
g746
sg159
(lp749
sg161
g60
sg162
Nsg163
Nsg164
Nsbag2
(g3
g4
Ntp750
Rp751
(dp752
g8
g11
sg142
Nsg143
(dp753
sg145
Nsg26
g29
sg146
(lp754
I3
aI8
asg148
Nsg149
VJudges 3:8
p755
sg151
(lp756
sg153
g104
sg154
Nsg155
(lp757
I3
aI8
asg157
Nsg158
g755
sg159
(lp758
sg161
g60
sg162
Nsg163
Nsg164
Nsbag2
(g3
g4
Ntp759
Rp760
(dp761
g8
g11
sg142
Nsg143
(dp762
sg145
Nsg26
g29
sg146
(lp763
I3
aI9
asg148
Nsg149
VJudges 3:9
p764
sg151
(lp765
sg153
g104
sg154
Nsg155
(lp766
I3
aI9
asg157
Nsg158
g764
sg159
(lp767
sg161
g60
sg162
Nsg163
Nsg164
Nsbag2
(g3
g4
Ntp768
Rp769
(dp770
g8
g11
sg142
Nsg143
(dp771
sg145
Nsg26
g29
sg146
(lp772
I3
aI10
asg148
Nsg149
VJudges 3:10
p773
sg151
(lp774
sg153
g104
sg154
Nsg155
(lp775
I3
aI10
asg157
Nsg158
g773
sg159
(lp776
sg161
g60
sg162
Nsg163
Nsg164
Nsbag2
(g3
g4
Ntp777
Rp778
(dp779
g8
g11
sg142
Nsg143
(dp780
sg145
Nsg26
g29
sg146
(lp781
I3
aI11
asg148
Nsg149
VJudges 3:11
p782
sg151
(lp783
sg153
g104
sg154
Nsg155
(lp784
I3
aI11
asg157
Nsg158
g782
sg159
(lp785
sg161
g60
sg162
Nsg163
Nsg164
Nsbag2
(g3
g4
Ntp786
Rp787
(dp788
g8
g11
sg142
Nsg143
(dp789
sg145
Nsg26
g29
sg146
(lp790
I3
aI12
asg148
Nsg149
VJudges 3:12
p791
sg151
(lp792
sg153
g104
sg154
Nsg155
(lp793
I3
aI12
asg157
Nsg158
g791
sg159
(lp794
sg161
g60
sg162
Nsg163
Nsg164
Nsbag2
(g3
g4
Ntp795
Rp796
(dp797
g8
g11
sg142
Nsg143
(dp798
sg145
Nsg26
g29
sg146
(lp799
I3
aI13
asg148
Nsg149
VJudges 3:13
p800
sg151
(lp801
sg153
g104
sg154
Nsg155
(lp802
I3
aI13
asg157
Nsg158
g800
sg159
(lp803
sg161
g60
sg162
Nsg163
Nsg164
Nsbag2
(g3
g4
Ntp804
Rp805
(dp806
g8
g11
sg142
Nsg143
(dp807
sg145
Nsg26
g29
sg146
(lp808
I3
aI14
asg148
Nsg149
VJudges 3:14
p809
sg151
(lp810
sg153
g104
sg154
Nsg155
(lp811
I3
aI14
asg157
Nsg158
g809
sg159
(lp812
sg161
g60
sg162
Nsg163
Nsg164
Nsbag2
(g3
g4
Ntp813
Rp814
(dp815
g8
g11
sg142
Nsg143
(dp816
sg145
Nsg26
g29
sg146
(lp817
I3
aI15
asg148
Nsg149
VJudges 3:15
p818
sg151
(lp819
sg153
g104
sg154
Nsg155
(lp820
I3
aI15
asg157
Nsg158
g818
sg159
(lp821
sg161
g60
sg162
Nsg163
Nsg164
Nsbag2
(g3
g4
Ntp822
Rp823
(dp824
g8
g11
sg142
Nsg143
(dp825
sg145
Nsg26
g29
sg146
(lp826
I3
aI16
asg148
Nsg149
VJudges 3:16
p827
sg151
(lp828
sg153
g104
sg154
Nsg155
(lp829
I3
aI16
asg157
Nsg158
g827
sg159
(lp830
sg161
g60
sg162
Nsg163
Nsg164
Nsbag2
(g3
g4
Ntp831
Rp832
(dp833
g8
g11
sg142
Nsg143
(dp834
sg145
Nsg26
g29
sg146
(lp835
I3
aI17
asg148
Nsg149
VJudges 3:17
p836
sg151
(lp837
sg153
g104
sg154
Nsg155
(lp838
I3
aI17
asg157
Nsg158
g836
sg159
(lp839
sg161
g60
sg162
Nsg163
Nsg164
Nsbag2
(g3
g4
Ntp840
Rp841
(dp842
g8
g11
sg142
Nsg143
(dp843
sg145
Nsg26
g29
sg146
(lp844
I3
aI18
asg148
Nsg149
VJudges 3:18
p845
sg151
(lp846
sg153
g104
sg154
Nsg155
(lp847
I3
aI18
asg157
Nsg158
g845
sg159
(lp848
sg161
g60
sg162
Nsg163
Nsg164
Nsbag2
(g3
g4
Ntp849
Rp850
(dp851
g8
g11
sg142
Nsg143
(dp852
sg145
Nsg26
g29
sg146
(lp853
I3
aI19
asg148
Nsg149
VJudges 3:19
p854
sg151
(lp855
sg153
g104
sg154
Nsg155
(lp856
I3
aI19
asg157
Nsg158
g854
sg159
(lp857
sg161
g60
sg162
Nsg163
Nsg164
Nsbag2
(g3
g4
Ntp858
Rp859
(dp860
g8
g11
sg142
Nsg143
(dp861
sg145
Nsg26
g29
sg146
(lp862
I3
aI20
asg148
Nsg149
VJudges 3:20
p863
sg151
(lp864
sg153
g104
sg154
Nsg155
(lp865
I3
aI20
asg157
Nsg158
g863
sg159
(lp866
sg161
g60
sg162
Nsg163
Nsg164
Nsbag2
(g3
g4
Ntp867
Rp868
(dp869
g8
g11
sg142
Nsg143
(dp870
sg145
Nsg26
g29
sg146
(lp871
I3
aI21
asg148
Nsg149
VJudges 3:21
p872
sg151
(lp873
sg153
g104
sg154
Nsg155
(lp874
I3
aI21
asg157
Nsg158
g872
sg159
(lp875
sg161
g60
sg162
Nsg163
Nsg164
Nsbag2
(g3
g4
Ntp876
Rp877
(dp878
g8
g11
sg142
Nsg143
(dp879
sg145
Nsg26
g29
sg146
(lp880
I3
aI22
asg148
Nsg149
VJudges 3:22
p881
sg151
(lp882
sg153
g104
sg154
Nsg155
(lp883
I3
aI22
asg157
Nsg158
g881
sg159
(lp884
sg161
g60
sg162
Nsg163
Nsg164
Nsbag2
(g3
g4
Ntp885
Rp886
(dp887
g8
g11
sg142
Nsg143
(dp888
sg145
Nsg26
g29
sg146
(lp889
I3
aI23
asg148
Nsg149
VJudges 3:23
p890
sg151
(lp891
sg153
g104
sg154
Nsg155
(lp892
I3
aI23
asg157
Nsg158
g890
sg159
(lp893
sg161
g60
sg162
Nsg163
Nsg164
Nsbag2
(g3
g4
Ntp894
Rp895
(dp896
g8
g11
sg142
Nsg143
(dp897
sg145
Nsg26
g29
sg146
(lp898
I3
aI24
asg148
Nsg149
VJudges 3:24
p899
sg151
(lp900
sg153
g104
sg154
Nsg155
(lp901
I3
aI24
asg157
Nsg158
g899
sg159
(lp902
sg161
g60
sg162
Nsg163
Nsg164
Nsbag2
(g3
g4
Ntp903
Rp904
(dp905
g8
g11
sg142
Nsg143
(dp906
sg145
Nsg26
g29
sg146
(lp907
I3
aI25
asg148
Nsg149
VJudges 3:25
p908
sg151
(lp909
sg153
g104
sg154
Nsg155
(lp910
I3
aI25
asg157
Nsg158
g908
sg159
(lp911
sg161
g60
sg162
Nsg163
Nsg164
Nsbag2
(g3
g4
Ntp912
Rp913
(dp914
g8
g11
sg142
Nsg143
(dp915
sg145
Nsg26
g29
sg146
(lp916
I3
aI26
asg148
Nsg149
VJudges 3:26
p917
sg151
(lp918
sg153
g104
sg154
Nsg155
(lp919
I3
aI26
asg157
Nsg158
g917
sg159
(lp920
sg161
g60
sg162
Nsg163
Nsg164
Nsbag2
(g3
g4
Ntp921
Rp922
(dp923
g8
g11
sg142
Nsg143
(dp924
sg145
Nsg26
g29
sg146
(lp925
I3
aI27
asg148
Nsg149
VJudges 3:27
p926
sg151
(lp927
sg153
g104
sg154
Nsg155
(lp928
I3
aI27
asg157
Nsg158
g926
sg159
(lp929
sg161
g60
sg162
Nsg163
Nsg164
Nsbag2
(g3
g4
Ntp930
Rp931
(dp932
g8
g11
sg142
Nsg143
(dp933
sg145
Nsg26
g29
sg146
(lp934
I3
aI28
asg148
Nsg149
VJudges 3:28
p935
sg151
(lp936
sg153
g104
sg154
Nsg155
(lp937
I3
aI28
asg157
Nsg158
g935
sg159
(lp938
sg161
g60
sg162
Nsg163
Nsg164
Nsbag2
(g3
g4
Ntp939
Rp940
(dp941
g8
g11
sg142
Nsg143
(dp942
sg145
Nsg26
g29
sg146
(lp943
I3
aI29
asg148
Nsg149
VJudges 3:29
p944
sg151
(lp945
sg153
g104
sg154
Nsg155
(lp946
I3
aI29
asg157
Nsg158
g944
sg159
(lp947
sg161
g60
sg162
Nsg163
Nsg164
Nsbag2
(g3
g4
Ntp948
Rp949
(dp950
g8
g11
sg142
Nsg143
(dp951
sg145
Nsg26
g29
sg146
(lp952
I3
aI30
asg148
Nsg149
VJudges 3:30
p953
sg151
(lp954
sg153
g104
sg154
Nsg155
(lp955
I3
aI30
asg157
Nsg158
g953
sg159
(lp956
sg161
g60
sg162
Nsg163
Nsg164
Nsbag2
(g3
g4
Ntp957
Rp958
(dp959
g8
g11
sg142
Nsg143
(dp960
sg145
Nsg26
g29
sg146
(lp961
I3
aI31
asg148
Nsg149
VJudges 3:31
p962
sg151
(lp963
sg153
g104
sg154
Nsg155
(lp964
I3
aI31
asg157
Nsg158
g962
sg159
(lp965
sg161
g60
sg162
Nsg163
Nsg164
Nsbag2
(g3
g4
Ntp966
Rp967
(dp968
g8
g11
sg142
Nsg143
(dp969
sg145
Nsg26
g29
sg146
(lp970
I4
aI1
asg148
Nsg149
VJudges 4:1
p971
sg151
(lp972
sg153
g104
sg154
Nsg155
(lp973
I4
aI1
asg157
Nsg158
g971
sg159
(lp974
sg161
g60
sg162
Nsg163
Nsg164
Nsbag2
(g3
g4
Ntp975
Rp976
(dp977
g8
g11
sg142
Nsg143
(dp978
sg145
Nsg26
g29
sg146
(lp979
I4
aI2
asg148
Nsg149
VJudges 4:2
p980
sg151
(lp981
sg153
g104
sg154
Nsg155
(lp982
I4
aI2
asg157
Nsg158
g980
sg159
(lp983
sg161
g60
sg162
Nsg163
Nsg164
Nsbag2
(g3
g4
Ntp984
Rp985
(dp986
g8
g11
sg142
Nsg143
(dp987
sg145
Nsg26
g29
sg146
(lp988
I4
aI3
asg148
Nsg149
VJudges 4:3
p989
sg151
(lp990
sg153
g104
sg154
Nsg155
(lp991
I4
aI3
asg157
Nsg158
g989
sg159
(lp992
sg161
g60
sg162
Nsg163
Nsg164
Nsbag2
(g3
g4
Ntp993
Rp994
(dp995
g8
g11
sg142
Nsg143
(dp996
sg145
Nsg26
g29
sg146
(lp997
I4
aI4
asg148
Nsg149
VJudges 4:4
p998
sg151
(lp999
sg153
g104
sg154
Nsg155
(lp1000
I4
aI4
asg157
Nsg158
g998
sg159
(lp1001
sg161
g60
sg162
Nsg163
Nsg164
Nsbag2
(g3
g4
Ntp1002
Rp1003
(dp1004
g8
g11
sg142
Nsg143
(dp1005
sg145
Nsg26
g29
sg146
(lp1006
I4
aI5
asg148
Nsg149
VJudges 4:5
p1007
sg151
(lp1008
sg153
g104
sg154
Nsg155
(lp1009
I4
aI5
asg157
Nsg158
g1007
sg159
(lp1010
sg161
g60
sg162
Nsg163
Nsg164
Nsbag2
(g3
g4
Ntp1011
Rp1012
(dp1013
g8
g11
sg142
Nsg143
(dp1014
sg145
Nsg26
g29
sg146
(lp1015
I4
aI6
asg148
Nsg149
VJudges 4:6
p1016
sg151
(lp1017
sg153
g104
sg154
Nsg155
(lp1018
I4
aI6
asg157
Nsg158
g1016
sg159
(lp1019
sg161
g60
sg162
Nsg163
Nsg164
Nsbag2
(g3
g4
Ntp1020
Rp1021
(dp1022
g8
g11
sg142
Nsg143
(dp1023
sg145
Nsg26
g29
sg146
(lp1024
I4
aI7
asg148
Nsg149
VJudges 4:7
p1025
sg151
(lp1026
sg153
g104
sg154
Nsg155
(lp1027
I4
aI7
asg157
Nsg158
g1025
sg159
(lp1028
sg161
g60
sg162
Nsg163
Nsg164
Nsbag2
(g3
g4
Ntp1029
Rp1030
(dp1031
g8
g11
sg142
Nsg143
(dp1032
sg145
Nsg26
g29
sg146
(lp1033
I4
aI8
asg148
Nsg149
VJudges 4:8
p1034
sg151
(lp1035
sg153
g104
sg154
Nsg155
(lp1036
I4
aI8
asg157
Nsg158
g1034
sg159
(lp1037
sg161
g60
sg162
Nsg163
Nsg164
Nsbag2
(g3
g4
Ntp1038
Rp1039
(dp1040
g8
g11
sg142
Nsg143
(dp1041
sg145
Nsg26
g29
sg146
(lp1042
I4
aI9
asg148
Nsg149
VJudges 4:9
p1043
sg151
(lp1044
sg153
g104
sg154
Nsg155
(lp1045
I4
aI9
asg157
Nsg158
g1043
sg159
(lp1046
sg161
g60
sg162
Nsg163
Nsg164
Nsbag2
(g3
g4
Ntp1047
Rp1048
(dp1049
g8
g11
sg142
Nsg143
(dp1050
sg145
Nsg26
g29
sg146
(lp1051
I4
aI10
asg148
Nsg149
VJudges 4:10
p1052
sg151
(lp1053
sg153
g104
sg154
Nsg155
(lp1054
I4
aI10
asg157
Nsg158
g1052
sg159
(lp1055
sg161
g60
sg162
Nsg163
Nsg164
Nsbag2
(g3
g4
Ntp1056
Rp1057
(dp1058
g8
g11
sg142
Nsg143
(dp1059
sg145
Nsg26
g29
sg146
(lp1060
I4
aI11
asg148
Nsg149
VJudges 4:11
p1061
sg151
(lp1062
sg153
g104
sg154
Nsg155
(lp1063
I4
aI11
asg157
Nsg158
g1061
sg159
(lp1064
sg161
g60
sg162
Nsg163
Nsg164
Nsbag2
(g3
g4
Ntp1065
Rp1066
(dp1067
g8
g11
sg142
Nsg143
(dp1068
sg145
Nsg26
g29
sg146
(lp1069
I4
aI12
asg148
Nsg149
VJudges 4:12
p1070
sg151
(lp1071
sg153
g104
sg154
Nsg155
(lp1072
I4
aI12
asg157
Nsg158
g1070
sg159
(lp1073
sg161
g60
sg162
Nsg163
Nsg164
Nsbag2
(g3
g4
Ntp1074
Rp1075
(dp1076
g8
g11
sg142
Nsg143
(dp1077
sg145
Nsg26
g29
sg146
(lp1078
I4
aI13
asg148
Nsg149
VJudges 4:13
p1079
sg151
(lp1080
sg153
g104
sg154
Nsg155
(lp1081
I4
aI13
asg157
Nsg158
g1079
sg159
(lp1082
sg161
g60
sg162
Nsg163
Nsg164
Nsbag2
(g3
g4
Ntp1083
Rp1084
(dp1085
g8
g11
sg142
Nsg143
(dp1086
sg145
Nsg26
g29
sg146
(lp1087
I4
aI14
asg148
Nsg149
VJudges 4:14
p1088
sg151
(lp1089
sg153
g104
sg154
Nsg155
(lp1090
I4
aI14
asg157
Nsg158
g1088
sg159
(lp1091
sg161
g60
sg162
Nsg163
Nsg164
Nsbag2
(g3
g4
Ntp1092
Rp1093
(dp1094
g8
g11
sg142
Nsg143
(dp1095
sg145
Nsg26
g29
sg146
(lp1096
I4
aI15
asg148
Nsg149
VJudges 4:15
p1097
sg151
(lp1098
sg153
g104
sg154
Nsg155
(lp1099
I4
aI15
asg157
Nsg158
g1097
sg159
(lp1100
sg161
g60
sg162
Nsg163
Nsg164
Nsbag2
(g3
g4
Ntp1101
Rp1102
(dp1103
g8
g11
sg142
Nsg143
(dp1104
sg145
Nsg26
g29
sg146
(lp1105
I4
aI16
asg148
Nsg149
VJudges 4:16
p1106
sg151
(lp1107
sg153
g104
sg154
Nsg155
(lp1108
I4
aI16
asg157
Nsg158
g1106
sg159
(lp1109
sg161
g60
sg162
Nsg163
Nsg164
Nsbag2
(g3
g4
Ntp1110
Rp1111
(dp1112
g8
g11
sg142
Nsg143
(dp1113
sg145
Nsg26
g29
sg146
(lp1114
I4
aI17
asg148
Nsg149
VJudges 4:17
p1115
sg151
(lp1116
sg153
g104
sg154
Nsg155
(lp1117
I4
aI17
asg157
Nsg158
g1115
sg159
(lp1118
sg161
g60
sg162
Nsg163
Nsg164
Nsbag2
(g3
g4
Ntp1119
Rp1120
(dp1121
g8
g11
sg142
Nsg143
(dp1122
sg145
Nsg26
g29
sg146
(lp1123
I4
aI18
asg148
Nsg149
VJudges 4:18
p1124
sg151
(lp1125
sg153
g104
sg154
Nsg155
(lp1126
I4
aI18
asg157
Nsg158
g1124
sg159
(lp1127
sg161
g60
sg162
Nsg163
Nsg164
Nsbag2
(g3
g4
Ntp1128
Rp1129
(dp1130
g8
g11
sg142
Nsg143
(dp1131
sg145
Nsg26
g29
sg146
(lp1132
I4
aI19
asg148
Nsg149
VJudges 4:19
p1133
sg151
(lp1134
sg153
g104
sg154
Nsg155
(lp1135
I4
aI19
asg157
Nsg158
g1133
sg159
(lp1136
sg161
g60
sg162
Nsg163
Nsg164
Nsbag2
(g3
g4
Ntp1137
Rp1138
(dp1139
g8
g11
sg142
Nsg143
(dp1140
sg145
Nsg26
g29
sg146
(lp1141
I4
aI20
asg148
Nsg149
VJudges 4:20
p1142
sg151
(lp1143
sg153
g104
sg154
Nsg155
(lp1144
I4
aI20
asg157
Nsg158
g1142
sg159
(lp1145
sg161
g60
sg162
Nsg163
Nsg164
Nsbag2
(g3
g4
Ntp1146
Rp1147
(dp1148
g8
g11
sg142
Nsg143
(dp1149
sg145
Nsg26
g29
sg146
(lp1150
I4
aI21
asg148
Nsg149
VJudges 4:21
p1151
sg151
(lp1152
sg153
g104
sg154
Nsg155
(lp1153
I4
aI21
asg157
Nsg158
g1151
sg159
(lp1154
sg161
g60
sg162
Nsg163
Nsg164
Nsbag2
(g3
g4
Ntp1155
Rp1156
(dp1157
g8
g11
sg142
Nsg143
(dp1158
sg145
Nsg26
g29
sg146
(lp1159
I4
aI22
asg148
Nsg149
VJudges 4:22
p1160
sg151
(lp1161
sg153
g104
sg154
Nsg155
(lp1162
I4
aI22
asg157
Nsg158
g1160
sg159
(lp1163
sg161
g60
sg162
Nsg163
Nsg164
Nsbag2
(g3
g4
Ntp1164
Rp1165
(dp1166
g8
g11
sg142
Nsg143
(dp1167
sg145
Nsg26
g29
sg146
(lp1168
I4
aI23
asg148
Nsg149
VJudges 4:23
p1169
sg151
(lp1170
sg153
g104
sg154
Nsg155
(lp1171
I4
aI23
asg157
Nsg158
g1169
sg159
(lp1172
sg161
g60
sg162
Nsg163
Nsg164
Nsbag2
(g3
g4
Ntp1173
Rp1174
(dp1175
g8
g11
sg142
Nsg143
(dp1176
sg145
Nsg26
g29
sg146
(lp1177
I4
aI24
asg148
Nsg149
VJudges 4:24
p1178
sg151
(lp1179
sg153
g104
sg154
Nsg155
(lp1180
I4
aI24
asg157
Nsg158
g1178
sg159
(lp1181
sg161
g60
sg162
Nsg163
Nsg164
Nsbag2
(g3
g4
Ntp1182
Rp1183
(dp1184
g8
g11
sg142
Nsg143
(dp1185
sg145
Nsg26
g29
sg146
(lp1186
I5
aI1
asg148
Nsg149
VJudges 5:1
p1187
sg151
(lp1188
sg153
g104
sg154
Nsg155
(lp1189
I5
aI1
asg157
Nsg158
g1187
sg159
(lp1190
sg161
g60
sg162
Nsg163
Nsg164
Nsbag2
(g3
g4
Ntp1191
Rp1192
(dp1193
g8
g11
sg142
Nsg143
(dp1194
sg145
Nsg26
g29
sg146
(lp1195
I5
aI2
asg148
Nsg149
VJudges 5:2
p1196
sg151
(lp1197
sg153
g104
sg154
Nsg155
(lp1198
I5
aI2
asg157
Nsg158
g1196
sg159
(lp1199
sg161
g60
sg162
Nsg163
Nsg164
Nsbag2
(g3
g4
Ntp1200
Rp1201
(dp1202
g8
g11
sg142
Nsg143
(dp1203
sg145
Nsg26
g29
sg146
(lp1204
I5
aI3
asg148
Nsg149
VJudges 5:3
p1205
sg151
(lp1206
sg153
g104
sg154
Nsg155
(lp1207
I5
aI3
asg157
Nsg158
g1205
sg159
(lp1208
sg161
g60
sg162
Nsg163
Nsg164
Nsbag2
(g3
g4
Ntp1209
Rp1210
(dp1211
g8
g11
sg142
Nsg143
(dp1212
sg145
Nsg26
g29
sg146
(lp1213
I5
aI4
asg148
Nsg149
VJudges 5:4
p1214
sg151
(lp1215
sg153
g104
sg154
Nsg155
(lp1216
I5
aI4
asg157
Nsg158
g1214
sg159
(lp1217
sg161
g60
sg162
Nsg163
Nsg164
Nsbag2
(g3
g4
Ntp1218
Rp1219
(dp1220
g8
g11
sg142
Nsg143
(dp1221
sg145
Nsg26
g29
sg146
(lp1222
I5
aI5
asg148
Nsg149
VJudges 5:5
p1223
sg151
(lp1224
sg153
g104
sg154
Nsg155
(lp1225
I5
aI5
asg157
Nsg158
g1223
sg159
(lp1226
sg161
g60
sg162
Nsg163
Nsg164
Nsbag2
(g3
g4
Ntp1227
Rp1228
(dp1229
g8
g11
sg142
Nsg143
(dp1230
sg145
Nsg26
g29
sg146
(lp1231
I5
aI6
asg148
Nsg149
VJudges 5:6
p1232
sg151
(lp1233
sg153
g104
sg154
Nsg155
(lp1234
I5
aI6
asg157
Nsg158
g1232
sg159
(lp1235
sg161
g60
sg162
Nsg163
Nsg164
Nsbag2
(g3
g4
Ntp1236
Rp1237
(dp1238
g8
g11
sg142
Nsg143
(dp1239
sg145
Nsg26
g29
sg146
(lp1240
I5
aI7
asg148
Nsg149
VJudges 5:7
p1241
sg151
(lp1242
sg153
g104
sg154
Nsg155
(lp1243
I5
aI7
asg157
Nsg158
g1241
sg159
(lp1244
sg161
g60
sg162
Nsg163
Nsg164
Nsbag2
(g3
g4
Ntp1245
Rp1246
(dp1247
g8
g11
sg142
Nsg143
(dp1248
sg145
Nsg26
g29
sg146
(lp1249
I5
aI8
asg148
Nsg149
VJudges 5:8
p1250
sg151
(lp1251
sg153
g104
sg154
Nsg155
(lp1252
I5
aI8
asg157
Nsg158
g1250
sg159
(lp1253
sg161
g60
sg162
Nsg163
Nsg164
Nsbag2
(g3
g4
Ntp1254
Rp1255
(dp1256
g8
g11
sg142
Nsg143
(dp1257
sg145
Nsg26
g29
sg146
(lp1258
I5
aI9
asg148
Nsg149
VJudges 5:9
p1259
sg151
(lp1260
sg153
g104
sg154
Nsg155
(lp1261
I5
aI9
asg157
Nsg158
g1259
sg159
(lp1262
sg161
g60
sg162
Nsg163
Nsg164
Nsbag2
(g3
g4
Ntp1263
Rp1264
(dp1265
g8
g11
sg142
Nsg143
(dp1266
sg145
Nsg26
g29
sg146
(lp1267
I5
aI10
asg148
Nsg149
VJudges 5:10
p1268
sg151
(lp1269
sg153
g104
sg154
Nsg155
(lp1270
I5
aI10
asg157
Nsg158
g1268
sg159
(lp1271
sg161
g60
sg162
Nsg163
Nsg164
Nsbag2
(g3
g4
Ntp1272
Rp1273
(dp1274
g8
g11
sg142
Nsg143
(dp1275
sg145
Nsg26
g29
sg146
(lp1276
I5
aI11
asg148
Nsg149
VJudges 5:11
p1277
sg151
(lp1278
sg153
g104
sg154
Nsg155
(lp1279
I5
aI11
asg157
Nsg158
g1277
sg159
(lp1280
sg161
g60
sg162
Nsg163
Nsg164
Nsbag2
(g3
g4
Ntp1281
Rp1282
(dp1283
g8
g11
sg142
Nsg143
(dp1284
sg145
Nsg26
g29
sg146
(lp1285
I5
aI12
asg148
Nsg149
VJudges 5:12
p1286
sg151
(lp1287
sg153
g104
sg154
Nsg155
(lp1288
I5
aI12
asg157
Nsg158
g1286
sg159
(lp1289
sg161
g60
sg162
Nsg163
Nsg164
Nsbag2
(g3
g4
Ntp1290
Rp1291
(dp1292
g8
g11
sg142
Nsg143
(dp1293
sg145
Nsg26
g29
sg146
(lp1294
I5
aI13
asg148
Nsg149
VJudges 5:13
p1295
sg151
(lp1296
sg153
g104
sg154
Nsg155
(lp1297
I5
aI13
asg157
Nsg158
g1295
sg159
(lp1298
sg161
g60
sg162
Nsg163
Nsg164
Nsbag2
(g3
g4
Ntp1299
Rp1300
(dp1301
g8
g11
sg142
Nsg143
(dp1302
sg145
Nsg26
g29
sg146
(lp1303
I5
aI14
asg148
Nsg149
VJudges 5:14
p1304
sg151
(lp1305
sg153
g104
sg154
Nsg155
(lp1306
I5
aI14
asg157
Nsg158
g1304
sg159
(lp1307
sg161
g60
sg162
Nsg163
Nsg164
Nsbag2
(g3
g4
Ntp1308
Rp1309
(dp1310
g8
g11
sg142
Nsg143
(dp1311
sg145
Nsg26
g29
sg146
(lp1312
I5
aI15
asg148
Nsg149
VJudges 5:15
p1313
sg151
(lp1314
sg153
g104
sg154
Nsg155
(lp1315
I5
aI15
asg157
Nsg158
g1313
sg159
(lp1316
sg161
g60
sg162
Nsg163
Nsg164
Nsbag2
(g3
g4
Ntp1317
Rp1318
(dp1319
g8
g11
sg142
Nsg143
(dp1320
sg145
Nsg26
g29
sg146
(lp1321
I5
aI16
asg148
Nsg149
VJudges 5:16
p1322
sg151
(lp1323
sg153
g104
sg154
Nsg155
(lp1324
I5
aI16
asg157
Nsg158
g1322
sg159
(lp1325
sg161
g60
sg162
Nsg163
Nsg164
Nsbag2
(g3
g4
Ntp1326
Rp1327
(dp1328
g8
g11
sg142
Nsg143
(dp1329
sg145
Nsg26
g29
sg146
(lp1330
I5
aI17
asg148
Nsg149
VJudges 5:17
p1331
sg151
(lp1332
sg153
g104
sg154
Nsg155
(lp1333
I5
aI17
asg157
Nsg158
g1331
sg159
(lp1334
sg161
g60
sg162
Nsg163
Nsg164
Nsbag2
(g3
g4
Ntp1335
Rp1336
(dp1337
g8
g11
sg142
Nsg143
(dp1338
sg145
Nsg26
g29
sg146
(lp1339
I5
aI18
asg148
Nsg149
VJudges 5:18
p1340
sg151
(lp1341
sg153
g104
sg154
Nsg155
(lp1342
I5
aI18
asg157
Nsg158
g1340
sg159
(lp1343
sg161
g60
sg162
Nsg163
Nsg164
Nsbag2
(g3
g4
Ntp1344
Rp1345
(dp1346
g8
g11
sg142
Nsg143
(dp1347
sg145
Nsg26
g29
sg146
(lp1348
I5
aI19
asg148
Nsg149
VJudges 5:19
p1349
sg151
(lp1350
sg153
g104
sg154
Nsg155
(lp1351
I5
aI19
asg157
Nsg158
g1349
sg159
(lp1352
sg161
g60
sg162
Nsg163
Nsg164
Nsbag2
(g3
g4
Ntp1353
Rp1354
(dp1355
g8
g11
sg142
Nsg143
(dp1356
sg145
Nsg26
g29
sg146
(lp1357
I5
aI20
asg148
Nsg149
VJudges 5:20
p1358
sg151
(lp1359
sg153
g104
sg154
Nsg155
(lp1360
I5
aI20
asg157
Nsg158
g1358
sg159
(lp1361
sg161
g60
sg162
Nsg163
Nsg164
Nsbag2
(g3
g4
Ntp1362
Rp1363
(dp1364
g8
g11
sg142
Nsg143
(dp1365
sg145
Nsg26
g29
sg146
(lp1366
I5
aI21
asg148
Nsg149
VJudges 5:21
p1367
sg151
(lp1368
sg153
g104
sg154
Nsg155
(lp1369
I5
aI21
asg157
Nsg158
g1367
sg159
(lp1370
sg161
g60
sg162
Nsg163
Nsg164
Nsbag2
(g3
g4
Ntp1371
Rp1372
(dp1373
g8
g11
sg142
Nsg143
(dp1374
sg145
Nsg26
g29
sg146
(lp1375
I5
aI22
asg148
Nsg149
VJudges 5:22
p1376
sg151
(lp1377
sg153
g104
sg154
Nsg155
(lp1378
I5
aI22
asg157
Nsg158
g1376
sg159
(lp1379
sg161
g60
sg162
Nsg163
Nsg164
Nsbag2
(g3
g4
Ntp1380
Rp1381
(dp1382
g8
g11
sg142
Nsg143
(dp1383
sg145
Nsg26
g29
sg146
(lp1384
I5
aI23
asg148
Nsg149
VJudges 5:23
p1385
sg151
(lp1386
sg153
g104
sg154
Nsg155
(lp1387
I5
aI23
asg157
Nsg158
g1385
sg159
(lp1388
sg161
g60
sg162
Nsg163
Nsg164
Nsbag2
(g3
g4
Ntp1389
Rp1390
(dp1391
g8
g11
sg142
Nsg143
(dp1392
sg145
Nsg26
g29
sg146
(lp1393
I5
aI24
asg148
Nsg149
VJudges 5:24
p1394
sg151
(lp1395
sg153
g104
sg154
Nsg155
(lp1396
I5
aI24
asg157
Nsg158
g1394
sg159
(lp1397
sg161
g60
sg162
Nsg163
Nsg164
Nsbag2
(g3
g4
Ntp1398
Rp1399
(dp1400
g8
g11
sg142
Nsg143
(dp1401
sg145
Nsg26
g29
sg146
(lp1402
I5
aI25
asg148
Nsg149
VJudges 5:25
p1403
sg151
(lp1404
sg153
g104
sg154
Nsg155
(lp1405
I5
aI25
asg157
Nsg158
g1403
sg159
(lp1406
sg161
g60
sg162
Nsg163
Nsg164
Nsbag2
(g3
g4
Ntp1407
Rp1408
(dp1409
g8
g11
sg142
Nsg143
(dp1410
sg145
Nsg26
g29
sg146
(lp1411
I5
aI26
asg148
Nsg149
VJudges 5:26
p1412
sg151
(lp1413
sg153
g104
sg154
Nsg155
(lp1414
I5
aI26
asg157
Nsg158
g1412
sg159
(lp1415
sg161
g60
sg162
Nsg163
Nsg164
Nsbag2
(g3
g4
Ntp1416
Rp1417
(dp1418
g8
g11
sg142
Nsg143
(dp1419
sg145
Nsg26
g29
sg146
(lp1420
I5
aI27
asg148
Nsg149
VJudges 5:27
p1421
sg151
(lp1422
sg153
g104
sg154
Nsg155
(lp1423
I5
aI27
asg157
Nsg158
g1421
sg159
(lp1424
sg161
g60
sg162
Nsg163
Nsg164
Nsbag2
(g3
g4
Ntp1425
Rp1426
(dp1427
g8
g11
sg142
Nsg143
(dp1428
sg145
Nsg26
g29
sg146
(lp1429
I5
aI28
asg148
Nsg149
VJudges 5:28
p1430
sg151
(lp1431
sg153
g104
sg154
Nsg155
(lp1432
I5
aI28
asg157
Nsg158
g1430
sg159
(lp1433
sg161
g60
sg162
Nsg163
Nsg164
Nsbag2
(g3
g4
Ntp1434
Rp1435
(dp1436
g8
g11
sg142
Nsg143
(dp1437
sg145
Nsg26
g29
sg146
(lp1438
I5
aI29
asg148
Nsg149
VJudges 5:29
p1439
sg151
(lp1440
sg153
g104
sg154
Nsg155
(lp1441
I5
aI29
asg157
Nsg158
g1439
sg159
(lp1442
sg161
g60
sg162
Nsg163
Nsg164
Nsbag2
(g3
g4
Ntp1443
Rp1444
(dp1445
g8
g11
sg142
Nsg143
(dp1446
sg145
Nsg26
g29
sg146
(lp1447
I5
aI30
asg148
Nsg149
VJudges 5:30
p1448
sg151
(lp1449
sg153
g104
sg154
Nsg155
(lp1450
I5
aI30
asg157
Nsg158
g1448
sg159
(lp1451
sg161
g60
sg162
Nsg163
Nsg164
Nsbag2
(g3
g4
Ntp1452
Rp1453
(dp1454
g8
g11
sg142
Nsg143
(dp1455
sg145
Nsg26
g29
sg146
(lp1456
I5
aI31
asg148
Nsg149
VJudges 5:31
p1457
sg151
(lp1458
sg153
g104
sg154
Nsg155
(lp1459
I5
aI31
asg157
Nsg158
g1457
sg159
(lp1460
sg161
g60
sg162
Nsg163
Nsg164
Nsbag2
(g3
g4
Ntp1461
Rp1462
(dp1463
g8
g11
sg142
Nsg143
(dp1464
sg145
Nsg26
g29
sg146
(lp1465
I6
aI1
asg148
Nsg149
VJudges 6:1
p1466
sg151
(lp1467
sg153
g104
sg154
Nsg155
(lp1468
I6
aI1
asg157
Nsg158
g1466
sg159
(lp1469
sg161
g60
sg162
Nsg163
Nsg164
Nsbag2
(g3
g4
Ntp1470
Rp1471
(dp1472
g8
g11
sg142
Nsg143
(dp1473
sg145
Nsg26
g29
sg146
(lp1474
I6
aI2
asg148
Nsg149
VJudges 6:2
p1475
sg151
(lp1476
sg153
g104
sg154
Nsg155
(lp1477
I6
aI2
asg157
Nsg158
g1475
sg159
(lp1478
sg161
g60
sg162
Nsg163
Nsg164
Nsbag2
(g3
g4
Ntp1479
Rp1480
(dp1481
g8
g11
sg142
Nsg143
(dp1482
sg145
Nsg26
g29
sg146
(lp1483
I6
aI3
asg148
Nsg149
VJudges 6:3
p1484
sg151
(lp1485
sg153
g104
sg154
Nsg155
(lp1486
I6
aI3
asg157
Nsg158
g1484
sg159
(lp1487
sg161
g60
sg162
Nsg163
Nsg164
Nsbag2
(g3
g4
Ntp1488
Rp1489
(dp1490
g8
g11
sg142
Nsg143
(dp1491
sg145
Nsg26
g29
sg146
(lp1492
I6
aI4
asg148
Nsg149
VJudges 6:4
p1493
sg151
(lp1494
sg153
g104
sg154
Nsg155
(lp1495
I6
aI4
asg157
Nsg158
g1493
sg159
(lp1496
sg161
g60
sg162
Nsg163
Nsg164
Nsbag2
(g3
g4
Ntp1497
Rp1498
(dp1499
g8
g11
sg142
Nsg143
(dp1500
sg145
Nsg26
g29
sg146
(lp1501
I6
aI5
asg148
Nsg149
VJudges 6:5
p1502
sg151
(lp1503
sg153
g104
sg154
Nsg155
(lp1504
I6
aI5
asg157
Nsg158
g1502
sg159
(lp1505
sg161
g60
sg162
Nsg163
Nsg164
Nsbag2
(g3
g4
Ntp1506
Rp1507
(dp1508
g8
g11
sg142
Nsg143
(dp1509
sg145
Nsg26
g29
sg146
(lp1510
I6
aI6
asg148
Nsg149
VJudges 6:6
p1511
sg151
(lp1512
sg153
g104
sg154
Nsg155
(lp1513
I6
aI6
asg157
Nsg158
g1511
sg159
(lp1514
sg161
g60
sg162
Nsg163
Nsg164
Nsbag2
(g3
g4
Ntp1515
Rp1516
(dp1517
g8
g11
sg142
Nsg143
(dp1518
sg145
Nsg26
g29
sg146
(lp1519
I6
aI7
asg148
Nsg149
VJudges 6:7
p1520
sg151
(lp1521
sg153
g104
sg154
Nsg155
(lp1522
I6
aI7
asg157
Nsg158
g1520
sg159
(lp1523
sg161
g60
sg162
Nsg163
Nsg164
Nsbag2
(g3
g4
Ntp1524
Rp1525
(dp1526
g8
g11
sg142
Nsg143
(dp1527
sg145
Nsg26
g29
sg146
(lp1528
I6
aI8
asg148
Nsg149
VJudges 6:8
p1529
sg151
(lp1530
sg153
g104
sg154
Nsg155
(lp1531
I6
aI8
asg157
Nsg158
g1529
sg159
(lp1532
sg161
g60
sg162
Nsg163
Nsg164
Nsbag2
(g3
g4
Ntp1533
Rp1534
(dp1535
g8
g11
sg142
Nsg143
(dp1536
sg145
Nsg26
g29
sg146
(lp1537
I6
aI9
asg148
Nsg149
VJudges 6:9
p1538
sg151
(lp1539
sg153
g104
sg154
Nsg155
(lp1540
I6
aI9
asg157
Nsg158
g1538
sg159
(lp1541
sg161
g60
sg162
Nsg163
Nsg164
Nsbag2
(g3
g4
Ntp1542
Rp1543
(dp1544
g8
g11
sg142
Nsg143
(dp1545
sg145
Nsg26
g29
sg146
(lp1546
I6
aI10
asg148
Nsg149
VJudges 6:10
p1547
sg151
(lp1548
sg153
g104
sg154
Nsg155
(lp1549
I6
aI10
asg157
Nsg158
g1547
sg159
(lp1550
sg161
g60
sg162
Nsg163
Nsg164
Nsbag2
(g3
g4
Ntp1551
Rp1552
(dp1553
g8
g11
sg142
Nsg143
(dp1554
sg145
Nsg26
g29
sg146
(lp1555
I6
aI11
asg148
Nsg149
VJudges 6:11
p1556
sg151
(lp1557
sg153
g104
sg154
Nsg155
(lp1558
I6
aI11
asg157
Nsg158
g1556
sg159
(lp1559
sg161
g60
sg162
Nsg163
Nsg164
Nsbag2
(g3
g4
Ntp1560
Rp1561
(dp1562
g8
g11
sg142
Nsg143
(dp1563
sg145
Nsg26
g29
sg146
(lp1564
I6
aI12
asg148
Nsg149
VJudges 6:12
p1565
sg151
(lp1566
sg153
g104
sg154
Nsg155
(lp1567
I6
aI12
asg157
Nsg158
g1565
sg159
(lp1568
sg161
g60
sg162
Nsg163
Nsg164
Nsbag2
(g3
g4
Ntp1569
Rp1570
(dp1571
g8
g11
sg142
Nsg143
(dp1572
sg145
Nsg26
g29
sg146
(lp1573
I6
aI13
asg148
Nsg149
VJudges 6:13
p1574
sg151
(lp1575
sg153
g104
sg154
Nsg155
(lp1576
I6
aI13
asg157
Nsg158
g1574
sg159
(lp1577
sg161
g60
sg162
Nsg163
Nsg164
Nsbag2
(g3
g4
Ntp1578
Rp1579
(dp1580
g8
g11
sg142
Nsg143
(dp1581
sg145
Nsg26
g29
sg146
(lp1582
I6
aI14
asg148
Nsg149
VJudges 6:14
p1583
sg151
(lp1584
sg153
g104
sg154
Nsg155
(lp1585
I6
aI14
asg157
Nsg158
g1583
sg159
(lp1586
sg161
g60
sg162
Nsg163
Nsg164
Nsbag2
(g3
g4
Ntp1587
Rp1588
(dp1589
g8
g11
sg142
Nsg143
(dp1590
sg145
Nsg26
g29
sg146
(lp1591
I6
aI15
asg148
Nsg149
VJudges 6:15
p1592
sg151
(lp1593
sg153
g104
sg154
Nsg155
(lp1594
I6
aI15
asg157
Nsg158
g1592
sg159
(lp1595
sg161
g60
sg162
Nsg163
Nsg164
Nsbag2
(g3
g4
Ntp1596
Rp1597
(dp1598
g8
g11
sg142
Nsg143
(dp1599
sg145
Nsg26
g29
sg146
(lp1600
I6
aI16
asg148
Nsg149
VJudges 6:16
p1601
sg151
(lp1602
sg153
g104
sg154
Nsg155
(lp1603
I6
aI16
asg157
Nsg158
g1601
sg159
(lp1604
sg161
g60
sg162
Nsg163
Nsg164
Nsbag2
(g3
g4
Ntp1605
Rp1606
(dp1607
g8
g11
sg142
Nsg143
(dp1608
sg145
Nsg26
g29
sg146
(lp1609
I6
aI17
asg148
Nsg149
VJudges 6:17
p1610
sg151
(lp1611
sg153
g104
sg154
Nsg155
(lp1612
I6
aI17
asg157
Nsg158
g1610
sg159
(lp1613
sg161
g60
sg162
Nsg163
Nsg164
Nsbag2
(g3
g4
Ntp1614
Rp1615
(dp1616
g8
g11
sg142
Nsg143
(dp1617
sg145
Nsg26
g29
sg146
(lp1618
I6
aI18
asg148
Nsg149
VJudges 6:18
p1619
sg151
(lp1620
sg153
g104
sg154
Nsg155
(lp1621
I6
aI18
asg157
Nsg158
g1619
sg159
(lp1622
sg161
g60
sg162
Nsg163
Nsg164
Nsbag2
(g3
g4
Ntp1623
Rp1624
(dp1625
g8
g11
sg142
Nsg143
(dp1626
sg145
Nsg26
g29
sg146
(lp1627
I6
aI19
asg148
Nsg149
VJudges 6:19
p1628
sg151
(lp1629
sg153
g104
sg154
Nsg155
(lp1630
I6
aI19
asg157
Nsg158
g1628
sg159
(lp1631
sg161
g60
sg162
Nsg163
Nsg164
Nsbag2
(g3
g4
Ntp1632
Rp1633
(dp1634
g8
g11
sg142
Nsg143
(dp1635
sg145
Nsg26
g29
sg146
(lp1636
I6
aI20
asg148
Nsg149
VJudges 6:20
p1637
sg151
(lp1638
sg153
g104
sg154
Nsg155
(lp1639
I6
aI20
asg157
Nsg158
g1637
sg159
(lp1640
sg161
g60
sg162
Nsg163
Nsg164
Nsbag2
(g3
g4
Ntp1641
Rp1642
(dp1643
g8
g11
sg142
Nsg143
(dp1644
sg145
Nsg26
g29
sg146
(lp1645
I6
aI21
asg148
Nsg149
VJudges 6:21
p1646
sg151
(lp1647
sg153
g104
sg154
Nsg155
(lp1648
I6
aI21
asg157
Nsg158
g1646
sg159
(lp1649
sg161
g60
sg162
Nsg163
Nsg164
Nsbag2
(g3
g4
Ntp1650
Rp1651
(dp1652
g8
g11
sg142
Nsg143
(dp1653
sg145
Nsg26
g29
sg146
(lp1654
I6
aI22
asg148
Nsg149
VJudges 6:22
p1655
sg151
(lp1656
sg153
g104
sg154
Nsg155
(lp1657
I6
aI22
asg157
Nsg158
g1655
sg159
(lp1658
sg161
g60
sg162
Nsg163
Nsg164
Nsbag2
(g3
g4
Ntp1659
Rp1660
(dp1661
g8
g11
sg142
Nsg143
(dp1662
sg145
Nsg26
g29
sg146
(lp1663
I6
aI23
asg148
Nsg149
VJudges 6:23
p1664
sg151
(lp1665
sg153
g104
sg154
Nsg155
(lp1666
I6
aI23
asg157
Nsg158
g1664
sg159
(lp1667
sg161
g60
sg162
Nsg163
Nsg164
Nsbag2
(g3
g4
Ntp1668
Rp1669
(dp1670
g8
g11
sg142
Nsg143
(dp1671
sg145
Nsg26
g29
sg146
(lp1672
I6
aI24
asg148
Nsg149
VJudges 6:24
p1673
sg151
(lp1674
sg153
g104
sg154
Nsg155
(lp1675
I6
aI24
asg157
Nsg158
g1673
sg159
(lp1676
sg161
g60
sg162
Nsg163
Nsg164
Nsbag2
(g3
g4
Ntp1677
Rp1678
(dp1679
g8
g11
sg142
Nsg143
(dp1680
sg145
Nsg26
g29
sg146
(lp1681
I6
aI25
asg148
Nsg149
VJudges 6:25
p1682
sg151
(lp1683
sg153
g104
sg154
Nsg155
(lp1684
I6
aI25
asg157
Nsg158
g1682
sg159
(lp1685
sg161
g60
sg162
Nsg163
Nsg164
Nsbag2
(g3
g4
Ntp1686
Rp1687
(dp1688
g8
g11
sg142
Nsg143
(dp1689
sg145
Nsg26
g29
sg146
(lp1690
I6
aI26
asg148
Nsg149
VJudges 6:26
p1691
sg151
(lp1692
sg153
g104
sg154
Nsg155
(lp1693
I6
aI26
asg157
Nsg158
g1691
sg159
(lp1694
sg161
g60
sg162
Nsg163
Nsg164
Nsbag2
(g3
g4
Ntp1695
Rp1696
(dp1697
g8
g11
sg142
Nsg143
(dp1698
sg145
Nsg26
g29
sg146
(lp1699
I6
aI27
asg148
Nsg149
VJudges 6:27
p1700
sg151
(lp1701
sg153
g104
sg154
Nsg155
(lp1702
I6
aI27
asg157
Nsg158
g1700
sg159
(lp1703
sg161
g60
sg162
Nsg163
Nsg164
Nsbag2
(g3
g4
Ntp1704
Rp1705
(dp1706
g8
g11
sg142
Nsg143
(dp1707
sg145
Nsg26
g29
sg146
(lp1708
I6
aI28
asg148
Nsg149
VJudges 6:28
p1709
sg151
(lp1710
sg153
g104
sg154
Nsg155
(lp1711
I6
aI28
asg157
Nsg158
g1709
sg159
(lp1712
sg161
g60
sg162
Nsg163
Nsg164
Nsbag2
(g3
g4
Ntp1713
Rp1714
(dp1715
g8
g11
sg142
Nsg143
(dp1716
sg145
Nsg26
g29
sg146
(lp1717
I6
aI29
asg148
Nsg149
VJudges 6:29
p1718
sg151
(lp1719
sg153
g104
sg154
Nsg155
(lp1720
I6
aI29
asg157
Nsg158
g1718
sg159
(lp1721
sg161
g60
sg162
Nsg163
Nsg164
Nsbag2
(g3
g4
Ntp1722
Rp1723
(dp1724
g8
g11
sg142
Nsg143
(dp1725
sg145
Nsg26
g29
sg146
(lp1726
I6
aI30
asg148
Nsg149
VJudges 6:30
p1727
sg151
(lp1728
sg153
g104
sg154
Nsg155
(lp1729
I6
aI30
asg157
Nsg158
g1727
sg159
(lp1730
sg161
g60
sg162
Nsg163
Nsg164
Nsbag2
(g3
g4
Ntp1731
Rp1732
(dp1733
g8
g11
sg142
Nsg143
(dp1734
sg145
Nsg26
g29
sg146
(lp1735
I6
aI31
asg148
Nsg149
VJudges 6:31
p1736
sg151
(lp1737
sg153
g104
sg154
Nsg155
(lp1738
I6
aI31
asg157
Nsg158
g1736
sg159
(lp1739
sg161
g60
sg162
Nsg163
Nsg164
Nsbag2
(g3
g4
Ntp1740
Rp1741
(dp1742
g8
g11
sg142
Nsg143
(dp1743
sg145
Nsg26
g29
sg146
(lp1744
I6
aI32
asg148
Nsg149
VJudges 6:32
p1745
sg151
(lp1746
sg153
g104
sg154
Nsg155
(lp1747
I6
aI32
asg157
Nsg158
g1745
sg159
(lp1748
sg161
g60
sg162
Nsg163
Nsg164
Nsbag2
(g3
g4
Ntp1749
Rp1750
(dp1751
g8
g11
sg142
Nsg143
(dp1752
sg145
Nsg26
g29
sg146
(lp1753
I6
aI33
asg148
Nsg149
VJudges 6:33
p1754
sg151
(lp1755
sg153
g104
sg154
Nsg155
(lp1756
I6
aI33
asg157
Nsg158
g1754
sg159
(lp1757
sg161
g60
sg162
Nsg163
Nsg164
Nsbag2
(g3
g4
Ntp1758
Rp1759
(dp1760
g8
g11
sg142
Nsg143
(dp1761
sg145
Nsg26
g29
sg146
(lp1762
I6
aI34
asg148
Nsg149
VJudges 6:34
p1763
sg151
(lp1764
sg153
g104
sg154
Nsg155
(lp1765
I6
aI34
asg157
Nsg158
g1763
sg159
(lp1766
sg161
g60
sg162
Nsg163
Nsg164
Nsbag2
(g3
g4
Ntp1767
Rp1768
(dp1769
g8
g11
sg142
Nsg143
(dp1770
sg145
Nsg26
g29
sg146
(lp1771
I6
aI35
asg148
Nsg149
VJudges 6:35
p1772
sg151
(lp1773
sg153
g104
sg154
Nsg155
(lp1774
I6
aI35
asg157
Nsg158
g1772
sg159
(lp1775
sg161
g60
sg162
Nsg163
Nsg164
Nsbag2
(g3
g4
Ntp1776
Rp1777
(dp1778
g8
g11
sg142
Nsg143
(dp1779
sg145
Nsg26
g29
sg146
(lp1780
I6
aI36
asg148
Nsg149
VJudges 6:36
p1781
sg151
(lp1782
sg153
g104
sg154
Nsg155
(lp1783
I6
aI36
asg157
Nsg158
g1781
sg159
(lp1784
sg161
g60
sg162
Nsg163
Nsg164
Nsbag2
(g3
g4
Ntp1785
Rp1786
(dp1787
g8
g11
sg142
Nsg143
(dp1788
sg145
Nsg26
g29
sg146
(lp1789
I6
aI37
asg148
Nsg149
VJudges 6:37
p1790
sg151
(lp1791
sg153
g104
sg154
Nsg155
(lp1792
I6
aI37
asg157
Nsg158
g1790
sg159
(lp1793
sg161
g60
sg162
Nsg163
Nsg164
Nsbag2
(g3
g4
Ntp1794
Rp1795
(dp1796
g8
g11
sg142
Nsg143
(dp1797
sg145
Nsg26
g29
sg146
(lp1798
I6
aI38
asg148
Nsg149
VJudges 6:38
p1799
sg151
(lp1800
sg153
g104
sg154
Nsg155
(lp1801
I6
aI38
asg157
Nsg158
g1799
sg159
(lp1802
sg161
g60
sg162
Nsg163
Nsg164
Nsbag2
(g3
g4
Ntp1803
Rp1804
(dp1805
g8
g11
sg142
Nsg143
(dp1806
sg145
Nsg26
g29
sg146
(lp1807
I6
aI39
asg148
Nsg149
VJudges 6:39
p1808
sg151
(lp1809
sg153
g104
sg154
Nsg155
(lp1810
I6
aI39
asg157
Nsg158
g1808
sg159
(lp1811
sg161
g60
sg162
Nsg163
Nsg164
Nsbag2
(g3
g4
Ntp1812
Rp1813
(dp1814
g8
g11
sg142
Nsg143
(dp1815
sg145
Nsg26
g29
sg146
(lp1816
I6
aI40
asg148
Nsg149
VJudges 6:40
p1817
sg151
(lp1818
sg153
g104
sg154
Nsg155
(lp1819
I6
aI40
asg157
Nsg158
g1817
sg159
(lp1820
sg161
g60
sg162
Nsg163
Nsg164
Nsbag2
(g3
g4
Ntp1821
Rp1822
(dp1823
g8
g11
sg142
Nsg143
(dp1824
sg145
Nsg26
g29
sg146
(lp1825
I7
aI1
asg148
Nsg149
VJudges 7:1
p1826
sg151
(lp1827
sg153
g104
sg154
Nsg155
(lp1828
I7
aI1
asg157
Nsg158
g1826
sg159
(lp1829
sg161
g60
sg162
Nsg163
Nsg164
Nsbag2
(g3
g4
Ntp1830
Rp1831
(dp1832
g8
g11
sg142
Nsg143
(dp1833
sg145
Nsg26
g29
sg146
(lp1834
I7
aI2
asg148
Nsg149
VJudges 7:2
p1835
sg151
(lp1836
sg153
g104
sg154
Nsg155
(lp1837
I7
aI2
asg157
Nsg158
g1835
sg159
(lp1838
sg161
g60
sg162
Nsg163
Nsg164
Nsbag2
(g3
g4
Ntp1839
Rp1840
(dp1841
g8
g11
sg142
Nsg143
(dp1842
sg145
Nsg26
g29
sg146
(lp1843
I7
aI3
asg148
Nsg149
VJudges 7:3
p1844
sg151
(lp1845
sg153
g104
sg154
Nsg155
(lp1846
I7
aI3
asg157
Nsg158
g1844
sg159
(lp1847
sg161
g60
sg162
Nsg163
Nsg164
Nsbag2
(g3
g4
Ntp1848
Rp1849
(dp1850
g8
g11
sg142
Nsg143
(dp1851
sg145
Nsg26
g29
sg146
(lp1852
I7
aI4
asg148
Nsg149
VJudges 7:4
p1853
sg151
(lp1854
sg153
g104
sg154
Nsg155
(lp1855
I7
aI4
asg157
Nsg158
g1853
sg159
(lp1856
sg161
g60
sg162
Nsg163
Nsg164
Nsbag2
(g3
g4
Ntp1857
Rp1858
(dp1859
g8
g11
sg142
Nsg143
(dp1860
sg145
Nsg26
g29
sg146
(lp1861
I7
aI5
asg148
Nsg149
VJudges 7:5
p1862
sg151
(lp1863
sg153
g104
sg154
Nsg155
(lp1864
I7
aI5
asg157
Nsg158
g1862
sg159
(lp1865
sg161
g60
sg162
Nsg163
Nsg164
Nsbag2
(g3
g4
Ntp1866
Rp1867
(dp1868
g8
g11
sg142
Nsg143
(dp1869
sg145
Nsg26
g29
sg146
(lp1870
I7
aI6
asg148
Nsg149
VJudges 7:6
p1871
sg151
(lp1872
sg153
g104
sg154
Nsg155
(lp1873
I7
aI6
asg157
Nsg158
g1871
sg159
(lp1874
sg161
g60
sg162
Nsg163
Nsg164
Nsbag2
(g3
g4
Ntp1875
Rp1876
(dp1877
g8
g11
sg142
Nsg143
(dp1878
sg145
Nsg26
g29
sg146
(lp1879
I7
aI7
asg148
Nsg149
VJudges 7:7
p1880
sg151
(lp1881
sg153
g104
sg154
Nsg155
(lp1882
I7
aI7
asg157
Nsg158
g1880
sg159
(lp1883
sg161
g60
sg162
Nsg163
Nsg164
Nsbag2
(g3
g4
Ntp1884
Rp1885
(dp1886
g8
g11
sg142
Nsg143
(dp1887
sg145
Nsg26
g29
sg146
(lp1888
I7
aI8
asg148
Nsg149
VJudges 7:8
p1889
sg151
(lp1890
sg153
g104
sg154
Nsg155
(lp1891
I7
aI8
asg157
Nsg158
g1889
sg159
(lp1892
sg161
g60
sg162
Nsg163
Nsg164
Nsbag2
(g3
g4
Ntp1893
Rp1894
(dp1895
g8
g11
sg142
Nsg143
(dp1896
sg145
Nsg26
g29
sg146
(lp1897
I7
aI9
asg148
Nsg149
VJudges 7:9
p1898
sg151
(lp1899
sg153
g104
sg154
Nsg155
(lp1900
I7
aI9
asg157
Nsg158
g1898
sg159
(lp1901
sg161
g60
sg162
Nsg163
Nsg164
Nsbag2
(g3
g4
Ntp1902
Rp1903
(dp1904
g8
g11
sg142
Nsg143
(dp1905
sg145
Nsg26
g29
sg146
(lp1906
I7
aI10
asg148
Nsg149
VJudges 7:10
p1907
sg151
(lp1908
sg153
g104
sg154
Nsg155
(lp1909
I7
aI10
asg157
Nsg158
g1907
sg159
(lp1910
sg161
g60
sg162
Nsg163
Nsg164
Nsbag2
(g3
g4
Ntp1911
Rp1912
(dp1913
g8
g11
sg142
Nsg143
(dp1914
sg145
Nsg26
g29
sg146
(lp1915
I7
aI11
asg148
Nsg149
VJudges 7:11
p1916
sg151
(lp1917
sg153
g104
sg154
Nsg155
(lp1918
I7
aI11
asg157
Nsg158
g1916
sg159
(lp1919
sg161
g60
sg162
Nsg163
Nsg164
Nsbag2
(g3
g4
Ntp1920
Rp1921
(dp1922
g8
g11
sg142
Nsg143
(dp1923
sg145
Nsg26
g29
sg146
(lp1924
I7
aI12
asg148
Nsg149
VJudges 7:12
p1925
sg151
(lp1926
sg153
g104
sg154
Nsg155
(lp1927
I7
aI12
asg157
Nsg158
g1925
sg159
(lp1928
sg161
g60
sg162
Nsg163
Nsg164
Nsbag2
(g3
g4
Ntp1929
Rp1930
(dp1931
g8
g11
sg142
Nsg143
(dp1932
sg145
Nsg26
g29
sg146
(lp1933
I7
aI13
asg148
Nsg149
VJudges 7:13
p1934
sg151
(lp1935
sg153
g104
sg154
Nsg155
(lp1936
I7
aI13
asg157
Nsg158
g1934
sg159
(lp1937
sg161
g60
sg162
Nsg163
Nsg164
Nsbag2
(g3
g4
Ntp1938
Rp1939
(dp1940
g8
g11
sg142
Nsg143
(dp1941
sg145
Nsg26
g29
sg146
(lp1942
I7
aI14
asg148
Nsg149
VJudges 7:14
p1943
sg151
(lp1944
sg153
g104
sg154
Nsg155
(lp1945
I7
aI14
asg157
Nsg158
g1943
sg159
(lp1946
sg161
g60
sg162
Nsg163
Nsg164
Nsbag2
(g3
g4
Ntp1947
Rp1948
(dp1949
g8
g11
sg142
Nsg143
(dp1950
sg145
Nsg26
g29
sg146
(lp1951
I7
aI15
asg148
Nsg149
VJudges 7:15
p1952
sg151
(lp1953
sg153
g104
sg154
Nsg155
(lp1954
I7
aI15
asg157
Nsg158
g1952
sg159
(lp1955
sg161
g60
sg162
Nsg163
Nsg164
Nsbag2
(g3
g4
Ntp1956
Rp1957
(dp1958
g8
g11
sg142
Nsg143
(dp1959
sg145
Nsg26
g29
sg146
(lp1960
I7
aI16
asg148
Nsg149
VJudges 7:16
p1961
sg151
(lp1962
sg153
g104
sg154
Nsg155
(lp1963
I7
aI16
asg157
Nsg158
g1961
sg159
(lp1964
sg161
g60
sg162
Nsg163
Nsg164
Nsbag2
(g3
g4
Ntp1965
Rp1966
(dp1967
g8
g11
sg142
Nsg143
(dp1968
sg145
Nsg26
g29
sg146
(lp1969
I7
aI17
asg148
Nsg149
VJudges 7:17
p1970
sg151
(lp1971
sg153
g104
sg154
Nsg155
(lp1972
I7
aI17
asg157
Nsg158
g1970
sg159
(lp1973
sg161
g60
sg162
Nsg163
Nsg164
Nsbag2
(g3
g4
Ntp1974
Rp1975
(dp1976
g8
g11
sg142
Nsg143
(dp1977
sg145
Nsg26
g29
sg146
(lp1978
I7
aI18
asg148
Nsg149
VJudges 7:18
p1979
sg151
(lp1980
sg153
g104
sg154
Nsg155
(lp1981
I7
aI18
asg157
Nsg158
g1979
sg159
(lp1982
sg161
g60
sg162
Nsg163
Nsg164
Nsbag2
(g3
g4
Ntp1983
Rp1984
(dp1985
g8
g11
sg142
Nsg143
(dp1986
sg145
Nsg26
g29
sg146
(lp1987
I7
aI19
asg148
Nsg149
VJudges 7:19
p1988
sg151
(lp1989
sg153
g104
sg154
Nsg155
(lp1990
I7
aI19
asg157
Nsg158
g1988
sg159
(lp1991
sg161
g60
sg162
Nsg163
Nsg164
Nsbag2
(g3
g4
Ntp1992
Rp1993
(dp1994
g8
g11
sg142
Nsg143
(dp1995
sg145
Nsg26
g29
sg146
(lp1996
I7
aI20
asg148
Nsg149
VJudges 7:20
p1997
sg151
(lp1998
sg153
g104
sg154
Nsg155
(lp1999
I7
aI20
asg157
Nsg158
g1997
sg159
(lp2000
sg161
g60
sg162
Nsg163
Nsg164
Nsbag2
(g3
g4
Ntp2001
Rp2002
(dp2003
g8
g11
sg142
Nsg143
(dp2004
sg145
Nsg26
g29
sg146
(lp2005
I7
aI21
asg148
Nsg149
VJudges 7:21
p2006
sg151
(lp2007
sg153
g104
sg154
Nsg155
(lp2008
I7
aI21
asg157
Nsg158
g2006
sg159
(lp2009
sg161
g60
sg162
Nsg163
Nsg164
Nsbag2
(g3
g4
Ntp2010
Rp2011
(dp2012
g8
g11
sg142
Nsg143
(dp2013
sg145
Nsg26
g29
sg146
(lp2014
I7
aI22
asg148
Nsg149
VJudges 7:22
p2015
sg151
(lp2016
sg153
g104
sg154
Nsg155
(lp2017
I7
aI22
asg157
Nsg158
g2015
sg159
(lp2018
sg161
g60
sg162
Nsg163
Nsg164
Nsbag2
(g3
g4
Ntp2019
Rp2020
(dp2021
g8
g11
sg142
Nsg143
(dp2022
sg145
Nsg26
g29
sg146
(lp2023
I7
aI23
asg148
Nsg149
VJudges 7:23
p2024
sg151
(lp2025
sg153
g104
sg154
Nsg155
(lp2026
I7
aI23
asg157
Nsg158
g2024
sg159
(lp2027
sg161
g60
sg162
Nsg163
Nsg164
Nsbag2
(g3
g4
Ntp2028
Rp2029
(dp2030
g8
g11
sg142
Nsg143
(dp2031
sg145
Nsg26
g29
sg146
(lp2032
I7
aI24
asg148
Nsg149
VJudges 7:24
p2033
sg151
(lp2034
sg153
g104
sg154
Nsg155
(lp2035
I7
aI24
asg157
Nsg158
g2033
sg159
(lp2036
sg161
g60
sg162
Nsg163
Nsg164
Nsbag2
(g3
g4
Ntp2037
Rp2038
(dp2039
g8
g11
sg142
Nsg143
(dp2040
sg145
Nsg26
g29
sg146
(lp2041
I7
aI25
asg148
Nsg149
VJudges 7:25
p2042
sg151
(lp2043
sg153
g104
sg154
Nsg155
(lp2044
I7
aI25
asg157
Nsg158
g2042
sg159
(lp2045
sg161
g60
sg162
Nsg163
Nsg164
Nsbag2
(g3
g4
Ntp2046
Rp2047
(dp2048
g8
g11
sg142
Nsg143
(dp2049
sg145
Nsg26
g29
sg146
(lp2050
I8
aI1
asg148
Nsg149
VJudges 8:1
p2051
sg151
(lp2052
sg153
g104
sg154
Nsg155
(lp2053
I8
aI1
asg157
Nsg158
g2051
sg159
(lp2054
sg161
g60
sg162
Nsg163
Nsg164
Nsbag2
(g3
g4
Ntp2055
Rp2056
(dp2057
g8
g11
sg142
Nsg143
(dp2058
sg145
Nsg26
g29
sg146
(lp2059
I8
aI2
asg148
Nsg149
VJudges 8:2
p2060
sg151
(lp2061
sg153
g104
sg154
Nsg155
(lp2062
I8
aI2
asg157
Nsg158
g2060
sg159
(lp2063
sg161
g60
sg162
Nsg163
Nsg164
Nsbag2
(g3
g4
Ntp2064
Rp2065
(dp2066
g8
g11
sg142
Nsg143
(dp2067
sg145
Nsg26
g29
sg146
(lp2068
I8
aI3
asg148
Nsg149
VJudges 8:3
p2069
sg151
(lp2070
sg153
g104
sg154
Nsg155
(lp2071
I8
aI3
asg157
Nsg158
g2069
sg159
(lp2072
sg161
g60
sg162
Nsg163
Nsg164
Nsbag2
(g3
g4
Ntp2073
Rp2074
(dp2075
g8
g11
sg142
Nsg143
(dp2076
sg145
Nsg26
g29
sg146
(lp2077
I8
aI4
asg148
Nsg149
VJudges 8:4
p2078
sg151
(lp2079
sg153
g104
sg154
Nsg155
(lp2080
I8
aI4
asg157
Nsg158
g2078
sg159
(lp2081
sg161
g60
sg162
Nsg163
Nsg164
Nsbag2
(g3
g4
Ntp2082
Rp2083
(dp2084
g8
g11
sg142
Nsg143
(dp2085
sg145
Nsg26
g29
sg146
(lp2086
I8
aI5
asg148
Nsg149
VJudges 8:5
p2087
sg151
(lp2088
sg153
g104
sg154
Nsg155
(lp2089
I8
aI5
asg157
Nsg158
g2087
sg159
(lp2090
sg161
g60
sg162
Nsg163
Nsg164
Nsbag2
(g3
g4
Ntp2091
Rp2092
(dp2093
g8
g11
sg142
Nsg143
(dp2094
sg145
Nsg26
g29
sg146
(lp2095
I8
aI6
asg148
Nsg149
VJudges 8:6
p2096
sg151
(lp2097
sg153
g104
sg154
Nsg155
(lp2098
I8
aI6
asg157
Nsg158
g2096
sg159
(lp2099
sg161
g60
sg162
Nsg163
Nsg164
Nsbag2
(g3
g4
Ntp2100
Rp2101
(dp2102
g8
g11
sg142
Nsg143
(dp2103
sg145
Nsg26
g29
sg146
(lp2104
I8
aI7
asg148
Nsg149
VJudges 8:7
p2105
sg151
(lp2106
sg153
g104
sg154
Nsg155
(lp2107
I8
aI7
asg157
Nsg158
g2105
sg159
(lp2108
sg161
g60
sg162
Nsg163
Nsg164
Nsbag2
(g3
g4
Ntp2109
Rp2110
(dp2111
g8
g11
sg142
Nsg143
(dp2112
sg145
Nsg26
g29
sg146
(lp2113
I8
aI8
asg148
Nsg149
VJudges 8:8
p2114
sg151
(lp2115
sg153
g104
sg154
Nsg155
(lp2116
I8
aI8
asg157
Nsg158
g2114
sg159
(lp2117
sg161
g60
sg162
Nsg163
Nsg164
Nsbag2
(g3
g4
Ntp2118
Rp2119
(dp2120
g8
g11
sg142
Nsg143
(dp2121
sg145
Nsg26
g29
sg146
(lp2122
I8
aI9
asg148
Nsg149
VJudges 8:9
p2123
sg151
(lp2124
sg153
g104
sg154
Nsg155
(lp2125
I8
aI9
asg157
Nsg158
g2123
sg159
(lp2126
sg161
g60
sg162
Nsg163
Nsg164
Nsbag2
(g3
g4
Ntp2127
Rp2128
(dp2129
g8
g11
sg142
Nsg143
(dp2130
sg145
Nsg26
g29
sg146
(lp2131
I8
aI10
asg148
Nsg149
VJudges 8:10
p2132
sg151
(lp2133
sg153
g104
sg154
Nsg155
(lp2134
I8
aI10
asg157
Nsg158
g2132
sg159
(lp2135
sg161
g60
sg162
Nsg163
Nsg164
Nsbag2
(g3
g4
Ntp2136
Rp2137
(dp2138
g8
g11
sg142
Nsg143
(dp2139
sg145
Nsg26
g29
sg146
(lp2140
I8
aI11
asg148
Nsg149
VJudges 8:11
p2141
sg151
(lp2142
sg153
g104
sg154
Nsg155
(lp2143
I8
aI11
asg157
Nsg158
g2141
sg159
(lp2144
sg161
g60
sg162
Nsg163
Nsg164
Nsbag2
(g3
g4
Ntp2145
Rp2146
(dp2147
g8
g11
sg142
Nsg143
(dp2148
sg145
Nsg26
g29
sg146
(lp2149
I8
aI12
asg148
Nsg149
VJudges 8:12
p2150
sg151
(lp2151
sg153
g104
sg154
Nsg155
(lp2152
I8
aI12
asg157
Nsg158
g2150
sg159
(lp2153
sg161
g60
sg162
Nsg163
Nsg164
Nsbag2
(g3
g4
Ntp2154
Rp2155
(dp2156
g8
g11
sg142
Nsg143
(dp2157
sg145
Nsg26
g29
sg146
(lp2158
I8
aI13
asg148
Nsg149
VJudges 8:13
p2159
sg151
(lp2160
sg153
g104
sg154
Nsg155
(lp2161
I8
aI13
asg157
Nsg158
g2159
sg159
(lp2162
sg161
g60
sg162
Nsg163
Nsg164
Nsbag2
(g3
g4
Ntp2163
Rp2164
(dp2165
g8
g11
sg142
Nsg143
(dp2166
sg145
Nsg26
g29
sg146
(lp2167
I8
aI14
asg148
Nsg149
VJudges 8:14
p2168
sg151
(lp2169
sg153
g104
sg154
Nsg155
(lp2170
I8
aI14
asg157
Nsg158
g2168
sg159
(lp2171
sg161
g60
sg162
Nsg163
Nsg164
Nsbag2
(g3
g4
Ntp2172
Rp2173
(dp2174
g8
g11
sg142
Nsg143
(dp2175
sg145
Nsg26
g29
sg146
(lp2176
I8
aI15
asg148
Nsg149
VJudges 8:15
p2177
sg151
(lp2178
sg153
g104
sg154
Nsg155
(lp2179
I8
aI15
asg157
Nsg158
g2177
sg159
(lp2180
sg161
g60
sg162
Nsg163
Nsg164
Nsbag2
(g3
g4
Ntp2181
Rp2182
(dp2183
g8
g11
sg142
Nsg143
(dp2184
sg145
Nsg26
g29
sg146
(lp2185
I8
aI16
asg148
Nsg149
VJudges 8:16
p2186
sg151
(lp2187
sg153
g104
sg154
Nsg155
(lp2188
I8
aI16
asg157
Nsg158
g2186
sg159
(lp2189
sg161
g60
sg162
Nsg163
Nsg164
Nsbag2
(g3
g4
Ntp2190
Rp2191
(dp2192
g8
g11
sg142
Nsg143
(dp2193
sg145
Nsg26
g29
sg146
(lp2194
I8
aI17
asg148
Nsg149
VJudges 8:17
p2195
sg151
(lp2196
sg153
g104
sg154
Nsg155
(lp2197
I8
aI17
asg157
Nsg158
g2195
sg159
(lp2198
sg161
g60
sg162
Nsg163
Nsg164
Nsbag2
(g3
g4
Ntp2199
Rp2200
(dp2201
g8
g11
sg142
Nsg143
(dp2202
sg145
Nsg26
g29
sg146
(lp2203
I8
aI18
asg148
Nsg149
VJudges 8:18
p2204
sg151
(lp2205
sg153
g104
sg154
Nsg155
(lp2206
I8
aI18
asg157
Nsg158
g2204
sg159
(lp2207
sg161
g60
sg162
Nsg163
Nsg164
Nsbag2
(g3
g4
Ntp2208
Rp2209
(dp2210
g8
g11
sg142
Nsg143
(dp2211
sg145
Nsg26
g29
sg146
(lp2212
I8
aI19
asg148
Nsg149
VJudges 8:19
p2213
sg151
(lp2214
sg153
g104
sg154
Nsg155
(lp2215
I8
aI19
asg157
Nsg158
g2213
sg159
(lp2216
sg161
g60
sg162
Nsg163
Nsg164
Nsbag2
(g3
g4
Ntp2217
Rp2218
(dp2219
g8
g11
sg142
Nsg143
(dp2220
sg145
Nsg26
g29
sg146
(lp2221
I8
aI20
asg148
Nsg149
VJudges 8:20
p2222
sg151
(lp2223
sg153
g104
sg154
Nsg155
(lp2224
I8
aI20
asg157
Nsg158
g2222
sg159
(lp2225
sg161
g60
sg162
Nsg163
Nsg164
Nsbag2
(g3
g4
Ntp2226
Rp2227
(dp2228
g8
g11
sg142
Nsg143
(dp2229
sg145
Nsg26
g29
sg146
(lp2230
I8
aI21
asg148
Nsg149
VJudges 8:21
p2231
sg151
(lp2232
sg153
g104
sg154
Nsg155
(lp2233
I8
aI21
asg157
Nsg158
g2231
sg159
(lp2234
sg161
g60
sg162
Nsg163
Nsg164
Nsbag2
(g3
g4
Ntp2235
Rp2236
(dp2237
g8
g11
sg142
Nsg143
(dp2238
sg145
Nsg26
g29
sg146
(lp2239
I8
aI22
asg148
Nsg149
VJudges 8:22
p2240
sg151
(lp2241
sg153
g104
sg154
Nsg155
(lp2242
I8
aI22
asg157
Nsg158
g2240
sg159
(lp2243
sg161
g60
sg162
Nsg163
Nsg164
Nsbag2
(g3
g4
Ntp2244
Rp2245
(dp2246
g8
g11
sg142
Nsg143
(dp2247
sg145
Nsg26
g29
sg146
(lp2248
I8
aI23
asg148
Nsg149
VJudges 8:23
p2249
sg151
(lp2250
sg153
g104
sg154
Nsg155
(lp2251
I8
aI23
asg157
Nsg158
g2249
sg159
(lp2252
sg161
g60
sg162
Nsg163
Nsg164
Nsbag2
(g3
g4
Ntp2253
Rp2254
(dp2255
g8
g11
sg142
Nsg143
(dp2256
sg145
Nsg26
g29
sg146
(lp2257
I8
aI24
asg148
Nsg149
VJudges 8:24
p2258
sg151
(lp2259
sg153
g104
sg154
Nsg155
(lp2260
I8
aI24
asg157
Nsg158
g2258
sg159
(lp2261
sg161
g60
sg162
Nsg163
Nsg164
Nsbag2
(g3
g4
Ntp2262
Rp2263
(dp2264
g8
g11
sg142
Nsg143
(dp2265
sg145
Nsg26
g29
sg146
(lp2266
I8
aI25
asg148
Nsg149
VJudges 8:25
p2267
sg151
(lp2268
sg153
g104
sg154
Nsg155
(lp2269
I8
aI25
asg157
Nsg158
g2267
sg159
(lp2270
sg161
g60
sg162
Nsg163
Nsg164
Nsbag2
(g3
g4
Ntp2271
Rp2272
(dp2273
g8
g11
sg142
Nsg143
(dp2274
sg145
Nsg26
g29
sg146
(lp2275
I8
aI26
asg148
Nsg149
VJudges 8:26
p2276
sg151
(lp2277
sg153
g104
sg154
Nsg155
(lp2278
I8
aI26
asg157
Nsg158
g2276
sg159
(lp2279
sg161
g60
sg162
Nsg163
Nsg164
Nsbag2
(g3
g4
Ntp2280
Rp2281
(dp2282
g8
g11
sg142
Nsg143
(dp2283
sg145
Nsg26
g29
sg146
(lp2284
I8
aI27
asg148
Nsg149
VJudges 8:27
p2285
sg151
(lp2286
sg153
g104
sg154
Nsg155
(lp2287
I8
aI27
asg157
Nsg158
g2285
sg159
(lp2288
sg161
g60
sg162
Nsg163
Nsg164
Nsbag2
(g3
g4
Ntp2289
Rp2290
(dp2291
g8
g11
sg142
Nsg143
(dp2292
sg145
Nsg26
g29
sg146
(lp2293
I8
aI28
asg148
Nsg149
VJudges 8:28
p2294
sg151
(lp2295
sg153
g104
sg154
Nsg155
(lp2296
I8
aI28
asg157
Nsg158
g2294
sg159
(lp2297
sg161
g60
sg162
Nsg163
Nsg164
Nsbag2
(g3
g4
Ntp2298
Rp2299
(dp2300
g8
g11
sg142
Nsg143
(dp2301
sg145
Nsg26
g29
sg146
(lp2302
I8
aI29
asg148
Nsg149
VJudges 8:29
p2303
sg151
(lp2304
sg153
g104
sg154
Nsg155
(lp2305
I8
aI29
asg157
Nsg158
g2303
sg159
(lp2306
sg161
g60
sg162
Nsg163
Nsg164
Nsbag2
(g3
g4
Ntp2307
Rp2308
(dp2309
g8
g11
sg142
Nsg143
(dp2310
sg145
Nsg26
g29
sg146
(lp2311
I8
aI30
asg148
Nsg149
VJudges 8:30
p2312
sg151
(lp2313
sg153
g104
sg154
Nsg155
(lp2314
I8
aI30
asg157
Nsg158
g2312
sg159
(lp2315
sg161
g60
sg162
Nsg163
Nsg164
Nsbag2
(g3
g4
Ntp2316
Rp2317
(dp2318
g8
g11
sg142
Nsg143
(dp2319
sg145
Nsg26
g29
sg146
(lp2320
I8
aI31
asg148
Nsg149
VJudges 8:31
p2321
sg151
(lp2322
sg153
g104
sg154
Nsg155
(lp2323
I8
aI31
asg157
Nsg158
g2321
sg159
(lp2324
sg161
g60
sg162
Nsg163
Nsg164
Nsbag2
(g3
g4
Ntp2325
Rp2326
(dp2327
g8
g11
sg142
Nsg143
(dp2328
sg145
Nsg26
g29
sg146
(lp2329
I8
aI32
asg148
Nsg149
VJudges 8:32
p2330
sg151
(lp2331
sg153
g104
sg154
Nsg155
(lp2332
I8
aI32
asg157
Nsg158
g2330
sg159
(lp2333
sg161
g60
sg162
Nsg163
Nsg164
Nsbag2
(g3
g4
Ntp2334
Rp2335
(dp2336
g8
g11
sg142
Nsg143
(dp2337
sg145
Nsg26
g29
sg146
(lp2338
I8
aI33
asg148
Nsg149
VJudges 8:33
p2339
sg151
(lp2340
sg153
g104
sg154
Nsg155
(lp2341
I8
aI33
asg157
Nsg158
g2339
sg159
(lp2342
sg161
g60
sg162
Nsg163
Nsg164
Nsbag2
(g3
g4
Ntp2343
Rp2344
(dp2345
g8
g11
sg142
Nsg143
(dp2346
sg145
Nsg26
g29
sg146
(lp2347
I8
aI34
asg148
Nsg149
VJudges 8:34
p2348
sg151
(lp2349
sg153
g104
sg154
Nsg155
(lp2350
I8
aI34
asg157
Nsg158
g2348
sg159
(lp2351
sg161
g60
sg162
Nsg163
Nsg164
Nsbag2
(g3
g4
Ntp2352
Rp2353
(dp2354
g8
g11
sg142
Nsg143
(dp2355
sg145
Nsg26
g29
sg146
(lp2356
I8
aI35
asg148
Nsg149
VJudges 8:35
p2357
sg151
(lp2358
sg153
g104
sg154
Nsg155
(lp2359
I8
aI35
asg157
Nsg158
g2357
sg159
(lp2360
sg161
g60
sg162
Nsg163
Nsg164
Nsbag2
(g3
g4
Ntp2361
Rp2362
(dp2363
g8
g11
sg142
Nsg143
(dp2364
sg145
Nsg26
g29
sg146
(lp2365
I9
aI1
asg148
Nsg149
VJudges 9:1
p2366
sg151
(lp2367
sg153
g104
sg154
Nsg155
(lp2368
I9
aI1
asg157
Nsg158
g2366
sg159
(lp2369
sg161
g60
sg162
Nsg163
Nsg164
Nsbag2
(g3
g4
Ntp2370
Rp2371
(dp2372
g8
g11
sg142
Nsg143
(dp2373
sg145
Nsg26
g29
sg146
(lp2374
I9
aI2
asg148
Nsg149
VJudges 9:2
p2375
sg151
(lp2376
sg153
g104
sg154
Nsg155
(lp2377
I9
aI2
asg157
Nsg158
g2375
sg159
(lp2378
sg161
g60
sg162
Nsg163
Nsg164
Nsbag2
(g3
g4
Ntp2379
Rp2380
(dp2381
g8
g11
sg142
Nsg143
(dp2382
sg145
Nsg26
g29
sg146
(lp2383
I9
aI3
asg148
Nsg149
VJudges 9:3
p2384
sg151
(lp2385
sg153
g104
sg154
Nsg155
(lp2386
I9
aI3
asg157
Nsg158
g2384
sg159
(lp2387
sg161
g60
sg162
Nsg163
Nsg164
Nsbag2
(g3
g4
Ntp2388
Rp2389
(dp2390
g8
g11
sg142
Nsg143
(dp2391
sg145
Nsg26
g29
sg146
(lp2392
I9
aI4
asg148
Nsg149
VJudges 9:4
p2393
sg151
(lp2394
sg153
g104
sg154
Nsg155
(lp2395
I9
aI4
asg157
Nsg158
g2393
sg159
(lp2396
sg161
g60
sg162
Nsg163
Nsg164
Nsbag2
(g3
g4
Ntp2397
Rp2398
(dp2399
g8
g11
sg142
Nsg143
(dp2400
sg145
Nsg26
g29
sg146
(lp2401
I9
aI5
asg148
Nsg149
VJudges 9:5
p2402
sg151
(lp2403
sg153
g104
sg154
Nsg155
(lp2404
I9
aI5
asg157
Nsg158
g2402
sg159
(lp2405
sg161
g60
sg162
Nsg163
Nsg164
Nsbag2
(g3
g4
Ntp2406
Rp2407
(dp2408
g8
g11
sg142
Nsg143
(dp2409
sg145
Nsg26
g29
sg146
(lp2410
I9
aI6
asg148
Nsg149
VJudges 9:6
p2411
sg151
(lp2412
sg153
g104
sg154
Nsg155
(lp2413
I9
aI6
asg157
Nsg158
g2411
sg159
(lp2414
sg161
g60
sg162
Nsg163
Nsg164
Nsbag2
(g3
g4
Ntp2415
Rp2416
(dp2417
g8
g11
sg142
Nsg143
(dp2418
sg145
Nsg26
g29
sg146
(lp2419
I9
aI7
asg148
Nsg149
VJudges 9:7
p2420
sg151
(lp2421
sg153
g104
sg154
Nsg155
(lp2422
I9
aI7
asg157
Nsg158
g2420
sg159
(lp2423
sg161
g60
sg162
Nsg163
Nsg164
Nsbag2
(g3
g4
Ntp2424
Rp2425
(dp2426
g8
g11
sg142
Nsg143
(dp2427
sg145
Nsg26
g29
sg146
(lp2428
I9
aI8
asg148
Nsg149
VJudges 9:8
p2429
sg151
(lp2430
sg153
g104
sg154
Nsg155
(lp2431
I9
aI8
asg157
Nsg158
g2429
sg159
(lp2432
sg161
g60
sg162
Nsg163
Nsg164
Nsbag2
(g3
g4
Ntp2433
Rp2434
(dp2435
g8
g11
sg142
Nsg143
(dp2436
sg145
Nsg26
g29
sg146
(lp2437
I9
aI9
asg148
Nsg149
VJudges 9:9
p2438
sg151
(lp2439
sg153
g104
sg154
Nsg155
(lp2440
I9
aI9
asg157
Nsg158
g2438
sg159
(lp2441
sg161
g60
sg162
Nsg163
Nsg164
Nsbag2
(g3
g4
Ntp2442
Rp2443
(dp2444
g8
g11
sg142
Nsg143
(dp2445
sg145
Nsg26
g29
sg146
(lp2446
I9
aI10
asg148
Nsg149
VJudges 9:10
p2447
sg151
(lp2448
sg153
g104
sg154
Nsg155
(lp2449
I9
aI10
asg157
Nsg158
g2447
sg159
(lp2450
sg161
g60
sg162
Nsg163
Nsg164
Nsbag2
(g3
g4
Ntp2451
Rp2452
(dp2453
g8
g11
sg142
Nsg143
(dp2454
sg145
Nsg26
g29
sg146
(lp2455
I9
aI11
asg148
Nsg149
VJudges 9:11
p2456
sg151
(lp2457
sg153
g104
sg154
Nsg155
(lp2458
I9
aI11
asg157
Nsg158
g2456
sg159
(lp2459
sg161
g60
sg162
Nsg163
Nsg164
Nsbag2
(g3
g4
Ntp2460
Rp2461
(dp2462
g8
g11
sg142
Nsg143
(dp2463
sg145
Nsg26
g29
sg146
(lp2464
I9
aI12
asg148
Nsg149
VJudges 9:12
p2465
sg151
(lp2466
sg153
g104
sg154
Nsg155
(lp2467
I9
aI12
asg157
Nsg158
g2465
sg159
(lp2468
sg161
g60
sg162
Nsg163
Nsg164
Nsbag2
(g3
g4
Ntp2469
Rp2470
(dp2471
g8
g11
sg142
Nsg143
(dp2472
sg145
Nsg26
g29
sg146
(lp2473
I9
aI13
asg148
Nsg149
VJudges 9:13
p2474
sg151
(lp2475
sg153
g104
sg154
Nsg155
(lp2476
I9
aI13
asg157
Nsg158
g2474
sg159
(lp2477
sg161
g60
sg162
Nsg163
Nsg164
Nsbag2
(g3
g4
Ntp2478
Rp2479
(dp2480
g8
g11
sg142
Nsg143
(dp2481
sg145
Nsg26
g29
sg146
(lp2482
I9
aI14
asg148
Nsg149
VJudges 9:14
p2483
sg151
(lp2484
sg153
g104
sg154
Nsg155
(lp2485
I9
aI14
asg157
Nsg158
g2483
sg159
(lp2486
sg161
g60
sg162
Nsg163
Nsg164
Nsbag2
(g3
g4
Ntp2487
Rp2488
(dp2489
g8
g11
sg142
Nsg143
(dp2490
sg145
Nsg26
g29
sg146
(lp2491
I9
aI15
asg148
Nsg149
VJudges 9:15
p2492
sg151
(lp2493
sg153
g104
sg154
Nsg155
(lp2494
I9
aI15
asg157
Nsg158
g2492
sg159
(lp2495
sg161
g60
sg162
Nsg163
Nsg164
Nsbag2
(g3
g4
Ntp2496
Rp2497
(dp2498
g8
g11
sg142
Nsg143
(dp2499
sg145
Nsg26
g29
sg146
(lp2500
I9
aI16
asg148
Nsg149
VJudges 9:16
p2501
sg151
(lp2502
sg153
g104
sg154
Nsg155
(lp2503
I9
aI16
asg157
Nsg158
g2501
sg159
(lp2504
sg161
g60
sg162
Nsg163
Nsg164
Nsbag2
(g3
g4
Ntp2505
Rp2506
(dp2507
g8
g11
sg142
Nsg143
(dp2508
sg145
Nsg26
g29
sg146
(lp2509
I9
aI17
asg148
Nsg149
VJudges 9:17
p2510
sg151
(lp2511
sg153
g104
sg154
Nsg155
(lp2512
I9
aI17
asg157
Nsg158
g2510
sg159
(lp2513
sg161
g60
sg162
Nsg163
Nsg164
Nsbag2
(g3
g4
Ntp2514
Rp2515
(dp2516
g8
g11
sg142
Nsg143
(dp2517
sg145
Nsg26
g29
sg146
(lp2518
I9
aI18
asg148
Nsg149
VJudges 9:18
p2519
sg151
(lp2520
sg153
g104
sg154
Nsg155
(lp2521
I9
aI18
asg157
Nsg158
g2519
sg159
(lp2522
sg161
g60
sg162
Nsg163
Nsg164
Nsbag2
(g3
g4
Ntp2523
Rp2524
(dp2525
g8
g11
sg142
Nsg143
(dp2526
sg145
Nsg26
g29
sg146
(lp2527
I9
aI19
asg148
Nsg149
VJudges 9:19
p2528
sg151
(lp2529
sg153
g104
sg154
Nsg155
(lp2530
I9
aI19
asg157
Nsg158
g2528
sg159
(lp2531
sg161
g60
sg162
Nsg163
Nsg164
Nsbag2
(g3
g4
Ntp2532
Rp2533
(dp2534
g8
g11
sg142
Nsg143
(dp2535
sg145
Nsg26
g29
sg146
(lp2536
I9
aI20
asg148
Nsg149
VJudges 9:20
p2537
sg151
(lp2538
sg153
g104
sg154
Nsg155
(lp2539
I9
aI20
asg157
Nsg158
g2537
sg159
(lp2540
sg161
g60
sg162
Nsg163
Nsg164
Nsbag2
(g3
g4
Ntp2541
Rp2542
(dp2543
g8
g11
sg142
Nsg143
(dp2544
sg145
Nsg26
g29
sg146
(lp2545
I9
aI21
asg148
Nsg149
VJudges 9:21
p2546
sg151
(lp2547
sg153
g104
sg154
Nsg155
(lp2548
I9
aI21
asg157
Nsg158
g2546
sg159
(lp2549
sg161
g60
sg162
Nsg163
Nsg164
Nsbag2
(g3
g4
Ntp2550
Rp2551
(dp2552
g8
g11
sg142
Nsg143
(dp2553
sg145
Nsg26
g29
sg146
(lp2554
I9
aI22
asg148
Nsg149
VJudges 9:22
p2555
sg151
(lp2556
sg153
g104
sg154
Nsg155
(lp2557
I9
aI22
asg157
Nsg158
g2555
sg159
(lp2558
sg161
g60
sg162
Nsg163
Nsg164
Nsbag2
(g3
g4
Ntp2559
Rp2560
(dp2561
g8
g11
sg142
Nsg143
(dp2562
sg145
Nsg26
g29
sg146
(lp2563
I9
aI23
asg148
Nsg149
VJudges 9:23
p2564
sg151
(lp2565
sg153
g104
sg154
Nsg155
(lp2566
I9
aI23
asg157
Nsg158
g2564
sg159
(lp2567
sg161
g60
sg162
Nsg163
Nsg164
Nsbag2
(g3
g4
Ntp2568
Rp2569
(dp2570
g8
g11
sg142
Nsg143
(dp2571
sg145
Nsg26
g29
sg146
(lp2572
I9
aI24
asg148
Nsg149
VJudges 9:24
p2573
sg151
(lp2574
sg153
g104
sg154
Nsg155
(lp2575
I9
aI24
asg157
Nsg158
g2573
sg159
(lp2576
sg161
g60
sg162
Nsg163
Nsg164
Nsbag2
(g3
g4
Ntp2577
Rp2578
(dp2579
g8
g11
sg142
Nsg143
(dp2580
sg145
Nsg26
g29
sg146
(lp2581
I9
aI25
asg148
Nsg149
VJudges 9:25
p2582
sg151
(lp2583
sg153
g104
sg154
Nsg155
(lp2584
I9
aI25
asg157
Nsg158
g2582
sg159
(lp2585
sg161
g60
sg162
Nsg163
Nsg164
Nsbag2
(g3
g4
Ntp2586
Rp2587
(dp2588
g8
g11
sg142
Nsg143
(dp2589
sg145
Nsg26
g29
sg146
(lp2590
I9
aI26
asg148
Nsg149
VJudges 9:26
p2591
sg151
(lp2592
sg153
g104
sg154
Nsg155
(lp2593
I9
aI26
asg157
Nsg158
g2591
sg159
(lp2594
sg161
g60
sg162
Nsg163
Nsg164
Nsbag2
(g3
g4
Ntp2595
Rp2596
(dp2597
g8
g11
sg142
Nsg143
(dp2598
sg145
Nsg26
g29
sg146
(lp2599
I9
aI27
asg148
Nsg149
VJudges 9:27
p2600
sg151
(lp2601
sg153
g104
sg154
Nsg155
(lp2602
I9
aI27
asg157
Nsg158
g2600
sg159
(lp2603
sg161
g60
sg162
Nsg163
Nsg164
Nsbag2
(g3
g4
Ntp2604
Rp2605
(dp2606
g8
g11
sg142
Nsg143
(dp2607
sg145
Nsg26
g29
sg146
(lp2608
I9
aI28
asg148
Nsg149
VJudges 9:28
p2609
sg151
(lp2610
sg153
g104
sg154
Nsg155
(lp2611
I9
aI28
asg157
Nsg158
g2609
sg159
(lp2612
sg161
g60
sg162
Nsg163
Nsg164
Nsbag2
(g3
g4
Ntp2613
Rp2614
(dp2615
g8
g11
sg142
Nsg143
(dp2616
sg145
Nsg26
g29
sg146
(lp2617
I9
aI29
asg148
Nsg149
VJudges 9:29
p2618
sg151
(lp2619
sg153
g104
sg154
Nsg155
(lp2620
I9
aI29
asg157
Nsg158
g2618
sg159
(lp2621
sg161
g60
sg162
Nsg163
Nsg164
Nsbag2
(g3
g4
Ntp2622
Rp2623
(dp2624
g8
g11
sg142
Nsg143
(dp2625
sg145
Nsg26
g29
sg146
(lp2626
I9
aI30
asg148
Nsg149
VJudges 9:30
p2627
sg151
(lp2628
sg153
g104
sg154
Nsg155
(lp2629
I9
aI30
asg157
Nsg158
g2627
sg159
(lp2630
sg161
g60
sg162
Nsg163
Nsg164
Nsbag2
(g3
g4
Ntp2631
Rp2632
(dp2633
g8
g11
sg142
Nsg143
(dp2634
sg145
Nsg26
g29
sg146
(lp2635
I9
aI31
asg148
Nsg149
VJudges 9:31
p2636
sg151
(lp2637
sg153
g104
sg154
Nsg155
(lp2638
I9
aI31
asg157
Nsg158
g2636
sg159
(lp2639
sg161
g60
sg162
Nsg163
Nsg164
Nsbag2
(g3
g4
Ntp2640
Rp2641
(dp2642
g8
g11
sg142
Nsg143
(dp2643
sg145
Nsg26
g29
sg146
(lp2644
I9
aI32
asg148
Nsg149
VJudges 9:32
p2645
sg151
(lp2646
sg153
g104
sg154
Nsg155
(lp2647
I9
aI32
asg157
Nsg158
g2645
sg159
(lp2648
sg161
g60
sg162
Nsg163
Nsg164
Nsbag2
(g3
g4
Ntp2649
Rp2650
(dp2651
g8
g11
sg142
Nsg143
(dp2652
sg145
Nsg26
g29
sg146
(lp2653
I9
aI33
asg148
Nsg149
VJudges 9:33
p2654
sg151
(lp2655
sg153
g104
sg154
Nsg155
(lp2656
I9
aI33
asg157
Nsg158
g2654
sg159
(lp2657
sg161
g60
sg162
Nsg163
Nsg164
Nsbag2
(g3
g4
Ntp2658
Rp2659
(dp2660
g8
g11
sg142
Nsg143
(dp2661
sg145
Nsg26
g29
sg146
(lp2662
I9
aI34
asg148
Nsg149
VJudges 9:34
p2663
sg151
(lp2664
sg153
g104
sg154
Nsg155
(lp2665
I9
aI34
asg157
Nsg158
g2663
sg159
(lp2666
sg161
g60
sg162
Nsg163
Nsg164
Nsbag2
(g3
g4
Ntp2667
Rp2668
(dp2669
g8
g11
sg142
Nsg143
(dp2670
sg145
Nsg26
g29
sg146
(lp2671
I9
aI35
asg148
Nsg149
VJudges 9:35
p2672
sg151
(lp2673
sg153
g104
sg154
Nsg155
(lp2674
I9
aI35
asg157
Nsg158
g2672
sg159
(lp2675
sg161
g60
sg162
Nsg163
Nsg164
Nsbag2
(g3
g4
Ntp2676
Rp2677
(dp2678
g8
g11
sg142
Nsg143
(dp2679
sg145
Nsg26
g29
sg146
(lp2680
I9
aI36
asg148
Nsg149
VJudges 9:36
p2681
sg151
(lp2682
sg153
g104
sg154
Nsg155
(lp2683
I9
aI36
asg157
Nsg158
g2681
sg159
(lp2684
sg161
g60
sg162
Nsg163
Nsg164
Nsbag2
(g3
g4
Ntp2685
Rp2686
(dp2687
g8
g11
sg142
Nsg143
(dp2688
sg145
Nsg26
g29
sg146
(lp2689
I9
aI37
asg148
Nsg149
VJudges 9:37
p2690
sg151
(lp2691
sg153
g104
sg154
Nsg155
(lp2692
I9
aI37
asg157
Nsg158
g2690
sg159
(lp2693
sg161
g60
sg162
Nsg163
Nsg164
Nsbag2
(g3
g4
Ntp2694
Rp2695
(dp2696
g8
g11
sg142
Nsg143
(dp2697
sg145
Nsg26
g29
sg146
(lp2698
I9
aI38
asg148
Nsg149
VJudges 9:38
p2699
sg151
(lp2700
sg153
g104
sg154
Nsg155
(lp2701
I9
aI38
asg157
Nsg158
g2699
sg159
(lp2702
sg161
g60
sg162
Nsg163
Nsg164
Nsbag2
(g3
g4
Ntp2703
Rp2704
(dp2705
g8
g11
sg142
Nsg143
(dp2706
sg145
Nsg26
g29
sg146
(lp2707
I9
aI39
asg148
Nsg149
VJudges 9:39
p2708
sg151
(lp2709
sg153
g104
sg154
Nsg155
(lp2710
I9
aI39
asg157
Nsg158
g2708
sg159
(lp2711
sg161
g60
sg162
Nsg163
Nsg164
Nsbag2
(g3
g4
Ntp2712
Rp2713
(dp2714
g8
g11
sg142
Nsg143
(dp2715
sg145
Nsg26
g29
sg146
(lp2716
I9
aI40
asg148
Nsg149
VJudges 9:40
p2717
sg151
(lp2718
sg153
g104
sg154
Nsg155
(lp2719
I9
aI40
asg157
Nsg158
g2717
sg159
(lp2720
sg161
g60
sg162
Nsg163
Nsg164
Nsbag2
(g3
g4
Ntp2721
Rp2722
(dp2723
g8
g11
sg142
Nsg143
(dp2724
sg145
Nsg26
g29
sg146
(lp2725
I9
aI41
asg148
Nsg149
VJudges 9:41
p2726
sg151
(lp2727
sg153
g104
sg154
Nsg155
(lp2728
I9
aI41
asg157
Nsg158
g2726
sg159
(lp2729
sg161
g60
sg162
Nsg163
Nsg164
Nsbag2
(g3
g4
Ntp2730
Rp2731
(dp2732
g8
g11
sg142
Nsg143
(dp2733
sg145
Nsg26
g29
sg146
(lp2734
I9
aI42
asg148
Nsg149
VJudges 9:42
p2735
sg151
(lp2736
sg153
g104
sg154
Nsg155
(lp2737
I9
aI42
asg157
Nsg158
g2735
sg159
(lp2738
sg161
g60
sg162
Nsg163
Nsg164
Nsbag2
(g3
g4
Ntp2739
Rp2740
(dp2741
g8
g11
sg142
Nsg143
(dp2742
sg145
Nsg26
g29
sg146
(lp2743
I9
aI43
asg148
Nsg149
VJudges 9:43
p2744
sg151
(lp2745
sg153
g104
sg154
Nsg155
(lp2746
I9
aI43
asg157
Nsg158
g2744
sg159
(lp2747
sg161
g60
sg162
Nsg163
Nsg164
Nsbag2
(g3
g4
Ntp2748
Rp2749
(dp2750
g8
g11
sg142
Nsg143
(dp2751
sg145
Nsg26
g29
sg146
(lp2752
I9
aI44
asg148
Nsg149
VJudges 9:44
p2753
sg151
(lp2754
sg153
g104
sg154
Nsg155
(lp2755
I9
aI44
asg157
Nsg158
g2753
sg159
(lp2756
sg161
g60
sg162
Nsg163
Nsg164
Nsbag2
(g3
g4
Ntp2757
Rp2758
(dp2759
g8
g11
sg142
Nsg143
(dp2760
sg145
Nsg26
g29
sg146
(lp2761
I9
aI45
asg148
Nsg149
VJudges 9:45
p2762
sg151
(lp2763
sg153
g104
sg154
Nsg155
(lp2764
I9
aI45
asg157
Nsg158
g2762
sg159
(lp2765
sg161
g60
sg162
Nsg163
Nsg164
Nsbag2
(g3
g4
Ntp2766
Rp2767
(dp2768
g8
g11
sg142
Nsg143
(dp2769
sg145
Nsg26
g29
sg146
(lp2770
I9
aI46
asg148
Nsg149
VJudges 9:46
p2771
sg151
(lp2772
sg153
g104
sg154
Nsg155
(lp2773
I9
aI46
asg157
Nsg158
g2771
sg159
(lp2774
sg161
g60
sg162
Nsg163
Nsg164
Nsbag2
(g3
g4
Ntp2775
Rp2776
(dp2777
g8
g11
sg142
Nsg143
(dp2778
sg145
Nsg26
g29
sg146
(lp2779
I9
aI47
asg148
Nsg149
VJudges 9:47
p2780
sg151
(lp2781
sg153
g104
sg154
Nsg155
(lp2782
I9
aI47
asg157
Nsg158
g2780
sg159
(lp2783
sg161
g60
sg162
Nsg163
Nsg164
Nsbag2
(g3
g4
Ntp2784
Rp2785
(dp2786
g8
g11
sg142
Nsg143
(dp2787
sg145
Nsg26
g29
sg146
(lp2788
I9
aI48
asg148
Nsg149
VJudges 9:48
p2789
sg151
(lp2790
sg153
g104
sg154
Nsg155
(lp2791
I9
aI48
asg157
Nsg158
g2789
sg159
(lp2792
sg161
g60
sg162
Nsg163
Nsg164
Nsbag2
(g3
g4
Ntp2793
Rp2794
(dp2795
g8
g11
sg142
Nsg143
(dp2796
sg145
Nsg26
g29
sg146
(lp2797
I9
aI49
asg148
Nsg149
VJudges 9:49
p2798
sg151
(lp2799
sg153
g104
sg154
Nsg155
(lp2800
I9
aI49
asg157
Nsg158
g2798
sg159
(lp2801
sg161
g60
sg162
Nsg163
Nsg164
Nsbag2
(g3
g4
Ntp2802
Rp2803
(dp2804
g8
g11
sg142
Nsg143
(dp2805
sg145
Nsg26
g29
sg146
(lp2806
I9
aI50
asg148
Nsg149
VJudges 9:50
p2807
sg151
(lp2808
sg153
g104
sg154
Nsg155
(lp2809
I9
aI50
asg157
Nsg158
g2807
sg159
(lp2810
sg161
g60
sg162
Nsg163
Nsg164
Nsbag2
(g3
g4
Ntp2811
Rp2812
(dp2813
g8
g11
sg142
Nsg143
(dp2814
sg145
Nsg26
g29
sg146
(lp2815
I9
aI51
asg148
Nsg149
VJudges 9:51
p2816
sg151
(lp2817
sg153
g104
sg154
Nsg155
(lp2818
I9
aI51
asg157
Nsg158
g2816
sg159
(lp2819
sg161
g60
sg162
Nsg163
Nsg164
Nsbag2
(g3
g4
Ntp2820
Rp2821
(dp2822
g8
g11
sg142
Nsg143
(dp2823
sg145
Nsg26
g29
sg146
(lp2824
I9
aI52
asg148
Nsg149
VJudges 9:52
p2825
sg151
(lp2826
sg153
g104
sg154
Nsg155
(lp2827
I9
aI52
asg157
Nsg158
g2825
sg159
(lp2828
sg161
g60
sg162
Nsg163
Nsg164
Nsbag2
(g3
g4
Ntp2829
Rp2830
(dp2831
g8
g11
sg142
Nsg143
(dp2832
sg145
Nsg26
g29
sg146
(lp2833
I9
aI53
asg148
Nsg149
VJudges 9:53
p2834
sg151
(lp2835
sg153
g104
sg154
Nsg155
(lp2836
I9
aI53
asg157
Nsg158
g2834
sg159
(lp2837
sg161
g60
sg162
Nsg163
Nsg164
Nsbag2
(g3
g4
Ntp2838
Rp2839
(dp2840
g8
g11
sg142
Nsg143
(dp2841
sg145
Nsg26
g29
sg146
(lp2842
I9
aI54
asg148
Nsg149
VJudges 9:54
p2843
sg151
(lp2844
sg153
g104
sg154
Nsg155
(lp2845
I9
aI54
asg157
Nsg158
g2843
sg159
(lp2846
sg161
g60
sg162
Nsg163
Nsg164
Nsbag2
(g3
g4
Ntp2847
Rp2848
(dp2849
g8
g11
sg142
Nsg143
(dp2850
sg145
Nsg26
g29
sg146
(lp2851
I9
aI55
asg148
Nsg149
VJudges 9:55
p2852
sg151
(lp2853
sg153
g104
sg154
Nsg155
(lp2854
I9
aI55
asg157
Nsg158
g2852
sg159
(lp2855
sg161
g60
sg162
Nsg163
Nsg164
Nsbag2
(g3
g4
Ntp2856
Rp2857
(dp2858
g8
g11
sg142
Nsg143
(dp2859
sg145
Nsg26
g29
sg146
(lp2860
I9
aI56
asg148
Nsg149
VJudges 9:56
p2861
sg151
(lp2862
sg153
g104
sg154
Nsg155
(lp2863
I9
aI56
asg157
Nsg158
g2861
sg159
(lp2864
sg161
g60
sg162
Nsg163
Nsg164
Nsbag2
(g3
g4
Ntp2865
Rp2866
(dp2867
g8
g11
sg142
Nsg143
(dp2868
sg145
Nsg26
g29
sg146
(lp2869
I9
aI57
asg148
Nsg149
VJudges 9:57
p2870
sg151
(lp2871
sg153
g104
sg154
Nsg155
(lp2872
I9
aI57
asg157
Nsg158
g2870
sg159
(lp2873
sg161
g60
sg162
Nsg163
Nsg164
Nsbag2
(g3
g4
Ntp2874
Rp2875
(dp2876
g8
g11
sg142
Nsg143
(dp2877
sg145
Nsg26
g29
sg146
(lp2878
I10
aI1
asg148
Nsg149
VJudges 10:1
p2879
sg151
(lp2880
sg153
g104
sg154
Nsg155
(lp2881
I10
aI1
asg157
Nsg158
g2879
sg159
(lp2882
sg161
g60
sg162
Nsg163
Nsg164
Nsbag2
(g3
g4
Ntp2883
Rp2884
(dp2885
g8
g11
sg142
Nsg143
(dp2886
sg145
Nsg26
g29
sg146
(lp2887
I10
aI2
asg148
Nsg149
VJudges 10:2
p2888
sg151
(lp2889
sg153
g104
sg154
Nsg155
(lp2890
I10
aI2
asg157
Nsg158
g2888
sg159
(lp2891
sg161
g60
sg162
Nsg163
Nsg164
Nsbag2
(g3
g4
Ntp2892
Rp2893
(dp2894
g8
g11
sg142
Nsg143
(dp2895
sg145
Nsg26
g29
sg146
(lp2896
I10
aI3
asg148
Nsg149
VJudges 10:3
p2897
sg151
(lp2898
sg153
g104
sg154
Nsg155
(lp2899
I10
aI3
asg157
Nsg158
g2897
sg159
(lp2900
sg161
g60
sg162
Nsg163
Nsg164
Nsbag2
(g3
g4
Ntp2901
Rp2902
(dp2903
g8
g11
sg142
Nsg143
(dp2904
sg145
Nsg26
g29
sg146
(lp2905
I10
aI4
asg148
Nsg149
VJudges 10:4
p2906
sg151
(lp2907
sg153
g104
sg154
Nsg155
(lp2908
I10
aI4
asg157
Nsg158
g2906
sg159
(lp2909
sg161
g60
sg162
Nsg163
Nsg164
Nsbag2
(g3
g4
Ntp2910
Rp2911
(dp2912
g8
g11
sg142
Nsg143
(dp2913
sg145
Nsg26
g29
sg146
(lp2914
I10
aI5
asg148
Nsg149
VJudges 10:5
p2915
sg151
(lp2916
sg153
g104
sg154
Nsg155
(lp2917
I10
aI5
asg157
Nsg158
g2915
sg159
(lp2918
sg161
g60
sg162
Nsg163
Nsg164
Nsbag2
(g3
g4
Ntp2919
Rp2920
(dp2921
g8
g11
sg142
Nsg143
(dp2922
sg145
Nsg26
g29
sg146
(lp2923
I10
aI6
asg148
Nsg149
VJudges 10:6
p2924
sg151
(lp2925
sg153
g104
sg154
Nsg155
(lp2926
I10
aI6
asg157
Nsg158
g2924
sg159
(lp2927
sg161
g60
sg162
Nsg163
Nsg164
Nsbag2
(g3
g4
Ntp2928
Rp2929
(dp2930
g8
g11
sg142
Nsg143
(dp2931
sg145
Nsg26
g29
sg146
(lp2932
I10
aI7
asg148
Nsg149
VJudges 10:7
p2933
sg151
(lp2934
sg153
g104
sg154
Nsg155
(lp2935
I10
aI7
asg157
Nsg158
g2933
sg159
(lp2936
sg161
g60
sg162
Nsg163
Nsg164
Nsbag2
(g3
g4
Ntp2937
Rp2938
(dp2939
g8
g11
sg142
Nsg143
(dp2940
sg145
Nsg26
g29
sg146
(lp2941
I10
aI8
asg148
Nsg149
VJudges 10:8
p2942
sg151
(lp2943
sg153
g104
sg154
Nsg155
(lp2944
I10
aI8
asg157
Nsg158
g2942
sg159
(lp2945
sg161
g60
sg162
Nsg163
Nsg164
Nsbag2
(g3
g4
Ntp2946
Rp2947
(dp2948
g8
g11
sg142
Nsg143
(dp2949
sg145
Nsg26
g29
sg146
(lp2950
I10
aI9
asg148
Nsg149
VJudges 10:9
p2951
sg151
(lp2952
sg153
g104
sg154
Nsg155
(lp2953
I10
aI9
asg157
Nsg158
g2951
sg159
(lp2954
sg161
g60
sg162
Nsg163
Nsg164
Nsbag2
(g3
g4
Ntp2955
Rp2956
(dp2957
g8
g11
sg142
Nsg143
(dp2958
sg145
Nsg26
g29
sg146
(lp2959
I10
aI10
asg148
Nsg149
VJudges 10:10
p2960
sg151
(lp2961
sg153
g104
sg154
Nsg155
(lp2962
I10
aI10
asg157
Nsg158
g2960
sg159
(lp2963
sg161
g60
sg162
Nsg163
Nsg164
Nsbag2
(g3
g4
Ntp2964
Rp2965
(dp2966
g8
g11
sg142
Nsg143
(dp2967
sg145
Nsg26
g29
sg146
(lp2968
I10
aI11
asg148
Nsg149
VJudges 10:11
p2969
sg151
(lp2970
sg153
g104
sg154
Nsg155
(lp2971
I10
aI11
asg157
Nsg158
g2969
sg159
(lp2972
sg161
g60
sg162
Nsg163
Nsg164
Nsbag2
(g3
g4
Ntp2973
Rp2974
(dp2975
g8
g11
sg142
Nsg143
(dp2976
sg145
Nsg26
g29
sg146
(lp2977
I10
aI12
asg148
Nsg149
VJudges 10:12
p2978
sg151
(lp2979
sg153
g104
sg154
Nsg155
(lp2980
I10
aI12
asg157
Nsg158
g2978
sg159
(lp2981
sg161
g60
sg162
Nsg163
Nsg164
Nsbag2
(g3
g4
Ntp2982
Rp2983
(dp2984
g8
g11
sg142
Nsg143
(dp2985
sg145
Nsg26
g29
sg146
(lp2986
I10
aI13
asg148
Nsg149
VJudges 10:13
p2987
sg151
(lp2988
sg153
g104
sg154
Nsg155
(lp2989
I10
aI13
asg157
Nsg158
g2987
sg159
(lp2990
sg161
g60
sg162
Nsg163
Nsg164
Nsbag2
(g3
g4
Ntp2991
Rp2992
(dp2993
g8
g11
sg142
Nsg143
(dp2994
sg145
Nsg26
g29
sg146
(lp2995
I10
aI14
asg148
Nsg149
VJudges 10:14
p2996
sg151
(lp2997
sg153
g104
sg154
Nsg155
(lp2998
I10
aI14
asg157
Nsg158
g2996
sg159
(lp2999
sg161
g60
sg162
Nsg163
Nsg164
Nsbag2
(g3
g4
Ntp3000
Rp3001
(dp3002
g8
g11
sg142
Nsg143
(dp3003
sg145
Nsg26
g29
sg146
(lp3004
I10
aI15
asg148
Nsg149
VJudges 10:15
p3005
sg151
(lp3006
sg153
g104
sg154
Nsg155
(lp3007
I10
aI15
asg157
Nsg158
g3005
sg159
(lp3008
sg161
g60
sg162
Nsg163
Nsg164
Nsbag2
(g3
g4
Ntp3009
Rp3010
(dp3011
g8
g11
sg142
Nsg143
(dp3012
sg145
Nsg26
g29
sg146
(lp3013
I10
aI16
asg148
Nsg149
VJudges 10:16
p3014
sg151
(lp3015
sg153
g104
sg154
Nsg155
(lp3016
I10
aI16
asg157
Nsg158
g3014
sg159
(lp3017
sg161
g60
sg162
Nsg163
Nsg164
Nsbag2
(g3
g4
Ntp3018
Rp3019
(dp3020
g8
g11
sg142
Nsg143
(dp3021
sg145
Nsg26
g29
sg146
(lp3022
I10
aI17
asg148
Nsg149
VJudges 10:17
p3023
sg151
(lp3024
sg153
g104
sg154
Nsg155
(lp3025
I10
aI17
asg157
Nsg158
g3023
sg159
(lp3026
sg161
g60
sg162
Nsg163
Nsg164
Nsbag2
(g3
g4
Ntp3027
Rp3028
(dp3029
g8
g11
sg142
Nsg143
(dp3030
sg145
Nsg26
g29
sg146
(lp3031
I10
aI18
asg148
Nsg149
VJudges 10:18
p3032
sg151
(lp3033
sg153
g104
sg154
Nsg155
(lp3034
I10
aI18
asg157
Nsg158
g3032
sg159
(lp3035
sg161
g60
sg162
Nsg163
Nsg164
Nsbag2
(g3
g4
Ntp3036
Rp3037
(dp3038
g8
g11
sg142
Nsg143
(dp3039
sg145
Nsg26
g29
sg146
(lp3040
I11
aI1
asg148
Nsg149
VJudges 11:1
p3041
sg151
(lp3042
sg153
g104
sg154
Nsg155
(lp3043
I11
aI1
asg157
Nsg158
g3041
sg159
(lp3044
sg161
g60
sg162
Nsg163
Nsg164
Nsbag2
(g3
g4
Ntp3045
Rp3046
(dp3047
g8
g11
sg142
Nsg143
(dp3048
sg145
Nsg26
g29
sg146
(lp3049
I11
aI2
asg148
Nsg149
VJudges 11:2
p3050
sg151
(lp3051
sg153
g104
sg154
Nsg155
(lp3052
I11
aI2
asg157
Nsg158
g3050
sg159
(lp3053
sg161
g60
sg162
Nsg163
Nsg164
Nsbag2
(g3
g4
Ntp3054
Rp3055
(dp3056
g8
g11
sg142
Nsg143
(dp3057
sg145
Nsg26
g29
sg146
(lp3058
I11
aI3
asg148
Nsg149
VJudges 11:3
p3059
sg151
(lp3060
sg153
g104
sg154
Nsg155
(lp3061
I11
aI3
asg157
Nsg158
g3059
sg159
(lp3062
sg161
g60
sg162
Nsg163
Nsg164
Nsbag2
(g3
g4
Ntp3063
Rp3064
(dp3065
g8
g11
sg142
Nsg143
(dp3066
sg145
Nsg26
g29
sg146
(lp3067
I11
aI4
asg148
Nsg149
VJudges 11:4
p3068
sg151
(lp3069
sg153
g104
sg154
Nsg155
(lp3070
I11
aI4
asg157
Nsg158
g3068
sg159
(lp3071
sg161
g60
sg162
Nsg163
Nsg164
Nsbag2
(g3
g4
Ntp3072
Rp3073
(dp3074
g8
g11
sg142
Nsg143
(dp3075
sg145
Nsg26
g29
sg146
(lp3076
I11
aI5
asg148
Nsg149
VJudges 11:5
p3077
sg151
(lp3078
sg153
g104
sg154
Nsg155
(lp3079
I11
aI5
asg157
Nsg158
g3077
sg159
(lp3080
sg161
g60
sg162
Nsg163
Nsg164
Nsbag2
(g3
g4
Ntp3081
Rp3082
(dp3083
g8
g11
sg142
Nsg143
(dp3084
sg145
Nsg26
g29
sg146
(lp3085
I11
aI6
asg148
Nsg149
VJudges 11:6
p3086
sg151
(lp3087
sg153
g104
sg154
Nsg155
(lp3088
I11
aI6
asg157
Nsg158
g3086
sg159
(lp3089
sg161
g60
sg162
Nsg163
Nsg164
Nsbag2
(g3
g4
Ntp3090
Rp3091
(dp3092
g8
g11
sg142
Nsg143
(dp3093
sg145
Nsg26
g29
sg146
(lp3094
I11
aI7
asg148
Nsg149
VJudges 11:7
p3095
sg151
(lp3096
sg153
g104
sg154
Nsg155
(lp3097
I11
aI7
asg157
Nsg158
g3095
sg159
(lp3098
sg161
g60
sg162
Nsg163
Nsg164
Nsbag2
(g3
g4
Ntp3099
Rp3100
(dp3101
g8
g11
sg142
Nsg143
(dp3102
sg145
Nsg26
g29
sg146
(lp3103
I11
aI8
asg148
Nsg149
VJudges 11:8
p3104
sg151
(lp3105
sg153
g104
sg154
Nsg155
(lp3106
I11
aI8
asg157
Nsg158
g3104
sg159
(lp3107
sg161
g60
sg162
Nsg163
Nsg164
Nsbag2
(g3
g4
Ntp3108
Rp3109
(dp3110
g8
g11
sg142
Nsg143
(dp3111
sg145
Nsg26
g29
sg146
(lp3112
I11
aI9
asg148
Nsg149
VJudges 11:9
p3113
sg151
(lp3114
sg153
g104
sg154
Nsg155
(lp3115
I11
aI9
asg157
Nsg158
g3113
sg159
(lp3116
sg161
g60
sg162
Nsg163
Nsg164
Nsbag2
(g3
g4
Ntp3117
Rp3118
(dp3119
g8
g11
sg142
Nsg143
(dp3120
sg145
Nsg26
g29
sg146
(lp3121
I11
aI10
asg148
Nsg149
VJudges 11:10
p3122
sg151
(lp3123
sg153
g104
sg154
Nsg155
(lp3124
I11
aI10
asg157
Nsg158
g3122
sg159
(lp3125
sg161
g60
sg162
Nsg163
Nsg164
Nsbag2
(g3
g4
Ntp3126
Rp3127
(dp3128
g8
g11
sg142
Nsg143
(dp3129
sg145
Nsg26
g29
sg146
(lp3130
I11
aI11
asg148
Nsg149
VJudges 11:11
p3131
sg151
(lp3132
sg153
g104
sg154
Nsg155
(lp3133
I11
aI11
asg157
Nsg158
g3131
sg159
(lp3134
sg161
g60
sg162
Nsg163
Nsg164
Nsbag2
(g3
g4
Ntp3135
Rp3136
(dp3137
g8
g11
sg142
Nsg143
(dp3138
sg145
Nsg26
g29
sg146
(lp3139
I11
aI12
asg148
Nsg149
VJudges 11:12
p3140
sg151
(lp3141
sg153
g104
sg154
Nsg155
(lp3142
I11
aI12
asg157
Nsg158
g3140
sg159
(lp3143
sg161
g60
sg162
Nsg163
Nsg164
Nsbag2
(g3
g4
Ntp3144
Rp3145
(dp3146
g8
g11
sg142
Nsg143
(dp3147
sg145
Nsg26
g29
sg146
(lp3148
I11
aI13
asg148
Nsg149
VJudges 11:13
p3149
sg151
(lp3150
sg153
g104
sg154
Nsg155
(lp3151
I11
aI13
asg157
Nsg158
g3149
sg159
(lp3152
sg161
g60
sg162
Nsg163
Nsg164
Nsbag2
(g3
g4
Ntp3153
Rp3154
(dp3155
g8
g11
sg142
Nsg143
(dp3156
sg145
Nsg26
g29
sg146
(lp3157
I11
aI14
asg148
Nsg149
VJudges 11:14
p3158
sg151
(lp3159
sg153
g104
sg154
Nsg155
(lp3160
I11
aI14
asg157
Nsg158
g3158
sg159
(lp3161
sg161
g60
sg162
Nsg163
Nsg164
Nsbag2
(g3
g4
Ntp3162
Rp3163
(dp3164
g8
g11
sg142
Nsg143
(dp3165
sg145
Nsg26
g29
sg146
(lp3166
I11
aI15
asg148
Nsg149
VJudges 11:15
p3167
sg151
(lp3168
sg153
g104
sg154
Nsg155
(lp3169
I11
aI15
asg157
Nsg158
g3167
sg159
(lp3170
sg161
g60
sg162
Nsg163
Nsg164
Nsbag2
(g3
g4
Ntp3171
Rp3172
(dp3173
g8
g11
sg142
Nsg143
(dp3174
sg145
Nsg26
g29
sg146
(lp3175
I11
aI16
asg148
Nsg149
VJudges 11:16
p3176
sg151
(lp3177
sg153
g104
sg154
Nsg155
(lp3178
I11
aI16
asg157
Nsg158
g3176
sg159
(lp3179
sg161
g60
sg162
Nsg163
Nsg164
Nsbag2
(g3
g4
Ntp3180
Rp3181
(dp3182
g8
g11
sg142
Nsg143
(dp3183
sg145
Nsg26
g29
sg146
(lp3184
I11
aI17
asg148
Nsg149
VJudges 11:17
p3185
sg151
(lp3186
sg153
g104
sg154
Nsg155
(lp3187
I11
aI17
asg157
Nsg158
g3185
sg159
(lp3188
sg161
g60
sg162
Nsg163
Nsg164
Nsbag2
(g3
g4
Ntp3189
Rp3190
(dp3191
g8
g11
sg142
Nsg143
(dp3192
sg145
Nsg26
g29
sg146
(lp3193
I11
aI18
asg148
Nsg149
VJudges 11:18
p3194
sg151
(lp3195
sg153
g104
sg154
Nsg155
(lp3196
I11
aI18
asg157
Nsg158
g3194
sg159
(lp3197
sg161
g60
sg162
Nsg163
Nsg164
Nsbag2
(g3
g4
Ntp3198
Rp3199
(dp3200
g8
g11
sg142
Nsg143
(dp3201
sg145
Nsg26
g29
sg146
(lp3202
I11
aI19
asg148
Nsg149
VJudges 11:19
p3203
sg151
(lp3204
sg153
g104
sg154
Nsg155
(lp3205
I11
aI19
asg157
Nsg158
g3203
sg159
(lp3206
sg161
g60
sg162
Nsg163
Nsg164
Nsbag2
(g3
g4
Ntp3207
Rp3208
(dp3209
g8
g11
sg142
Nsg143
(dp3210
sg145
Nsg26
g29
sg146
(lp3211
I11
aI20
asg148
Nsg149
VJudges 11:20
p3212
sg151
(lp3213
sg153
g104
sg154
Nsg155
(lp3214
I11
aI20
asg157
Nsg158
g3212
sg159
(lp3215
sg161
g60
sg162
Nsg163
Nsg164
Nsbag2
(g3
g4
Ntp3216
Rp3217
(dp3218
g8
g11
sg142
Nsg143
(dp3219
sg145
Nsg26
g29
sg146
(lp3220
I11
aI21
asg148
Nsg149
VJudges 11:21
p3221
sg151
(lp3222
sg153
g104
sg154
Nsg155
(lp3223
I11
aI21
asg157
Nsg158
g3221
sg159
(lp3224
sg161
g60
sg162
Nsg163
Nsg164
Nsbag2
(g3
g4
Ntp3225
Rp3226
(dp3227
g8
g11
sg142
Nsg143
(dp3228
sg145
Nsg26
g29
sg146
(lp3229
I11
aI22
asg148
Nsg149
VJudges 11:22
p3230
sg151
(lp3231
sg153
g104
sg154
Nsg155
(lp3232
I11
aI22
asg157
Nsg158
g3230
sg159
(lp3233
sg161
g60
sg162
Nsg163
Nsg164
Nsbag2
(g3
g4
Ntp3234
Rp3235
(dp3236
g8
g11
sg142
Nsg143
(dp3237
sg145
Nsg26
g29
sg146
(lp3238
I11
aI23
asg148
Nsg149
VJudges 11:23
p3239
sg151
(lp3240
sg153
g104
sg154
Nsg155
(lp3241
I11
aI23
asg157
Nsg158
g3239
sg159
(lp3242
sg161
g60
sg162
Nsg163
Nsg164
Nsbag2
(g3
g4
Ntp3243
Rp3244
(dp3245
g8
g11
sg142
Nsg143
(dp3246
sg145
Nsg26
g29
sg146
(lp3247
I11
aI24
asg148
Nsg149
VJudges 11:24
p3248
sg151
(lp3249
sg153
g104
sg154
Nsg155
(lp3250
I11
aI24
asg157
Nsg158
g3248
sg159
(lp3251
sg161
g60
sg162
Nsg163
Nsg164
Nsbag2
(g3
g4
Ntp3252
Rp3253
(dp3254
g8
g11
sg142
Nsg143
(dp3255
sg145
Nsg26
g29
sg146
(lp3256
I11
aI25
asg148
Nsg149
VJudges 11:25
p3257
sg151
(lp3258
sg153
g104
sg154
Nsg155
(lp3259
I11
aI25
asg157
Nsg158
g3257
sg159
(lp3260
sg161
g60
sg162
Nsg163
Nsg164
Nsbag2
(g3
g4
Ntp3261
Rp3262
(dp3263
g8
g11
sg142
Nsg143
(dp3264
sg145
Nsg26
g29
sg146
(lp3265
I11
aI26
asg148
Nsg149
VJudges 11:26
p3266
sg151
(lp3267
sg153
g104
sg154
Nsg155
(lp3268
I11
aI26
asg157
Nsg158
g3266
sg159
(lp3269
sg161
g60
sg162
Nsg163
Nsg164
Nsbag2
(g3
g4
Ntp3270
Rp3271
(dp3272
g8
g11
sg142
Nsg143
(dp3273
sg145
Nsg26
g29
sg146
(lp3274
I11
aI27
asg148
Nsg149
VJudges 11:27
p3275
sg151
(lp3276
sg153
g104
sg154
Nsg155
(lp3277
I11
aI27
asg157
Nsg158
g3275
sg159
(lp3278
sg161
g60
sg162
Nsg163
Nsg164
Nsbag2
(g3
g4
Ntp3279
Rp3280
(dp3281
g8
g11
sg142
Nsg143
(dp3282
sg145
Nsg26
g29
sg146
(lp3283
I11
aI28
asg148
Nsg149
VJudges 11:28
p3284
sg151
(lp3285
sg153
g104
sg154
Nsg155
(lp3286
I11
aI28
asg157
Nsg158
g3284
sg159
(lp3287
sg161
g60
sg162
Nsg163
Nsg164
Nsbag2
(g3
g4
Ntp3288
Rp3289
(dp3290
g8
g11
sg142
Nsg143
(dp3291
sg145
Nsg26
g29
sg146
(lp3292
I11
aI29
asg148
Nsg149
VJudges 11:29
p3293
sg151
(lp3294
sg153
g104
sg154
Nsg155
(lp3295
I11
aI29
asg157
Nsg158
g3293
sg159
(lp3296
sg161
g60
sg162
Nsg163
Nsg164
Nsbag2
(g3
g4
Ntp3297
Rp3298
(dp3299
g8
g11
sg142
Nsg143
(dp3300
sg145
Nsg26
g29
sg146
(lp3301
I11
aI30
asg148
Nsg149
VJudges 11:30
p3302
sg151
(lp3303
sg153
g104
sg154
Nsg155
(lp3304
I11
aI30
asg157
Nsg158
g3302
sg159
(lp3305
sg161
g60
sg162
Nsg163
Nsg164
Nsbag2
(g3
g4
Ntp3306
Rp3307
(dp3308
g8
g11
sg142
Nsg143
(dp3309
sg145
Nsg26
g29
sg146
(lp3310
I11
aI31
asg148
Nsg149
VJudges 11:31
p3311
sg151
(lp3312
sg153
g104
sg154
Nsg155
(lp3313
I11
aI31
asg157
Nsg158
g3311
sg159
(lp3314
sg161
g60
sg162
Nsg163
Nsg164
Nsbag2
(g3
g4
Ntp3315
Rp3316
(dp3317
g8
g11
sg142
Nsg143
(dp3318
sg145
Nsg26
g29
sg146
(lp3319
I11
aI32
asg148
Nsg149
VJudges 11:32
p3320
sg151
(lp3321
sg153
g104
sg154
Nsg155
(lp3322
I11
aI32
asg157
Nsg158
g3320
sg159
(lp3323
sg161
g60
sg162
Nsg163
Nsg164
Nsbag2
(g3
g4
Ntp3324
Rp3325
(dp3326
g8
g11
sg142
Nsg143
(dp3327
sg145
Nsg26
g29
sg146
(lp3328
I11
aI33
asg148
Nsg149
VJudges 11:33
p3329
sg151
(lp3330
sg153
g104
sg154
Nsg155
(lp3331
I11
aI33
asg157
Nsg158
g3329
sg159
(lp3332
sg161
g60
sg162
Nsg163
Nsg164
Nsbag2
(g3
g4
Ntp3333
Rp3334
(dp3335
g8
g11
sg142
Nsg143
(dp3336
sg145
Nsg26
g29
sg146
(lp3337
I11
aI34
asg148
Nsg149
VJudges 11:34
p3338
sg151
(lp3339
sg153
g104
sg154
Nsg155
(lp3340
I11
aI34
asg157
Nsg158
g3338
sg159
(lp3341
sg161
g60
sg162
Nsg163
Nsg164
Nsbag2
(g3
g4
Ntp3342
Rp3343
(dp3344
g8
g11
sg142
Nsg143
(dp3345
sg145
Nsg26
g29
sg146
(lp3346
I11
aI35
asg148
Nsg149
VJudges 11:35
p3347
sg151
(lp3348
sg153
g104
sg154
Nsg155
(lp3349
I11
aI35
asg157
Nsg158
g3347
sg159
(lp3350
sg161
g60
sg162
Nsg163
Nsg164
Nsbag2
(g3
g4
Ntp3351
Rp3352
(dp3353
g8
g11
sg142
Nsg143
(dp3354
sg145
Nsg26
g29
sg146
(lp3355
I11
aI36
asg148
Nsg149
VJudges 11:36
p3356
sg151
(lp3357
sg153
g104
sg154
Nsg155
(lp3358
I11
aI36
asg157
Nsg158
g3356
sg159
(lp3359
sg161
g60
sg162
Nsg163
Nsg164
Nsbag2
(g3
g4
Ntp3360
Rp3361
(dp3362
g8
g11
sg142
Nsg143
(dp3363
sg145
Nsg26
g29
sg146
(lp3364
I11
aI37
asg148
Nsg149
VJudges 11:37
p3365
sg151
(lp3366
sg153
g104
sg154
Nsg155
(lp3367
I11
aI37
asg157
Nsg158
g3365
sg159
(lp3368
sg161
g60
sg162
Nsg163
Nsg164
Nsbag2
(g3
g4
Ntp3369
Rp3370
(dp3371
g8
g11
sg142
Nsg143
(dp3372
sg145
Nsg26
g29
sg146
(lp3373
I11
aI38
asg148
Nsg149
VJudges 11:38
p3374
sg151
(lp3375
sg153
g104
sg154
Nsg155
(lp3376
I11
aI38
asg157
Nsg158
g3374
sg159
(lp3377
sg161
g60
sg162
Nsg163
Nsg164
Nsbag2
(g3
g4
Ntp3378
Rp3379
(dp3380
g8
g11
sg142
Nsg143
(dp3381
sg145
Nsg26
g29
sg146
(lp3382
I11
aI39
asg148
Nsg149
VJudges 11:39
p3383
sg151
(lp3384
sg153
g104
sg154
Nsg155
(lp3385
I11
aI39
asg157
Nsg158
g3383
sg159
(lp3386
sg161
g60
sg162
Nsg163
Nsg164
Nsbag2
(g3
g4
Ntp3387
Rp3388
(dp3389
g8
g11
sg142
Nsg143
(dp3390
sg145
Nsg26
g29
sg146
(lp3391
I11
aI40
asg148
Nsg149
VJudges 11:40
p3392
sg151
(lp3393
sg153
g104
sg154
Nsg155
(lp3394
I11
aI40
asg157
Nsg158
g3392
sg159
(lp3395
sg161
g60
sg162
Nsg163
Nsg164
Nsbag2
(g3
g4
Ntp3396
Rp3397
(dp3398
g8
g11
sg142
Nsg143
(dp3399
sg145
Nsg26
g29
sg146
(lp3400
I12
aI1
asg148
Nsg149
VJudges 12:1
p3401
sg151
(lp3402
sg153
g104
sg154
Nsg155
(lp3403
I12
aI1
asg157
Nsg158
g3401
sg159
(lp3404
sg161
g60
sg162
Nsg163
Nsg164
Nsbag2
(g3
g4
Ntp3405
Rp3406
(dp3407
g8
g11
sg142
Nsg143
(dp3408
sg145
Nsg26
g29
sg146
(lp3409
I12
aI2
asg148
Nsg149
VJudges 12:2
p3410
sg151
(lp3411
sg153
g104
sg154
Nsg155
(lp3412
I12
aI2
asg157
Nsg158
g3410
sg159
(lp3413
sg161
g60
sg162
Nsg163
Nsg164
Nsbag2
(g3
g4
Ntp3414
Rp3415
(dp3416
g8
g11
sg142
Nsg143
(dp3417
sg145
Nsg26
g29
sg146
(lp3418
I12
aI3
asg148
Nsg149
VJudges 12:3
p3419
sg151
(lp3420
sg153
g104
sg154
Nsg155
(lp3421
I12
aI3
asg157
Nsg158
g3419
sg159
(lp3422
sg161
g60
sg162
Nsg163
Nsg164
Nsbag2
(g3
g4
Ntp3423
Rp3424
(dp3425
g8
g11
sg142
Nsg143
(dp3426
sg145
Nsg26
g29
sg146
(lp3427
I12
aI4
asg148
Nsg149
VJudges 12:4
p3428
sg151
(lp3429
sg153
g104
sg154
Nsg155
(lp3430
I12
aI4
asg157
Nsg158
g3428
sg159
(lp3431
sg161
g60
sg162
Nsg163
Nsg164
Nsbag2
(g3
g4
Ntp3432
Rp3433
(dp3434
g8
g11
sg142
Nsg143
(dp3435
sg145
Nsg26
g29
sg146
(lp3436
I12
aI5
asg148
Nsg149
VJudges 12:5
p3437
sg151
(lp3438
sg153
g104
sg154
Nsg155
(lp3439
I12
aI5
asg157
Nsg158
g3437
sg159
(lp3440
sg161
g60
sg162
Nsg163
Nsg164
Nsbag2
(g3
g4
Ntp3441
Rp3442
(dp3443
g8
g11
sg142
Nsg143
(dp3444
sg145
Nsg26
g29
sg146
(lp3445
I12
aI6
asg148
Nsg149
VJudges 12:6
p3446
sg151
(lp3447
sg153
g104
sg154
Nsg155
(lp3448
I12
aI6
asg157
Nsg158
g3446
sg159
(lp3449
sg161
g60
sg162
Nsg163
Nsg164
Nsbag2
(g3
g4
Ntp3450
Rp3451
(dp3452
g8
g11
sg142
Nsg143
(dp3453
sg145
Nsg26
g29
sg146
(lp3454
I12
aI7
asg148
Nsg149
VJudges 12:7
p3455
sg151
(lp3456
sg153
g104
sg154
Nsg155
(lp3457
I12
aI7
asg157
Nsg158
g3455
sg159
(lp3458
sg161
g60
sg162
Nsg163
Nsg164
Nsbag2
(g3
g4
Ntp3459
Rp3460
(dp3461
g8
g11
sg142
Nsg143
(dp3462
sg145
Nsg26
g29
sg146
(lp3463
I12
aI8
asg148
Nsg149
VJudges 12:8
p3464
sg151
(lp3465
sg153
g104
sg154
Nsg155
(lp3466
I12
aI8
asg157
Nsg158
g3464
sg159
(lp3467
sg161
g60
sg162
Nsg163
Nsg164
Nsbag2
(g3
g4
Ntp3468
Rp3469
(dp3470
g8
g11
sg142
Nsg143
(dp3471
sg145
Nsg26
g29
sg146
(lp3472
I12
aI9
asg148
Nsg149
VJudges 12:9
p3473
sg151
(lp3474
sg153
g104
sg154
Nsg155
(lp3475
I12
aI9
asg157
Nsg158
g3473
sg159
(lp3476
sg161
g60
sg162
Nsg163
Nsg164
Nsbag2
(g3
g4
Ntp3477
Rp3478
(dp3479
g8
g11
sg142
Nsg143
(dp3480
sg145
Nsg26
g29
sg146
(lp3481
I12
aI10
asg148
Nsg149
VJudges 12:10
p3482
sg151
(lp3483
sg153
g104
sg154
Nsg155
(lp3484
I12
aI10
asg157
Nsg158
g3482
sg159
(lp3485
sg161
g60
sg162
Nsg163
Nsg164
Nsbag2
(g3
g4
Ntp3486
Rp3487
(dp3488
g8
g11
sg142
Nsg143
(dp3489
sg145
Nsg26
g29
sg146
(lp3490
I12
aI11
asg148
Nsg149
VJudges 12:11
p3491
sg151
(lp3492
sg153
g104
sg154
Nsg155
(lp3493
I12
aI11
asg157
Nsg158
g3491
sg159
(lp3494
sg161
g60
sg162
Nsg163
Nsg164
Nsbag2
(g3
g4
Ntp3495
Rp3496
(dp3497
g8
g11
sg142
Nsg143
(dp3498
sg145
Nsg26
g29
sg146
(lp3499
I12
aI12
asg148
Nsg149
VJudges 12:12
p3500
sg151
(lp3501
sg153
g104
sg154
Nsg155
(lp3502
I12
aI12
asg157
Nsg158
g3500
sg159
(lp3503
sg161
g60
sg162
Nsg163
Nsg164
Nsbag2
(g3
g4
Ntp3504
Rp3505
(dp3506
g8
g11
sg142
Nsg143
(dp3507
sg145
Nsg26
g29
sg146
(lp3508
I12
aI13
asg148
Nsg149
VJudges 12:13
p3509
sg151
(lp3510
sg153
g104
sg154
Nsg155
(lp3511
I12
aI13
asg157
Nsg158
g3509
sg159
(lp3512
sg161
g60
sg162
Nsg163
Nsg164
Nsbag2
(g3
g4
Ntp3513
Rp3514
(dp3515
g8
g11
sg142
Nsg143
(dp3516
sg145
Nsg26
g29
sg146
(lp3517
I12
aI14
asg148
Nsg149
VJudges 12:14
p3518
sg151
(lp3519
sg153
g104
sg154
Nsg155
(lp3520
I12
aI14
asg157
Nsg158
g3518
sg159
(lp3521
sg161
g60
sg162
Nsg163
Nsg164
Nsbag2
(g3
g4
Ntp3522
Rp3523
(dp3524
g8
g11
sg142
Nsg143
(dp3525
sg145
Nsg26
g29
sg146
(lp3526
I12
aI15
asg148
Nsg149
VJudges 12:15
p3527
sg151
(lp3528
sg153
g104
sg154
Nsg155
(lp3529
I12
aI15
asg157
Nsg158
g3527
sg159
(lp3530
sg161
g60
sg162
Nsg163
Nsg164
Nsbag2
(g3
g4
Ntp3531
Rp3532
(dp3533
g8
g11
sg142
Nsg143
(dp3534
sg145
Nsg26
g29
sg146
(lp3535
I13
aI1
asg148
Nsg149
VJudges 13:1
p3536
sg151
(lp3537
sg153
g104
sg154
Nsg155
(lp3538
I13
aI1
asg157
Nsg158
g3536
sg159
(lp3539
sg161
g60
sg162
Nsg163
Nsg164
Nsbag2
(g3
g4
Ntp3540
Rp3541
(dp3542
g8
g11
sg142
Nsg143
(dp3543
sg145
Nsg26
g29
sg146
(lp3544
I13
aI2
asg148
Nsg149
VJudges 13:2
p3545
sg151
(lp3546
sg153
g104
sg154
Nsg155
(lp3547
I13
aI2
asg157
Nsg158
g3545
sg159
(lp3548
sg161
g60
sg162
Nsg163
Nsg164
Nsbag2
(g3
g4
Ntp3549
Rp3550
(dp3551
g8
g11
sg142
Nsg143
(dp3552
sg145
Nsg26
g29
sg146
(lp3553
I13
aI3
asg148
Nsg149
VJudges 13:3
p3554
sg151
(lp3555
sg153
g104
sg154
Nsg155
(lp3556
I13
aI3
asg157
Nsg158
g3554
sg159
(lp3557
sg161
g60
sg162
Nsg163
Nsg164
Nsbag2
(g3
g4
Ntp3558
Rp3559
(dp3560
g8
g11
sg142
Nsg143
(dp3561
sg145
Nsg26
g29
sg146
(lp3562
I13
aI4
asg148
Nsg149
VJudges 13:4
p3563
sg151
(lp3564
sg153
g104
sg154
Nsg155
(lp3565
I13
aI4
asg157
Nsg158
g3563
sg159
(lp3566
sg161
g60
sg162
Nsg163
Nsg164
Nsbag2
(g3
g4
Ntp3567
Rp3568
(dp3569
g8
g11
sg142
Nsg143
(dp3570
sg145
Nsg26
g29
sg146
(lp3571
I13
aI5
asg148
Nsg149
VJudges 13:5
p3572
sg151
(lp3573
sg153
g104
sg154
Nsg155
(lp3574
I13
aI5
asg157
Nsg158
g3572
sg159
(lp3575
sg161
g60
sg162
Nsg163
Nsg164
Nsbag2
(g3
g4
Ntp3576
Rp3577
(dp3578
g8
g11
sg142
Nsg143
(dp3579
sg145
Nsg26
g29
sg146
(lp3580
I13
aI6
asg148
Nsg149
VJudges 13:6
p3581
sg151
(lp3582
sg153
g104
sg154
Nsg155
(lp3583
I13
aI6
asg157
Nsg158
g3581
sg159
(lp3584
sg161
g60
sg162
Nsg163
Nsg164
Nsbag2
(g3
g4
Ntp3585
Rp3586
(dp3587
g8
g11
sg142
Nsg143
(dp3588
sg145
Nsg26
g29
sg146
(lp3589
I13
aI7
asg148
Nsg149
VJudges 13:7
p3590
sg151
(lp3591
sg153
g104
sg154
Nsg155
(lp3592
I13
aI7
asg157
Nsg158
g3590
sg159
(lp3593
sg161
g60
sg162
Nsg163
Nsg164
Nsbag2
(g3
g4
Ntp3594
Rp3595
(dp3596
g8
g11
sg142
Nsg143
(dp3597
sg145
Nsg26
g29
sg146
(lp3598
I13
aI8
asg148
Nsg149
VJudges 13:8
p3599
sg151
(lp3600
sg153
g104
sg154
Nsg155
(lp3601
I13
aI8
asg157
Nsg158
g3599
sg159
(lp3602
sg161
g60
sg162
Nsg163
Nsg164
Nsbag2
(g3
g4
Ntp3603
Rp3604
(dp3605
g8
g11
sg142
Nsg143
(dp3606
sg145
Nsg26
g29
sg146
(lp3607
I13
aI9
asg148
Nsg149
VJudges 13:9
p3608
sg151
(lp3609
sg153
g104
sg154
Nsg155
(lp3610
I13
aI9
asg157
Nsg158
g3608
sg159
(lp3611
sg161
g60
sg162
Nsg163
Nsg164
Nsbag2
(g3
g4
Ntp3612
Rp3613
(dp3614
g8
g11
sg142
Nsg143
(dp3615
sg145
Nsg26
g29
sg146
(lp3616
I13
aI10
asg148
Nsg149
VJudges 13:10
p3617
sg151
(lp3618
sg153
g104
sg154
Nsg155
(lp3619
I13
aI10
asg157
Nsg158
g3617
sg159
(lp3620
sg161
g60
sg162
Nsg163
Nsg164
Nsbag2
(g3
g4
Ntp3621
Rp3622
(dp3623
g8
g11
sg142
Nsg143
(dp3624
sg145
Nsg26
g29
sg146
(lp3625
I13
aI11
asg148
Nsg149
VJudges 13:11
p3626
sg151
(lp3627
sg153
g104
sg154
Nsg155
(lp3628
I13
aI11
asg157
Nsg158
g3626
sg159
(lp3629
sg161
g60
sg162
Nsg163
Nsg164
Nsbag2
(g3
g4
Ntp3630
Rp3631
(dp3632
g8
g11
sg142
Nsg143
(dp3633
sg145
Nsg26
g29
sg146
(lp3634
I13
aI12
asg148
Nsg149
VJudges 13:12
p3635
sg151
(lp3636
sg153
g104
sg154
Nsg155
(lp3637
I13
aI12
asg157
Nsg158
g3635
sg159
(lp3638
sg161
g60
sg162
Nsg163
Nsg164
Nsbag2
(g3
g4
Ntp3639
Rp3640
(dp3641
g8
g11
sg142
Nsg143
(dp3642
sg145
Nsg26
g29
sg146
(lp3643
I13
aI13
asg148
Nsg149
VJudges 13:13
p3644
sg151
(lp3645
sg153
g104
sg154
Nsg155
(lp3646
I13
aI13
asg157
Nsg158
g3644
sg159
(lp3647
sg161
g60
sg162
Nsg163
Nsg164
Nsbag2
(g3
g4
Ntp3648
Rp3649
(dp3650
g8
g11
sg142
Nsg143
(dp3651
sg145
Nsg26
g29
sg146
(lp3652
I13
aI14
asg148
Nsg149
VJudges 13:14
p3653
sg151
(lp3654
sg153
g104
sg154
Nsg155
(lp3655
I13
aI14
asg157
Nsg158
g3653
sg159
(lp3656
sg161
g60
sg162
Nsg163
Nsg164
Nsbag2
(g3
g4
Ntp3657
Rp3658
(dp3659
g8
g11
sg142
Nsg143
(dp3660
sg145
Nsg26
g29
sg146
(lp3661
I13
aI15
asg148
Nsg149
VJudges 13:15
p3662
sg151
(lp3663
sg153
g104
sg154
Nsg155
(lp3664
I13
aI15
asg157
Nsg158
g3662
sg159
(lp3665
sg161
g60
sg162
Nsg163
Nsg164
Nsbag2
(g3
g4
Ntp3666
Rp3667
(dp3668
g8
g11
sg142
Nsg143
(dp3669
sg145
Nsg26
g29
sg146
(lp3670
I13
aI16
asg148
Nsg149
VJudges 13:16
p3671
sg151
(lp3672
sg153
g104
sg154
Nsg155
(lp3673
I13
aI16
asg157
Nsg158
g3671
sg159
(lp3674
sg161
g60
sg162
Nsg163
Nsg164
Nsbag2
(g3
g4
Ntp3675
Rp3676
(dp3677
g8
g11
sg142
Nsg143
(dp3678
sg145
Nsg26
g29
sg146
(lp3679
I13
aI17
asg148
Nsg149
VJudges 13:17
p3680
sg151
(lp3681
sg153
g104
sg154
Nsg155
(lp3682
I13
aI17
asg157
Nsg158
g3680
sg159
(lp3683
sg161
g60
sg162
Nsg163
Nsg164
Nsbag2
(g3
g4
Ntp3684
Rp3685
(dp3686
g8
g11
sg142
Nsg143
(dp3687
sg145
Nsg26
g29
sg146
(lp3688
I13
aI18
asg148
Nsg149
VJudges 13:18
p3689
sg151
(lp3690
sg153
g104
sg154
Nsg155
(lp3691
I13
aI18
asg157
Nsg158
g3689
sg159
(lp3692
sg161
g60
sg162
Nsg163
Nsg164
Nsbag2
(g3
g4
Ntp3693
Rp3694
(dp3695
g8
g11
sg142
Nsg143
(dp3696
sg145
Nsg26
g29
sg146
(lp3697
I13
aI19
asg148
Nsg149
VJudges 13:19
p3698
sg151
(lp3699
sg153
g104
sg154
Nsg155
(lp3700
I13
aI19
asg157
Nsg158
g3698
sg159
(lp3701
sg161
g60
sg162
Nsg163
Nsg164
Nsbag2
(g3
g4
Ntp3702
Rp3703
(dp3704
g8
g11
sg142
Nsg143
(dp3705
sg145
Nsg26
g29
sg146
(lp3706
I13
aI20
asg148
Nsg149
VJudges 13:20
p3707
sg151
(lp3708
sg153
g104
sg154
Nsg155
(lp3709
I13
aI20
asg157
Nsg158
g3707
sg159
(lp3710
sg161
g60
sg162
Nsg163
Nsg164
Nsbag2
(g3
g4
Ntp3711
Rp3712
(dp3713
g8
g11
sg142
Nsg143
(dp3714
sg145
Nsg26
g29
sg146
(lp3715
I13
aI21
asg148
Nsg149
VJudges 13:21
p3716
sg151
(lp3717
sg153
g104
sg154
Nsg155
(lp3718
I13
aI21
asg157
Nsg158
g3716
sg159
(lp3719
sg161
g60
sg162
Nsg163
Nsg164
Nsbag2
(g3
g4
Ntp3720
Rp3721
(dp3722
g8
g11
sg142
Nsg143
(dp3723
sg145
Nsg26
g29
sg146
(lp3724
I13
aI22
asg148
Nsg149
VJudges 13:22
p3725
sg151
(lp3726
sg153
g104
sg154
Nsg155
(lp3727
I13
aI22
asg157
Nsg158
g3725
sg159
(lp3728
sg161
g60
sg162
Nsg163
Nsg164
Nsbag2
(g3
g4
Ntp3729
Rp3730
(dp3731
g8
g11
sg142
Nsg143
(dp3732
sg145
Nsg26
g29
sg146
(lp3733
I13
aI23
asg148
Nsg149
VJudges 13:23
p3734
sg151
(lp3735
sg153
g104
sg154
Nsg155
(lp3736
I13
aI23
asg157
Nsg158
g3734
sg159
(lp3737
sg161
g60
sg162
Nsg163
Nsg164
Nsbag2
(g3
g4
Ntp3738
Rp3739
(dp3740
g8
g11
sg142
Nsg143
(dp3741
sg145
Nsg26
g29
sg146
(lp3742
I13
aI24
asg148
Nsg149
VJudges 13:24
p3743
sg151
(lp3744
sg153
g104
sg154
Nsg155
(lp3745
I13
aI24
asg157
Nsg158
g3743
sg159
(lp3746
sg161
g60
sg162
Nsg163
Nsg164
Nsbag2
(g3
g4
Ntp3747
Rp3748
(dp3749
g8
g11
sg142
Nsg143
(dp3750
sg145
Nsg26
g29
sg146
(lp3751
I13
aI25
asg148
Nsg149
VJudges 13:25
p3752
sg151
(lp3753
sg153
g104
sg154
Nsg155
(lp3754
I13
aI25
asg157
Nsg158
g3752
sg159
(lp3755
sg161
g60
sg162
Nsg163
Nsg164
Nsbag2
(g3
g4
Ntp3756
Rp3757
(dp3758
g8
g11
sg142
Nsg143
(dp3759
sg145
Nsg26
g29
sg146
(lp3760
I14
aI1
asg148
Nsg149
VJudges 14:1
p3761
sg151
(lp3762
sg153
g104
sg154
Nsg155
(lp3763
I14
aI1
asg157
Nsg158
g3761
sg159
(lp3764
sg161
g60
sg162
Nsg163
Nsg164
Nsbag2
(g3
g4
Ntp3765
Rp3766
(dp3767
g8
g11
sg142
Nsg143
(dp3768
sg145
Nsg26
g29
sg146
(lp3769
I14
aI2
asg148
Nsg149
VJudges 14:2
p3770
sg151
(lp3771
sg153
g104
sg154
Nsg155
(lp3772
I14
aI2
asg157
Nsg158
g3770
sg159
(lp3773
sg161
g60
sg162
Nsg163
Nsg164
Nsbag2
(g3
g4
Ntp3774
Rp3775
(dp3776
g8
g11
sg142
Nsg143
(dp3777
sg145
Nsg26
g29
sg146
(lp3778
I14
aI3
asg148
Nsg149
VJudges 14:3
p3779
sg151
(lp3780
sg153
g104
sg154
Nsg155
(lp3781
I14
aI3
asg157
Nsg158
g3779
sg159
(lp3782
sg161
g60
sg162
Nsg163
Nsg164
Nsbag2
(g3
g4
Ntp3783
Rp3784
(dp3785
g8
g11
sg142
Nsg143
(dp3786
sg145
Nsg26
g29
sg146
(lp3787
I14
aI4
asg148
Nsg149
VJudges 14:4
p3788
sg151
(lp3789
sg153
g104
sg154
Nsg155
(lp3790
I14
aI4
asg157
Nsg158
g3788
sg159
(lp3791
sg161
g60
sg162
Nsg163
Nsg164
Nsbag2
(g3
g4
Ntp3792
Rp3793
(dp3794
g8
g11
sg142
Nsg143
(dp3795
sg145
Nsg26
g29
sg146
(lp3796
I14
aI5
asg148
Nsg149
VJudges 14:5
p3797
sg151
(lp3798
sg153
g104
sg154
Nsg155
(lp3799
I14
aI5
asg157
Nsg158
g3797
sg159
(lp3800
sg161
g60
sg162
Nsg163
Nsg164
Nsbag2
(g3
g4
Ntp3801
Rp3802
(dp3803
g8
g11
sg142
Nsg143
(dp3804
sg145
Nsg26
g29
sg146
(lp3805
I14
aI6
asg148
Nsg149
VJudges 14:6
p3806
sg151
(lp3807
sg153
g104
sg154
Nsg155
(lp3808
I14
aI6
asg157
Nsg158
g3806
sg159
(lp3809
sg161
g60
sg162
Nsg163
Nsg164
Nsbag2
(g3
g4
Ntp3810
Rp3811
(dp3812
g8
g11
sg142
Nsg143
(dp3813
sg145
Nsg26
g29
sg146
(lp3814
I14
aI7
asg148
Nsg149
VJudges 14:7
p3815
sg151
(lp3816
sg153
g104
sg154
Nsg155
(lp3817
I14
aI7
asg157
Nsg158
g3815
sg159
(lp3818
sg161
g60
sg162
Nsg163
Nsg164
Nsbag2
(g3
g4
Ntp3819
Rp3820
(dp3821
g8
g11
sg142
Nsg143
(dp3822
sg145
Nsg26
g29
sg146
(lp3823
I14
aI8
asg148
Nsg149
VJudges 14:8
p3824
sg151
(lp3825
sg153
g104
sg154
Nsg155
(lp3826
I14
aI8
asg157
Nsg158
g3824
sg159
(lp3827
sg161
g60
sg162
Nsg163
Nsg164
Nsbag2
(g3
g4
Ntp3828
Rp3829
(dp3830
g8
g11
sg142
Nsg143
(dp3831
sg145
Nsg26
g29
sg146
(lp3832
I14
aI9
asg148
Nsg149
VJudges 14:9
p3833
sg151
(lp3834
sg153
g104
sg154
Nsg155
(lp3835
I14
aI9
asg157
Nsg158
g3833
sg159
(lp3836
sg161
g60
sg162
Nsg163
Nsg164
Nsbag2
(g3
g4
Ntp3837
Rp3838
(dp3839
g8
g11
sg142
Nsg143
(dp3840
sg145
Nsg26
g29
sg146
(lp3841
I14
aI10
asg148
Nsg149
VJudges 14:10
p3842
sg151
(lp3843
sg153
g104
sg154
Nsg155
(lp3844
I14
aI10
asg157
Nsg158
g3842
sg159
(lp3845
sg161
g60
sg162
Nsg163
Nsg164
Nsbag2
(g3
g4
Ntp3846
Rp3847
(dp3848
g8
g11
sg142
Nsg143
(dp3849
sg145
Nsg26
g29
sg146
(lp3850
I14
aI11
asg148
Nsg149
VJudges 14:11
p3851
sg151
(lp3852
sg153
g104
sg154
Nsg155
(lp3853
I14
aI11
asg157
Nsg158
g3851
sg159
(lp3854
sg161
g60
sg162
Nsg163
Nsg164
Nsbag2
(g3
g4
Ntp3855
Rp3856
(dp3857
g8
g11
sg142
Nsg143
(dp3858
sg145
Nsg26
g29
sg146
(lp3859
I14
aI12
asg148
Nsg149
VJudges 14:12
p3860
sg151
(lp3861
sg153
g104
sg154
Nsg155
(lp3862
I14
aI12
asg157
Nsg158
g3860
sg159
(lp3863
sg161
g60
sg162
Nsg163
Nsg164
Nsbag2
(g3
g4
Ntp3864
Rp3865
(dp3866
g8
g11
sg142
Nsg143
(dp3867
sg145
Nsg26
g29
sg146
(lp3868
I14
aI13
asg148
Nsg149
VJudges 14:13
p3869
sg151
(lp3870
sg153
g104
sg154
Nsg155
(lp3871
I14
aI13
asg157
Nsg158
g3869
sg159
(lp3872
sg161
g60
sg162
Nsg163
Nsg164
Nsbag2
(g3
g4
Ntp3873
Rp3874
(dp3875
g8
g11
sg142
Nsg143
(dp3876
sg145
Nsg26
g29
sg146
(lp3877
I14
aI14
asg148
Nsg149
VJudges 14:14
p3878
sg151
(lp3879
sg153
g104
sg154
Nsg155
(lp3880
I14
aI14
asg157
Nsg158
g3878
sg159
(lp3881
sg161
g60
sg162
Nsg163
Nsg164
Nsbag2
(g3
g4
Ntp3882
Rp3883
(dp3884
g8
g11
sg142
Nsg143
(dp3885
sg145
Nsg26
g29
sg146
(lp3886
I14
aI15
asg148
Nsg149
VJudges 14:15
p3887
sg151
(lp3888
sg153
g104
sg154
Nsg155
(lp3889
I14
aI15
asg157
Nsg158
g3887
sg159
(lp3890
sg161
g60
sg162
Nsg163
Nsg164
Nsbag2
(g3
g4
Ntp3891
Rp3892
(dp3893
g8
g11
sg142
Nsg143
(dp3894
sg145
Nsg26
g29
sg146
(lp3895
I14
aI16
asg148
Nsg149
VJudges 14:16
p3896
sg151
(lp3897
sg153
g104
sg154
Nsg155
(lp3898
I14
aI16
asg157
Nsg158
g3896
sg159
(lp3899
sg161
g60
sg162
Nsg163
Nsg164
Nsbag2
(g3
g4
Ntp3900
Rp3901
(dp3902
g8
g11
sg142
Nsg143
(dp3903
sg145
Nsg26
g29
sg146
(lp3904
I14
aI17
asg148
Nsg149
VJudges 14:17
p3905
sg151
(lp3906
sg153
g104
sg154
Nsg155
(lp3907
I14
aI17
asg157
Nsg158
g3905
sg159
(lp3908
sg161
g60
sg162
Nsg163
Nsg164
Nsbag2
(g3
g4
Ntp3909
Rp3910
(dp3911
g8
g11
sg142
Nsg143
(dp3912
sg145
Nsg26
g29
sg146
(lp3913
I14
aI18
asg148
Nsg149
VJudges 14:18
p3914
sg151
(lp3915
sg153
g104
sg154
Nsg155
(lp3916
I14
aI18
asg157
Nsg158
g3914
sg159
(lp3917
sg161
g60
sg162
Nsg163
Nsg164
Nsbag2
(g3
g4
Ntp3918
Rp3919
(dp3920
g8
g11
sg142
Nsg143
(dp3921
sg145
Nsg26
g29
sg146
(lp3922
I14
aI19
asg148
Nsg149
VJudges 14:19
p3923
sg151
(lp3924
sg153
g104
sg154
Nsg155
(lp3925
I14
aI19
asg157
Nsg158
g3923
sg159
(lp3926
sg161
g60
sg162
Nsg163
Nsg164
Nsbag2
(g3
g4
Ntp3927
Rp3928
(dp3929
g8
g11
sg142
Nsg143
(dp3930
sg145
Nsg26
g29
sg146
(lp3931
I14
aI20
asg148
Nsg149
VJudges 14:20
p3932
sg151
(lp3933
sg153
g104
sg154
Nsg155
(lp3934
I14
aI20
asg157
Nsg158
g3932
sg159
(lp3935
sg161
g60
sg162
Nsg163
Nsg164
Nsbag2
(g3
g4
Ntp3936
Rp3937
(dp3938
g8
g11
sg142
Nsg143
(dp3939
sg145
Nsg26
g29
sg146
(lp3940
I15
aI1
asg148
Nsg149
VJudges 15:1
p3941
sg151
(lp3942
sg153
g104
sg154
Nsg155
(lp3943
I15
aI1
asg157
Nsg158
g3941
sg159
(lp3944
sg161
g60
sg162
Nsg163
Nsg164
Nsbag2
(g3
g4
Ntp3945
Rp3946
(dp3947
g8
g11
sg142
Nsg143
(dp3948
sg145
Nsg26
g29
sg146
(lp3949
I15
aI2
asg148
Nsg149
VJudges 15:2
p3950
sg151
(lp3951
sg153
g104
sg154
Nsg155
(lp3952
I15
aI2
asg157
Nsg158
g3950
sg159
(lp3953
sg161
g60
sg162
Nsg163
Nsg164
Nsbag2
(g3
g4
Ntp3954
Rp3955
(dp3956
g8
g11
sg142
Nsg143
(dp3957
sg145
Nsg26
g29
sg146
(lp3958
I15
aI3
asg148
Nsg149
VJudges 15:3
p3959
sg151
(lp3960
sg153
g104
sg154
Nsg155
(lp3961
I15
aI3
asg157
Nsg158
g3959
sg159
(lp3962
sg161
g60
sg162
Nsg163
Nsg164
Nsbag2
(g3
g4
Ntp3963
Rp3964
(dp3965
g8
g11
sg142
Nsg143
(dp3966
sg145
Nsg26
g29
sg146
(lp3967
I15
aI4
asg148
Nsg149
VJudges 15:4
p3968
sg151
(lp3969
sg153
g104
sg154
Nsg155
(lp3970
I15
aI4
asg157
Nsg158
g3968
sg159
(lp3971
sg161
g60
sg162
Nsg163
Nsg164
Nsbag2
(g3
g4
Ntp3972
Rp3973
(dp3974
g8
g11
sg142
Nsg143
(dp3975
sg145
Nsg26
g29
sg146
(lp3976
I15
aI5
asg148
Nsg149
VJudges 15:5
p3977
sg151
(lp3978
sg153
g104
sg154
Nsg155
(lp3979
I15
aI5
asg157
Nsg158
g3977
sg159
(lp3980
sg161
g60
sg162
Nsg163
Nsg164
Nsbag2
(g3
g4
Ntp3981
Rp3982
(dp3983
g8
g11
sg142
Nsg143
(dp3984
sg145
Nsg26
g29
sg146
(lp3985
I15
aI6
asg148
Nsg149
VJudges 15:6
p3986
sg151
(lp3987
sg153
g104
sg154
Nsg155
(lp3988
I15
aI6
asg157
Nsg158
g3986
sg159
(lp3989
sg161
g60
sg162
Nsg163
Nsg164
Nsbag2
(g3
g4
Ntp3990
Rp3991
(dp3992
g8
g11
sg142
Nsg143
(dp3993
sg145
Nsg26
g29
sg146
(lp3994
I15
aI7
asg148
Nsg149
VJudges 15:7
p3995
sg151
(lp3996
sg153
g104
sg154
Nsg155
(lp3997
I15
aI7
asg157
Nsg158
g3995
sg159
(lp3998
sg161
g60
sg162
Nsg163
Nsg164
Nsbag2
(g3
g4
Ntp3999
Rp4000
(dp4001
g8
g11
sg142
Nsg143
(dp4002
sg145
Nsg26
g29
sg146
(lp4003
I15
aI8
asg148
Nsg149
VJudges 15:8
p4004
sg151
(lp4005
sg153
g104
sg154
Nsg155
(lp4006
I15
aI8
asg157
Nsg158
g4004
sg159
(lp4007
sg161
g60
sg162
Nsg163
Nsg164
Nsbag2
(g3
g4
Ntp4008
Rp4009
(dp4010
g8
g11
sg142
Nsg143
(dp4011
sg145
Nsg26
g29
sg146
(lp4012
I15
aI9
asg148
Nsg149
VJudges 15:9
p4013
sg151
(lp4014
sg153
g104
sg154
Nsg155
(lp4015
I15
aI9
asg157
Nsg158
g4013
sg159
(lp4016
sg161
g60
sg162
Nsg163
Nsg164
Nsbag2
(g3
g4
Ntp4017
Rp4018
(dp4019
g8
g11
sg142
Nsg143
(dp4020
sg145
Nsg26
g29
sg146
(lp4021
I15
aI10
asg148
Nsg149
VJudges 15:10
p4022
sg151
(lp4023
sg153
g104
sg154
Nsg155
(lp4024
I15
aI10
asg157
Nsg158
g4022
sg159
(lp4025
sg161
g60
sg162
Nsg163
Nsg164
Nsbag2
(g3
g4
Ntp4026
Rp4027
(dp4028
g8
g11
sg142
Nsg143
(dp4029
sg145
Nsg26
g29
sg146
(lp4030
I15
aI11
asg148
Nsg149
VJudges 15:11
p4031
sg151
(lp4032
sg153
g104
sg154
Nsg155
(lp4033
I15
aI11
asg157
Nsg158
g4031
sg159
(lp4034
sg161
g60
sg162
Nsg163
Nsg164
Nsbag2
(g3
g4
Ntp4035
Rp4036
(dp4037
g8
g11
sg142
Nsg143
(dp4038
sg145
Nsg26
g29
sg146
(lp4039
I15
aI12
asg148
Nsg149
VJudges 15:12
p4040
sg151
(lp4041
sg153
g104
sg154
Nsg155
(lp4042
I15
aI12
asg157
Nsg158
g4040
sg159
(lp4043
sg161
g60
sg162
Nsg163
Nsg164
Nsbag2
(g3
g4
Ntp4044
Rp4045
(dp4046
g8
g11
sg142
Nsg143
(dp4047
sg145
Nsg26
g29
sg146
(lp4048
I15
aI13
asg148
Nsg149
VJudges 15:13
p4049
sg151
(lp4050
sg153
g104
sg154
Nsg155
(lp4051
I15
aI13
asg157
Nsg158
g4049
sg159
(lp4052
sg161
g60
sg162
Nsg163
Nsg164
Nsbag2
(g3
g4
Ntp4053
Rp4054
(dp4055
g8
g11
sg142
Nsg143
(dp4056
sg145
Nsg26
g29
sg146
(lp4057
I15
aI14
asg148
Nsg149
VJudges 15:14
p4058
sg151
(lp4059
sg153
g104
sg154
Nsg155
(lp4060
I15
aI14
asg157
Nsg158
g4058
sg159
(lp4061
sg161
g60
sg162
Nsg163
Nsg164
Nsbag2
(g3
g4
Ntp4062
Rp4063
(dp4064
g8
g11
sg142
Nsg143
(dp4065
sg145
Nsg26
g29
sg146
(lp4066
I15
aI15
asg148
Nsg149
VJudges 15:15
p4067
sg151
(lp4068
sg153
g104
sg154
Nsg155
(lp4069
I15
aI15
asg157
Nsg158
g4067
sg159
(lp4070
sg161
g60
sg162
Nsg163
Nsg164
Nsbag2
(g3
g4
Ntp4071
Rp4072
(dp4073
g8
g11
sg142
Nsg143
(dp4074
sg145
Nsg26
g29
sg146
(lp4075
I15
aI16
asg148
Nsg149
VJudges 15:16
p4076
sg151
(lp4077
sg153
g104
sg154
Nsg155
(lp4078
I15
aI16
asg157
Nsg158
g4076
sg159
(lp4079
sg161
g60
sg162
Nsg163
Nsg164
Nsbag2
(g3
g4
Ntp4080
Rp4081
(dp4082
g8
g11
sg142
Nsg143
(dp4083
sg145
Nsg26
g29
sg146
(lp4084
I15
aI17
asg148
Nsg149
VJudges 15:17
p4085
sg151
(lp4086
sg153
g104
sg154
Nsg155
(lp4087
I15
aI17
asg157
Nsg158
g4085
sg159
(lp4088
sg161
g60
sg162
Nsg163
Nsg164
Nsbag2
(g3
g4
Ntp4089
Rp4090
(dp4091
g8
g11
sg142
Nsg143
(dp4092
sg145
Nsg26
g29
sg146
(lp4093
I15
aI18
asg148
Nsg149
VJudges 15:18
p4094
sg151
(lp4095
sg153
g104
sg154
Nsg155
(lp4096
I15
aI18
asg157
Nsg158
g4094
sg159
(lp4097
sg161
g60
sg162
Nsg163
Nsg164
Nsbag2
(g3
g4
Ntp4098
Rp4099
(dp4100
g8
g11
sg142
Nsg143
(dp4101
sg145
Nsg26
g29
sg146
(lp4102
I15
aI19
asg148
Nsg149
VJudges 15:19
p4103
sg151
(lp4104
sg153
g104
sg154
Nsg155
(lp4105
I15
aI19
asg157
Nsg158
g4103
sg159
(lp4106
sg161
g60
sg162
Nsg163
Nsg164
Nsbag2
(g3
g4
Ntp4107
Rp4108
(dp4109
g8
g11
sg142
Nsg143
(dp4110
sg145
Nsg26
g29
sg146
(lp4111
I15
aI20
asg148
Nsg149
VJudges 15:20
p4112
sg151
(lp4113
sg153
g104
sg154
Nsg155
(lp4114
I15
aI20
asg157
Nsg158
g4112
sg159
(lp4115
sg161
g60
sg162
Nsg163
Nsg164
Nsbag2
(g3
g4
Ntp4116
Rp4117
(dp4118
g8
g11
sg142
Nsg143
(dp4119
sg145
Nsg26
g29
sg146
(lp4120
I16
aI1
asg148
Nsg149
VJudges 16:1
p4121
sg151
(lp4122
sg153
g104
sg154
Nsg155
(lp4123
I16
aI1
asg157
Nsg158
g4121
sg159
(lp4124
sg161
g60
sg162
Nsg163
Nsg164
Nsbag2
(g3
g4
Ntp4125
Rp4126
(dp4127
g8
g11
sg142
Nsg143
(dp4128
sg145
Nsg26
g29
sg146
(lp4129
I16
aI2
asg148
Nsg149
VJudges 16:2
p4130
sg151
(lp4131
sg153
g104
sg154
Nsg155
(lp4132
I16
aI2
asg157
Nsg158
g4130
sg159
(lp4133
sg161
g60
sg162
Nsg163
Nsg164
Nsbag2
(g3
g4
Ntp4134
Rp4135
(dp4136
g8
g11
sg142
Nsg143
(dp4137
sg145
Nsg26
g29
sg146
(lp4138
I16
aI3
asg148
Nsg149
VJudges 16:3
p4139
sg151
(lp4140
sg153
g104
sg154
Nsg155
(lp4141
I16
aI3
asg157
Nsg158
g4139
sg159
(lp4142
sg161
g60
sg162
Nsg163
Nsg164
Nsbag2
(g3
g4
Ntp4143
Rp4144
(dp4145
g8
g11
sg142
Nsg143
(dp4146
sg145
Nsg26
g29
sg146
(lp4147
I16
aI4
asg148
Nsg149
VJudges 16:4
p4148
sg151
(lp4149
sg153
g104
sg154
Nsg155
(lp4150
I16
aI4
asg157
Nsg158
g4148
sg159
(lp4151
sg161
g60
sg162
Nsg163
Nsg164
Nsbag2
(g3
g4
Ntp4152
Rp4153
(dp4154
g8
g11
sg142
Nsg143
(dp4155
sg145
Nsg26
g29
sg146
(lp4156
I16
aI5
asg148
Nsg149
VJudges 16:5
p4157
sg151
(lp4158
sg153
g104
sg154
Nsg155
(lp4159
I16
aI5
asg157
Nsg158
g4157
sg159
(lp4160
sg161
g60
sg162
Nsg163
Nsg164
Nsbag2
(g3
g4
Ntp4161
Rp4162
(dp4163
g8
g11
sg142
Nsg143
(dp4164
sg145
Nsg26
g29
sg146
(lp4165
I16
aI6
asg148
Nsg149
VJudges 16:6
p4166
sg151
(lp4167
sg153
g104
sg154
Nsg155
(lp4168
I16
aI6
asg157
Nsg158
g4166
sg159
(lp4169
sg161
g60
sg162
Nsg163
Nsg164
Nsbag2
(g3
g4
Ntp4170
Rp4171
(dp4172
g8
g11
sg142
Nsg143
(dp4173
sg145
Nsg26
g29
sg146
(lp4174
I16
aI7
asg148
Nsg149
VJudges 16:7
p4175
sg151
(lp4176
sg153
g104
sg154
Nsg155
(lp4177
I16
aI7
asg157
Nsg158
g4175
sg159
(lp4178
sg161
g60
sg162
Nsg163
Nsg164
Nsbag2
(g3
g4
Ntp4179
Rp4180
(dp4181
g8
g11
sg142
Nsg143
(dp4182
sg145
Nsg26
g29
sg146
(lp4183
I16
aI8
asg148
Nsg149
VJudges 16:8
p4184
sg151
(lp4185
sg153
g104
sg154
Nsg155
(lp4186
I16
aI8
asg157
Nsg158
g4184
sg159
(lp4187
sg161
g60
sg162
Nsg163
Nsg164
Nsbag2
(g3
g4
Ntp4188
Rp4189
(dp4190
g8
g11
sg142
Nsg143
(dp4191
sg145
Nsg26
g29
sg146
(lp4192
I16
aI9
asg148
Nsg149
VJudges 16:9
p4193
sg151
(lp4194
sg153
g104
sg154
Nsg155
(lp4195
I16
aI9
asg157
Nsg158
g4193
sg159
(lp4196
sg161
g60
sg162
Nsg163
Nsg164
Nsbag2
(g3
g4
Ntp4197
Rp4198
(dp4199
g8
g11
sg142
Nsg143
(dp4200
sg145
Nsg26
g29
sg146
(lp4201
I16
aI10
asg148
Nsg149
VJudges 16:10
p4202
sg151
(lp4203
sg153
g104
sg154
Nsg155
(lp4204
I16
aI10
asg157
Nsg158
g4202
sg159
(lp4205
sg161
g60
sg162
Nsg163
Nsg164
Nsbag2
(g3
g4
Ntp4206
Rp4207
(dp4208
g8
g11
sg142
Nsg143
(dp4209
sg145
Nsg26
g29
sg146
(lp4210
I16
aI11
asg148
Nsg149
VJudges 16:11
p4211
sg151
(lp4212
sg153
g104
sg154
Nsg155
(lp4213
I16
aI11
asg157
Nsg158
g4211
sg159
(lp4214
sg161
g60
sg162
Nsg163
Nsg164
Nsbag2
(g3
g4
Ntp4215
Rp4216
(dp4217
g8
g11
sg142
Nsg143
(dp4218
sg145
Nsg26
g29
sg146
(lp4219
I16
aI12
asg148
Nsg149
VJudges 16:12
p4220
sg151
(lp4221
sg153
g104
sg154
Nsg155
(lp4222
I16
aI12
asg157
Nsg158
g4220
sg159
(lp4223
sg161
g60
sg162
Nsg163
Nsg164
Nsbag2
(g3
g4
Ntp4224
Rp4225
(dp4226
g8
g11
sg142
Nsg143
(dp4227
sg145
Nsg26
g29
sg146
(lp4228
I16
aI13
asg148
Nsg149
VJudges 16:13
p4229
sg151
(lp4230
sg153
g104
sg154
Nsg155
(lp4231
I16
aI13
asg157
Nsg158
g4229
sg159
(lp4232
sg161
g60
sg162
Nsg163
Nsg164
Nsbag2
(g3
g4
Ntp4233
Rp4234
(dp4235
g8
g11
sg142
Nsg143
(dp4236
sg145
Nsg26
g29
sg146
(lp4237
I16
aI14
asg148
Nsg149
VJudges 16:14
p4238
sg151
(lp4239
sg153
g104
sg154
Nsg155
(lp4240
I16
aI14
asg157
Nsg158
g4238
sg159
(lp4241
sg161
g60
sg162
Nsg163
Nsg164
Nsbag2
(g3
g4
Ntp4242
Rp4243
(dp4244
g8
g11
sg142
Nsg143
(dp4245
sg145
Nsg26
g29
sg146
(lp4246
I16
aI15
asg148
Nsg149
VJudges 16:15
p4247
sg151
(lp4248
sg153
g104
sg154
Nsg155
(lp4249
I16
aI15
asg157
Nsg158
g4247
sg159
(lp4250
sg161
g60
sg162
Nsg163
Nsg164
Nsbag2
(g3
g4
Ntp4251
Rp4252
(dp4253
g8
g11
sg142
Nsg143
(dp4254
sg145
Nsg26
g29
sg146
(lp4255
I16
aI16
asg148
Nsg149
VJudges 16:16
p4256
sg151
(lp4257
sg153
g104
sg154
Nsg155
(lp4258
I16
aI16
asg157
Nsg158
g4256
sg159
(lp4259
sg161
g60
sg162
Nsg163
Nsg164
Nsbag2
(g3
g4
Ntp4260
Rp4261
(dp4262
g8
g11
sg142
Nsg143
(dp4263
sg145
Nsg26
g29
sg146
(lp4264
I16
aI17
asg148
Nsg149
VJudges 16:17
p4265
sg151
(lp4266
sg153
g104
sg154
Nsg155
(lp4267
I16
aI17
asg157
Nsg158
g4265
sg159
(lp4268
sg161
g60
sg162
Nsg163
Nsg164
Nsbag2
(g3
g4
Ntp4269
Rp4270
(dp4271
g8
g11
sg142
Nsg143
(dp4272
sg145
Nsg26
g29
sg146
(lp4273
I16
aI18
asg148
Nsg149
VJudges 16:18
p4274
sg151
(lp4275
sg153
g104
sg154
Nsg155
(lp4276
I16
aI18
asg157
Nsg158
g4274
sg159
(lp4277
sg161
g60
sg162
Nsg163
Nsg164
Nsbag2
(g3
g4
Ntp4278
Rp4279
(dp4280
g8
g11
sg142
Nsg143
(dp4281
sg145
Nsg26
g29
sg146
(lp4282
I16
aI19
asg148
Nsg149
VJudges 16:19
p4283
sg151
(lp4284
sg153
g104
sg154
Nsg155
(lp4285
I16
aI19
asg157
Nsg158
g4283
sg159
(lp4286
sg161
g60
sg162
Nsg163
Nsg164
Nsbag2
(g3
g4
Ntp4287
Rp4288
(dp4289
g8
g11
sg142
Nsg143
(dp4290
sg145
Nsg26
g29
sg146
(lp4291
I16
aI20
asg148
Nsg149
VJudges 16:20
p4292
sg151
(lp4293
sg153
g104
sg154
Nsg155
(lp4294
I16
aI20
asg157
Nsg158
g4292
sg159
(lp4295
sg161
g60
sg162
Nsg163
Nsg164
Nsbag2
(g3
g4
Ntp4296
Rp4297
(dp4298
g8
g11
sg142
Nsg143
(dp4299
sg145
Nsg26
g29
sg146
(lp4300
I16
aI21
asg148
Nsg149
VJudges 16:21
p4301
sg151
(lp4302
sg153
g104
sg154
Nsg155
(lp4303
I16
aI21
asg157
Nsg158
g4301
sg159
(lp4304
sg161
g60
sg162
Nsg163
Nsg164
Nsbag2
(g3
g4
Ntp4305
Rp4306
(dp4307
g8
g11
sg142
Nsg143
(dp4308
sg145
Nsg26
g29
sg146
(lp4309
I16
aI22
asg148
Nsg149
VJudges 16:22
p4310
sg151
(lp4311
sg153
g104
sg154
Nsg155
(lp4312
I16
aI22
asg157
Nsg158
g4310
sg159
(lp4313
sg161
g60
sg162
Nsg163
Nsg164
Nsbag2
(g3
g4
Ntp4314
Rp4315
(dp4316
g8
g11
sg142
Nsg143
(dp4317
sg145
Nsg26
g29
sg146
(lp4318
I16
aI23
asg148
Nsg149
VJudges 16:23
p4319
sg151
(lp4320
sg153
g104
sg154
Nsg155
(lp4321
I16
aI23
asg157
Nsg158
g4319
sg159
(lp4322
sg161
g60
sg162
Nsg163
Nsg164
Nsbag2
(g3
g4
Ntp4323
Rp4324
(dp4325
g8
g11
sg142
Nsg143
(dp4326
sg145
Nsg26
g29
sg146
(lp4327
I16
aI24
asg148
Nsg149
VJudges 16:24
p4328
sg151
(lp4329
sg153
g104
sg154
Nsg155
(lp4330
I16
aI24
asg157
Nsg158
g4328
sg159
(lp4331
sg161
g60
sg162
Nsg163
Nsg164
Nsbag2
(g3
g4
Ntp4332
Rp4333
(dp4334
g8
g11
sg142
Nsg143
(dp4335
sg145
Nsg26
g29
sg146
(lp4336
I16
aI25
asg148
Nsg149
VJudges 16:25
p4337
sg151
(lp4338
sg153
g104
sg154
Nsg155
(lp4339
I16
aI25
asg157
Nsg158
g4337
sg159
(lp4340
sg161
g60
sg162
Nsg163
Nsg164
Nsbag2
(g3
g4
Ntp4341
Rp4342
(dp4343
g8
g11
sg142
Nsg143
(dp4344
sg145
Nsg26
g29
sg146
(lp4345
I16
aI26
asg148
Nsg149
VJudges 16:26
p4346
sg151
(lp4347
sg153
g104
sg154
Nsg155
(lp4348
I16
aI26
asg157
Nsg158
g4346
sg159
(lp4349
sg161
g60
sg162
Nsg163
Nsg164
Nsbag2
(g3
g4
Ntp4350
Rp4351
(dp4352
g8
g11
sg142
Nsg143
(dp4353
sg145
Nsg26
g29
sg146
(lp4354
I16
aI27
asg148
Nsg149
VJudges 16:27
p4355
sg151
(lp4356
sg153
g104
sg154
Nsg155
(lp4357
I16
aI27
asg157
Nsg158
g4355
sg159
(lp4358
sg161
g60
sg162
Nsg163
Nsg164
Nsbag2
(g3
g4
Ntp4359
Rp4360
(dp4361
g8
g11
sg142
Nsg143
(dp4362
sg145
Nsg26
g29
sg146
(lp4363
I16
aI28
asg148
Nsg149
VJudges 16:28
p4364
sg151
(lp4365
sg153
g104
sg154
Nsg155
(lp4366
I16
aI28
asg157
Nsg158
g4364
sg159
(lp4367
sg161
g60
sg162
Nsg163
Nsg164
Nsbag2
(g3
g4
Ntp4368
Rp4369
(dp4370
g8
g11
sg142
Nsg143
(dp4371
sg145
Nsg26
g29
sg146
(lp4372
I16
aI29
asg148
Nsg149
VJudges 16:29
p4373
sg151
(lp4374
sg153
g104
sg154
Nsg155
(lp4375
I16
aI29
asg157
Nsg158
g4373
sg159
(lp4376
sg161
g60
sg162
Nsg163
Nsg164
Nsbag2
(g3
g4
Ntp4377
Rp4378
(dp4379
g8
g11
sg142
Nsg143
(dp4380
sg145
Nsg26
g29
sg146
(lp4381
I16
aI30
asg148
Nsg149
VJudges 16:30
p4382
sg151
(lp4383
sg153
g104
sg154
Nsg155
(lp4384
I16
aI30
asg157
Nsg158
g4382
sg159
(lp4385
sg161
g60
sg162
Nsg163
Nsg164
Nsbag2
(g3
g4
Ntp4386
Rp4387
(dp4388
g8
g11
sg142
Nsg143
(dp4389
sg145
Nsg26
g29
sg146
(lp4390
I16
aI31
asg148
Nsg149
VJudges 16:31
p4391
sg151
(lp4392
sg153
g104
sg154
Nsg155
(lp4393
I16
aI31
asg157
Nsg158
g4391
sg159
(lp4394
sg161
g60
sg162
Nsg163
Nsg164
Nsbag2
(g3
g4
Ntp4395
Rp4396
(dp4397
g8
g11
sg142
Nsg143
(dp4398
sg145
Nsg26
g29
sg146
(lp4399
I17
aI1
asg148
Nsg149
VJudges 17:1
p4400
sg151
(lp4401
sg153
g104
sg154
Nsg155
(lp4402
I17
aI1
asg157
Nsg158
g4400
sg159
(lp4403
sg161
g60
sg162
Nsg163
Nsg164
Nsbag2
(g3
g4
Ntp4404
Rp4405
(dp4406
g8
g11
sg142
Nsg143
(dp4407
sg145
Nsg26
g29
sg146
(lp4408
I17
aI2
asg148
Nsg149
VJudges 17:2
p4409
sg151
(lp4410
sg153
g104
sg154
Nsg155
(lp4411
I17
aI2
asg157
Nsg158
g4409
sg159
(lp4412
sg161
g60
sg162
Nsg163
Nsg164
Nsbag2
(g3
g4
Ntp4413
Rp4414
(dp4415
g8
g11
sg142
Nsg143
(dp4416
sg145
Nsg26
g29
sg146
(lp4417
I17
aI3
asg148
Nsg149
VJudges 17:3
p4418
sg151
(lp4419
sg153
g104
sg154
Nsg155
(lp4420
I17
aI3
asg157
Nsg158
g4418
sg159
(lp4421
sg161
g60
sg162
Nsg163
Nsg164
Nsbag2
(g3
g4
Ntp4422
Rp4423
(dp4424
g8
g11
sg142
Nsg143
(dp4425
sg145
Nsg26
g29
sg146
(lp4426
I17
aI4
asg148
Nsg149
VJudges 17:4
p4427
sg151
(lp4428
sg153
g104
sg154
Nsg155
(lp4429
I17
aI4
asg157
Nsg158
g4427
sg159
(lp4430
sg161
g60
sg162
Nsg163
Nsg164
Nsbag2
(g3
g4
Ntp4431
Rp4432
(dp4433
g8
g11
sg142
Nsg143
(dp4434
sg145
Nsg26
g29
sg146
(lp4435
I17
aI5
asg148
Nsg149
VJudges 17:5
p4436
sg151
(lp4437
sg153
g104
sg154
Nsg155
(lp4438
I17
aI5
asg157
Nsg158
g4436
sg159
(lp4439
sg161
g60
sg162
Nsg163
Nsg164
Nsbag2
(g3
g4
Ntp4440
Rp4441
(dp4442
g8
g11
sg142
Nsg143
(dp4443
sg145
Nsg26
g29
sg146
(lp4444
I17
aI6
asg148
Nsg149
VJudges 17:6
p4445
sg151
(lp4446
sg153
g104
sg154
Nsg155
(lp4447
I17
aI6
asg157
Nsg158
g4445
sg159
(lp4448
sg161
g60
sg162
Nsg163
Nsg164
Nsbag2
(g3
g4
Ntp4449
Rp4450
(dp4451
g8
g11
sg142
Nsg143
(dp4452
sg145
Nsg26
g29
sg146
(lp4453
I17
aI7
asg148
Nsg149
VJudges 17:7
p4454
sg151
(lp4455
sg153
g104
sg154
Nsg155
(lp4456
I17
aI7
asg157
Nsg158
g4454
sg159
(lp4457
sg161
g60
sg162
Nsg163
Nsg164
Nsbag2
(g3
g4
Ntp4458
Rp4459
(dp4460
g8
g11
sg142
Nsg143
(dp4461
sg145
Nsg26
g29
sg146
(lp4462
I17
aI8
asg148
Nsg149
VJudges 17:8
p4463
sg151
(lp4464
sg153
g104
sg154
Nsg155
(lp4465
I17
aI8
asg157
Nsg158
g4463
sg159
(lp4466
sg161
g60
sg162
Nsg163
Nsg164
Nsbag2
(g3
g4
Ntp4467
Rp4468
(dp4469
g8
g11
sg142
Nsg143
(dp4470
sg145
Nsg26
g29
sg146
(lp4471
I17
aI9
asg148
Nsg149
VJudges 17:9
p4472
sg151
(lp4473
sg153
g104
sg154
Nsg155
(lp4474
I17
aI9
asg157
Nsg158
g4472
sg159
(lp4475
sg161
g60
sg162
Nsg163
Nsg164
Nsbag2
(g3
g4
Ntp4476
Rp4477
(dp4478
g8
g11
sg142
Nsg143
(dp4479
sg145
Nsg26
g29
sg146
(lp4480
I17
aI10
asg148
Nsg149
VJudges 17:10
p4481
sg151
(lp4482
sg153
g104
sg154
Nsg155
(lp4483
I17
aI10
asg157
Nsg158
g4481
sg159
(lp4484
sg161
g60
sg162
Nsg163
Nsg164
Nsbag2
(g3
g4
Ntp4485
Rp4486
(dp4487
g8
g11
sg142
Nsg143
(dp4488
sg145
Nsg26
g29
sg146
(lp4489
I17
aI11
asg148
Nsg149
VJudges 17:11
p4490
sg151
(lp4491
sg153
g104
sg154
Nsg155
(lp4492
I17
aI11
asg157
Nsg158
g4490
sg159
(lp4493
sg161
g60
sg162
Nsg163
Nsg164
Nsbag2
(g3
g4
Ntp4494
Rp4495
(dp4496
g8
g11
sg142
Nsg143
(dp4497
sg145
Nsg26
g29
sg146
(lp4498
I17
aI12
asg148
Nsg149
VJudges 17:12
p4499
sg151
(lp4500
sg153
g104
sg154
Nsg155
(lp4501
I17
aI12
asg157
Nsg158
g4499
sg159
(lp4502
sg161
g60
sg162
Nsg163
Nsg164
Nsbag2
(g3
g4
Ntp4503
Rp4504
(dp4505
g8
g11
sg142
Nsg143
(dp4506
sg145
Nsg26
g29
sg146
(lp4507
I17
aI13
asg148
Nsg149
VJudges 17:13
p4508
sg151
(lp4509
sg153
g104
sg154
Nsg155
(lp4510
I17
aI13
asg157
Nsg158
g4508
sg159
(lp4511
sg161
g60
sg162
Nsg163
Nsg164
Nsbag2
(g3
g4
Ntp4512
Rp4513
(dp4514
g8
g11
sg142
Nsg143
(dp4515
sg145
Nsg26
g29
sg146
(lp4516
I18
aI1
asg148
Nsg149
VJudges 18:1
p4517
sg151
(lp4518
sg153
g104
sg154
Nsg155
(lp4519
I18
aI1
asg157
Nsg158
g4517
sg159
(lp4520
sg161
g60
sg162
Nsg163
Nsg164
Nsbag2
(g3
g4
Ntp4521
Rp4522
(dp4523
g8
g11
sg142
Nsg143
(dp4524
sg145
Nsg26
g29
sg146
(lp4525
I18
aI2
asg148
Nsg149
VJudges 18:2
p4526
sg151
(lp4527
sg153
g104
sg154
Nsg155
(lp4528
I18
aI2
asg157
Nsg158
g4526
sg159
(lp4529
sg161
g60
sg162
Nsg163
Nsg164
Nsbag2
(g3
g4
Ntp4530
Rp4531
(dp4532
g8
g11
sg142
Nsg143
(dp4533
sg145
Nsg26
g29
sg146
(lp4534
I18
aI3
asg148
Nsg149
VJudges 18:3
p4535
sg151
(lp4536
sg153
g104
sg154
Nsg155
(lp4537
I18
aI3
asg157
Nsg158
g4535
sg159
(lp4538
sg161
g60
sg162
Nsg163
Nsg164
Nsbag2
(g3
g4
Ntp4539
Rp4540
(dp4541
g8
g11
sg142
Nsg143
(dp4542
sg145
Nsg26
g29
sg146
(lp4543
I18
aI4
asg148
Nsg149
VJudges 18:4
p4544
sg151
(lp4545
sg153
g104
sg154
Nsg155
(lp4546
I18
aI4
asg157
Nsg158
g4544
sg159
(lp4547
sg161
g60
sg162
Nsg163
Nsg164
Nsbag2
(g3
g4
Ntp4548
Rp4549
(dp4550
g8
g11
sg142
Nsg143
(dp4551
sg145
Nsg26
g29
sg146
(lp4552
I18
aI5
asg148
Nsg149
VJudges 18:5
p4553
sg151
(lp4554
sg153
g104
sg154
Nsg155
(lp4555
I18
aI5
asg157
Nsg158
g4553
sg159
(lp4556
sg161
g60
sg162
Nsg163
Nsg164
Nsbag2
(g3
g4
Ntp4557
Rp4558
(dp4559
g8
g11
sg142
Nsg143
(dp4560
sg145
Nsg26
g29
sg146
(lp4561
I18
aI6
asg148
Nsg149
VJudges 18:6
p4562
sg151
(lp4563
sg153
g104
sg154
Nsg155
(lp4564
I18
aI6
asg157
Nsg158
g4562
sg159
(lp4565
sg161
g60
sg162
Nsg163
Nsg164
Nsbag2
(g3
g4
Ntp4566
Rp4567
(dp4568
g8
g11
sg142
Nsg143
(dp4569
sg145
Nsg26
g29
sg146
(lp4570
I18
aI7
asg148
Nsg149
VJudges 18:7
p4571
sg151
(lp4572
sg153
g104
sg154
Nsg155
(lp4573
I18
aI7
asg157
Nsg158
g4571
sg159
(lp4574
sg161
g60
sg162
Nsg163
Nsg164
Nsbag2
(g3
g4
Ntp4575
Rp4576
(dp4577
g8
g11
sg142
Nsg143
(dp4578
sg145
Nsg26
g29
sg146
(lp4579
I18
aI8
asg148
Nsg149
VJudges 18:8
p4580
sg151
(lp4581
sg153
g104
sg154
Nsg155
(lp4582
I18
aI8
asg157
Nsg158
g4580
sg159
(lp4583
sg161
g60
sg162
Nsg163
Nsg164
Nsbag2
(g3
g4
Ntp4584
Rp4585
(dp4586
g8
g11
sg142
Nsg143
(dp4587
sg145
Nsg26
g29
sg146
(lp4588
I18
aI9
asg148
Nsg149
VJudges 18:9
p4589
sg151
(lp4590
sg153
g104
sg154
Nsg155
(lp4591
I18
aI9
asg157
Nsg158
g4589
sg159
(lp4592
sg161
g60
sg162
Nsg163
Nsg164
Nsbag2
(g3
g4
Ntp4593
Rp4594
(dp4595
g8
g11
sg142
Nsg143
(dp4596
sg145
Nsg26
g29
sg146
(lp4597
I18
aI10
asg148
Nsg149
VJudges 18:10
p4598
sg151
(lp4599
sg153
g104
sg154
Nsg155
(lp4600
I18
aI10
asg157
Nsg158
g4598
sg159
(lp4601
sg161
g60
sg162
Nsg163
Nsg164
Nsbag2
(g3
g4
Ntp4602
Rp4603
(dp4604
g8
g11
sg142
Nsg143
(dp4605
sg145
Nsg26
g29
sg146
(lp4606
I18
aI11
asg148
Nsg149
VJudges 18:11
p4607
sg151
(lp4608
sg153
g104
sg154
Nsg155
(lp4609
I18
aI11
asg157
Nsg158
g4607
sg159
(lp4610
sg161
g60
sg162
Nsg163
Nsg164
Nsbag2
(g3
g4
Ntp4611
Rp4612
(dp4613
g8
g11
sg142
Nsg143
(dp4614
sg145
Nsg26
g29
sg146
(lp4615
I18
aI12
asg148
Nsg149
VJudges 18:12
p4616
sg151
(lp4617
sg153
g104
sg154
Nsg155
(lp4618
I18
aI12
asg157
Nsg158
g4616
sg159
(lp4619
sg161
g60
sg162
Nsg163
Nsg164
Nsbag2
(g3
g4
Ntp4620
Rp4621
(dp4622
g8
g11
sg142
Nsg143
(dp4623
sg145
Nsg26
g29
sg146
(lp4624
I18
aI13
asg148
Nsg149
VJudges 18:13
p4625
sg151
(lp4626
sg153
g104
sg154
Nsg155
(lp4627
I18
aI13
asg157
Nsg158
g4625
sg159
(lp4628
sg161
g60
sg162
Nsg163
Nsg164
Nsbag2
(g3
g4
Ntp4629
Rp4630
(dp4631
g8
g11
sg142
Nsg143
(dp4632
sg145
Nsg26
g29
sg146
(lp4633
I18
aI14
asg148
Nsg149
VJudges 18:14
p4634
sg151
(lp4635
sg153
g104
sg154
Nsg155
(lp4636
I18
aI14
asg157
Nsg158
g4634
sg159
(lp4637
sg161
g60
sg162
Nsg163
Nsg164
Nsbag2
(g3
g4
Ntp4638
Rp4639
(dp4640
g8
g11
sg142
Nsg143
(dp4641
sg145
Nsg26
g29
sg146
(lp4642
I18
aI15
asg148
Nsg149
VJudges 18:15
p4643
sg151
(lp4644
sg153
g104
sg154
Nsg155
(lp4645
I18
aI15
asg157
Nsg158
g4643
sg159
(lp4646
sg161
g60
sg162
Nsg163
Nsg164
Nsbag2
(g3
g4
Ntp4647
Rp4648
(dp4649
g8
g11
sg142
Nsg143
(dp4650
sg145
Nsg26
g29
sg146
(lp4651
I18
aI16
asg148
Nsg149
VJudges 18:16
p4652
sg151
(lp4653
sg153
g104
sg154
Nsg155
(lp4654
I18
aI16
asg157
Nsg158
g4652
sg159
(lp4655
sg161
g60
sg162
Nsg163
Nsg164
Nsbag2
(g3
g4
Ntp4656
Rp4657
(dp4658
g8
g11
sg142
Nsg143
(dp4659
sg145
Nsg26
g29
sg146
(lp4660
I18
aI17
asg148
Nsg149
VJudges 18:17
p4661
sg151
(lp4662
sg153
g104
sg154
Nsg155
(lp4663
I18
aI17
asg157
Nsg158
g4661
sg159
(lp4664
sg161
g60
sg162
Nsg163
Nsg164
Nsbag2
(g3
g4
Ntp4665
Rp4666
(dp4667
g8
g11
sg142
Nsg143
(dp4668
sg145
Nsg26
g29
sg146
(lp4669
I18
aI18
asg148
Nsg149
VJudges 18:18
p4670
sg151
(lp4671
sg153
g104
sg154
Nsg155
(lp4672
I18
aI18
asg157
Nsg158
g4670
sg159
(lp4673
sg161
g60
sg162
Nsg163
Nsg164
Nsbag2
(g3
g4
Ntp4674
Rp4675
(dp4676
g8
g11
sg142
Nsg143
(dp4677
sg145
Nsg26
g29
sg146
(lp4678
I18
aI19
asg148
Nsg149
VJudges 18:19
p4679
sg151
(lp4680
sg153
g104
sg154
Nsg155
(lp4681
I18
aI19
asg157
Nsg158
g4679
sg159
(lp4682
sg161
g60
sg162
Nsg163
Nsg164
Nsbag2
(g3
g4
Ntp4683
Rp4684
(dp4685
g8
g11
sg142
Nsg143
(dp4686
sg145
Nsg26
g29
sg146
(lp4687
I18
aI20
asg148
Nsg149
VJudges 18:20
p4688
sg151
(lp4689
sg153
g104
sg154
Nsg155
(lp4690
I18
aI20
asg157
Nsg158
g4688
sg159
(lp4691
sg161
g60
sg162
Nsg163
Nsg164
Nsbag2
(g3
g4
Ntp4692
Rp4693
(dp4694
g8
g11
sg142
Nsg143
(dp4695
sg145
Nsg26
g29
sg146
(lp4696
I18
aI21
asg148
Nsg149
VJudges 18:21
p4697
sg151
(lp4698
sg153
g104
sg154
Nsg155
(lp4699
I18
aI21
asg157
Nsg158
g4697
sg159
(lp4700
sg161
g60
sg162
Nsg163
Nsg164
Nsbag2
(g3
g4
Ntp4701
Rp4702
(dp4703
g8
g11
sg142
Nsg143
(dp4704
sg145
Nsg26
g29
sg146
(lp4705
I18
aI22
asg148
Nsg149
VJudges 18:22
p4706
sg151
(lp4707
sg153
g104
sg154
Nsg155
(lp4708
I18
aI22
asg157
Nsg158
g4706
sg159
(lp4709
sg161
g60
sg162
Nsg163
Nsg164
Nsbag2
(g3
g4
Ntp4710
Rp4711
(dp4712
g8
g11
sg142
Nsg143
(dp4713
sg145
Nsg26
g29
sg146
(lp4714
I18
aI23
asg148
Nsg149
VJudges 18:23
p4715
sg151
(lp4716
sg153
g104
sg154
Nsg155
(lp4717
I18
aI23
asg157
Nsg158
g4715
sg159
(lp4718
sg161
g60
sg162
Nsg163
Nsg164
Nsbag2
(g3
g4
Ntp4719
Rp4720
(dp4721
g8
g11
sg142
Nsg143
(dp4722
sg145
Nsg26
g29
sg146
(lp4723
I18
aI24
asg148
Nsg149
VJudges 18:24
p4724
sg151
(lp4725
sg153
g104
sg154
Nsg155
(lp4726
I18
aI24
asg157
Nsg158
g4724
sg159
(lp4727
sg161
g60
sg162
Nsg163
Nsg164
Nsbag2
(g3
g4
Ntp4728
Rp4729
(dp4730
g8
g11
sg142
Nsg143
(dp4731
sg145
Nsg26
g29
sg146
(lp4732
I18
aI25
asg148
Nsg149
VJudges 18:25
p4733
sg151
(lp4734
sg153
g104
sg154
Nsg155
(lp4735
I18
aI25
asg157
Nsg158
g4733
sg159
(lp4736
sg161
g60
sg162
Nsg163
Nsg164
Nsbag2
(g3
g4
Ntp4737
Rp4738
(dp4739
g8
g11
sg142
Nsg143
(dp4740
sg145
Nsg26
g29
sg146
(lp4741
I18
aI26
asg148
Nsg149
VJudges 18:26
p4742
sg151
(lp4743
sg153
g104
sg154
Nsg155
(lp4744
I18
aI26
asg157
Nsg158
g4742
sg159
(lp4745
sg161
g60
sg162
Nsg163
Nsg164
Nsbag2
(g3
g4
Ntp4746
Rp4747
(dp4748
g8
g11
sg142
Nsg143
(dp4749
sg145
Nsg26
g29
sg146
(lp4750
I18
aI27
asg148
Nsg149
VJudges 18:27
p4751
sg151
(lp4752
sg153
g104
sg154
Nsg155
(lp4753
I18
aI27
asg157
Nsg158
g4751
sg159
(lp4754
sg161
g60
sg162
Nsg163
Nsg164
Nsbag2
(g3
g4
Ntp4755
Rp4756
(dp4757
g8
g11
sg142
Nsg143
(dp4758
sg145
Nsg26
g29
sg146
(lp4759
I18
aI28
asg148
Nsg149
VJudges 18:28
p4760
sg151
(lp4761
sg153
g104
sg154
Nsg155
(lp4762
I18
aI28
asg157
Nsg158
g4760
sg159
(lp4763
sg161
g60
sg162
Nsg163
Nsg164
Nsbag2
(g3
g4
Ntp4764
Rp4765
(dp4766
g8
g11
sg142
Nsg143
(dp4767
sg145
Nsg26
g29
sg146
(lp4768
I18
aI29
asg148
Nsg149
VJudges 18:29
p4769
sg151
(lp4770
sg153
g104
sg154
Nsg155
(lp4771
I18
aI29
asg157
Nsg158
g4769
sg159
(lp4772
sg161
g60
sg162
Nsg163
Nsg164
Nsbag2
(g3
g4
Ntp4773
Rp4774
(dp4775
g8
g11
sg142
Nsg143
(dp4776
sg145
Nsg26
g29
sg146
(lp4777
I18
aI30
asg148
Nsg149
VJudges 18:30
p4778
sg151
(lp4779
sg153
g104
sg154
Nsg155
(lp4780
I18
aI30
asg157
Nsg158
g4778
sg159
(lp4781
sg161
g60
sg162
Nsg163
Nsg164
Nsbag2
(g3
g4
Ntp4782
Rp4783
(dp4784
g8
g11
sg142
Nsg143
(dp4785
sg145
Nsg26
g29
sg146
(lp4786
I18
aI31
asg148
Nsg149
VJudges 18:31
p4787
sg151
(lp4788
sg153
g104
sg154
Nsg155
(lp4789
I18
aI31
asg157
Nsg158
g4787
sg159
(lp4790
sg161
g60
sg162
Nsg163
Nsg164
Nsbag2
(g3
g4
Ntp4791
Rp4792
(dp4793
g8
g11
sg142
Nsg143
(dp4794
sg145
Nsg26
g29
sg146
(lp4795
I19
aI1
asg148
Nsg149
VJudges 19:1
p4796
sg151
(lp4797
sg153
g104
sg154
Nsg155
(lp4798
I19
aI1
asg157
Nsg158
g4796
sg159
(lp4799
sg161
g60
sg162
Nsg163
Nsg164
Nsbag2
(g3
g4
Ntp4800
Rp4801
(dp4802
g8
g11
sg142
Nsg143
(dp4803
sg145
Nsg26
g29
sg146
(lp4804
I19
aI2
asg148
Nsg149
VJudges 19:2
p4805
sg151
(lp4806
sg153
g104
sg154
Nsg155
(lp4807
I19
aI2
asg157
Nsg158
g4805
sg159
(lp4808
sg161
g60
sg162
Nsg163
Nsg164
Nsbag2
(g3
g4
Ntp4809
Rp4810
(dp4811
g8
g11
sg142
Nsg143
(dp4812
sg145
Nsg26
g29
sg146
(lp4813
I19
aI3
asg148
Nsg149
VJudges 19:3
p4814
sg151
(lp4815
sg153
g104
sg154
Nsg155
(lp4816
I19
aI3
asg157
Nsg158
g4814
sg159
(lp4817
sg161
g60
sg162
Nsg163
Nsg164
Nsbag2
(g3
g4
Ntp4818
Rp4819
(dp4820
g8
g11
sg142
Nsg143
(dp4821
sg145
Nsg26
g29
sg146
(lp4822
I19
aI4
asg148
Nsg149
VJudges 19:4
p4823
sg151
(lp4824
sg153
g104
sg154
Nsg155
(lp4825
I19
aI4
asg157
Nsg158
g4823
sg159
(lp4826
sg161
g60
sg162
Nsg163
Nsg164
Nsbag2
(g3
g4
Ntp4827
Rp4828
(dp4829
g8
g11
sg142
Nsg143
(dp4830
sg145
Nsg26
g29
sg146
(lp4831
I19
aI5
asg148
Nsg149
VJudges 19:5
p4832
sg151
(lp4833
sg153
g104
sg154
Nsg155
(lp4834
I19
aI5
asg157
Nsg158
g4832
sg159
(lp4835
sg161
g60
sg162
Nsg163
Nsg164
Nsbag2
(g3
g4
Ntp4836
Rp4837
(dp4838
g8
g11
sg142
Nsg143
(dp4839
sg145
Nsg26
g29
sg146
(lp4840
I19
aI6
asg148
Nsg149
VJudges 19:6
p4841
sg151
(lp4842
sg153
g104
sg154
Nsg155
(lp4843
I19
aI6
asg157
Nsg158
g4841
sg159
(lp4844
sg161
g60
sg162
Nsg163
Nsg164
Nsbag2
(g3
g4
Ntp4845
Rp4846
(dp4847
g8
g11
sg142
Nsg143
(dp4848
sg145
Nsg26
g29
sg146
(lp4849
I19
aI7
asg148
Nsg149
VJudges 19:7
p4850
sg151
(lp4851
sg153
g104
sg154
Nsg155
(lp4852
I19
aI7
asg157
Nsg158
g4850
sg159
(lp4853
sg161
g60
sg162
Nsg163
Nsg164
Nsbag2
(g3
g4
Ntp4854
Rp4855
(dp4856
g8
g11
sg142
Nsg143
(dp4857
sg145
Nsg26
g29
sg146
(lp4858
I19
aI8
asg148
Nsg149
VJudges 19:8
p4859
sg151
(lp4860
sg153
g104
sg154
Nsg155
(lp4861
I19
aI8
asg157
Nsg158
g4859
sg159
(lp4862
sg161
g60
sg162
Nsg163
Nsg164
Nsbag2
(g3
g4
Ntp4863
Rp4864
(dp4865
g8
g11
sg142
Nsg143
(dp4866
sg145
Nsg26
g29
sg146
(lp4867
I19
aI9
asg148
Nsg149
VJudges 19:9
p4868
sg151
(lp4869
sg153
g104
sg154
Nsg155
(lp4870
I19
aI9
asg157
Nsg158
g4868
sg159
(lp4871
sg161
g60
sg162
Nsg163
Nsg164
Nsbag2
(g3
g4
Ntp4872
Rp4873
(dp4874
g8
g11
sg142
Nsg143
(dp4875
sg145
Nsg26
g29
sg146
(lp4876
I19
aI10
asg148
Nsg149
VJudges 19:10
p4877
sg151
(lp4878
sg153
g104
sg154
Nsg155
(lp4879
I19
aI10
asg157
Nsg158
g4877
sg159
(lp4880
sg161
g60
sg162
Nsg163
Nsg164
Nsbag2
(g3
g4
Ntp4881
Rp4882
(dp4883
g8
g11
sg142
Nsg143
(dp4884
sg145
Nsg26
g29
sg146
(lp4885
I19
aI11
asg148
Nsg149
VJudges 19:11
p4886
sg151
(lp4887
sg153
g104
sg154
Nsg155
(lp4888
I19
aI11
asg157
Nsg158
g4886
sg159
(lp4889
sg161
g60
sg162
Nsg163
Nsg164
Nsbag2
(g3
g4
Ntp4890
Rp4891
(dp4892
g8
g11
sg142
Nsg143
(dp4893
sg145
Nsg26
g29
sg146
(lp4894
I19
aI12
asg148
Nsg149
VJudges 19:12
p4895
sg151
(lp4896
sg153
g104
sg154
Nsg155
(lp4897
I19
aI12
asg157
Nsg158
g4895
sg159
(lp4898
sg161
g60
sg162
Nsg163
Nsg164
Nsbag2
(g3
g4
Ntp4899
Rp4900
(dp4901
g8
g11
sg142
Nsg143
(dp4902
sg145
Nsg26
g29
sg146
(lp4903
I19
aI13
asg148
Nsg149
VJudges 19:13
p4904
sg151
(lp4905
sg153
g104
sg154
Nsg155
(lp4906
I19
aI13
asg157
Nsg158
g4904
sg159
(lp4907
sg161
g60
sg162
Nsg163
Nsg164
Nsbag2
(g3
g4
Ntp4908
Rp4909
(dp4910
g8
g11
sg142
Nsg143
(dp4911
sg145
Nsg26
g29
sg146
(lp4912
I19
aI14
asg148
Nsg149
VJudges 19:14
p4913
sg151
(lp4914
sg153
g104
sg154
Nsg155
(lp4915
I19
aI14
asg157
Nsg158
g4913
sg159
(lp4916
sg161
g60
sg162
Nsg163
Nsg164
Nsbag2
(g3
g4
Ntp4917
Rp4918
(dp4919
g8
g11
sg142
Nsg143
(dp4920
sg145
Nsg26
g29
sg146
(lp4921
I19
aI15
asg148
Nsg149
VJudges 19:15
p4922
sg151
(lp4923
sg153
g104
sg154
Nsg155
(lp4924
I19
aI15
asg157
Nsg158
g4922
sg159
(lp4925
sg161
g60
sg162
Nsg163
Nsg164
Nsbag2
(g3
g4
Ntp4926
Rp4927
(dp4928
g8
g11
sg142
Nsg143
(dp4929
sg145
Nsg26
g29
sg146
(lp4930
I19
aI16
asg148
Nsg149
VJudges 19:16
p4931
sg151
(lp4932
sg153
g104
sg154
Nsg155
(lp4933
I19
aI16
asg157
Nsg158
g4931
sg159
(lp4934
sg161
g60
sg162
Nsg163
Nsg164
Nsbag2
(g3
g4
Ntp4935
Rp4936
(dp4937
g8
g11
sg142
Nsg143
(dp4938
sg145
Nsg26
g29
sg146
(lp4939
I19
aI17
asg148
Nsg149
VJudges 19:17
p4940
sg151
(lp4941
sg153
g104
sg154
Nsg155
(lp4942
I19
aI17
asg157
Nsg158
g4940
sg159
(lp4943
sg161
g60
sg162
Nsg163
Nsg164
Nsbag2
(g3
g4
Ntp4944
Rp4945
(dp4946
g8
g11
sg142
Nsg143
(dp4947
sg145
Nsg26
g29
sg146
(lp4948
I19
aI18
asg148
Nsg149
VJudges 19:18
p4949
sg151
(lp4950
sg153
g104
sg154
Nsg155
(lp4951
I19
aI18
asg157
Nsg158
g4949
sg159
(lp4952
sg161
g60
sg162
Nsg163
Nsg164
Nsbag2
(g3
g4
Ntp4953
Rp4954
(dp4955
g8
g11
sg142
Nsg143
(dp4956
sg145
Nsg26
g29
sg146
(lp4957
I19
aI19
asg148
Nsg149
VJudges 19:19
p4958
sg151
(lp4959
sg153
g104
sg154
Nsg155
(lp4960
I19
aI19
asg157
Nsg158
g4958
sg159
(lp4961
sg161
g60
sg162
Nsg163
Nsg164
Nsbag2
(g3
g4
Ntp4962
Rp4963
(dp4964
g8
g11
sg142
Nsg143
(dp4965
sg145
Nsg26
g29
sg146
(lp4966
I19
aI20
asg148
Nsg149
VJudges 19:20
p4967
sg151
(lp4968
sg153
g104
sg154
Nsg155
(lp4969
I19
aI20
asg157
Nsg158
g4967
sg159
(lp4970
sg161
g60
sg162
Nsg163
Nsg164
Nsbag2
(g3
g4
Ntp4971
Rp4972
(dp4973
g8
g11
sg142
Nsg143
(dp4974
sg145
Nsg26
g29
sg146
(lp4975
I19
aI21
asg148
Nsg149
VJudges 19:21
p4976
sg151
(lp4977
sg153
g104
sg154
Nsg155
(lp4978
I19
aI21
asg157
Nsg158
g4976
sg159
(lp4979
sg161
g60
sg162
Nsg163
Nsg164
Nsbag2
(g3
g4
Ntp4980
Rp4981
(dp4982
g8
g11
sg142
Nsg143
(dp4983
sg145
Nsg26
g29
sg146
(lp4984
I19
aI22
asg148
Nsg149
VJudges 19:22
p4985
sg151
(lp4986
sg153
g104
sg154
Nsg155
(lp4987
I19
aI22
asg157
Nsg158
g4985
sg159
(lp4988
sg161
g60
sg162
Nsg163
Nsg164
Nsbag2
(g3
g4
Ntp4989
Rp4990
(dp4991
g8
g11
sg142
Nsg143
(dp4992
sg145
Nsg26
g29
sg146
(lp4993
I19
aI23
asg148
Nsg149
VJudges 19:23
p4994
sg151
(lp4995
sg153
g104
sg154
Nsg155
(lp4996
I19
aI23
asg157
Nsg158
g4994
sg159
(lp4997
sg161
g60
sg162
Nsg163
Nsg164
Nsbag2
(g3
g4
Ntp4998
Rp4999
(dp5000
g8
g11
sg142
Nsg143
(dp5001
sg145
Nsg26
g29
sg146
(lp5002
I19
aI24
asg148
Nsg149
VJudges 19:24
p5003
sg151
(lp5004
sg153
g104
sg154
Nsg155
(lp5005
I19
aI24
asg157
Nsg158
g5003
sg159
(lp5006
sg161
g60
sg162
Nsg163
Nsg164
Nsbag2
(g3
g4
Ntp5007
Rp5008
(dp5009
g8
g11
sg142
Nsg143
(dp5010
sg145
Nsg26
g29
sg146
(lp5011
I19
aI25
asg148
Nsg149
VJudges 19:25
p5012
sg151
(lp5013
sg153
g104
sg154
Nsg155
(lp5014
I19
aI25
asg157
Nsg158
g5012
sg159
(lp5015
sg161
g60
sg162
Nsg163
Nsg164
Nsbag2
(g3
g4
Ntp5016
Rp5017
(dp5018
g8
g11
sg142
Nsg143
(dp5019
sg145
Nsg26
g29
sg146
(lp5020
I19
aI26
asg148
Nsg149
VJudges 19:26
p5021
sg151
(lp5022
sg153
g104
sg154
Nsg155
(lp5023
I19
aI26
asg157
Nsg158
g5021
sg159
(lp5024
sg161
g60
sg162
Nsg163
Nsg164
Nsbag2
(g3
g4
Ntp5025
Rp5026
(dp5027
g8
g11
sg142
Nsg143
(dp5028
sg145
Nsg26
g29
sg146
(lp5029
I19
aI27
asg148
Nsg149
VJudges 19:27
p5030
sg151
(lp5031
sg153
g104
sg154
Nsg155
(lp5032
I19
aI27
asg157
Nsg158
g5030
sg159
(lp5033
sg161
g60
sg162
Nsg163
Nsg164
Nsbag2
(g3
g4
Ntp5034
Rp5035
(dp5036
g8
g11
sg142
Nsg143
(dp5037
sg145
Nsg26
g29
sg146
(lp5038
I19
aI28
asg148
Nsg149
VJudges 19:28
p5039
sg151
(lp5040
sg153
g104
sg154
Nsg155
(lp5041
I19
aI28
asg157
Nsg158
g5039
sg159
(lp5042
sg161
g60
sg162
Nsg163
Nsg164
Nsbag2
(g3
g4
Ntp5043
Rp5044
(dp5045
g8
g11
sg142
Nsg143
(dp5046
sg145
Nsg26
g29
sg146
(lp5047
I19
aI29
asg148
Nsg149
VJudges 19:29
p5048
sg151
(lp5049
sg153
g104
sg154
Nsg155
(lp5050
I19
aI29
asg157
Nsg158
g5048
sg159
(lp5051
sg161
g60
sg162
Nsg163
Nsg164
Nsbag2
(g3
g4
Ntp5052
Rp5053
(dp5054
g8
g11
sg142
Nsg143
(dp5055
sg145
Nsg26
g29
sg146
(lp5056
I19
aI30
asg148
Nsg149
VJudges 19:30
p5057
sg151
(lp5058
sg153
g104
sg154
Nsg155
(lp5059
I19
aI30
asg157
Nsg158
g5057
sg159
(lp5060
sg161
g60
sg162
Nsg163
Nsg164
Nsbag2
(g3
g4
Ntp5061
Rp5062
(dp5063
g8
g11
sg142
Nsg143
(dp5064
sg145
Nsg26
g29
sg146
(lp5065
I20
aI1
asg148
Nsg149
VJudges 20:1
p5066
sg151
(lp5067
sg153
g104
sg154
Nsg155
(lp5068
I20
aI1
asg157
Nsg158
g5066
sg159
(lp5069
sg161
g60
sg162
Nsg163
Nsg164
Nsbag2
(g3
g4
Ntp5070
Rp5071
(dp5072
g8
g11
sg142
Nsg143
(dp5073
sg145
Nsg26
g29
sg146
(lp5074
I20
aI2
asg148
Nsg149
VJudges 20:2
p5075
sg151
(lp5076
sg153
g104
sg154
Nsg155
(lp5077
I20
aI2
asg157
Nsg158
g5075
sg159
(lp5078
sg161
g60
sg162
Nsg163
Nsg164
Nsbag2
(g3
g4
Ntp5079
Rp5080
(dp5081
g8
g11
sg142
Nsg143
(dp5082
sg145
Nsg26
g29
sg146
(lp5083
I20
aI3
asg148
Nsg149
VJudges 20:3
p5084
sg151
(lp5085
sg153
g104
sg154
Nsg155
(lp5086
I20
aI3
asg157
Nsg158
g5084
sg159
(lp5087
sg161
g60
sg162
Nsg163
Nsg164
Nsbag2
(g3
g4
Ntp5088
Rp5089
(dp5090
g8
g11
sg142
Nsg143
(dp5091
sg145
Nsg26
g29
sg146
(lp5092
I20
aI4
asg148
Nsg149
VJudges 20:4
p5093
sg151
(lp5094
sg153
g104
sg154
Nsg155
(lp5095
I20
aI4
asg157
Nsg158
g5093
sg159
(lp5096
sg161
g60
sg162
Nsg163
Nsg164
Nsbag2
(g3
g4
Ntp5097
Rp5098
(dp5099
g8
g11
sg142
Nsg143
(dp5100
sg145
Nsg26
g29
sg146
(lp5101
I20
aI5
asg148
Nsg149
VJudges 20:5
p5102
sg151
(lp5103
sg153
g104
sg154
Nsg155
(lp5104
I20
aI5
asg157
Nsg158
g5102
sg159
(lp5105
sg161
g60
sg162
Nsg163
Nsg164
Nsbag2
(g3
g4
Ntp5106
Rp5107
(dp5108
g8
g11
sg142
Nsg143
(dp5109
sg145
Nsg26
g29
sg146
(lp5110
I20
aI6
asg148
Nsg149
VJudges 20:6
p5111
sg151
(lp5112
sg153
g104
sg154
Nsg155
(lp5113
I20
aI6
asg157
Nsg158
g5111
sg159
(lp5114
sg161
g60
sg162
Nsg163
Nsg164
Nsbag2
(g3
g4
Ntp5115
Rp5116
(dp5117
g8
g11
sg142
Nsg143
(dp5118
sg145
Nsg26
g29
sg146
(lp5119
I20
aI7
asg148
Nsg149
VJudges 20:7
p5120
sg151
(lp5121
sg153
g104
sg154
Nsg155
(lp5122
I20
aI7
asg157
Nsg158
g5120
sg159
(lp5123
sg161
g60
sg162
Nsg163
Nsg164
Nsbag2
(g3
g4
Ntp5124
Rp5125
(dp5126
g8
g11
sg142
Nsg143
(dp5127
sg145
Nsg26
g29
sg146
(lp5128
I20
aI8
asg148
Nsg149
VJudges 20:8
p5129
sg151
(lp5130
sg153
g104
sg154
Nsg155
(lp5131
I20
aI8
asg157
Nsg158
g5129
sg159
(lp5132
sg161
g60
sg162
Nsg163
Nsg164
Nsbag2
(g3
g4
Ntp5133
Rp5134
(dp5135
g8
g11
sg142
Nsg143
(dp5136
sg145
Nsg26
g29
sg146
(lp5137
I20
aI9
asg148
Nsg149
VJudges 20:9
p5138
sg151
(lp5139
sg153
g104
sg154
Nsg155
(lp5140
I20
aI9
asg157
Nsg158
g5138
sg159
(lp5141
sg161
g60
sg162
Nsg163
Nsg164
Nsbag2
(g3
g4
Ntp5142
Rp5143
(dp5144
g8
g11
sg142
Nsg143
(dp5145
sg145
Nsg26
g29
sg146
(lp5146
I20
aI10
asg148
Nsg149
VJudges 20:10
p5147
sg151
(lp5148
sg153
g104
sg154
Nsg155
(lp5149
I20
aI10
asg157
Nsg158
g5147
sg159
(lp5150
sg161
g60
sg162
Nsg163
Nsg164
Nsbag2
(g3
g4
Ntp5151
Rp5152
(dp5153
g8
g11
sg142
Nsg143
(dp5154
sg145
Nsg26
g29
sg146
(lp5155
I20
aI11
asg148
Nsg149
VJudges 20:11
p5156
sg151
(lp5157
sg153
g104
sg154
Nsg155
(lp5158
I20
aI11
asg157
Nsg158
g5156
sg159
(lp5159
sg161
g60
sg162
Nsg163
Nsg164
Nsbag2
(g3
g4
Ntp5160
Rp5161
(dp5162
g8
g11
sg142
Nsg143
(dp5163
sg145
Nsg26
g29
sg146
(lp5164
I20
aI12
asg148
Nsg149
VJudges 20:12
p5165
sg151
(lp5166
sg153
g104
sg154
Nsg155
(lp5167
I20
aI12
asg157
Nsg158
g5165
sg159
(lp5168
sg161
g60
sg162
Nsg163
Nsg164
Nsbag2
(g3
g4
Ntp5169
Rp5170
(dp5171
g8
g11
sg142
Nsg143
(dp5172
sg145
Nsg26
g29
sg146
(lp5173
I20
aI13
asg148
Nsg149
VJudges 20:13
p5174
sg151
(lp5175
sg153
g104
sg154
Nsg155
(lp5176
I20
aI13
asg157
Nsg158
g5174
sg159
(lp5177
sg161
g60
sg162
Nsg163
Nsg164
Nsbag2
(g3
g4
Ntp5178
Rp5179
(dp5180
g8
g11
sg142
Nsg143
(dp5181
sg145
Nsg26
g29
sg146
(lp5182
I20
aI14
asg148
Nsg149
VJudges 20:14
p5183
sg151
(lp5184
sg153
g104
sg154
Nsg155
(lp5185
I20
aI14
asg157
Nsg158
g5183
sg159
(lp5186
sg161
g60
sg162
Nsg163
Nsg164
Nsbag2
(g3
g4
Ntp5187
Rp5188
(dp5189
g8
g11
sg142
Nsg143
(dp5190
sg145
Nsg26
g29
sg146
(lp5191
I20
aI15
asg148
Nsg149
VJudges 20:15
p5192
sg151
(lp5193
sg153
g104
sg154
Nsg155
(lp5194
I20
aI15
asg157
Nsg158
g5192
sg159
(lp5195
sg161
g60
sg162
Nsg163
Nsg164
Nsbag2
(g3
g4
Ntp5196
Rp5197
(dp5198
g8
g11
sg142
Nsg143
(dp5199
sg145
Nsg26
g29
sg146
(lp5200
I20
aI16
asg148
Nsg149
VJudges 20:16
p5201
sg151
(lp5202
sg153
g104
sg154
Nsg155
(lp5203
I20
aI16
asg157
Nsg158
g5201
sg159
(lp5204
sg161
g60
sg162
Nsg163
Nsg164
Nsbag2
(g3
g4
Ntp5205
Rp5206
(dp5207
g8
g11
sg142
Nsg143
(dp5208
sg145
Nsg26
g29
sg146
(lp5209
I20
aI17
asg148
Nsg149
VJudges 20:17
p5210
sg151
(lp5211
sg153
g104
sg154
Nsg155
(lp5212
I20
aI17
asg157
Nsg158
g5210
sg159
(lp5213
sg161
g60
sg162
Nsg163
Nsg164
Nsbag2
(g3
g4
Ntp5214
Rp5215
(dp5216
g8
g11
sg142
Nsg143
(dp5217
sg145
Nsg26
g29
sg146
(lp5218
I20
aI18
asg148
Nsg149
VJudges 20:18
p5219
sg151
(lp5220
sg153
g104
sg154
Nsg155
(lp5221
I20
aI18
asg157
Nsg158
g5219
sg159
(lp5222
sg161
g60
sg162
Nsg163
Nsg164
Nsbag2
(g3
g4
Ntp5223
Rp5224
(dp5225
g8
g11
sg142
Nsg143
(dp5226
sg145
Nsg26
g29
sg146
(lp5227
I20
aI19
asg148
Nsg149
VJudges 20:19
p5228
sg151
(lp5229
sg153
g104
sg154
Nsg155
(lp5230
I20
aI19
asg157
Nsg158
g5228
sg159
(lp5231
sg161
g60
sg162
Nsg163
Nsg164
Nsbag2
(g3
g4
Ntp5232
Rp5233
(dp5234
g8
g11
sg142
Nsg143
(dp5235
sg145
Nsg26
g29
sg146
(lp5236
I20
aI20
asg148
Nsg149
VJudges 20:20
p5237
sg151
(lp5238
sg153
g104
sg154
Nsg155
(lp5239
I20
aI20
asg157
Nsg158
g5237
sg159
(lp5240
sg161
g60
sg162
Nsg163
Nsg164
Nsbag2
(g3
g4
Ntp5241
Rp5242
(dp5243
g8
g11
sg142
Nsg143
(dp5244
sg145
Nsg26
g29
sg146
(lp5245
I20
aI21
asg148
Nsg149
VJudges 20:21
p5246
sg151
(lp5247
sg153
g104
sg154
Nsg155
(lp5248
I20
aI21
asg157
Nsg158
g5246
sg159
(lp5249
sg161
g60
sg162
Nsg163
Nsg164
Nsbag2
(g3
g4
Ntp5250
Rp5251
(dp5252
g8
g11
sg142
Nsg143
(dp5253
sg145
Nsg26
g29
sg146
(lp5254
I20
aI22
asg148
Nsg149
VJudges 20:22
p5255
sg151
(lp5256
sg153
g104
sg154
Nsg155
(lp5257
I20
aI22
asg157
Nsg158
g5255
sg159
(lp5258
sg161
g60
sg162
Nsg163
Nsg164
Nsbag2
(g3
g4
Ntp5259
Rp5260
(dp5261
g8
g11
sg142
Nsg143
(dp5262
sg145
Nsg26
g29
sg146
(lp5263
I20
aI23
asg148
Nsg149
VJudges 20:23
p5264
sg151
(lp5265
sg153
g104
sg154
Nsg155
(lp5266
I20
aI23
asg157
Nsg158
g5264
sg159
(lp5267
sg161
g60
sg162
Nsg163
Nsg164
Nsbag2
(g3
g4
Ntp5268
Rp5269
(dp5270
g8
g11
sg142
Nsg143
(dp5271
sg145
Nsg26
g29
sg146
(lp5272
I20
aI24
asg148
Nsg149
VJudges 20:24
p5273
sg151
(lp5274
sg153
g104
sg154
Nsg155
(lp5275
I20
aI24
asg157
Nsg158
g5273
sg159
(lp5276
sg161
g60
sg162
Nsg163
Nsg164
Nsbag2
(g3
g4
Ntp5277
Rp5278
(dp5279
g8
g11
sg142
Nsg143
(dp5280
sg145
Nsg26
g29
sg146
(lp5281
I20
aI25
asg148
Nsg149
VJudges 20:25
p5282
sg151
(lp5283
sg153
g104
sg154
Nsg155
(lp5284
I20
aI25
asg157
Nsg158
g5282
sg159
(lp5285
sg161
g60
sg162
Nsg163
Nsg164
Nsbag2
(g3
g4
Ntp5286
Rp5287
(dp5288
g8
g11
sg142
Nsg143
(dp5289
sg145
Nsg26
g29
sg146
(lp5290
I20
aI26
asg148
Nsg149
VJudges 20:26
p5291
sg151
(lp5292
sg153
g104
sg154
Nsg155
(lp5293
I20
aI26
asg157
Nsg158
g5291
sg159
(lp5294
sg161
g60
sg162
Nsg163
Nsg164
Nsbag2
(g3
g4
Ntp5295
Rp5296
(dp5297
g8
g11
sg142
Nsg143
(dp5298
sg145
Nsg26
g29
sg146
(lp5299
I20
aI27
asg148
Nsg149
VJudges 20:27
p5300
sg151
(lp5301
sg153
g104
sg154
Nsg155
(lp5302
I20
aI27
asg157
Nsg158
g5300
sg159
(lp5303
sg161
g60
sg162
Nsg163
Nsg164
Nsbag2
(g3
g4
Ntp5304
Rp5305
(dp5306
g8
g11
sg142
Nsg143
(dp5307
sg145
Nsg26
g29
sg146
(lp5308
I20
aI28
asg148
Nsg149
VJudges 20:28
p5309
sg151
(lp5310
sg153
g104
sg154
Nsg155
(lp5311
I20
aI28
asg157
Nsg158
g5309
sg159
(lp5312
sg161
g60
sg162
Nsg163
Nsg164
Nsbag2
(g3
g4
Ntp5313
Rp5314
(dp5315
g8
g11
sg142
Nsg143
(dp5316
sg145
Nsg26
g29
sg146
(lp5317
I20
aI29
asg148
Nsg149
VJudges 20:29
p5318
sg151
(lp5319
sg153
g104
sg154
Nsg155
(lp5320
I20
aI29
asg157
Nsg158
g5318
sg159
(lp5321
sg161
g60
sg162
Nsg163
Nsg164
Nsbag2
(g3
g4
Ntp5322
Rp5323
(dp5324
g8
g11
sg142
Nsg143
(dp5325
sg145
Nsg26
g29
sg146
(lp5326
I20
aI30
asg148
Nsg149
VJudges 20:30
p5327
sg151
(lp5328
sg153
g104
sg154
Nsg155
(lp5329
I20
aI30
asg157
Nsg158
g5327
sg159
(lp5330
sg161
g60
sg162
Nsg163
Nsg164
Nsbag2
(g3
g4
Ntp5331
Rp5332
(dp5333
g8
g11
sg142
Nsg143
(dp5334
sg145
Nsg26
g29
sg146
(lp5335
I20
aI31
asg148
Nsg149
VJudges 20:31
p5336
sg151
(lp5337
sg153
g104
sg154
Nsg155
(lp5338
I20
aI31
asg157
Nsg158
g5336
sg159
(lp5339
sg161
g60
sg162
Nsg163
Nsg164
Nsbag2
(g3
g4
Ntp5340
Rp5341
(dp5342
g8
g11
sg142
Nsg143
(dp5343
sg145
Nsg26
g29
sg146
(lp5344
I20
aI32
asg148
Nsg149
VJudges 20:32
p5345
sg151
(lp5346
sg153
g104
sg154
Nsg155
(lp5347
I20
aI32
asg157
Nsg158
g5345
sg159
(lp5348
sg161
g60
sg162
Nsg163
Nsg164
Nsbag2
(g3
g4
Ntp5349
Rp5350
(dp5351
g8
g11
sg142
Nsg143
(dp5352
sg145
Nsg26
g29
sg146
(lp5353
I20
aI33
asg148
Nsg149
VJudges 20:33
p5354
sg151
(lp5355
sg153
g104
sg154
Nsg155
(lp5356
I20
aI33
asg157
Nsg158
g5354
sg159
(lp5357
sg161
g60
sg162
Nsg163
Nsg164
Nsbag2
(g3
g4
Ntp5358
Rp5359
(dp5360
g8
g11
sg142
Nsg143
(dp5361
sg145
Nsg26
g29
sg146
(lp5362
I20
aI34
asg148
Nsg149
VJudges 20:34
p5363
sg151
(lp5364
sg153
g104
sg154
Nsg155
(lp5365
I20
aI34
asg157
Nsg158
g5363
sg159
(lp5366
sg161
g60
sg162
Nsg163
Nsg164
Nsbag2
(g3
g4
Ntp5367
Rp5368
(dp5369
g8
g11
sg142
Nsg143
(dp5370
sg145
Nsg26
g29
sg146
(lp5371
I20
aI35
asg148
Nsg149
VJudges 20:35
p5372
sg151
(lp5373
sg153
g104
sg154
Nsg155
(lp5374
I20
aI35
asg157
Nsg158
g5372
sg159
(lp5375
sg161
g60
sg162
Nsg163
Nsg164
Nsbag2
(g3
g4
Ntp5376
Rp5377
(dp5378
g8
g11
sg142
Nsg143
(dp5379
sg145
Nsg26
g29
sg146
(lp5380
I20
aI36
asg148
Nsg149
VJudges 20:36
p5381
sg151
(lp5382
sg153
g104
sg154
Nsg155
(lp5383
I20
aI36
asg157
Nsg158
g5381
sg159
(lp5384
sg161
g60
sg162
Nsg163
Nsg164
Nsbag2
(g3
g4
Ntp5385
Rp5386
(dp5387
g8
g11
sg142
Nsg143
(dp5388
sg145
Nsg26
g29
sg146
(lp5389
I20
aI37
asg148
Nsg149
VJudges 20:37
p5390
sg151
(lp5391
sg153
g104
sg154
Nsg155
(lp5392
I20
aI37
asg157
Nsg158
g5390
sg159
(lp5393
sg161
g60
sg162
Nsg163
Nsg164
Nsbag2
(g3
g4
Ntp5394
Rp5395
(dp5396
g8
g11
sg142
Nsg143
(dp5397
sg145
Nsg26
g29
sg146
(lp5398
I20
aI38
asg148
Nsg149
VJudges 20:38
p5399
sg151
(lp5400
sg153
g104
sg154
Nsg155
(lp5401
I20
aI38
asg157
Nsg158
g5399
sg159
(lp5402
sg161
g60
sg162
Nsg163
Nsg164
Nsbag2
(g3
g4
Ntp5403
Rp5404
(dp5405
g8
g11
sg142
Nsg143
(dp5406
sg145
Nsg26
g29
sg146
(lp5407
I20
aI39
asg148
Nsg149
VJudges 20:39
p5408
sg151
(lp5409
sg153
g104
sg154
Nsg155
(lp5410
I20
aI39
asg157
Nsg158
g5408
sg159
(lp5411
sg161
g60
sg162
Nsg163
Nsg164
Nsbag2
(g3
g4
Ntp5412
Rp5413
(dp5414
g8
g11
sg142
Nsg143
(dp5415
sg145
Nsg26
g29
sg146
(lp5416
I20
aI40
asg148
Nsg149
VJudges 20:40
p5417
sg151
(lp5418
sg153
g104
sg154
Nsg155
(lp5419
I20
aI40
asg157
Nsg158
g5417
sg159
(lp5420
sg161
g60
sg162
Nsg163
Nsg164
Nsbag2
(g3
g4
Ntp5421
Rp5422
(dp5423
g8
g11
sg142
Nsg143
(dp5424
sg145
Nsg26
g29
sg146
(lp5425
I20
aI41
asg148
Nsg149
VJudges 20:41
p5426
sg151
(lp5427
sg153
g104
sg154
Nsg155
(lp5428
I20
aI41
asg157
Nsg158
g5426
sg159
(lp5429
sg161
g60
sg162
Nsg163
Nsg164
Nsbag2
(g3
g4
Ntp5430
Rp5431
(dp5432
g8
g11
sg142
Nsg143
(dp5433
sg145
Nsg26
g29
sg146
(lp5434
I20
aI42
asg148
Nsg149
VJudges 20:42
p5435
sg151
(lp5436
sg153
g104
sg154
Nsg155
(lp5437
I20
aI42
asg157
Nsg158
g5435
sg159
(lp5438
sg161
g60
sg162
Nsg163
Nsg164
Nsbag2
(g3
g4
Ntp5439
Rp5440
(dp5441
g8
g11
sg142
Nsg143
(dp5442
sg145
Nsg26
g29
sg146
(lp5443
I20
aI43
asg148
Nsg149
VJudges 20:43
p5444
sg151
(lp5445
sg153
g104
sg154
Nsg155
(lp5446
I20
aI43
asg157
Nsg158
g5444
sg159
(lp5447
sg161
g60
sg162
Nsg163
Nsg164
Nsbag2
(g3
g4
Ntp5448
Rp5449
(dp5450
g8
g11
sg142
Nsg143
(dp5451
sg145
Nsg26
g29
sg146
(lp5452
I20
aI44
asg148
Nsg149
VJudges 20:44
p5453
sg151
(lp5454
sg153
g104
sg154
Nsg155
(lp5455
I20
aI44
asg157
Nsg158
g5453
sg159
(lp5456
sg161
g60
sg162
Nsg163
Nsg164
Nsbag2
(g3
g4
Ntp5457
Rp5458
(dp5459
g8
g11
sg142
Nsg143
(dp5460
sg145
Nsg26
g29
sg146
(lp5461
I20
aI45
asg148
Nsg149
VJudges 20:45
p5462
sg151
(lp5463
sg153
g104
sg154
Nsg155
(lp5464
I20
aI45
asg157
Nsg158
g5462
sg159
(lp5465
sg161
g60
sg162
Nsg163
Nsg164
Nsbag2
(g3
g4
Ntp5466
Rp5467
(dp5468
g8
g11
sg142
Nsg143
(dp5469
sg145
Nsg26
g29
sg146
(lp5470
I20
aI46
asg148
Nsg149
VJudges 20:46
p5471
sg151
(lp5472
sg153
g104
sg154
Nsg155
(lp5473
I20
aI46
asg157
Nsg158
g5471
sg159
(lp5474
sg161
g60
sg162
Nsg163
Nsg164
Nsbag2
(g3
g4
Ntp5475
Rp5476
(dp5477
g8
g11
sg142
Nsg143
(dp5478
sg145
Nsg26
g29
sg146
(lp5479
I20
aI47
asg148
Nsg149
VJudges 20:47
p5480
sg151
(lp5481
sg153
g104
sg154
Nsg155
(lp5482
I20
aI47
asg157
Nsg158
g5480
sg159
(lp5483
sg161
g60
sg162
Nsg163
Nsg164
Nsbag2
(g3
g4
Ntp5484
Rp5485
(dp5486
g8
g11
sg142
Nsg143
(dp5487
sg145
Nsg26
g29
sg146
(lp5488
I20
aI48
asg148
Nsg149
VJudges 20:48
p5489
sg151
(lp5490
sg153
g104
sg154
Nsg155
(lp5491
I20
aI48
asg157
Nsg158
g5489
sg159
(lp5492
sg161
g60
sg162
Nsg163
Nsg164
Nsbag2
(g3
g4
Ntp5493
Rp5494
(dp5495
g8
g11
sg142
Nsg143
(dp5496
sg145
Nsg26
g29
sg146
(lp5497
I21
aI1
asg148
Nsg149
VJudges 21:1
p5498
sg151
(lp5499
sg153
g104
sg154
Nsg155
(lp5500
I21
aI1
asg157
Nsg158
g5498
sg159
(lp5501
sg161
g60
sg162
Nsg163
Nsg164
Nsbag2
(g3
g4
Ntp5502
Rp5503
(dp5504
g8
g11
sg142
Nsg143
(dp5505
sg145
Nsg26
g29
sg146
(lp5506
I21
aI2
asg148
Nsg149
VJudges 21:2
p5507
sg151
(lp5508
sg153
g104
sg154
Nsg155
(lp5509
I21
aI2
asg157
Nsg158
g5507
sg159
(lp5510
sg161
g60
sg162
Nsg163
Nsg164
Nsbag2
(g3
g4
Ntp5511
Rp5512
(dp5513
g8
g11
sg142
Nsg143
(dp5514
sg145
Nsg26
g29
sg146
(lp5515
I21
aI3
asg148
Nsg149
VJudges 21:3
p5516
sg151
(lp5517
sg153
g104
sg154
Nsg155
(lp5518
I21
aI3
asg157
Nsg158
g5516
sg159
(lp5519
sg161
g60
sg162
Nsg163
Nsg164
Nsbag2
(g3
g4
Ntp5520
Rp5521
(dp5522
g8
g11
sg142
Nsg143
(dp5523
sg145
Nsg26
g29
sg146
(lp5524
I21
aI4
asg148
Nsg149
VJudges 21:4
p5525
sg151
(lp5526
sg153
g104
sg154
Nsg155
(lp5527
I21
aI4
asg157
Nsg158
g5525
sg159
(lp5528
sg161
g60
sg162
Nsg163
Nsg164
Nsbag2
(g3
g4
Ntp5529
Rp5530
(dp5531
g8
g11
sg142
Nsg143
(dp5532
sg145
Nsg26
g29
sg146
(lp5533
I21
aI5
asg148
Nsg149
VJudges 21:5
p5534
sg151
(lp5535
sg153
g104
sg154
Nsg155
(lp5536
I21
aI5
asg157
Nsg158
g5534
sg159
(lp5537
sg161
g60
sg162
Nsg163
Nsg164
Nsbag2
(g3
g4
Ntp5538
Rp5539
(dp5540
g8
g11
sg142
Nsg143
(dp5541
sg145
Nsg26
g29
sg146
(lp5542
I21
aI6
asg148
Nsg149
VJudges 21:6
p5543
sg151
(lp5544
sg153
g104
sg154
Nsg155
(lp5545
I21
aI6
asg157
Nsg158
g5543
sg159
(lp5546
sg161
g60
sg162
Nsg163
Nsg164
Nsbag2
(g3
g4
Ntp5547
Rp5548
(dp5549
g8
g11
sg142
Nsg143
(dp5550
sg145
Nsg26
g29
sg146
(lp5551
I21
aI7
asg148
Nsg149
VJudges 21:7
p5552
sg151
(lp5553
sg153
g104
sg154
Nsg155
(lp5554
I21
aI7
asg157
Nsg158
g5552
sg159
(lp5555
sg161
g60
sg162
Nsg163
Nsg164
Nsbag2
(g3
g4
Ntp5556
Rp5557
(dp5558
g8
g11
sg142
Nsg143
(dp5559
sg145
Nsg26
g29
sg146
(lp5560
I21
aI8
asg148
Nsg149
VJudges 21:8
p5561
sg151
(lp5562
sg153
g104
sg154
Nsg155
(lp5563
I21
aI8
asg157
Nsg158
g5561
sg159
(lp5564
sg161
g60
sg162
Nsg163
Nsg164
Nsbag2
(g3
g4
Ntp5565
Rp5566
(dp5567
g8
g11
sg142
Nsg143
(dp5568
sg145
Nsg26
g29
sg146
(lp5569
I21
aI9
asg148
Nsg149
VJudges 21:9
p5570
sg151
(lp5571
sg153
g104
sg154
Nsg155
(lp5572
I21
aI9
asg157
Nsg158
g5570
sg159
(lp5573
sg161
g60
sg162
Nsg163
Nsg164
Nsbag2
(g3
g4
Ntp5574
Rp5575
(dp5576
g8
g11
sg142
Nsg143
(dp5577
sg145
Nsg26
g29
sg146
(lp5578
I21
aI10
asg148
Nsg149
VJudges 21:10
p5579
sg151
(lp5580
sg153
g104
sg154
Nsg155
(lp5581
I21
aI10
asg157
Nsg158
g5579
sg159
(lp5582
sg161
g60
sg162
Nsg163
Nsg164
Nsbag2
(g3
g4
Ntp5583
Rp5584
(dp5585
g8
g11
sg142
Nsg143
(dp5586
sg145
Nsg26
g29
sg146
(lp5587
I21
aI11
asg148
Nsg149
VJudges 21:11
p5588
sg151
(lp5589
sg153
g104
sg154
Nsg155
(lp5590
I21
aI11
asg157
Nsg158
g5588
sg159
(lp5591
sg161
g60
sg162
Nsg163
Nsg164
Nsbag2
(g3
g4
Ntp5592
Rp5593
(dp5594
g8
g11
sg142
Nsg143
(dp5595
sg145
Nsg26
g29
sg146
(lp5596
I21
aI12
asg148
Nsg149
VJudges 21:12
p5597
sg151
(lp5598
sg153
g104
sg154
Nsg155
(lp5599
I21
aI12
asg157
Nsg158
g5597
sg159
(lp5600
sg161
g60
sg162
Nsg163
Nsg164
Nsbag2
(g3
g4
Ntp5601
Rp5602
(dp5603
g8
g11
sg142
Nsg143
(dp5604
sg145
Nsg26
g29
sg146
(lp5605
I21
aI13
asg148
Nsg149
VJudges 21:13
p5606
sg151
(lp5607
sg153
g104
sg154
Nsg155
(lp5608
I21
aI13
asg157
Nsg158
g5606
sg159
(lp5609
sg161
g60
sg162
Nsg163
Nsg164
Nsbag2
(g3
g4
Ntp5610
Rp5611
(dp5612
g8
g11
sg142
Nsg143
(dp5613
sg145
Nsg26
g29
sg146
(lp5614
I21
aI14
asg148
Nsg149
VJudges 21:14
p5615
sg151
(lp5616
sg153
g104
sg154
Nsg155
(lp5617
I21
aI14
asg157
Nsg158
g5615
sg159
(lp5618
sg161
g60
sg162
Nsg163
Nsg164
Nsbag2
(g3
g4
Ntp5619
Rp5620
(dp5621
g8
g11
sg142
Nsg143
(dp5622
sg145
Nsg26
g29
sg146
(lp5623
I21
aI15
asg148
Nsg149
VJudges 21:15
p5624
sg151
(lp5625
sg153
g104
sg154
Nsg155
(lp5626
I21
aI15
asg157
Nsg158
g5624
sg159
(lp5627
sg161
g60
sg162
Nsg163
Nsg164
Nsbag2
(g3
g4
Ntp5628
Rp5629
(dp5630
g8
g11
sg142
Nsg143
(dp5631
sg145
Nsg26
g29
sg146
(lp5632
I21
aI16
asg148
Nsg149
VJudges 21:16
p5633
sg151
(lp5634
sg153
g104
sg154
Nsg155
(lp5635
I21
aI16
asg157
Nsg158
g5633
sg159
(lp5636
sg161
g60
sg162
Nsg163
Nsg164
Nsbag2
(g3
g4
Ntp5637
Rp5638
(dp5639
g8
g11
sg142
Nsg143
(dp5640
sg145
Nsg26
g29
sg146
(lp5641
I21
aI17
asg148
Nsg149
VJudges 21:17
p5642
sg151
(lp5643
sg153
g104
sg154
Nsg155
(lp5644
I21
aI17
asg157
Nsg158
g5642
sg159
(lp5645
sg161
g60
sg162
Nsg163
Nsg164
Nsbag2
(g3
g4
Ntp5646
Rp5647
(dp5648
g8
g11
sg142
Nsg143
(dp5649
sg145
Nsg26
g29
sg146
(lp5650
I21
aI18
asg148
Nsg149
VJudges 21:18
p5651
sg151
(lp5652
sg153
g104
sg154
Nsg155
(lp5653
I21
aI18
asg157
Nsg158
g5651
sg159
(lp5654
sg161
g60
sg162
Nsg163
Nsg164
Nsbag2
(g3
g4
Ntp5655
Rp5656
(dp5657
g8
g11
sg142
Nsg143
(dp5658
sg145
Nsg26
g29
sg146
(lp5659
I21
aI19
asg148
Nsg149
VJudges 21:19
p5660
sg151
(lp5661
sg153
g104
sg154
Nsg155
(lp5662
I21
aI19
asg157
Nsg158
g5660
sg159
(lp5663
sg161
g60
sg162
Nsg163
Nsg164
Nsbag2
(g3
g4
Ntp5664
Rp5665
(dp5666
g8
g11
sg142
Nsg143
(dp5667
sg145
Nsg26
g29
sg146
(lp5668
I21
aI20
asg148
Nsg149
VJudges 21:20
p5669
sg151
(lp5670
sg153
g104
sg154
Nsg155
(lp5671
I21
aI20
asg157
Nsg158
g5669
sg159
(lp5672
sg161
g60
sg162
Nsg163
Nsg164
Nsbag2
(g3
g4
Ntp5673
Rp5674
(dp5675
g8
g11
sg142
Nsg143
(dp5676
sg145
Nsg26
g29
sg146
(lp5677
I21
aI21
asg148
Nsg149
VJudges 21:21
p5678
sg151
(lp5679
sg153
g104
sg154
Nsg155
(lp5680
I21
aI21
asg157
Nsg158
g5678
sg159
(lp5681
sg161
g60
sg162
Nsg163
Nsg164
Nsbag2
(g3
g4
Ntp5682
Rp5683
(dp5684
g8
g11
sg142
Nsg143
(dp5685
sg145
Nsg26
g29
sg146
(lp5686
I21
aI22
asg148
Nsg149
VJudges 21:22
p5687
sg151
(lp5688
sg153
g104
sg154
Nsg155
(lp5689
I21
aI22
asg157
Nsg158
g5687
sg159
(lp5690
sg161
g60
sg162
Nsg163
Nsg164
Nsbag2
(g3
g4
Ntp5691
Rp5692
(dp5693
g8
g11
sg142
Nsg143
(dp5694
sg145
Nsg26
g29
sg146
(lp5695
I21
aI23
asg148
Nsg149
VJudges 21:23
p5696
sg151
(lp5697
sg153
g104
sg154
Nsg155
(lp5698
I21
aI23
asg157
Nsg158
g5696
sg159
(lp5699
sg161
g60
sg162
Nsg163
Nsg164
Nsbag2
(g3
g4
Ntp5700
Rp5701
(dp5702
g8
g11
sg142
Nsg143
(dp5703
sg145
Nsg26
g29
sg146
(lp5704
I21
aI24
asg148
Nsg149
VJudges 21:24
p5705
sg151
(lp5706
sg153
g104
sg154
Nsg155
(lp5707
I21
aI24
asg157
Nsg158
g5705
sg159
(lp5708
sg161
g60
sg162
Nsg163
Nsg164
Nsbag2
(g3
g4
Ntp5709
Rp5710
(dp5711
g8
g11
sg142
Nsg143
(dp5712
sg145
Nsg26
g29
sg146
(lp5713
I21
aI25
asg148
Nsg149
VJudges 21:25
p5714
sg151
(lp5715
sg153
g104
sg154
Nsg155
(lp5716
I21
aI25
asg157
Nsg158
g5714
sg159
(lp5717
sg161
g60
sg162
Nsg163
Nsg164
Nsbatp5718
.