((lp0
I0
aI9
aI20
aI163
aI174
aI414
aI421
aI486
aI494
aI577
aI584
aI624
aI631
aI692
aI698
aI728
aI740
aI808
aI815
aI1227
aI1235
aI1360
aI1368
aI1428
aI1435
aI1841
aI1846
aI1976
aI1984
aI2150
aI2157
aI2285
aI2291
aI2428
aI2434
aI2506
aI2513
aI2544
aI2549
aI2583
aI2591
aI2687
aI2693
aI2711
aI2714
aI2779
aI2787
aI2978
aI2986
aI3267
aI3274
aI3423
aI3428
aI3521
aI3611
aI3621
aI3792
aI3799
aI3834
aI3840
aI3875
aI3880
aI3974
aI3978
aI4058
aI4068
aI4142
aI4151
aI4206
aI4222
aI4307
aI4314
aI4759
aI4773
aI4897
aI4907
aI5049
aI5051
aI5396
a(lp1
ccopy_reg
_reconstructor
p2
(csefaria.model.text
Ref
p3
c__builtin__
object
p4
Ntp5
Rp6
(dp7
S'index_node'
p8
g2
(csefaria.model.schema
JaggedArrayNode
p9
g4
Ntp10
Rp11
(dp12
S'_address'
p13
(lp14
VMegillat Taanit
p15
aVNisan
p16
asS'_full_titles'
p17
(dp18
sVnodeType
p19
VJaggedArrayNode
p20
sS'parent'
p21
g2
(csefaria.model.schema
SchemaNode
p22
g4
Ntp23
Rp24
(dp25
g13
(lp26
g15
asg17
(dp27
sg21
NsS'index'
p28
g2
(csefaria.model.text
Index
p29
g4
Ntp30
Rp31
(dp32
S'struct_objs'
p33
(dp34
sS'_id'
p35
g2
(cbson.objectid
ObjectId
p36
g4
Ntp37
Rp38
S'Wa\x8bo\xd6\xe4\xa9L&}3]'
p39
bsS'pkeys_orig_values'
p40
(dp41
S'title'
p42
VMegillat Taanit
p43
ssS'pubDate'
p44
V1513
p45
sS'compDate'
p46
V55
p47
sS'pubPlace'
p48
VMantua
p49
sS'compPlace'
p50
VTalmudic Israel/Babylon
p51
sS'enDesc'
p52
VMegillat Taanit (The Fast Scroll) is a chronicle which enumerates 35 eventful days on which the Jewish nation either performed glorious deeds or witnessed joyful events. These days were celebrated as feast-days. Public mourning was forbidden on 14 of them, and public fasting on all. The days are enumerated, not in the chronological order of the events they commemorate, but in the sequence of the calendar. In most of the editions this chronicle consists of two parts, which are distinct in language and in form. The text or Megillat Ta'anit proper, written in Aramaic and containing merely brief outlines in concise style and the Scholia or commentaries on the text, written in Hebrew no earlier than the 7th Century. Megillat Ta'anit is extant in many editions, and has had numerous commentaries. The best edition of the Aramaic and Hebrew text is that of Vered Noam.
p53
sS'era'
p54
VT
p55
sS'authors'
p56
(lp57
sS'nodes'
p58
g24
sS'errorMargin'
p59
V15
p60
sS'_title'
p61
g43
sS'categories'
p62
(lp63
VApocrypha
p64
asS'schema'
p65
(dp66
Vnodes
p67
(lp68
(dp69
g19
g20
sVaddressTypes
p70
(lp71
VInteger
p72
asVsharedTitle
p73
VNisan
p74
sVdepth
p75
I1
sVkey
p76
g16
sVsectionNames
p77
(lp78
VVerse
p79
asa(dp80
VnodeType
p81
VJaggedArrayNode
p82
sVaddressTypes
p83
(lp84
VInteger
p85
asVsharedTitle
p86
VIyar
p87
sVdepth
p88
I1
sVkey
p89
VIyar
p90
sVsectionNames
p91
(lp92
VVerse
p93
asa(dp94
VnodeType
p95
VJaggedArrayNode
p96
sVaddressTypes
p97
(lp98
VInteger
p99
asVsharedTitle
p100
VSivan
p101
sVdepth
p102
I1
sVkey
p103
VSivan
p104
sVsectionNames
p105
(lp106
VVerse
p107
asa(dp108
VnodeType
p109
VJaggedArrayNode
p110
sVaddressTypes
p111
(lp112
VInteger
p113
asVsharedTitle
p114
VTammuz
p115
sVdepth
p116
I1
sVkey
p117
VTammuz
p118
sVsectionNames
p119
(lp120
VVerse
p121
asa(dp122
VnodeType
p123
VJaggedArrayNode
p124
sVaddressTypes
p125
(lp126
VInteger
p127
asVsharedTitle
p128
VAv
p129
sVdepth
p130
I1
sVkey
p131
VAv
p132
sVsectionNames
p133
(lp134
VVerse
p135
asa(dp136
VnodeType
p137
VJaggedArrayNode
p138
sVaddressTypes
p139
(lp140
VInteger
p141
asVsharedTitle
p142
VElul
p143
sVdepth
p144
I1
sVkey
p145
VElul
p146
sVsectionNames
p147
(lp148
VVerse
p149
asa(dp150
VnodeType
p151
VJaggedArrayNode
p152
sVaddressTypes
p153
(lp154
VInteger
p155
asVsharedTitle
p156
VTishrei
p157
sVdepth
p158
I1
sVkey
p159
VTishrei
p160
sVsectionNames
p161
(lp162
VVerse
p163
asa(dp164
VnodeType
p165
VJaggedArrayNode
p166
sVaddressTypes
p167
(lp168
VInteger
p169
asVsharedTitle
p170
VCheshvan
p171
sVdepth
p172
I1
sVkey
p173
VCheshvan
p174
sVsectionNames
p175
(lp176
VVerse
p177
asa(dp178
VnodeType
p179
VJaggedArrayNode
p180
sVaddressTypes
p181
(lp182
VInteger
p183
asVsharedTitle
p184
VKislev
p185
sVdepth
p186
I1
sVkey
p187
VKislev
p188
sVsectionNames
p189
(lp190
VVerse
p191
asa(dp192
VnodeType
p193
VJaggedArrayNode
p194
sVaddressTypes
p195
(lp196
VInteger
p197
asVsharedTitle
p198
VTevet
p199
sVdepth
p200
I1
sVkey
p201
VTevet
p202
sVsectionNames
p203
(lp204
VVerse
p205
asa(dp206
VnodeType
p207
VJaggedArrayNode
p208
sVaddressTypes
p209
(lp210
VInteger
p211
asVsharedTitle
p212
VShevat
p213
sVdepth
p214
I1
sVkey
p215
VShevat
p216
sVsectionNames
p217
(lp218
VVerse
p219
asa(dp220
VnodeType
p221
VJaggedArrayNode
p222
sVaddressTypes
p223
(lp224
VInteger
p225
asVsharedTitle
p226
VAdar
p227
sVdepth
p228
I1
sVkey
p229
VAdar
p230
sVsectionNames
p231
(lp232
VVerse
p233
asasVtitles
p234
(lp235
(dp236
Vlang
p237
Vhe
p238
sVtext
p239
V\u05de\u05d2\u05d9\u05dc\u05ea \u05ea\u05e2\u05e0\u05d9\u05ea
p240
sVprimary
p241
I01
sa(dp242
Vlang
p243
Ven
p244
sVtext
p245
VMegillat Taanit
p246
sVprimary
p247
I01
sasVkey
p248
g15
ssbsS'default'
p249
I00
sS'_primary_title'
p250
(dp251
sS'title_group'
p252
g2
(csefaria.model.schema
TitleGroup
p253
g4
Ntp254
Rp255
(dp256
g250
(dp257
S'en'
p258
g246
ssS'titles'
p259
g235
sbsS'sharedTitle'
p260
NsS'_full_title'
p261
(dp262
g258
g246
ssS'key'
p263
g15
sS'checkFirst'
p264
NsS'_leaf_nodes'
p265
(lp266
sS'children'
p267
(lp268
g11
ag2
(g9
g4
Ntp269
Rp270
(dp271
g13
(lp272
g15
ag90
asg17
(dp273
sg81
g82
sg21
g24
sg83
g84
sg249
I00
sg28
g31
sg250
(dp274
sg252
g2
(g253
g4
Ntp275
Rp276
(dp277
g250
(dp278
g258
VIyar
p279
ssg259
(lp280
(dp281
Vlang
p282
Ven
p283
sVtext
p284
g279
sVprimary
p285
I01
sa(dp286
Vlang
p287
Vhe
p288
sVtext
p289
V\u05d0\u05d9\u05d9\u05e8
p290
sVprimary
p291
I01
sasbsS'_addressTypes'
p292
(lp293
g2
(csefaria.model.schema
AddressInteger
p294
g4
Ntp295
Rp296
(dp297
S'length'
p298
NsS'order'
p299
I0
sbasg260
g87
sg88
I1
sg261
(dp300
g258
VMegillat Taanit, Iyar
p301
ssg263
g90
sg264
NsS'_regexes'
p302
(dp303
sg265
(lp304
sg91
g92
sg267
(lp305
sbag2
(g9
g4
Ntp306
Rp307
(dp308
g13
(lp309
g15
ag104
asg17
(dp310
sg95
g96
sg21
g24
sg97
g98
sg249
I00
sg28
g31
sg250
(dp311
sg252
g2
(g253
g4
Ntp312
Rp313
(dp314
g250
(dp315
g258
VSivan
p316
ssg259
(lp317
(dp318
Vlang
p319
Ven
p320
sVtext
p321
g316
sVprimary
p322
I01
sa(dp323
Vlang
p324
Vhe
p325
sVtext
p326
V\u05e1\u05d9\u05d5\u05d5\u05df
p327
sVprimary
p328
I01
sasbsg292
(lp329
g2
(g294
g4
Ntp330
Rp331
(dp332
g298
Nsg299
I0
sbasg260
g101
sg102
I1
sg261
(dp333
g258
VMegillat Taanit, Sivan
p334
ssg263
g104
sg264
Nsg302
(dp335
sg265
(lp336
sg105
g106
sg267
(lp337
sbag2
(g9
g4
Ntp338
Rp339
(dp340
g13
(lp341
g15
ag118
asg17
(dp342
sg109
g110
sg21
g24
sg111
g112
sg249
I00
sg28
g31
sg250
(dp343
sg252
g2
(g253
g4
Ntp344
Rp345
(dp346
g250
(dp347
g258
VTammuz
p348
ssg259
(lp349
(dp350
Vlang
p351
Ven
p352
sVtext
p353
g348
sVprimary
p354
I01
sa(dp355
Vlang
p356
Vhe
p357
sVtext
p358
V\u05ea\u05de\u05d5\u05d6
p359
sVprimary
p360
I01
sasbsg292
(lp361
g2
(g294
g4
Ntp362
Rp363
(dp364
g298
Nsg299
I0
sbasg260
g115
sg116
I1
sg261
(dp365
g258
VMegillat Taanit, Tammuz
p366
ssg263
g118
sg264
Nsg302
(dp367
sg265
(lp368
sg119
g120
sg267
(lp369
sbag2
(g9
g4
Ntp370
Rp371
(dp372
g13
(lp373
g15
ag132
asg17
(dp374
sg123
g124
sg21
g24
sg125
g126
sg249
I00
sg28
g31
sg250
(dp375
sg252
g2
(g253
g4
Ntp376
Rp377
(dp378
g250
(dp379
g258
VAv
p380
ssg259
(lp381
(dp382
Vlang
p383
Ven
p384
sVtext
p385
g380
sVprimary
p386
I01
sa(dp387
Vlang
p388
Vhe
p389
sVtext
p390
V\u05d0\u05d1
p391
sVprimary
p392
I01
sasbsg292
(lp393
g2
(g294
g4
Ntp394
Rp395
(dp396
g298
Nsg299
I0
sbasg260
g129
sg130
I1
sg261
(dp397
g258
VMegillat Taanit, Av
p398
ssg263
g132
sg264
Nsg302
(dp399
sg265
(lp400
sg133
g134
sg267
(lp401
sbag2
(g9
g4
Ntp402
Rp403
(dp404
g13
(lp405
g15
ag146
asg17
(dp406
sg137
g138
sg21
g24
sg139
g140
sg249
I00
sg28
g31
sg250
(dp407
sg252
g2
(g253
g4
Ntp408
Rp409
(dp410
g250
(dp411
g258
VElul
p412
ssg259
(lp413
(dp414
Vlang
p415
Ven
p416
sVtext
p417
g412
sVprimary
p418
I01
sa(dp419
Vlang
p420
Vhe
p421
sVtext
p422
V\u05d0\u05dc\u05d5\u05dc
p423
sVprimary
p424
I01
sasbsg292
(lp425
g2
(g294
g4
Ntp426
Rp427
(dp428
g298
Nsg299
I0
sbasg260
g143
sg144
I1
sg261
(dp429
g258
VMegillat Taanit, Elul
p430
ssg263
g146
sg264
Nsg302
(dp431
sg265
(lp432
sg147
g148
sg267
(lp433
sbag2
(g9
g4
Ntp434
Rp435
(dp436
g13
(lp437
g15
ag160
asg17
(dp438
sg151
g152
sg21
g24
sg153
g154
sg249
I00
sg28
g31
sg250
(dp439
sg252
g2
(g253
g4
Ntp440
Rp441
(dp442
g250
(dp443
g258
VTishrei
p444
ssg259
(lp445
(dp446
Vlang
p447
Ven
p448
sVtext
p449
g444
sVprimary
p450
I01
sa(dp451
Vlang
p452
Vhe
p453
sVtext
p454
V\u05ea\u05e9\u05e8\u05d9
p455
sVprimary
p456
I01
sasbsg292
(lp457
g2
(g294
g4
Ntp458
Rp459
(dp460
g298
Nsg299
I0
sbasg260
g157
sg158
I1
sg261
(dp461
g258
VMegillat Taanit, Tishrei
p462
ssg263
g160
sg264
Nsg302
(dp463
sg265
(lp464
sg161
g162
sg267
(lp465
sbag2
(g9
g4
Ntp466
Rp467
(dp468
g13
(lp469
g15
ag174
asg17
(dp470
sg165
g166
sg21
g24
sg167
g168
sg249
I00
sg28
g31
sg250
(dp471
sg252
g2
(g253
g4
Ntp472
Rp473
(dp474
g250
(dp475
g258
VCheshvan
p476
ssg259
(lp477
(dp478
Vlang
p479
Ven
p480
sVtext
p481
g476
sVprimary
p482
I01
sa(dp483
Vlang
p484
Vhe
p485
sVtext
p486
V\u05d7\u05e9\u05d5\u05df
p487
sVprimary
p488
I01
sasbsg292
(lp489
g2
(g294
g4
Ntp490
Rp491
(dp492
g298
Nsg299
I0
sbasg260
g171
sg172
I1
sg261
(dp493
g258
VMegillat Taanit, Cheshvan
p494
ssg263
g174
sg264
Nsg302
(dp495
sg265
(lp496
sg175
g176
sg267
(lp497
sbag2
(g9
g4
Ntp498
Rp499
(dp500
g13
(lp501
g15
ag188
asg17
(dp502
sg179
g180
sg21
g24
sg181
g182
sg249
I00
sg28
g31
sg250
(dp503
sg252
g2
(g253
g4
Ntp504
Rp505
(dp506
g250
(dp507
g258
VKislev
p508
ssg259
(lp509
(dp510
Vlang
p511
Ven
p512
sVtext
p513
g508
sVprimary
p514
I01
sa(dp515
Vlang
p516
Vhe
p517
sVtext
p518
V\u05db\u05e1\u05dc\u05d5
p519
sVprimary
p520
I01
sasbsg292
(lp521
g2
(g294
g4
Ntp522
Rp523
(dp524
g298
Nsg299
I0
sbasg260
g185
sg186
I1
sg261
(dp525
g258
VMegillat Taanit, Kislev
p526
ssg263
g188
sg264
Nsg302
(dp527
sg265
(lp528
sg189
g190
sg267
(lp529
sbag2
(g9
g4
Ntp530
Rp531
(dp532
g13
(lp533
g15
ag202
asg17
(dp534
sg193
g194
sg21
g24
sg195
g196
sg249
I00
sg28
g31
sg250
(dp535
sg252
g2
(g253
g4
Ntp536
Rp537
(dp538
g250
(dp539
g258
VTevet
p540
ssg259
(lp541
(dp542
Vlang
p543
Ven
p544
sVtext
p545
g540
sVprimary
p546
I01
sa(dp547
Vlang
p548
Vhe
p549
sVtext
p550
V\u05d8\u05d1\u05ea
p551
sVprimary
p552
I01
sasbsg292
(lp553
g2
(g294
g4
Ntp554
Rp555
(dp556
g298
Nsg299
I0
sbasg260
g199
sg200
I1
sg261
(dp557
g258
VMegillat Taanit, Tevet
p558
ssg263
g202
sg264
Nsg302
(dp559
sg265
(lp560
sg203
g204
sg267
(lp561
sbag2
(g9
g4
Ntp562
Rp563
(dp564
g13
(lp565
g15
ag216
asg17
(dp566
sg207
g208
sg21
g24
sg209
g210
sg249
I00
sg28
g31
sg250
(dp567
sg252
g2
(g253
g4
Ntp568
Rp569
(dp570
g250
(dp571
g258
VShevat
p572
ssg259
(lp573
(dp574
Vlang
p575
Ven
p576
sVtext
p577
g572
sVprimary
p578
I01
sa(dp579
Vlang
p580
Vhe
p581
sVtext
p582
V\u05e9\u05d1\u05d8
p583
sVprimary
p584
I01
sasbsg292
(lp585
g2
(g294
g4
Ntp586
Rp587
(dp588
g298
Nsg299
I0
sbasg260
g213
sg214
I1
sg261
(dp589
g258
VMegillat Taanit, Shevat
p590
ssg263
g216
sg264
Nsg302
(dp591
sg265
(lp592
sg217
g218
sg267
(lp593
sbag2
(g9
g4
Ntp594
Rp595
(dp596
g13
(lp597
g15
ag230
asg17
(dp598
sg221
g222
sg21
g24
sg223
g224
sg249
I00
sg28
g31
sg250
(dp599
sg252
g2
(g253
g4
Ntp600
Rp601
(dp602
g250
(dp603
g258
VAdar
p604
ssg259
(lp605
(dp606
Vlang
p607
Ven
p608
sVtext
p609
g604
sVprimary
p610
I01
sa(dp611
Vlang
p612
Vhe
p613
sVtext
p614
V\u05d0\u05d3\u05e8
p615
sVprimary
p616
I01
sasbsg292
(lp617
g2
(g294
g4
Ntp618
Rp619
(dp620
g298
Nsg299
I0
sbasg260
g227
sg228
I1
sg261
(dp621
g258
VMegillat Taanit, Adar
p622
ssg263
g230
sg264
Nsg302
(dp623
sg265
(lp624
sg231
g232
sg267
(lp625
sbasbsg70
g71
sg249
I00
sg28
g31
sg250
(dp626
sg252
g2
(g253
g4
Ntp627
Rp628
(dp629
g250
(dp630
g258
VNisan
p631
ssg259
(lp632
(dp633
Vlang
p634
Ven
p635
sVtext
p636
g631
sVprimary
p637
I01
sa(dp638
Vlang
p639
Vhe
p640
sVtext
p641
V\u05e0\u05d9\u05e1\u05df
p642
sVprimary
p643
I01
sasbsg292
(lp644
g2
(g294
g4
Ntp645
Rp646
(dp647
g298
Nsg299
I0
sbasg260
g74
sg75
I1
sg261
(dp648
g258
VMegillat Taanit, Nisan
p649
ssg263
g16
sg264
Nsg302
(dp650
sg265
(lp651
sg77
g78
sg267
(lp652
sbsS'_range_index'
p653
NsS'_context'
p654
(dp655
sS'_padded'
p656
Nsg28
g31
sS'sections'
p657
(lp658
I1
asS'_first_spanned_ref'
p659
NsS'tref'
p660
VMegillat Taanit, Nisan 1
p661
sS'_spanned_refs'
p662
(lp663
sS'book'
p664
g649
sS'_range_depth'
p665
NsS'toSections'
p666
(lp667
I1
asS'_url'
p668
NsS'_normal'
p669
g661
sS'_ranged_refs'
p670
(lp671
sS'type'
p672
g64
sS'_prev'
p673
NsS'_he_normal'
p674
NsS'_next'
p675
Nsbag2
(g3
g4
Ntp676
Rp677
(dp678
g8
g11
sg653
Nsg654
(dp679
sg656
Nsg28
g31
sg657
(lp680
I2
asg659
Nsg660
VMegillat Taanit, Nisan 2
p681
sg662
(lp682
sg664
g649
sg665
Nsg666
(lp683
I2
asg668
Nsg669
g681
sg670
(lp684
sg672
g64
sg673
Nsg674
Nsg675
Nsbag2
(g3
g4
Ntp685
Rp686
(dp687
g8
g11
sg653
Nsg654
(dp688
sg656
Nsg28
g31
sg657
(lp689
I3
asg659
Nsg660
VMegillat Taanit, Nisan 3
p690
sg662
(lp691
sg664
g649
sg665
Nsg666
(lp692
I3
asg668
Nsg669
g690
sg670
(lp693
sg672
g64
sg673
Nsg674
Nsg675
Nsbag2
(g3
g4
Ntp694
Rp695
(dp696
g8
g11
sg653
Nsg654
(dp697
sg656
Nsg28
g31
sg657
(lp698
I4
asg659
Nsg660
VMegillat Taanit, Nisan 4
p699
sg662
(lp700
sg664
g649
sg665
Nsg666
(lp701
I4
asg668
Nsg669
g699
sg670
(lp702
sg672
g64
sg673
Nsg674
Nsg675
Nsbag2
(g3
g4
Ntp703
Rp704
(dp705
g8
g11
sg653
Nsg654
(dp706
sg656
Nsg28
g31
sg657
(lp707
I5
asg659
Nsg660
VMegillat Taanit, Nisan 5
p708
sg662
(lp709
sg664
g649
sg665
Nsg666
(lp710
I5
asg668
Nsg669
g708
sg670
(lp711
sg672
g64
sg673
Nsg674
Nsg675
Nsbag2
(g3
g4
Ntp712
Rp713
(dp714
g8
g270
sg653
Nsg654
(dp715
sg656
Nsg28
g31
sg657
(lp716
I1
asg659
Nsg660
VMegillat Taanit, Iyar 1
p717
sg662
(lp718
sg664
g301
sg665
Nsg666
(lp719
I1
asg668
Nsg669
g717
sg670
(lp720
sg672
g64
sg673
Nsg674
Nsg675
Nsbag2
(g3
g4
Ntp721
Rp722
(dp723
g8
g270
sg653
Nsg654
(dp724
sg656
Nsg28
g31
sg657
(lp725
I2
asg659
Nsg660
VMegillat Taanit, Iyar 2
p726
sg662
(lp727
sg664
g301
sg665
Nsg666
(lp728
I2
asg668
Nsg669
g726
sg670
(lp729
sg672
g64
sg673
Nsg674
Nsg675
Nsbag2
(g3
g4
Ntp730
Rp731
(dp732
g8
g270
sg653
Nsg654
(dp733
sg656
Nsg28
g31
sg657
(lp734
I3
asg659
Nsg660
VMegillat Taanit, Iyar 3
p735
sg662
(lp736
sg664
g301
sg665
Nsg666
(lp737
I3
asg668
Nsg669
g735
sg670
(lp738
sg672
g64
sg673
Nsg674
Nsg675
Nsbag2
(g3
g4
Ntp739
Rp740
(dp741
g8
g270
sg653
Nsg654
(dp742
sg656
Nsg28
g31
sg657
(lp743
I4
asg659
Nsg660
VMegillat Taanit, Iyar 4
p744
sg662
(lp745
sg664
g301
sg665
Nsg666
(lp746
I4
asg668
Nsg669
g744
sg670
(lp747
sg672
g64
sg673
Nsg674
Nsg675
Nsbag2
(g3
g4
Ntp748
Rp749
(dp750
g8
g270
sg653
Nsg654
(dp751
sg656
Nsg28
g31
sg657
(lp752
I5
asg659
Nsg660
VMegillat Taanit, Iyar 5
p753
sg662
(lp754
sg664
g301
sg665
Nsg666
(lp755
I5
asg668
Nsg669
g753
sg670
(lp756
sg672
g64
sg673
Nsg674
Nsg675
Nsbag2
(g3
g4
Ntp757
Rp758
(dp759
g8
g270
sg653
Nsg654
(dp760
sg656
Nsg28
g31
sg657
(lp761
I6
asg659
Nsg660
VMegillat Taanit, Iyar 6
p762
sg662
(lp763
sg664
g301
sg665
Nsg666
(lp764
I6
asg668
Nsg669
g762
sg670
(lp765
sg672
g64
sg673
Nsg674
Nsg675
Nsbag2
(g3
g4
Ntp766
Rp767
(dp768
g8
g270
sg653
Nsg654
(dp769
sg656
Nsg28
g31
sg657
(lp770
I7
asg659
Nsg660
VMegillat Taanit, Iyar 7
p771
sg662
(lp772
sg664
g301
sg665
Nsg666
(lp773
I7
asg668
Nsg669
g771
sg670
(lp774
sg672
g64
sg673
Nsg674
Nsg675
Nsbag2
(g3
g4
Ntp775
Rp776
(dp777
g8
g270
sg653
Nsg654
(dp778
sg656
Nsg28
g31
sg657
(lp779
I8
asg659
Nsg660
VMegillat Taanit, Iyar 8
p780
sg662
(lp781
sg664
g301
sg665
Nsg666
(lp782
I8
asg668
Nsg669
g780
sg670
(lp783
sg672
g64
sg673
Nsg674
Nsg675
Nsbag2
(g3
g4
Ntp784
Rp785
(dp786
g8
g307
sg653
Nsg654
(dp787
sg656
Nsg28
g31
sg657
(lp788
I1
asg659
Nsg660
VMegillat Taanit, Sivan 1
p789
sg662
(lp790
sg664
g334
sg665
Nsg666
(lp791
I1
asg668
Nsg669
g789
sg670
(lp792
sg672
g64
sg673
Nsg674
Nsg675
Nsbag2
(g3
g4
Ntp793
Rp794
(dp795
g8
g307
sg653
Nsg654
(dp796
sg656
Nsg28
g31
sg657
(lp797
I2
asg659
Nsg660
VMegillat Taanit, Sivan 2
p798
sg662
(lp799
sg664
g334
sg665
Nsg666
(lp800
I2
asg668
Nsg669
g798
sg670
(lp801
sg672
g64
sg673
Nsg674
Nsg675
Nsbag2
(g3
g4
Ntp802
Rp803
(dp804
g8
g307
sg653
Nsg654
(dp805
sg656
Nsg28
g31
sg657
(lp806
I3
asg659
Nsg660
VMegillat Taanit, Sivan 3
p807
sg662
(lp808
sg664
g334
sg665
Nsg666
(lp809
I3
asg668
Nsg669
g807
sg670
(lp810
sg672
g64
sg673
Nsg674
Nsg675
Nsbag2
(g3
g4
Ntp811
Rp812
(dp813
g8
g307
sg653
Nsg654
(dp814
sg656
Nsg28
g31
sg657
(lp815
I4
asg659
Nsg660
VMegillat Taanit, Sivan 4
p816
sg662
(lp817
sg664
g334
sg665
Nsg666
(lp818
I4
asg668
Nsg669
g816
sg670
(lp819
sg672
g64
sg673
Nsg674
Nsg675
Nsbag2
(g3
g4
Ntp820
Rp821
(dp822
g8
g307
sg653
Nsg654
(dp823
sg656
Nsg28
g31
sg657
(lp824
I5
asg659
Nsg660
VMegillat Taanit, Sivan 5
p825
sg662
(lp826
sg664
g334
sg665
Nsg666
(lp827
I5
asg668
Nsg669
g825
sg670
(lp828
sg672
g64
sg673
Nsg674
Nsg675
Nsbag2
(g3
g4
Ntp829
Rp830
(dp831
g8
g307
sg653
Nsg654
(dp832
sg656
Nsg28
g31
sg657
(lp833
I6
asg659
Nsg660
VMegillat Taanit, Sivan 6
p834
sg662
(lp835
sg664
g334
sg665
Nsg666
(lp836
I6
asg668
Nsg669
g834
sg670
(lp837
sg672
g64
sg673
Nsg674
Nsg675
Nsbag2
(g3
g4
Ntp838
Rp839
(dp840
g8
g339
sg653
Nsg654
(dp841
sg656
Nsg28
g31
sg657
(lp842
I1
asg659
Nsg660
VMegillat Taanit, Tammuz 1
p843
sg662
(lp844
sg664
g366
sg665
Nsg666
(lp845
I1
asg668
Nsg669
g843
sg670
(lp846
sg672
g64
sg673
Nsg674
Nsg675
Nsbag2
(g3
g4
Ntp847
Rp848
(dp849
g8
g339
sg653
Nsg654
(dp850
sg656
Nsg28
g31
sg657
(lp851
I2
asg659
Nsg660
VMegillat Taanit, Tammuz 2
p852
sg662
(lp853
sg664
g366
sg665
Nsg666
(lp854
I2
asg668
Nsg669
g852
sg670
(lp855
sg672
g64
sg673
Nsg674
Nsg675
Nsbag2
(g3
g4
Ntp856
Rp857
(dp858
g8
g371
sg653
Nsg654
(dp859
sg656
Nsg28
g31
sg657
(lp860
I1
asg659
Nsg660
VMegillat Taanit, Av 1
p861
sg662
(lp862
sg664
g398
sg665
Nsg666
(lp863
I1
asg668
Nsg669
g861
sg670
(lp864
sg672
g64
sg673
Nsg674
Nsg675
Nsbag2
(g3
g4
Ntp865
Rp866
(dp867
g8
g371
sg653
Nsg654
(dp868
sg656
Nsg28
g31
sg657
(lp869
I2
asg659
Nsg660
VMegillat Taanit, Av 2
p870
sg662
(lp871
sg664
g398
sg665
Nsg666
(lp872
I2
asg668
Nsg669
g870
sg670
(lp873
sg672
g64
sg673
Nsg674
Nsg675
Nsbag2
(g3
g4
Ntp874
Rp875
(dp876
g8
g371
sg653
Nsg654
(dp877
sg656
Nsg28
g31
sg657
(lp878
I3
asg659
Nsg660
VMegillat Taanit, Av 3
p879
sg662
(lp880
sg664
g398
sg665
Nsg666
(lp881
I3
asg668
Nsg669
g879
sg670
(lp882
sg672
g64
sg673
Nsg674
Nsg675
Nsbag2
(g3
g4
Ntp883
Rp884
(dp885
g8
g371
sg653
Nsg654
(dp886
sg656
Nsg28
g31
sg657
(lp887
I4
asg659
Nsg660
VMegillat Taanit, Av 4
p888
sg662
(lp889
sg664
g398
sg665
Nsg666
(lp890
I4
asg668
Nsg669
g888
sg670
(lp891
sg672
g64
sg673
Nsg674
Nsg675
Nsbag2
(g3
g4
Ntp892
Rp893
(dp894
g8
g371
sg653
Nsg654
(dp895
sg656
Nsg28
g31
sg657
(lp896
I5
asg659
Nsg660
VMegillat Taanit, Av 5
p897
sg662
(lp898
sg664
g398
sg665
Nsg666
(lp899
I5
asg668
Nsg669
g897
sg670
(lp900
sg672
g64
sg673
Nsg674
Nsg675
Nsbag2
(g3
g4
Ntp901
Rp902
(dp903
g8
g371
sg653
Nsg654
(dp904
sg656
Nsg28
g31
sg657
(lp905
I6
asg659
Nsg660
VMegillat Taanit, Av 6
p906
sg662
(lp907
sg664
g398
sg665
Nsg666
(lp908
I6
asg668
Nsg669
g906
sg670
(lp909
sg672
g64
sg673
Nsg674
Nsg675
Nsbag2
(g3
g4
Ntp910
Rp911
(dp912
g8
g403
sg653
Nsg654
(dp913
sg656
Nsg28
g31
sg657
(lp914
I1
asg659
Nsg660
VMegillat Taanit, Elul 1
p915
sg662
(lp916
sg664
g430
sg665
Nsg666
(lp917
I1
asg668
Nsg669
g915
sg670
(lp918
sg672
g64
sg673
Nsg674
Nsg675
Nsbag2
(g3
g4
Ntp919
Rp920
(dp921
g8
g403
sg653
Nsg654
(dp922
sg656
Nsg28
g31
sg657
(lp923
I2
asg659
Nsg660
VMegillat Taanit, Elul 2
p924
sg662
(lp925
sg664
g430
sg665
Nsg666
(lp926
I2
asg668
Nsg669
g924
sg670
(lp927
sg672
g64
sg673
Nsg674
Nsg675
Nsbag2
(g3
g4
Ntp928
Rp929
(dp930
g8
g403
sg653
Nsg654
(dp931
sg656
Nsg28
g31
sg657
(lp932
I3
asg659
Nsg660
VMegillat Taanit, Elul 3
p933
sg662
(lp934
sg664
g430
sg665
Nsg666
(lp935
I3
asg668
Nsg669
g933
sg670
(lp936
sg672
g64
sg673
Nsg674
Nsg675
Nsbag2
(g3
g4
Ntp937
Rp938
(dp939
g8
g403
sg653
Nsg654
(dp940
sg656
Nsg28
g31
sg657
(lp941
I4
asg659
Nsg660
VMegillat Taanit, Elul 4
p942
sg662
(lp943
sg664
g430
sg665
Nsg666
(lp944
I4
asg668
Nsg669
g942
sg670
(lp945
sg672
g64
sg673
Nsg674
Nsg675
Nsbag2
(g3
g4
Ntp946
Rp947
(dp948
g8
g403
sg653
Nsg654
(dp949
sg656
Nsg28
g31
sg657
(lp950
I5
asg659
Nsg660
VMegillat Taanit, Elul 5
p951
sg662
(lp952
sg664
g430
sg665
Nsg666
(lp953
I5
asg668
Nsg669
g951
sg670
(lp954
sg672
g64
sg673
Nsg674
Nsg675
Nsbag2
(g3
g4
Ntp955
Rp956
(dp957
g8
g403
sg653
Nsg654
(dp958
sg656
Nsg28
g31
sg657
(lp959
I6
asg659
Nsg660
VMegillat Taanit, Elul 6
p960
sg662
(lp961
sg664
g430
sg665
Nsg666
(lp962
I6
asg668
Nsg669
g960
sg670
(lp963
sg672
g64
sg673
Nsg674
Nsg675
Nsbag2
(g3
g4
Ntp964
Rp965
(dp966
g8
g435
sg653
Nsg654
(dp967
sg656
Nsg28
g31
sg657
(lp968
I1
asg659
Nsg660
VMegillat Taanit, Tishrei 1
p969
sg662
(lp970
sg664
g462
sg665
Nsg666
(lp971
I1
asg668
Nsg669
g969
sg670
(lp972
sg672
g64
sg673
Nsg674
Nsg675
Nsbag2
(g3
g4
Ntp973
Rp974
(dp975
g8
g435
sg653
Nsg654
(dp976
sg656
Nsg28
g31
sg657
(lp977
I2
asg659
Nsg660
VMegillat Taanit, Tishrei 2
p978
sg662
(lp979
sg664
g462
sg665
Nsg666
(lp980
I2
asg668
Nsg669
g978
sg670
(lp981
sg672
g64
sg673
Nsg674
Nsg675
Nsbag2
(g3
g4
Ntp982
Rp983
(dp984
g8
g467
sg653
Nsg654
(dp985
sg656
Nsg28
g31
sg657
(lp986
I1
asg659
Nsg660
VMegillat Taanit, Cheshvan 1
p987
sg662
(lp988
sg664
g494
sg665
Nsg666
(lp989
I1
asg668
Nsg669
g987
sg670
(lp990
sg672
g64
sg673
Nsg674
Nsg675
Nsbag2
(g3
g4
Ntp991
Rp992
(dp993
g8
g467
sg653
Nsg654
(dp994
sg656
Nsg28
g31
sg657
(lp995
I2
asg659
Nsg660
VMegillat Taanit, Cheshvan 2
p996
sg662
(lp997
sg664
g494
sg665
Nsg666
(lp998
I2
asg668
Nsg669
g996
sg670
(lp999
sg672
g64
sg673
Nsg674
Nsg675
Nsbag2
(g3
g4
Ntp1000
Rp1001
(dp1002
g8
g467
sg653
Nsg654
(dp1003
sg656
Nsg28
g31
sg657
(lp1004
I3
asg659
Nsg660
VMegillat Taanit, Cheshvan 3
p1005
sg662
(lp1006
sg664
g494
sg665
Nsg666
(lp1007
I3
asg668
Nsg669
g1005
sg670
(lp1008
sg672
g64
sg673
Nsg674
Nsg675
Nsbag2
(g3
g4
Ntp1009
Rp1010
(dp1011
g8
g467
sg653
Nsg654
(dp1012
sg656
Nsg28
g31
sg657
(lp1013
I4
asg659
Nsg660
VMegillat Taanit, Cheshvan 4
p1014
sg662
(lp1015
sg664
g494
sg665
Nsg666
(lp1016
I4
asg668
Nsg669
g1014
sg670
(lp1017
sg672
g64
sg673
Nsg674
Nsg675
Nsbag2
(g3
g4
Ntp1018
Rp1019
(dp1020
g8
g467
sg653
Nsg654
(dp1021
sg656
Nsg28
g31
sg657
(lp1022
I5
asg659
Nsg660
VMegillat Taanit, Cheshvan 5
p1023
sg662
(lp1024
sg664
g494
sg665
Nsg666
(lp1025
I5
asg668
Nsg669
g1023
sg670
(lp1026
sg672
g64
sg673
Nsg674
Nsg675
Nsbag2
(g3
g4
Ntp1027
Rp1028
(dp1029
g8
g467
sg653
Nsg654
(dp1030
sg656
Nsg28
g31
sg657
(lp1031
I6
asg659
Nsg660
VMegillat Taanit, Cheshvan 6
p1032
sg662
(lp1033
sg664
g494
sg665
Nsg666
(lp1034
I6
asg668
Nsg669
g1032
sg670
(lp1035
sg672
g64
sg673
Nsg674
Nsg675
Nsbag2
(g3
g4
Ntp1036
Rp1037
(dp1038
g8
g499
sg653
Nsg654
(dp1039
sg656
Nsg28
g31
sg657
(lp1040
I1
asg659
Nsg660
VMegillat Taanit, Kislev 1
p1041
sg662
(lp1042
sg664
g526
sg665
Nsg666
(lp1043
I1
asg668
Nsg669
g1041
sg670
(lp1044
sg672
g64
sg673
Nsg674
Nsg675
Nsbag2
(g3
g4
Ntp1045
Rp1046
(dp1047
g8
g499
sg653
Nsg654
(dp1048
sg656
Nsg28
g31
sg657
(lp1049
I2
asg659
Nsg660
VMegillat Taanit, Kislev 2
p1050
sg662
(lp1051
sg664
g526
sg665
Nsg666
(lp1052
I2
asg668
Nsg669
g1050
sg670
(lp1053
sg672
g64
sg673
Nsg674
Nsg675
Nsbag2
(g3
g4
Ntp1054
Rp1055
(dp1056
g8
g499
sg653
Nsg654
(dp1057
sg656
Nsg28
g31
sg657
(lp1058
I3
asg659
Nsg660
VMegillat Taanit, Kislev 3
p1059
sg662
(lp1060
sg664
g526
sg665
Nsg666
(lp1061
I3
asg668
Nsg669
g1059
sg670
(lp1062
sg672
g64
sg673
Nsg674
Nsg675
Nsbag2
(g3
g4
Ntp1063
Rp1064
(dp1065
g8
g499
sg653
Nsg654
(dp1066
sg656
Nsg28
g31
sg657
(lp1067
I4
asg659
Nsg660
VMegillat Taanit, Kislev 4
p1068
sg662
(lp1069
sg664
g526
sg665
Nsg666
(lp1070
I4
asg668
Nsg669
g1068
sg670
(lp1071
sg672
g64
sg673
Nsg674
Nsg675
Nsbag2
(g3
g4
Ntp1072
Rp1073
(dp1074
g8
g499
sg653
Nsg654
(dp1075
sg656
Nsg28
g31
sg657
(lp1076
I5
asg659
Nsg660
VMegillat Taanit, Kislev 5
p1077
sg662
(lp1078
sg664
g526
sg665
Nsg666
(lp1079
I5
asg668
Nsg669
g1077
sg670
(lp1080
sg672
g64
sg673
Nsg674
Nsg675
Nsbag2
(g3
g4
Ntp1081
Rp1082
(dp1083
g8
g499
sg653
Nsg654
(dp1084
sg656
Nsg28
g31
sg657
(lp1085
I6
asg659
Nsg660
VMegillat Taanit, Kislev 6
p1086
sg662
(lp1087
sg664
g526
sg665
Nsg666
(lp1088
I6
asg668
Nsg669
g1086
sg670
(lp1089
sg672
g64
sg673
Nsg674
Nsg675
Nsbag2
(g3
g4
Ntp1090
Rp1091
(dp1092
g8
g499
sg653
Nsg654
(dp1093
sg656
Nsg28
g31
sg657
(lp1094
I7
asg659
Nsg660
VMegillat Taanit, Kislev 7
p1095
sg662
(lp1096
sg664
g526
sg665
Nsg666
(lp1097
I7
asg668
Nsg669
g1095
sg670
(lp1098
sg672
g64
sg673
Nsg674
Nsg675
Nsbag2
(g3
g4
Ntp1099
Rp1100
(dp1101
g8
g499
sg653
Nsg654
(dp1102
sg656
Nsg28
g31
sg657
(lp1103
I8
asg659
Nsg660
VMegillat Taanit, Kislev 8
p1104
sg662
(lp1105
sg664
g526
sg665
Nsg666
(lp1106
I8
asg668
Nsg669
g1104
sg670
(lp1107
sg672
g64
sg673
Nsg674
Nsg675
Nsbag2
(g3
g4
Ntp1108
Rp1109
(dp1110
g8
g531
sg653
Nsg654
(dp1111
sg656
Nsg28
g31
sg657
(lp1112
I1
asg659
Nsg660
VMegillat Taanit, Tevet 1
p1113
sg662
(lp1114
sg664
g558
sg665
Nsg666
(lp1115
I1
asg668
Nsg669
g1113
sg670
(lp1116
sg672
g64
sg673
Nsg674
Nsg675
Nsbag2
(g3
g4
Ntp1117
Rp1118
(dp1119
g8
g531
sg653
Nsg654
(dp1120
sg656
Nsg28
g31
sg657
(lp1121
I2
asg659
Nsg660
VMegillat Taanit, Tevet 2
p1122
sg662
(lp1123
sg664
g558
sg665
Nsg666
(lp1124
I2
asg668
Nsg669
g1122
sg670
(lp1125
sg672
g64
sg673
Nsg674
Nsg675
Nsbag2
(g3
g4
Ntp1126
Rp1127
(dp1128
g8
g563
sg653
Nsg654
(dp1129
sg656
Nsg28
g31
sg657
(lp1130
I1
asg659
Nsg660
VMegillat Taanit, Shevat 1
p1131
sg662
(lp1132
sg664
g590
sg665
Nsg666
(lp1133
I1
asg668
Nsg669
g1131
sg670
(lp1134
sg672
g64
sg673
Nsg674
Nsg675
Nsbag2
(g3
g4
Ntp1135
Rp1136
(dp1137
g8
g563
sg653
Nsg654
(dp1138
sg656
Nsg28
g31
sg657
(lp1139
I2
asg659
Nsg660
VMegillat Taanit, Shevat 2
p1140
sg662
(lp1141
sg664
g590
sg665
Nsg666
(lp1142
I2
asg668
Nsg669
g1140
sg670
(lp1143
sg672
g64
sg673
Nsg674
Nsg675
Nsbag2
(g3
g4
Ntp1144
Rp1145
(dp1146
g8
g563
sg653
Nsg654
(dp1147
sg656
Nsg28
g31
sg657
(lp1148
I3
asg659
Nsg660
VMegillat Taanit, Shevat 3
p1149
sg662
(lp1150
sg664
g590
sg665
Nsg666
(lp1151
I3
asg668
Nsg669
g1149
sg670
(lp1152
sg672
g64
sg673
Nsg674
Nsg675
Nsbag2
(g3
g4
Ntp1153
Rp1154
(dp1155
g8
g563
sg653
Nsg654
(dp1156
sg656
Nsg28
g31
sg657
(lp1157
I4
asg659
Nsg660
VMegillat Taanit, Shevat 4
p1158
sg662
(lp1159
sg664
g590
sg665
Nsg666
(lp1160
I4
asg668
Nsg669
g1158
sg670
(lp1161
sg672
g64
sg673
Nsg674
Nsg675
Nsbag2
(g3
g4
Ntp1162
Rp1163
(dp1164
g8
g563
sg653
Nsg654
(dp1165
sg656
Nsg28
g31
sg657
(lp1166
I5
asg659
Nsg660
VMegillat Taanit, Shevat 5
p1167
sg662
(lp1168
sg664
g590
sg665
Nsg666
(lp1169
I5
asg668
Nsg669
g1167
sg670
(lp1170
sg672
g64
sg673
Nsg674
Nsg675
Nsbag2
(g3
g4
Ntp1171
Rp1172
(dp1173
g8
g563
sg653
Nsg654
(dp1174
sg656
Nsg28
g31
sg657
(lp1175
I6
asg659
Nsg660
VMegillat Taanit, Shevat 6
p1176
sg662
(lp1177
sg664
g590
sg665
Nsg666
(lp1178
I6
asg668
Nsg669
g1176
sg670
(lp1179
sg672
g64
sg673
Nsg674
Nsg675
Nsbag2
(g3
g4
Ntp1180
Rp1181
(dp1182
g8
g563
sg653
Nsg654
(dp1183
sg656
Nsg28
g31
sg657
(lp1184
I7
asg659
Nsg660
VMegillat Taanit, Shevat 7
p1185
sg662
(lp1186
sg664
g590
sg665
Nsg666
(lp1187
I7
asg668
Nsg669
g1185
sg670
(lp1188
sg672
g64
sg673
Nsg674
Nsg675
Nsbag2
(g3
g4
Ntp1189
Rp1190
(dp1191
g8
g595
sg653
Nsg654
(dp1192
sg656
Nsg28
g31
sg657
(lp1193
I1
asg659
Nsg660
VMegillat Taanit, Adar 1
p1194
sg662
(lp1195
sg664
g622
sg665
Nsg666
(lp1196
I1
asg668
Nsg669
g1194
sg670
(lp1197
sg672
g64
sg673
Nsg674
Nsg675
Nsbag2
(g3
g4
Ntp1198
Rp1199
(dp1200
g8
g595
sg653
Nsg654
(dp1201
sg656
Nsg28
g31
sg657
(lp1202
I2
asg659
Nsg660
VMegillat Taanit, Adar 2
p1203
sg662
(lp1204
sg664
g622
sg665
Nsg666
(lp1205
I2
asg668
Nsg669
g1203
sg670
(lp1206
sg672
g64
sg673
Nsg674
Nsg675
Nsbag2
(g3
g4
Ntp1207
Rp1208
(dp1209
g8
g595
sg653
Nsg654
(dp1210
sg656
Nsg28
g31
sg657
(lp1211
I3
asg659
Nsg660
VMegillat Taanit, Adar 3
p1212
sg662
(lp1213
sg664
g622
sg665
Nsg666
(lp1214
I3
asg668
Nsg669
g1212
sg670
(lp1215
sg672
g64
sg673
Nsg674
Nsg675
Nsbag2
(g3
g4
Ntp1216
Rp1217
(dp1218
g8
g595
sg653
Nsg654
(dp1219
sg656
Nsg28
g31
sg657
(lp1220
I4
asg659
Nsg660
VMegillat Taanit, Adar 4
p1221
sg662
(lp1222
sg664
g622
sg665
Nsg666
(lp1223
I4
asg668
Nsg669
g1221
sg670
(lp1224
sg672
g64
sg673
Nsg674
Nsg675
Nsbag2
(g3
g4
Ntp1225
Rp1226
(dp1227
g8
g595
sg653
Nsg654
(dp1228
sg656
Nsg28
g31
sg657
(lp1229
I5
asg659
Nsg660
VMegillat Taanit, Adar 5
p1230
sg662
(lp1231
sg664
g622
sg665
Nsg666
(lp1232
I5
asg668
Nsg669
g1230
sg670
(lp1233
sg672
g64
sg673
Nsg674
Nsg675
Nsbag2
(g3
g4
Ntp1234
Rp1235
(dp1236
g8
g595
sg653
Nsg654
(dp1237
sg656
Nsg28
g31
sg657
(lp1238
I6
asg659
Nsg660
VMegillat Taanit, Adar 6
p1239
sg662
(lp1240
sg664
g622
sg665
Nsg666
(lp1241
I6
asg668
Nsg669
g1239
sg670
(lp1242
sg672
g64
sg673
Nsg674
Nsg675
Nsbag2
(g3
g4
Ntp1243
Rp1244
(dp1245
g8
g595
sg653
Nsg654
(dp1246
sg656
Nsg28
g31
sg657
(lp1247
I7
asg659
Nsg660
VMegillat Taanit, Adar 7
p1248
sg662
(lp1249
sg664
g622
sg665
Nsg666
(lp1250
I7
asg668
Nsg669
g1248
sg670
(lp1251
sg672
g64
sg673
Nsg674
Nsg675
Nsbag2
(g3
g4
Ntp1252
Rp1253
(dp1254
g8
g595
sg653
Nsg654
(dp1255
sg656
Nsg28
g31
sg657
(lp1256
I8
asg659
Nsg660
VMegillat Taanit, Adar 8
p1257
sg662
(lp1258
sg664
g622
sg665
Nsg666
(lp1259
I8
asg668
Nsg669
g1257
sg670
(lp1260
sg672
g64
sg673
Nsg674
Nsg675
Nsbag2
(g3
g4
Ntp1261
Rp1262
(dp1263
g8
g595
sg653
Nsg654
(dp1264
sg656
Nsg28
g31
sg657
(lp1265
I9
asg659
Nsg660
VMegillat Taanit, Adar 9
p1266
sg662
(lp1267
sg664
g622
sg665
Nsg666
(lp1268
I9
asg668
Nsg669
g1266
sg670
(lp1269
sg672
g64
sg673
Nsg674
Nsg675
Nsbag2
(g3
g4
Ntp1270
Rp1271
(dp1272
g8
g595
sg653
Nsg654
(dp1273
sg656
Nsg28
g31
sg657
(lp1274
I10
asg659
Nsg660
VMegillat Taanit, Adar 10
p1275
sg662
(lp1276
sg664
g622
sg665
Nsg666
(lp1277
I10
asg668
Nsg669
g1275
sg670
(lp1278
sg672
g64
sg673
Nsg674
Nsg675
Nsbag2
(g3
g4
Ntp1279
Rp1280
(dp1281
g8
g595
sg653
Nsg654
(dp1282
sg656
Nsg28
g31
sg657
(lp1283
I11
asg659
Nsg660
VMegillat Taanit, Adar 11
p1284
sg662
(lp1285
sg664
g622
sg665
Nsg666
(lp1286
I11
asg668
Nsg669
g1284
sg670
(lp1287
sg672
g64
sg673
Nsg674
Nsg675
Nsbag2
(g3
g4
Ntp1288
Rp1289
(dp1290
g8
g595
sg653
Nsg654
(dp1291
sg656
Nsg28
g31
sg657
(lp1292
I12
asg659
Nsg660
VMegillat Taanit, Adar 12
p1293
sg662
(lp1294
sg664
g622
sg665
Nsg666
(lp1295
I12
asg668
Nsg669
g1293
sg670
(lp1296
sg672
g64
sg673
Nsg674
Nsg675
Nsbag2
(g3
g4
Ntp1297
Rp1298
(dp1299
g8
g595
sg653
Nsg654
(dp1300
sg656
Nsg28
g31
sg657
(lp1301
I13
asg659
Nsg660
VMegillat Taanit, Adar 13
p1302
sg662
(lp1303
sg664
g622
sg665
Nsg666
(lp1304
I13
asg668
Nsg669
g1302
sg670
(lp1305
sg672
g64
sg673
Nsg674
Nsg675
Nsbag2
(g3
g4
Ntp1306
Rp1307
(dp1308
g8
g595
sg653
Nsg654
(dp1309
sg656
Nsg28
g31
sg657
(lp1310
I14
asg659
Nsg660
VMegillat Taanit, Adar 14
p1311
sg662
(lp1312
sg664
g622
sg665
Nsg666
(lp1313
I14
asg668
Nsg669
g1311
sg670
(lp1314
sg672
g64
sg673
Nsg674
Nsg675
Nsbag2
(g3
g4
Ntp1315
Rp1316
(dp1317
g8
g595
sg653
Nsg654
(dp1318
sg656
Nsg28
g31
sg657
(lp1319
I15
asg659
Nsg660
VMegillat Taanit, Adar 15
p1320
sg662
(lp1321
sg664
g622
sg665
Nsg666
(lp1322
I15
asg668
Nsg669
g1320
sg670
(lp1323
sg672
g64
sg673
Nsg674
Nsg675
Nsbag2
(g3
g4
Ntp1324
Rp1325
(dp1326
g8
g595
sg653
Nsg654
(dp1327
sg656
Nsg28
g31
sg657
(lp1328
I16
asg659
Nsg660
VMegillat Taanit, Adar 16
p1329
sg662
(lp1330
sg664
g622
sg665
Nsg666
(lp1331
I16
asg668
Nsg669
g1329
sg670
(lp1332
sg672
g64
sg673
Nsg674
Nsg675
Nsbag2
(g3
g4
Ntp1333
Rp1334
(dp1335
g8
g595
sg653
Nsg654
(dp1336
sg656
Nsg28
g31
sg657
(lp1337
I17
asg659
Nsg660
VMegillat Taanit, Adar 17
p1338
sg662
(lp1339
sg664
g622
sg665
Nsg666
(lp1340
I17
asg668
Nsg669
g1338
sg670
(lp1341
sg672
g64
sg673
Nsg674
Nsg675
Nsbag2
(g3
g4
Ntp1342
Rp1343
(dp1344
g8
g595
sg653
Nsg654
(dp1345
sg656
Nsg28
g31
sg657
(lp1346
I18
asg659
Nsg660
VMegillat Taanit, Adar 18
p1347
sg662
(lp1348
sg664
g622
sg665
Nsg666
(lp1349
I18
asg668
Nsg669
g1347
sg670
(lp1350
sg672
g64
sg673
Nsg674
Nsg675
Nsbag2
(g3
g4
Ntp1351
Rp1352
(dp1353
g8
g595
sg653
Nsg654
(dp1354
sg656
Nsg28
g31
sg657
(lp1355
I19
asg659
Nsg660
VMegillat Taanit, Adar 19
p1356
sg662
(lp1357
sg664
g622
sg665
Nsg666
(lp1358
I19
asg668
Nsg669
g1356
sg670
(lp1359
sg672
g64
sg673
Nsg674
Nsg675
Nsbag2
(g3
g4
Ntp1360
Rp1361
(dp1362
g8
g595
sg653
Nsg654
(dp1363
sg656
Nsg28
g31
sg657
(lp1364
I20
asg659
Nsg660
VMegillat Taanit, Adar 20
p1365
sg662
(lp1366
sg664
g622
sg665
Nsg666
(lp1367
I20
asg668
Nsg669
g1365
sg670
(lp1368
sg672
g64
sg673
Nsg674
Nsg675
Nsbag2
(g3
g4
Ntp1369
Rp1370
(dp1371
g8
g595
sg653
Nsg654
(dp1372
sg656
Nsg28
g31
sg657
(lp1373
I21
asg659
Nsg660
VMegillat Taanit, Adar 21
p1374
sg662
(lp1375
sg664
g622
sg665
Nsg666
(lp1376
I21
asg668
Nsg669
g1374
sg670
(lp1377
sg672
g64
sg673
Nsg674
Nsg675
Nsbatp1378
.