((lp0
I0
aI18
aI32
aI43
aI54
aI71
aI82
aI101
aI115
aI128
aI139
aI155
aI167
aI182
aI193
aI204
aI215
aI229
aI239
aI260
aI279
aI288
aI297
aI312
aI324
aI334
aI345
aI359
aI376
aI389
aI401
aI412
aI428
aI443
aI462
aI476
aI488
aI502
aI517
aI522
aI542
aI554
aI570
aI594
aI618
aI631
aI645
aI655
aI670
aI684
aI698
aI719
aI729
aI741
aI762
aI776
aI794
aI806
aI821
aI838
aI855
aI875
aI895
aI902
aI912
aI918
aI925
aI934
aI939
aI948
aI960
aI976
aI984
aI997
aI1018
aI1029
aI1043
aI1062
aI1073
aI1082
aI1088
aI1098
aI1105
aI1118
aI1132
aI1150
aI1164
aI1179
aI1193
aI1204
aI1215
aI1227
aI1235
aI1248
aI1264
aI1281
aI1288
aI1304
aI1311
aI1326
aI1332
aI1343
aI1356
aI1374
aI1383
a(lp1
ccopy_reg
_reconstructor
p2
(csefaria.model.text
Ref
p3
c__builtin__
object
p4
Ntp5
Rp6
(dp7
S'index_node'
p8
g2
(csefaria.model.schema
JaggedArrayNode
p9
g4
Ntp10
Rp11
(dp12
S'_address'
p13
(lp14
VMicah
p15
asS'_full_titles'
p16
(dp17
sVnodeType
p18
VJaggedArrayNode
p19
sS'parent'
p20
NsVaddressTypes
p21
(lp22
VInteger
p23
aVInteger
p24
asS'default'
p25
I00
sS'index'
p26
g2
(csefaria.model.text
Index
p27
g4
Ntp28
Rp29
(dp30
S'_id'
p31
g2
(cbson.objectid
ObjectId
p32
g4
Ntp33
Rp34
S'NJ\xb8l\xed\xba\xb4X3\x00\x00\x13'
p35
bsS'pkeys_orig_values'
p36
(dp37
S'title'
p38
VMicah
p39
ssS'pubDate'
p40
V1488
p41
sS'compDate'
p42
V-600
p43
sS'pubPlace'
p44
VSoncino
p45
sS'compPlace'
p46
VJudea/Israel
p47
sS'enDesc'
p48
VThe Book of Micah is the sixth of the Tere Asar (Twelve Minor Prophets). The term denotes the short length of the text in relation to the longer prophetic texts known as the Major Prophets. It records the sayings of Micah, a prophet from the village of Moresheth in Judah. The book has three major divisions, chapters 1\u20132, 3\u20135 and 6\u20137, each introduced by the word "Hear," with a pattern of alternating announcements of doom and expressions of hope within each division. Micah reproaches unjust leaders, defends the rights of the poor against the rich and powerful, and preaches social justice; while looking forward to a world at peace centred on Zion under the leadership of a new Davidic monarch. While the book is relatively short, it includes lament (1.8\u201316; 7.8\u201310), theophany (1.3\u20134), hymnic prayer of petition and confidence (7.14\u201320),[7] and the "covenant lawsuit" (6.1\u20138), a distinct genre in which God sues Israel for breach of contract, that is, for violation of the Sinai covenant.
p49
sS'order'
p50
(lp51
I20
aI15
asS'struct_objs'
p52
(dp53
sS'nodes'
p54
g11
sS'errorMargin'
p55
V150
p56
sS'_title'
p57
g39
sS'categories'
p58
(lp59
VTanakh
p60
aVProphets
p61
asS'schema'
p62
(dp63
g18
g19
sg21
g22
sVlengths
p64
(lp65
I7
aI105
asVdepth
p66
I2
sVtitles
p67
(lp68
(dp69
Vlang
p70
Ven
p71
sVtext
p72
VMic.
p73
sa(dp74
Vlang
p75
Ven
p76
sVtext
p77
VMic
p78
sa(dp79
Vlang
p80
Ven
p81
sVtext
p82
VMikha
p83
sa(dp84
Vlang
p85
Vhe
p86
sVtext
p87
V\u05de\u05d9\u05db\u05d4
p88
sVprimary
p89
I01
sa(dp90
Vlang
p91
Ven
p92
sVtext
p93
VMicah
p94
sVprimary
p95
I01
sasVkey
p96
g15
sVsectionNames
p97
(lp98
VChapter
p99
aVVerse
p100
assbsS'_primary_title'
p101
(dp102
sS'title_group'
p103
g2
(csefaria.model.schema
TitleGroup
p104
g4
Ntp105
Rp106
(dp107
g101
(dp108
S'en'
p109
g94
ssS'titles'
p110
g68
sbsS'_addressTypes'
p111
(lp112
g2
(csefaria.model.schema
AddressInteger
p113
g4
Ntp114
Rp115
(dp116
S'length'
p117
I7
sg50
I0
sbag2
(g113
g4
Ntp118
Rp119
(dp120
g117
Nsg50
I1
sbasS'sharedTitle'
p121
Nsg64
g65
sg66
I2
sS'_full_title'
p122
(dp123
g109
g94
ssS'key'
p124
g15
sS'checkFirst'
p125
NsS'_regexes'
p126
(dp127
sS'_leaf_nodes'
p128
(lp129
sg97
g98
sS'children'
p130
(lp131
sbsS'_range_index'
p132
NsS'_context'
p133
(dp134
sS'_padded'
p135
Nsg26
g29
sS'sections'
p136
(lp137
I1
aI1
asS'_first_spanned_ref'
p138
NsS'tref'
p139
VMicah 1:1
p140
sS'_spanned_refs'
p141
(lp142
sS'book'
p143
g94
sS'_range_depth'
p144
NsS'toSections'
p145
(lp146
I1
aI1
asS'_url'
p147
NsS'_normal'
p148
g140
sS'_ranged_refs'
p149
(lp150
sS'type'
p151
g60
sS'_prev'
p152
NsS'_he_normal'
p153
NsS'_next'
p154
Nsbag2
(g3
g4
Ntp155
Rp156
(dp157
g8
g11
sg132
Nsg133
(dp158
sg135
Nsg26
g29
sg136
(lp159
I1
aI2
asg138
Nsg139
VMicah 1:2
p160
sg141
(lp161
sg143
g94
sg144
Nsg145
(lp162
I1
aI2
asg147
Nsg148
g160
sg149
(lp163
sg151
g60
sg152
Nsg153
Nsg154
Nsbag2
(g3
g4
Ntp164
Rp165
(dp166
g8
g11
sg132
Nsg133
(dp167
sg135
Nsg26
g29
sg136
(lp168
I1
aI3
asg138
Nsg139
VMicah 1:3
p169
sg141
(lp170
sg143
g94
sg144
Nsg145
(lp171
I1
aI3
asg147
Nsg148
g169
sg149
(lp172
sg151
g60
sg152
Nsg153
Nsg154
Nsbag2
(g3
g4
Ntp173
Rp174
(dp175
g8
g11
sg132
Nsg133
(dp176
sg135
Nsg26
g29
sg136
(lp177
I1
aI4
asg138
Nsg139
VMicah 1:4
p178
sg141
(lp179
sg143
g94
sg144
Nsg145
(lp180
I1
aI4
asg147
Nsg148
g178
sg149
(lp181
sg151
g60
sg152
Nsg153
Nsg154
Nsbag2
(g3
g4
Ntp182
Rp183
(dp184
g8
g11
sg132
Nsg133
(dp185
sg135
Nsg26
g29
sg136
(lp186
I1
aI5
asg138
Nsg139
VMicah 1:5
p187
sg141
(lp188
sg143
g94
sg144
Nsg145
(lp189
I1
aI5
asg147
Nsg148
g187
sg149
(lp190
sg151
g60
sg152
Nsg153
Nsg154
Nsbag2
(g3
g4
Ntp191
Rp192
(dp193
g8
g11
sg132
Nsg133
(dp194
sg135
Nsg26
g29
sg136
(lp195
I1
aI6
asg138
Nsg139
VMicah 1:6
p196
sg141
(lp197
sg143
g94
sg144
Nsg145
(lp198
I1
aI6
asg147
Nsg148
g196
sg149
(lp199
sg151
g60
sg152
Nsg153
Nsg154
Nsbag2
(g3
g4
Ntp200
Rp201
(dp202
g8
g11
sg132
Nsg133
(dp203
sg135
Nsg26
g29
sg136
(lp204
I1
aI7
asg138
Nsg139
VMicah 1:7
p205
sg141
(lp206
sg143
g94
sg144
Nsg145
(lp207
I1
aI7
asg147
Nsg148
g205
sg149
(lp208
sg151
g60
sg152
Nsg153
Nsg154
Nsbag2
(g3
g4
Ntp209
Rp210
(dp211
g8
g11
sg132
Nsg133
(dp212
sg135
Nsg26
g29
sg136
(lp213
I1
aI8
asg138
Nsg139
VMicah 1:8
p214
sg141
(lp215
sg143
g94
sg144
Nsg145
(lp216
I1
aI8
asg147
Nsg148
g214
sg149
(lp217
sg151
g60
sg152
Nsg153
Nsg154
Nsbag2
(g3
g4
Ntp218
Rp219
(dp220
g8
g11
sg132
Nsg133
(dp221
sg135
Nsg26
g29
sg136
(lp222
I1
aI9
asg138
Nsg139
VMicah 1:9
p223
sg141
(lp224
sg143
g94
sg144
Nsg145
(lp225
I1
aI9
asg147
Nsg148
g223
sg149
(lp226
sg151
g60
sg152
Nsg153
Nsg154
Nsbag2
(g3
g4
Ntp227
Rp228
(dp229
g8
g11
sg132
Nsg133
(dp230
sg135
Nsg26
g29
sg136
(lp231
I1
aI10
asg138
Nsg139
VMicah 1:10
p232
sg141
(lp233
sg143
g94
sg144
Nsg145
(lp234
I1
aI10
asg147
Nsg148
g232
sg149
(lp235
sg151
g60
sg152
Nsg153
Nsg154
Nsbag2
(g3
g4
Ntp236
Rp237
(dp238
g8
g11
sg132
Nsg133
(dp239
sg135
Nsg26
g29
sg136
(lp240
I1
aI11
asg138
Nsg139
VMicah 1:11
p241
sg141
(lp242
sg143
g94
sg144
Nsg145
(lp243
I1
aI11
asg147
Nsg148
g241
sg149
(lp244
sg151
g60
sg152
Nsg153
Nsg154
Nsbag2
(g3
g4
Ntp245
Rp246
(dp247
g8
g11
sg132
Nsg133
(dp248
sg135
Nsg26
g29
sg136
(lp249
I1
aI12
asg138
Nsg139
VMicah 1:12
p250
sg141
(lp251
sg143
g94
sg144
Nsg145
(lp252
I1
aI12
asg147
Nsg148
g250
sg149
(lp253
sg151
g60
sg152
Nsg153
Nsg154
Nsbag2
(g3
g4
Ntp254
Rp255
(dp256
g8
g11
sg132
Nsg133
(dp257
sg135
Nsg26
g29
sg136
(lp258
I1
aI13
asg138
Nsg139
VMicah 1:13
p259
sg141
(lp260
sg143
g94
sg144
Nsg145
(lp261
I1
aI13
asg147
Nsg148
g259
sg149
(lp262
sg151
g60
sg152
Nsg153
Nsg154
Nsbag2
(g3
g4
Ntp263
Rp264
(dp265
g8
g11
sg132
Nsg133
(dp266
sg135
Nsg26
g29
sg136
(lp267
I1
aI14
asg138
Nsg139
VMicah 1:14
p268
sg141
(lp269
sg143
g94
sg144
Nsg145
(lp270
I1
aI14
asg147
Nsg148
g268
sg149
(lp271
sg151
g60
sg152
Nsg153
Nsg154
Nsbag2
(g3
g4
Ntp272
Rp273
(dp274
g8
g11
sg132
Nsg133
(dp275
sg135
Nsg26
g29
sg136
(lp276
I1
aI15
asg138
Nsg139
VMicah 1:15
p277
sg141
(lp278
sg143
g94
sg144
Nsg145
(lp279
I1
aI15
asg147
Nsg148
g277
sg149
(lp280
sg151
g60
sg152
Nsg153
Nsg154
Nsbag2
(g3
g4
Ntp281
Rp282
(dp283
g8
g11
sg132
Nsg133
(dp284
sg135
Nsg26
g29
sg136
(lp285
I1
aI16
asg138
Nsg139
VMicah 1:16
p286
sg141
(lp287
sg143
g94
sg144
Nsg145
(lp288
I1
aI16
asg147
Nsg148
g286
sg149
(lp289
sg151
g60
sg152
Nsg153
Nsg154
Nsbag2
(g3
g4
Ntp290
Rp291
(dp292
g8
g11
sg132
Nsg133
(dp293
sg135
Nsg26
g29
sg136
(lp294
I2
aI1
asg138
Nsg139
VMicah 2:1
p295
sg141
(lp296
sg143
g94
sg144
Nsg145
(lp297
I2
aI1
asg147
Nsg148
g295
sg149
(lp298
sg151
g60
sg152
Nsg153
Nsg154
Nsbag2
(g3
g4
Ntp299
Rp300
(dp301
g8
g11
sg132
Nsg133
(dp302
sg135
Nsg26
g29
sg136
(lp303
I2
aI2
asg138
Nsg139
VMicah 2:2
p304
sg141
(lp305
sg143
g94
sg144
Nsg145
(lp306
I2
aI2
asg147
Nsg148
g304
sg149
(lp307
sg151
g60
sg152
Nsg153
Nsg154
Nsbag2
(g3
g4
Ntp308
Rp309
(dp310
g8
g11
sg132
Nsg133
(dp311
sg135
Nsg26
g29
sg136
(lp312
I2
aI3
asg138
Nsg139
VMicah 2:3
p313
sg141
(lp314
sg143
g94
sg144
Nsg145
(lp315
I2
aI3
asg147
Nsg148
g313
sg149
(lp316
sg151
g60
sg152
Nsg153
Nsg154
Nsbag2
(g3
g4
Ntp317
Rp318
(dp319
g8
g11
sg132
Nsg133
(dp320
sg135
Nsg26
g29
sg136
(lp321
I2
aI4
asg138
Nsg139
VMicah 2:4
p322
sg141
(lp323
sg143
g94
sg144
Nsg145
(lp324
I2
aI4
asg147
Nsg148
g322
sg149
(lp325
sg151
g60
sg152
Nsg153
Nsg154
Nsbag2
(g3
g4
Ntp326
Rp327
(dp328
g8
g11
sg132
Nsg133
(dp329
sg135
Nsg26
g29
sg136
(lp330
I2
aI5
asg138
Nsg139
VMicah 2:5
p331
sg141
(lp332
sg143
g94
sg144
Nsg145
(lp333
I2
aI5
asg147
Nsg148
g331
sg149
(lp334
sg151
g60
sg152
Nsg153
Nsg154
Nsbag2
(g3
g4
Ntp335
Rp336
(dp337
g8
g11
sg132
Nsg133
(dp338
sg135
Nsg26
g29
sg136
(lp339
I2
aI6
asg138
Nsg139
VMicah 2:6
p340
sg141
(lp341
sg143
g94
sg144
Nsg145
(lp342
I2
aI6
asg147
Nsg148
g340
sg149
(lp343
sg151
g60
sg152
Nsg153
Nsg154
Nsbag2
(g3
g4
Ntp344
Rp345
(dp346
g8
g11
sg132
Nsg133
(dp347
sg135
Nsg26
g29
sg136
(lp348
I2
aI7
asg138
Nsg139
VMicah 2:7
p349
sg141
(lp350
sg143
g94
sg144
Nsg145
(lp351
I2
aI7
asg147
Nsg148
g349
sg149
(lp352
sg151
g60
sg152
Nsg153
Nsg154
Nsbag2
(g3
g4
Ntp353
Rp354
(dp355
g8
g11
sg132
Nsg133
(dp356
sg135
Nsg26
g29
sg136
(lp357
I2
aI8
asg138
Nsg139
VMicah 2:8
p358
sg141
(lp359
sg143
g94
sg144
Nsg145
(lp360
I2
aI8
asg147
Nsg148
g358
sg149
(lp361
sg151
g60
sg152
Nsg153
Nsg154
Nsbag2
(g3
g4
Ntp362
Rp363
(dp364
g8
g11
sg132
Nsg133
(dp365
sg135
Nsg26
g29
sg136
(lp366
I2
aI9
asg138
Nsg139
VMicah 2:9
p367
sg141
(lp368
sg143
g94
sg144
Nsg145
(lp369
I2
aI9
asg147
Nsg148
g367
sg149
(lp370
sg151
g60
sg152
Nsg153
Nsg154
Nsbag2
(g3
g4
Ntp371
Rp372
(dp373
g8
g11
sg132
Nsg133
(dp374
sg135
Nsg26
g29
sg136
(lp375
I2
aI10
asg138
Nsg139
VMicah 2:10
p376
sg141
(lp377
sg143
g94
sg144
Nsg145
(lp378
I2
aI10
asg147
Nsg148
g376
sg149
(lp379
sg151
g60
sg152
Nsg153
Nsg154
Nsbag2
(g3
g4
Ntp380
Rp381
(dp382
g8
g11
sg132
Nsg133
(dp383
sg135
Nsg26
g29
sg136
(lp384
I2
aI11
asg138
Nsg139
VMicah 2:11
p385
sg141
(lp386
sg143
g94
sg144
Nsg145
(lp387
I2
aI11
asg147
Nsg148
g385
sg149
(lp388
sg151
g60
sg152
Nsg153
Nsg154
Nsbag2
(g3
g4
Ntp389
Rp390
(dp391
g8
g11
sg132
Nsg133
(dp392
sg135
Nsg26
g29
sg136
(lp393
I2
aI12
asg138
Nsg139
VMicah 2:12
p394
sg141
(lp395
sg143
g94
sg144
Nsg145
(lp396
I2
aI12
asg147
Nsg148
g394
sg149
(lp397
sg151
g60
sg152
Nsg153
Nsg154
Nsbag2
(g3
g4
Ntp398
Rp399
(dp400
g8
g11
sg132
Nsg133
(dp401
sg135
Nsg26
g29
sg136
(lp402
I2
aI13
asg138
Nsg139
VMicah 2:13
p403
sg141
(lp404
sg143
g94
sg144
Nsg145
(lp405
I2
aI13
asg147
Nsg148
g403
sg149
(lp406
sg151
g60
sg152
Nsg153
Nsg154
Nsbag2
(g3
g4
Ntp407
Rp408
(dp409
g8
g11
sg132
Nsg133
(dp410
sg135
Nsg26
g29
sg136
(lp411
I3
aI1
asg138
Nsg139
VMicah 3:1
p412
sg141
(lp413
sg143
g94
sg144
Nsg145
(lp414
I3
aI1
asg147
Nsg148
g412
sg149
(lp415
sg151
g60
sg152
Nsg153
Nsg154
Nsbag2
(g3
g4
Ntp416
Rp417
(dp418
g8
g11
sg132
Nsg133
(dp419
sg135
Nsg26
g29
sg136
(lp420
I3
aI2
asg138
Nsg139
VMicah 3:2
p421
sg141
(lp422
sg143
g94
sg144
Nsg145
(lp423
I3
aI2
asg147
Nsg148
g421
sg149
(lp424
sg151
g60
sg152
Nsg153
Nsg154
Nsbag2
(g3
g4
Ntp425
Rp426
(dp427
g8
g11
sg132
Nsg133
(dp428
sg135
Nsg26
g29
sg136
(lp429
I3
aI3
asg138
Nsg139
VMicah 3:3
p430
sg141
(lp431
sg143
g94
sg144
Nsg145
(lp432
I3
aI3
asg147
Nsg148
g430
sg149
(lp433
sg151
g60
sg152
Nsg153
Nsg154
Nsbag2
(g3
g4
Ntp434
Rp435
(dp436
g8
g11
sg132
Nsg133
(dp437
sg135
Nsg26
g29
sg136
(lp438
I3
aI4
asg138
Nsg139
VMicah 3:4
p439
sg141
(lp440
sg143
g94
sg144
Nsg145
(lp441
I3
aI4
asg147
Nsg148
g439
sg149
(lp442
sg151
g60
sg152
Nsg153
Nsg154
Nsbag2
(g3
g4
Ntp443
Rp444
(dp445
g8
g11
sg132
Nsg133
(dp446
sg135
Nsg26
g29
sg136
(lp447
I3
aI5
asg138
Nsg139
VMicah 3:5
p448
sg141
(lp449
sg143
g94
sg144
Nsg145
(lp450
I3
aI5
asg147
Nsg148
g448
sg149
(lp451
sg151
g60
sg152
Nsg153
Nsg154
Nsbag2
(g3
g4
Ntp452
Rp453
(dp454
g8
g11
sg132
Nsg133
(dp455
sg135
Nsg26
g29
sg136
(lp456
I3
aI6
asg138
Nsg139
VMicah 3:6
p457
sg141
(lp458
sg143
g94
sg144
Nsg145
(lp459
I3
aI6
asg147
Nsg148
g457
sg149
(lp460
sg151
g60
sg152
Nsg153
Nsg154
Nsbag2
(g3
g4
Ntp461
Rp462
(dp463
g8
g11
sg132
Nsg133
(dp464
sg135
Nsg26
g29
sg136
(lp465
I3
aI7
asg138
Nsg139
VMicah 3:7
p466
sg141
(lp467
sg143
g94
sg144
Nsg145
(lp468
I3
aI7
asg147
Nsg148
g466
sg149
(lp469
sg151
g60
sg152
Nsg153
Nsg154
Nsbag2
(g3
g4
Ntp470
Rp471
(dp472
g8
g11
sg132
Nsg133
(dp473
sg135
Nsg26
g29
sg136
(lp474
I3
aI8
asg138
Nsg139
VMicah 3:8
p475
sg141
(lp476
sg143
g94
sg144
Nsg145
(lp477
I3
aI8
asg147
Nsg148
g475
sg149
(lp478
sg151
g60
sg152
Nsg153
Nsg154
Nsbag2
(g3
g4
Ntp479
Rp480
(dp481
g8
g11
sg132
Nsg133
(dp482
sg135
Nsg26
g29
sg136
(lp483
I3
aI9
asg138
Nsg139
VMicah 3:9
p484
sg141
(lp485
sg143
g94
sg144
Nsg145
(lp486
I3
aI9
asg147
Nsg148
g484
sg149
(lp487
sg151
g60
sg152
Nsg153
Nsg154
Nsbag2
(g3
g4
Ntp488
Rp489
(dp490
g8
g11
sg132
Nsg133
(dp491
sg135
Nsg26
g29
sg136
(lp492
I3
aI10
asg138
Nsg139
VMicah 3:10
p493
sg141
(lp494
sg143
g94
sg144
Nsg145
(lp495
I3
aI10
asg147
Nsg148
g493
sg149
(lp496
sg151
g60
sg152
Nsg153
Nsg154
Nsbag2
(g3
g4
Ntp497
Rp498
(dp499
g8
g11
sg132
Nsg133
(dp500
sg135
Nsg26
g29
sg136
(lp501
I3
aI11
asg138
Nsg139
VMicah 3:11
p502
sg141
(lp503
sg143
g94
sg144
Nsg145
(lp504
I3
aI11
asg147
Nsg148
g502
sg149
(lp505
sg151
g60
sg152
Nsg153
Nsg154
Nsbag2
(g3
g4
Ntp506
Rp507
(dp508
g8
g11
sg132
Nsg133
(dp509
sg135
Nsg26
g29
sg136
(lp510
I3
aI12
asg138
Nsg139
VMicah 3:12
p511
sg141
(lp512
sg143
g94
sg144
Nsg145
(lp513
I3
aI12
asg147
Nsg148
g511
sg149
(lp514
sg151
g60
sg152
Nsg153
Nsg154
Nsbag2
(g3
g4
Ntp515
Rp516
(dp517
g8
g11
sg132
Nsg133
(dp518
sg135
Nsg26
g29
sg136
(lp519
I4
aI1
asg138
Nsg139
VMicah 4:1
p520
sg141
(lp521
sg143
g94
sg144
Nsg145
(lp522
I4
aI1
asg147
Nsg148
g520
sg149
(lp523
sg151
g60
sg152
Nsg153
Nsg154
Nsbag2
(g3
g4
Ntp524
Rp525
(dp526
g8
g11
sg132
Nsg133
(dp527
sg135
Nsg26
g29
sg136
(lp528
I4
aI2
asg138
Nsg139
VMicah 4:2
p529
sg141
(lp530
sg143
g94
sg144
Nsg145
(lp531
I4
aI2
asg147
Nsg148
g529
sg149
(lp532
sg151
g60
sg152
Nsg153
Nsg154
Nsbag2
(g3
g4
Ntp533
Rp534
(dp535
g8
g11
sg132
Nsg133
(dp536
sg135
Nsg26
g29
sg136
(lp537
I4
aI3
asg138
Nsg139
VMicah 4:3
p538
sg141
(lp539
sg143
g94
sg144
Nsg145
(lp540
I4
aI3
asg147
Nsg148
g538
sg149
(lp541
sg151
g60
sg152
Nsg153
Nsg154
Nsbag2
(g3
g4
Ntp542
Rp543
(dp544
g8
g11
sg132
Nsg133
(dp545
sg135
Nsg26
g29
sg136
(lp546
I4
aI4
asg138
Nsg139
VMicah 4:4
p547
sg141
(lp548
sg143
g94
sg144
Nsg145
(lp549
I4
aI4
asg147
Nsg148
g547
sg149
(lp550
sg151
g60
sg152
Nsg153
Nsg154
Nsbag2
(g3
g4
Ntp551
Rp552
(dp553
g8
g11
sg132
Nsg133
(dp554
sg135
Nsg26
g29
sg136
(lp555
I4
aI5
asg138
Nsg139
VMicah 4:5
p556
sg141
(lp557
sg143
g94
sg144
Nsg145
(lp558
I4
aI5
asg147
Nsg148
g556
sg149
(lp559
sg151
g60
sg152
Nsg153
Nsg154
Nsbag2
(g3
g4
Ntp560
Rp561
(dp562
g8
g11
sg132
Nsg133
(dp563
sg135
Nsg26
g29
sg136
(lp564
I4
aI6
asg138
Nsg139
VMicah 4:6
p565
sg141
(lp566
sg143
g94
sg144
Nsg145
(lp567
I4
aI6
asg147
Nsg148
g565
sg149
(lp568
sg151
g60
sg152
Nsg153
Nsg154
Nsbag2
(g3
g4
Ntp569
Rp570
(dp571
g8
g11
sg132
Nsg133
(dp572
sg135
Nsg26
g29
sg136
(lp573
I4
aI7
asg138
Nsg139
VMicah 4:7
p574
sg141
(lp575
sg143
g94
sg144
Nsg145
(lp576
I4
aI7
asg147
Nsg148
g574
sg149
(lp577
sg151
g60
sg152
Nsg153
Nsg154
Nsbag2
(g3
g4
Ntp578
Rp579
(dp580
g8
g11
sg132
Nsg133
(dp581
sg135
Nsg26
g29
sg136
(lp582
I4
aI8
asg138
Nsg139
VMicah 4:8
p583
sg141
(lp584
sg143
g94
sg144
Nsg145
(lp585
I4
aI8
asg147
Nsg148
g583
sg149
(lp586
sg151
g60
sg152
Nsg153
Nsg154
Nsbag2
(g3
g4
Ntp587
Rp588
(dp589
g8
g11
sg132
Nsg133
(dp590
sg135
Nsg26
g29
sg136
(lp591
I4
aI9
asg138
Nsg139
VMicah 4:9
p592
sg141
(lp593
sg143
g94
sg144
Nsg145
(lp594
I4
aI9
asg147
Nsg148
g592
sg149
(lp595
sg151
g60
sg152
Nsg153
Nsg154
Nsbag2
(g3
g4
Ntp596
Rp597
(dp598
g8
g11
sg132
Nsg133
(dp599
sg135
Nsg26
g29
sg136
(lp600
I4
aI10
asg138
Nsg139
VMicah 4:10
p601
sg141
(lp602
sg143
g94
sg144
Nsg145
(lp603
I4
aI10
asg147
Nsg148
g601
sg149
(lp604
sg151
g60
sg152
Nsg153
Nsg154
Nsbag2
(g3
g4
Ntp605
Rp606
(dp607
g8
g11
sg132
Nsg133
(dp608
sg135
Nsg26
g29
sg136
(lp609
I4
aI11
asg138
Nsg139
VMicah 4:11
p610
sg141
(lp611
sg143
g94
sg144
Nsg145
(lp612
I4
aI11
asg147
Nsg148
g610
sg149
(lp613
sg151
g60
sg152
Nsg153
Nsg154
Nsbag2
(g3
g4
Ntp614
Rp615
(dp616
g8
g11
sg132
Nsg133
(dp617
sg135
Nsg26
g29
sg136
(lp618
I4
aI12
asg138
Nsg139
VMicah 4:12
p619
sg141
(lp620
sg143
g94
sg144
Nsg145
(lp621
I4
aI12
asg147
Nsg148
g619
sg149
(lp622
sg151
g60
sg152
Nsg153
Nsg154
Nsbag2
(g3
g4
Ntp623
Rp624
(dp625
g8
g11
sg132
Nsg133
(dp626
sg135
Nsg26
g29
sg136
(lp627
I4
aI13
asg138
Nsg139
VMicah 4:13
p628
sg141
(lp629
sg143
g94
sg144
Nsg145
(lp630
I4
aI13
asg147
Nsg148
g628
sg149
(lp631
sg151
g60
sg152
Nsg153
Nsg154
Nsbag2
(g3
g4
Ntp632
Rp633
(dp634
g8
g11
sg132
Nsg133
(dp635
sg135
Nsg26
g29
sg136
(lp636
I4
aI14
asg138
Nsg139
VMicah 4:14
p637
sg141
(lp638
sg143
g94
sg144
Nsg145
(lp639
I4
aI14
asg147
Nsg148
g637
sg149
(lp640
sg151
g60
sg152
Nsg153
Nsg154
Nsbag2
(g3
g4
Ntp641
Rp642
(dp643
g8
g11
sg132
Nsg133
(dp644
sg135
Nsg26
g29
sg136
(lp645
I5
aI1
asg138
Nsg139
VMicah 5:1
p646
sg141
(lp647
sg143
g94
sg144
Nsg145
(lp648
I5
aI1
asg147
Nsg148
g646
sg149
(lp649
sg151
g60
sg152
Nsg153
Nsg154
Nsbag2
(g3
g4
Ntp650
Rp651
(dp652
g8
g11
sg132
Nsg133
(dp653
sg135
Nsg26
g29
sg136
(lp654
I5
aI2
asg138
Nsg139
VMicah 5:2
p655
sg141
(lp656
sg143
g94
sg144
Nsg145
(lp657
I5
aI2
asg147
Nsg148
g655
sg149
(lp658
sg151
g60
sg152
Nsg153
Nsg154
Nsbag2
(g3
g4
Ntp659
Rp660
(dp661
g8
g11
sg132
Nsg133
(dp662
sg135
Nsg26
g29
sg136
(lp663
I5
aI3
asg138
Nsg139
VMicah 5:3
p664
sg141
(lp665
sg143
g94
sg144
Nsg145
(lp666
I5
aI3
asg147
Nsg148
g664
sg149
(lp667
sg151
g60
sg152
Nsg153
Nsg154
Nsbag2
(g3
g4
Ntp668
Rp669
(dp670
g8
g11
sg132
Nsg133
(dp671
sg135
Nsg26
g29
sg136
(lp672
I5
aI4
asg138
Nsg139
VMicah 5:4
p673
sg141
(lp674
sg143
g94
sg144
Nsg145
(lp675
I5
aI4
asg147
Nsg148
g673
sg149
(lp676
sg151
g60
sg152
Nsg153
Nsg154
Nsbag2
(g3
g4
Ntp677
Rp678
(dp679
g8
g11
sg132
Nsg133
(dp680
sg135
Nsg26
g29
sg136
(lp681
I5
aI5
asg138
Nsg139
VMicah 5:5
p682
sg141
(lp683
sg143
g94
sg144
Nsg145
(lp684
I5
aI5
asg147
Nsg148
g682
sg149
(lp685
sg151
g60
sg152
Nsg153
Nsg154
Nsbag2
(g3
g4
Ntp686
Rp687
(dp688
g8
g11
sg132
Nsg133
(dp689
sg135
Nsg26
g29
sg136
(lp690
I5
aI6
asg138
Nsg139
VMicah 5:6
p691
sg141
(lp692
sg143
g94
sg144
Nsg145
(lp693
I5
aI6
asg147
Nsg148
g691
sg149
(lp694
sg151
g60
sg152
Nsg153
Nsg154
Nsbag2
(g3
g4
Ntp695
Rp696
(dp697
g8
g11
sg132
Nsg133
(dp698
sg135
Nsg26
g29
sg136
(lp699
I5
aI7
asg138
Nsg139
VMicah 5:7
p700
sg141
(lp701
sg143
g94
sg144
Nsg145
(lp702
I5
aI7
asg147
Nsg148
g700
sg149
(lp703
sg151
g60
sg152
Nsg153
Nsg154
Nsbag2
(g3
g4
Ntp704
Rp705
(dp706
g8
g11
sg132
Nsg133
(dp707
sg135
Nsg26
g29
sg136
(lp708
I5
aI8
asg138
Nsg139
VMicah 5:8
p709
sg141
(lp710
sg143
g94
sg144
Nsg145
(lp711
I5
aI8
asg147
Nsg148
g709
sg149
(lp712
sg151
g60
sg152
Nsg153
Nsg154
Nsbag2
(g3
g4
Ntp713
Rp714
(dp715
g8
g11
sg132
Nsg133
(dp716
sg135
Nsg26
g29
sg136
(lp717
I5
aI9
asg138
Nsg139
VMicah 5:9
p718
sg141
(lp719
sg143
g94
sg144
Nsg145
(lp720
I5
aI9
asg147
Nsg148
g718
sg149
(lp721
sg151
g60
sg152
Nsg153
Nsg154
Nsbag2
(g3
g4
Ntp722
Rp723
(dp724
g8
g11
sg132
Nsg133
(dp725
sg135
Nsg26
g29
sg136
(lp726
I5
aI10
asg138
Nsg139
VMicah 5:10
p727
sg141
(lp728
sg143
g94
sg144
Nsg145
(lp729
I5
aI10
asg147
Nsg148
g727
sg149
(lp730
sg151
g60
sg152
Nsg153
Nsg154
Nsbag2
(g3
g4
Ntp731
Rp732
(dp733
g8
g11
sg132
Nsg133
(dp734
sg135
Nsg26
g29
sg136
(lp735
I5
aI11
asg138
Nsg139
VMicah 5:11
p736
sg141
(lp737
sg143
g94
sg144
Nsg145
(lp738
I5
aI11
asg147
Nsg148
g736
sg149
(lp739
sg151
g60
sg152
Nsg153
Nsg154
Nsbag2
(g3
g4
Ntp740
Rp741
(dp742
g8
g11
sg132
Nsg133
(dp743
sg135
Nsg26
g29
sg136
(lp744
I5
aI12
asg138
Nsg139
VMicah 5:12
p745
sg141
(lp746
sg143
g94
sg144
Nsg145
(lp747
I5
aI12
asg147
Nsg148
g745
sg149
(lp748
sg151
g60
sg152
Nsg153
Nsg154
Nsbag2
(g3
g4
Ntp749
Rp750
(dp751
g8
g11
sg132
Nsg133
(dp752
sg135
Nsg26
g29
sg136
(lp753
I5
aI13
asg138
Nsg139
VMicah 5:13
p754
sg141
(lp755
sg143
g94
sg144
Nsg145
(lp756
I5
aI13
asg147
Nsg148
g754
sg149
(lp757
sg151
g60
sg152
Nsg153
Nsg154
Nsbag2
(g3
g4
Ntp758
Rp759
(dp760
g8
g11
sg132
Nsg133
(dp761
sg135
Nsg26
g29
sg136
(lp762
I5
aI14
asg138
Nsg139
VMicah 5:14
p763
sg141
(lp764
sg143
g94
sg144
Nsg145
(lp765
I5
aI14
asg147
Nsg148
g763
sg149
(lp766
sg151
g60
sg152
Nsg153
Nsg154
Nsbag2
(g3
g4
Ntp767
Rp768
(dp769
g8
g11
sg132
Nsg133
(dp770
sg135
Nsg26
g29
sg136
(lp771
I6
aI1
asg138
Nsg139
VMicah 6:1
p772
sg141
(lp773
sg143
g94
sg144
Nsg145
(lp774
I6
aI1
asg147
Nsg148
g772
sg149
(lp775
sg151
g60
sg152
Nsg153
Nsg154
Nsbag2
(g3
g4
Ntp776
Rp777
(dp778
g8
g11
sg132
Nsg133
(dp779
sg135
Nsg26
g29
sg136
(lp780
I6
aI2
asg138
Nsg139
VMicah 6:2
p781
sg141
(lp782
sg143
g94
sg144
Nsg145
(lp783
I6
aI2
asg147
Nsg148
g781
sg149
(lp784
sg151
g60
sg152
Nsg153
Nsg154
Nsbag2
(g3
g4
Ntp785
Rp786
(dp787
g8
g11
sg132
Nsg133
(dp788
sg135
Nsg26
g29
sg136
(lp789
I6
aI3
asg138
Nsg139
VMicah 6:3
p790
sg141
(lp791
sg143
g94
sg144
Nsg145
(lp792
I6
aI3
asg147
Nsg148
g790
sg149
(lp793
sg151
g60
sg152
Nsg153
Nsg154
Nsbag2
(g3
g4
Ntp794
Rp795
(dp796
g8
g11
sg132
Nsg133
(dp797
sg135
Nsg26
g29
sg136
(lp798
I6
aI4
asg138
Nsg139
VMicah 6:4
p799
sg141
(lp800
sg143
g94
sg144
Nsg145
(lp801
I6
aI4
asg147
Nsg148
g799
sg149
(lp802
sg151
g60
sg152
Nsg153
Nsg154
Nsbag2
(g3
g4
Ntp803
Rp804
(dp805
g8
g11
sg132
Nsg133
(dp806
sg135
Nsg26
g29
sg136
(lp807
I6
aI5
asg138
Nsg139
VMicah 6:5
p808
sg141
(lp809
sg143
g94
sg144
Nsg145
(lp810
I6
aI5
asg147
Nsg148
g808
sg149
(lp811
sg151
g60
sg152
Nsg153
Nsg154
Nsbag2
(g3
g4
Ntp812
Rp813
(dp814
g8
g11
sg132
Nsg133
(dp815
sg135
Nsg26
g29
sg136
(lp816
I6
aI6
asg138
Nsg139
VMicah 6:6
p817
sg141
(lp818
sg143
g94
sg144
Nsg145
(lp819
I6
aI6
asg147
Nsg148
g817
sg149
(lp820
sg151
g60
sg152
Nsg153
Nsg154
Nsbag2
(g3
g4
Ntp821
Rp822
(dp823
g8
g11
sg132
Nsg133
(dp824
sg135
Nsg26
g29
sg136
(lp825
I6
aI7
asg138
Nsg139
VMicah 6:7
p826
sg141
(lp827
sg143
g94
sg144
Nsg145
(lp828
I6
aI7
asg147
Nsg148
g826
sg149
(lp829
sg151
g60
sg152
Nsg153
Nsg154
Nsbag2
(g3
g4
Ntp830
Rp831
(dp832
g8
g11
sg132
Nsg133
(dp833
sg135
Nsg26
g29
sg136
(lp834
I6
aI8
asg138
Nsg139
VMicah 6:8
p835
sg141
(lp836
sg143
g94
sg144
Nsg145
(lp837
I6
aI8
asg147
Nsg148
g835
sg149
(lp838
sg151
g60
sg152
Nsg153
Nsg154
Nsbag2
(g3
g4
Ntp839
Rp840
(dp841
g8
g11
sg132
Nsg133
(dp842
sg135
Nsg26
g29
sg136
(lp843
I6
aI9
asg138
Nsg139
VMicah 6:9
p844
sg141
(lp845
sg143
g94
sg144
Nsg145
(lp846
I6
aI9
asg147
Nsg148
g844
sg149
(lp847
sg151
g60
sg152
Nsg153
Nsg154
Nsbag2
(g3
g4
Ntp848
Rp849
(dp850
g8
g11
sg132
Nsg133
(dp851
sg135
Nsg26
g29
sg136
(lp852
I6
aI10
asg138
Nsg139
VMicah 6:10
p853
sg141
(lp854
sg143
g94
sg144
Nsg145
(lp855
I6
aI10
asg147
Nsg148
g853
sg149
(lp856
sg151
g60
sg152
Nsg153
Nsg154
Nsbag2
(g3
g4
Ntp857
Rp858
(dp859
g8
g11
sg132
Nsg133
(dp860
sg135
Nsg26
g29
sg136
(lp861
I6
aI11
asg138
Nsg139
VMicah 6:11
p862
sg141
(lp863
sg143
g94
sg144
Nsg145
(lp864
I6
aI11
asg147
Nsg148
g862
sg149
(lp865
sg151
g60
sg152
Nsg153
Nsg154
Nsbag2
(g3
g4
Ntp866
Rp867
(dp868
g8
g11
sg132
Nsg133
(dp869
sg135
Nsg26
g29
sg136
(lp870
I6
aI12
asg138
Nsg139
VMicah 6:12
p871
sg141
(lp872
sg143
g94
sg144
Nsg145
(lp873
I6
aI12
asg147
Nsg148
g871
sg149
(lp874
sg151
g60
sg152
Nsg153
Nsg154
Nsbag2
(g3
g4
Ntp875
Rp876
(dp877
g8
g11
sg132
Nsg133
(dp878
sg135
Nsg26
g29
sg136
(lp879
I6
aI13
asg138
Nsg139
VMicah 6:13
p880
sg141
(lp881
sg143
g94
sg144
Nsg145
(lp882
I6
aI13
asg147
Nsg148
g880
sg149
(lp883
sg151
g60
sg152
Nsg153
Nsg154
Nsbag2
(g3
g4
Ntp884
Rp885
(dp886
g8
g11
sg132
Nsg133
(dp887
sg135
Nsg26
g29
sg136
(lp888
I6
aI14
asg138
Nsg139
VMicah 6:14
p889
sg141
(lp890
sg143
g94
sg144
Nsg145
(lp891
I6
aI14
asg147
Nsg148
g889
sg149
(lp892
sg151
g60
sg152
Nsg153
Nsg154
Nsbag2
(g3
g4
Ntp893
Rp894
(dp895
g8
g11
sg132
Nsg133
(dp896
sg135
Nsg26
g29
sg136
(lp897
I6
aI15
asg138
Nsg139
VMicah 6:15
p898
sg141
(lp899
sg143
g94
sg144
Nsg145
(lp900
I6
aI15
asg147
Nsg148
g898
sg149
(lp901
sg151
g60
sg152
Nsg153
Nsg154
Nsbag2
(g3
g4
Ntp902
Rp903
(dp904
g8
g11
sg132
Nsg133
(dp905
sg135
Nsg26
g29
sg136
(lp906
I6
aI16
asg138
Nsg139
VMicah 6:16
p907
sg141
(lp908
sg143
g94
sg144
Nsg145
(lp909
I6
aI16
asg147
Nsg148
g907
sg149
(lp910
sg151
g60
sg152
Nsg153
Nsg154
Nsbag2
(g3
g4
Ntp911
Rp912
(dp913
g8
g11
sg132
Nsg133
(dp914
sg135
Nsg26
g29
sg136
(lp915
I7
aI1
asg138
Nsg139
VMicah 7:1
p916
sg141
(lp917
sg143
g94
sg144
Nsg145
(lp918
I7
aI1
asg147
Nsg148
g916
sg149
(lp919
sg151
g60
sg152
Nsg153
Nsg154
Nsbag2
(g3
g4
Ntp920
Rp921
(dp922
g8
g11
sg132
Nsg133
(dp923
sg135
Nsg26
g29
sg136
(lp924
I7
aI2
asg138
Nsg139
VMicah 7:2
p925
sg141
(lp926
sg143
g94
sg144
Nsg145
(lp927
I7
aI2
asg147
Nsg148
g925
sg149
(lp928
sg151
g60
sg152
Nsg153
Nsg154
Nsbag2
(g3
g4
Ntp929
Rp930
(dp931
g8
g11
sg132
Nsg133
(dp932
sg135
Nsg26
g29
sg136
(lp933
I7
aI3
asg138
Nsg139
VMicah 7:3
p934
sg141
(lp935
sg143
g94
sg144
Nsg145
(lp936
I7
aI3
asg147
Nsg148
g934
sg149
(lp937
sg151
g60
sg152
Nsg153
Nsg154
Nsbag2
(g3
g4
Ntp938
Rp939
(dp940
g8
g11
sg132
Nsg133
(dp941
sg135
Nsg26
g29
sg136
(lp942
I7
aI4
asg138
Nsg139
VMicah 7:4
p943
sg141
(lp944
sg143
g94
sg144
Nsg145
(lp945
I7
aI4
asg147
Nsg148
g943
sg149
(lp946
sg151
g60
sg152
Nsg153
Nsg154
Nsbag2
(g3
g4
Ntp947
Rp948
(dp949
g8
g11
sg132
Nsg133
(dp950
sg135
Nsg26
g29
sg136
(lp951
I7
aI5
asg138
Nsg139
VMicah 7:5
p952
sg141
(lp953
sg143
g94
sg144
Nsg145
(lp954
I7
aI5
asg147
Nsg148
g952
sg149
(lp955
sg151
g60
sg152
Nsg153
Nsg154
Nsbag2
(g3
g4
Ntp956
Rp957
(dp958
g8
g11
sg132
Nsg133
(dp959
sg135
Nsg26
g29
sg136
(lp960
I7
aI6
asg138
Nsg139
VMicah 7:6
p961
sg141
(lp962
sg143
g94
sg144
Nsg145
(lp963
I7
aI6
asg147
Nsg148
g961
sg149
(lp964
sg151
g60
sg152
Nsg153
Nsg154
Nsbag2
(g3
g4
Ntp965
Rp966
(dp967
g8
g11
sg132
Nsg133
(dp968
sg135
Nsg26
g29
sg136
(lp969
I7
aI7
asg138
Nsg139
VMicah 7:7
p970
sg141
(lp971
sg143
g94
sg144
Nsg145
(lp972
I7
aI7
asg147
Nsg148
g970
sg149
(lp973
sg151
g60
sg152
Nsg153
Nsg154
Nsbag2
(g3
g4
Ntp974
Rp975
(dp976
g8
g11
sg132
Nsg133
(dp977
sg135
Nsg26
g29
sg136
(lp978
I7
aI8
asg138
Nsg139
VMicah 7:8
p979
sg141
(lp980
sg143
g94
sg144
Nsg145
(lp981
I7
aI8
asg147
Nsg148
g979
sg149
(lp982
sg151
g60
sg152
Nsg153
Nsg154
Nsbag2
(g3
g4
Ntp983
Rp984
(dp985
g8
g11
sg132
Nsg133
(dp986
sg135
Nsg26
g29
sg136
(lp987
I7
aI9
asg138
Nsg139
VMicah 7:9
p988
sg141
(lp989
sg143
g94
sg144
Nsg145
(lp990
I7
aI9
asg147
Nsg148
g988
sg149
(lp991
sg151
g60
sg152
Nsg153
Nsg154
Nsbag2
(g3
g4
Ntp992
Rp993
(dp994
g8
g11
sg132
Nsg133
(dp995
sg135
Nsg26
g29
sg136
(lp996
I7
aI10
asg138
Nsg139
VMicah 7:10
p997
sg141
(lp998
sg143
g94
sg144
Nsg145
(lp999
I7
aI10
asg147
Nsg148
g997
sg149
(lp1000
sg151
g60
sg152
Nsg153
Nsg154
Nsbag2
(g3
g4
Ntp1001
Rp1002
(dp1003
g8
g11
sg132
Nsg133
(dp1004
sg135
Nsg26
g29
sg136
(lp1005
I7
aI11
asg138
Nsg139
VMicah 7:11
p1006
sg141
(lp1007
sg143
g94
sg144
Nsg145
(lp1008
I7
aI11
asg147
Nsg148
g1006
sg149
(lp1009
sg151
g60
sg152
Nsg153
Nsg154
Nsbag2
(g3
g4
Ntp1010
Rp1011
(dp1012
g8
g11
sg132
Nsg133
(dp1013
sg135
Nsg26
g29
sg136
(lp1014
I7
aI12
asg138
Nsg139
VMicah 7:12
p1015
sg141
(lp1016
sg143
g94
sg144
Nsg145
(lp1017
I7
aI12
asg147
Nsg148
g1015
sg149
(lp1018
sg151
g60
sg152
Nsg153
Nsg154
Nsbag2
(g3
g4
Ntp1019
Rp1020
(dp1021
g8
g11
sg132
Nsg133
(dp1022
sg135
Nsg26
g29
sg136
(lp1023
I7
aI13
asg138
Nsg139
VMicah 7:13
p1024
sg141
(lp1025
sg143
g94
sg144
Nsg145
(lp1026
I7
aI13
asg147
Nsg148
g1024
sg149
(lp1027
sg151
g60
sg152
Nsg153
Nsg154
Nsbag2
(g3
g4
Ntp1028
Rp1029
(dp1030
g8
g11
sg132
Nsg133
(dp1031
sg135
Nsg26
g29
sg136
(lp1032
I7
aI14
asg138
Nsg139
VMicah 7:14
p1033
sg141
(lp1034
sg143
g94
sg144
Nsg145
(lp1035
I7
aI14
asg147
Nsg148
g1033
sg149
(lp1036
sg151
g60
sg152
Nsg153
Nsg154
Nsbag2
(g3
g4
Ntp1037
Rp1038
(dp1039
g8
g11
sg132
Nsg133
(dp1040
sg135
Nsg26
g29
sg136
(lp1041
I7
aI15
asg138
Nsg139
VMicah 7:15
p1042
sg141
(lp1043
sg143
g94
sg144
Nsg145
(lp1044
I7
aI15
asg147
Nsg148
g1042
sg149
(lp1045
sg151
g60
sg152
Nsg153
Nsg154
Nsbag2
(g3
g4
Ntp1046
Rp1047
(dp1048
g8
g11
sg132
Nsg133
(dp1049
sg135
Nsg26
g29
sg136
(lp1050
I7
aI16
asg138
Nsg139
VMicah 7:16
p1051
sg141
(lp1052
sg143
g94
sg144
Nsg145
(lp1053
I7
aI16
asg147
Nsg148
g1051
sg149
(lp1054
sg151
g60
sg152
Nsg153
Nsg154
Nsbag2
(g3
g4
Ntp1055
Rp1056
(dp1057
g8
g11
sg132
Nsg133
(dp1058
sg135
Nsg26
g29
sg136
(lp1059
I7
aI17
asg138
Nsg139
VMicah 7:17
p1060
sg141
(lp1061
sg143
g94
sg144
Nsg145
(lp1062
I7
aI17
asg147
Nsg148
g1060
sg149
(lp1063
sg151
g60
sg152
Nsg153
Nsg154
Nsbag2
(g3
g4
Ntp1064
Rp1065
(dp1066
g8
g11
sg132
Nsg133
(dp1067
sg135
Nsg26
g29
sg136
(lp1068
I7
aI18
asg138
Nsg139
VMicah 7:18
p1069
sg141
(lp1070
sg143
g94
sg144
Nsg145
(lp1071
I7
aI18
asg147
Nsg148
g1069
sg149
(lp1072
sg151
g60
sg152
Nsg153
Nsg154
Nsbag2
(g3
g4
Ntp1073
Rp1074
(dp1075
g8
g11
sg132
Nsg133
(dp1076
sg135
Nsg26
g29
sg136
(lp1077
I7
aI19
asg138
Nsg139
VMicah 7:19
p1078
sg141
(lp1079
sg143
g94
sg144
Nsg145
(lp1080
I7
aI19
asg147
Nsg148
g1078
sg149
(lp1081
sg151
g60
sg152
Nsg153
Nsg154
Nsbag2
(g3
g4
Ntp1082
Rp1083
(dp1084
g8
g11
sg132
Nsg133
(dp1085
sg135
Nsg26
g29
sg136
(lp1086
I7
aI20
asg138
Nsg139
VMicah 7:20
p1087
sg141
(lp1088
sg143
g94
sg144
Nsg145
(lp1089
I7
aI20
asg147
Nsg148
g1087
sg149
(lp1090
sg151
g60
sg152
Nsg153
Nsg154
Nsbatp1091
.