((lp0
I0
aI27
aI75
aI101
aI130
aI173
aI198
aI230
aI242
aI254
aI296
aI322
aI349
aI373
aI407
aI436
aI461
aI502
aI527
aI572
aI598
aI629
aI669
aI695
a(lp1
ccopy_reg
_reconstructor
p2
(csefaria.model.text
Ref
p3
c__builtin__
object
p4
Ntp5
Rp6
(dp7
S'index_node'
p8
g2
(csefaria.model.schema
JaggedArrayNode
p9
g4
Ntp10
Rp11
(dp12
S'_address'
p13
(lp14
VMishnah Moed Katan
p15
asS'_full_titles'
p16
(dp17
sVnodeType
p18
VJaggedArrayNode
p19
sS'parent'
p20
NsVaddressTypes
p21
(lp22
VPerek
p23
aVMishnah
p24
asS'default'
p25
I00
sS'index'
p26
g2
(csefaria.model.text
Index
p27
g4
Ntp28
Rp29
(dp30
S'_id'
p31
g2
(cbson.objectid
ObjectId
p32
g4
Ntp33
Rp34
S'NJ\xb8\x8f\xed\xba\xb4X3\x00\x00<'
p35
bsS'pkeys_orig_values'
p36
(dp37
S'title'
p38
VMishnah Moed Katan
p39
ssS'pubDate'
p40
V1492
p41
sS'compDate'
p42
V210
p43
sS'pubPlace'
p44
VNaples
p45
sS'compPlace'
p46
VTalmudic Israel
p47
sS'enDesc'
p48
VThe Mishnah is the first major written redaction of the Jewish oral traditions known as the Oral Torah. The Mishnah was redacted by Rabbi Yehudah Ha-Nasi before his death around 217 CE, in a time when, according to the Talmud, the persecution of the Jews and the passage of time raised the possibility that the details of the oral traditions of the Pharisees from the Second Temple period (536 BCE \u2013 70 CE) would be forgotten. The majority of the Mishnah is written in Mishnaic Hebrew, while some parts are Aramaic. The Mishnah consists of six orders (sedarim, singular seder), each containing 7\u201312 tractates (masekhtot, singular masekhet), numbering 63 in total and further subdivided into chapters and paragraphs or verses. The word Mishnah can also indicate a single paragraph or a verse of the work itself, i.e. the smallest unit of structure in the Mishnah. For this reason the whole work is sometimes called by the plural, Mishnayot. Moed Qatan (Little Festival) belongs to the second order, Moed (Festivals) and discusses Hol Hamoed, the intermediate festival days of Pesach and Sukkot and the laws of mourning. It has three chapters.
p49
sS'order'
p50
(lp51
I22
aI11
asS'era'
p52
VT
p53
sS'struct_objs'
p54
(dp55
sS'nodes'
p56
g11
sS'errorMargin'
p57
V20
p58
sS'_title'
p59
g39
sS'categories'
p60
(lp61
VMishnah
p62
aVSeder Moed
p63
asS'schema'
p64
(dp65
g18
g19
sg21
g22
sVlengths
p66
(lp67
I3
aI24
asVdepth
p68
I2
sVtitles
p69
(lp70
(dp71
Vlang
p72
Ven
p73
sVtext
p74
VM Moed Katan
p75
sa(dp76
Vlang
p77
Ven
p78
sVtext
p79
VM. Moed Katan
p80
sa(dp81
Vlang
p82
Ven
p83
sVtext
p84
VMishna Moed Katan
p85
sa(dp86
Vlang
p87
Ven
p88
sVtext
p89
VMishna Mo'ed Katan
p90
sa(dp91
Vlang
p92
Ven
p93
sVtext
p94
VMishnah Mo'ed Katan
p95
sa(dp96
Vlang
p97
Ven
p98
sVtext
p99
VM. Mo'ed Katan
p100
sa(dp101
Vlang
p102
Ven
p103
sVtext
p104
VM Mo'ed Katan
p105
sa(dp106
Vlang
p107
Vhe
p108
sVtext
p109
V\u05de\u05e9\u05e0\u05d4 \u05de\u05d5\u05e2\u05d3 \u05e7\u05d8\u05df
p110
sVprimary
p111
I01
sa(dp112
Vlang
p113
Ven
p114
sVtext
p115
VMishnah Moed Katan
p116
sVprimary
p117
I01
sasVkey
p118
g15
sVsectionNames
p119
(lp120
VChapter
p121
aVMishna
p122
assbsS'_primary_title'
p123
(dp124
sS'title_group'
p125
g2
(csefaria.model.schema
TitleGroup
p126
g4
Ntp127
Rp128
(dp129
g123
(dp130
S'en'
p131
g116
ssS'titles'
p132
g70
sbsS'_addressTypes'
p133
(lp134
g2
(csefaria.model.schema
AddressPerek
p135
g4
Ntp136
Rp137
(dp138
S'length'
p139
I3
sg50
I0
sbag2
(csefaria.model.schema
AddressMishnah
p140
g4
Ntp141
Rp142
(dp143
g139
Nsg50
I1
sbasS'sharedTitle'
p144
Nsg66
g67
sg68
I2
sS'_full_title'
p145
(dp146
g131
g116
ssS'key'
p147
g15
sS'checkFirst'
p148
NsS'_regexes'
p149
(dp150
sS'_leaf_nodes'
p151
(lp152
sg119
g120
sS'children'
p153
(lp154
sbsS'_range_index'
p155
NsS'_context'
p156
(dp157
sS'_padded'
p158
Nsg26
g29
sS'sections'
p159
(lp160
I1
aI1
asS'_first_spanned_ref'
p161
NsS'tref'
p162
VMishnah Moed Katan 1:1
p163
sS'_spanned_refs'
p164
(lp165
sS'book'
p166
g116
sS'_range_depth'
p167
NsS'toSections'
p168
(lp169
I1
aI1
asS'_url'
p170
NsS'_normal'
p171
g163
sS'_ranged_refs'
p172
(lp173
sS'type'
p174
g62
sS'_prev'
p175
NsS'_he_normal'
p176
NsS'_next'
p177
Nsbag2
(g3
g4
Ntp178
Rp179
(dp180
g8
g11
sg155
Nsg156
(dp181
sg158
Nsg26
g29
sg159
(lp182
I1
aI2
asg161
Nsg162
VMishnah Moed Katan 1:2
p183
sg164
(lp184
sg166
g116
sg167
Nsg168
(lp185
I1
aI2
asg170
Nsg171
g183
sg172
(lp186
sg174
g62
sg175
Nsg176
Nsg177
Nsbag2
(g3
g4
Ntp187
Rp188
(dp189
g8
g11
sg155
Nsg156
(dp190
sg158
Nsg26
g29
sg159
(lp191
I1
aI3
asg161
Nsg162
VMishnah Moed Katan 1:3
p192
sg164
(lp193
sg166
g116
sg167
Nsg168
(lp194
I1
aI3
asg170
Nsg171
g192
sg172
(lp195
sg174
g62
sg175
Nsg176
Nsg177
Nsbag2
(g3
g4
Ntp196
Rp197
(dp198
g8
g11
sg155
Nsg156
(dp199
sg158
Nsg26
g29
sg159
(lp200
I1
aI4
asg161
Nsg162
VMishnah Moed Katan 1:4
p201
sg164
(lp202
sg166
g116
sg167
Nsg168
(lp203
I1
aI4
asg170
Nsg171
g201
sg172
(lp204
sg174
g62
sg175
Nsg176
Nsg177
Nsbag2
(g3
g4
Ntp205
Rp206
(dp207
g8
g11
sg155
Nsg156
(dp208
sg158
Nsg26
g29
sg159
(lp209
I1
aI5
asg161
Nsg162
VMishnah Moed Katan 1:5
p210
sg164
(lp211
sg166
g116
sg167
Nsg168
(lp212
I1
aI5
asg170
Nsg171
g210
sg172
(lp213
sg174
g62
sg175
Nsg176
Nsg177
Nsbag2
(g3
g4
Ntp214
Rp215
(dp216
g8
g11
sg155
Nsg156
(dp217
sg158
Nsg26
g29
sg159
(lp218
I1
aI6
asg161
Nsg162
VMishnah Moed Katan 1:6
p219
sg164
(lp220
sg166
g116
sg167
Nsg168
(lp221
I1
aI6
asg170
Nsg171
g219
sg172
(lp222
sg174
g62
sg175
Nsg176
Nsg177
Nsbag2
(g3
g4
Ntp223
Rp224
(dp225
g8
g11
sg155
Nsg156
(dp226
sg158
Nsg26
g29
sg159
(lp227
I1
aI7
asg161
Nsg162
VMishnah Moed Katan 1:7
p228
sg164
(lp229
sg166
g116
sg167
Nsg168
(lp230
I1
aI7
asg170
Nsg171
g228
sg172
(lp231
sg174
g62
sg175
Nsg176
Nsg177
Nsbag2
(g3
g4
Ntp232
Rp233
(dp234
g8
g11
sg155
Nsg156
(dp235
sg158
Nsg26
g29
sg159
(lp236
I1
aI8
asg161
Nsg162
VMishnah Moed Katan 1:8
p237
sg164
(lp238
sg166
g116
sg167
Nsg168
(lp239
I1
aI8
asg170
Nsg171
g237
sg172
(lp240
sg174
g62
sg175
Nsg176
Nsg177
Nsbag2
(g3
g4
Ntp241
Rp242
(dp243
g8
g11
sg155
Nsg156
(dp244
sg158
Nsg26
g29
sg159
(lp245
I1
aI9
asg161
Nsg162
VMishnah Moed Katan 1:9
p246
sg164
(lp247
sg166
g116
sg167
Nsg168
(lp248
I1
aI9
asg170
Nsg171
g246
sg172
(lp249
sg174
g62
sg175
Nsg176
Nsg177
Nsbag2
(g3
g4
Ntp250
Rp251
(dp252
g8
g11
sg155
Nsg156
(dp253
sg158
Nsg26
g29
sg159
(lp254
I1
aI10
asg161
Nsg162
VMishnah Moed Katan 1:10
p255
sg164
(lp256
sg166
g116
sg167
Nsg168
(lp257
I1
aI10
asg170
Nsg171
g255
sg172
(lp258
sg174
g62
sg175
Nsg176
Nsg177
Nsbag2
(g3
g4
Ntp259
Rp260
(dp261
g8
g11
sg155
Nsg156
(dp262
sg158
Nsg26
g29
sg159
(lp263
I2
aI1
asg161
Nsg162
VMishnah Moed Katan 2:1
p264
sg164
(lp265
sg166
g116
sg167
Nsg168
(lp266
I2
aI1
asg170
Nsg171
g264
sg172
(lp267
sg174
g62
sg175
Nsg176
Nsg177
Nsbag2
(g3
g4
Ntp268
Rp269
(dp270
g8
g11
sg155
Nsg156
(dp271
sg158
Nsg26
g29
sg159
(lp272
I2
aI2
asg161
Nsg162
VMishnah Moed Katan 2:2
p273
sg164
(lp274
sg166
g116
sg167
Nsg168
(lp275
I2
aI2
asg170
Nsg171
g273
sg172
(lp276
sg174
g62
sg175
Nsg176
Nsg177
Nsbag2
(g3
g4
Ntp277
Rp278
(dp279
g8
g11
sg155
Nsg156
(dp280
sg158
Nsg26
g29
sg159
(lp281
I2
aI3
asg161
Nsg162
VMishnah Moed Katan 2:3
p282
sg164
(lp283
sg166
g116
sg167
Nsg168
(lp284
I2
aI3
asg170
Nsg171
g282
sg172
(lp285
sg174
g62
sg175
Nsg176
Nsg177
Nsbag2
(g3
g4
Ntp286
Rp287
(dp288
g8
g11
sg155
Nsg156
(dp289
sg158
Nsg26
g29
sg159
(lp290
I2
aI4
asg161
Nsg162
VMishnah Moed Katan 2:4
p291
sg164
(lp292
sg166
g116
sg167
Nsg168
(lp293
I2
aI4
asg170
Nsg171
g291
sg172
(lp294
sg174
g62
sg175
Nsg176
Nsg177
Nsbag2
(g3
g4
Ntp295
Rp296
(dp297
g8
g11
sg155
Nsg156
(dp298
sg158
Nsg26
g29
sg159
(lp299
I2
aI5
asg161
Nsg162
VMishnah Moed Katan 2:5
p300
sg164
(lp301
sg166
g116
sg167
Nsg168
(lp302
I2
aI5
asg170
Nsg171
g300
sg172
(lp303
sg174
g62
sg175
Nsg176
Nsg177
Nsbag2
(g3
g4
Ntp304
Rp305
(dp306
g8
g11
sg155
Nsg156
(dp307
sg158
Nsg26
g29
sg159
(lp308
I3
aI1
asg161
Nsg162
VMishnah Moed Katan 3:1
p309
sg164
(lp310
sg166
g116
sg167
Nsg168
(lp311
I3
aI1
asg170
Nsg171
g309
sg172
(lp312
sg174
g62
sg175
Nsg176
Nsg177
Nsbag2
(g3
g4
Ntp313
Rp314
(dp315
g8
g11
sg155
Nsg156
(dp316
sg158
Nsg26
g29
sg159
(lp317
I3
aI2
asg161
Nsg162
VMishnah Moed Katan 3:2
p318
sg164
(lp319
sg166
g116
sg167
Nsg168
(lp320
I3
aI2
asg170
Nsg171
g318
sg172
(lp321
sg174
g62
sg175
Nsg176
Nsg177
Nsbag2
(g3
g4
Ntp322
Rp323
(dp324
g8
g11
sg155
Nsg156
(dp325
sg158
Nsg26
g29
sg159
(lp326
I3
aI3
asg161
Nsg162
VMishnah Moed Katan 3:3
p327
sg164
(lp328
sg166
g116
sg167
Nsg168
(lp329
I3
aI3
asg170
Nsg171
g327
sg172
(lp330
sg174
g62
sg175
Nsg176
Nsg177
Nsbag2
(g3
g4
Ntp331
Rp332
(dp333
g8
g11
sg155
Nsg156
(dp334
sg158
Nsg26
g29
sg159
(lp335
I3
aI4
asg161
Nsg162
VMishnah Moed Katan 3:4
p336
sg164
(lp337
sg166
g116
sg167
Nsg168
(lp338
I3
aI4
asg170
Nsg171
g336
sg172
(lp339
sg174
g62
sg175
Nsg176
Nsg177
Nsbag2
(g3
g4
Ntp340
Rp341
(dp342
g8
g11
sg155
Nsg156
(dp343
sg158
Nsg26
g29
sg159
(lp344
I3
aI5
asg161
Nsg162
VMishnah Moed Katan 3:5
p345
sg164
(lp346
sg166
g116
sg167
Nsg168
(lp347
I3
aI5
asg170
Nsg171
g345
sg172
(lp348
sg174
g62
sg175
Nsg176
Nsg177
Nsbag2
(g3
g4
Ntp349
Rp350
(dp351
g8
g11
sg155
Nsg156
(dp352
sg158
Nsg26
g29
sg159
(lp353
I3
aI6
asg161
Nsg162
VMishnah Moed Katan 3:6
p354
sg164
(lp355
sg166
g116
sg167
Nsg168
(lp356
I3
aI6
asg170
Nsg171
g354
sg172
(lp357
sg174
g62
sg175
Nsg176
Nsg177
Nsbag2
(g3
g4
Ntp358
Rp359
(dp360
g8
g11
sg155
Nsg156
(dp361
sg158
Nsg26
g29
sg159
(lp362
I3
aI7
asg161
Nsg162
VMishnah Moed Katan 3:7
p363
sg164
(lp364
sg166
g116
sg167
Nsg168
(lp365
I3
aI7
asg170
Nsg171
g363
sg172
(lp366
sg174
g62
sg175
Nsg176
Nsg177
Nsbag2
(g3
g4
Ntp367
Rp368
(dp369
g8
g11
sg155
Nsg156
(dp370
sg158
Nsg26
g29
sg159
(lp371
I3
aI8
asg161
Nsg162
VMishnah Moed Katan 3:8
p372
sg164
(lp373
sg166
g116
sg167
Nsg168
(lp374
I3
aI8
asg170
Nsg171
g372
sg172
(lp375
sg174
g62
sg175
Nsg176
Nsg177
Nsbag2
(g3
g4
Ntp376
Rp377
(dp378
g8
g11
sg155
Nsg156
(dp379
sg158
Nsg26
g29
sg159
(lp380
I3
aI9
asg161
Nsg162
VMishnah Moed Katan 3:9
p381
sg164
(lp382
sg166
g116
sg167
Nsg168
(lp383
I3
aI9
asg170
Nsg171
g381
sg172
(lp384
sg174
g62
sg175
Nsg176
Nsg177
Nsbatp385
.