((lp0
I0
aI60
aI87
aI145
aI193
aI261
aI359
aI388
aI427
aI453
aI542
aI572
aI584
aI597
aI611
aI640
aI682
aI707
aI735
aI774
aI823
aI864
aI891
aI914
aI939
aI998
aI1019
aI1035
aI1075
aI1113
aI1178
aI1224
aI1268
aI1305
aI1359
aI1395
aI1440
aI1480
aI1500
aI1567
aI1603
aI1640
aI1672
aI1712
aI1755
aI1812
aI1842
aI1915
aI1961
aI2008
aI2074
aI2150
aI2174
aI2230
aI2245
aI2278
aI2294
aI2313
aI2345
aI2382
aI2404
aI2459
aI2502
aI2559
aI2596
aI2631
aI2686
aI2728
aI2774
aI2834
aI2860
aI2880
aI2930
aI2976
aI3017
aI3048
aI3083
aI3118
aI3158
aI3182
aI3206
aI3243
aI3272
aI3302
aI3350
aI3397
aI3450
aI3487
aI3529
aI3583
aI3601
aI3657
a(lp1
ccopy_reg
_reconstructor
p2
(csefaria.model.text
Ref
p3
c__builtin__
object
p4
Ntp5
Rp6
(dp7
S'index_node'
p8
g2
(csefaria.model.schema
JaggedArrayNode
p9
g4
Ntp10
Rp11
(dp12
S'_address'
p13
(lp14
VMishnah Tahorot
p15
asS'_full_titles'
p16
(dp17
sVnodeType
p18
VJaggedArrayNode
p19
sS'parent'
p20
NsVaddressTypes
p21
(lp22
VPerek
p23
aVMishnah
p24
asS'default'
p25
I00
sS'index'
p26
g2
(csefaria.model.text
Index
p27
g4
Ntp28
Rp29
(dp30
S'_id'
p31
g2
(cbson.objectid
ObjectId
p32
g4
Ntp33
Rp34
S'NJ\xb8\x8f\xed\xba\xb4X3\x00\x00^'
p35
bsS'pkeys_orig_values'
p36
(dp37
S'title'
p38
VMishnah Tahorot
p39
ssS'pubDate'
p40
V1492
p41
sS'compDate'
p42
V210
p43
sS'pubPlace'
p44
VNaples
p45
sS'compPlace'
p46
VTalmudic Israel
p47
sS'enDesc'
p48
VThe Mishnah is the first major written redaction of the Jewish oral traditions known as the Oral Torah. The Mishnah was redacted by Rabbi Yehudah Ha-Nasi before his death around 217 CE, in a time when, according to the Talmud, the persecution of the Jews and the passage of time raised the possibility that the details of the oral traditions of the Pharisees from the Second Temple period (536 BCE \u2013 70 CE) would be forgotten. The majority of the Mishnah is written in Mishnaic Hebrew, while some parts are Aramaic. The Mishnah consists of six orders (sedarim, singular seder), each containing 7\u201312 tractates (masekhtot, singular masekhet), numbering 63 in total and further subdivided into chapters and paragraphs or verses. The word Mishnah can also indicate a single paragraph or a verse of the work itself, i.e. the smallest unit of structure in the Mishnah. For this reason the whole work is sometimes called by the plural, Mishnayot. Tahorot (Purities) belongs to the sixth order, Tahorot (Purities) and discusses the miscellaneous laws of purity, especially the actual mechanics of contracting impurity and the laws of the impurity of food. It has ten chapters.
p49
sS'order'
p50
(lp51
I56
aI5
asS'era'
p52
VT
p53
sS'struct_objs'
p54
(dp55
sS'nodes'
p56
g11
sS'errorMargin'
p57
V20
p58
sS'_title'
p59
g39
sS'categories'
p60
(lp61
VMishnah
p62
aVSeder Tahorot
p63
asS'schema'
p64
(dp65
g18
g19
sg21
g22
sVlengths
p66
(lp67
I10
aI92
asVdepth
p68
I2
sVtitles
p69
(lp70
(dp71
Vlang
p72
Ven
p73
sVtext
p74
VM. Tahorot
p75
sa(dp76
Vlang
p77
Ven
p78
sVtext
p79
VM Tahorot
p80
sa(dp81
Vlang
p82
Ven
p83
sVtext
p84
VMishna Tahorot
p85
sa(dp86
Vlang
p87
Vhe
p88
sVtext
p89
V\u05de\u05e9\u05e0\u05d4 \u05d8\u05d4\u05e8\u05d5\u05ea
p90
sVprimary
p91
I01
sa(dp92
Vlang
p93
Vhe
p94
sVtext
p95
V\u05d8\u05d4\u05e8\u05d5\u05ea
p96
sa(dp97
Vlang
p98
Ven
p99
sVtext
p100
VMishnah Tahorot
p101
sVprimary
p102
I01
sasVkey
p103
g15
sVsectionNames
p104
(lp105
VChapter
p106
aVMishna
p107
assbsS'_primary_title'
p108
(dp109
sS'title_group'
p110
g2
(csefaria.model.schema
TitleGroup
p111
g4
Ntp112
Rp113
(dp114
g108
(dp115
S'en'
p116
g101
ssS'titles'
p117
g70
sbsS'_addressTypes'
p118
(lp119
g2
(csefaria.model.schema
AddressPerek
p120
g4
Ntp121
Rp122
(dp123
S'length'
p124
I10
sg50
I0
sbag2
(csefaria.model.schema
AddressMishnah
p125
g4
Ntp126
Rp127
(dp128
g124
Nsg50
I1
sbasS'sharedTitle'
p129
Nsg66
g67
sg68
I2
sS'_full_title'
p130
(dp131
g116
g101
ssS'key'
p132
g15
sS'checkFirst'
p133
NsS'_regexes'
p134
(dp135
sS'_leaf_nodes'
p136
(lp137
sg104
g105
sS'children'
p138
(lp139
sbsS'_range_index'
p140
NsS'_context'
p141
(dp142
sS'_padded'
p143
Nsg26
g29
sS'sections'
p144
(lp145
I1
aI1
asS'_first_spanned_ref'
p146
NsS'tref'
p147
VMishnah Tahorot 1:1
p148
sS'_spanned_refs'
p149
(lp150
sS'book'
p151
g101
sS'_range_depth'
p152
NsS'toSections'
p153
(lp154
I1
aI1
asS'_url'
p155
NsS'_normal'
p156
g148
sS'_ranged_refs'
p157
(lp158
sS'type'
p159
g62
sS'_prev'
p160
NsS'_he_normal'
p161
NsS'_next'
p162
Nsbag2
(g3
g4
Ntp163
Rp164
(dp165
g8
g11
sg140
Nsg141
(dp166
sg143
Nsg26
g29
sg144
(lp167
I1
aI2
asg146
Nsg147
VMishnah Tahorot 1:2
p168
sg149
(lp169
sg151
g101
sg152
Nsg153
(lp170
I1
aI2
asg155
Nsg156
g168
sg157
(lp171
sg159
g62
sg160
Nsg161
Nsg162
Nsbag2
(g3
g4
Ntp172
Rp173
(dp174
g8
g11
sg140
Nsg141
(dp175
sg143
Nsg26
g29
sg144
(lp176
I1
aI3
asg146
Nsg147
VMishnah Tahorot 1:3
p177
sg149
(lp178
sg151
g101
sg152
Nsg153
(lp179
I1
aI3
asg155
Nsg156
g177
sg157
(lp180
sg159
g62
sg160
Nsg161
Nsg162
Nsbag2
(g3
g4
Ntp181
Rp182
(dp183
g8
g11
sg140
Nsg141
(dp184
sg143
Nsg26
g29
sg144
(lp185
I1
aI4
asg146
Nsg147
VMishnah Tahorot 1:4
p186
sg149
(lp187
sg151
g101
sg152
Nsg153
(lp188
I1
aI4
asg155
Nsg156
g186
sg157
(lp189
sg159
g62
sg160
Nsg161
Nsg162
Nsbag2
(g3
g4
Ntp190
Rp191
(dp192
g8
g11
sg140
Nsg141
(dp193
sg143
Nsg26
g29
sg144
(lp194
I1
aI5
asg146
Nsg147
VMishnah Tahorot 1:5
p195
sg149
(lp196
sg151
g101
sg152
Nsg153
(lp197
I1
aI5
asg155
Nsg156
g195
sg157
(lp198
sg159
g62
sg160
Nsg161
Nsg162
Nsbag2
(g3
g4
Ntp199
Rp200
(dp201
g8
g11
sg140
Nsg141
(dp202
sg143
Nsg26
g29
sg144
(lp203
I1
aI6
asg146
Nsg147
VMishnah Tahorot 1:6
p204
sg149
(lp205
sg151
g101
sg152
Nsg153
(lp206
I1
aI6
asg155
Nsg156
g204
sg157
(lp207
sg159
g62
sg160
Nsg161
Nsg162
Nsbag2
(g3
g4
Ntp208
Rp209
(dp210
g8
g11
sg140
Nsg141
(dp211
sg143
Nsg26
g29
sg144
(lp212
I1
aI7
asg146
Nsg147
VMishnah Tahorot 1:7
p213
sg149
(lp214
sg151
g101
sg152
Nsg153
(lp215
I1
aI7
asg155
Nsg156
g213
sg157
(lp216
sg159
g62
sg160
Nsg161
Nsg162
Nsbag2
(g3
g4
Ntp217
Rp218
(dp219
g8
g11
sg140
Nsg141
(dp220
sg143
Nsg26
g29
sg144
(lp221
I1
aI8
asg146
Nsg147
VMishnah Tahorot 1:8
p222
sg149
(lp223
sg151
g101
sg152
Nsg153
(lp224
I1
aI8
asg155
Nsg156
g222
sg157
(lp225
sg159
g62
sg160
Nsg161
Nsg162
Nsbag2
(g3
g4
Ntp226
Rp227
(dp228
g8
g11
sg140
Nsg141
(dp229
sg143
Nsg26
g29
sg144
(lp230
I1
aI9
asg146
Nsg147
VMishnah Tahorot 1:9
p231
sg149
(lp232
sg151
g101
sg152
Nsg153
(lp233
I1
aI9
asg155
Nsg156
g231
sg157
(lp234
sg159
g62
sg160
Nsg161
Nsg162
Nsbag2
(g3
g4
Ntp235
Rp236
(dp237
g8
g11
sg140
Nsg141
(dp238
sg143
Nsg26
g29
sg144
(lp239
I2
aI1
asg146
Nsg147
VMishnah Tahorot 2:1
p240
sg149
(lp241
sg151
g101
sg152
Nsg153
(lp242
I2
aI1
asg155
Nsg156
g240
sg157
(lp243
sg159
g62
sg160
Nsg161
Nsg162
Nsbag2
(g3
g4
Ntp244
Rp245
(dp246
g8
g11
sg140
Nsg141
(dp247
sg143
Nsg26
g29
sg144
(lp248
I2
aI2
asg146
Nsg147
VMishnah Tahorot 2:2
p249
sg149
(lp250
sg151
g101
sg152
Nsg153
(lp251
I2
aI2
asg155
Nsg156
g249
sg157
(lp252
sg159
g62
sg160
Nsg161
Nsg162
Nsbag2
(g3
g4
Ntp253
Rp254
(dp255
g8
g11
sg140
Nsg141
(dp256
sg143
Nsg26
g29
sg144
(lp257
I2
aI3
asg146
Nsg147
VMishnah Tahorot 2:3
p258
sg149
(lp259
sg151
g101
sg152
Nsg153
(lp260
I2
aI3
asg155
Nsg156
g258
sg157
(lp261
sg159
g62
sg160
Nsg161
Nsg162
Nsbag2
(g3
g4
Ntp262
Rp263
(dp264
g8
g11
sg140
Nsg141
(dp265
sg143
Nsg26
g29
sg144
(lp266
I2
aI4
asg146
Nsg147
VMishnah Tahorot 2:4
p267
sg149
(lp268
sg151
g101
sg152
Nsg153
(lp269
I2
aI4
asg155
Nsg156
g267
sg157
(lp270
sg159
g62
sg160
Nsg161
Nsg162
Nsbag2
(g3
g4
Ntp271
Rp272
(dp273
g8
g11
sg140
Nsg141
(dp274
sg143
Nsg26
g29
sg144
(lp275
I2
aI5
asg146
Nsg147
VMishnah Tahorot 2:5
p276
sg149
(lp277
sg151
g101
sg152
Nsg153
(lp278
I2
aI5
asg155
Nsg156
g276
sg157
(lp279
sg159
g62
sg160
Nsg161
Nsg162
Nsbag2
(g3
g4
Ntp280
Rp281
(dp282
g8
g11
sg140
Nsg141
(dp283
sg143
Nsg26
g29
sg144
(lp284
I2
aI6
asg146
Nsg147
VMishnah Tahorot 2:6
p285
sg149
(lp286
sg151
g101
sg152
Nsg153
(lp287
I2
aI6
asg155
Nsg156
g285
sg157
(lp288
sg159
g62
sg160
Nsg161
Nsg162
Nsbag2
(g3
g4
Ntp289
Rp290
(dp291
g8
g11
sg140
Nsg141
(dp292
sg143
Nsg26
g29
sg144
(lp293
I2
aI7
asg146
Nsg147
VMishnah Tahorot 2:7
p294
sg149
(lp295
sg151
g101
sg152
Nsg153
(lp296
I2
aI7
asg155
Nsg156
g294
sg157
(lp297
sg159
g62
sg160
Nsg161
Nsg162
Nsbag2
(g3
g4
Ntp298
Rp299
(dp300
g8
g11
sg140
Nsg141
(dp301
sg143
Nsg26
g29
sg144
(lp302
I2
aI8
asg146
Nsg147
VMishnah Tahorot 2:8
p303
sg149
(lp304
sg151
g101
sg152
Nsg153
(lp305
I2
aI8
asg155
Nsg156
g303
sg157
(lp306
sg159
g62
sg160
Nsg161
Nsg162
Nsbag2
(g3
g4
Ntp307
Rp308
(dp309
g8
g11
sg140
Nsg141
(dp310
sg143
Nsg26
g29
sg144
(lp311
I3
aI1
asg146
Nsg147
VMishnah Tahorot 3:1
p312
sg149
(lp313
sg151
g101
sg152
Nsg153
(lp314
I3
aI1
asg155
Nsg156
g312
sg157
(lp315
sg159
g62
sg160
Nsg161
Nsg162
Nsbag2
(g3
g4
Ntp316
Rp317
(dp318
g8
g11
sg140
Nsg141
(dp319
sg143
Nsg26
g29
sg144
(lp320
I3
aI2
asg146
Nsg147
VMishnah Tahorot 3:2
p321
sg149
(lp322
sg151
g101
sg152
Nsg153
(lp323
I3
aI2
asg155
Nsg156
g321
sg157
(lp324
sg159
g62
sg160
Nsg161
Nsg162
Nsbag2
(g3
g4
Ntp325
Rp326
(dp327
g8
g11
sg140
Nsg141
(dp328
sg143
Nsg26
g29
sg144
(lp329
I3
aI3
asg146
Nsg147
VMishnah Tahorot 3:3
p330
sg149
(lp331
sg151
g101
sg152
Nsg153
(lp332
I3
aI3
asg155
Nsg156
g330
sg157
(lp333
sg159
g62
sg160
Nsg161
Nsg162
Nsbag2
(g3
g4
Ntp334
Rp335
(dp336
g8
g11
sg140
Nsg141
(dp337
sg143
Nsg26
g29
sg144
(lp338
I3
aI4
asg146
Nsg147
VMishnah Tahorot 3:4
p339
sg149
(lp340
sg151
g101
sg152
Nsg153
(lp341
I3
aI4
asg155
Nsg156
g339
sg157
(lp342
sg159
g62
sg160
Nsg161
Nsg162
Nsbag2
(g3
g4
Ntp343
Rp344
(dp345
g8
g11
sg140
Nsg141
(dp346
sg143
Nsg26
g29
sg144
(lp347
I3
aI5
asg146
Nsg147
VMishnah Tahorot 3:5
p348
sg149
(lp349
sg151
g101
sg152
Nsg153
(lp350
I3
aI5
asg155
Nsg156
g348
sg157
(lp351
sg159
g62
sg160
Nsg161
Nsg162
Nsbag2
(g3
g4
Ntp352
Rp353
(dp354
g8
g11
sg140
Nsg141
(dp355
sg143
Nsg26
g29
sg144
(lp356
I3
aI6
asg146
Nsg147
VMishnah Tahorot 3:6
p357
sg149
(lp358
sg151
g101
sg152
Nsg153
(lp359
I3
aI6
asg155
Nsg156
g357
sg157
(lp360
sg159
g62
sg160
Nsg161
Nsg162
Nsbag2
(g3
g4
Ntp361
Rp362
(dp363
g8
g11
sg140
Nsg141
(dp364
sg143
Nsg26
g29
sg144
(lp365
I3
aI7
asg146
Nsg147
VMishnah Tahorot 3:7
p366
sg149
(lp367
sg151
g101
sg152
Nsg153
(lp368
I3
aI7
asg155
Nsg156
g366
sg157
(lp369
sg159
g62
sg160
Nsg161
Nsg162
Nsbag2
(g3
g4
Ntp370
Rp371
(dp372
g8
g11
sg140
Nsg141
(dp373
sg143
Nsg26
g29
sg144
(lp374
I3
aI8
asg146
Nsg147
VMishnah Tahorot 3:8
p375
sg149
(lp376
sg151
g101
sg152
Nsg153
(lp377
I3
aI8
asg155
Nsg156
g375
sg157
(lp378
sg159
g62
sg160
Nsg161
Nsg162
Nsbag2
(g3
g4
Ntp379
Rp380
(dp381
g8
g11
sg140
Nsg141
(dp382
sg143
Nsg26
g29
sg144
(lp383
I4
aI1
asg146
Nsg147
VMishnah Tahorot 4:1
p384
sg149
(lp385
sg151
g101
sg152
Nsg153
(lp386
I4
aI1
asg155
Nsg156
g384
sg157
(lp387
sg159
g62
sg160
Nsg161
Nsg162
Nsbag2
(g3
g4
Ntp388
Rp389
(dp390
g8
g11
sg140
Nsg141
(dp391
sg143
Nsg26
g29
sg144
(lp392
I4
aI2
asg146
Nsg147
VMishnah Tahorot 4:2
p393
sg149
(lp394
sg151
g101
sg152
Nsg153
(lp395
I4
aI2
asg155
Nsg156
g393
sg157
(lp396
sg159
g62
sg160
Nsg161
Nsg162
Nsbag2
(g3
g4
Ntp397
Rp398
(dp399
g8
g11
sg140
Nsg141
(dp400
sg143
Nsg26
g29
sg144
(lp401
I4
aI3
asg146
Nsg147
VMishnah Tahorot 4:3
p402
sg149
(lp403
sg151
g101
sg152
Nsg153
(lp404
I4
aI3
asg155
Nsg156
g402
sg157
(lp405
sg159
g62
sg160
Nsg161
Nsg162
Nsbag2
(g3
g4
Ntp406
Rp407
(dp408
g8
g11
sg140
Nsg141
(dp409
sg143
Nsg26
g29
sg144
(lp410
I4
aI4
asg146
Nsg147
VMishnah Tahorot 4:4
p411
sg149
(lp412
sg151
g101
sg152
Nsg153
(lp413
I4
aI4
asg155
Nsg156
g411
sg157
(lp414
sg159
g62
sg160
Nsg161
Nsg162
Nsbag2
(g3
g4
Ntp415
Rp416
(dp417
g8
g11
sg140
Nsg141
(dp418
sg143
Nsg26
g29
sg144
(lp419
I4
aI5
asg146
Nsg147
VMishnah Tahorot 4:5
p420
sg149
(lp421
sg151
g101
sg152
Nsg153
(lp422
I4
aI5
asg155
Nsg156
g420
sg157
(lp423
sg159
g62
sg160
Nsg161
Nsg162
Nsbag2
(g3
g4
Ntp424
Rp425
(dp426
g8
g11
sg140
Nsg141
(dp427
sg143
Nsg26
g29
sg144
(lp428
I4
aI6
asg146
Nsg147
VMishnah Tahorot 4:6
p429
sg149
(lp430
sg151
g101
sg152
Nsg153
(lp431
I4
aI6
asg155
Nsg156
g429
sg157
(lp432
sg159
g62
sg160
Nsg161
Nsg162
Nsbag2
(g3
g4
Ntp433
Rp434
(dp435
g8
g11
sg140
Nsg141
(dp436
sg143
Nsg26
g29
sg144
(lp437
I4
aI7
asg146
Nsg147
VMishnah Tahorot 4:7
p438
sg149
(lp439
sg151
g101
sg152
Nsg153
(lp440
I4
aI7
asg155
Nsg156
g438
sg157
(lp441
sg159
g62
sg160
Nsg161
Nsg162
Nsbag2
(g3
g4
Ntp442
Rp443
(dp444
g8
g11
sg140
Nsg141
(dp445
sg143
Nsg26
g29
sg144
(lp446
I4
aI8
asg146
Nsg147
VMishnah Tahorot 4:8
p447
sg149
(lp448
sg151
g101
sg152
Nsg153
(lp449
I4
aI8
asg155
Nsg156
g447
sg157
(lp450
sg159
g62
sg160
Nsg161
Nsg162
Nsbag2
(g3
g4
Ntp451
Rp452
(dp453
g8
g11
sg140
Nsg141
(dp454
sg143
Nsg26
g29
sg144
(lp455
I4
aI9
asg146
Nsg147
VMishnah Tahorot 4:9
p456
sg149
(lp457
sg151
g101
sg152
Nsg153
(lp458
I4
aI9
asg155
Nsg156
g456
sg157
(lp459
sg159
g62
sg160
Nsg161
Nsg162
Nsbag2
(g3
g4
Ntp460
Rp461
(dp462
g8
g11
sg140
Nsg141
(dp463
sg143
Nsg26
g29
sg144
(lp464
I4
aI10
asg146
Nsg147
VMishnah Tahorot 4:10
p465
sg149
(lp466
sg151
g101
sg152
Nsg153
(lp467
I4
aI10
asg155
Nsg156
g465
sg157
(lp468
sg159
g62
sg160
Nsg161
Nsg162
Nsbag2
(g3
g4
Ntp469
Rp470
(dp471
g8
g11
sg140
Nsg141
(dp472
sg143
Nsg26
g29
sg144
(lp473
I4
aI11
asg146
Nsg147
VMishnah Tahorot 4:11
p474
sg149
(lp475
sg151
g101
sg152
Nsg153
(lp476
I4
aI11
asg155
Nsg156
g474
sg157
(lp477
sg159
g62
sg160
Nsg161
Nsg162
Nsbag2
(g3
g4
Ntp478
Rp479
(dp480
g8
g11
sg140
Nsg141
(dp481
sg143
Nsg26
g29
sg144
(lp482
I4
aI12
asg146
Nsg147
VMishnah Tahorot 4:12
p483
sg149
(lp484
sg151
g101
sg152
Nsg153
(lp485
I4
aI12
asg155
Nsg156
g483
sg157
(lp486
sg159
g62
sg160
Nsg161
Nsg162
Nsbag2
(g3
g4
Ntp487
Rp488
(dp489
g8
g11
sg140
Nsg141
(dp490
sg143
Nsg26
g29
sg144
(lp491
I4
aI13
asg146
Nsg147
VMishnah Tahorot 4:13
p492
sg149
(lp493
sg151
g101
sg152
Nsg153
(lp494
I4
aI13
asg155
Nsg156
g492
sg157
(lp495
sg159
g62
sg160
Nsg161
Nsg162
Nsbag2
(g3
g4
Ntp496
Rp497
(dp498
g8
g11
sg140
Nsg141
(dp499
sg143
Nsg26
g29
sg144
(lp500
I5
aI1
asg146
Nsg147
VMishnah Tahorot 5:1
p501
sg149
(lp502
sg151
g101
sg152
Nsg153
(lp503
I5
aI1
asg155
Nsg156
g501
sg157
(lp504
sg159
g62
sg160
Nsg161
Nsg162
Nsbag2
(g3
g4
Ntp505
Rp506
(dp507
g8
g11
sg140
Nsg141
(dp508
sg143
Nsg26
g29
sg144
(lp509
I5
aI2
asg146
Nsg147
VMishnah Tahorot 5:2
p510
sg149
(lp511
sg151
g101
sg152
Nsg153
(lp512
I5
aI2
asg155
Nsg156
g510
sg157
(lp513
sg159
g62
sg160
Nsg161
Nsg162
Nsbag2
(g3
g4
Ntp514
Rp515
(dp516
g8
g11
sg140
Nsg141
(dp517
sg143
Nsg26
g29
sg144
(lp518
I5
aI3
asg146
Nsg147
VMishnah Tahorot 5:3
p519
sg149
(lp520
sg151
g101
sg152
Nsg153
(lp521
I5
aI3
asg155
Nsg156
g519
sg157
(lp522
sg159
g62
sg160
Nsg161
Nsg162
Nsbag2
(g3
g4
Ntp523
Rp524
(dp525
g8
g11
sg140
Nsg141
(dp526
sg143
Nsg26
g29
sg144
(lp527
I5
aI4
asg146
Nsg147
VMishnah Tahorot 5:4
p528
sg149
(lp529
sg151
g101
sg152
Nsg153
(lp530
I5
aI4
asg155
Nsg156
g528
sg157
(lp531
sg159
g62
sg160
Nsg161
Nsg162
Nsbag2
(g3
g4
Ntp532
Rp533
(dp534
g8
g11
sg140
Nsg141
(dp535
sg143
Nsg26
g29
sg144
(lp536
I5
aI5
asg146
Nsg147
VMishnah Tahorot 5:5
p537
sg149
(lp538
sg151
g101
sg152
Nsg153
(lp539
I5
aI5
asg155
Nsg156
g537
sg157
(lp540
sg159
g62
sg160
Nsg161
Nsg162
Nsbag2
(g3
g4
Ntp541
Rp542
(dp543
g8
g11
sg140
Nsg141
(dp544
sg143
Nsg26
g29
sg144
(lp545
I5
aI6
asg146
Nsg147
VMishnah Tahorot 5:6
p546
sg149
(lp547
sg151
g101
sg152
Nsg153
(lp548
I5
aI6
asg155
Nsg156
g546
sg157
(lp549
sg159
g62
sg160
Nsg161
Nsg162
Nsbag2
(g3
g4
Ntp550
Rp551
(dp552
g8
g11
sg140
Nsg141
(dp553
sg143
Nsg26
g29
sg144
(lp554
I5
aI7
asg146
Nsg147
VMishnah Tahorot 5:7
p555
sg149
(lp556
sg151
g101
sg152
Nsg153
(lp557
I5
aI7
asg155
Nsg156
g555
sg157
(lp558
sg159
g62
sg160
Nsg161
Nsg162
Nsbag2
(g3
g4
Ntp559
Rp560
(dp561
g8
g11
sg140
Nsg141
(dp562
sg143
Nsg26
g29
sg144
(lp563
I5
aI8
asg146
Nsg147
VMishnah Tahorot 5:8
p564
sg149
(lp565
sg151
g101
sg152
Nsg153
(lp566
I5
aI8
asg155
Nsg156
g564
sg157
(lp567
sg159
g62
sg160
Nsg161
Nsg162
Nsbag2
(g3
g4
Ntp568
Rp569
(dp570
g8
g11
sg140
Nsg141
(dp571
sg143
Nsg26
g29
sg144
(lp572
I5
aI9
asg146
Nsg147
VMishnah Tahorot 5:9
p573
sg149
(lp574
sg151
g101
sg152
Nsg153
(lp575
I5
aI9
asg155
Nsg156
g573
sg157
(lp576
sg159
g62
sg160
Nsg161
Nsg162
Nsbag2
(g3
g4
Ntp577
Rp578
(dp579
g8
g11
sg140
Nsg141
(dp580
sg143
Nsg26
g29
sg144
(lp581
I6
aI1
asg146
Nsg147
VMishnah Tahorot 6:1
p582
sg149
(lp583
sg151
g101
sg152
Nsg153
(lp584
I6
aI1
asg155
Nsg156
g582
sg157
(lp585
sg159
g62
sg160
Nsg161
Nsg162
Nsbag2
(g3
g4
Ntp586
Rp587
(dp588
g8
g11
sg140
Nsg141
(dp589
sg143
Nsg26
g29
sg144
(lp590
I6
aI2
asg146
Nsg147
VMishnah Tahorot 6:2
p591
sg149
(lp592
sg151
g101
sg152
Nsg153
(lp593
I6
aI2
asg155
Nsg156
g591
sg157
(lp594
sg159
g62
sg160
Nsg161
Nsg162
Nsbag2
(g3
g4
Ntp595
Rp596
(dp597
g8
g11
sg140
Nsg141
(dp598
sg143
Nsg26
g29
sg144
(lp599
I6
aI3
asg146
Nsg147
VMishnah Tahorot 6:3
p600
sg149
(lp601
sg151
g101
sg152
Nsg153
(lp602
I6
aI3
asg155
Nsg156
g600
sg157
(lp603
sg159
g62
sg160
Nsg161
Nsg162
Nsbag2
(g3
g4
Ntp604
Rp605
(dp606
g8
g11
sg140
Nsg141
(dp607
sg143
Nsg26
g29
sg144
(lp608
I6
aI4
asg146
Nsg147
VMishnah Tahorot 6:4
p609
sg149
(lp610
sg151
g101
sg152
Nsg153
(lp611
I6
aI4
asg155
Nsg156
g609
sg157
(lp612
sg159
g62
sg160
Nsg161
Nsg162
Nsbag2
(g3
g4
Ntp613
Rp614
(dp615
g8
g11
sg140
Nsg141
(dp616
sg143
Nsg26
g29
sg144
(lp617
I6
aI5
asg146
Nsg147
VMishnah Tahorot 6:5
p618
sg149
(lp619
sg151
g101
sg152
Nsg153
(lp620
I6
aI5
asg155
Nsg156
g618
sg157
(lp621
sg159
g62
sg160
Nsg161
Nsg162
Nsbag2
(g3
g4
Ntp622
Rp623
(dp624
g8
g11
sg140
Nsg141
(dp625
sg143
Nsg26
g29
sg144
(lp626
I6
aI6
asg146
Nsg147
VMishnah Tahorot 6:6
p627
sg149
(lp628
sg151
g101
sg152
Nsg153
(lp629
I6
aI6
asg155
Nsg156
g627
sg157
(lp630
sg159
g62
sg160
Nsg161
Nsg162
Nsbag2
(g3
g4
Ntp631
Rp632
(dp633
g8
g11
sg140
Nsg141
(dp634
sg143
Nsg26
g29
sg144
(lp635
I6
aI7
asg146
Nsg147
VMishnah Tahorot 6:7
p636
sg149
(lp637
sg151
g101
sg152
Nsg153
(lp638
I6
aI7
asg155
Nsg156
g636
sg157
(lp639
sg159
g62
sg160
Nsg161
Nsg162
Nsbag2
(g3
g4
Ntp640
Rp641
(dp642
g8
g11
sg140
Nsg141
(dp643
sg143
Nsg26
g29
sg144
(lp644
I6
aI8
asg146
Nsg147
VMishnah Tahorot 6:8
p645
sg149
(lp646
sg151
g101
sg152
Nsg153
(lp647
I6
aI8
asg155
Nsg156
g645
sg157
(lp648
sg159
g62
sg160
Nsg161
Nsg162
Nsbag2
(g3
g4
Ntp649
Rp650
(dp651
g8
g11
sg140
Nsg141
(dp652
sg143
Nsg26
g29
sg144
(lp653
I6
aI9
asg146
Nsg147
VMishnah Tahorot 6:9
p654
sg149
(lp655
sg151
g101
sg152
Nsg153
(lp656
I6
aI9
asg155
Nsg156
g654
sg157
(lp657
sg159
g62
sg160
Nsg161
Nsg162
Nsbag2
(g3
g4
Ntp658
Rp659
(dp660
g8
g11
sg140
Nsg141
(dp661
sg143
Nsg26
g29
sg144
(lp662
I6
aI10
asg146
Nsg147
VMishnah Tahorot 6:10
p663
sg149
(lp664
sg151
g101
sg152
Nsg153
(lp665
I6
aI10
asg155
Nsg156
g663
sg157
(lp666
sg159
g62
sg160
Nsg161
Nsg162
Nsbag2
(g3
g4
Ntp667
Rp668
(dp669
g8
g11
sg140
Nsg141
(dp670
sg143
Nsg26
g29
sg144
(lp671
I7
aI1
asg146
Nsg147
VMishnah Tahorot 7:1
p672
sg149
(lp673
sg151
g101
sg152
Nsg153
(lp674
I7
aI1
asg155
Nsg156
g672
sg157
(lp675
sg159
g62
sg160
Nsg161
Nsg162
Nsbag2
(g3
g4
Ntp676
Rp677
(dp678
g8
g11
sg140
Nsg141
(dp679
sg143
Nsg26
g29
sg144
(lp680
I7
aI2
asg146
Nsg147
VMishnah Tahorot 7:2
p681
sg149
(lp682
sg151
g101
sg152
Nsg153
(lp683
I7
aI2
asg155
Nsg156
g681
sg157
(lp684
sg159
g62
sg160
Nsg161
Nsg162
Nsbag2
(g3
g4
Ntp685
Rp686
(dp687
g8
g11
sg140
Nsg141
(dp688
sg143
Nsg26
g29
sg144
(lp689
I7
aI3
asg146
Nsg147
VMishnah Tahorot 7:3
p690
sg149
(lp691
sg151
g101
sg152
Nsg153
(lp692
I7
aI3
asg155
Nsg156
g690
sg157
(lp693
sg159
g62
sg160
Nsg161
Nsg162
Nsbag2
(g3
g4
Ntp694
Rp695
(dp696
g8
g11
sg140
Nsg141
(dp697
sg143
Nsg26
g29
sg144
(lp698
I7
aI4
asg146
Nsg147
VMishnah Tahorot 7:4
p699
sg149
(lp700
sg151
g101
sg152
Nsg153
(lp701
I7
aI4
asg155
Nsg156
g699
sg157
(lp702
sg159
g62
sg160
Nsg161
Nsg162
Nsbag2
(g3
g4
Ntp703
Rp704
(dp705
g8
g11
sg140
Nsg141
(dp706
sg143
Nsg26
g29
sg144
(lp707
I7
aI5
asg146
Nsg147
VMishnah Tahorot 7:5
p708
sg149
(lp709
sg151
g101
sg152
Nsg153
(lp710
I7
aI5
asg155
Nsg156
g708
sg157
(lp711
sg159
g62
sg160
Nsg161
Nsg162
Nsbag2
(g3
g4
Ntp712
Rp713
(dp714
g8
g11
sg140
Nsg141
(dp715
sg143
Nsg26
g29
sg144
(lp716
I7
aI6
asg146
Nsg147
VMishnah Tahorot 7:6
p717
sg149
(lp718
sg151
g101
sg152
Nsg153
(lp719
I7
aI6
asg155
Nsg156
g717
sg157
(lp720
sg159
g62
sg160
Nsg161
Nsg162
Nsbag2
(g3
g4
Ntp721
Rp722
(dp723
g8
g11
sg140
Nsg141
(dp724
sg143
Nsg26
g29
sg144
(lp725
I7
aI7
asg146
Nsg147
VMishnah Tahorot 7:7
p726
sg149
(lp727
sg151
g101
sg152
Nsg153
(lp728
I7
aI7
asg155
Nsg156
g726
sg157
(lp729
sg159
g62
sg160
Nsg161
Nsg162
Nsbag2
(g3
g4
Ntp730
Rp731
(dp732
g8
g11
sg140
Nsg141
(dp733
sg143
Nsg26
g29
sg144
(lp734
I7
aI8
asg146
Nsg147
VMishnah Tahorot 7:8
p735
sg149
(lp736
sg151
g101
sg152
Nsg153
(lp737
I7
aI8
asg155
Nsg156
g735
sg157
(lp738
sg159
g62
sg160
Nsg161
Nsg162
Nsbag2
(g3
g4
Ntp739
Rp740
(dp741
g8
g11
sg140
Nsg141
(dp742
sg143
Nsg26
g29
sg144
(lp743
I7
aI9
asg146
Nsg147
VMishnah Tahorot 7:9
p744
sg149
(lp745
sg151
g101
sg152
Nsg153
(lp746
I7
aI9
asg155
Nsg156
g744
sg157
(lp747
sg159
g62
sg160
Nsg161
Nsg162
Nsbag2
(g3
g4
Ntp748
Rp749
(dp750
g8
g11
sg140
Nsg141
(dp751
sg143
Nsg26
g29
sg144
(lp752
I8
aI1
asg146
Nsg147
VMishnah Tahorot 8:1
p753
sg149
(lp754
sg151
g101
sg152
Nsg153
(lp755
I8
aI1
asg155
Nsg156
g753
sg157
(lp756
sg159
g62
sg160
Nsg161
Nsg162
Nsbag2
(g3
g4
Ntp757
Rp758
(dp759
g8
g11
sg140
Nsg141
(dp760
sg143
Nsg26
g29
sg144
(lp761
I8
aI2
asg146
Nsg147
VMishnah Tahorot 8:2
p762
sg149
(lp763
sg151
g101
sg152
Nsg153
(lp764
I8
aI2
asg155
Nsg156
g762
sg157
(lp765
sg159
g62
sg160
Nsg161
Nsg162
Nsbag2
(g3
g4
Ntp766
Rp767
(dp768
g8
g11
sg140
Nsg141
(dp769
sg143
Nsg26
g29
sg144
(lp770
I8
aI3
asg146
Nsg147
VMishnah Tahorot 8:3
p771
sg149
(lp772
sg151
g101
sg152
Nsg153
(lp773
I8
aI3
asg155
Nsg156
g771
sg157
(lp774
sg159
g62
sg160
Nsg161
Nsg162
Nsbag2
(g3
g4
Ntp775
Rp776
(dp777
g8
g11
sg140
Nsg141
(dp778
sg143
Nsg26
g29
sg144
(lp779
I8
aI4
asg146
Nsg147
VMishnah Tahorot 8:4
p780
sg149
(lp781
sg151
g101
sg152
Nsg153
(lp782
I8
aI4
asg155
Nsg156
g780
sg157
(lp783
sg159
g62
sg160
Nsg161
Nsg162
Nsbag2
(g3
g4
Ntp784
Rp785
(dp786
g8
g11
sg140
Nsg141
(dp787
sg143
Nsg26
g29
sg144
(lp788
I8
aI5
asg146
Nsg147
VMishnah Tahorot 8:5
p789
sg149
(lp790
sg151
g101
sg152
Nsg153
(lp791
I8
aI5
asg155
Nsg156
g789
sg157
(lp792
sg159
g62
sg160
Nsg161
Nsg162
Nsbag2
(g3
g4
Ntp793
Rp794
(dp795
g8
g11
sg140
Nsg141
(dp796
sg143
Nsg26
g29
sg144
(lp797
I8
aI6
asg146
Nsg147
VMishnah Tahorot 8:6
p798
sg149
(lp799
sg151
g101
sg152
Nsg153
(lp800
I8
aI6
asg155
Nsg156
g798
sg157
(lp801
sg159
g62
sg160
Nsg161
Nsg162
Nsbag2
(g3
g4
Ntp802
Rp803
(dp804
g8
g11
sg140
Nsg141
(dp805
sg143
Nsg26
g29
sg144
(lp806
I8
aI7
asg146
Nsg147
VMishnah Tahorot 8:7
p807
sg149
(lp808
sg151
g101
sg152
Nsg153
(lp809
I8
aI7
asg155
Nsg156
g807
sg157
(lp810
sg159
g62
sg160
Nsg161
Nsg162
Nsbag2
(g3
g4
Ntp811
Rp812
(dp813
g8
g11
sg140
Nsg141
(dp814
sg143
Nsg26
g29
sg144
(lp815
I8
aI8
asg146
Nsg147
VMishnah Tahorot 8:8
p816
sg149
(lp817
sg151
g101
sg152
Nsg153
(lp818
I8
aI8
asg155
Nsg156
g816
sg157
(lp819
sg159
g62
sg160
Nsg161
Nsg162
Nsbag2
(g3
g4
Ntp820
Rp821
(dp822
g8
g11
sg140
Nsg141
(dp823
sg143
Nsg26
g29
sg144
(lp824
I8
aI9
asg146
Nsg147
VMishnah Tahorot 8:9
p825
sg149
(lp826
sg151
g101
sg152
Nsg153
(lp827
I8
aI9
asg155
Nsg156
g825
sg157
(lp828
sg159
g62
sg160
Nsg161
Nsg162
Nsbag2
(g3
g4
Ntp829
Rp830
(dp831
g8
g11
sg140
Nsg141
(dp832
sg143
Nsg26
g29
sg144
(lp833
I9
aI1
asg146
Nsg147
VMishnah Tahorot 9:1
p834
sg149
(lp835
sg151
g101
sg152
Nsg153
(lp836
I9
aI1
asg155
Nsg156
g834
sg157
(lp837
sg159
g62
sg160
Nsg161
Nsg162
Nsbag2
(g3
g4
Ntp838
Rp839
(dp840
g8
g11
sg140
Nsg141
(dp841
sg143
Nsg26
g29
sg144
(lp842
I9
aI2
asg146
Nsg147
VMishnah Tahorot 9:2
p843
sg149
(lp844
sg151
g101
sg152
Nsg153
(lp845
I9
aI2
asg155
Nsg156
g843
sg157
(lp846
sg159
g62
sg160
Nsg161
Nsg162
Nsbag2
(g3
g4
Ntp847
Rp848
(dp849
g8
g11
sg140
Nsg141
(dp850
sg143
Nsg26
g29
sg144
(lp851
I9
aI3
asg146
Nsg147
VMishnah Tahorot 9:3
p852
sg149
(lp853
sg151
g101
sg152
Nsg153
(lp854
I9
aI3
asg155
Nsg156
g852
sg157
(lp855
sg159
g62
sg160
Nsg161
Nsg162
Nsbag2
(g3
g4
Ntp856
Rp857
(dp858
g8
g11
sg140
Nsg141
(dp859
sg143
Nsg26
g29
sg144
(lp860
I9
aI4
asg146
Nsg147
VMishnah Tahorot 9:4
p861
sg149
(lp862
sg151
g101
sg152
Nsg153
(lp863
I9
aI4
asg155
Nsg156
g861
sg157
(lp864
sg159
g62
sg160
Nsg161
Nsg162
Nsbag2
(g3
g4
Ntp865
Rp866
(dp867
g8
g11
sg140
Nsg141
(dp868
sg143
Nsg26
g29
sg144
(lp869
I9
aI5
asg146
Nsg147
VMishnah Tahorot 9:5
p870
sg149
(lp871
sg151
g101
sg152
Nsg153
(lp872
I9
aI5
asg155
Nsg156
g870
sg157
(lp873
sg159
g62
sg160
Nsg161
Nsg162
Nsbag2
(g3
g4
Ntp874
Rp875
(dp876
g8
g11
sg140
Nsg141
(dp877
sg143
Nsg26
g29
sg144
(lp878
I9
aI6
asg146
Nsg147
VMishnah Tahorot 9:6
p879
sg149
(lp880
sg151
g101
sg152
Nsg153
(lp881
I9
aI6
asg155
Nsg156
g879
sg157
(lp882
sg159
g62
sg160
Nsg161
Nsg162
Nsbag2
(g3
g4
Ntp883
Rp884
(dp885
g8
g11
sg140
Nsg141
(dp886
sg143
Nsg26
g29
sg144
(lp887
I9
aI7
asg146
Nsg147
VMishnah Tahorot 9:7
p888
sg149
(lp889
sg151
g101
sg152
Nsg153
(lp890
I9
aI7
asg155
Nsg156
g888
sg157
(lp891
sg159
g62
sg160
Nsg161
Nsg162
Nsbag2
(g3
g4
Ntp892
Rp893
(dp894
g8
g11
sg140
Nsg141
(dp895
sg143
Nsg26
g29
sg144
(lp896
I9
aI8
asg146
Nsg147
VMishnah Tahorot 9:8
p897
sg149
(lp898
sg151
g101
sg152
Nsg153
(lp899
I9
aI8
asg155
Nsg156
g897
sg157
(lp900
sg159
g62
sg160
Nsg161
Nsg162
Nsbag2
(g3
g4
Ntp901
Rp902
(dp903
g8
g11
sg140
Nsg141
(dp904
sg143
Nsg26
g29
sg144
(lp905
I9
aI9
asg146
Nsg147
VMishnah Tahorot 9:9
p906
sg149
(lp907
sg151
g101
sg152
Nsg153
(lp908
I9
aI9
asg155
Nsg156
g906
sg157
(lp909
sg159
g62
sg160
Nsg161
Nsg162
Nsbag2
(g3
g4
Ntp910
Rp911
(dp912
g8
g11
sg140
Nsg141
(dp913
sg143
Nsg26
g29
sg144
(lp914
I10
aI1
asg146
Nsg147
VMishnah Tahorot 10:1
p915
sg149
(lp916
sg151
g101
sg152
Nsg153
(lp917
I10
aI1
asg155
Nsg156
g915
sg157
(lp918
sg159
g62
sg160
Nsg161
Nsg162
Nsbag2
(g3
g4
Ntp919
Rp920
(dp921
g8
g11
sg140
Nsg141
(dp922
sg143
Nsg26
g29
sg144
(lp923
I10
aI2
asg146
Nsg147
VMishnah Tahorot 10:2
p924
sg149
(lp925
sg151
g101
sg152
Nsg153
(lp926
I10
aI2
asg155
Nsg156
g924
sg157
(lp927
sg159
g62
sg160
Nsg161
Nsg162
Nsbag2
(g3
g4
Ntp928
Rp929
(dp930
g8
g11
sg140
Nsg141
(dp931
sg143
Nsg26
g29
sg144
(lp932
I10
aI3
asg146
Nsg147
VMishnah Tahorot 10:3
p933
sg149
(lp934
sg151
g101
sg152
Nsg153
(lp935
I10
aI3
asg155
Nsg156
g933
sg157
(lp936
sg159
g62
sg160
Nsg161
Nsg162
Nsbag2
(g3
g4
Ntp937
Rp938
(dp939
g8
g11
sg140
Nsg141
(dp940
sg143
Nsg26
g29
sg144
(lp941
I10
aI4
asg146
Nsg147
VMishnah Tahorot 10:4
p942
sg149
(lp943
sg151
g101
sg152
Nsg153
(lp944
I10
aI4
asg155
Nsg156
g942
sg157
(lp945
sg159
g62
sg160
Nsg161
Nsg162
Nsbag2
(g3
g4
Ntp946
Rp947
(dp948
g8
g11
sg140
Nsg141
(dp949
sg143
Nsg26
g29
sg144
(lp950
I10
aI5
asg146
Nsg147
VMishnah Tahorot 10:5
p951
sg149
(lp952
sg151
g101
sg152
Nsg153
(lp953
I10
aI5
asg155
Nsg156
g951
sg157
(lp954
sg159
g62
sg160
Nsg161
Nsg162
Nsbag2
(g3
g4
Ntp955
Rp956
(dp957
g8
g11
sg140
Nsg141
(dp958
sg143
Nsg26
g29
sg144
(lp959
I10
aI6
asg146
Nsg147
VMishnah Tahorot 10:6
p960
sg149
(lp961
sg151
g101
sg152
Nsg153
(lp962
I10
aI6
asg155
Nsg156
g960
sg157
(lp963
sg159
g62
sg160
Nsg161
Nsg162
Nsbag2
(g3
g4
Ntp964
Rp965
(dp966
g8
g11
sg140
Nsg141
(dp967
sg143
Nsg26
g29
sg144
(lp968
I10
aI7
asg146
Nsg147
VMishnah Tahorot 10:7
p969
sg149
(lp970
sg151
g101
sg152
Nsg153
(lp971
I10
aI7
asg155
Nsg156
g969
sg157
(lp972
sg159
g62
sg160
Nsg161
Nsg162
Nsbag2
(g3
g4
Ntp973
Rp974
(dp975
g8
g11
sg140
Nsg141
(dp976
sg143
Nsg26
g29
sg144
(lp977
I10
aI8
asg146
Nsg147
VMishnah Tahorot 10:8
p978
sg149
(lp979
sg151
g101
sg152
Nsg153
(lp980
I10
aI8
asg155
Nsg156
g978
sg157
(lp981
sg159
g62
sg160
Nsg161
Nsg162
Nsbatp982
.