((lp0
I0
aI62
aI104
aI154
aI220
aI250
aI282
aI390
aI410
aI506
aI556
aI626
aI656
aI684
aI729
a(lp1
ccopy_reg
_reconstructor
p2
(csefaria.model.text
Ref
p3
c__builtin__
object
p4
Ntp5
Rp6
(dp7
S'index_node'
p8
g2
(csefaria.model.schema
JaggedArrayNode
p9
g4
Ntp10
Rp11
(dp12
S'_address'
p13
(lp14
VMishnah Kinnim
p15
asS'_full_titles'
p16
(dp17
sVnodeType
p18
VJaggedArrayNode
p19
sS'parent'
p20
NsVaddressTypes
p21
(lp22
VPerek
p23
aVMishnah
p24
asS'default'
p25
I00
sS'index'
p26
g2
(csefaria.model.text
Index
p27
g4
Ntp28
Rp29
(dp30
S'_id'
p31
g2
(cbson.objectid
ObjectId
p32
g4
Ntp33
Rp34
S'NJ\xb8\x8f\xed\xba\xb4X3\x00\x00Y'
p35
bsS'pkeys_orig_values'
p36
(dp37
S'title'
p38
VMishnah Kinnim
p39
ssS'pubDate'
p40
V1492
p41
sS'compDate'
p42
V210
p43
sS'pubPlace'
p44
VNaples
p45
sS'compPlace'
p46
VTalmudic Israel
p47
sS'enDesc'
p48
VThe Mishnah is the first major written redaction of the Jewish oral traditions known as the Oral Torah. The Mishnah was redacted by Rabbi Yehudah Ha-Nasi before his death around 217 CE, in a time when, according to the Talmud, the persecution of the Jews and the passage of time raised the possibility that the details of the oral traditions of the Pharisees from the Second Temple period (536 BCE \u2013 70 CE) would be forgotten. The majority of the Mishnah is written in Mishnaic Hebrew, while some parts are Aramaic. The Mishnah consists of six orders (sedarim, singular seder), each containing 7\u201312 tractates (masekhtot, singular masekhet), numbering 63 in total and further subdivided into chapters and paragraphs or verses. The word Mishnah can also indicate a single paragraph or a verse of the work itself, i.e. the smallest unit of structure in the Mishnah. For this reason the whole work is sometimes called by the plural, Mishnayot. Kinnim (Nests) belongs to the fifth order, Kodshim (Holy things) and discusses the complex laws for situations where the mixing of bird-offerings occurred. It has three chapters.
p49
sS'order'
p50
(lp51
I51
aI11
asS'era'
p52
VT
p53
sS'struct_objs'
p54
(dp55
sS'nodes'
p56
g11
sS'errorMargin'
p57
V20
p58
sS'_title'
p59
g39
sS'categories'
p60
(lp61
VMishnah
p62
aVSeder Kodashim
p63
asS'schema'
p64
(dp65
g18
g19
sg21
g22
sVlengths
p66
(lp67
I3
aI16
asVdepth
p68
I2
sVtitles
p69
(lp70
(dp71
Vlang
p72
Ven
p73
sVtext
p74
VM. Kinnim
p75
sa(dp76
Vlang
p77
Ven
p78
sVtext
p79
VMishna Kinnim
p80
sa(dp81
Vlang
p82
Ven
p83
sVtext
p84
VM Kinnim
p85
sa(dp86
Vlang
p87
Vhe
p88
sVtext
p89
V\u05de\u05e9\u05e0\u05d4 \u05e7\u05d9\u05e0\u05d9\u05dd
p90
sVprimary
p91
I01
sa(dp92
Vlang
p93
Vhe
p94
sVtext
p95
V\u05e7\u05d9\u05e0\u05d9\u05dd
p96
sa(dp97
Vlang
p98
Vhe
p99
sVtext
p100
V\u05e7\u05e0\u05d9\u05dd
p101
sa(dp102
Vlang
p103
Vhe
p104
sVtext
p105
V\u05de\u05e9\u05e0\u05d4 \u05e7\u05e0\u05d9\u05dd
p106
sa(dp107
Vlang
p108
Ven
p109
sVtext
p110
VMishnah Kinnim
p111
sVprimary
p112
I01
sasVkey
p113
g15
sVsectionNames
p114
(lp115
VChapter
p116
aVMishna
p117
assbsS'_primary_title'
p118
(dp119
sS'title_group'
p120
g2
(csefaria.model.schema
TitleGroup
p121
g4
Ntp122
Rp123
(dp124
g118
(dp125
S'en'
p126
g111
ssS'titles'
p127
g70
sbsS'_addressTypes'
p128
(lp129
g2
(csefaria.model.schema
AddressPerek
p130
g4
Ntp131
Rp132
(dp133
S'length'
p134
I3
sg50
I0
sbag2
(csefaria.model.schema
AddressMishnah
p135
g4
Ntp136
Rp137
(dp138
g134
Nsg50
I1
sbasS'sharedTitle'
p139
Nsg66
g67
sg68
I2
sS'_full_title'
p140
(dp141
g126
g111
ssS'key'
p142
g15
sS'checkFirst'
p143
NsS'_regexes'
p144
(dp145
sS'_leaf_nodes'
p146
(lp147
sg114
g115
sS'children'
p148
(lp149
sbsS'_range_index'
p150
NsS'_context'
p151
(dp152
sS'_padded'
p153
Nsg26
g29
sS'sections'
p154
(lp155
I1
aI1
asS'_first_spanned_ref'
p156
NsS'tref'
p157
VMishnah Kinnim 1:1
p158
sS'_spanned_refs'
p159
(lp160
sS'book'
p161
g111
sS'_range_depth'
p162
NsS'toSections'
p163
(lp164
I1
aI1
asS'_url'
p165
NsS'_normal'
p166
g158
sS'_ranged_refs'
p167
(lp168
sS'type'
p169
g62
sS'_prev'
p170
NsS'_he_normal'
p171
NsS'_next'
p172
Nsbag2
(g3
g4
Ntp173
Rp174
(dp175
g8
g11
sg150
Nsg151
(dp176
sg153
Nsg26
g29
sg154
(lp177
I1
aI2
asg156
Nsg157
VMishnah Kinnim 1:2
p178
sg159
(lp179
sg161
g111
sg162
Nsg163
(lp180
I1
aI2
asg165
Nsg166
g178
sg167
(lp181
sg169
g62
sg170
Nsg171
Nsg172
Nsbag2
(g3
g4
Ntp182
Rp183
(dp184
g8
g11
sg150
Nsg151
(dp185
sg153
Nsg26
g29
sg154
(lp186
I1
aI3
asg156
Nsg157
VMishnah Kinnim 1:3
p187
sg159
(lp188
sg161
g111
sg162
Nsg163
(lp189
I1
aI3
asg165
Nsg166
g187
sg167
(lp190
sg169
g62
sg170
Nsg171
Nsg172
Nsbag2
(g3
g4
Ntp191
Rp192
(dp193
g8
g11
sg150
Nsg151
(dp194
sg153
Nsg26
g29
sg154
(lp195
I1
aI4
asg156
Nsg157
VMishnah Kinnim 1:4
p196
sg159
(lp197
sg161
g111
sg162
Nsg163
(lp198
I1
aI4
asg165
Nsg166
g196
sg167
(lp199
sg169
g62
sg170
Nsg171
Nsg172
Nsbag2
(g3
g4
Ntp200
Rp201
(dp202
g8
g11
sg150
Nsg151
(dp203
sg153
Nsg26
g29
sg154
(lp204
I2
aI1
asg156
Nsg157
VMishnah Kinnim 2:1
p205
sg159
(lp206
sg161
g111
sg162
Nsg163
(lp207
I2
aI1
asg165
Nsg166
g205
sg167
(lp208
sg169
g62
sg170
Nsg171
Nsg172
Nsbag2
(g3
g4
Ntp209
Rp210
(dp211
g8
g11
sg150
Nsg151
(dp212
sg153
Nsg26
g29
sg154
(lp213
I2
aI2
asg156
Nsg157
VMishnah Kinnim 2:2
p214
sg159
(lp215
sg161
g111
sg162
Nsg163
(lp216
I2
aI2
asg165
Nsg166
g214
sg167
(lp217
sg169
g62
sg170
Nsg171
Nsg172
Nsbag2
(g3
g4
Ntp218
Rp219
(dp220
g8
g11
sg150
Nsg151
(dp221
sg153
Nsg26
g29
sg154
(lp222
I2
aI3
asg156
Nsg157
VMishnah Kinnim 2:3
p223
sg159
(lp224
sg161
g111
sg162
Nsg163
(lp225
I2
aI3
asg165
Nsg166
g223
sg167
(lp226
sg169
g62
sg170
Nsg171
Nsg172
Nsbag2
(g3
g4
Ntp227
Rp228
(dp229
g8
g11
sg150
Nsg151
(dp230
sg153
Nsg26
g29
sg154
(lp231
I2
aI4
asg156
Nsg157
VMishnah Kinnim 2:4
p232
sg159
(lp233
sg161
g111
sg162
Nsg163
(lp234
I2
aI4
asg165
Nsg166
g232
sg167
(lp235
sg169
g62
sg170
Nsg171
Nsg172
Nsbag2
(g3
g4
Ntp236
Rp237
(dp238
g8
g11
sg150
Nsg151
(dp239
sg153
Nsg26
g29
sg154
(lp240
I2
aI5
asg156
Nsg157
VMishnah Kinnim 2:5
p241
sg159
(lp242
sg161
g111
sg162
Nsg163
(lp243
I2
aI5
asg165
Nsg166
g241
sg167
(lp244
sg169
g62
sg170
Nsg171
Nsg172
Nsbag2
(g3
g4
Ntp245
Rp246
(dp247
g8
g11
sg150
Nsg151
(dp248
sg153
Nsg26
g29
sg154
(lp249
I3
aI1
asg156
Nsg157
VMishnah Kinnim 3:1
p250
sg159
(lp251
sg161
g111
sg162
Nsg163
(lp252
I3
aI1
asg165
Nsg166
g250
sg167
(lp253
sg169
g62
sg170
Nsg171
Nsg172
Nsbag2
(g3
g4
Ntp254
Rp255
(dp256
g8
g11
sg150
Nsg151
(dp257
sg153
Nsg26
g29
sg154
(lp258
I3
aI2
asg156
Nsg157
VMishnah Kinnim 3:2
p259
sg159
(lp260
sg161
g111
sg162
Nsg163
(lp261
I3
aI2
asg165
Nsg166
g259
sg167
(lp262
sg169
g62
sg170
Nsg171
Nsg172
Nsbag2
(g3
g4
Ntp263
Rp264
(dp265
g8
g11
sg150
Nsg151
(dp266
sg153
Nsg26
g29
sg154
(lp267
I3
aI3
asg156
Nsg157
VMishnah Kinnim 3:3
p268
sg159
(lp269
sg161
g111
sg162
Nsg163
(lp270
I3
aI3
asg165
Nsg166
g268
sg167
(lp271
sg169
g62
sg170
Nsg171
Nsg172
Nsbag2
(g3
g4
Ntp272
Rp273
(dp274
g8
g11
sg150
Nsg151
(dp275
sg153
Nsg26
g29
sg154
(lp276
I3
aI4
asg156
Nsg157
VMishnah Kinnim 3:4
p277
sg159
(lp278
sg161
g111
sg162
Nsg163
(lp279
I3
aI4
asg165
Nsg166
g277
sg167
(lp280
sg169
g62
sg170
Nsg171
Nsg172
Nsbag2
(g3
g4
Ntp281
Rp282
(dp283
g8
g11
sg150
Nsg151
(dp284
sg153
Nsg26
g29
sg154
(lp285
I3
aI5
asg156
Nsg157
VMishnah Kinnim 3:5
p286
sg159
(lp287
sg161
g111
sg162
Nsg163
(lp288
I3
aI5
asg165
Nsg166
g286
sg167
(lp289
sg169
g62
sg170
Nsg171
Nsg172
Nsbag2
(g3
g4
Ntp290
Rp291
(dp292
g8
g11
sg150
Nsg151
(dp293
sg153
Nsg26
g29
sg154
(lp294
I3
aI6
asg156
Nsg157
VMishnah Kinnim 3:6
p295
sg159
(lp296
sg161
g111
sg162
Nsg163
(lp297
I3
aI6
asg165
Nsg166
g295
sg167
(lp298
sg169
g62
sg170
Nsg171
Nsg172
Nsbatp299
.