((lp0
I0
aI28
aI48
aI99
aI133
aI249
aI272
aI290
aI361
aI424
aI463
aI553
aI610
aI657
aI701
aI723
aI792
aI807
aI826
aI873
aI906
aI962
aI981
aI997
aI1031
aI1072
aI1107
aI1133
aI1206
aI1249
aI1288
aI1359
aI1399
aI1423
aI1458
aI1500
aI1555
aI1588
aI1617
aI1654
aI1714
aI1766
aI1810
aI1881
aI1912
aI1955
aI1990
aI2046
aI2082
aI2154
aI2175
aI2232
aI2264
aI2318
aI2345
aI2364
aI2398
aI2429
aI2478
aI2521
aI2584
aI2611
aI2668
aI2699
aI2737
aI2760
aI2790
aI2838
aI2883
aI3008
aI3073
aI3114
aI3142
aI3177
aI3196
aI3245
aI3280
aI3322
aI3346
aI3370
aI3417
aI3468
aI3488
aI3520
aI3554
aI3648
aI3673
aI3724
aI3789
aI3824
aI3850
aI3902
aI3939
aI3966
aI3991
aI4022
aI4075
aI4100
aI4145
aI4191
aI4243
aI4280
aI4327
aI4372
aI4413
aI4462
aI4485
aI4524
aI4544
aI4585
aI4646
aI4745
aI4794
aI4816
aI4861
aI4881
aI4926
aI4970
aI5005
aI5041
aI5090
aI5117
aI5150
aI5239
aI5295
aI5323
aI5371
aI5401
aI5448
aI5502
aI5538
aI5555
aI5604
aI5666
aI5688
aI5755
aI5823
aI5855
aI5894
aI5933
aI5978
aI6035
aI6081
aI6157
aI6187
aI6211
aI6243
aI6271
aI6327
aI6370
aI6400
aI6437
aI6459
aI6481
aI6523
aI6578
aI6623
aI6643
aI6661
aI6697
aI6710
aI6750
aI6809
aI6868
aI6891
aI6943
aI6969
aI7018
aI7063
aI7091
aI7135
aI7152
aI7172
aI7195
aI7221
aI7236
aI7254
aI7284
aI7309
aI7336
aI7403
aI7423
aI7455
aI7485
aI7514
aI7529
aI7546
aI7561
aI7581
aI7597
aI7613
aI7631
aI7648
aI7664
aI7681
aI7697
aI7717
aI7735
aI7750
aI7770
aI7788
aI7806
aI7848
aI7898
aI7920
aI7953
aI8000
aI8040
aI8085
aI8119
aI8165
aI8209
aI8264
aI8298
aI8329
aI8408
aI8451
aI8478
aI8495
aI8531
aI8569
aI8643
aI8679
aI8731
aI8757
aI8798
aI8820
aI8860
aI8921
aI8949
aI8976
aI9015
aI9083
aI9109
aI9156
aI9184
aI9208
aI9257
aI9320
aI9369
aI9400
aI9441
aI9477
aI9510
aI9545
aI9569
aI9588
aI9612
aI9637
aI9667
aI9701
aI9741
aI9771
aI9803
a(lp1
ccopy_reg
_reconstructor
p2
(csefaria.model.text
Ref
p3
c__builtin__
object
p4
Ntp5
Rp6
(dp7
S'index_node'
p8
g2
(csefaria.model.schema
JaggedArrayNode
p9
g4
Ntp10
Rp11
(dp12
S'_address'
p13
(lp14
VMishnah Kelim
p15
asS'_full_titles'
p16
(dp17
sVnodeType
p18
VJaggedArrayNode
p19
sS'parent'
p20
NsVaddressTypes
p21
(lp22
VPerek
p23
aVMishnah
p24
asS'default'
p25
I00
sS'index'
p26
g2
(csefaria.model.text
Index
p27
g4
Ntp28
Rp29
(dp30
S'_id'
p31
g2
(cbson.objectid
ObjectId
p32
g4
Ntp33
Rp34
S'NJ\xb8\x8f\xed\xba\xb4X3\x00\x00Z'
p35
bsS'pkeys_orig_values'
p36
(dp37
S'title'
p38
VMishnah Kelim
p39
ssS'pubDate'
p40
V1492
p41
sS'compDate'
p42
V210
p43
sS'pubPlace'
p44
VNaples
p45
sS'compPlace'
p46
VTalmudic Israel
p47
sS'enDesc'
p48
VThe Mishnah is the first major written redaction of the Jewish oral traditions known as the Oral Torah. The Mishnah was redacted by Rabbi Yehudah Ha-Nasi before his death around 217 CE, in a time when, according to the Talmud, the persecution of the Jews and the passage of time raised the possibility that the details of the oral traditions of the Pharisees from the Second Temple period (536 BCE \u2013 70 CE) would be forgotten. The majority of the Mishnah is written in Mishnaic Hebrew, while some parts are Aramaic. The Mishnah consists of six orders (sedarim, singular seder), each containing 7\u201312 tractates (masekhtot, singular masekhet), numbering 63 in total and further subdivided into chapters and paragraphs or verses. The word Mishnah can also indicate a single paragraph or a verse of the work itself, i.e. the smallest unit of structure in the Mishnah. For this reason the whole work is sometimes called by the plural, Mishnayot. Kelim (Vessels) belongs to the sixth order, Tahorot (Purities) and discusses a large array of various utensils and how they fare in terms of purity. It has thirty chapters. It is the largest order of the Mishnah.
p49
sS'order'
p50
(lp51
I52
aI1
asS'era'
p52
VT
p53
sS'struct_objs'
p54
(dp55
sS'nodes'
p56
g11
sS'errorMargin'
p57
V20
p58
sS'_title'
p59
g39
sS'categories'
p60
(lp61
VMishnah
p62
aVSeder Tahorot
p63
asS'schema'
p64
(dp65
g18
g19
sg21
g22
sVlengths
p66
(lp67
I30
aI254
asVdepth
p68
I2
sVtitles
p69
(lp70
(dp71
Vlang
p72
Ven
p73
sVtext
p74
VM. Kelim
p75
sa(dp76
Vlang
p77
Ven
p78
sVtext
p79
VM Kelim
p80
sa(dp81
Vlang
p82
Ven
p83
sVtext
p84
VMishna Kelim
p85
sa(dp86
Vlang
p87
Vhe
p88
sVtext
p89
V\u05de\u05e9\u05e0\u05d4 \u05db\u05dc\u05d9\u05dd
p90
sVprimary
p91
I01
sa(dp92
Vlang
p93
Vhe
p94
sVtext
p95
V\u05db\u05dc\u05d9\u05dd
p96
sa(dp97
Vlang
p98
Ven
p99
sVtext
p100
VMishnah Kelim
p101
sVprimary
p102
I01
sasVkey
p103
g15
sVsectionNames
p104
(lp105
VChapter
p106
aVMishna
p107
assbsS'_primary_title'
p108
(dp109
sS'title_group'
p110
g2
(csefaria.model.schema
TitleGroup
p111
g4
Ntp112
Rp113
(dp114
g108
(dp115
S'en'
p116
g101
ssS'titles'
p117
g70
sbsS'_addressTypes'
p118
(lp119
g2
(csefaria.model.schema
AddressPerek
p120
g4
Ntp121
Rp122
(dp123
S'length'
p124
I30
sg50
I0
sbag2
(csefaria.model.schema
AddressMishnah
p125
g4
Ntp126
Rp127
(dp128
g124
Nsg50
I1
sbasS'sharedTitle'
p129
Nsg66
g67
sg68
I2
sS'_full_title'
p130
(dp131
g116
g101
ssS'key'
p132
g15
sS'checkFirst'
p133
NsS'_regexes'
p134
(dp135
sS'_leaf_nodes'
p136
(lp137
sg104
g105
sS'children'
p138
(lp139
sbsS'_range_index'
p140
NsS'_context'
p141
(dp142
sS'_padded'
p143
Nsg26
g29
sS'sections'
p144
(lp145
I1
aI1
asS'_first_spanned_ref'
p146
NsS'tref'
p147
VMishnah Kelim 1:1
p148
sS'_spanned_refs'
p149
(lp150
sS'book'
p151
g101
sS'_range_depth'
p152
NsS'toSections'
p153
(lp154
I1
aI1
asS'_url'
p155
NsS'_normal'
p156
g148
sS'_ranged_refs'
p157
(lp158
sS'type'
p159
g62
sS'_prev'
p160
NsS'_he_normal'
p161
NsS'_next'
p162
Nsbag2
(g3
g4
Ntp163
Rp164
(dp165
g8
g11
sg140
Nsg141
(dp166
sg143
Nsg26
g29
sg144
(lp167
I1
aI2
asg146
Nsg147
VMishnah Kelim 1:2
p168
sg149
(lp169
sg151
g101
sg152
Nsg153
(lp170
I1
aI2
asg155
Nsg156
g168
sg157
(lp171
sg159
g62
sg160
Nsg161
Nsg162
Nsbag2
(g3
g4
Ntp172
Rp173
(dp174
g8
g11
sg140
Nsg141
(dp175
sg143
Nsg26
g29
sg144
(lp176
I1
aI3
asg146
Nsg147
VMishnah Kelim 1:3
p177
sg149
(lp178
sg151
g101
sg152
Nsg153
(lp179
I1
aI3
asg155
Nsg156
g177
sg157
(lp180
sg159
g62
sg160
Nsg161
Nsg162
Nsbag2
(g3
g4
Ntp181
Rp182
(dp183
g8
g11
sg140
Nsg141
(dp184
sg143
Nsg26
g29
sg144
(lp185
I1
aI4
asg146
Nsg147
VMishnah Kelim 1:4
p186
sg149
(lp187
sg151
g101
sg152
Nsg153
(lp188
I1
aI4
asg155
Nsg156
g186
sg157
(lp189
sg159
g62
sg160
Nsg161
Nsg162
Nsbag2
(g3
g4
Ntp190
Rp191
(dp192
g8
g11
sg140
Nsg141
(dp193
sg143
Nsg26
g29
sg144
(lp194
I1
aI5
asg146
Nsg147
VMishnah Kelim 1:5
p195
sg149
(lp196
sg151
g101
sg152
Nsg153
(lp197
I1
aI5
asg155
Nsg156
g195
sg157
(lp198
sg159
g62
sg160
Nsg161
Nsg162
Nsbag2
(g3
g4
Ntp199
Rp200
(dp201
g8
g11
sg140
Nsg141
(dp202
sg143
Nsg26
g29
sg144
(lp203
I1
aI6
asg146
Nsg147
VMishnah Kelim 1:6
p204
sg149
(lp205
sg151
g101
sg152
Nsg153
(lp206
I1
aI6
asg155
Nsg156
g204
sg157
(lp207
sg159
g62
sg160
Nsg161
Nsg162
Nsbag2
(g3
g4
Ntp208
Rp209
(dp210
g8
g11
sg140
Nsg141
(dp211
sg143
Nsg26
g29
sg144
(lp212
I1
aI7
asg146
Nsg147
VMishnah Kelim 1:7
p213
sg149
(lp214
sg151
g101
sg152
Nsg153
(lp215
I1
aI7
asg155
Nsg156
g213
sg157
(lp216
sg159
g62
sg160
Nsg161
Nsg162
Nsbag2
(g3
g4
Ntp217
Rp218
(dp219
g8
g11
sg140
Nsg141
(dp220
sg143
Nsg26
g29
sg144
(lp221
I1
aI8
asg146
Nsg147
VMishnah Kelim 1:8
p222
sg149
(lp223
sg151
g101
sg152
Nsg153
(lp224
I1
aI8
asg155
Nsg156
g222
sg157
(lp225
sg159
g62
sg160
Nsg161
Nsg162
Nsbag2
(g3
g4
Ntp226
Rp227
(dp228
g8
g11
sg140
Nsg141
(dp229
sg143
Nsg26
g29
sg144
(lp230
I1
aI9
asg146
Nsg147
VMishnah Kelim 1:9
p231
sg149
(lp232
sg151
g101
sg152
Nsg153
(lp233
I1
aI9
asg155
Nsg156
g231
sg157
(lp234
sg159
g62
sg160
Nsg161
Nsg162
Nsbag2
(g3
g4
Ntp235
Rp236
(dp237
g8
g11
sg140
Nsg141
(dp238
sg143
Nsg26
g29
sg144
(lp239
I2
aI1
asg146
Nsg147
VMishnah Kelim 2:1
p240
sg149
(lp241
sg151
g101
sg152
Nsg153
(lp242
I2
aI1
asg155
Nsg156
g240
sg157
(lp243
sg159
g62
sg160
Nsg161
Nsg162
Nsbag2
(g3
g4
Ntp244
Rp245
(dp246
g8
g11
sg140
Nsg141
(dp247
sg143
Nsg26
g29
sg144
(lp248
I2
aI2
asg146
Nsg147
VMishnah Kelim 2:2
p249
sg149
(lp250
sg151
g101
sg152
Nsg153
(lp251
I2
aI2
asg155
Nsg156
g249
sg157
(lp252
sg159
g62
sg160
Nsg161
Nsg162
Nsbag2
(g3
g4
Ntp253
Rp254
(dp255
g8
g11
sg140
Nsg141
(dp256
sg143
Nsg26
g29
sg144
(lp257
I2
aI3
asg146
Nsg147
VMishnah Kelim 2:3
p258
sg149
(lp259
sg151
g101
sg152
Nsg153
(lp260
I2
aI3
asg155
Nsg156
g258
sg157
(lp261
sg159
g62
sg160
Nsg161
Nsg162
Nsbag2
(g3
g4
Ntp262
Rp263
(dp264
g8
g11
sg140
Nsg141
(dp265
sg143
Nsg26
g29
sg144
(lp266
I2
aI4
asg146
Nsg147
VMishnah Kelim 2:4
p267
sg149
(lp268
sg151
g101
sg152
Nsg153
(lp269
I2
aI4
asg155
Nsg156
g267
sg157
(lp270
sg159
g62
sg160
Nsg161
Nsg162
Nsbag2
(g3
g4
Ntp271
Rp272
(dp273
g8
g11
sg140
Nsg141
(dp274
sg143
Nsg26
g29
sg144
(lp275
I2
aI5
asg146
Nsg147
VMishnah Kelim 2:5
p276
sg149
(lp277
sg151
g101
sg152
Nsg153
(lp278
I2
aI5
asg155
Nsg156
g276
sg157
(lp279
sg159
g62
sg160
Nsg161
Nsg162
Nsbag2
(g3
g4
Ntp280
Rp281
(dp282
g8
g11
sg140
Nsg141
(dp283
sg143
Nsg26
g29
sg144
(lp284
I2
aI6
asg146
Nsg147
VMishnah Kelim 2:6
p285
sg149
(lp286
sg151
g101
sg152
Nsg153
(lp287
I2
aI6
asg155
Nsg156
g285
sg157
(lp288
sg159
g62
sg160
Nsg161
Nsg162
Nsbag2
(g3
g4
Ntp289
Rp290
(dp291
g8
g11
sg140
Nsg141
(dp292
sg143
Nsg26
g29
sg144
(lp293
I2
aI7
asg146
Nsg147
VMishnah Kelim 2:7
p294
sg149
(lp295
sg151
g101
sg152
Nsg153
(lp296
I2
aI7
asg155
Nsg156
g294
sg157
(lp297
sg159
g62
sg160
Nsg161
Nsg162
Nsbag2
(g3
g4
Ntp298
Rp299
(dp300
g8
g11
sg140
Nsg141
(dp301
sg143
Nsg26
g29
sg144
(lp302
I2
aI8
asg146
Nsg147
VMishnah Kelim 2:8
p303
sg149
(lp304
sg151
g101
sg152
Nsg153
(lp305
I2
aI8
asg155
Nsg156
g303
sg157
(lp306
sg159
g62
sg160
Nsg161
Nsg162
Nsbag2
(g3
g4
Ntp307
Rp308
(dp309
g8
g11
sg140
Nsg141
(dp310
sg143
Nsg26
g29
sg144
(lp311
I3
aI1
asg146
Nsg147
VMishnah Kelim 3:1
p312
sg149
(lp313
sg151
g101
sg152
Nsg153
(lp314
I3
aI1
asg155
Nsg156
g312
sg157
(lp315
sg159
g62
sg160
Nsg161
Nsg162
Nsbag2
(g3
g4
Ntp316
Rp317
(dp318
g8
g11
sg140
Nsg141
(dp319
sg143
Nsg26
g29
sg144
(lp320
I3
aI2
asg146
Nsg147
VMishnah Kelim 3:2
p321
sg149
(lp322
sg151
g101
sg152
Nsg153
(lp323
I3
aI2
asg155
Nsg156
g321
sg157
(lp324
sg159
g62
sg160
Nsg161
Nsg162
Nsbag2
(g3
g4
Ntp325
Rp326
(dp327
g8
g11
sg140
Nsg141
(dp328
sg143
Nsg26
g29
sg144
(lp329
I3
aI3
asg146
Nsg147
VMishnah Kelim 3:3
p330
sg149
(lp331
sg151
g101
sg152
Nsg153
(lp332
I3
aI3
asg155
Nsg156
g330
sg157
(lp333
sg159
g62
sg160
Nsg161
Nsg162
Nsbag2
(g3
g4
Ntp334
Rp335
(dp336
g8
g11
sg140
Nsg141
(dp337
sg143
Nsg26
g29
sg144
(lp338
I3
aI4
asg146
Nsg147
VMishnah Kelim 3:4
p339
sg149
(lp340
sg151
g101
sg152
Nsg153
(lp341
I3
aI4
asg155
Nsg156
g339
sg157
(lp342
sg159
g62
sg160
Nsg161
Nsg162
Nsbag2
(g3
g4
Ntp343
Rp344
(dp345
g8
g11
sg140
Nsg141
(dp346
sg143
Nsg26
g29
sg144
(lp347
I3
aI5
asg146
Nsg147
VMishnah Kelim 3:5
p348
sg149
(lp349
sg151
g101
sg152
Nsg153
(lp350
I3
aI5
asg155
Nsg156
g348
sg157
(lp351
sg159
g62
sg160
Nsg161
Nsg162
Nsbag2
(g3
g4
Ntp352
Rp353
(dp354
g8
g11
sg140
Nsg141
(dp355
sg143
Nsg26
g29
sg144
(lp356
I3
aI6
asg146
Nsg147
VMishnah Kelim 3:6
p357
sg149
(lp358
sg151
g101
sg152
Nsg153
(lp359
I3
aI6
asg155
Nsg156
g357
sg157
(lp360
sg159
g62
sg160
Nsg161
Nsg162
Nsbag2
(g3
g4
Ntp361
Rp362
(dp363
g8
g11
sg140
Nsg141
(dp364
sg143
Nsg26
g29
sg144
(lp365
I3
aI7
asg146
Nsg147
VMishnah Kelim 3:7
p366
sg149
(lp367
sg151
g101
sg152
Nsg153
(lp368
I3
aI7
asg155
Nsg156
g366
sg157
(lp369
sg159
g62
sg160
Nsg161
Nsg162
Nsbag2
(g3
g4
Ntp370
Rp371
(dp372
g8
g11
sg140
Nsg141
(dp373
sg143
Nsg26
g29
sg144
(lp374
I3
aI8
asg146
Nsg147
VMishnah Kelim 3:8
p375
sg149
(lp376
sg151
g101
sg152
Nsg153
(lp377
I3
aI8
asg155
Nsg156
g375
sg157
(lp378
sg159
g62
sg160
Nsg161
Nsg162
Nsbag2
(g3
g4
Ntp379
Rp380
(dp381
g8
g11
sg140
Nsg141
(dp382
sg143
Nsg26
g29
sg144
(lp383
I4
aI1
asg146
Nsg147
VMishnah Kelim 4:1
p384
sg149
(lp385
sg151
g101
sg152
Nsg153
(lp386
I4
aI1
asg155
Nsg156
g384
sg157
(lp387
sg159
g62
sg160
Nsg161
Nsg162
Nsbag2
(g3
g4
Ntp388
Rp389
(dp390
g8
g11
sg140
Nsg141
(dp391
sg143
Nsg26
g29
sg144
(lp392
I4
aI2
asg146
Nsg147
VMishnah Kelim 4:2
p393
sg149
(lp394
sg151
g101
sg152
Nsg153
(lp395
I4
aI2
asg155
Nsg156
g393
sg157
(lp396
sg159
g62
sg160
Nsg161
Nsg162
Nsbag2
(g3
g4
Ntp397
Rp398
(dp399
g8
g11
sg140
Nsg141
(dp400
sg143
Nsg26
g29
sg144
(lp401
I4
aI3
asg146
Nsg147
VMishnah Kelim 4:3
p402
sg149
(lp403
sg151
g101
sg152
Nsg153
(lp404
I4
aI3
asg155
Nsg156
g402
sg157
(lp405
sg159
g62
sg160
Nsg161
Nsg162
Nsbag2
(g3
g4
Ntp406
Rp407
(dp408
g8
g11
sg140
Nsg141
(dp409
sg143
Nsg26
g29
sg144
(lp410
I4
aI4
asg146
Nsg147
VMishnah Kelim 4:4
p411
sg149
(lp412
sg151
g101
sg152
Nsg153
(lp413
I4
aI4
asg155
Nsg156
g411
sg157
(lp414
sg159
g62
sg160
Nsg161
Nsg162
Nsbag2
(g3
g4
Ntp415
Rp416
(dp417
g8
g11
sg140
Nsg141
(dp418
sg143
Nsg26
g29
sg144
(lp419
I5
aI1
asg146
Nsg147
VMishnah Kelim 5:1
p420
sg149
(lp421
sg151
g101
sg152
Nsg153
(lp422
I5
aI1
asg155
Nsg156
g420
sg157
(lp423
sg159
g62
sg160
Nsg161
Nsg162
Nsbag2
(g3
g4
Ntp424
Rp425
(dp426
g8
g11
sg140
Nsg141
(dp427
sg143
Nsg26
g29
sg144
(lp428
I5
aI2
asg146
Nsg147
VMishnah Kelim 5:2
p429
sg149
(lp430
sg151
g101
sg152
Nsg153
(lp431
I5
aI2
asg155
Nsg156
g429
sg157
(lp432
sg159
g62
sg160
Nsg161
Nsg162
Nsbag2
(g3
g4
Ntp433
Rp434
(dp435
g8
g11
sg140
Nsg141
(dp436
sg143
Nsg26
g29
sg144
(lp437
I5
aI3
asg146
Nsg147
VMishnah Kelim 5:3
p438
sg149
(lp439
sg151
g101
sg152
Nsg153
(lp440
I5
aI3
asg155
Nsg156
g438
sg157
(lp441
sg159
g62
sg160
Nsg161
Nsg162
Nsbag2
(g3
g4
Ntp442
Rp443
(dp444
g8
g11
sg140
Nsg141
(dp445
sg143
Nsg26
g29
sg144
(lp446
I5
aI4
asg146
Nsg147
VMishnah Kelim 5:4
p447
sg149
(lp448
sg151
g101
sg152
Nsg153
(lp449
I5
aI4
asg155
Nsg156
g447
sg157
(lp450
sg159
g62
sg160
Nsg161
Nsg162
Nsbag2
(g3
g4
Ntp451
Rp452
(dp453
g8
g11
sg140
Nsg141
(dp454
sg143
Nsg26
g29
sg144
(lp455
I5
aI5
asg146
Nsg147
VMishnah Kelim 5:5
p456
sg149
(lp457
sg151
g101
sg152
Nsg153
(lp458
I5
aI5
asg155
Nsg156
g456
sg157
(lp459
sg159
g62
sg160
Nsg161
Nsg162
Nsbag2
(g3
g4
Ntp460
Rp461
(dp462
g8
g11
sg140
Nsg141
(dp463
sg143
Nsg26
g29
sg144
(lp464
I5
aI6
asg146
Nsg147
VMishnah Kelim 5:6
p465
sg149
(lp466
sg151
g101
sg152
Nsg153
(lp467
I5
aI6
asg155
Nsg156
g465
sg157
(lp468
sg159
g62
sg160
Nsg161
Nsg162
Nsbag2
(g3
g4
Ntp469
Rp470
(dp471
g8
g11
sg140
Nsg141
(dp472
sg143
Nsg26
g29
sg144
(lp473
I5
aI7
asg146
Nsg147
VMishnah Kelim 5:7
p474
sg149
(lp475
sg151
g101
sg152
Nsg153
(lp476
I5
aI7
asg155
Nsg156
g474
sg157
(lp477
sg159
g62
sg160
Nsg161
Nsg162
Nsbag2
(g3
g4
Ntp478
Rp479
(dp480
g8
g11
sg140
Nsg141
(dp481
sg143
Nsg26
g29
sg144
(lp482
I5
aI8
asg146
Nsg147
VMishnah Kelim 5:8
p483
sg149
(lp484
sg151
g101
sg152
Nsg153
(lp485
I5
aI8
asg155
Nsg156
g483
sg157
(lp486
sg159
g62
sg160
Nsg161
Nsg162
Nsbag2
(g3
g4
Ntp487
Rp488
(dp489
g8
g11
sg140
Nsg141
(dp490
sg143
Nsg26
g29
sg144
(lp491
I5
aI9
asg146
Nsg147
VMishnah Kelim 5:9
p492
sg149
(lp493
sg151
g101
sg152
Nsg153
(lp494
I5
aI9
asg155
Nsg156
g492
sg157
(lp495
sg159
g62
sg160
Nsg161
Nsg162
Nsbag2
(g3
g4
Ntp496
Rp497
(dp498
g8
g11
sg140
Nsg141
(dp499
sg143
Nsg26
g29
sg144
(lp500
I5
aI10
asg146
Nsg147
VMishnah Kelim 5:10
p501
sg149
(lp502
sg151
g101
sg152
Nsg153
(lp503
I5
aI10
asg155
Nsg156
g501
sg157
(lp504
sg159
g62
sg160
Nsg161
Nsg162
Nsbag2
(g3
g4
Ntp505
Rp506
(dp507
g8
g11
sg140
Nsg141
(dp508
sg143
Nsg26
g29
sg144
(lp509
I5
aI11
asg146
Nsg147
VMishnah Kelim 5:11
p510
sg149
(lp511
sg151
g101
sg152
Nsg153
(lp512
I5
aI11
asg155
Nsg156
g510
sg157
(lp513
sg159
g62
sg160
Nsg161
Nsg162
Nsbag2
(g3
g4
Ntp514
Rp515
(dp516
g8
g11
sg140
Nsg141
(dp517
sg143
Nsg26
g29
sg144
(lp518
I6
aI1
asg146
Nsg147
VMishnah Kelim 6:1
p519
sg149
(lp520
sg151
g101
sg152
Nsg153
(lp521
I6
aI1
asg155
Nsg156
g519
sg157
(lp522
sg159
g62
sg160
Nsg161
Nsg162
Nsbag2
(g3
g4
Ntp523
Rp524
(dp525
g8
g11
sg140
Nsg141
(dp526
sg143
Nsg26
g29
sg144
(lp527
I6
aI2
asg146
Nsg147
VMishnah Kelim 6:2
p528
sg149
(lp529
sg151
g101
sg152
Nsg153
(lp530
I6
aI2
asg155
Nsg156
g528
sg157
(lp531
sg159
g62
sg160
Nsg161
Nsg162
Nsbag2
(g3
g4
Ntp532
Rp533
(dp534
g8
g11
sg140
Nsg141
(dp535
sg143
Nsg26
g29
sg144
(lp536
I6
aI3
asg146
Nsg147
VMishnah Kelim 6:3
p537
sg149
(lp538
sg151
g101
sg152
Nsg153
(lp539
I6
aI3
asg155
Nsg156
g537
sg157
(lp540
sg159
g62
sg160
Nsg161
Nsg162
Nsbag2
(g3
g4
Ntp541
Rp542
(dp543
g8
g11
sg140
Nsg141
(dp544
sg143
Nsg26
g29
sg144
(lp545
I6
aI4
asg146
Nsg147
VMishnah Kelim 6:4
p546
sg149
(lp547
sg151
g101
sg152
Nsg153
(lp548
I6
aI4
asg155
Nsg156
g546
sg157
(lp549
sg159
g62
sg160
Nsg161
Nsg162
Nsbag2
(g3
g4
Ntp550
Rp551
(dp552
g8
g11
sg140
Nsg141
(dp553
sg143
Nsg26
g29
sg144
(lp554
I7
aI1
asg146
Nsg147
VMishnah Kelim 7:1
p555
sg149
(lp556
sg151
g101
sg152
Nsg153
(lp557
I7
aI1
asg155
Nsg156
g555
sg157
(lp558
sg159
g62
sg160
Nsg161
Nsg162
Nsbag2
(g3
g4
Ntp559
Rp560
(dp561
g8
g11
sg140
Nsg141
(dp562
sg143
Nsg26
g29
sg144
(lp563
I7
aI2
asg146
Nsg147
VMishnah Kelim 7:2
p564
sg149
(lp565
sg151
g101
sg152
Nsg153
(lp566
I7
aI2
asg155
Nsg156
g564
sg157
(lp567
sg159
g62
sg160
Nsg161
Nsg162
Nsbag2
(g3
g4
Ntp568
Rp569
(dp570
g8
g11
sg140
Nsg141
(dp571
sg143
Nsg26
g29
sg144
(lp572
I7
aI3
asg146
Nsg147
VMishnah Kelim 7:3
p573
sg149
(lp574
sg151
g101
sg152
Nsg153
(lp575
I7
aI3
asg155
Nsg156
g573
sg157
(lp576
sg159
g62
sg160
Nsg161
Nsg162
Nsbag2
(g3
g4
Ntp577
Rp578
(dp579
g8
g11
sg140
Nsg141
(dp580
sg143
Nsg26
g29
sg144
(lp581
I7
aI4
asg146
Nsg147
VMishnah Kelim 7:4
p582
sg149
(lp583
sg151
g101
sg152
Nsg153
(lp584
I7
aI4
asg155
Nsg156
g582
sg157
(lp585
sg159
g62
sg160
Nsg161
Nsg162
Nsbag2
(g3
g4
Ntp586
Rp587
(dp588
g8
g11
sg140
Nsg141
(dp589
sg143
Nsg26
g29
sg144
(lp590
I7
aI5
asg146
Nsg147
VMishnah Kelim 7:5
p591
sg149
(lp592
sg151
g101
sg152
Nsg153
(lp593
I7
aI5
asg155
Nsg156
g591
sg157
(lp594
sg159
g62
sg160
Nsg161
Nsg162
Nsbag2
(g3
g4
Ntp595
Rp596
(dp597
g8
g11
sg140
Nsg141
(dp598
sg143
Nsg26
g29
sg144
(lp599
I7
aI6
asg146
Nsg147
VMishnah Kelim 7:6
p600
sg149
(lp601
sg151
g101
sg152
Nsg153
(lp602
I7
aI6
asg155
Nsg156
g600
sg157
(lp603
sg159
g62
sg160
Nsg161
Nsg162
Nsbag2
(g3
g4
Ntp604
Rp605
(dp606
g8
g11
sg140
Nsg141
(dp607
sg143
Nsg26
g29
sg144
(lp608
I8
aI1
asg146
Nsg147
VMishnah Kelim 8:1
p609
sg149
(lp610
sg151
g101
sg152
Nsg153
(lp611
I8
aI1
asg155
Nsg156
g609
sg157
(lp612
sg159
g62
sg160
Nsg161
Nsg162
Nsbag2
(g3
g4
Ntp613
Rp614
(dp615
g8
g11
sg140
Nsg141
(dp616
sg143
Nsg26
g29
sg144
(lp617
I8
aI2
asg146
Nsg147
VMishnah Kelim 8:2
p618
sg149
(lp619
sg151
g101
sg152
Nsg153
(lp620
I8
aI2
asg155
Nsg156
g618
sg157
(lp621
sg159
g62
sg160
Nsg161
Nsg162
Nsbag2
(g3
g4
Ntp622
Rp623
(dp624
g8
g11
sg140
Nsg141
(dp625
sg143
Nsg26
g29
sg144
(lp626
I8
aI3
asg146
Nsg147
VMishnah Kelim 8:3
p627
sg149
(lp628
sg151
g101
sg152
Nsg153
(lp629
I8
aI3
asg155
Nsg156
g627
sg157
(lp630
sg159
g62
sg160
Nsg161
Nsg162
Nsbag2
(g3
g4
Ntp631
Rp632
(dp633
g8
g11
sg140
Nsg141
(dp634
sg143
Nsg26
g29
sg144
(lp635
I8
aI4
asg146
Nsg147
VMishnah Kelim 8:4
p636
sg149
(lp637
sg151
g101
sg152
Nsg153
(lp638
I8
aI4
asg155
Nsg156
g636
sg157
(lp639
sg159
g62
sg160
Nsg161
Nsg162
Nsbag2
(g3
g4
Ntp640
Rp641
(dp642
g8
g11
sg140
Nsg141
(dp643
sg143
Nsg26
g29
sg144
(lp644
I8
aI5
asg146
Nsg147
VMishnah Kelim 8:5
p645
sg149
(lp646
sg151
g101
sg152
Nsg153
(lp647
I8
aI5
asg155
Nsg156
g645
sg157
(lp648
sg159
g62
sg160
Nsg161
Nsg162
Nsbag2
(g3
g4
Ntp649
Rp650
(dp651
g8
g11
sg140
Nsg141
(dp652
sg143
Nsg26
g29
sg144
(lp653
I8
aI6
asg146
Nsg147
VMishnah Kelim 8:6
p654
sg149
(lp655
sg151
g101
sg152
Nsg153
(lp656
I8
aI6
asg155
Nsg156
g654
sg157
(lp657
sg159
g62
sg160
Nsg161
Nsg162
Nsbag2
(g3
g4
Ntp658
Rp659
(dp660
g8
g11
sg140
Nsg141
(dp661
sg143
Nsg26
g29
sg144
(lp662
I8
aI7
asg146
Nsg147
VMishnah Kelim 8:7
p663
sg149
(lp664
sg151
g101
sg152
Nsg153
(lp665
I8
aI7
asg155
Nsg156
g663
sg157
(lp666
sg159
g62
sg160
Nsg161
Nsg162
Nsbag2
(g3
g4
Ntp667
Rp668
(dp669
g8
g11
sg140
Nsg141
(dp670
sg143
Nsg26
g29
sg144
(lp671
I8
aI8
asg146
Nsg147
VMishnah Kelim 8:8
p672
sg149
(lp673
sg151
g101
sg152
Nsg153
(lp674
I8
aI8
asg155
Nsg156
g672
sg157
(lp675
sg159
g62
sg160
Nsg161
Nsg162
Nsbag2
(g3
g4
Ntp676
Rp677
(dp678
g8
g11
sg140
Nsg141
(dp679
sg143
Nsg26
g29
sg144
(lp680
I8
aI9
asg146
Nsg147
VMishnah Kelim 8:9
p681
sg149
(lp682
sg151
g101
sg152
Nsg153
(lp683
I8
aI9
asg155
Nsg156
g681
sg157
(lp684
sg159
g62
sg160
Nsg161
Nsg162
Nsbag2
(g3
g4
Ntp685
Rp686
(dp687
g8
g11
sg140
Nsg141
(dp688
sg143
Nsg26
g29
sg144
(lp689
I8
aI10
asg146
Nsg147
VMishnah Kelim 8:10
p690
sg149
(lp691
sg151
g101
sg152
Nsg153
(lp692
I8
aI10
asg155
Nsg156
g690
sg157
(lp693
sg159
g62
sg160
Nsg161
Nsg162
Nsbag2
(g3
g4
Ntp694
Rp695
(dp696
g8
g11
sg140
Nsg141
(dp697
sg143
Nsg26
g29
sg144
(lp698
I8
aI11
asg146
Nsg147
VMishnah Kelim 8:11
p699
sg149
(lp700
sg151
g101
sg152
Nsg153
(lp701
I8
aI11
asg155
Nsg156
g699
sg157
(lp702
sg159
g62
sg160
Nsg161
Nsg162
Nsbag2
(g3
g4
Ntp703
Rp704
(dp705
g8
g11
sg140
Nsg141
(dp706
sg143
Nsg26
g29
sg144
(lp707
I9
aI1
asg146
Nsg147
VMishnah Kelim 9:1
p708
sg149
(lp709
sg151
g101
sg152
Nsg153
(lp710
I9
aI1
asg155
Nsg156
g708
sg157
(lp711
sg159
g62
sg160
Nsg161
Nsg162
Nsbag2
(g3
g4
Ntp712
Rp713
(dp714
g8
g11
sg140
Nsg141
(dp715
sg143
Nsg26
g29
sg144
(lp716
I9
aI2
asg146
Nsg147
VMishnah Kelim 9:2
p717
sg149
(lp718
sg151
g101
sg152
Nsg153
(lp719
I9
aI2
asg155
Nsg156
g717
sg157
(lp720
sg159
g62
sg160
Nsg161
Nsg162
Nsbag2
(g3
g4
Ntp721
Rp722
(dp723
g8
g11
sg140
Nsg141
(dp724
sg143
Nsg26
g29
sg144
(lp725
I9
aI3
asg146
Nsg147
VMishnah Kelim 9:3
p726
sg149
(lp727
sg151
g101
sg152
Nsg153
(lp728
I9
aI3
asg155
Nsg156
g726
sg157
(lp729
sg159
g62
sg160
Nsg161
Nsg162
Nsbag2
(g3
g4
Ntp730
Rp731
(dp732
g8
g11
sg140
Nsg141
(dp733
sg143
Nsg26
g29
sg144
(lp734
I9
aI4
asg146
Nsg147
VMishnah Kelim 9:4
p735
sg149
(lp736
sg151
g101
sg152
Nsg153
(lp737
I9
aI4
asg155
Nsg156
g735
sg157
(lp738
sg159
g62
sg160
Nsg161
Nsg162
Nsbag2
(g3
g4
Ntp739
Rp740
(dp741
g8
g11
sg140
Nsg141
(dp742
sg143
Nsg26
g29
sg144
(lp743
I9
aI5
asg146
Nsg147
VMishnah Kelim 9:5
p744
sg149
(lp745
sg151
g101
sg152
Nsg153
(lp746
I9
aI5
asg155
Nsg156
g744
sg157
(lp747
sg159
g62
sg160
Nsg161
Nsg162
Nsbag2
(g3
g4
Ntp748
Rp749
(dp750
g8
g11
sg140
Nsg141
(dp751
sg143
Nsg26
g29
sg144
(lp752
I9
aI6
asg146
Nsg147
VMishnah Kelim 9:6
p753
sg149
(lp754
sg151
g101
sg152
Nsg153
(lp755
I9
aI6
asg155
Nsg156
g753
sg157
(lp756
sg159
g62
sg160
Nsg161
Nsg162
Nsbag2
(g3
g4
Ntp757
Rp758
(dp759
g8
g11
sg140
Nsg141
(dp760
sg143
Nsg26
g29
sg144
(lp761
I9
aI7
asg146
Nsg147
VMishnah Kelim 9:7
p762
sg149
(lp763
sg151
g101
sg152
Nsg153
(lp764
I9
aI7
asg155
Nsg156
g762
sg157
(lp765
sg159
g62
sg160
Nsg161
Nsg162
Nsbag2
(g3
g4
Ntp766
Rp767
(dp768
g8
g11
sg140
Nsg141
(dp769
sg143
Nsg26
g29
sg144
(lp770
I9
aI8
asg146
Nsg147
VMishnah Kelim 9:8
p771
sg149
(lp772
sg151
g101
sg152
Nsg153
(lp773
I9
aI8
asg155
Nsg156
g771
sg157
(lp774
sg159
g62
sg160
Nsg161
Nsg162
Nsbag2
(g3
g4
Ntp775
Rp776
(dp777
g8
g11
sg140
Nsg141
(dp778
sg143
Nsg26
g29
sg144
(lp779
I10
aI1
asg146
Nsg147
VMishnah Kelim 10:1
p780
sg149
(lp781
sg151
g101
sg152
Nsg153
(lp782
I10
aI1
asg155
Nsg156
g780
sg157
(lp783
sg159
g62
sg160
Nsg161
Nsg162
Nsbag2
(g3
g4
Ntp784
Rp785
(dp786
g8
g11
sg140
Nsg141
(dp787
sg143
Nsg26
g29
sg144
(lp788
I10
aI2
asg146
Nsg147
VMishnah Kelim 10:2
p789
sg149
(lp790
sg151
g101
sg152
Nsg153
(lp791
I10
aI2
asg155
Nsg156
g789
sg157
(lp792
sg159
g62
sg160
Nsg161
Nsg162
Nsbag2
(g3
g4
Ntp793
Rp794
(dp795
g8
g11
sg140
Nsg141
(dp796
sg143
Nsg26
g29
sg144
(lp797
I10
aI3
asg146
Nsg147
VMishnah Kelim 10:3
p798
sg149
(lp799
sg151
g101
sg152
Nsg153
(lp800
I10
aI3
asg155
Nsg156
g798
sg157
(lp801
sg159
g62
sg160
Nsg161
Nsg162
Nsbag2
(g3
g4
Ntp802
Rp803
(dp804
g8
g11
sg140
Nsg141
(dp805
sg143
Nsg26
g29
sg144
(lp806
I10
aI4
asg146
Nsg147
VMishnah Kelim 10:4
p807
sg149
(lp808
sg151
g101
sg152
Nsg153
(lp809
I10
aI4
asg155
Nsg156
g807
sg157
(lp810
sg159
g62
sg160
Nsg161
Nsg162
Nsbag2
(g3
g4
Ntp811
Rp812
(dp813
g8
g11
sg140
Nsg141
(dp814
sg143
Nsg26
g29
sg144
(lp815
I10
aI5
asg146
Nsg147
VMishnah Kelim 10:5
p816
sg149
(lp817
sg151
g101
sg152
Nsg153
(lp818
I10
aI5
asg155
Nsg156
g816
sg157
(lp819
sg159
g62
sg160
Nsg161
Nsg162
Nsbag2
(g3
g4
Ntp820
Rp821
(dp822
g8
g11
sg140
Nsg141
(dp823
sg143
Nsg26
g29
sg144
(lp824
I10
aI6
asg146
Nsg147
VMishnah Kelim 10:6
p825
sg149
(lp826
sg151
g101
sg152
Nsg153
(lp827
I10
aI6
asg155
Nsg156
g825
sg157
(lp828
sg159
g62
sg160
Nsg161
Nsg162
Nsbag2
(g3
g4
Ntp829
Rp830
(dp831
g8
g11
sg140
Nsg141
(dp832
sg143
Nsg26
g29
sg144
(lp833
I10
aI7
asg146
Nsg147
VMishnah Kelim 10:7
p834
sg149
(lp835
sg151
g101
sg152
Nsg153
(lp836
I10
aI7
asg155
Nsg156
g834
sg157
(lp837
sg159
g62
sg160
Nsg161
Nsg162
Nsbag2
(g3
g4
Ntp838
Rp839
(dp840
g8
g11
sg140
Nsg141
(dp841
sg143
Nsg26
g29
sg144
(lp842
I10
aI8
asg146
Nsg147
VMishnah Kelim 10:8
p843
sg149
(lp844
sg151
g101
sg152
Nsg153
(lp845
I10
aI8
asg155
Nsg156
g843
sg157
(lp846
sg159
g62
sg160
Nsg161
Nsg162
Nsbag2
(g3
g4
Ntp847
Rp848
(dp849
g8
g11
sg140
Nsg141
(dp850
sg143
Nsg26
g29
sg144
(lp851
I11
aI1
asg146
Nsg147
VMishnah Kelim 11:1
p852
sg149
(lp853
sg151
g101
sg152
Nsg153
(lp854
I11
aI1
asg155
Nsg156
g852
sg157
(lp855
sg159
g62
sg160
Nsg161
Nsg162
Nsbag2
(g3
g4
Ntp856
Rp857
(dp858
g8
g11
sg140
Nsg141
(dp859
sg143
Nsg26
g29
sg144
(lp860
I11
aI2
asg146
Nsg147
VMishnah Kelim 11:2
p861
sg149
(lp862
sg151
g101
sg152
Nsg153
(lp863
I11
aI2
asg155
Nsg156
g861
sg157
(lp864
sg159
g62
sg160
Nsg161
Nsg162
Nsbag2
(g3
g4
Ntp865
Rp866
(dp867
g8
g11
sg140
Nsg141
(dp868
sg143
Nsg26
g29
sg144
(lp869
I11
aI3
asg146
Nsg147
VMishnah Kelim 11:3
p870
sg149
(lp871
sg151
g101
sg152
Nsg153
(lp872
I11
aI3
asg155
Nsg156
g870
sg157
(lp873
sg159
g62
sg160
Nsg161
Nsg162
Nsbag2
(g3
g4
Ntp874
Rp875
(dp876
g8
g11
sg140
Nsg141
(dp877
sg143
Nsg26
g29
sg144
(lp878
I11
aI4
asg146
Nsg147
VMishnah Kelim 11:4
p879
sg149
(lp880
sg151
g101
sg152
Nsg153
(lp881
I11
aI4
asg155
Nsg156
g879
sg157
(lp882
sg159
g62
sg160
Nsg161
Nsg162
Nsbag2
(g3
g4
Ntp883
Rp884
(dp885
g8
g11
sg140
Nsg141
(dp886
sg143
Nsg26
g29
sg144
(lp887
I11
aI5
asg146
Nsg147
VMishnah Kelim 11:5
p888
sg149
(lp889
sg151
g101
sg152
Nsg153
(lp890
I11
aI5
asg155
Nsg156
g888
sg157
(lp891
sg159
g62
sg160
Nsg161
Nsg162
Nsbag2
(g3
g4
Ntp892
Rp893
(dp894
g8
g11
sg140
Nsg141
(dp895
sg143
Nsg26
g29
sg144
(lp896
I11
aI6
asg146
Nsg147
VMishnah Kelim 11:6
p897
sg149
(lp898
sg151
g101
sg152
Nsg153
(lp899
I11
aI6
asg155
Nsg156
g897
sg157
(lp900
sg159
g62
sg160
Nsg161
Nsg162
Nsbag2
(g3
g4
Ntp901
Rp902
(dp903
g8
g11
sg140
Nsg141
(dp904
sg143
Nsg26
g29
sg144
(lp905
I11
aI7
asg146
Nsg147
VMishnah Kelim 11:7
p906
sg149
(lp907
sg151
g101
sg152
Nsg153
(lp908
I11
aI7
asg155
Nsg156
g906
sg157
(lp909
sg159
g62
sg160
Nsg161
Nsg162
Nsbag2
(g3
g4
Ntp910
Rp911
(dp912
g8
g11
sg140
Nsg141
(dp913
sg143
Nsg26
g29
sg144
(lp914
I11
aI8
asg146
Nsg147
VMishnah Kelim 11:8
p915
sg149
(lp916
sg151
g101
sg152
Nsg153
(lp917
I11
aI8
asg155
Nsg156
g915
sg157
(lp918
sg159
g62
sg160
Nsg161
Nsg162
Nsbag2
(g3
g4
Ntp919
Rp920
(dp921
g8
g11
sg140
Nsg141
(dp922
sg143
Nsg26
g29
sg144
(lp923
I11
aI9
asg146
Nsg147
VMishnah Kelim 11:9
p924
sg149
(lp925
sg151
g101
sg152
Nsg153
(lp926
I11
aI9
asg155
Nsg156
g924
sg157
(lp927
sg159
g62
sg160
Nsg161
Nsg162
Nsbag2
(g3
g4
Ntp928
Rp929
(dp930
g8
g11
sg140
Nsg141
(dp931
sg143
Nsg26
g29
sg144
(lp932
I12
aI1
asg146
Nsg147
VMishnah Kelim 12:1
p933
sg149
(lp934
sg151
g101
sg152
Nsg153
(lp935
I12
aI1
asg155
Nsg156
g933
sg157
(lp936
sg159
g62
sg160
Nsg161
Nsg162
Nsbag2
(g3
g4
Ntp937
Rp938
(dp939
g8
g11
sg140
Nsg141
(dp940
sg143
Nsg26
g29
sg144
(lp941
I12
aI2
asg146
Nsg147
VMishnah Kelim 12:2
p942
sg149
(lp943
sg151
g101
sg152
Nsg153
(lp944
I12
aI2
asg155
Nsg156
g942
sg157
(lp945
sg159
g62
sg160
Nsg161
Nsg162
Nsbag2
(g3
g4
Ntp946
Rp947
(dp948
g8
g11
sg140
Nsg141
(dp949
sg143
Nsg26
g29
sg144
(lp950
I12
aI3
asg146
Nsg147
VMishnah Kelim 12:3
p951
sg149
(lp952
sg151
g101
sg152
Nsg153
(lp953
I12
aI3
asg155
Nsg156
g951
sg157
(lp954
sg159
g62
sg160
Nsg161
Nsg162
Nsbag2
(g3
g4
Ntp955
Rp956
(dp957
g8
g11
sg140
Nsg141
(dp958
sg143
Nsg26
g29
sg144
(lp959
I12
aI4
asg146
Nsg147
VMishnah Kelim 12:4
p960
sg149
(lp961
sg151
g101
sg152
Nsg153
(lp962
I12
aI4
asg155
Nsg156
g960
sg157
(lp963
sg159
g62
sg160
Nsg161
Nsg162
Nsbag2
(g3
g4
Ntp964
Rp965
(dp966
g8
g11
sg140
Nsg141
(dp967
sg143
Nsg26
g29
sg144
(lp968
I12
aI5
asg146
Nsg147
VMishnah Kelim 12:5
p969
sg149
(lp970
sg151
g101
sg152
Nsg153
(lp971
I12
aI5
asg155
Nsg156
g969
sg157
(lp972
sg159
g62
sg160
Nsg161
Nsg162
Nsbag2
(g3
g4
Ntp973
Rp974
(dp975
g8
g11
sg140
Nsg141
(dp976
sg143
Nsg26
g29
sg144
(lp977
I12
aI6
asg146
Nsg147
VMishnah Kelim 12:6
p978
sg149
(lp979
sg151
g101
sg152
Nsg153
(lp980
I12
aI6
asg155
Nsg156
g978
sg157
(lp981
sg159
g62
sg160
Nsg161
Nsg162
Nsbag2
(g3
g4
Ntp982
Rp983
(dp984
g8
g11
sg140
Nsg141
(dp985
sg143
Nsg26
g29
sg144
(lp986
I12
aI7
asg146
Nsg147
VMishnah Kelim 12:7
p987
sg149
(lp988
sg151
g101
sg152
Nsg153
(lp989
I12
aI7
asg155
Nsg156
g987
sg157
(lp990
sg159
g62
sg160
Nsg161
Nsg162
Nsbag2
(g3
g4
Ntp991
Rp992
(dp993
g8
g11
sg140
Nsg141
(dp994
sg143
Nsg26
g29
sg144
(lp995
I12
aI8
asg146
Nsg147
VMishnah Kelim 12:8
p996
sg149
(lp997
sg151
g101
sg152
Nsg153
(lp998
I12
aI8
asg155
Nsg156
g996
sg157
(lp999
sg159
g62
sg160
Nsg161
Nsg162
Nsbag2
(g3
g4
Ntp1000
Rp1001
(dp1002
g8
g11
sg140
Nsg141
(dp1003
sg143
Nsg26
g29
sg144
(lp1004
I13
aI1
asg146
Nsg147
VMishnah Kelim 13:1
p1005
sg149
(lp1006
sg151
g101
sg152
Nsg153
(lp1007
I13
aI1
asg155
Nsg156
g1005
sg157
(lp1008
sg159
g62
sg160
Nsg161
Nsg162
Nsbag2
(g3
g4
Ntp1009
Rp1010
(dp1011
g8
g11
sg140
Nsg141
(dp1012
sg143
Nsg26
g29
sg144
(lp1013
I13
aI2
asg146
Nsg147
VMishnah Kelim 13:2
p1014
sg149
(lp1015
sg151
g101
sg152
Nsg153
(lp1016
I13
aI2
asg155
Nsg156
g1014
sg157
(lp1017
sg159
g62
sg160
Nsg161
Nsg162
Nsbag2
(g3
g4
Ntp1018
Rp1019
(dp1020
g8
g11
sg140
Nsg141
(dp1021
sg143
Nsg26
g29
sg144
(lp1022
I13
aI3
asg146
Nsg147
VMishnah Kelim 13:3
p1023
sg149
(lp1024
sg151
g101
sg152
Nsg153
(lp1025
I13
aI3
asg155
Nsg156
g1023
sg157
(lp1026
sg159
g62
sg160
Nsg161
Nsg162
Nsbag2
(g3
g4
Ntp1027
Rp1028
(dp1029
g8
g11
sg140
Nsg141
(dp1030
sg143
Nsg26
g29
sg144
(lp1031
I13
aI4
asg146
Nsg147
VMishnah Kelim 13:4
p1032
sg149
(lp1033
sg151
g101
sg152
Nsg153
(lp1034
I13
aI4
asg155
Nsg156
g1032
sg157
(lp1035
sg159
g62
sg160
Nsg161
Nsg162
Nsbag2
(g3
g4
Ntp1036
Rp1037
(dp1038
g8
g11
sg140
Nsg141
(dp1039
sg143
Nsg26
g29
sg144
(lp1040
I13
aI5
asg146
Nsg147
VMishnah Kelim 13:5
p1041
sg149
(lp1042
sg151
g101
sg152
Nsg153
(lp1043
I13
aI5
asg155
Nsg156
g1041
sg157
(lp1044
sg159
g62
sg160
Nsg161
Nsg162
Nsbag2
(g3
g4
Ntp1045
Rp1046
(dp1047
g8
g11
sg140
Nsg141
(dp1048
sg143
Nsg26
g29
sg144
(lp1049
I13
aI6
asg146
Nsg147
VMishnah Kelim 13:6
p1050
sg149
(lp1051
sg151
g101
sg152
Nsg153
(lp1052
I13
aI6
asg155
Nsg156
g1050
sg157
(lp1053
sg159
g62
sg160
Nsg161
Nsg162
Nsbag2
(g3
g4
Ntp1054
Rp1055
(dp1056
g8
g11
sg140
Nsg141
(dp1057
sg143
Nsg26
g29
sg144
(lp1058
I13
aI7
asg146
Nsg147
VMishnah Kelim 13:7
p1059
sg149
(lp1060
sg151
g101
sg152
Nsg153
(lp1061
I13
aI7
asg155
Nsg156
g1059
sg157
(lp1062
sg159
g62
sg160
Nsg161
Nsg162
Nsbag2
(g3
g4
Ntp1063
Rp1064
(dp1065
g8
g11
sg140
Nsg141
(dp1066
sg143
Nsg26
g29
sg144
(lp1067
I13
aI8
asg146
Nsg147
VMishnah Kelim 13:8
p1068
sg149
(lp1069
sg151
g101
sg152
Nsg153
(lp1070
I13
aI8
asg155
Nsg156
g1068
sg157
(lp1071
sg159
g62
sg160
Nsg161
Nsg162
Nsbag2
(g3
g4
Ntp1072
Rp1073
(dp1074
g8
g11
sg140
Nsg141
(dp1075
sg143
Nsg26
g29
sg144
(lp1076
I14
aI1
asg146
Nsg147
VMishnah Kelim 14:1
p1077
sg149
(lp1078
sg151
g101
sg152
Nsg153
(lp1079
I14
aI1
asg155
Nsg156
g1077
sg157
(lp1080
sg159
g62
sg160
Nsg161
Nsg162
Nsbag2
(g3
g4
Ntp1081
Rp1082
(dp1083
g8
g11
sg140
Nsg141
(dp1084
sg143
Nsg26
g29
sg144
(lp1085
I14
aI2
asg146
Nsg147
VMishnah Kelim 14:2
p1086
sg149
(lp1087
sg151
g101
sg152
Nsg153
(lp1088
I14
aI2
asg155
Nsg156
g1086
sg157
(lp1089
sg159
g62
sg160
Nsg161
Nsg162
Nsbag2
(g3
g4
Ntp1090
Rp1091
(dp1092
g8
g11
sg140
Nsg141
(dp1093
sg143
Nsg26
g29
sg144
(lp1094
I14
aI3
asg146
Nsg147
VMishnah Kelim 14:3
p1095
sg149
(lp1096
sg151
g101
sg152
Nsg153
(lp1097
I14
aI3
asg155
Nsg156
g1095
sg157
(lp1098
sg159
g62
sg160
Nsg161
Nsg162
Nsbag2
(g3
g4
Ntp1099
Rp1100
(dp1101
g8
g11
sg140
Nsg141
(dp1102
sg143
Nsg26
g29
sg144
(lp1103
I14
aI4
asg146
Nsg147
VMishnah Kelim 14:4
p1104
sg149
(lp1105
sg151
g101
sg152
Nsg153
(lp1106
I14
aI4
asg155
Nsg156
g1104
sg157
(lp1107
sg159
g62
sg160
Nsg161
Nsg162
Nsbag2
(g3
g4
Ntp1108
Rp1109
(dp1110
g8
g11
sg140
Nsg141
(dp1111
sg143
Nsg26
g29
sg144
(lp1112
I14
aI5
asg146
Nsg147
VMishnah Kelim 14:5
p1113
sg149
(lp1114
sg151
g101
sg152
Nsg153
(lp1115
I14
aI5
asg155
Nsg156
g1113
sg157
(lp1116
sg159
g62
sg160
Nsg161
Nsg162
Nsbag2
(g3
g4
Ntp1117
Rp1118
(dp1119
g8
g11
sg140
Nsg141
(dp1120
sg143
Nsg26
g29
sg144
(lp1121
I14
aI6
asg146
Nsg147
VMishnah Kelim 14:6
p1122
sg149
(lp1123
sg151
g101
sg152
Nsg153
(lp1124
I14
aI6
asg155
Nsg156
g1122
sg157
(lp1125
sg159
g62
sg160
Nsg161
Nsg162
Nsbag2
(g3
g4
Ntp1126
Rp1127
(dp1128
g8
g11
sg140
Nsg141
(dp1129
sg143
Nsg26
g29
sg144
(lp1130
I14
aI7
asg146
Nsg147
VMishnah Kelim 14:7
p1131
sg149
(lp1132
sg151
g101
sg152
Nsg153
(lp1133
I14
aI7
asg155
Nsg156
g1131
sg157
(lp1134
sg159
g62
sg160
Nsg161
Nsg162
Nsbag2
(g3
g4
Ntp1135
Rp1136
(dp1137
g8
g11
sg140
Nsg141
(dp1138
sg143
Nsg26
g29
sg144
(lp1139
I14
aI8
asg146
Nsg147
VMishnah Kelim 14:8
p1140
sg149
(lp1141
sg151
g101
sg152
Nsg153
(lp1142
I14
aI8
asg155
Nsg156
g1140
sg157
(lp1143
sg159
g62
sg160
Nsg161
Nsg162
Nsbag2
(g3
g4
Ntp1144
Rp1145
(dp1146
g8
g11
sg140
Nsg141
(dp1147
sg143
Nsg26
g29
sg144
(lp1148
I15
aI1
asg146
Nsg147
VMishnah Kelim 15:1
p1149
sg149
(lp1150
sg151
g101
sg152
Nsg153
(lp1151
I15
aI1
asg155
Nsg156
g1149
sg157
(lp1152
sg159
g62
sg160
Nsg161
Nsg162
Nsbag2
(g3
g4
Ntp1153
Rp1154
(dp1155
g8
g11
sg140
Nsg141
(dp1156
sg143
Nsg26
g29
sg144
(lp1157
I15
aI2
asg146
Nsg147
VMishnah Kelim 15:2
p1158
sg149
(lp1159
sg151
g101
sg152
Nsg153
(lp1160
I15
aI2
asg155
Nsg156
g1158
sg157
(lp1161
sg159
g62
sg160
Nsg161
Nsg162
Nsbag2
(g3
g4
Ntp1162
Rp1163
(dp1164
g8
g11
sg140
Nsg141
(dp1165
sg143
Nsg26
g29
sg144
(lp1166
I15
aI3
asg146
Nsg147
VMishnah Kelim 15:3
p1167
sg149
(lp1168
sg151
g101
sg152
Nsg153
(lp1169
I15
aI3
asg155
Nsg156
g1167
sg157
(lp1170
sg159
g62
sg160
Nsg161
Nsg162
Nsbag2
(g3
g4
Ntp1171
Rp1172
(dp1173
g8
g11
sg140
Nsg141
(dp1174
sg143
Nsg26
g29
sg144
(lp1175
I15
aI4
asg146
Nsg147
VMishnah Kelim 15:4
p1176
sg149
(lp1177
sg151
g101
sg152
Nsg153
(lp1178
I15
aI4
asg155
Nsg156
g1176
sg157
(lp1179
sg159
g62
sg160
Nsg161
Nsg162
Nsbag2
(g3
g4
Ntp1180
Rp1181
(dp1182
g8
g11
sg140
Nsg141
(dp1183
sg143
Nsg26
g29
sg144
(lp1184
I15
aI5
asg146
Nsg147
VMishnah Kelim 15:5
p1185
sg149
(lp1186
sg151
g101
sg152
Nsg153
(lp1187
I15
aI5
asg155
Nsg156
g1185
sg157
(lp1188
sg159
g62
sg160
Nsg161
Nsg162
Nsbag2
(g3
g4
Ntp1189
Rp1190
(dp1191
g8
g11
sg140
Nsg141
(dp1192
sg143
Nsg26
g29
sg144
(lp1193
I15
aI6
asg146
Nsg147
VMishnah Kelim 15:6
p1194
sg149
(lp1195
sg151
g101
sg152
Nsg153
(lp1196
I15
aI6
asg155
Nsg156
g1194
sg157
(lp1197
sg159
g62
sg160
Nsg161
Nsg162
Nsbag2
(g3
g4
Ntp1198
Rp1199
(dp1200
g8
g11
sg140
Nsg141
(dp1201
sg143
Nsg26
g29
sg144
(lp1202
I16
aI1
asg146
Nsg147
VMishnah Kelim 16:1
p1203
sg149
(lp1204
sg151
g101
sg152
Nsg153
(lp1205
I16
aI1
asg155
Nsg156
g1203
sg157
(lp1206
sg159
g62
sg160
Nsg161
Nsg162
Nsbag2
(g3
g4
Ntp1207
Rp1208
(dp1209
g8
g11
sg140
Nsg141
(dp1210
sg143
Nsg26
g29
sg144
(lp1211
I16
aI2
asg146
Nsg147
VMishnah Kelim 16:2
p1212
sg149
(lp1213
sg151
g101
sg152
Nsg153
(lp1214
I16
aI2
asg155
Nsg156
g1212
sg157
(lp1215
sg159
g62
sg160
Nsg161
Nsg162
Nsbag2
(g3
g4
Ntp1216
Rp1217
(dp1218
g8
g11
sg140
Nsg141
(dp1219
sg143
Nsg26
g29
sg144
(lp1220
I16
aI3
asg146
Nsg147
VMishnah Kelim 16:3
p1221
sg149
(lp1222
sg151
g101
sg152
Nsg153
(lp1223
I16
aI3
asg155
Nsg156
g1221
sg157
(lp1224
sg159
g62
sg160
Nsg161
Nsg162
Nsbag2
(g3
g4
Ntp1225
Rp1226
(dp1227
g8
g11
sg140
Nsg141
(dp1228
sg143
Nsg26
g29
sg144
(lp1229
I16
aI4
asg146
Nsg147
VMishnah Kelim 16:4
p1230
sg149
(lp1231
sg151
g101
sg152
Nsg153
(lp1232
I16
aI4
asg155
Nsg156
g1230
sg157
(lp1233
sg159
g62
sg160
Nsg161
Nsg162
Nsbag2
(g3
g4
Ntp1234
Rp1235
(dp1236
g8
g11
sg140
Nsg141
(dp1237
sg143
Nsg26
g29
sg144
(lp1238
I16
aI5
asg146
Nsg147
VMishnah Kelim 16:5
p1239
sg149
(lp1240
sg151
g101
sg152
Nsg153
(lp1241
I16
aI5
asg155
Nsg156
g1239
sg157
(lp1242
sg159
g62
sg160
Nsg161
Nsg162
Nsbag2
(g3
g4
Ntp1243
Rp1244
(dp1245
g8
g11
sg140
Nsg141
(dp1246
sg143
Nsg26
g29
sg144
(lp1247
I16
aI6
asg146
Nsg147
VMishnah Kelim 16:6
p1248
sg149
(lp1249
sg151
g101
sg152
Nsg153
(lp1250
I16
aI6
asg155
Nsg156
g1248
sg157
(lp1251
sg159
g62
sg160
Nsg161
Nsg162
Nsbag2
(g3
g4
Ntp1252
Rp1253
(dp1254
g8
g11
sg140
Nsg141
(dp1255
sg143
Nsg26
g29
sg144
(lp1256
I16
aI7
asg146
Nsg147
VMishnah Kelim 16:7
p1257
sg149
(lp1258
sg151
g101
sg152
Nsg153
(lp1259
I16
aI7
asg155
Nsg156
g1257
sg157
(lp1260
sg159
g62
sg160
Nsg161
Nsg162
Nsbag2
(g3
g4
Ntp1261
Rp1262
(dp1263
g8
g11
sg140
Nsg141
(dp1264
sg143
Nsg26
g29
sg144
(lp1265
I16
aI8
asg146
Nsg147
VMishnah Kelim 16:8
p1266
sg149
(lp1267
sg151
g101
sg152
Nsg153
(lp1268
I16
aI8
asg155
Nsg156
g1266
sg157
(lp1269
sg159
g62
sg160
Nsg161
Nsg162
Nsbag2
(g3
g4
Ntp1270
Rp1271
(dp1272
g8
g11
sg140
Nsg141
(dp1273
sg143
Nsg26
g29
sg144
(lp1274
I17
aI1
asg146
Nsg147
VMishnah Kelim 17:1
p1275
sg149
(lp1276
sg151
g101
sg152
Nsg153
(lp1277
I17
aI1
asg155
Nsg156
g1275
sg157
(lp1278
sg159
g62
sg160
Nsg161
Nsg162
Nsbag2
(g3
g4
Ntp1279
Rp1280
(dp1281
g8
g11
sg140
Nsg141
(dp1282
sg143
Nsg26
g29
sg144
(lp1283
I17
aI2
asg146
Nsg147
VMishnah Kelim 17:2
p1284
sg149
(lp1285
sg151
g101
sg152
Nsg153
(lp1286
I17
aI2
asg155
Nsg156
g1284
sg157
(lp1287
sg159
g62
sg160
Nsg161
Nsg162
Nsbag2
(g3
g4
Ntp1288
Rp1289
(dp1290
g8
g11
sg140
Nsg141
(dp1291
sg143
Nsg26
g29
sg144
(lp1292
I17
aI3
asg146
Nsg147
VMishnah Kelim 17:3
p1293
sg149
(lp1294
sg151
g101
sg152
Nsg153
(lp1295
I17
aI3
asg155
Nsg156
g1293
sg157
(lp1296
sg159
g62
sg160
Nsg161
Nsg162
Nsbag2
(g3
g4
Ntp1297
Rp1298
(dp1299
g8
g11
sg140
Nsg141
(dp1300
sg143
Nsg26
g29
sg144
(lp1301
I17
aI4
asg146
Nsg147
VMishnah Kelim 17:4
p1302
sg149
(lp1303
sg151
g101
sg152
Nsg153
(lp1304
I17
aI4
asg155
Nsg156
g1302
sg157
(lp1305
sg159
g62
sg160
Nsg161
Nsg162
Nsbag2
(g3
g4
Ntp1306
Rp1307
(dp1308
g8
g11
sg140
Nsg141
(dp1309
sg143
Nsg26
g29
sg144
(lp1310
I17
aI5
asg146
Nsg147
VMishnah Kelim 17:5
p1311
sg149
(lp1312
sg151
g101
sg152
Nsg153
(lp1313
I17
aI5
asg155
Nsg156
g1311
sg157
(lp1314
sg159
g62
sg160
Nsg161
Nsg162
Nsbag2
(g3
g4
Ntp1315
Rp1316
(dp1317
g8
g11
sg140
Nsg141
(dp1318
sg143
Nsg26
g29
sg144
(lp1319
I17
aI6
asg146
Nsg147
VMishnah Kelim 17:6
p1320
sg149
(lp1321
sg151
g101
sg152
Nsg153
(lp1322
I17
aI6
asg155
Nsg156
g1320
sg157
(lp1323
sg159
g62
sg160
Nsg161
Nsg162
Nsbag2
(g3
g4
Ntp1324
Rp1325
(dp1326
g8
g11
sg140
Nsg141
(dp1327
sg143
Nsg26
g29
sg144
(lp1328
I17
aI7
asg146
Nsg147
VMishnah Kelim 17:7
p1329
sg149
(lp1330
sg151
g101
sg152
Nsg153
(lp1331
I17
aI7
asg155
Nsg156
g1329
sg157
(lp1332
sg159
g62
sg160
Nsg161
Nsg162
Nsbag2
(g3
g4
Ntp1333
Rp1334
(dp1335
g8
g11
sg140
Nsg141
(dp1336
sg143
Nsg26
g29
sg144
(lp1337
I17
aI8
asg146
Nsg147
VMishnah Kelim 17:8
p1338
sg149
(lp1339
sg151
g101
sg152
Nsg153
(lp1340
I17
aI8
asg155
Nsg156
g1338
sg157
(lp1341
sg159
g62
sg160
Nsg161
Nsg162
Nsbag2
(g3
g4
Ntp1342
Rp1343
(dp1344
g8
g11
sg140
Nsg141
(dp1345
sg143
Nsg26
g29
sg144
(lp1346
I17
aI9
asg146
Nsg147
VMishnah Kelim 17:9
p1347
sg149
(lp1348
sg151
g101
sg152
Nsg153
(lp1349
I17
aI9
asg155
Nsg156
g1347
sg157
(lp1350
sg159
g62
sg160
Nsg161
Nsg162
Nsbag2
(g3
g4
Ntp1351
Rp1352
(dp1353
g8
g11
sg140
Nsg141
(dp1354
sg143
Nsg26
g29
sg144
(lp1355
I17
aI10
asg146
Nsg147
VMishnah Kelim 17:10
p1356
sg149
(lp1357
sg151
g101
sg152
Nsg153
(lp1358
I17
aI10
asg155
Nsg156
g1356
sg157
(lp1359
sg159
g62
sg160
Nsg161
Nsg162
Nsbag2
(g3
g4
Ntp1360
Rp1361
(dp1362
g8
g11
sg140
Nsg141
(dp1363
sg143
Nsg26
g29
sg144
(lp1364
I17
aI11
asg146
Nsg147
VMishnah Kelim 17:11
p1365
sg149
(lp1366
sg151
g101
sg152
Nsg153
(lp1367
I17
aI11
asg155
Nsg156
g1365
sg157
(lp1368
sg159
g62
sg160
Nsg161
Nsg162
Nsbag2
(g3
g4
Ntp1369
Rp1370
(dp1371
g8
g11
sg140
Nsg141
(dp1372
sg143
Nsg26
g29
sg144
(lp1373
I17
aI12
asg146
Nsg147
VMishnah Kelim 17:12
p1374
sg149
(lp1375
sg151
g101
sg152
Nsg153
(lp1376
I17
aI12
asg155
Nsg156
g1374
sg157
(lp1377
sg159
g62
sg160
Nsg161
Nsg162
Nsbag2
(g3
g4
Ntp1378
Rp1379
(dp1380
g8
g11
sg140
Nsg141
(dp1381
sg143
Nsg26
g29
sg144
(lp1382
I17
aI13
asg146
Nsg147
VMishnah Kelim 17:13
p1383
sg149
(lp1384
sg151
g101
sg152
Nsg153
(lp1385
I17
aI13
asg155
Nsg156
g1383
sg157
(lp1386
sg159
g62
sg160
Nsg161
Nsg162
Nsbag2
(g3
g4
Ntp1387
Rp1388
(dp1389
g8
g11
sg140
Nsg141
(dp1390
sg143
Nsg26
g29
sg144
(lp1391
I17
aI14
asg146
Nsg147
VMishnah Kelim 17:14
p1392
sg149
(lp1393
sg151
g101
sg152
Nsg153
(lp1394
I17
aI14
asg155
Nsg156
g1392
sg157
(lp1395
sg159
g62
sg160
Nsg161
Nsg162
Nsbag2
(g3
g4
Ntp1396
Rp1397
(dp1398
g8
g11
sg140
Nsg141
(dp1399
sg143
Nsg26
g29
sg144
(lp1400
I17
aI15
asg146
Nsg147
VMishnah Kelim 17:15
p1401
sg149
(lp1402
sg151
g101
sg152
Nsg153
(lp1403
I17
aI15
asg155
Nsg156
g1401
sg157
(lp1404
sg159
g62
sg160
Nsg161
Nsg162
Nsbag2
(g3
g4
Ntp1405
Rp1406
(dp1407
g8
g11
sg140
Nsg141
(dp1408
sg143
Nsg26
g29
sg144
(lp1409
I17
aI16
asg146
Nsg147
VMishnah Kelim 17:16
p1410
sg149
(lp1411
sg151
g101
sg152
Nsg153
(lp1412
I17
aI16
asg155
Nsg156
g1410
sg157
(lp1413
sg159
g62
sg160
Nsg161
Nsg162
Nsbag2
(g3
g4
Ntp1414
Rp1415
(dp1416
g8
g11
sg140
Nsg141
(dp1417
sg143
Nsg26
g29
sg144
(lp1418
I17
aI17
asg146
Nsg147
VMishnah Kelim 17:17
p1419
sg149
(lp1420
sg151
g101
sg152
Nsg153
(lp1421
I17
aI17
asg155
Nsg156
g1419
sg157
(lp1422
sg159
g62
sg160
Nsg161
Nsg162
Nsbag2
(g3
g4
Ntp1423
Rp1424
(dp1425
g8
g11
sg140
Nsg141
(dp1426
sg143
Nsg26
g29
sg144
(lp1427
I18
aI1
asg146
Nsg147
VMishnah Kelim 18:1
p1428
sg149
(lp1429
sg151
g101
sg152
Nsg153
(lp1430
I18
aI1
asg155
Nsg156
g1428
sg157
(lp1431
sg159
g62
sg160
Nsg161
Nsg162
Nsbag2
(g3
g4
Ntp1432
Rp1433
(dp1434
g8
g11
sg140
Nsg141
(dp1435
sg143
Nsg26
g29
sg144
(lp1436
I18
aI2
asg146
Nsg147
VMishnah Kelim 18:2
p1437
sg149
(lp1438
sg151
g101
sg152
Nsg153
(lp1439
I18
aI2
asg155
Nsg156
g1437
sg157
(lp1440
sg159
g62
sg160
Nsg161
Nsg162
Nsbag2
(g3
g4
Ntp1441
Rp1442
(dp1443
g8
g11
sg140
Nsg141
(dp1444
sg143
Nsg26
g29
sg144
(lp1445
I18
aI3
asg146
Nsg147
VMishnah Kelim 18:3
p1446
sg149
(lp1447
sg151
g101
sg152
Nsg153
(lp1448
I18
aI3
asg155
Nsg156
g1446
sg157
(lp1449
sg159
g62
sg160
Nsg161
Nsg162
Nsbag2
(g3
g4
Ntp1450
Rp1451
(dp1452
g8
g11
sg140
Nsg141
(dp1453
sg143
Nsg26
g29
sg144
(lp1454
I18
aI4
asg146
Nsg147
VMishnah Kelim 18:4
p1455
sg149
(lp1456
sg151
g101
sg152
Nsg153
(lp1457
I18
aI4
asg155
Nsg156
g1455
sg157
(lp1458
sg159
g62
sg160
Nsg161
Nsg162
Nsbag2
(g3
g4
Ntp1459
Rp1460
(dp1461
g8
g11
sg140
Nsg141
(dp1462
sg143
Nsg26
g29
sg144
(lp1463
I18
aI5
asg146
Nsg147
VMishnah Kelim 18:5
p1464
sg149
(lp1465
sg151
g101
sg152
Nsg153
(lp1466
I18
aI5
asg155
Nsg156
g1464
sg157
(lp1467
sg159
g62
sg160
Nsg161
Nsg162
Nsbag2
(g3
g4
Ntp1468
Rp1469
(dp1470
g8
g11
sg140
Nsg141
(dp1471
sg143
Nsg26
g29
sg144
(lp1472
I18
aI6
asg146
Nsg147
VMishnah Kelim 18:6
p1473
sg149
(lp1474
sg151
g101
sg152
Nsg153
(lp1475
I18
aI6
asg155
Nsg156
g1473
sg157
(lp1476
sg159
g62
sg160
Nsg161
Nsg162
Nsbag2
(g3
g4
Ntp1477
Rp1478
(dp1479
g8
g11
sg140
Nsg141
(dp1480
sg143
Nsg26
g29
sg144
(lp1481
I18
aI7
asg146
Nsg147
VMishnah Kelim 18:7
p1482
sg149
(lp1483
sg151
g101
sg152
Nsg153
(lp1484
I18
aI7
asg155
Nsg156
g1482
sg157
(lp1485
sg159
g62
sg160
Nsg161
Nsg162
Nsbag2
(g3
g4
Ntp1486
Rp1487
(dp1488
g8
g11
sg140
Nsg141
(dp1489
sg143
Nsg26
g29
sg144
(lp1490
I18
aI8
asg146
Nsg147
VMishnah Kelim 18:8
p1491
sg149
(lp1492
sg151
g101
sg152
Nsg153
(lp1493
I18
aI8
asg155
Nsg156
g1491
sg157
(lp1494
sg159
g62
sg160
Nsg161
Nsg162
Nsbag2
(g3
g4
Ntp1495
Rp1496
(dp1497
g8
g11
sg140
Nsg141
(dp1498
sg143
Nsg26
g29
sg144
(lp1499
I18
aI9
asg146
Nsg147
VMishnah Kelim 18:9
p1500
sg149
(lp1501
sg151
g101
sg152
Nsg153
(lp1502
I18
aI9
asg155
Nsg156
g1500
sg157
(lp1503
sg159
g62
sg160
Nsg161
Nsg162
Nsbag2
(g3
g4
Ntp1504
Rp1505
(dp1506
g8
g11
sg140
Nsg141
(dp1507
sg143
Nsg26
g29
sg144
(lp1508
I19
aI1
asg146
Nsg147
VMishnah Kelim 19:1
p1509
sg149
(lp1510
sg151
g101
sg152
Nsg153
(lp1511
I19
aI1
asg155
Nsg156
g1509
sg157
(lp1512
sg159
g62
sg160
Nsg161
Nsg162
Nsbag2
(g3
g4
Ntp1513
Rp1514
(dp1515
g8
g11
sg140
Nsg141
(dp1516
sg143
Nsg26
g29
sg144
(lp1517
I19
aI2
asg146
Nsg147
VMishnah Kelim 19:2
p1518
sg149
(lp1519
sg151
g101
sg152
Nsg153
(lp1520
I19
aI2
asg155
Nsg156
g1518
sg157
(lp1521
sg159
g62
sg160
Nsg161
Nsg162
Nsbag2
(g3
g4
Ntp1522
Rp1523
(dp1524
g8
g11
sg140
Nsg141
(dp1525
sg143
Nsg26
g29
sg144
(lp1526
I19
aI3
asg146
Nsg147
VMishnah Kelim 19:3
p1527
sg149
(lp1528
sg151
g101
sg152
Nsg153
(lp1529
I19
aI3
asg155
Nsg156
g1527
sg157
(lp1530
sg159
g62
sg160
Nsg161
Nsg162
Nsbag2
(g3
g4
Ntp1531
Rp1532
(dp1533
g8
g11
sg140
Nsg141
(dp1534
sg143
Nsg26
g29
sg144
(lp1535
I19
aI4
asg146
Nsg147
VMishnah Kelim 19:4
p1536
sg149
(lp1537
sg151
g101
sg152
Nsg153
(lp1538
I19
aI4
asg155
Nsg156
g1536
sg157
(lp1539
sg159
g62
sg160
Nsg161
Nsg162
Nsbag2
(g3
g4
Ntp1540
Rp1541
(dp1542
g8
g11
sg140
Nsg141
(dp1543
sg143
Nsg26
g29
sg144
(lp1544
I19
aI5
asg146
Nsg147
VMishnah Kelim 19:5
p1545
sg149
(lp1546
sg151
g101
sg152
Nsg153
(lp1547
I19
aI5
asg155
Nsg156
g1545
sg157
(lp1548
sg159
g62
sg160
Nsg161
Nsg162
Nsbag2
(g3
g4
Ntp1549
Rp1550
(dp1551
g8
g11
sg140
Nsg141
(dp1552
sg143
Nsg26
g29
sg144
(lp1553
I19
aI6
asg146
Nsg147
VMishnah Kelim 19:6
p1554
sg149
(lp1555
sg151
g101
sg152
Nsg153
(lp1556
I19
aI6
asg155
Nsg156
g1554
sg157
(lp1557
sg159
g62
sg160
Nsg161
Nsg162
Nsbag2
(g3
g4
Ntp1558
Rp1559
(dp1560
g8
g11
sg140
Nsg141
(dp1561
sg143
Nsg26
g29
sg144
(lp1562
I19
aI7
asg146
Nsg147
VMishnah Kelim 19:7
p1563
sg149
(lp1564
sg151
g101
sg152
Nsg153
(lp1565
I19
aI7
asg155
Nsg156
g1563
sg157
(lp1566
sg159
g62
sg160
Nsg161
Nsg162
Nsbag2
(g3
g4
Ntp1567
Rp1568
(dp1569
g8
g11
sg140
Nsg141
(dp1570
sg143
Nsg26
g29
sg144
(lp1571
I19
aI8
asg146
Nsg147
VMishnah Kelim 19:8
p1572
sg149
(lp1573
sg151
g101
sg152
Nsg153
(lp1574
I19
aI8
asg155
Nsg156
g1572
sg157
(lp1575
sg159
g62
sg160
Nsg161
Nsg162
Nsbag2
(g3
g4
Ntp1576
Rp1577
(dp1578
g8
g11
sg140
Nsg141
(dp1579
sg143
Nsg26
g29
sg144
(lp1580
I19
aI9
asg146
Nsg147
VMishnah Kelim 19:9
p1581
sg149
(lp1582
sg151
g101
sg152
Nsg153
(lp1583
I19
aI9
asg155
Nsg156
g1581
sg157
(lp1584
sg159
g62
sg160
Nsg161
Nsg162
Nsbag2
(g3
g4
Ntp1585
Rp1586
(dp1587
g8
g11
sg140
Nsg141
(dp1588
sg143
Nsg26
g29
sg144
(lp1589
I19
aI10
asg146
Nsg147
VMishnah Kelim 19:10
p1590
sg149
(lp1591
sg151
g101
sg152
Nsg153
(lp1592
I19
aI10
asg155
Nsg156
g1590
sg157
(lp1593
sg159
g62
sg160
Nsg161
Nsg162
Nsbag2
(g3
g4
Ntp1594
Rp1595
(dp1596
g8
g11
sg140
Nsg141
(dp1597
sg143
Nsg26
g29
sg144
(lp1598
I20
aI1
asg146
Nsg147
VMishnah Kelim 20:1
p1599
sg149
(lp1600
sg151
g101
sg152
Nsg153
(lp1601
I20
aI1
asg155
Nsg156
g1599
sg157
(lp1602
sg159
g62
sg160
Nsg161
Nsg162
Nsbag2
(g3
g4
Ntp1603
Rp1604
(dp1605
g8
g11
sg140
Nsg141
(dp1606
sg143
Nsg26
g29
sg144
(lp1607
I20
aI2
asg146
Nsg147
VMishnah Kelim 20:2
p1608
sg149
(lp1609
sg151
g101
sg152
Nsg153
(lp1610
I20
aI2
asg155
Nsg156
g1608
sg157
(lp1611
sg159
g62
sg160
Nsg161
Nsg162
Nsbag2
(g3
g4
Ntp1612
Rp1613
(dp1614
g8
g11
sg140
Nsg141
(dp1615
sg143
Nsg26
g29
sg144
(lp1616
I20
aI3
asg146
Nsg147
VMishnah Kelim 20:3
p1617
sg149
(lp1618
sg151
g101
sg152
Nsg153
(lp1619
I20
aI3
asg155
Nsg156
g1617
sg157
(lp1620
sg159
g62
sg160
Nsg161
Nsg162
Nsbag2
(g3
g4
Ntp1621
Rp1622
(dp1623
g8
g11
sg140
Nsg141
(dp1624
sg143
Nsg26
g29
sg144
(lp1625
I20
aI4
asg146
Nsg147
VMishnah Kelim 20:4
p1626
sg149
(lp1627
sg151
g101
sg152
Nsg153
(lp1628
I20
aI4
asg155
Nsg156
g1626
sg157
(lp1629
sg159
g62
sg160
Nsg161
Nsg162
Nsbag2
(g3
g4
Ntp1630
Rp1631
(dp1632
g8
g11
sg140
Nsg141
(dp1633
sg143
Nsg26
g29
sg144
(lp1634
I20
aI5
asg146
Nsg147
VMishnah Kelim 20:5
p1635
sg149
(lp1636
sg151
g101
sg152
Nsg153
(lp1637
I20
aI5
asg155
Nsg156
g1635
sg157
(lp1638
sg159
g62
sg160
Nsg161
Nsg162
Nsbag2
(g3
g4
Ntp1639
Rp1640
(dp1641
g8
g11
sg140
Nsg141
(dp1642
sg143
Nsg26
g29
sg144
(lp1643
I20
aI6
asg146
Nsg147
VMishnah Kelim 20:6
p1644
sg149
(lp1645
sg151
g101
sg152
Nsg153
(lp1646
I20
aI6
asg155
Nsg156
g1644
sg157
(lp1647
sg159
g62
sg160
Nsg161
Nsg162
Nsbag2
(g3
g4
Ntp1648
Rp1649
(dp1650
g8
g11
sg140
Nsg141
(dp1651
sg143
Nsg26
g29
sg144
(lp1652
I20
aI7
asg146
Nsg147
VMishnah Kelim 20:7
p1653
sg149
(lp1654
sg151
g101
sg152
Nsg153
(lp1655
I20
aI7
asg155
Nsg156
g1653
sg157
(lp1656
sg159
g62
sg160
Nsg161
Nsg162
Nsbag2
(g3
g4
Ntp1657
Rp1658
(dp1659
g8
g11
sg140
Nsg141
(dp1660
sg143
Nsg26
g29
sg144
(lp1661
I21
aI1
asg146
Nsg147
VMishnah Kelim 21:1
p1662
sg149
(lp1663
sg151
g101
sg152
Nsg153
(lp1664
I21
aI1
asg155
Nsg156
g1662
sg157
(lp1665
sg159
g62
sg160
Nsg161
Nsg162
Nsbag2
(g3
g4
Ntp1666
Rp1667
(dp1668
g8
g11
sg140
Nsg141
(dp1669
sg143
Nsg26
g29
sg144
(lp1670
I21
aI2
asg146
Nsg147
VMishnah Kelim 21:2
p1671
sg149
(lp1672
sg151
g101
sg152
Nsg153
(lp1673
I21
aI2
asg155
Nsg156
g1671
sg157
(lp1674
sg159
g62
sg160
Nsg161
Nsg162
Nsbag2
(g3
g4
Ntp1675
Rp1676
(dp1677
g8
g11
sg140
Nsg141
(dp1678
sg143
Nsg26
g29
sg144
(lp1679
I21
aI3
asg146
Nsg147
VMishnah Kelim 21:3
p1680
sg149
(lp1681
sg151
g101
sg152
Nsg153
(lp1682
I21
aI3
asg155
Nsg156
g1680
sg157
(lp1683
sg159
g62
sg160
Nsg161
Nsg162
Nsbag2
(g3
g4
Ntp1684
Rp1685
(dp1686
g8
g11
sg140
Nsg141
(dp1687
sg143
Nsg26
g29
sg144
(lp1688
I22
aI1
asg146
Nsg147
VMishnah Kelim 22:1
p1689
sg149
(lp1690
sg151
g101
sg152
Nsg153
(lp1691
I22
aI1
asg155
Nsg156
g1689
sg157
(lp1692
sg159
g62
sg160
Nsg161
Nsg162
Nsbag2
(g3
g4
Ntp1693
Rp1694
(dp1695
g8
g11
sg140
Nsg141
(dp1696
sg143
Nsg26
g29
sg144
(lp1697
I22
aI2
asg146
Nsg147
VMishnah Kelim 22:2
p1698
sg149
(lp1699
sg151
g101
sg152
Nsg153
(lp1700
I22
aI2
asg155
Nsg156
g1698
sg157
(lp1701
sg159
g62
sg160
Nsg161
Nsg162
Nsbag2
(g3
g4
Ntp1702
Rp1703
(dp1704
g8
g11
sg140
Nsg141
(dp1705
sg143
Nsg26
g29
sg144
(lp1706
I22
aI3
asg146
Nsg147
VMishnah Kelim 22:3
p1707
sg149
(lp1708
sg151
g101
sg152
Nsg153
(lp1709
I22
aI3
asg155
Nsg156
g1707
sg157
(lp1710
sg159
g62
sg160
Nsg161
Nsg162
Nsbag2
(g3
g4
Ntp1711
Rp1712
(dp1713
g8
g11
sg140
Nsg141
(dp1714
sg143
Nsg26
g29
sg144
(lp1715
I22
aI4
asg146
Nsg147
VMishnah Kelim 22:4
p1716
sg149
(lp1717
sg151
g101
sg152
Nsg153
(lp1718
I22
aI4
asg155
Nsg156
g1716
sg157
(lp1719
sg159
g62
sg160
Nsg161
Nsg162
Nsbag2
(g3
g4
Ntp1720
Rp1721
(dp1722
g8
g11
sg140
Nsg141
(dp1723
sg143
Nsg26
g29
sg144
(lp1724
I22
aI5
asg146
Nsg147
VMishnah Kelim 22:5
p1725
sg149
(lp1726
sg151
g101
sg152
Nsg153
(lp1727
I22
aI5
asg155
Nsg156
g1725
sg157
(lp1728
sg159
g62
sg160
Nsg161
Nsg162
Nsbag2
(g3
g4
Ntp1729
Rp1730
(dp1731
g8
g11
sg140
Nsg141
(dp1732
sg143
Nsg26
g29
sg144
(lp1733
I22
aI6
asg146
Nsg147
VMishnah Kelim 22:6
p1734
sg149
(lp1735
sg151
g101
sg152
Nsg153
(lp1736
I22
aI6
asg155
Nsg156
g1734
sg157
(lp1737
sg159
g62
sg160
Nsg161
Nsg162
Nsbag2
(g3
g4
Ntp1738
Rp1739
(dp1740
g8
g11
sg140
Nsg141
(dp1741
sg143
Nsg26
g29
sg144
(lp1742
I22
aI7
asg146
Nsg147
VMishnah Kelim 22:7
p1743
sg149
(lp1744
sg151
g101
sg152
Nsg153
(lp1745
I22
aI7
asg155
Nsg156
g1743
sg157
(lp1746
sg159
g62
sg160
Nsg161
Nsg162
Nsbag2
(g3
g4
Ntp1747
Rp1748
(dp1749
g8
g11
sg140
Nsg141
(dp1750
sg143
Nsg26
g29
sg144
(lp1751
I22
aI8
asg146
Nsg147
VMishnah Kelim 22:8
p1752
sg149
(lp1753
sg151
g101
sg152
Nsg153
(lp1754
I22
aI8
asg155
Nsg156
g1752
sg157
(lp1755
sg159
g62
sg160
Nsg161
Nsg162
Nsbag2
(g3
g4
Ntp1756
Rp1757
(dp1758
g8
g11
sg140
Nsg141
(dp1759
sg143
Nsg26
g29
sg144
(lp1760
I22
aI9
asg146
Nsg147
VMishnah Kelim 22:9
p1761
sg149
(lp1762
sg151
g101
sg152
Nsg153
(lp1763
I22
aI9
asg155
Nsg156
g1761
sg157
(lp1764
sg159
g62
sg160
Nsg161
Nsg162
Nsbag2
(g3
g4
Ntp1765
Rp1766
(dp1767
g8
g11
sg140
Nsg141
(dp1768
sg143
Nsg26
g29
sg144
(lp1769
I22
aI10
asg146
Nsg147
VMishnah Kelim 22:10
p1770
sg149
(lp1771
sg151
g101
sg152
Nsg153
(lp1772
I22
aI10
asg155
Nsg156
g1770
sg157
(lp1773
sg159
g62
sg160
Nsg161
Nsg162
Nsbag2
(g3
g4
Ntp1774
Rp1775
(dp1776
g8
g11
sg140
Nsg141
(dp1777
sg143
Nsg26
g29
sg144
(lp1778
I23
aI1
asg146
Nsg147
VMishnah Kelim 23:1
p1779
sg149
(lp1780
sg151
g101
sg152
Nsg153
(lp1781
I23
aI1
asg155
Nsg156
g1779
sg157
(lp1782
sg159
g62
sg160
Nsg161
Nsg162
Nsbag2
(g3
g4
Ntp1783
Rp1784
(dp1785
g8
g11
sg140
Nsg141
(dp1786
sg143
Nsg26
g29
sg144
(lp1787
I23
aI2
asg146
Nsg147
VMishnah Kelim 23:2
p1788
sg149
(lp1789
sg151
g101
sg152
Nsg153
(lp1790
I23
aI2
asg155
Nsg156
g1788
sg157
(lp1791
sg159
g62
sg160
Nsg161
Nsg162
Nsbag2
(g3
g4
Ntp1792
Rp1793
(dp1794
g8
g11
sg140
Nsg141
(dp1795
sg143
Nsg26
g29
sg144
(lp1796
I23
aI3
asg146
Nsg147
VMishnah Kelim 23:3
p1797
sg149
(lp1798
sg151
g101
sg152
Nsg153
(lp1799
I23
aI3
asg155
Nsg156
g1797
sg157
(lp1800
sg159
g62
sg160
Nsg161
Nsg162
Nsbag2
(g3
g4
Ntp1801
Rp1802
(dp1803
g8
g11
sg140
Nsg141
(dp1804
sg143
Nsg26
g29
sg144
(lp1805
I23
aI4
asg146
Nsg147
VMishnah Kelim 23:4
p1806
sg149
(lp1807
sg151
g101
sg152
Nsg153
(lp1808
I23
aI4
asg155
Nsg156
g1806
sg157
(lp1809
sg159
g62
sg160
Nsg161
Nsg162
Nsbag2
(g3
g4
Ntp1810
Rp1811
(dp1812
g8
g11
sg140
Nsg141
(dp1813
sg143
Nsg26
g29
sg144
(lp1814
I23
aI5
asg146
Nsg147
VMishnah Kelim 23:5
p1815
sg149
(lp1816
sg151
g101
sg152
Nsg153
(lp1817
I23
aI5
asg155
Nsg156
g1815
sg157
(lp1818
sg159
g62
sg160
Nsg161
Nsg162
Nsbag2
(g3
g4
Ntp1819
Rp1820
(dp1821
g8
g11
sg140
Nsg141
(dp1822
sg143
Nsg26
g29
sg144
(lp1823
I24
aI1
asg146
Nsg147
VMishnah Kelim 24:1
p1824
sg149
(lp1825
sg151
g101
sg152
Nsg153
(lp1826
I24
aI1
asg155
Nsg156
g1824
sg157
(lp1827
sg159
g62
sg160
Nsg161
Nsg162
Nsbag2
(g3
g4
Ntp1828
Rp1829
(dp1830
g8
g11
sg140
Nsg141
(dp1831
sg143
Nsg26
g29
sg144
(lp1832
I24
aI2
asg146
Nsg147
VMishnah Kelim 24:2
p1833
sg149
(lp1834
sg151
g101
sg152
Nsg153
(lp1835
I24
aI2
asg155
Nsg156
g1833
sg157
(lp1836
sg159
g62
sg160
Nsg161
Nsg162
Nsbag2
(g3
g4
Ntp1837
Rp1838
(dp1839
g8
g11
sg140
Nsg141
(dp1840
sg143
Nsg26
g29
sg144
(lp1841
I24
aI3
asg146
Nsg147
VMishnah Kelim 24:3
p1842
sg149
(lp1843
sg151
g101
sg152
Nsg153
(lp1844
I24
aI3
asg155
Nsg156
g1842
sg157
(lp1845
sg159
g62
sg160
Nsg161
Nsg162
Nsbag2
(g3
g4
Ntp1846
Rp1847
(dp1848
g8
g11
sg140
Nsg141
(dp1849
sg143
Nsg26
g29
sg144
(lp1850
I24
aI4
asg146
Nsg147
VMishnah Kelim 24:4
p1851
sg149
(lp1852
sg151
g101
sg152
Nsg153
(lp1853
I24
aI4
asg155
Nsg156
g1851
sg157
(lp1854
sg159
g62
sg160
Nsg161
Nsg162
Nsbag2
(g3
g4
Ntp1855
Rp1856
(dp1857
g8
g11
sg140
Nsg141
(dp1858
sg143
Nsg26
g29
sg144
(lp1859
I24
aI5
asg146
Nsg147
VMishnah Kelim 24:5
p1860
sg149
(lp1861
sg151
g101
sg152
Nsg153
(lp1862
I24
aI5
asg155
Nsg156
g1860
sg157
(lp1863
sg159
g62
sg160
Nsg161
Nsg162
Nsbag2
(g3
g4
Ntp1864
Rp1865
(dp1866
g8
g11
sg140
Nsg141
(dp1867
sg143
Nsg26
g29
sg144
(lp1868
I24
aI6
asg146
Nsg147
VMishnah Kelim 24:6
p1869
sg149
(lp1870
sg151
g101
sg152
Nsg153
(lp1871
I24
aI6
asg155
Nsg156
g1869
sg157
(lp1872
sg159
g62
sg160
Nsg161
Nsg162
Nsbag2
(g3
g4
Ntp1873
Rp1874
(dp1875
g8
g11
sg140
Nsg141
(dp1876
sg143
Nsg26
g29
sg144
(lp1877
I24
aI7
asg146
Nsg147
VMishnah Kelim 24:7
p1878
sg149
(lp1879
sg151
g101
sg152
Nsg153
(lp1880
I24
aI7
asg155
Nsg156
g1878
sg157
(lp1881
sg159
g62
sg160
Nsg161
Nsg162
Nsbag2
(g3
g4
Ntp1882
Rp1883
(dp1884
g8
g11
sg140
Nsg141
(dp1885
sg143
Nsg26
g29
sg144
(lp1886
I24
aI8
asg146
Nsg147
VMishnah Kelim 24:8
p1887
sg149
(lp1888
sg151
g101
sg152
Nsg153
(lp1889
I24
aI8
asg155
Nsg156
g1887
sg157
(lp1890
sg159
g62
sg160
Nsg161
Nsg162
Nsbag2
(g3
g4
Ntp1891
Rp1892
(dp1893
g8
g11
sg140
Nsg141
(dp1894
sg143
Nsg26
g29
sg144
(lp1895
I24
aI9
asg146
Nsg147
VMishnah Kelim 24:9
p1896
sg149
(lp1897
sg151
g101
sg152
Nsg153
(lp1898
I24
aI9
asg155
Nsg156
g1896
sg157
(lp1899
sg159
g62
sg160
Nsg161
Nsg162
Nsbag2
(g3
g4
Ntp1900
Rp1901
(dp1902
g8
g11
sg140
Nsg141
(dp1903
sg143
Nsg26
g29
sg144
(lp1904
I24
aI10
asg146
Nsg147
VMishnah Kelim 24:10
p1905
sg149
(lp1906
sg151
g101
sg152
Nsg153
(lp1907
I24
aI10
asg155
Nsg156
g1905
sg157
(lp1908
sg159
g62
sg160
Nsg161
Nsg162
Nsbag2
(g3
g4
Ntp1909
Rp1910
(dp1911
g8
g11
sg140
Nsg141
(dp1912
sg143
Nsg26
g29
sg144
(lp1913
I24
aI11
asg146
Nsg147
VMishnah Kelim 24:11
p1914
sg149
(lp1915
sg151
g101
sg152
Nsg153
(lp1916
I24
aI11
asg155
Nsg156
g1914
sg157
(lp1917
sg159
g62
sg160
Nsg161
Nsg162
Nsbag2
(g3
g4
Ntp1918
Rp1919
(dp1920
g8
g11
sg140
Nsg141
(dp1921
sg143
Nsg26
g29
sg144
(lp1922
I24
aI12
asg146
Nsg147
VMishnah Kelim 24:12
p1923
sg149
(lp1924
sg151
g101
sg152
Nsg153
(lp1925
I24
aI12
asg155
Nsg156
g1923
sg157
(lp1926
sg159
g62
sg160
Nsg161
Nsg162
Nsbag2
(g3
g4
Ntp1927
Rp1928
(dp1929
g8
g11
sg140
Nsg141
(dp1930
sg143
Nsg26
g29
sg144
(lp1931
I24
aI13
asg146
Nsg147
VMishnah Kelim 24:13
p1932
sg149
(lp1933
sg151
g101
sg152
Nsg153
(lp1934
I24
aI13
asg155
Nsg156
g1932
sg157
(lp1935
sg159
g62
sg160
Nsg161
Nsg162
Nsbag2
(g3
g4
Ntp1936
Rp1937
(dp1938
g8
g11
sg140
Nsg141
(dp1939
sg143
Nsg26
g29
sg144
(lp1940
I24
aI14
asg146
Nsg147
VMishnah Kelim 24:14
p1941
sg149
(lp1942
sg151
g101
sg152
Nsg153
(lp1943
I24
aI14
asg155
Nsg156
g1941
sg157
(lp1944
sg159
g62
sg160
Nsg161
Nsg162
Nsbag2
(g3
g4
Ntp1945
Rp1946
(dp1947
g8
g11
sg140
Nsg141
(dp1948
sg143
Nsg26
g29
sg144
(lp1949
I24
aI15
asg146
Nsg147
VMishnah Kelim 24:15
p1950
sg149
(lp1951
sg151
g101
sg152
Nsg153
(lp1952
I24
aI15
asg155
Nsg156
g1950
sg157
(lp1953
sg159
g62
sg160
Nsg161
Nsg162
Nsbag2
(g3
g4
Ntp1954
Rp1955
(dp1956
g8
g11
sg140
Nsg141
(dp1957
sg143
Nsg26
g29
sg144
(lp1958
I24
aI16
asg146
Nsg147
VMishnah Kelim 24:16
p1959
sg149
(lp1960
sg151
g101
sg152
Nsg153
(lp1961
I24
aI16
asg155
Nsg156
g1959
sg157
(lp1962
sg159
g62
sg160
Nsg161
Nsg162
Nsbag2
(g3
g4
Ntp1963
Rp1964
(dp1965
g8
g11
sg140
Nsg141
(dp1966
sg143
Nsg26
g29
sg144
(lp1967
I24
aI17
asg146
Nsg147
VMishnah Kelim 24:17
p1968
sg149
(lp1969
sg151
g101
sg152
Nsg153
(lp1970
I24
aI17
asg155
Nsg156
g1968
sg157
(lp1971
sg159
g62
sg160
Nsg161
Nsg162
Nsbag2
(g3
g4
Ntp1972
Rp1973
(dp1974
g8
g11
sg140
Nsg141
(dp1975
sg143
Nsg26
g29
sg144
(lp1976
I25
aI1
asg146
Nsg147
VMishnah Kelim 25:1
p1977
sg149
(lp1978
sg151
g101
sg152
Nsg153
(lp1979
I25
aI1
asg155
Nsg156
g1977
sg157
(lp1980
sg159
g62
sg160
Nsg161
Nsg162
Nsbag2
(g3
g4
Ntp1981
Rp1982
(dp1983
g8
g11
sg140
Nsg141
(dp1984
sg143
Nsg26
g29
sg144
(lp1985
I25
aI2
asg146
Nsg147
VMishnah Kelim 25:2
p1986
sg149
(lp1987
sg151
g101
sg152
Nsg153
(lp1988
I25
aI2
asg155
Nsg156
g1986
sg157
(lp1989
sg159
g62
sg160
Nsg161
Nsg162
Nsbag2
(g3
g4
Ntp1990
Rp1991
(dp1992
g8
g11
sg140
Nsg141
(dp1993
sg143
Nsg26
g29
sg144
(lp1994
I25
aI3
asg146
Nsg147
VMishnah Kelim 25:3
p1995
sg149
(lp1996
sg151
g101
sg152
Nsg153
(lp1997
I25
aI3
asg155
Nsg156
g1995
sg157
(lp1998
sg159
g62
sg160
Nsg161
Nsg162
Nsbag2
(g3
g4
Ntp1999
Rp2000
(dp2001
g8
g11
sg140
Nsg141
(dp2002
sg143
Nsg26
g29
sg144
(lp2003
I25
aI4
asg146
Nsg147
VMishnah Kelim 25:4
p2004
sg149
(lp2005
sg151
g101
sg152
Nsg153
(lp2006
I25
aI4
asg155
Nsg156
g2004
sg157
(lp2007
sg159
g62
sg160
Nsg161
Nsg162
Nsbag2
(g3
g4
Ntp2008
Rp2009
(dp2010
g8
g11
sg140
Nsg141
(dp2011
sg143
Nsg26
g29
sg144
(lp2012
I25
aI5
asg146
Nsg147
VMishnah Kelim 25:5
p2013
sg149
(lp2014
sg151
g101
sg152
Nsg153
(lp2015
I25
aI5
asg155
Nsg156
g2013
sg157
(lp2016
sg159
g62
sg160
Nsg161
Nsg162
Nsbag2
(g3
g4
Ntp2017
Rp2018
(dp2019
g8
g11
sg140
Nsg141
(dp2020
sg143
Nsg26
g29
sg144
(lp2021
I25
aI6
asg146
Nsg147
VMishnah Kelim 25:6
p2022
sg149
(lp2023
sg151
g101
sg152
Nsg153
(lp2024
I25
aI6
asg155
Nsg156
g2022
sg157
(lp2025
sg159
g62
sg160
Nsg161
Nsg162
Nsbag2
(g3
g4
Ntp2026
Rp2027
(dp2028
g8
g11
sg140
Nsg141
(dp2029
sg143
Nsg26
g29
sg144
(lp2030
I25
aI7
asg146
Nsg147
VMishnah Kelim 25:7
p2031
sg149
(lp2032
sg151
g101
sg152
Nsg153
(lp2033
I25
aI7
asg155
Nsg156
g2031
sg157
(lp2034
sg159
g62
sg160
Nsg161
Nsg162
Nsbag2
(g3
g4
Ntp2035
Rp2036
(dp2037
g8
g11
sg140
Nsg141
(dp2038
sg143
Nsg26
g29
sg144
(lp2039
I25
aI8
asg146
Nsg147
VMishnah Kelim 25:8
p2040
sg149
(lp2041
sg151
g101
sg152
Nsg153
(lp2042
I25
aI8
asg155
Nsg156
g2040
sg157
(lp2043
sg159
g62
sg160
Nsg161
Nsg162
Nsbag2
(g3
g4
Ntp2044
Rp2045
(dp2046
g8
g11
sg140
Nsg141
(dp2047
sg143
Nsg26
g29
sg144
(lp2048
I25
aI9
asg146
Nsg147
VMishnah Kelim 25:9
p2049
sg149
(lp2050
sg151
g101
sg152
Nsg153
(lp2051
I25
aI9
asg155
Nsg156
g2049
sg157
(lp2052
sg159
g62
sg160
Nsg161
Nsg162
Nsbag2
(g3
g4
Ntp2053
Rp2054
(dp2055
g8
g11
sg140
Nsg141
(dp2056
sg143
Nsg26
g29
sg144
(lp2057
I26
aI1
asg146
Nsg147
VMishnah Kelim 26:1
p2058
sg149
(lp2059
sg151
g101
sg152
Nsg153
(lp2060
I26
aI1
asg155
Nsg156
g2058
sg157
(lp2061
sg159
g62
sg160
Nsg161
Nsg162
Nsbag2
(g3
g4
Ntp2062
Rp2063
(dp2064
g8
g11
sg140
Nsg141
(dp2065
sg143
Nsg26
g29
sg144
(lp2066
I26
aI2
asg146
Nsg147
VMishnah Kelim 26:2
p2067
sg149
(lp2068
sg151
g101
sg152
Nsg153
(lp2069
I26
aI2
asg155
Nsg156
g2067
sg157
(lp2070
sg159
g62
sg160
Nsg161
Nsg162
Nsbag2
(g3
g4
Ntp2071
Rp2072
(dp2073
g8
g11
sg140
Nsg141
(dp2074
sg143
Nsg26
g29
sg144
(lp2075
I26
aI3
asg146
Nsg147
VMishnah Kelim 26:3
p2076
sg149
(lp2077
sg151
g101
sg152
Nsg153
(lp2078
I26
aI3
asg155
Nsg156
g2076
sg157
(lp2079
sg159
g62
sg160
Nsg161
Nsg162
Nsbag2
(g3
g4
Ntp2080
Rp2081
(dp2082
g8
g11
sg140
Nsg141
(dp2083
sg143
Nsg26
g29
sg144
(lp2084
I26
aI4
asg146
Nsg147
VMishnah Kelim 26:4
p2085
sg149
(lp2086
sg151
g101
sg152
Nsg153
(lp2087
I26
aI4
asg155
Nsg156
g2085
sg157
(lp2088
sg159
g62
sg160
Nsg161
Nsg162
Nsbag2
(g3
g4
Ntp2089
Rp2090
(dp2091
g8
g11
sg140
Nsg141
(dp2092
sg143
Nsg26
g29
sg144
(lp2093
I26
aI5
asg146
Nsg147
VMishnah Kelim 26:5
p2094
sg149
(lp2095
sg151
g101
sg152
Nsg153
(lp2096
I26
aI5
asg155
Nsg156
g2094
sg157
(lp2097
sg159
g62
sg160
Nsg161
Nsg162
Nsbag2
(g3
g4
Ntp2098
Rp2099
(dp2100
g8
g11
sg140
Nsg141
(dp2101
sg143
Nsg26
g29
sg144
(lp2102
I26
aI6
asg146
Nsg147
VMishnah Kelim 26:6
p2103
sg149
(lp2104
sg151
g101
sg152
Nsg153
(lp2105
I26
aI6
asg155
Nsg156
g2103
sg157
(lp2106
sg159
g62
sg160
Nsg161
Nsg162
Nsbag2
(g3
g4
Ntp2107
Rp2108
(dp2109
g8
g11
sg140
Nsg141
(dp2110
sg143
Nsg26
g29
sg144
(lp2111
I26
aI7
asg146
Nsg147
VMishnah Kelim 26:7
p2112
sg149
(lp2113
sg151
g101
sg152
Nsg153
(lp2114
I26
aI7
asg155
Nsg156
g2112
sg157
(lp2115
sg159
g62
sg160
Nsg161
Nsg162
Nsbag2
(g3
g4
Ntp2116
Rp2117
(dp2118
g8
g11
sg140
Nsg141
(dp2119
sg143
Nsg26
g29
sg144
(lp2120
I26
aI8
asg146
Nsg147
VMishnah Kelim 26:8
p2121
sg149
(lp2122
sg151
g101
sg152
Nsg153
(lp2123
I26
aI8
asg155
Nsg156
g2121
sg157
(lp2124
sg159
g62
sg160
Nsg161
Nsg162
Nsbag2
(g3
g4
Ntp2125
Rp2126
(dp2127
g8
g11
sg140
Nsg141
(dp2128
sg143
Nsg26
g29
sg144
(lp2129
I26
aI9
asg146
Nsg147
VMishnah Kelim 26:9
p2130
sg149
(lp2131
sg151
g101
sg152
Nsg153
(lp2132
I26
aI9
asg155
Nsg156
g2130
sg157
(lp2133
sg159
g62
sg160
Nsg161
Nsg162
Nsbag2
(g3
g4
Ntp2134
Rp2135
(dp2136
g8
g11
sg140
Nsg141
(dp2137
sg143
Nsg26
g29
sg144
(lp2138
I27
aI1
asg146
Nsg147
VMishnah Kelim 27:1
p2139
sg149
(lp2140
sg151
g101
sg152
Nsg153
(lp2141
I27
aI1
asg155
Nsg156
g2139
sg157
(lp2142
sg159
g62
sg160
Nsg161
Nsg162
Nsbag2
(g3
g4
Ntp2143
Rp2144
(dp2145
g8
g11
sg140
Nsg141
(dp2146
sg143
Nsg26
g29
sg144
(lp2147
I27
aI2
asg146
Nsg147
VMishnah Kelim 27:2
p2148
sg149
(lp2149
sg151
g101
sg152
Nsg153
(lp2150
I27
aI2
asg155
Nsg156
g2148
sg157
(lp2151
sg159
g62
sg160
Nsg161
Nsg162
Nsbag2
(g3
g4
Ntp2152
Rp2153
(dp2154
g8
g11
sg140
Nsg141
(dp2155
sg143
Nsg26
g29
sg144
(lp2156
I27
aI3
asg146
Nsg147
VMishnah Kelim 27:3
p2157
sg149
(lp2158
sg151
g101
sg152
Nsg153
(lp2159
I27
aI3
asg155
Nsg156
g2157
sg157
(lp2160
sg159
g62
sg160
Nsg161
Nsg162
Nsbag2
(g3
g4
Ntp2161
Rp2162
(dp2163
g8
g11
sg140
Nsg141
(dp2164
sg143
Nsg26
g29
sg144
(lp2165
I27
aI4
asg146
Nsg147
VMishnah Kelim 27:4
p2166
sg149
(lp2167
sg151
g101
sg152
Nsg153
(lp2168
I27
aI4
asg155
Nsg156
g2166
sg157
(lp2169
sg159
g62
sg160
Nsg161
Nsg162
Nsbag2
(g3
g4
Ntp2170
Rp2171
(dp2172
g8
g11
sg140
Nsg141
(dp2173
sg143
Nsg26
g29
sg144
(lp2174
I27
aI5
asg146
Nsg147
VMishnah Kelim 27:5
p2175
sg149
(lp2176
sg151
g101
sg152
Nsg153
(lp2177
I27
aI5
asg155
Nsg156
g2175
sg157
(lp2178
sg159
g62
sg160
Nsg161
Nsg162
Nsbag2
(g3
g4
Ntp2179
Rp2180
(dp2181
g8
g11
sg140
Nsg141
(dp2182
sg143
Nsg26
g29
sg144
(lp2183
I27
aI6
asg146
Nsg147
VMishnah Kelim 27:6
p2184
sg149
(lp2185
sg151
g101
sg152
Nsg153
(lp2186
I27
aI6
asg155
Nsg156
g2184
sg157
(lp2187
sg159
g62
sg160
Nsg161
Nsg162
Nsbag2
(g3
g4
Ntp2188
Rp2189
(dp2190
g8
g11
sg140
Nsg141
(dp2191
sg143
Nsg26
g29
sg144
(lp2192
I27
aI7
asg146
Nsg147
VMishnah Kelim 27:7
p2193
sg149
(lp2194
sg151
g101
sg152
Nsg153
(lp2195
I27
aI7
asg155
Nsg156
g2193
sg157
(lp2196
sg159
g62
sg160
Nsg161
Nsg162
Nsbag2
(g3
g4
Ntp2197
Rp2198
(dp2199
g8
g11
sg140
Nsg141
(dp2200
sg143
Nsg26
g29
sg144
(lp2201
I27
aI8
asg146
Nsg147
VMishnah Kelim 27:8
p2202
sg149
(lp2203
sg151
g101
sg152
Nsg153
(lp2204
I27
aI8
asg155
Nsg156
g2202
sg157
(lp2205
sg159
g62
sg160
Nsg161
Nsg162
Nsbag2
(g3
g4
Ntp2206
Rp2207
(dp2208
g8
g11
sg140
Nsg141
(dp2209
sg143
Nsg26
g29
sg144
(lp2210
I27
aI9
asg146
Nsg147
VMishnah Kelim 27:9
p2211
sg149
(lp2212
sg151
g101
sg152
Nsg153
(lp2213
I27
aI9
asg155
Nsg156
g2211
sg157
(lp2214
sg159
g62
sg160
Nsg161
Nsg162
Nsbag2
(g3
g4
Ntp2215
Rp2216
(dp2217
g8
g11
sg140
Nsg141
(dp2218
sg143
Nsg26
g29
sg144
(lp2219
I27
aI10
asg146
Nsg147
VMishnah Kelim 27:10
p2220
sg149
(lp2221
sg151
g101
sg152
Nsg153
(lp2222
I27
aI10
asg155
Nsg156
g2220
sg157
(lp2223
sg159
g62
sg160
Nsg161
Nsg162
Nsbag2
(g3
g4
Ntp2224
Rp2225
(dp2226
g8
g11
sg140
Nsg141
(dp2227
sg143
Nsg26
g29
sg144
(lp2228
I27
aI11
asg146
Nsg147
VMishnah Kelim 27:11
p2229
sg149
(lp2230
sg151
g101
sg152
Nsg153
(lp2231
I27
aI11
asg155
Nsg156
g2229
sg157
(lp2232
sg159
g62
sg160
Nsg161
Nsg162
Nsbag2
(g3
g4
Ntp2233
Rp2234
(dp2235
g8
g11
sg140
Nsg141
(dp2236
sg143
Nsg26
g29
sg144
(lp2237
I27
aI12
asg146
Nsg147
VMishnah Kelim 27:12
p2238
sg149
(lp2239
sg151
g101
sg152
Nsg153
(lp2240
I27
aI12
asg155
Nsg156
g2238
sg157
(lp2241
sg159
g62
sg160
Nsg161
Nsg162
Nsbag2
(g3
g4
Ntp2242
Rp2243
(dp2244
g8
g11
sg140
Nsg141
(dp2245
sg143
Nsg26
g29
sg144
(lp2246
I28
aI1
asg146
Nsg147
VMishnah Kelim 28:1
p2247
sg149
(lp2248
sg151
g101
sg152
Nsg153
(lp2249
I28
aI1
asg155
Nsg156
g2247
sg157
(lp2250
sg159
g62
sg160
Nsg161
Nsg162
Nsbag2
(g3
g4
Ntp2251
Rp2252
(dp2253
g8
g11
sg140
Nsg141
(dp2254
sg143
Nsg26
g29
sg144
(lp2255
I28
aI2
asg146
Nsg147
VMishnah Kelim 28:2
p2256
sg149
(lp2257
sg151
g101
sg152
Nsg153
(lp2258
I28
aI2
asg155
Nsg156
g2256
sg157
(lp2259
sg159
g62
sg160
Nsg161
Nsg162
Nsbag2
(g3
g4
Ntp2260
Rp2261
(dp2262
g8
g11
sg140
Nsg141
(dp2263
sg143
Nsg26
g29
sg144
(lp2264
I28
aI3
asg146
Nsg147
VMishnah Kelim 28:3
p2265
sg149
(lp2266
sg151
g101
sg152
Nsg153
(lp2267
I28
aI3
asg155
Nsg156
g2265
sg157
(lp2268
sg159
g62
sg160
Nsg161
Nsg162
Nsbag2
(g3
g4
Ntp2269
Rp2270
(dp2271
g8
g11
sg140
Nsg141
(dp2272
sg143
Nsg26
g29
sg144
(lp2273
I28
aI4
asg146
Nsg147
VMishnah Kelim 28:4
p2274
sg149
(lp2275
sg151
g101
sg152
Nsg153
(lp2276
I28
aI4
asg155
Nsg156
g2274
sg157
(lp2277
sg159
g62
sg160
Nsg161
Nsg162
Nsbag2
(g3
g4
Ntp2278
Rp2279
(dp2280
g8
g11
sg140
Nsg141
(dp2281
sg143
Nsg26
g29
sg144
(lp2282
I28
aI5
asg146
Nsg147
VMishnah Kelim 28:5
p2283
sg149
(lp2284
sg151
g101
sg152
Nsg153
(lp2285
I28
aI5
asg155
Nsg156
g2283
sg157
(lp2286
sg159
g62
sg160
Nsg161
Nsg162
Nsbag2
(g3
g4
Ntp2287
Rp2288
(dp2289
g8
g11
sg140
Nsg141
(dp2290
sg143
Nsg26
g29
sg144
(lp2291
I28
aI6
asg146
Nsg147
VMishnah Kelim 28:6
p2292
sg149
(lp2293
sg151
g101
sg152
Nsg153
(lp2294
I28
aI6
asg155
Nsg156
g2292
sg157
(lp2295
sg159
g62
sg160
Nsg161
Nsg162
Nsbag2
(g3
g4
Ntp2296
Rp2297
(dp2298
g8
g11
sg140
Nsg141
(dp2299
sg143
Nsg26
g29
sg144
(lp2300
I28
aI7
asg146
Nsg147
VMishnah Kelim 28:7
p2301
sg149
(lp2302
sg151
g101
sg152
Nsg153
(lp2303
I28
aI7
asg155
Nsg156
g2301
sg157
(lp2304
sg159
g62
sg160
Nsg161
Nsg162
Nsbag2
(g3
g4
Ntp2305
Rp2306
(dp2307
g8
g11
sg140
Nsg141
(dp2308
sg143
Nsg26
g29
sg144
(lp2309
I28
aI8
asg146
Nsg147
VMishnah Kelim 28:8
p2310
sg149
(lp2311
sg151
g101
sg152
Nsg153
(lp2312
I28
aI8
asg155
Nsg156
g2310
sg157
(lp2313
sg159
g62
sg160
Nsg161
Nsg162
Nsbag2
(g3
g4
Ntp2314
Rp2315
(dp2316
g8
g11
sg140
Nsg141
(dp2317
sg143
Nsg26
g29
sg144
(lp2318
I28
aI9
asg146
Nsg147
VMishnah Kelim 28:9
p2319
sg149
(lp2320
sg151
g101
sg152
Nsg153
(lp2321
I28
aI9
asg155
Nsg156
g2319
sg157
(lp2322
sg159
g62
sg160
Nsg161
Nsg162
Nsbag2
(g3
g4
Ntp2323
Rp2324
(dp2325
g8
g11
sg140
Nsg141
(dp2326
sg143
Nsg26
g29
sg144
(lp2327
I28
aI10
asg146
Nsg147
VMishnah Kelim 28:10
p2328
sg149
(lp2329
sg151
g101
sg152
Nsg153
(lp2330
I28
aI10
asg155
Nsg156
g2328
sg157
(lp2331
sg159
g62
sg160
Nsg161
Nsg162
Nsbag2
(g3
g4
Ntp2332
Rp2333
(dp2334
g8
g11
sg140
Nsg141
(dp2335
sg143
Nsg26
g29
sg144
(lp2336
I29
aI1
asg146
Nsg147
VMishnah Kelim 29:1
p2337
sg149
(lp2338
sg151
g101
sg152
Nsg153
(lp2339
I29
aI1
asg155
Nsg156
g2337
sg157
(lp2340
sg159
g62
sg160
Nsg161
Nsg162
Nsbag2
(g3
g4
Ntp2341
Rp2342
(dp2343
g8
g11
sg140
Nsg141
(dp2344
sg143
Nsg26
g29
sg144
(lp2345
I29
aI2
asg146
Nsg147
VMishnah Kelim 29:2
p2346
sg149
(lp2347
sg151
g101
sg152
Nsg153
(lp2348
I29
aI2
asg155
Nsg156
g2346
sg157
(lp2349
sg159
g62
sg160
Nsg161
Nsg162
Nsbag2
(g3
g4
Ntp2350
Rp2351
(dp2352
g8
g11
sg140
Nsg141
(dp2353
sg143
Nsg26
g29
sg144
(lp2354
I29
aI3
asg146
Nsg147
VMishnah Kelim 29:3
p2355
sg149
(lp2356
sg151
g101
sg152
Nsg153
(lp2357
I29
aI3
asg155
Nsg156
g2355
sg157
(lp2358
sg159
g62
sg160
Nsg161
Nsg162
Nsbag2
(g3
g4
Ntp2359
Rp2360
(dp2361
g8
g11
sg140
Nsg141
(dp2362
sg143
Nsg26
g29
sg144
(lp2363
I29
aI4
asg146
Nsg147
VMishnah Kelim 29:4
p2364
sg149
(lp2365
sg151
g101
sg152
Nsg153
(lp2366
I29
aI4
asg155
Nsg156
g2364
sg157
(lp2367
sg159
g62
sg160
Nsg161
Nsg162
Nsbag2
(g3
g4
Ntp2368
Rp2369
(dp2370
g8
g11
sg140
Nsg141
(dp2371
sg143
Nsg26
g29
sg144
(lp2372
I29
aI5
asg146
Nsg147
VMishnah Kelim 29:5
p2373
sg149
(lp2374
sg151
g101
sg152
Nsg153
(lp2375
I29
aI5
asg155
Nsg156
g2373
sg157
(lp2376
sg159
g62
sg160
Nsg161
Nsg162
Nsbag2
(g3
g4
Ntp2377
Rp2378
(dp2379
g8
g11
sg140
Nsg141
(dp2380
sg143
Nsg26
g29
sg144
(lp2381
I29
aI6
asg146
Nsg147
VMishnah Kelim 29:6
p2382
sg149
(lp2383
sg151
g101
sg152
Nsg153
(lp2384
I29
aI6
asg155
Nsg156
g2382
sg157
(lp2385
sg159
g62
sg160
Nsg161
Nsg162
Nsbag2
(g3
g4
Ntp2386
Rp2387
(dp2388
g8
g11
sg140
Nsg141
(dp2389
sg143
Nsg26
g29
sg144
(lp2390
I29
aI7
asg146
Nsg147
VMishnah Kelim 29:7
p2391
sg149
(lp2392
sg151
g101
sg152
Nsg153
(lp2393
I29
aI7
asg155
Nsg156
g2391
sg157
(lp2394
sg159
g62
sg160
Nsg161
Nsg162
Nsbag2
(g3
g4
Ntp2395
Rp2396
(dp2397
g8
g11
sg140
Nsg141
(dp2398
sg143
Nsg26
g29
sg144
(lp2399
I29
aI8
asg146
Nsg147
VMishnah Kelim 29:8
p2400
sg149
(lp2401
sg151
g101
sg152
Nsg153
(lp2402
I29
aI8
asg155
Nsg156
g2400
sg157
(lp2403
sg159
g62
sg160
Nsg161
Nsg162
Nsbag2
(g3
g4
Ntp2404
Rp2405
(dp2406
g8
g11
sg140
Nsg141
(dp2407
sg143
Nsg26
g29
sg144
(lp2408
I30
aI1
asg146
Nsg147
VMishnah Kelim 30:1
p2409
sg149
(lp2410
sg151
g101
sg152
Nsg153
(lp2411
I30
aI1
asg155
Nsg156
g2409
sg157
(lp2412
sg159
g62
sg160
Nsg161
Nsg162
Nsbag2
(g3
g4
Ntp2413
Rp2414
(dp2415
g8
g11
sg140
Nsg141
(dp2416
sg143
Nsg26
g29
sg144
(lp2417
I30
aI2
asg146
Nsg147
VMishnah Kelim 30:2
p2418
sg149
(lp2419
sg151
g101
sg152
Nsg153
(lp2420
I30
aI2
asg155
Nsg156
g2418
sg157
(lp2421
sg159
g62
sg160
Nsg161
Nsg162
Nsbag2
(g3
g4
Ntp2422
Rp2423
(dp2424
g8
g11
sg140
Nsg141
(dp2425
sg143
Nsg26
g29
sg144
(lp2426
I30
aI3
asg146
Nsg147
VMishnah Kelim 30:3
p2427
sg149
(lp2428
sg151
g101
sg152
Nsg153
(lp2429
I30
aI3
asg155
Nsg156
g2427
sg157
(lp2430
sg159
g62
sg160
Nsg161
Nsg162
Nsbag2
(g3
g4
Ntp2431
Rp2432
(dp2433
g8
g11
sg140
Nsg141
(dp2434
sg143
Nsg26
g29
sg144
(lp2435
I30
aI4
asg146
Nsg147
VMishnah Kelim 30:4
p2436
sg149
(lp2437
sg151
g101
sg152
Nsg153
(lp2438
I30
aI4
asg155
Nsg156
g2436
sg157
(lp2439
sg159
g62
sg160
Nsg161
Nsg162
Nsbatp2440
.