((lp0
I0
aI78
aI142
aI211
aI293
aI457
aI481
aI522
aI569
aI619
aI656
aI692
aI749
aI770
aI790
aI829
aI885
aI902
aI926
aI946
a(lp1
ccopy_reg
_reconstructor
p2
(csefaria.model.text
Ref
p3
c__builtin__
object
p4
Ntp5
Rp6
(dp7
S'index_node'
p8
g2
(csefaria.model.schema
JaggedArrayNode
p9
g4
Ntp10
Rp11
(dp12
S'_address'
p13
(lp14
VMishnah Horayot
p15
asS'_full_titles'
p16
(dp17
sVnodeType
p18
VJaggedArrayNode
p19
sS'parent'
p20
NsVaddressTypes
p21
(lp22
VPerek
p23
aVMishnah
p24
asS'default'
p25
I00
sS'index'
p26
g2
(csefaria.model.text
Index
p27
g4
Ntp28
Rp29
(dp30
S'_id'
p31
g2
(cbson.objectid
ObjectId
p32
g4
Ntp33
Rp34
S'NJ\xb8\x8f\xed\xba\xb4X3\x00\x00N'
p35
bsS'pkeys_orig_values'
p36
(dp37
S'title'
p38
VMishnah Horayot
p39
ssS'pubDate'
p40
V1492
p41
sS'compDate'
p42
V210
p43
sS'pubPlace'
p44
VNaples
p45
sS'compPlace'
p46
VTalmudic Israel
p47
sS'enDesc'
p48
VThe Mishnah is the first major written redaction of the Jewish oral traditions known as the Oral Torah. The Mishnah was redacted by Rabbi Yehudah Ha-Nasi before his death around 217 CE, in a time when, according to the Talmud, the persecution of the Jews and the passage of time raised the possibility that the details of the oral traditions of the Pharisees from the Second Temple period (536 BCE \u2013 70 CE) would be forgotten. The majority of the Mishnah is written in Mishnaic Hebrew, while some parts are Aramaic. The Mishnah consists of six orders (sedarim, singular seder), each containing 7\u201312 tractates (masekhtot, singular masekhet), numbering 63 in total and further subdivided into chapters and paragraphs or verses. The word Mishnah can also indicate a single paragraph or a verse of the work itself, i.e. the smallest unit of structure in the Mishnah. For this reason the whole work is sometimes called by the plural, Mishnayot. Horayot (Decisions) belongs to the fourth order, Nezikin (The Order of Damages) and discusses the communal sin-offering brought for major errors by the Sanhedrin. It has three chapters.
p49
sS'order'
p50
(lp51
I40
aI10
asS'era'
p52
VT
p53
sS'struct_objs'
p54
(dp55
sS'nodes'
p56
g11
sS'errorMargin'
p57
V20
p58
sS'_title'
p59
g39
sS'categories'
p60
(lp61
VMishnah
p62
aVSeder Nezikin
p63
asS'schema'
p64
(dp65
g18
g19
sg21
g22
sVlengths
p66
(lp67
I3
aI20
asVdepth
p68
I2
sVtitles
p69
(lp70
(dp71
Vlang
p72
Ven
p73
sVtext
p74
VM. Horayot
p75
sa(dp76
Vlang
p77
Ven
p78
sVtext
p79
VM Horayot
p80
sa(dp81
Vlang
p82
Ven
p83
sVtext
p84
VMishna Horayot
p85
sa(dp86
Vlang
p87
Vhe
p88
sVtext
p89
V\u05de\u05e9\u05e0\u05d4 \u05d4\u05d5\u05e8\u05d9\u05d5\u05ea
p90
sVprimary
p91
I01
sa(dp92
Vlang
p93
Ven
p94
sVtext
p95
VMishnah Horayot
p96
sVprimary
p97
I01
sasVkey
p98
g15
sVsectionNames
p99
(lp100
VChapter
p101
aVMishna
p102
assbsS'_primary_title'
p103
(dp104
sS'title_group'
p105
g2
(csefaria.model.schema
TitleGroup
p106
g4
Ntp107
Rp108
(dp109
g103
(dp110
S'en'
p111
g96
ssS'titles'
p112
g70
sbsS'_addressTypes'
p113
(lp114
g2
(csefaria.model.schema
AddressPerek
p115
g4
Ntp116
Rp117
(dp118
S'length'
p119
I3
sg50
I0
sbag2
(csefaria.model.schema
AddressMishnah
p120
g4
Ntp121
Rp122
(dp123
g119
Nsg50
I1
sbasS'sharedTitle'
p124
Nsg66
g67
sg68
I2
sS'_full_title'
p125
(dp126
g111
g96
ssS'key'
p127
g15
sS'checkFirst'
p128
NsS'_regexes'
p129
(dp130
sS'_leaf_nodes'
p131
(lp132
sg99
g100
sS'children'
p133
(lp134
sbsS'_range_index'
p135
NsS'_context'
p136
(dp137
sS'_padded'
p138
Nsg26
g29
sS'sections'
p139
(lp140
I1
aI1
asS'_first_spanned_ref'
p141
NsS'tref'
p142
VMishnah Horayot 1:1
p143
sS'_spanned_refs'
p144
(lp145
sS'book'
p146
g96
sS'_range_depth'
p147
NsS'toSections'
p148
(lp149
I1
aI1
asS'_url'
p150
NsS'_normal'
p151
g143
sS'_ranged_refs'
p152
(lp153
sS'type'
p154
g62
sS'_prev'
p155
NsS'_he_normal'
p156
NsS'_next'
p157
Nsbag2
(g3
g4
Ntp158
Rp159
(dp160
g8
g11
sg135
Nsg136
(dp161
sg138
Nsg26
g29
sg139
(lp162
I1
aI2
asg141
Nsg142
VMishnah Horayot 1:2
p163
sg144
(lp164
sg146
g96
sg147
Nsg148
(lp165
I1
aI2
asg150
Nsg151
g163
sg152
(lp166
sg154
g62
sg155
Nsg156
Nsg157
Nsbag2
(g3
g4
Ntp167
Rp168
(dp169
g8
g11
sg135
Nsg136
(dp170
sg138
Nsg26
g29
sg139
(lp171
I1
aI3
asg141
Nsg142
VMishnah Horayot 1:3
p172
sg144
(lp173
sg146
g96
sg147
Nsg148
(lp174
I1
aI3
asg150
Nsg151
g172
sg152
(lp175
sg154
g62
sg155
Nsg156
Nsg157
Nsbag2
(g3
g4
Ntp176
Rp177
(dp178
g8
g11
sg135
Nsg136
(dp179
sg138
Nsg26
g29
sg139
(lp180
I1
aI4
asg141
Nsg142
VMishnah Horayot 1:4
p181
sg144
(lp182
sg146
g96
sg147
Nsg148
(lp183
I1
aI4
asg150
Nsg151
g181
sg152
(lp184
sg154
g62
sg155
Nsg156
Nsg157
Nsbag2
(g3
g4
Ntp185
Rp186
(dp187
g8
g11
sg135
Nsg136
(dp188
sg138
Nsg26
g29
sg139
(lp189
I1
aI5
asg141
Nsg142
VMishnah Horayot 1:5
p190
sg144
(lp191
sg146
g96
sg147
Nsg148
(lp192
I1
aI5
asg150
Nsg151
g190
sg152
(lp193
sg154
g62
sg155
Nsg156
Nsg157
Nsbag2
(g3
g4
Ntp194
Rp195
(dp196
g8
g11
sg135
Nsg136
(dp197
sg138
Nsg26
g29
sg139
(lp198
I2
aI1
asg141
Nsg142
VMishnah Horayot 2:1
p199
sg144
(lp200
sg146
g96
sg147
Nsg148
(lp201
I2
aI1
asg150
Nsg151
g199
sg152
(lp202
sg154
g62
sg155
Nsg156
Nsg157
Nsbag2
(g3
g4
Ntp203
Rp204
(dp205
g8
g11
sg135
Nsg136
(dp206
sg138
Nsg26
g29
sg139
(lp207
I2
aI2
asg141
Nsg142
VMishnah Horayot 2:2
p208
sg144
(lp209
sg146
g96
sg147
Nsg148
(lp210
I2
aI2
asg150
Nsg151
g208
sg152
(lp211
sg154
g62
sg155
Nsg156
Nsg157
Nsbag2
(g3
g4
Ntp212
Rp213
(dp214
g8
g11
sg135
Nsg136
(dp215
sg138
Nsg26
g29
sg139
(lp216
I2
aI3
asg141
Nsg142
VMishnah Horayot 2:3
p217
sg144
(lp218
sg146
g96
sg147
Nsg148
(lp219
I2
aI3
asg150
Nsg151
g217
sg152
(lp220
sg154
g62
sg155
Nsg156
Nsg157
Nsbag2
(g3
g4
Ntp221
Rp222
(dp223
g8
g11
sg135
Nsg136
(dp224
sg138
Nsg26
g29
sg139
(lp225
I2
aI4
asg141
Nsg142
VMishnah Horayot 2:4
p226
sg144
(lp227
sg146
g96
sg147
Nsg148
(lp228
I2
aI4
asg150
Nsg151
g226
sg152
(lp229
sg154
g62
sg155
Nsg156
Nsg157
Nsbag2
(g3
g4
Ntp230
Rp231
(dp232
g8
g11
sg135
Nsg136
(dp233
sg138
Nsg26
g29
sg139
(lp234
I2
aI5
asg141
Nsg142
VMishnah Horayot 2:5
p235
sg144
(lp236
sg146
g96
sg147
Nsg148
(lp237
I2
aI5
asg150
Nsg151
g235
sg152
(lp238
sg154
g62
sg155
Nsg156
Nsg157
Nsbag2
(g3
g4
Ntp239
Rp240
(dp241
g8
g11
sg135
Nsg136
(dp242
sg138
Nsg26
g29
sg139
(lp243
I2
aI6
asg141
Nsg142
VMishnah Horayot 2:6
p244
sg144
(lp245
sg146
g96
sg147
Nsg148
(lp246
I2
aI6
asg150
Nsg151
g244
sg152
(lp247
sg154
g62
sg155
Nsg156
Nsg157
Nsbag2
(g3
g4
Ntp248
Rp249
(dp250
g8
g11
sg135
Nsg136
(dp251
sg138
Nsg26
g29
sg139
(lp252
I2
aI7
asg141
Nsg142
VMishnah Horayot 2:7
p253
sg144
(lp254
sg146
g96
sg147
Nsg148
(lp255
I2
aI7
asg150
Nsg151
g253
sg152
(lp256
sg154
g62
sg155
Nsg156
Nsg157
Nsbag2
(g3
g4
Ntp257
Rp258
(dp259
g8
g11
sg135
Nsg136
(dp260
sg138
Nsg26
g29
sg139
(lp261
I3
aI1
asg141
Nsg142
VMishnah Horayot 3:1
p262
sg144
(lp263
sg146
g96
sg147
Nsg148
(lp264
I3
aI1
asg150
Nsg151
g262
sg152
(lp265
sg154
g62
sg155
Nsg156
Nsg157
Nsbag2
(g3
g4
Ntp266
Rp267
(dp268
g8
g11
sg135
Nsg136
(dp269
sg138
Nsg26
g29
sg139
(lp270
I3
aI2
asg141
Nsg142
VMishnah Horayot 3:2
p271
sg144
(lp272
sg146
g96
sg147
Nsg148
(lp273
I3
aI2
asg150
Nsg151
g271
sg152
(lp274
sg154
g62
sg155
Nsg156
Nsg157
Nsbag2
(g3
g4
Ntp275
Rp276
(dp277
g8
g11
sg135
Nsg136
(dp278
sg138
Nsg26
g29
sg139
(lp279
I3
aI3
asg141
Nsg142
VMishnah Horayot 3:3
p280
sg144
(lp281
sg146
g96
sg147
Nsg148
(lp282
I3
aI3
asg150
Nsg151
g280
sg152
(lp283
sg154
g62
sg155
Nsg156
Nsg157
Nsbag2
(g3
g4
Ntp284
Rp285
(dp286
g8
g11
sg135
Nsg136
(dp287
sg138
Nsg26
g29
sg139
(lp288
I3
aI4
asg141
Nsg142
VMishnah Horayot 3:4
p289
sg144
(lp290
sg146
g96
sg147
Nsg148
(lp291
I3
aI4
asg150
Nsg151
g289
sg152
(lp292
sg154
g62
sg155
Nsg156
Nsg157
Nsbag2
(g3
g4
Ntp293
Rp294
(dp295
g8
g11
sg135
Nsg136
(dp296
sg138
Nsg26
g29
sg139
(lp297
I3
aI5
asg141
Nsg142
VMishnah Horayot 3:5
p298
sg144
(lp299
sg146
g96
sg147
Nsg148
(lp300
I3
aI5
asg150
Nsg151
g298
sg152
(lp301
sg154
g62
sg155
Nsg156
Nsg157
Nsbag2
(g3
g4
Ntp302
Rp303
(dp304
g8
g11
sg135
Nsg136
(dp305
sg138
Nsg26
g29
sg139
(lp306
I3
aI6
asg141
Nsg142
VMishnah Horayot 3:6
p307
sg144
(lp308
sg146
g96
sg147
Nsg148
(lp309
I3
aI6
asg150
Nsg151
g307
sg152
(lp310
sg154
g62
sg155
Nsg156
Nsg157
Nsbag2
(g3
g4
Ntp311
Rp312
(dp313
g8
g11
sg135
Nsg136
(dp314
sg138
Nsg26
g29
sg139
(lp315
I3
aI7
asg141
Nsg142
VMishnah Horayot 3:7
p316
sg144
(lp317
sg146
g96
sg147
Nsg148
(lp318
I3
aI7
asg150
Nsg151
g316
sg152
(lp319
sg154
g62
sg155
Nsg156
Nsg157
Nsbag2
(g3
g4
Ntp320
Rp321
(dp322
g8
g11
sg135
Nsg136
(dp323
sg138
Nsg26
g29
sg139
(lp324
I3
aI8
asg141
Nsg142
VMishnah Horayot 3:8
p325
sg144
(lp326
sg146
g96
sg147
Nsg148
(lp327
I3
aI8
asg150
Nsg151
g325
sg152
(lp328
sg154
g62
sg155
Nsg156
Nsg157
Nsbatp329
.