((lp0
I0
aI46
aI64
aI94
aI118
aI184
aI226
aI303
aI324
aI358
aI412
aI457
aI506
aI536
aI559
aI607
aI635
aI710
aI728
aI872
aI937
aI998
aI1031
aI1057
aI1087
aI1129
aI1179
aI1235
aI1293
aI1329
aI1392
aI1468
aI1488
aI1538
aI1588
aI1663
aI1715
aI1790
aI1849
aI1889
aI1940
aI1991
aI2088
aI2141
aI2197
aI2251
aI2298
aI2330
aI2378
aI2425
a(lp1
ccopy_reg
_reconstructor
p2
(csefaria.model.text
Ref
p3
c__builtin__
object
p4
Ntp5
Rp6
(dp7
S'index_node'
p8
g2
(csefaria.model.schema
JaggedArrayNode
p9
g4
Ntp10
Rp11
(dp12
S'_address'
p13
(lp14
VMishnah Arakhin
p15
asS'_full_titles'
p16
(dp17
sVnodeType
p18
VJaggedArrayNode
p19
sS'parent'
p20
NsVaddressTypes
p21
(lp22
VPerek
p23
aVMishnah
p24
asS'default'
p25
I00
sS'index'
p26
g2
(csefaria.model.text
Index
p27
g4
Ntp28
Rp29
(dp30
S'_id'
p31
g2
(cbson.objectid
ObjectId
p32
g4
Ntp33
Rp34
S'NJ\xb8\x8f\xed\xba\xb4X3\x00\x00S'
p35
bsS'pkeys_orig_values'
p36
(dp37
S'title'
p38
VMishnah Arakhin
p39
ssS'pubDate'
p40
V1492
p41
sS'compDate'
p42
V210
p43
sS'pubPlace'
p44
VNaples
p45
sS'compPlace'
p46
VTalmudic Israel
p47
sS'enDesc'
p48
VThe Mishnah is the first major written redaction of the Jewish oral traditions known as the Oral Torah. The Mishnah was redacted by Rabbi Yehudah Ha-Nasi before his death around 217 CE, in a time when, according to the Talmud, the persecution of the Jews and the passage of time raised the possibility that the details of the oral traditions of the Pharisees from the Second Temple period (536 BCE \u2013 70 CE) would be forgotten. The majority of the Mishnah is written in Mishnaic Hebrew, while some parts are Aramaic. The Mishnah consists of six orders (sedarim, singular seder), each containing 7\u201312 tractates (masekhtot, singular masekhet), numbering 63 in total and further subdivided into chapters and paragraphs or verses. The word Mishnah can also indicate a single paragraph or a verse of the work itself, i.e. the smallest unit of structure in the Mishnah. For this reason the whole work is sometimes called by the plural, Mishnayot. Arakhin (Dedications) belongs to the fifth order, Kodshim (Holy things) and discusses a person dedicating their value to the Temple or dedicating a field. It has nine chapters.
p49
sS'order'
p50
(lp51
I45
aI5
asS'era'
p52
VT
p53
sS'struct_objs'
p54
(dp55
sS'nodes'
p56
g11
sS'errorMargin'
p57
V20
p58
sS'_title'
p59
g39
sS'categories'
p60
(lp61
VMishnah
p62
aVSeder Kodashim
p63
asS'schema'
p64
(dp65
g18
g19
sg21
g22
sVlengths
p66
(lp67
I9
aI50
asVdepth
p68
I2
sVtitles
p69
(lp70
(dp71
Vlang
p72
Ven
p73
sVtext
p74
VMishna Arakhin
p75
sa(dp76
Vlang
p77
Ven
p78
sVtext
p79
VM Arakhin
p80
sa(dp81
Vlang
p82
Ven
p83
sVtext
p84
VM. Arakhin
p85
sa(dp86
Vlang
p87
Vhe
p88
sVtext
p89
V\u05de\u05e9\u05e0\u05d4 \u05e2\u05e8\u05db\u05d9\u05df
p90
sVprimary
p91
I01
sa(dp92
Vlang
p93
Ven
p94
sVtext
p95
VMishnah Arakhin
p96
sVprimary
p97
I01
sasVkey
p98
g15
sVsectionNames
p99
(lp100
VChapter
p101
aVMishna
p102
assbsS'_primary_title'
p103
(dp104
sS'title_group'
p105
g2
(csefaria.model.schema
TitleGroup
p106
g4
Ntp107
Rp108
(dp109
g103
(dp110
S'en'
p111
g96
ssS'titles'
p112
g70
sbsS'_addressTypes'
p113
(lp114
g2
(csefaria.model.schema
AddressPerek
p115
g4
Ntp116
Rp117
(dp118
S'length'
p119
I9
sg50
I0
sbag2
(csefaria.model.schema
AddressMishnah
p120
g4
Ntp121
Rp122
(dp123
g119
Nsg50
I1
sbasS'sharedTitle'
p124
Nsg66
g67
sg68
I2
sS'_full_title'
p125
(dp126
g111
g96
ssS'key'
p127
g15
sS'checkFirst'
p128
NsS'_regexes'
p129
(dp130
sS'_leaf_nodes'
p131
(lp132
sg99
g100
sS'children'
p133
(lp134
sbsS'_range_index'
p135
NsS'_context'
p136
(dp137
sS'_padded'
p138
Nsg26
g29
sS'sections'
p139
(lp140
I1
aI1
asS'_first_spanned_ref'
p141
NsS'tref'
p142
VMishnah Arakhin 1:1
p143
sS'_spanned_refs'
p144
(lp145
sS'book'
p146
g96
sS'_range_depth'
p147
NsS'toSections'
p148
(lp149
I1
aI1
asS'_url'
p150
NsS'_normal'
p151
g143
sS'_ranged_refs'
p152
(lp153
sS'type'
p154
g62
sS'_prev'
p155
NsS'_he_normal'
p156
NsS'_next'
p157
Nsbag2
(g3
g4
Ntp158
Rp159
(dp160
g8
g11
sg135
Nsg136
(dp161
sg138
Nsg26
g29
sg139
(lp162
I1
aI2
asg141
Nsg142
VMishnah Arakhin 1:2
p163
sg144
(lp164
sg146
g96
sg147
Nsg148
(lp165
I1
aI2
asg150
Nsg151
g163
sg152
(lp166
sg154
g62
sg155
Nsg156
Nsg157
Nsbag2
(g3
g4
Ntp167
Rp168
(dp169
g8
g11
sg135
Nsg136
(dp170
sg138
Nsg26
g29
sg139
(lp171
I1
aI3
asg141
Nsg142
VMishnah Arakhin 1:3
p172
sg144
(lp173
sg146
g96
sg147
Nsg148
(lp174
I1
aI3
asg150
Nsg151
g172
sg152
(lp175
sg154
g62
sg155
Nsg156
Nsg157
Nsbag2
(g3
g4
Ntp176
Rp177
(dp178
g8
g11
sg135
Nsg136
(dp179
sg138
Nsg26
g29
sg139
(lp180
I1
aI4
asg141
Nsg142
VMishnah Arakhin 1:4
p181
sg144
(lp182
sg146
g96
sg147
Nsg148
(lp183
I1
aI4
asg150
Nsg151
g181
sg152
(lp184
sg154
g62
sg155
Nsg156
Nsg157
Nsbag2
(g3
g4
Ntp185
Rp186
(dp187
g8
g11
sg135
Nsg136
(dp188
sg138
Nsg26
g29
sg139
(lp189
I2
aI1
asg141
Nsg142
VMishnah Arakhin 2:1
p190
sg144
(lp191
sg146
g96
sg147
Nsg148
(lp192
I2
aI1
asg150
Nsg151
g190
sg152
(lp193
sg154
g62
sg155
Nsg156
Nsg157
Nsbag2
(g3
g4
Ntp194
Rp195
(dp196
g8
g11
sg135
Nsg136
(dp197
sg138
Nsg26
g29
sg139
(lp198
I2
aI2
asg141
Nsg142
VMishnah Arakhin 2:2
p199
sg144
(lp200
sg146
g96
sg147
Nsg148
(lp201
I2
aI2
asg150
Nsg151
g199
sg152
(lp202
sg154
g62
sg155
Nsg156
Nsg157
Nsbag2
(g3
g4
Ntp203
Rp204
(dp205
g8
g11
sg135
Nsg136
(dp206
sg138
Nsg26
g29
sg139
(lp207
I2
aI3
asg141
Nsg142
VMishnah Arakhin 2:3
p208
sg144
(lp209
sg146
g96
sg147
Nsg148
(lp210
I2
aI3
asg150
Nsg151
g208
sg152
(lp211
sg154
g62
sg155
Nsg156
Nsg157
Nsbag2
(g3
g4
Ntp212
Rp213
(dp214
g8
g11
sg135
Nsg136
(dp215
sg138
Nsg26
g29
sg139
(lp216
I2
aI4
asg141
Nsg142
VMishnah Arakhin 2:4
p217
sg144
(lp218
sg146
g96
sg147
Nsg148
(lp219
I2
aI4
asg150
Nsg151
g217
sg152
(lp220
sg154
g62
sg155
Nsg156
Nsg157
Nsbag2
(g3
g4
Ntp221
Rp222
(dp223
g8
g11
sg135
Nsg136
(dp224
sg138
Nsg26
g29
sg139
(lp225
I2
aI5
asg141
Nsg142
VMishnah Arakhin 2:5
p226
sg144
(lp227
sg146
g96
sg147
Nsg148
(lp228
I2
aI5
asg150
Nsg151
g226
sg152
(lp229
sg154
g62
sg155
Nsg156
Nsg157
Nsbag2
(g3
g4
Ntp230
Rp231
(dp232
g8
g11
sg135
Nsg136
(dp233
sg138
Nsg26
g29
sg139
(lp234
I2
aI6
asg141
Nsg142
VMishnah Arakhin 2:6
p235
sg144
(lp236
sg146
g96
sg147
Nsg148
(lp237
I2
aI6
asg150
Nsg151
g235
sg152
(lp238
sg154
g62
sg155
Nsg156
Nsg157
Nsbag2
(g3
g4
Ntp239
Rp240
(dp241
g8
g11
sg135
Nsg136
(dp242
sg138
Nsg26
g29
sg139
(lp243
I3
aI1
asg141
Nsg142
VMishnah Arakhin 3:1
p244
sg144
(lp245
sg146
g96
sg147
Nsg148
(lp246
I3
aI1
asg150
Nsg151
g244
sg152
(lp247
sg154
g62
sg155
Nsg156
Nsg157
Nsbag2
(g3
g4
Ntp248
Rp249
(dp250
g8
g11
sg135
Nsg136
(dp251
sg138
Nsg26
g29
sg139
(lp252
I3
aI2
asg141
Nsg142
VMishnah Arakhin 3:2
p253
sg144
(lp254
sg146
g96
sg147
Nsg148
(lp255
I3
aI2
asg150
Nsg151
g253
sg152
(lp256
sg154
g62
sg155
Nsg156
Nsg157
Nsbag2
(g3
g4
Ntp257
Rp258
(dp259
g8
g11
sg135
Nsg136
(dp260
sg138
Nsg26
g29
sg139
(lp261
I3
aI3
asg141
Nsg142
VMishnah Arakhin 3:3
p262
sg144
(lp263
sg146
g96
sg147
Nsg148
(lp264
I3
aI3
asg150
Nsg151
g262
sg152
(lp265
sg154
g62
sg155
Nsg156
Nsg157
Nsbag2
(g3
g4
Ntp266
Rp267
(dp268
g8
g11
sg135
Nsg136
(dp269
sg138
Nsg26
g29
sg139
(lp270
I3
aI4
asg141
Nsg142
VMishnah Arakhin 3:4
p271
sg144
(lp272
sg146
g96
sg147
Nsg148
(lp273
I3
aI4
asg150
Nsg151
g271
sg152
(lp274
sg154
g62
sg155
Nsg156
Nsg157
Nsbag2
(g3
g4
Ntp275
Rp276
(dp277
g8
g11
sg135
Nsg136
(dp278
sg138
Nsg26
g29
sg139
(lp279
I3
aI5
asg141
Nsg142
VMishnah Arakhin 3:5
p280
sg144
(lp281
sg146
g96
sg147
Nsg148
(lp282
I3
aI5
asg150
Nsg151
g280
sg152
(lp283
sg154
g62
sg155
Nsg156
Nsg157
Nsbag2
(g3
g4
Ntp284
Rp285
(dp286
g8
g11
sg135
Nsg136
(dp287
sg138
Nsg26
g29
sg139
(lp288
I4
aI1
asg141
Nsg142
VMishnah Arakhin 4:1
p289
sg144
(lp290
sg146
g96
sg147
Nsg148
(lp291
I4
aI1
asg150
Nsg151
g289
sg152
(lp292
sg154
g62
sg155
Nsg156
Nsg157
Nsbag2
(g3
g4
Ntp293
Rp294
(dp295
g8
g11
sg135
Nsg136
(dp296
sg138
Nsg26
g29
sg139
(lp297
I4
aI2
asg141
Nsg142
VMishnah Arakhin 4:2
p298
sg144
(lp299
sg146
g96
sg147
Nsg148
(lp300
I4
aI2
asg150
Nsg151
g298
sg152
(lp301
sg154
g62
sg155
Nsg156
Nsg157
Nsbag2
(g3
g4
Ntp302
Rp303
(dp304
g8
g11
sg135
Nsg136
(dp305
sg138
Nsg26
g29
sg139
(lp306
I4
aI3
asg141
Nsg142
VMishnah Arakhin 4:3
p307
sg144
(lp308
sg146
g96
sg147
Nsg148
(lp309
I4
aI3
asg150
Nsg151
g307
sg152
(lp310
sg154
g62
sg155
Nsg156
Nsg157
Nsbag2
(g3
g4
Ntp311
Rp312
(dp313
g8
g11
sg135
Nsg136
(dp314
sg138
Nsg26
g29
sg139
(lp315
I4
aI4
asg141
Nsg142
VMishnah Arakhin 4:4
p316
sg144
(lp317
sg146
g96
sg147
Nsg148
(lp318
I4
aI4
asg150
Nsg151
g316
sg152
(lp319
sg154
g62
sg155
Nsg156
Nsg157
Nsbag2
(g3
g4
Ntp320
Rp321
(dp322
g8
g11
sg135
Nsg136
(dp323
sg138
Nsg26
g29
sg139
(lp324
I5
aI1
asg141
Nsg142
VMishnah Arakhin 5:1
p325
sg144
(lp326
sg146
g96
sg147
Nsg148
(lp327
I5
aI1
asg150
Nsg151
g325
sg152
(lp328
sg154
g62
sg155
Nsg156
Nsg157
Nsbag2
(g3
g4
Ntp329
Rp330
(dp331
g8
g11
sg135
Nsg136
(dp332
sg138
Nsg26
g29
sg139
(lp333
I5
aI2
asg141
Nsg142
VMishnah Arakhin 5:2
p334
sg144
(lp335
sg146
g96
sg147
Nsg148
(lp336
I5
aI2
asg150
Nsg151
g334
sg152
(lp337
sg154
g62
sg155
Nsg156
Nsg157
Nsbag2
(g3
g4
Ntp338
Rp339
(dp340
g8
g11
sg135
Nsg136
(dp341
sg138
Nsg26
g29
sg139
(lp342
I5
aI3
asg141
Nsg142
VMishnah Arakhin 5:3
p343
sg144
(lp344
sg146
g96
sg147
Nsg148
(lp345
I5
aI3
asg150
Nsg151
g343
sg152
(lp346
sg154
g62
sg155
Nsg156
Nsg157
Nsbag2
(g3
g4
Ntp347
Rp348
(dp349
g8
g11
sg135
Nsg136
(dp350
sg138
Nsg26
g29
sg139
(lp351
I5
aI4
asg141
Nsg142
VMishnah Arakhin 5:4
p352
sg144
(lp353
sg146
g96
sg147
Nsg148
(lp354
I5
aI4
asg150
Nsg151
g352
sg152
(lp355
sg154
g62
sg155
Nsg156
Nsg157
Nsbag2
(g3
g4
Ntp356
Rp357
(dp358
g8
g11
sg135
Nsg136
(dp359
sg138
Nsg26
g29
sg139
(lp360
I5
aI5
asg141
Nsg142
VMishnah Arakhin 5:5
p361
sg144
(lp362
sg146
g96
sg147
Nsg148
(lp363
I5
aI5
asg150
Nsg151
g361
sg152
(lp364
sg154
g62
sg155
Nsg156
Nsg157
Nsbag2
(g3
g4
Ntp365
Rp366
(dp367
g8
g11
sg135
Nsg136
(dp368
sg138
Nsg26
g29
sg139
(lp369
I5
aI6
asg141
Nsg142
VMishnah Arakhin 5:6
p370
sg144
(lp371
sg146
g96
sg147
Nsg148
(lp372
I5
aI6
asg150
Nsg151
g370
sg152
(lp373
sg154
g62
sg155
Nsg156
Nsg157
Nsbag2
(g3
g4
Ntp374
Rp375
(dp376
g8
g11
sg135
Nsg136
(dp377
sg138
Nsg26
g29
sg139
(lp378
I6
aI1
asg141
Nsg142
VMishnah Arakhin 6:1
p379
sg144
(lp380
sg146
g96
sg147
Nsg148
(lp381
I6
aI1
asg150
Nsg151
g379
sg152
(lp382
sg154
g62
sg155
Nsg156
Nsg157
Nsbag2
(g3
g4
Ntp383
Rp384
(dp385
g8
g11
sg135
Nsg136
(dp386
sg138
Nsg26
g29
sg139
(lp387
I6
aI2
asg141
Nsg142
VMishnah Arakhin 6:2
p388
sg144
(lp389
sg146
g96
sg147
Nsg148
(lp390
I6
aI2
asg150
Nsg151
g388
sg152
(lp391
sg154
g62
sg155
Nsg156
Nsg157
Nsbag2
(g3
g4
Ntp392
Rp393
(dp394
g8
g11
sg135
Nsg136
(dp395
sg138
Nsg26
g29
sg139
(lp396
I6
aI3
asg141
Nsg142
VMishnah Arakhin 6:3
p397
sg144
(lp398
sg146
g96
sg147
Nsg148
(lp399
I6
aI3
asg150
Nsg151
g397
sg152
(lp400
sg154
g62
sg155
Nsg156
Nsg157
Nsbag2
(g3
g4
Ntp401
Rp402
(dp403
g8
g11
sg135
Nsg136
(dp404
sg138
Nsg26
g29
sg139
(lp405
I6
aI4
asg141
Nsg142
VMishnah Arakhin 6:4
p406
sg144
(lp407
sg146
g96
sg147
Nsg148
(lp408
I6
aI4
asg150
Nsg151
g406
sg152
(lp409
sg154
g62
sg155
Nsg156
Nsg157
Nsbag2
(g3
g4
Ntp410
Rp411
(dp412
g8
g11
sg135
Nsg136
(dp413
sg138
Nsg26
g29
sg139
(lp414
I6
aI5
asg141
Nsg142
VMishnah Arakhin 6:5
p415
sg144
(lp416
sg146
g96
sg147
Nsg148
(lp417
I6
aI5
asg150
Nsg151
g415
sg152
(lp418
sg154
g62
sg155
Nsg156
Nsg157
Nsbag2
(g3
g4
Ntp419
Rp420
(dp421
g8
g11
sg135
Nsg136
(dp422
sg138
Nsg26
g29
sg139
(lp423
I7
aI1
asg141
Nsg142
VMishnah Arakhin 7:1
p424
sg144
(lp425
sg146
g96
sg147
Nsg148
(lp426
I7
aI1
asg150
Nsg151
g424
sg152
(lp427
sg154
g62
sg155
Nsg156
Nsg157
Nsbag2
(g3
g4
Ntp428
Rp429
(dp430
g8
g11
sg135
Nsg136
(dp431
sg138
Nsg26
g29
sg139
(lp432
I7
aI2
asg141
Nsg142
VMishnah Arakhin 7:2
p433
sg144
(lp434
sg146
g96
sg147
Nsg148
(lp435
I7
aI2
asg150
Nsg151
g433
sg152
(lp436
sg154
g62
sg155
Nsg156
Nsg157
Nsbag2
(g3
g4
Ntp437
Rp438
(dp439
g8
g11
sg135
Nsg136
(dp440
sg138
Nsg26
g29
sg139
(lp441
I7
aI3
asg141
Nsg142
VMishnah Arakhin 7:3
p442
sg144
(lp443
sg146
g96
sg147
Nsg148
(lp444
I7
aI3
asg150
Nsg151
g442
sg152
(lp445
sg154
g62
sg155
Nsg156
Nsg157
Nsbag2
(g3
g4
Ntp446
Rp447
(dp448
g8
g11
sg135
Nsg136
(dp449
sg138
Nsg26
g29
sg139
(lp450
I7
aI4
asg141
Nsg142
VMishnah Arakhin 7:4
p451
sg144
(lp452
sg146
g96
sg147
Nsg148
(lp453
I7
aI4
asg150
Nsg151
g451
sg152
(lp454
sg154
g62
sg155
Nsg156
Nsg157
Nsbag2
(g3
g4
Ntp455
Rp456
(dp457
g8
g11
sg135
Nsg136
(dp458
sg138
Nsg26
g29
sg139
(lp459
I7
aI5
asg141
Nsg142
VMishnah Arakhin 7:5
p460
sg144
(lp461
sg146
g96
sg147
Nsg148
(lp462
I7
aI5
asg150
Nsg151
g460
sg152
(lp463
sg154
g62
sg155
Nsg156
Nsg157
Nsbag2
(g3
g4
Ntp464
Rp465
(dp466
g8
g11
sg135
Nsg136
(dp467
sg138
Nsg26
g29
sg139
(lp468
I8
aI1
asg141
Nsg142
VMishnah Arakhin 8:1
p469
sg144
(lp470
sg146
g96
sg147
Nsg148
(lp471
I8
aI1
asg150
Nsg151
g469
sg152
(lp472
sg154
g62
sg155
Nsg156
Nsg157
Nsbag2
(g3
g4
Ntp473
Rp474
(dp475
g8
g11
sg135
Nsg136
(dp476
sg138
Nsg26
g29
sg139
(lp477
I8
aI2
asg141
Nsg142
VMishnah Arakhin 8:2
p478
sg144
(lp479
sg146
g96
sg147
Nsg148
(lp480
I8
aI2
asg150
Nsg151
g478
sg152
(lp481
sg154
g62
sg155
Nsg156
Nsg157
Nsbag2
(g3
g4
Ntp482
Rp483
(dp484
g8
g11
sg135
Nsg136
(dp485
sg138
Nsg26
g29
sg139
(lp486
I8
aI3
asg141
Nsg142
VMishnah Arakhin 8:3
p487
sg144
(lp488
sg146
g96
sg147
Nsg148
(lp489
I8
aI3
asg150
Nsg151
g487
sg152
(lp490
sg154
g62
sg155
Nsg156
Nsg157
Nsbag2
(g3
g4
Ntp491
Rp492
(dp493
g8
g11
sg135
Nsg136
(dp494
sg138
Nsg26
g29
sg139
(lp495
I8
aI4
asg141
Nsg142
VMishnah Arakhin 8:4
p496
sg144
(lp497
sg146
g96
sg147
Nsg148
(lp498
I8
aI4
asg150
Nsg151
g496
sg152
(lp499
sg154
g62
sg155
Nsg156
Nsg157
Nsbag2
(g3
g4
Ntp500
Rp501
(dp502
g8
g11
sg135
Nsg136
(dp503
sg138
Nsg26
g29
sg139
(lp504
I8
aI5
asg141
Nsg142
VMishnah Arakhin 8:5
p505
sg144
(lp506
sg146
g96
sg147
Nsg148
(lp507
I8
aI5
asg150
Nsg151
g505
sg152
(lp508
sg154
g62
sg155
Nsg156
Nsg157
Nsbag2
(g3
g4
Ntp509
Rp510
(dp511
g8
g11
sg135
Nsg136
(dp512
sg138
Nsg26
g29
sg139
(lp513
I8
aI6
asg141
Nsg142
VMishnah Arakhin 8:6
p514
sg144
(lp515
sg146
g96
sg147
Nsg148
(lp516
I8
aI6
asg150
Nsg151
g514
sg152
(lp517
sg154
g62
sg155
Nsg156
Nsg157
Nsbag2
(g3
g4
Ntp518
Rp519
(dp520
g8
g11
sg135
Nsg136
(dp521
sg138
Nsg26
g29
sg139
(lp522
I8
aI7
asg141
Nsg142
VMishnah Arakhin 8:7
p523
sg144
(lp524
sg146
g96
sg147
Nsg148
(lp525
I8
aI7
asg150
Nsg151
g523
sg152
(lp526
sg154
g62
sg155
Nsg156
Nsg157
Nsbag2
(g3
g4
Ntp527
Rp528
(dp529
g8
g11
sg135
Nsg136
(dp530
sg138
Nsg26
g29
sg139
(lp531
I9
aI1
asg141
Nsg142
VMishnah Arakhin 9:1
p532
sg144
(lp533
sg146
g96
sg147
Nsg148
(lp534
I9
aI1
asg150
Nsg151
g532
sg152
(lp535
sg154
g62
sg155
Nsg156
Nsg157
Nsbag2
(g3
g4
Ntp536
Rp537
(dp538
g8
g11
sg135
Nsg136
(dp539
sg138
Nsg26
g29
sg139
(lp540
I9
aI2
asg141
Nsg142
VMishnah Arakhin 9:2
p541
sg144
(lp542
sg146
g96
sg147
Nsg148
(lp543
I9
aI2
asg150
Nsg151
g541
sg152
(lp544
sg154
g62
sg155
Nsg156
Nsg157
Nsbag2
(g3
g4
Ntp545
Rp546
(dp547
g8
g11
sg135
Nsg136
(dp548
sg138
Nsg26
g29
sg139
(lp549
I9
aI3
asg141
Nsg142
VMishnah Arakhin 9:3
p550
sg144
(lp551
sg146
g96
sg147
Nsg148
(lp552
I9
aI3
asg150
Nsg151
g550
sg152
(lp553
sg154
g62
sg155
Nsg156
Nsg157
Nsbag2
(g3
g4
Ntp554
Rp555
(dp556
g8
g11
sg135
Nsg136
(dp557
sg138
Nsg26
g29
sg139
(lp558
I9
aI4
asg141
Nsg142
VMishnah Arakhin 9:4
p559
sg144
(lp560
sg146
g96
sg147
Nsg148
(lp561
I9
aI4
asg150
Nsg151
g559
sg152
(lp562
sg154
g62
sg155
Nsg156
Nsg157
Nsbag2
(g3
g4
Ntp563
Rp564
(dp565
g8
g11
sg135
Nsg136
(dp566
sg138
Nsg26
g29
sg139
(lp567
I9
aI5
asg141
Nsg142
VMishnah Arakhin 9:5
p568
sg144
(lp569
sg146
g96
sg147
Nsg148
(lp570
I9
aI5
asg150
Nsg151
g568
sg152
(lp571
sg154
g62
sg155
Nsg156
Nsg157
Nsbag2
(g3
g4
Ntp572
Rp573
(dp574
g8
g11
sg135
Nsg136
(dp575
sg138
Nsg26
g29
sg139
(lp576
I9
aI6
asg141
Nsg142
VMishnah Arakhin 9:6
p577
sg144
(lp578
sg146
g96
sg147
Nsg148
(lp579
I9
aI6
asg150
Nsg151
g577
sg152
(lp580
sg154
g62
sg155
Nsg156
Nsg157
Nsbag2
(g3
g4
Ntp581
Rp582
(dp583
g8
g11
sg135
Nsg136
(dp584
sg138
Nsg26
g29
sg139
(lp585
I9
aI7
asg141
Nsg142
VMishnah Arakhin 9:7
p586
sg144
(lp587
sg146
g96
sg147
Nsg148
(lp588
I9
aI7
asg150
Nsg151
g586
sg152
(lp589
sg154
g62
sg155
Nsg156
Nsg157
Nsbag2
(g3
g4
Ntp590
Rp591
(dp592
g8
g11
sg135
Nsg136
(dp593
sg138
Nsg26
g29
sg139
(lp594
I9
aI8
asg141
Nsg142
VMishnah Arakhin 9:8
p595
sg144
(lp596
sg146
g96
sg147
Nsg148
(lp597
I9
aI8
asg150
Nsg151
g595
sg152
(lp598
sg154
g62
sg155
Nsg156
Nsg157
Nsbatp599
.