((lp0
I0
aI85
aI164
aI186
aI242
aI283
aI329
aI354
aI375
aI423
aI456
aI550
aI586
aI614
aI656
aI684
aI706
aI738
aI782
aI835
aI907
aI976
aI1029
aI1095
aI1156
aI1188
aI1219
aI1261
aI1274
aI1296
aI1322
aI1403
aI1429
aI1468
aI1527
aI1571
aI1594
aI1661
aI1698
aI1720
aI1767
aI1830
aI1863
aI1913
aI1953
aI1983
aI2007
aI2082
aI2121
aI2192
aI2259
aI2295
aI2340
aI2383
aI2512
aI2558
aI2589
aI2632
aI2716
aI2801
aI2836
aI2878
aI2934
aI3022
aI3081
aI3132
aI3188
aI3248
aI3383
aI3420
aI3524
aI3598
aI3656
aI3702
aI3726
aI3762
aI3810
aI3836
aI3861
aI3889
aI3946
aI4036
aI4089
aI4204
aI4237
aI4277
aI4324
aI4341
aI4369
aI4478
aI4542
aI4589
aI4608
aI4674
aI4698
aI4727
aI4802
aI4853
aI4915
aI4950
aI4991
aI5036
aI5062
aI5131
aI5147
aI5199
aI5433
aI5487
aI5529
aI5584
aI5638
aI5705
aI5744
aI5851
aI5881
aI5906
aI5967
aI6000
aI6065
aI6112
aI6171
aI6215
aI6266
a(lp1
ccopy_reg
_reconstructor
p2
(csefaria.model.text
Ref
p3
c__builtin__
object
p4
Ntp5
Rp6
(dp7
S'index_node'
p8
g2
(csefaria.model.schema
JaggedArrayNode
p9
g4
Ntp10
Rp11
(dp12
S'_address'
p13
(lp14
VMishnah Yevamot
p15
asS'_full_titles'
p16
(dp17
sVnodeType
p18
VJaggedArrayNode
p19
sS'parent'
p20
NsVaddressTypes
p21
(lp22
VPerek
p23
aVMishnah
p24
asS'default'
p25
I00
sS'index'
p26
g2
(csefaria.model.text
Index
p27
g4
Ntp28
Rp29
(dp30
S'_id'
p31
g2
(cbson.objectid
ObjectId
p32
g4
Ntp33
Rp34
S'NJ\xb8\x8f\xed\xba\xb4X3\x00\x00>'
p35
bsS'pkeys_orig_values'
p36
(dp37
S'title'
p38
VMishnah Yevamot
p39
ssS'pubDate'
p40
V1492
p41
sS'compDate'
p42
V210
p43
sS'pubPlace'
p44
VNaples
p45
sS'compPlace'
p46
VTalmudic Israel
p47
sS'enDesc'
p48
VThe Mishnah is the first major written redaction of the Jewish oral traditions known as the Oral Torah. The Mishnah was redacted by Rabbi Yehudah Ha-Nasi before his death around 217 CE, in a time when, according to the Talmud, the persecution of the Jews and the passage of time raised the possibility that the details of the oral traditions of the Pharisees from the Second Temple period (536 BCE \u2013 70 CE) would be forgotten. The majority of the Mishnah is written in Mishnaic Hebrew, while some parts are Aramaic. The Mishnah consists of six orders (sedarim, singular seder), each containing 7\u201312 tractates (masekhtot, singular masekhet), numbering 63 in total and further subdivided into chapters and paragraphs or verses. The word Mishnah can also indicate a single paragraph or a verse of the work itself, i.e. the smallest unit of structure in the Mishnah. For this reason the whole work is sometimes called by the plural, Mishnayot. Yevamot (Levirate marriage) belongs to the third order, Nashim (Women) and discusses the mandated marriage of a widow to her brother-in-law, deals with the Jewish law of levirate marriage (Deut. 25:5\u201310) and other topics, such as the status of minors. It has sixteen chapters.
p49
sS'order'
p50
(lp51
I24
aI1
asS'era'
p52
VT
p53
sS'struct_objs'
p54
(dp55
sS'nodes'
p56
g11
sS'errorMargin'
p57
V20
p58
sS'_title'
p59
g39
sS'categories'
p60
(lp61
VMishnah
p62
aVSeder Nashim
p63
asS'schema'
p64
(dp65
g18
g19
sg21
g22
sVlengths
p66
(lp67
I16
aI123
asVdepth
p68
I2
sVtitles
p69
(lp70
(dp71
Vlang
p72
Ven
p73
sVtext
p74
VM Yevamot
p75
sa(dp76
Vlang
p77
Ven
p78
sVtext
p79
VM. Yevamot
p80
sa(dp81
Vlang
p82
Ven
p83
sVtext
p84
VMishna Yevamot
p85
sa(dp86
Vlang
p87
Vhe
p88
sVtext
p89
V\u05de\u05e9\u05e0\u05d4 \u05d9\u05d1\u05de\u05d5\u05ea
p90
sVprimary
p91
I01
sa(dp92
Vlang
p93
Ven
p94
sVtext
p95
VMishnah Yevamot
p96
sVprimary
p97
I01
sasVkey
p98
g15
sVsectionNames
p99
(lp100
VChapter
p101
aVMishna
p102
assbsS'_primary_title'
p103
(dp104
sS'title_group'
p105
g2
(csefaria.model.schema
TitleGroup
p106
g4
Ntp107
Rp108
(dp109
g103
(dp110
S'en'
p111
g96
ssS'titles'
p112
g70
sbsS'_addressTypes'
p113
(lp114
g2
(csefaria.model.schema
AddressPerek
p115
g4
Ntp116
Rp117
(dp118
S'length'
p119
I16
sg50
I0
sbag2
(csefaria.model.schema
AddressMishnah
p120
g4
Ntp121
Rp122
(dp123
g119
Nsg50
I1
sbasS'sharedTitle'
p124
Nsg66
g67
sg68
I2
sS'_full_title'
p125
(dp126
g111
g96
ssS'key'
p127
g15
sS'checkFirst'
p128
NsS'_regexes'
p129
(dp130
sS'_leaf_nodes'
p131
(lp132
sg99
g100
sS'children'
p133
(lp134
sbsS'_range_index'
p135
NsS'_context'
p136
(dp137
sS'_padded'
p138
Nsg26
g29
sS'sections'
p139
(lp140
I1
aI1
asS'_first_spanned_ref'
p141
NsS'tref'
p142
VMishnah Yevamot 1:1
p143
sS'_spanned_refs'
p144
(lp145
sS'book'
p146
g96
sS'_range_depth'
p147
NsS'toSections'
p148
(lp149
I1
aI1
asS'_url'
p150
NsS'_normal'
p151
g143
sS'_ranged_refs'
p152
(lp153
sS'type'
p154
g62
sS'_prev'
p155
NsS'_he_normal'
p156
NsS'_next'
p157
Nsbag2
(g3
g4
Ntp158
Rp159
(dp160
g8
g11
sg135
Nsg136
(dp161
sg138
Nsg26
g29
sg139
(lp162
I1
aI2
asg141
Nsg142
VMishnah Yevamot 1:2
p163
sg144
(lp164
sg146
g96
sg147
Nsg148
(lp165
I1
aI2
asg150
Nsg151
g163
sg152
(lp166
sg154
g62
sg155
Nsg156
Nsg157
Nsbag2
(g3
g4
Ntp167
Rp168
(dp169
g8
g11
sg135
Nsg136
(dp170
sg138
Nsg26
g29
sg139
(lp171
I1
aI3
asg141
Nsg142
VMishnah Yevamot 1:3
p172
sg144
(lp173
sg146
g96
sg147
Nsg148
(lp174
I1
aI3
asg150
Nsg151
g172
sg152
(lp175
sg154
g62
sg155
Nsg156
Nsg157
Nsbag2
(g3
g4
Ntp176
Rp177
(dp178
g8
g11
sg135
Nsg136
(dp179
sg138
Nsg26
g29
sg139
(lp180
I1
aI4
asg141
Nsg142
VMishnah Yevamot 1:4
p181
sg144
(lp182
sg146
g96
sg147
Nsg148
(lp183
I1
aI4
asg150
Nsg151
g181
sg152
(lp184
sg154
g62
sg155
Nsg156
Nsg157
Nsbag2
(g3
g4
Ntp185
Rp186
(dp187
g8
g11
sg135
Nsg136
(dp188
sg138
Nsg26
g29
sg139
(lp189
I2
aI1
asg141
Nsg142
VMishnah Yevamot 2:1
p190
sg144
(lp191
sg146
g96
sg147
Nsg148
(lp192
I2
aI1
asg150
Nsg151
g190
sg152
(lp193
sg154
g62
sg155
Nsg156
Nsg157
Nsbag2
(g3
g4
Ntp194
Rp195
(dp196
g8
g11
sg135
Nsg136
(dp197
sg138
Nsg26
g29
sg139
(lp198
I2
aI2
asg141
Nsg142
VMishnah Yevamot 2:2
p199
sg144
(lp200
sg146
g96
sg147
Nsg148
(lp201
I2
aI2
asg150
Nsg151
g199
sg152
(lp202
sg154
g62
sg155
Nsg156
Nsg157
Nsbag2
(g3
g4
Ntp203
Rp204
(dp205
g8
g11
sg135
Nsg136
(dp206
sg138
Nsg26
g29
sg139
(lp207
I2
aI3
asg141
Nsg142
VMishnah Yevamot 2:3
p208
sg144
(lp209
sg146
g96
sg147
Nsg148
(lp210
I2
aI3
asg150
Nsg151
g208
sg152
(lp211
sg154
g62
sg155
Nsg156
Nsg157
Nsbag2
(g3
g4
Ntp212
Rp213
(dp214
g8
g11
sg135
Nsg136
(dp215
sg138
Nsg26
g29
sg139
(lp216
I2
aI4
asg141
Nsg142
VMishnah Yevamot 2:4
p217
sg144
(lp218
sg146
g96
sg147
Nsg148
(lp219
I2
aI4
asg150
Nsg151
g217
sg152
(lp220
sg154
g62
sg155
Nsg156
Nsg157
Nsbag2
(g3
g4
Ntp221
Rp222
(dp223
g8
g11
sg135
Nsg136
(dp224
sg138
Nsg26
g29
sg139
(lp225
I2
aI5
asg141
Nsg142
VMishnah Yevamot 2:5
p226
sg144
(lp227
sg146
g96
sg147
Nsg148
(lp228
I2
aI5
asg150
Nsg151
g226
sg152
(lp229
sg154
g62
sg155
Nsg156
Nsg157
Nsbag2
(g3
g4
Ntp230
Rp231
(dp232
g8
g11
sg135
Nsg136
(dp233
sg138
Nsg26
g29
sg139
(lp234
I2
aI6
asg141
Nsg142
VMishnah Yevamot 2:6
p235
sg144
(lp236
sg146
g96
sg147
Nsg148
(lp237
I2
aI6
asg150
Nsg151
g235
sg152
(lp238
sg154
g62
sg155
Nsg156
Nsg157
Nsbag2
(g3
g4
Ntp239
Rp240
(dp241
g8
g11
sg135
Nsg136
(dp242
sg138
Nsg26
g29
sg139
(lp243
I2
aI7
asg141
Nsg142
VMishnah Yevamot 2:7
p244
sg144
(lp245
sg146
g96
sg147
Nsg148
(lp246
I2
aI7
asg150
Nsg151
g244
sg152
(lp247
sg154
g62
sg155
Nsg156
Nsg157
Nsbag2
(g3
g4
Ntp248
Rp249
(dp250
g8
g11
sg135
Nsg136
(dp251
sg138
Nsg26
g29
sg139
(lp252
I2
aI8
asg141
Nsg142
VMishnah Yevamot 2:8
p253
sg144
(lp254
sg146
g96
sg147
Nsg148
(lp255
I2
aI8
asg150
Nsg151
g253
sg152
(lp256
sg154
g62
sg155
Nsg156
Nsg157
Nsbag2
(g3
g4
Ntp257
Rp258
(dp259
g8
g11
sg135
Nsg136
(dp260
sg138
Nsg26
g29
sg139
(lp261
I2
aI9
asg141
Nsg142
VMishnah Yevamot 2:9
p262
sg144
(lp263
sg146
g96
sg147
Nsg148
(lp264
I2
aI9
asg150
Nsg151
g262
sg152
(lp265
sg154
g62
sg155
Nsg156
Nsg157
Nsbag2
(g3
g4
Ntp266
Rp267
(dp268
g8
g11
sg135
Nsg136
(dp269
sg138
Nsg26
g29
sg139
(lp270
I2
aI10
asg141
Nsg142
VMishnah Yevamot 2:10
p271
sg144
(lp272
sg146
g96
sg147
Nsg148
(lp273
I2
aI10
asg150
Nsg151
g271
sg152
(lp274
sg154
g62
sg155
Nsg156
Nsg157
Nsbag2
(g3
g4
Ntp275
Rp276
(dp277
g8
g11
sg135
Nsg136
(dp278
sg138
Nsg26
g29
sg139
(lp279
I3
aI1
asg141
Nsg142
VMishnah Yevamot 3:1
p280
sg144
(lp281
sg146
g96
sg147
Nsg148
(lp282
I3
aI1
asg150
Nsg151
g280
sg152
(lp283
sg154
g62
sg155
Nsg156
Nsg157
Nsbag2
(g3
g4
Ntp284
Rp285
(dp286
g8
g11
sg135
Nsg136
(dp287
sg138
Nsg26
g29
sg139
(lp288
I3
aI2
asg141
Nsg142
VMishnah Yevamot 3:2
p289
sg144
(lp290
sg146
g96
sg147
Nsg148
(lp291
I3
aI2
asg150
Nsg151
g289
sg152
(lp292
sg154
g62
sg155
Nsg156
Nsg157
Nsbag2
(g3
g4
Ntp293
Rp294
(dp295
g8
g11
sg135
Nsg136
(dp296
sg138
Nsg26
g29
sg139
(lp297
I3
aI3
asg141
Nsg142
VMishnah Yevamot 3:3
p298
sg144
(lp299
sg146
g96
sg147
Nsg148
(lp300
I3
aI3
asg150
Nsg151
g298
sg152
(lp301
sg154
g62
sg155
Nsg156
Nsg157
Nsbag2
(g3
g4
Ntp302
Rp303
(dp304
g8
g11
sg135
Nsg136
(dp305
sg138
Nsg26
g29
sg139
(lp306
I3
aI4
asg141
Nsg142
VMishnah Yevamot 3:4
p307
sg144
(lp308
sg146
g96
sg147
Nsg148
(lp309
I3
aI4
asg150
Nsg151
g307
sg152
(lp310
sg154
g62
sg155
Nsg156
Nsg157
Nsbag2
(g3
g4
Ntp311
Rp312
(dp313
g8
g11
sg135
Nsg136
(dp314
sg138
Nsg26
g29
sg139
(lp315
I3
aI5
asg141
Nsg142
VMishnah Yevamot 3:5
p316
sg144
(lp317
sg146
g96
sg147
Nsg148
(lp318
I3
aI5
asg150
Nsg151
g316
sg152
(lp319
sg154
g62
sg155
Nsg156
Nsg157
Nsbag2
(g3
g4
Ntp320
Rp321
(dp322
g8
g11
sg135
Nsg136
(dp323
sg138
Nsg26
g29
sg139
(lp324
I3
aI6
asg141
Nsg142
VMishnah Yevamot 3:6
p325
sg144
(lp326
sg146
g96
sg147
Nsg148
(lp327
I3
aI6
asg150
Nsg151
g325
sg152
(lp328
sg154
g62
sg155
Nsg156
Nsg157
Nsbag2
(g3
g4
Ntp329
Rp330
(dp331
g8
g11
sg135
Nsg136
(dp332
sg138
Nsg26
g29
sg139
(lp333
I3
aI7
asg141
Nsg142
VMishnah Yevamot 3:7
p334
sg144
(lp335
sg146
g96
sg147
Nsg148
(lp336
I3
aI7
asg150
Nsg151
g334
sg152
(lp337
sg154
g62
sg155
Nsg156
Nsg157
Nsbag2
(g3
g4
Ntp338
Rp339
(dp340
g8
g11
sg135
Nsg136
(dp341
sg138
Nsg26
g29
sg139
(lp342
I3
aI8
asg141
Nsg142
VMishnah Yevamot 3:8
p343
sg144
(lp344
sg146
g96
sg147
Nsg148
(lp345
I3
aI8
asg150
Nsg151
g343
sg152
(lp346
sg154
g62
sg155
Nsg156
Nsg157
Nsbag2
(g3
g4
Ntp347
Rp348
(dp349
g8
g11
sg135
Nsg136
(dp350
sg138
Nsg26
g29
sg139
(lp351
I3
aI9
asg141
Nsg142
VMishnah Yevamot 3:9
p352
sg144
(lp353
sg146
g96
sg147
Nsg148
(lp354
I3
aI9
asg150
Nsg151
g352
sg152
(lp355
sg154
g62
sg155
Nsg156
Nsg157
Nsbag2
(g3
g4
Ntp356
Rp357
(dp358
g8
g11
sg135
Nsg136
(dp359
sg138
Nsg26
g29
sg139
(lp360
I3
aI10
asg141
Nsg142
VMishnah Yevamot 3:10
p361
sg144
(lp362
sg146
g96
sg147
Nsg148
(lp363
I3
aI10
asg150
Nsg151
g361
sg152
(lp364
sg154
g62
sg155
Nsg156
Nsg157
Nsbag2
(g3
g4
Ntp365
Rp366
(dp367
g8
g11
sg135
Nsg136
(dp368
sg138
Nsg26
g29
sg139
(lp369
I4
aI1
asg141
Nsg142
VMishnah Yevamot 4:1
p370
sg144
(lp371
sg146
g96
sg147
Nsg148
(lp372
I4
aI1
asg150
Nsg151
g370
sg152
(lp373
sg154
g62
sg155
Nsg156
Nsg157
Nsbag2
(g3
g4
Ntp374
Rp375
(dp376
g8
g11
sg135
Nsg136
(dp377
sg138
Nsg26
g29
sg139
(lp378
I4
aI2
asg141
Nsg142
VMishnah Yevamot 4:2
p379
sg144
(lp380
sg146
g96
sg147
Nsg148
(lp381
I4
aI2
asg150
Nsg151
g379
sg152
(lp382
sg154
g62
sg155
Nsg156
Nsg157
Nsbag2
(g3
g4
Ntp383
Rp384
(dp385
g8
g11
sg135
Nsg136
(dp386
sg138
Nsg26
g29
sg139
(lp387
I4
aI3
asg141
Nsg142
VMishnah Yevamot 4:3
p388
sg144
(lp389
sg146
g96
sg147
Nsg148
(lp390
I4
aI3
asg150
Nsg151
g388
sg152
(lp391
sg154
g62
sg155
Nsg156
Nsg157
Nsbag2
(g3
g4
Ntp392
Rp393
(dp394
g8
g11
sg135
Nsg136
(dp395
sg138
Nsg26
g29
sg139
(lp396
I4
aI4
asg141
Nsg142
VMishnah Yevamot 4:4
p397
sg144
(lp398
sg146
g96
sg147
Nsg148
(lp399
I4
aI4
asg150
Nsg151
g397
sg152
(lp400
sg154
g62
sg155
Nsg156
Nsg157
Nsbag2
(g3
g4
Ntp401
Rp402
(dp403
g8
g11
sg135
Nsg136
(dp404
sg138
Nsg26
g29
sg139
(lp405
I4
aI5
asg141
Nsg142
VMishnah Yevamot 4:5
p406
sg144
(lp407
sg146
g96
sg147
Nsg148
(lp408
I4
aI5
asg150
Nsg151
g406
sg152
(lp409
sg154
g62
sg155
Nsg156
Nsg157
Nsbag2
(g3
g4
Ntp410
Rp411
(dp412
g8
g11
sg135
Nsg136
(dp413
sg138
Nsg26
g29
sg139
(lp414
I4
aI6
asg141
Nsg142
VMishnah Yevamot 4:6
p415
sg144
(lp416
sg146
g96
sg147
Nsg148
(lp417
I4
aI6
asg150
Nsg151
g415
sg152
(lp418
sg154
g62
sg155
Nsg156
Nsg157
Nsbag2
(g3
g4
Ntp419
Rp420
(dp421
g8
g11
sg135
Nsg136
(dp422
sg138
Nsg26
g29
sg139
(lp423
I4
aI7
asg141
Nsg142
VMishnah Yevamot 4:7
p424
sg144
(lp425
sg146
g96
sg147
Nsg148
(lp426
I4
aI7
asg150
Nsg151
g424
sg152
(lp427
sg154
g62
sg155
Nsg156
Nsg157
Nsbag2
(g3
g4
Ntp428
Rp429
(dp430
g8
g11
sg135
Nsg136
(dp431
sg138
Nsg26
g29
sg139
(lp432
I4
aI8
asg141
Nsg142
VMishnah Yevamot 4:8
p433
sg144
(lp434
sg146
g96
sg147
Nsg148
(lp435
I4
aI8
asg150
Nsg151
g433
sg152
(lp436
sg154
g62
sg155
Nsg156
Nsg157
Nsbag2
(g3
g4
Ntp437
Rp438
(dp439
g8
g11
sg135
Nsg136
(dp440
sg138
Nsg26
g29
sg139
(lp441
I4
aI9
asg141
Nsg142
VMishnah Yevamot 4:9
p442
sg144
(lp443
sg146
g96
sg147
Nsg148
(lp444
I4
aI9
asg150
Nsg151
g442
sg152
(lp445
sg154
g62
sg155
Nsg156
Nsg157
Nsbag2
(g3
g4
Ntp446
Rp447
(dp448
g8
g11
sg135
Nsg136
(dp449
sg138
Nsg26
g29
sg139
(lp450
I4
aI10
asg141
Nsg142
VMishnah Yevamot 4:10
p451
sg144
(lp452
sg146
g96
sg147
Nsg148
(lp453
I4
aI10
asg150
Nsg151
g451
sg152
(lp454
sg154
g62
sg155
Nsg156
Nsg157
Nsbag2
(g3
g4
Ntp455
Rp456
(dp457
g8
g11
sg135
Nsg136
(dp458
sg138
Nsg26
g29
sg139
(lp459
I4
aI11
asg141
Nsg142
VMishnah Yevamot 4:11
p460
sg144
(lp461
sg146
g96
sg147
Nsg148
(lp462
I4
aI11
asg150
Nsg151
g460
sg152
(lp463
sg154
g62
sg155
Nsg156
Nsg157
Nsbag2
(g3
g4
Ntp464
Rp465
(dp466
g8
g11
sg135
Nsg136
(dp467
sg138
Nsg26
g29
sg139
(lp468
I4
aI12
asg141
Nsg142
VMishnah Yevamot 4:12
p469
sg144
(lp470
sg146
g96
sg147
Nsg148
(lp471
I4
aI12
asg150
Nsg151
g469
sg152
(lp472
sg154
g62
sg155
Nsg156
Nsg157
Nsbag2
(g3
g4
Ntp473
Rp474
(dp475
g8
g11
sg135
Nsg136
(dp476
sg138
Nsg26
g29
sg139
(lp477
I4
aI13
asg141
Nsg142
VMishnah Yevamot 4:13
p478
sg144
(lp479
sg146
g96
sg147
Nsg148
(lp480
I4
aI13
asg150
Nsg151
g478
sg152
(lp481
sg154
g62
sg155
Nsg156
Nsg157
Nsbag2
(g3
g4
Ntp482
Rp483
(dp484
g8
g11
sg135
Nsg136
(dp485
sg138
Nsg26
g29
sg139
(lp486
I5
aI1
asg141
Nsg142
VMishnah Yevamot 5:1
p487
sg144
(lp488
sg146
g96
sg147
Nsg148
(lp489
I5
aI1
asg150
Nsg151
g487
sg152
(lp490
sg154
g62
sg155
Nsg156
Nsg157
Nsbag2
(g3
g4
Ntp491
Rp492
(dp493
g8
g11
sg135
Nsg136
(dp494
sg138
Nsg26
g29
sg139
(lp495
I5
aI2
asg141
Nsg142
VMishnah Yevamot 5:2
p496
sg144
(lp497
sg146
g96
sg147
Nsg148
(lp498
I5
aI2
asg150
Nsg151
g496
sg152
(lp499
sg154
g62
sg155
Nsg156
Nsg157
Nsbag2
(g3
g4
Ntp500
Rp501
(dp502
g8
g11
sg135
Nsg136
(dp503
sg138
Nsg26
g29
sg139
(lp504
I5
aI3
asg141
Nsg142
VMishnah Yevamot 5:3
p505
sg144
(lp506
sg146
g96
sg147
Nsg148
(lp507
I5
aI3
asg150
Nsg151
g505
sg152
(lp508
sg154
g62
sg155
Nsg156
Nsg157
Nsbag2
(g3
g4
Ntp509
Rp510
(dp511
g8
g11
sg135
Nsg136
(dp512
sg138
Nsg26
g29
sg139
(lp513
I5
aI4
asg141
Nsg142
VMishnah Yevamot 5:4
p514
sg144
(lp515
sg146
g96
sg147
Nsg148
(lp516
I5
aI4
asg150
Nsg151
g514
sg152
(lp517
sg154
g62
sg155
Nsg156
Nsg157
Nsbag2
(g3
g4
Ntp518
Rp519
(dp520
g8
g11
sg135
Nsg136
(dp521
sg138
Nsg26
g29
sg139
(lp522
I5
aI5
asg141
Nsg142
VMishnah Yevamot 5:5
p523
sg144
(lp524
sg146
g96
sg147
Nsg148
(lp525
I5
aI5
asg150
Nsg151
g523
sg152
(lp526
sg154
g62
sg155
Nsg156
Nsg157
Nsbag2
(g3
g4
Ntp527
Rp528
(dp529
g8
g11
sg135
Nsg136
(dp530
sg138
Nsg26
g29
sg139
(lp531
I5
aI6
asg141
Nsg142
VMishnah Yevamot 5:6
p532
sg144
(lp533
sg146
g96
sg147
Nsg148
(lp534
I5
aI6
asg150
Nsg151
g532
sg152
(lp535
sg154
g62
sg155
Nsg156
Nsg157
Nsbag2
(g3
g4
Ntp536
Rp537
(dp538
g8
g11
sg135
Nsg136
(dp539
sg138
Nsg26
g29
sg139
(lp540
I6
aI1
asg141
Nsg142
VMishnah Yevamot 6:1
p541
sg144
(lp542
sg146
g96
sg147
Nsg148
(lp543
I6
aI1
asg150
Nsg151
g541
sg152
(lp544
sg154
g62
sg155
Nsg156
Nsg157
Nsbag2
(g3
g4
Ntp545
Rp546
(dp547
g8
g11
sg135
Nsg136
(dp548
sg138
Nsg26
g29
sg139
(lp549
I6
aI2
asg141
Nsg142
VMishnah Yevamot 6:2
p550
sg144
(lp551
sg146
g96
sg147
Nsg148
(lp552
I6
aI2
asg150
Nsg151
g550
sg152
(lp553
sg154
g62
sg155
Nsg156
Nsg157
Nsbag2
(g3
g4
Ntp554
Rp555
(dp556
g8
g11
sg135
Nsg136
(dp557
sg138
Nsg26
g29
sg139
(lp558
I6
aI3
asg141
Nsg142
VMishnah Yevamot 6:3
p559
sg144
(lp560
sg146
g96
sg147
Nsg148
(lp561
I6
aI3
asg150
Nsg151
g559
sg152
(lp562
sg154
g62
sg155
Nsg156
Nsg157
Nsbag2
(g3
g4
Ntp563
Rp564
(dp565
g8
g11
sg135
Nsg136
(dp566
sg138
Nsg26
g29
sg139
(lp567
I6
aI4
asg141
Nsg142
VMishnah Yevamot 6:4
p568
sg144
(lp569
sg146
g96
sg147
Nsg148
(lp570
I6
aI4
asg150
Nsg151
g568
sg152
(lp571
sg154
g62
sg155
Nsg156
Nsg157
Nsbag2
(g3
g4
Ntp572
Rp573
(dp574
g8
g11
sg135
Nsg136
(dp575
sg138
Nsg26
g29
sg139
(lp576
I6
aI5
asg141
Nsg142
VMishnah Yevamot 6:5
p577
sg144
(lp578
sg146
g96
sg147
Nsg148
(lp579
I6
aI5
asg150
Nsg151
g577
sg152
(lp580
sg154
g62
sg155
Nsg156
Nsg157
Nsbag2
(g3
g4
Ntp581
Rp582
(dp583
g8
g11
sg135
Nsg136
(dp584
sg138
Nsg26
g29
sg139
(lp585
I6
aI6
asg141
Nsg142
VMishnah Yevamot 6:6
p586
sg144
(lp587
sg146
g96
sg147
Nsg148
(lp588
I6
aI6
asg150
Nsg151
g586
sg152
(lp589
sg154
g62
sg155
Nsg156
Nsg157
Nsbag2
(g3
g4
Ntp590
Rp591
(dp592
g8
g11
sg135
Nsg136
(dp593
sg138
Nsg26
g29
sg139
(lp594
I7
aI1
asg141
Nsg142
VMishnah Yevamot 7:1
p595
sg144
(lp596
sg146
g96
sg147
Nsg148
(lp597
I7
aI1
asg150
Nsg151
g595
sg152
(lp598
sg154
g62
sg155
Nsg156
Nsg157
Nsbag2
(g3
g4
Ntp599
Rp600
(dp601
g8
g11
sg135
Nsg136
(dp602
sg138
Nsg26
g29
sg139
(lp603
I7
aI2
asg141
Nsg142
VMishnah Yevamot 7:2
p604
sg144
(lp605
sg146
g96
sg147
Nsg148
(lp606
I7
aI2
asg150
Nsg151
g604
sg152
(lp607
sg154
g62
sg155
Nsg156
Nsg157
Nsbag2
(g3
g4
Ntp608
Rp609
(dp610
g8
g11
sg135
Nsg136
(dp611
sg138
Nsg26
g29
sg139
(lp612
I7
aI3
asg141
Nsg142
VMishnah Yevamot 7:3
p613
sg144
(lp614
sg146
g96
sg147
Nsg148
(lp615
I7
aI3
asg150
Nsg151
g613
sg152
(lp616
sg154
g62
sg155
Nsg156
Nsg157
Nsbag2
(g3
g4
Ntp617
Rp618
(dp619
g8
g11
sg135
Nsg136
(dp620
sg138
Nsg26
g29
sg139
(lp621
I7
aI4
asg141
Nsg142
VMishnah Yevamot 7:4
p622
sg144
(lp623
sg146
g96
sg147
Nsg148
(lp624
I7
aI4
asg150
Nsg151
g622
sg152
(lp625
sg154
g62
sg155
Nsg156
Nsg157
Nsbag2
(g3
g4
Ntp626
Rp627
(dp628
g8
g11
sg135
Nsg136
(dp629
sg138
Nsg26
g29
sg139
(lp630
I7
aI5
asg141
Nsg142
VMishnah Yevamot 7:5
p631
sg144
(lp632
sg146
g96
sg147
Nsg148
(lp633
I7
aI5
asg150
Nsg151
g631
sg152
(lp634
sg154
g62
sg155
Nsg156
Nsg157
Nsbag2
(g3
g4
Ntp635
Rp636
(dp637
g8
g11
sg135
Nsg136
(dp638
sg138
Nsg26
g29
sg139
(lp639
I7
aI6
asg141
Nsg142
VMishnah Yevamot 7:6
p640
sg144
(lp641
sg146
g96
sg147
Nsg148
(lp642
I7
aI6
asg150
Nsg151
g640
sg152
(lp643
sg154
g62
sg155
Nsg156
Nsg157
Nsbag2
(g3
g4
Ntp644
Rp645
(dp646
g8
g11
sg135
Nsg136
(dp647
sg138
Nsg26
g29
sg139
(lp648
I8
aI1
asg141
Nsg142
VMishnah Yevamot 8:1
p649
sg144
(lp650
sg146
g96
sg147
Nsg148
(lp651
I8
aI1
asg150
Nsg151
g649
sg152
(lp652
sg154
g62
sg155
Nsg156
Nsg157
Nsbag2
(g3
g4
Ntp653
Rp654
(dp655
g8
g11
sg135
Nsg136
(dp656
sg138
Nsg26
g29
sg139
(lp657
I8
aI2
asg141
Nsg142
VMishnah Yevamot 8:2
p658
sg144
(lp659
sg146
g96
sg147
Nsg148
(lp660
I8
aI2
asg150
Nsg151
g658
sg152
(lp661
sg154
g62
sg155
Nsg156
Nsg157
Nsbag2
(g3
g4
Ntp662
Rp663
(dp664
g8
g11
sg135
Nsg136
(dp665
sg138
Nsg26
g29
sg139
(lp666
I8
aI3
asg141
Nsg142
VMishnah Yevamot 8:3
p667
sg144
(lp668
sg146
g96
sg147
Nsg148
(lp669
I8
aI3
asg150
Nsg151
g667
sg152
(lp670
sg154
g62
sg155
Nsg156
Nsg157
Nsbag2
(g3
g4
Ntp671
Rp672
(dp673
g8
g11
sg135
Nsg136
(dp674
sg138
Nsg26
g29
sg139
(lp675
I8
aI4
asg141
Nsg142
VMishnah Yevamot 8:4
p676
sg144
(lp677
sg146
g96
sg147
Nsg148
(lp678
I8
aI4
asg150
Nsg151
g676
sg152
(lp679
sg154
g62
sg155
Nsg156
Nsg157
Nsbag2
(g3
g4
Ntp680
Rp681
(dp682
g8
g11
sg135
Nsg136
(dp683
sg138
Nsg26
g29
sg139
(lp684
I8
aI5
asg141
Nsg142
VMishnah Yevamot 8:5
p685
sg144
(lp686
sg146
g96
sg147
Nsg148
(lp687
I8
aI5
asg150
Nsg151
g685
sg152
(lp688
sg154
g62
sg155
Nsg156
Nsg157
Nsbag2
(g3
g4
Ntp689
Rp690
(dp691
g8
g11
sg135
Nsg136
(dp692
sg138
Nsg26
g29
sg139
(lp693
I8
aI6
asg141
Nsg142
VMishnah Yevamot 8:6
p694
sg144
(lp695
sg146
g96
sg147
Nsg148
(lp696
I8
aI6
asg150
Nsg151
g694
sg152
(lp697
sg154
g62
sg155
Nsg156
Nsg157
Nsbag2
(g3
g4
Ntp698
Rp699
(dp700
g8
g11
sg135
Nsg136
(dp701
sg138
Nsg26
g29
sg139
(lp702
I9
aI1
asg141
Nsg142
VMishnah Yevamot 9:1
p703
sg144
(lp704
sg146
g96
sg147
Nsg148
(lp705
I9
aI1
asg150
Nsg151
g703
sg152
(lp706
sg154
g62
sg155
Nsg156
Nsg157
Nsbag2
(g3
g4
Ntp707
Rp708
(dp709
g8
g11
sg135
Nsg136
(dp710
sg138
Nsg26
g29
sg139
(lp711
I9
aI2
asg141
Nsg142
VMishnah Yevamot 9:2
p712
sg144
(lp713
sg146
g96
sg147
Nsg148
(lp714
I9
aI2
asg150
Nsg151
g712
sg152
(lp715
sg154
g62
sg155
Nsg156
Nsg157
Nsbag2
(g3
g4
Ntp716
Rp717
(dp718
g8
g11
sg135
Nsg136
(dp719
sg138
Nsg26
g29
sg139
(lp720
I9
aI3
asg141
Nsg142
VMishnah Yevamot 9:3
p721
sg144
(lp722
sg146
g96
sg147
Nsg148
(lp723
I9
aI3
asg150
Nsg151
g721
sg152
(lp724
sg154
g62
sg155
Nsg156
Nsg157
Nsbag2
(g3
g4
Ntp725
Rp726
(dp727
g8
g11
sg135
Nsg136
(dp728
sg138
Nsg26
g29
sg139
(lp729
I9
aI4
asg141
Nsg142
VMishnah Yevamot 9:4
p730
sg144
(lp731
sg146
g96
sg147
Nsg148
(lp732
I9
aI4
asg150
Nsg151
g730
sg152
(lp733
sg154
g62
sg155
Nsg156
Nsg157
Nsbag2
(g3
g4
Ntp734
Rp735
(dp736
g8
g11
sg135
Nsg136
(dp737
sg138
Nsg26
g29
sg139
(lp738
I9
aI5
asg141
Nsg142
VMishnah Yevamot 9:5
p739
sg144
(lp740
sg146
g96
sg147
Nsg148
(lp741
I9
aI5
asg150
Nsg151
g739
sg152
(lp742
sg154
g62
sg155
Nsg156
Nsg157
Nsbag2
(g3
g4
Ntp743
Rp744
(dp745
g8
g11
sg135
Nsg136
(dp746
sg138
Nsg26
g29
sg139
(lp747
I9
aI6
asg141
Nsg142
VMishnah Yevamot 9:6
p748
sg144
(lp749
sg146
g96
sg147
Nsg148
(lp750
I9
aI6
asg150
Nsg151
g748
sg152
(lp751
sg154
g62
sg155
Nsg156
Nsg157
Nsbag2
(g3
g4
Ntp752
Rp753
(dp754
g8
g11
sg135
Nsg136
(dp755
sg138
Nsg26
g29
sg139
(lp756
I10
aI1
asg141
Nsg142
VMishnah Yevamot 10:1
p757
sg144
(lp758
sg146
g96
sg147
Nsg148
(lp759
I10
aI1
asg150
Nsg151
g757
sg152
(lp760
sg154
g62
sg155
Nsg156
Nsg157
Nsbag2
(g3
g4
Ntp761
Rp762
(dp763
g8
g11
sg135
Nsg136
(dp764
sg138
Nsg26
g29
sg139
(lp765
I10
aI2
asg141
Nsg142
VMishnah Yevamot 10:2
p766
sg144
(lp767
sg146
g96
sg147
Nsg148
(lp768
I10
aI2
asg150
Nsg151
g766
sg152
(lp769
sg154
g62
sg155
Nsg156
Nsg157
Nsbag2
(g3
g4
Ntp770
Rp771
(dp772
g8
g11
sg135
Nsg136
(dp773
sg138
Nsg26
g29
sg139
(lp774
I10
aI3
asg141
Nsg142
VMishnah Yevamot 10:3
p775
sg144
(lp776
sg146
g96
sg147
Nsg148
(lp777
I10
aI3
asg150
Nsg151
g775
sg152
(lp778
sg154
g62
sg155
Nsg156
Nsg157
Nsbag2
(g3
g4
Ntp779
Rp780
(dp781
g8
g11
sg135
Nsg136
(dp782
sg138
Nsg26
g29
sg139
(lp783
I10
aI4
asg141
Nsg142
VMishnah Yevamot 10:4
p784
sg144
(lp785
sg146
g96
sg147
Nsg148
(lp786
I10
aI4
asg150
Nsg151
g784
sg152
(lp787
sg154
g62
sg155
Nsg156
Nsg157
Nsbag2
(g3
g4
Ntp788
Rp789
(dp790
g8
g11
sg135
Nsg136
(dp791
sg138
Nsg26
g29
sg139
(lp792
I10
aI5
asg141
Nsg142
VMishnah Yevamot 10:5
p793
sg144
(lp794
sg146
g96
sg147
Nsg148
(lp795
I10
aI5
asg150
Nsg151
g793
sg152
(lp796
sg154
g62
sg155
Nsg156
Nsg157
Nsbag2
(g3
g4
Ntp797
Rp798
(dp799
g8
g11
sg135
Nsg136
(dp800
sg138
Nsg26
g29
sg139
(lp801
I10
aI6
asg141
Nsg142
VMishnah Yevamot 10:6
p802
sg144
(lp803
sg146
g96
sg147
Nsg148
(lp804
I10
aI6
asg150
Nsg151
g802
sg152
(lp805
sg154
g62
sg155
Nsg156
Nsg157
Nsbag2
(g3
g4
Ntp806
Rp807
(dp808
g8
g11
sg135
Nsg136
(dp809
sg138
Nsg26
g29
sg139
(lp810
I10
aI7
asg141
Nsg142
VMishnah Yevamot 10:7
p811
sg144
(lp812
sg146
g96
sg147
Nsg148
(lp813
I10
aI7
asg150
Nsg151
g811
sg152
(lp814
sg154
g62
sg155
Nsg156
Nsg157
Nsbag2
(g3
g4
Ntp815
Rp816
(dp817
g8
g11
sg135
Nsg136
(dp818
sg138
Nsg26
g29
sg139
(lp819
I10
aI8
asg141
Nsg142
VMishnah Yevamot 10:8
p820
sg144
(lp821
sg146
g96
sg147
Nsg148
(lp822
I10
aI8
asg150
Nsg151
g820
sg152
(lp823
sg154
g62
sg155
Nsg156
Nsg157
Nsbag2
(g3
g4
Ntp824
Rp825
(dp826
g8
g11
sg135
Nsg136
(dp827
sg138
Nsg26
g29
sg139
(lp828
I10
aI9
asg141
Nsg142
VMishnah Yevamot 10:9
p829
sg144
(lp830
sg146
g96
sg147
Nsg148
(lp831
I10
aI9
asg150
Nsg151
g829
sg152
(lp832
sg154
g62
sg155
Nsg156
Nsg157
Nsbag2
(g3
g4
Ntp833
Rp834
(dp835
g8
g11
sg135
Nsg136
(dp836
sg138
Nsg26
g29
sg139
(lp837
I11
aI1
asg141
Nsg142
VMishnah Yevamot 11:1
p838
sg144
(lp839
sg146
g96
sg147
Nsg148
(lp840
I11
aI1
asg150
Nsg151
g838
sg152
(lp841
sg154
g62
sg155
Nsg156
Nsg157
Nsbag2
(g3
g4
Ntp842
Rp843
(dp844
g8
g11
sg135
Nsg136
(dp845
sg138
Nsg26
g29
sg139
(lp846
I11
aI2
asg141
Nsg142
VMishnah Yevamot 11:2
p847
sg144
(lp848
sg146
g96
sg147
Nsg148
(lp849
I11
aI2
asg150
Nsg151
g847
sg152
(lp850
sg154
g62
sg155
Nsg156
Nsg157
Nsbag2
(g3
g4
Ntp851
Rp852
(dp853
g8
g11
sg135
Nsg136
(dp854
sg138
Nsg26
g29
sg139
(lp855
I11
aI3
asg141
Nsg142
VMishnah Yevamot 11:3
p856
sg144
(lp857
sg146
g96
sg147
Nsg148
(lp858
I11
aI3
asg150
Nsg151
g856
sg152
(lp859
sg154
g62
sg155
Nsg156
Nsg157
Nsbag2
(g3
g4
Ntp860
Rp861
(dp862
g8
g11
sg135
Nsg136
(dp863
sg138
Nsg26
g29
sg139
(lp864
I11
aI4
asg141
Nsg142
VMishnah Yevamot 11:4
p865
sg144
(lp866
sg146
g96
sg147
Nsg148
(lp867
I11
aI4
asg150
Nsg151
g865
sg152
(lp868
sg154
g62
sg155
Nsg156
Nsg157
Nsbag2
(g3
g4
Ntp869
Rp870
(dp871
g8
g11
sg135
Nsg136
(dp872
sg138
Nsg26
g29
sg139
(lp873
I11
aI5
asg141
Nsg142
VMishnah Yevamot 11:5
p874
sg144
(lp875
sg146
g96
sg147
Nsg148
(lp876
I11
aI5
asg150
Nsg151
g874
sg152
(lp877
sg154
g62
sg155
Nsg156
Nsg157
Nsbag2
(g3
g4
Ntp878
Rp879
(dp880
g8
g11
sg135
Nsg136
(dp881
sg138
Nsg26
g29
sg139
(lp882
I11
aI6
asg141
Nsg142
VMishnah Yevamot 11:6
p883
sg144
(lp884
sg146
g96
sg147
Nsg148
(lp885
I11
aI6
asg150
Nsg151
g883
sg152
(lp886
sg154
g62
sg155
Nsg156
Nsg157
Nsbag2
(g3
g4
Ntp887
Rp888
(dp889
g8
g11
sg135
Nsg136
(dp890
sg138
Nsg26
g29
sg139
(lp891
I11
aI7
asg141
Nsg142
VMishnah Yevamot 11:7
p892
sg144
(lp893
sg146
g96
sg147
Nsg148
(lp894
I11
aI7
asg150
Nsg151
g892
sg152
(lp895
sg154
g62
sg155
Nsg156
Nsg157
Nsbag2
(g3
g4
Ntp896
Rp897
(dp898
g8
g11
sg135
Nsg136
(dp899
sg138
Nsg26
g29
sg139
(lp900
I12
aI1
asg141
Nsg142
VMishnah Yevamot 12:1
p901
sg144
(lp902
sg146
g96
sg147
Nsg148
(lp903
I12
aI1
asg150
Nsg151
g901
sg152
(lp904
sg154
g62
sg155
Nsg156
Nsg157
Nsbag2
(g3
g4
Ntp905
Rp906
(dp907
g8
g11
sg135
Nsg136
(dp908
sg138
Nsg26
g29
sg139
(lp909
I12
aI2
asg141
Nsg142
VMishnah Yevamot 12:2
p910
sg144
(lp911
sg146
g96
sg147
Nsg148
(lp912
I12
aI2
asg150
Nsg151
g910
sg152
(lp913
sg154
g62
sg155
Nsg156
Nsg157
Nsbag2
(g3
g4
Ntp914
Rp915
(dp916
g8
g11
sg135
Nsg136
(dp917
sg138
Nsg26
g29
sg139
(lp918
I12
aI3
asg141
Nsg142
VMishnah Yevamot 12:3
p919
sg144
(lp920
sg146
g96
sg147
Nsg148
(lp921
I12
aI3
asg150
Nsg151
g919
sg152
(lp922
sg154
g62
sg155
Nsg156
Nsg157
Nsbag2
(g3
g4
Ntp923
Rp924
(dp925
g8
g11
sg135
Nsg136
(dp926
sg138
Nsg26
g29
sg139
(lp927
I12
aI4
asg141
Nsg142
VMishnah Yevamot 12:4
p928
sg144
(lp929
sg146
g96
sg147
Nsg148
(lp930
I12
aI4
asg150
Nsg151
g928
sg152
(lp931
sg154
g62
sg155
Nsg156
Nsg157
Nsbag2
(g3
g4
Ntp932
Rp933
(dp934
g8
g11
sg135
Nsg136
(dp935
sg138
Nsg26
g29
sg139
(lp936
I12
aI5
asg141
Nsg142
VMishnah Yevamot 12:5
p937
sg144
(lp938
sg146
g96
sg147
Nsg148
(lp939
I12
aI5
asg150
Nsg151
g937
sg152
(lp940
sg154
g62
sg155
Nsg156
Nsg157
Nsbag2
(g3
g4
Ntp941
Rp942
(dp943
g8
g11
sg135
Nsg136
(dp944
sg138
Nsg26
g29
sg139
(lp945
I12
aI6
asg141
Nsg142
VMishnah Yevamot 12:6
p946
sg144
(lp947
sg146
g96
sg147
Nsg148
(lp948
I12
aI6
asg150
Nsg151
g946
sg152
(lp949
sg154
g62
sg155
Nsg156
Nsg157
Nsbag2
(g3
g4
Ntp950
Rp951
(dp952
g8
g11
sg135
Nsg136
(dp953
sg138
Nsg26
g29
sg139
(lp954
I13
aI1
asg141
Nsg142
VMishnah Yevamot 13:1
p955
sg144
(lp956
sg146
g96
sg147
Nsg148
(lp957
I13
aI1
asg150
Nsg151
g955
sg152
(lp958
sg154
g62
sg155
Nsg156
Nsg157
Nsbag2
(g3
g4
Ntp959
Rp960
(dp961
g8
g11
sg135
Nsg136
(dp962
sg138
Nsg26
g29
sg139
(lp963
I13
aI2
asg141
Nsg142
VMishnah Yevamot 13:2
p964
sg144
(lp965
sg146
g96
sg147
Nsg148
(lp966
I13
aI2
asg150
Nsg151
g964
sg152
(lp967
sg154
g62
sg155
Nsg156
Nsg157
Nsbag2
(g3
g4
Ntp968
Rp969
(dp970
g8
g11
sg135
Nsg136
(dp971
sg138
Nsg26
g29
sg139
(lp972
I13
aI3
asg141
Nsg142
VMishnah Yevamot 13:3
p973
sg144
(lp974
sg146
g96
sg147
Nsg148
(lp975
I13
aI3
asg150
Nsg151
g973
sg152
(lp976
sg154
g62
sg155
Nsg156
Nsg157
Nsbag2
(g3
g4
Ntp977
Rp978
(dp979
g8
g11
sg135
Nsg136
(dp980
sg138
Nsg26
g29
sg139
(lp981
I13
aI4
asg141
Nsg142
VMishnah Yevamot 13:4
p982
sg144
(lp983
sg146
g96
sg147
Nsg148
(lp984
I13
aI4
asg150
Nsg151
g982
sg152
(lp985
sg154
g62
sg155
Nsg156
Nsg157
Nsbag2
(g3
g4
Ntp986
Rp987
(dp988
g8
g11
sg135
Nsg136
(dp989
sg138
Nsg26
g29
sg139
(lp990
I13
aI5
asg141
Nsg142
VMishnah Yevamot 13:5
p991
sg144
(lp992
sg146
g96
sg147
Nsg148
(lp993
I13
aI5
asg150
Nsg151
g991
sg152
(lp994
sg154
g62
sg155
Nsg156
Nsg157
Nsbag2
(g3
g4
Ntp995
Rp996
(dp997
g8
g11
sg135
Nsg136
(dp998
sg138
Nsg26
g29
sg139
(lp999
I13
aI6
asg141
Nsg142
VMishnah Yevamot 13:6
p1000
sg144
(lp1001
sg146
g96
sg147
Nsg148
(lp1002
I13
aI6
asg150
Nsg151
g1000
sg152
(lp1003
sg154
g62
sg155
Nsg156
Nsg157
Nsbag2
(g3
g4
Ntp1004
Rp1005
(dp1006
g8
g11
sg135
Nsg136
(dp1007
sg138
Nsg26
g29
sg139
(lp1008
I13
aI7
asg141
Nsg142
VMishnah Yevamot 13:7
p1009
sg144
(lp1010
sg146
g96
sg147
Nsg148
(lp1011
I13
aI7
asg150
Nsg151
g1009
sg152
(lp1012
sg154
g62
sg155
Nsg156
Nsg157
Nsbag2
(g3
g4
Ntp1013
Rp1014
(dp1015
g8
g11
sg135
Nsg136
(dp1016
sg138
Nsg26
g29
sg139
(lp1017
I13
aI8
asg141
Nsg142
VMishnah Yevamot 13:8
p1018
sg144
(lp1019
sg146
g96
sg147
Nsg148
(lp1020
I13
aI8
asg150
Nsg151
g1018
sg152
(lp1021
sg154
g62
sg155
Nsg156
Nsg157
Nsbag2
(g3
g4
Ntp1022
Rp1023
(dp1024
g8
g11
sg135
Nsg136
(dp1025
sg138
Nsg26
g29
sg139
(lp1026
I13
aI9
asg141
Nsg142
VMishnah Yevamot 13:9
p1027
sg144
(lp1028
sg146
g96
sg147
Nsg148
(lp1029
I13
aI9
asg150
Nsg151
g1027
sg152
(lp1030
sg154
g62
sg155
Nsg156
Nsg157
Nsbag2
(g3
g4
Ntp1031
Rp1032
(dp1033
g8
g11
sg135
Nsg136
(dp1034
sg138
Nsg26
g29
sg139
(lp1035
I13
aI10
asg141
Nsg142
VMishnah Yevamot 13:10
p1036
sg144
(lp1037
sg146
g96
sg147
Nsg148
(lp1038
I13
aI10
asg150
Nsg151
g1036
sg152
(lp1039
sg154
g62
sg155
Nsg156
Nsg157
Nsbag2
(g3
g4
Ntp1040
Rp1041
(dp1042
g8
g11
sg135
Nsg136
(dp1043
sg138
Nsg26
g29
sg139
(lp1044
I13
aI11
asg141
Nsg142
VMishnah Yevamot 13:11
p1045
sg144
(lp1046
sg146
g96
sg147
Nsg148
(lp1047
I13
aI11
asg150
Nsg151
g1045
sg152
(lp1048
sg154
g62
sg155
Nsg156
Nsg157
Nsbag2
(g3
g4
Ntp1049
Rp1050
(dp1051
g8
g11
sg135
Nsg136
(dp1052
sg138
Nsg26
g29
sg139
(lp1053
I13
aI12
asg141
Nsg142
VMishnah Yevamot 13:12
p1054
sg144
(lp1055
sg146
g96
sg147
Nsg148
(lp1056
I13
aI12
asg150
Nsg151
g1054
sg152
(lp1057
sg154
g62
sg155
Nsg156
Nsg157
Nsbag2
(g3
g4
Ntp1058
Rp1059
(dp1060
g8
g11
sg135
Nsg136
(dp1061
sg138
Nsg26
g29
sg139
(lp1062
I13
aI13
asg141
Nsg142
VMishnah Yevamot 13:13
p1063
sg144
(lp1064
sg146
g96
sg147
Nsg148
(lp1065
I13
aI13
asg150
Nsg151
g1063
sg152
(lp1066
sg154
g62
sg155
Nsg156
Nsg157
Nsbag2
(g3
g4
Ntp1067
Rp1068
(dp1069
g8
g11
sg135
Nsg136
(dp1070
sg138
Nsg26
g29
sg139
(lp1071
I14
aI1
asg141
Nsg142
VMishnah Yevamot 14:1
p1072
sg144
(lp1073
sg146
g96
sg147
Nsg148
(lp1074
I14
aI1
asg150
Nsg151
g1072
sg152
(lp1075
sg154
g62
sg155
Nsg156
Nsg157
Nsbag2
(g3
g4
Ntp1076
Rp1077
(dp1078
g8
g11
sg135
Nsg136
(dp1079
sg138
Nsg26
g29
sg139
(lp1080
I14
aI2
asg141
Nsg142
VMishnah Yevamot 14:2
p1081
sg144
(lp1082
sg146
g96
sg147
Nsg148
(lp1083
I14
aI2
asg150
Nsg151
g1081
sg152
(lp1084
sg154
g62
sg155
Nsg156
Nsg157
Nsbag2
(g3
g4
Ntp1085
Rp1086
(dp1087
g8
g11
sg135
Nsg136
(dp1088
sg138
Nsg26
g29
sg139
(lp1089
I14
aI3
asg141
Nsg142
VMishnah Yevamot 14:3
p1090
sg144
(lp1091
sg146
g96
sg147
Nsg148
(lp1092
I14
aI3
asg150
Nsg151
g1090
sg152
(lp1093
sg154
g62
sg155
Nsg156
Nsg157
Nsbag2
(g3
g4
Ntp1094
Rp1095
(dp1096
g8
g11
sg135
Nsg136
(dp1097
sg138
Nsg26
g29
sg139
(lp1098
I14
aI4
asg141
Nsg142
VMishnah Yevamot 14:4
p1099
sg144
(lp1100
sg146
g96
sg147
Nsg148
(lp1101
I14
aI4
asg150
Nsg151
g1099
sg152
(lp1102
sg154
g62
sg155
Nsg156
Nsg157
Nsbag2
(g3
g4
Ntp1103
Rp1104
(dp1105
g8
g11
sg135
Nsg136
(dp1106
sg138
Nsg26
g29
sg139
(lp1107
I15
aI1
asg141
Nsg142
VMishnah Yevamot 15:1
p1108
sg144
(lp1109
sg146
g96
sg147
Nsg148
(lp1110
I15
aI1
asg150
Nsg151
g1108
sg152
(lp1111
sg154
g62
sg155
Nsg156
Nsg157
Nsbag2
(g3
g4
Ntp1112
Rp1113
(dp1114
g8
g11
sg135
Nsg136
(dp1115
sg138
Nsg26
g29
sg139
(lp1116
I15
aI2
asg141
Nsg142
VMishnah Yevamot 15:2
p1117
sg144
(lp1118
sg146
g96
sg147
Nsg148
(lp1119
I15
aI2
asg150
Nsg151
g1117
sg152
(lp1120
sg154
g62
sg155
Nsg156
Nsg157
Nsbag2
(g3
g4
Ntp1121
Rp1122
(dp1123
g8
g11
sg135
Nsg136
(dp1124
sg138
Nsg26
g29
sg139
(lp1125
I15
aI3
asg141
Nsg142
VMishnah Yevamot 15:3
p1126
sg144
(lp1127
sg146
g96
sg147
Nsg148
(lp1128
I15
aI3
asg150
Nsg151
g1126
sg152
(lp1129
sg154
g62
sg155
Nsg156
Nsg157
Nsbag2
(g3
g4
Ntp1130
Rp1131
(dp1132
g8
g11
sg135
Nsg136
(dp1133
sg138
Nsg26
g29
sg139
(lp1134
I15
aI4
asg141
Nsg142
VMishnah Yevamot 15:4
p1135
sg144
(lp1136
sg146
g96
sg147
Nsg148
(lp1137
I15
aI4
asg150
Nsg151
g1135
sg152
(lp1138
sg154
g62
sg155
Nsg156
Nsg157
Nsbag2
(g3
g4
Ntp1139
Rp1140
(dp1141
g8
g11
sg135
Nsg136
(dp1142
sg138
Nsg26
g29
sg139
(lp1143
I15
aI5
asg141
Nsg142
VMishnah Yevamot 15:5
p1144
sg144
(lp1145
sg146
g96
sg147
Nsg148
(lp1146
I15
aI5
asg150
Nsg151
g1144
sg152
(lp1147
sg154
g62
sg155
Nsg156
Nsg157
Nsbag2
(g3
g4
Ntp1148
Rp1149
(dp1150
g8
g11
sg135
Nsg136
(dp1151
sg138
Nsg26
g29
sg139
(lp1152
I15
aI6
asg141
Nsg142
VMishnah Yevamot 15:6
p1153
sg144
(lp1154
sg146
g96
sg147
Nsg148
(lp1155
I15
aI6
asg150
Nsg151
g1153
sg152
(lp1156
sg154
g62
sg155
Nsg156
Nsg157
Nsbag2
(g3
g4
Ntp1157
Rp1158
(dp1159
g8
g11
sg135
Nsg136
(dp1160
sg138
Nsg26
g29
sg139
(lp1161
I15
aI7
asg141
Nsg142
VMishnah Yevamot 15:7
p1162
sg144
(lp1163
sg146
g96
sg147
Nsg148
(lp1164
I15
aI7
asg150
Nsg151
g1162
sg152
(lp1165
sg154
g62
sg155
Nsg156
Nsg157
Nsbag2
(g3
g4
Ntp1166
Rp1167
(dp1168
g8
g11
sg135
Nsg136
(dp1169
sg138
Nsg26
g29
sg139
(lp1170
I15
aI8
asg141
Nsg142
VMishnah Yevamot 15:8
p1171
sg144
(lp1172
sg146
g96
sg147
Nsg148
(lp1173
I15
aI8
asg150
Nsg151
g1171
sg152
(lp1174
sg154
g62
sg155
Nsg156
Nsg157
Nsbag2
(g3
g4
Ntp1175
Rp1176
(dp1177
g8
g11
sg135
Nsg136
(dp1178
sg138
Nsg26
g29
sg139
(lp1179
I15
aI9
asg141
Nsg142
VMishnah Yevamot 15:9
p1180
sg144
(lp1181
sg146
g96
sg147
Nsg148
(lp1182
I15
aI9
asg150
Nsg151
g1180
sg152
(lp1183
sg154
g62
sg155
Nsg156
Nsg157
Nsbag2
(g3
g4
Ntp1184
Rp1185
(dp1186
g8
g11
sg135
Nsg136
(dp1187
sg138
Nsg26
g29
sg139
(lp1188
I15
aI10
asg141
Nsg142
VMishnah Yevamot 15:10
p1189
sg144
(lp1190
sg146
g96
sg147
Nsg148
(lp1191
I15
aI10
asg150
Nsg151
g1189
sg152
(lp1192
sg154
g62
sg155
Nsg156
Nsg157
Nsbag2
(g3
g4
Ntp1193
Rp1194
(dp1195
g8
g11
sg135
Nsg136
(dp1196
sg138
Nsg26
g29
sg139
(lp1197
I16
aI1
asg141
Nsg142
VMishnah Yevamot 16:1
p1198
sg144
(lp1199
sg146
g96
sg147
Nsg148
(lp1200
I16
aI1
asg150
Nsg151
g1198
sg152
(lp1201
sg154
g62
sg155
Nsg156
Nsg157
Nsbag2
(g3
g4
Ntp1202
Rp1203
(dp1204
g8
g11
sg135
Nsg136
(dp1205
sg138
Nsg26
g29
sg139
(lp1206
I16
aI2
asg141
Nsg142
VMishnah Yevamot 16:2
p1207
sg144
(lp1208
sg146
g96
sg147
Nsg148
(lp1209
I16
aI2
asg150
Nsg151
g1207
sg152
(lp1210
sg154
g62
sg155
Nsg156
Nsg157
Nsbag2
(g3
g4
Ntp1211
Rp1212
(dp1213
g8
g11
sg135
Nsg136
(dp1214
sg138
Nsg26
g29
sg139
(lp1215
I16
aI3
asg141
Nsg142
VMishnah Yevamot 16:3
p1216
sg144
(lp1217
sg146
g96
sg147
Nsg148
(lp1218
I16
aI3
asg150
Nsg151
g1216
sg152
(lp1219
sg154
g62
sg155
Nsg156
Nsg157
Nsbag2
(g3
g4
Ntp1220
Rp1221
(dp1222
g8
g11
sg135
Nsg136
(dp1223
sg138
Nsg26
g29
sg139
(lp1224
I16
aI4
asg141
Nsg142
VMishnah Yevamot 16:4
p1225
sg144
(lp1226
sg146
g96
sg147
Nsg148
(lp1227
I16
aI4
asg150
Nsg151
g1225
sg152
(lp1228
sg154
g62
sg155
Nsg156
Nsg157
Nsbag2
(g3
g4
Ntp1229
Rp1230
(dp1231
g8
g11
sg135
Nsg136
(dp1232
sg138
Nsg26
g29
sg139
(lp1233
I16
aI5
asg141
Nsg142
VMishnah Yevamot 16:5
p1234
sg144
(lp1235
sg146
g96
sg147
Nsg148
(lp1236
I16
aI5
asg150
Nsg151
g1234
sg152
(lp1237
sg154
g62
sg155
Nsg156
Nsg157
Nsbag2
(g3
g4
Ntp1238
Rp1239
(dp1240
g8
g11
sg135
Nsg136
(dp1241
sg138
Nsg26
g29
sg139
(lp1242
I16
aI6
asg141
Nsg142
VMishnah Yevamot 16:6
p1243
sg144
(lp1244
sg146
g96
sg147
Nsg148
(lp1245
I16
aI6
asg150
Nsg151
g1243
sg152
(lp1246
sg154
g62
sg155
Nsg156
Nsg157
Nsbag2
(g3
g4
Ntp1247
Rp1248
(dp1249
g8
g11
sg135
Nsg136
(dp1250
sg138
Nsg26
g29
sg139
(lp1251
I16
aI7
asg141
Nsg142
VMishnah Yevamot 16:7
p1252
sg144
(lp1253
sg146
g96
sg147
Nsg148
(lp1254
I16
aI7
asg150
Nsg151
g1252
sg152
(lp1255
sg154
g62
sg155
Nsg156
Nsg157
Nsbatp1256
.