((lp0
I0
aI47
aI65
aI116
aI141
aI176
aI216
aI235
aI318
aI369
aI428
aI494
aI532
aI553
aI580
aI626
aI736
aI771
aI816
aI858
aI917
aI943
aI1055
aI1116
aI1152
aI1199
aI1226
aI1251
aI1275
aI1313
aI1343
aI1402
aI1445
aI1519
aI1578
aI1621
aI1701
aI1735
aI1775
aI1826
aI1902
aI2001
aI2059
aI2096
aI2116
aI2142
aI2226
aI2258
aI2302
aI2313
aI2372
aI2402
aI2439
aI2458
aI2505
aI2531
aI2569
aI2585
aI2626
aI2647
aI2683
aI2708
aI2737
aI2808
aI2844
aI2900
aI2958
aI3037
aI3079
aI3153
aI3195
aI3241
aI3302
aI3347
aI3406
aI3434
aI3467
aI3519
aI3554
aI3573
aI3582
aI3671
aI3708
aI3753
aI3796
aI3826
aI3879
aI3899
aI3942
aI3988
aI4010
aI4053
aI4128
aI4152
aI4179
aI4203
aI4262
aI4337
aI4387
aI4411
aI4435
aI4464
aI4540
aI4560
aI4594
aI4654
aI4695
aI4741
aI4772
aI4802
aI4847
aI4874
aI4925
aI4965
aI5018
aI5079
aI5161
aI5215
aI5240
aI5288
aI5339
aI5395
aI5424
aI5446
aI5515
aI5571
aI5619
aI5644
aI5694
aI5752
aI5796
aI5849
aI5877
aI5915
a(lp1
ccopy_reg
_reconstructor
p2
(csefaria.model.text
Ref
p3
c__builtin__
object
p4
Ntp5
Rp6
(dp7
S'index_node'
p8
g2
(csefaria.model.schema
JaggedArrayNode
p9
g4
Ntp10
Rp11
(dp12
S'_address'
p13
(lp14
VMishnah Oholot
p15
asS'_full_titles'
p16
(dp17
sVnodeType
p18
VJaggedArrayNode
p19
sS'parent'
p20
NsVaddressTypes
p21
(lp22
VPerek
p23
aVMishnah
p24
asS'default'
p25
I00
sS'index'
p26
g2
(csefaria.model.text
Index
p27
g4
Ntp28
Rp29
(dp30
S'_id'
p31
g2
(cbson.objectid
ObjectId
p32
g4
Ntp33
Rp34
S'NJ\xb8\x8f\xed\xba\xb4X3\x00\x00['
p35
bsS'pkeys_orig_values'
p36
(dp37
S'title'
p38
VMishnah Oholot
p39
ssS'pubDate'
p40
V1492
p41
sS'compDate'
p42
V210
p43
sS'pubPlace'
p44
VNaples
p45
sS'compPlace'
p46
VTalmudic Israel
p47
sS'enDesc'
p48
VThe Mishnah is the first major written redaction of the Jewish oral traditions known as the Oral Torah. The Mishnah was redacted by Rabbi Yehudah Ha-Nasi before his death around 217 CE, in a time when, according to the Talmud, the persecution of the Jews and the passage of time raised the possibility that the details of the oral traditions of the Pharisees from the Second Temple period (536 BCE \u2013 70 CE) would be forgotten. The majority of the Mishnah is written in Mishnaic Hebrew, while some parts are Aramaic. The Mishnah consists of six orders (sedarim, singular seder), each containing 7\u201312 tractates (masekhtot, singular masekhet), numbering 63 in total and further subdivided into chapters and paragraphs or verses. The word Mishnah can also indicate a single paragraph or a verse of the work itself, i.e. the smallest unit of structure in the Mishnah. For this reason the whole work is sometimes called by the plural, Mishnayot. Ohalot (Tents) belongs to the sixth order, Tahorot (Purities) and discusses with the laws of the Zaraath (an unknown skin disease). It has eighteen chapters.
p49
sS'order'
p50
(lp51
I53
aI2
asS'era'
p52
VT
p53
sS'struct_objs'
p54
(dp55
sS'nodes'
p56
g11
sS'errorMargin'
p57
V20
p58
sS'_title'
p59
g39
sS'categories'
p60
(lp61
VMishnah
p62
aVSeder Tahorot
p63
asS'schema'
p64
(dp65
g18
g19
sg21
g22
sVlengths
p66
(lp67
I18
aI134
asVdepth
p68
I2
sVtitles
p69
(lp70
(dp71
Vlang
p72
Ven
p73
sVtext
p74
VM. Oholot
p75
sa(dp76
Vlang
p77
Ven
p78
sVtext
p79
VMishna Oholot
p80
sa(dp81
Vlang
p82
Ven
p83
sVtext
p84
VM Oholot
p85
sa(dp86
Vlang
p87
Vhe
p88
sVtext
p89
V\u05de\u05e9\u05e0\u05d4 \u05d0\u05d4\u05dc\u05d5\u05ea
p90
sVprimary
p91
I01
sa(dp92
Vlang
p93
Vhe
p94
sVtext
p95
V\u05d0\u05d4\u05dc\u05d5\u05ea
p96
sa(dp97
Vlang
p98
Ven
p99
sVtext
p100
VMishnah Oholot
p101
sVprimary
p102
I01
sasVkey
p103
g15
sVsectionNames
p104
(lp105
VChapter
p106
aVMishna
p107
assbsS'_primary_title'
p108
(dp109
sS'title_group'
p110
g2
(csefaria.model.schema
TitleGroup
p111
g4
Ntp112
Rp113
(dp114
g108
(dp115
S'en'
p116
g101
ssS'titles'
p117
g70
sbsS'_addressTypes'
p118
(lp119
g2
(csefaria.model.schema
AddressPerek
p120
g4
Ntp121
Rp122
(dp123
S'length'
p124
I18
sg50
I0
sbag2
(csefaria.model.schema
AddressMishnah
p125
g4
Ntp126
Rp127
(dp128
g124
Nsg50
I1
sbasS'sharedTitle'
p129
Nsg66
g67
sg68
I2
sS'_full_title'
p130
(dp131
g116
g101
ssS'key'
p132
g15
sS'checkFirst'
p133
NsS'_regexes'
p134
(dp135
sS'_leaf_nodes'
p136
(lp137
sg104
g105
sS'children'
p138
(lp139
sbsS'_range_index'
p140
NsS'_context'
p141
(dp142
sS'_padded'
p143
Nsg26
g29
sS'sections'
p144
(lp145
I1
aI1
asS'_first_spanned_ref'
p146
NsS'tref'
p147
VMishnah Oholot 1:1
p148
sS'_spanned_refs'
p149
(lp150
sS'book'
p151
g101
sS'_range_depth'
p152
NsS'toSections'
p153
(lp154
I1
aI1
asS'_url'
p155
NsS'_normal'
p156
g148
sS'_ranged_refs'
p157
(lp158
sS'type'
p159
g62
sS'_prev'
p160
NsS'_he_normal'
p161
NsS'_next'
p162
Nsbag2
(g3
g4
Ntp163
Rp164
(dp165
g8
g11
sg140
Nsg141
(dp166
sg143
Nsg26
g29
sg144
(lp167
I1
aI2
asg146
Nsg147
VMishnah Oholot 1:2
p168
sg149
(lp169
sg151
g101
sg152
Nsg153
(lp170
I1
aI2
asg155
Nsg156
g168
sg157
(lp171
sg159
g62
sg160
Nsg161
Nsg162
Nsbag2
(g3
g4
Ntp172
Rp173
(dp174
g8
g11
sg140
Nsg141
(dp175
sg143
Nsg26
g29
sg144
(lp176
I1
aI3
asg146
Nsg147
VMishnah Oholot 1:3
p177
sg149
(lp178
sg151
g101
sg152
Nsg153
(lp179
I1
aI3
asg155
Nsg156
g177
sg157
(lp180
sg159
g62
sg160
Nsg161
Nsg162
Nsbag2
(g3
g4
Ntp181
Rp182
(dp183
g8
g11
sg140
Nsg141
(dp184
sg143
Nsg26
g29
sg144
(lp185
I1
aI4
asg146
Nsg147
VMishnah Oholot 1:4
p186
sg149
(lp187
sg151
g101
sg152
Nsg153
(lp188
I1
aI4
asg155
Nsg156
g186
sg157
(lp189
sg159
g62
sg160
Nsg161
Nsg162
Nsbag2
(g3
g4
Ntp190
Rp191
(dp192
g8
g11
sg140
Nsg141
(dp193
sg143
Nsg26
g29
sg144
(lp194
I1
aI5
asg146
Nsg147
VMishnah Oholot 1:5
p195
sg149
(lp196
sg151
g101
sg152
Nsg153
(lp197
I1
aI5
asg155
Nsg156
g195
sg157
(lp198
sg159
g62
sg160
Nsg161
Nsg162
Nsbag2
(g3
g4
Ntp199
Rp200
(dp201
g8
g11
sg140
Nsg141
(dp202
sg143
Nsg26
g29
sg144
(lp203
I1
aI6
asg146
Nsg147
VMishnah Oholot 1:6
p204
sg149
(lp205
sg151
g101
sg152
Nsg153
(lp206
I1
aI6
asg155
Nsg156
g204
sg157
(lp207
sg159
g62
sg160
Nsg161
Nsg162
Nsbag2
(g3
g4
Ntp208
Rp209
(dp210
g8
g11
sg140
Nsg141
(dp211
sg143
Nsg26
g29
sg144
(lp212
I1
aI7
asg146
Nsg147
VMishnah Oholot 1:7
p213
sg149
(lp214
sg151
g101
sg152
Nsg153
(lp215
I1
aI7
asg155
Nsg156
g213
sg157
(lp216
sg159
g62
sg160
Nsg161
Nsg162
Nsbag2
(g3
g4
Ntp217
Rp218
(dp219
g8
g11
sg140
Nsg141
(dp220
sg143
Nsg26
g29
sg144
(lp221
I1
aI8
asg146
Nsg147
VMishnah Oholot 1:8
p222
sg149
(lp223
sg151
g101
sg152
Nsg153
(lp224
I1
aI8
asg155
Nsg156
g222
sg157
(lp225
sg159
g62
sg160
Nsg161
Nsg162
Nsbag2
(g3
g4
Ntp226
Rp227
(dp228
g8
g11
sg140
Nsg141
(dp229
sg143
Nsg26
g29
sg144
(lp230
I2
aI1
asg146
Nsg147
VMishnah Oholot 2:1
p231
sg149
(lp232
sg151
g101
sg152
Nsg153
(lp233
I2
aI1
asg155
Nsg156
g231
sg157
(lp234
sg159
g62
sg160
Nsg161
Nsg162
Nsbag2
(g3
g4
Ntp235
Rp236
(dp237
g8
g11
sg140
Nsg141
(dp238
sg143
Nsg26
g29
sg144
(lp239
I2
aI2
asg146
Nsg147
VMishnah Oholot 2:2
p240
sg149
(lp241
sg151
g101
sg152
Nsg153
(lp242
I2
aI2
asg155
Nsg156
g240
sg157
(lp243
sg159
g62
sg160
Nsg161
Nsg162
Nsbag2
(g3
g4
Ntp244
Rp245
(dp246
g8
g11
sg140
Nsg141
(dp247
sg143
Nsg26
g29
sg144
(lp248
I2
aI3
asg146
Nsg147
VMishnah Oholot 2:3
p249
sg149
(lp250
sg151
g101
sg152
Nsg153
(lp251
I2
aI3
asg155
Nsg156
g249
sg157
(lp252
sg159
g62
sg160
Nsg161
Nsg162
Nsbag2
(g3
g4
Ntp253
Rp254
(dp255
g8
g11
sg140
Nsg141
(dp256
sg143
Nsg26
g29
sg144
(lp257
I2
aI4
asg146
Nsg147
VMishnah Oholot 2:4
p258
sg149
(lp259
sg151
g101
sg152
Nsg153
(lp260
I2
aI4
asg155
Nsg156
g258
sg157
(lp261
sg159
g62
sg160
Nsg161
Nsg162
Nsbag2
(g3
g4
Ntp262
Rp263
(dp264
g8
g11
sg140
Nsg141
(dp265
sg143
Nsg26
g29
sg144
(lp266
I2
aI5
asg146
Nsg147
VMishnah Oholot 2:5
p267
sg149
(lp268
sg151
g101
sg152
Nsg153
(lp269
I2
aI5
asg155
Nsg156
g267
sg157
(lp270
sg159
g62
sg160
Nsg161
Nsg162
Nsbag2
(g3
g4
Ntp271
Rp272
(dp273
g8
g11
sg140
Nsg141
(dp274
sg143
Nsg26
g29
sg144
(lp275
I2
aI6
asg146
Nsg147
VMishnah Oholot 2:6
p276
sg149
(lp277
sg151
g101
sg152
Nsg153
(lp278
I2
aI6
asg155
Nsg156
g276
sg157
(lp279
sg159
g62
sg160
Nsg161
Nsg162
Nsbag2
(g3
g4
Ntp280
Rp281
(dp282
g8
g11
sg140
Nsg141
(dp283
sg143
Nsg26
g29
sg144
(lp284
I2
aI7
asg146
Nsg147
VMishnah Oholot 2:7
p285
sg149
(lp286
sg151
g101
sg152
Nsg153
(lp287
I2
aI7
asg155
Nsg156
g285
sg157
(lp288
sg159
g62
sg160
Nsg161
Nsg162
Nsbag2
(g3
g4
Ntp289
Rp290
(dp291
g8
g11
sg140
Nsg141
(dp292
sg143
Nsg26
g29
sg144
(lp293
I3
aI1
asg146
Nsg147
VMishnah Oholot 3:1
p294
sg149
(lp295
sg151
g101
sg152
Nsg153
(lp296
I3
aI1
asg155
Nsg156
g294
sg157
(lp297
sg159
g62
sg160
Nsg161
Nsg162
Nsbag2
(g3
g4
Ntp298
Rp299
(dp300
g8
g11
sg140
Nsg141
(dp301
sg143
Nsg26
g29
sg144
(lp302
I3
aI2
asg146
Nsg147
VMishnah Oholot 3:2
p303
sg149
(lp304
sg151
g101
sg152
Nsg153
(lp305
I3
aI2
asg155
Nsg156
g303
sg157
(lp306
sg159
g62
sg160
Nsg161
Nsg162
Nsbag2
(g3
g4
Ntp307
Rp308
(dp309
g8
g11
sg140
Nsg141
(dp310
sg143
Nsg26
g29
sg144
(lp311
I3
aI3
asg146
Nsg147
VMishnah Oholot 3:3
p312
sg149
(lp313
sg151
g101
sg152
Nsg153
(lp314
I3
aI3
asg155
Nsg156
g312
sg157
(lp315
sg159
g62
sg160
Nsg161
Nsg162
Nsbag2
(g3
g4
Ntp316
Rp317
(dp318
g8
g11
sg140
Nsg141
(dp319
sg143
Nsg26
g29
sg144
(lp320
I3
aI4
asg146
Nsg147
VMishnah Oholot 3:4
p321
sg149
(lp322
sg151
g101
sg152
Nsg153
(lp323
I3
aI4
asg155
Nsg156
g321
sg157
(lp324
sg159
g62
sg160
Nsg161
Nsg162
Nsbag2
(g3
g4
Ntp325
Rp326
(dp327
g8
g11
sg140
Nsg141
(dp328
sg143
Nsg26
g29
sg144
(lp329
I3
aI5
asg146
Nsg147
VMishnah Oholot 3:5
p330
sg149
(lp331
sg151
g101
sg152
Nsg153
(lp332
I3
aI5
asg155
Nsg156
g330
sg157
(lp333
sg159
g62
sg160
Nsg161
Nsg162
Nsbag2
(g3
g4
Ntp334
Rp335
(dp336
g8
g11
sg140
Nsg141
(dp337
sg143
Nsg26
g29
sg144
(lp338
I3
aI6
asg146
Nsg147
VMishnah Oholot 3:6
p339
sg149
(lp340
sg151
g101
sg152
Nsg153
(lp341
I3
aI6
asg155
Nsg156
g339
sg157
(lp342
sg159
g62
sg160
Nsg161
Nsg162
Nsbag2
(g3
g4
Ntp343
Rp344
(dp345
g8
g11
sg140
Nsg141
(dp346
sg143
Nsg26
g29
sg144
(lp347
I3
aI7
asg146
Nsg147
VMishnah Oholot 3:7
p348
sg149
(lp349
sg151
g101
sg152
Nsg153
(lp350
I3
aI7
asg155
Nsg156
g348
sg157
(lp351
sg159
g62
sg160
Nsg161
Nsg162
Nsbag2
(g3
g4
Ntp352
Rp353
(dp354
g8
g11
sg140
Nsg141
(dp355
sg143
Nsg26
g29
sg144
(lp356
I4
aI1
asg146
Nsg147
VMishnah Oholot 4:1
p357
sg149
(lp358
sg151
g101
sg152
Nsg153
(lp359
I4
aI1
asg155
Nsg156
g357
sg157
(lp360
sg159
g62
sg160
Nsg161
Nsg162
Nsbag2
(g3
g4
Ntp361
Rp362
(dp363
g8
g11
sg140
Nsg141
(dp364
sg143
Nsg26
g29
sg144
(lp365
I4
aI2
asg146
Nsg147
VMishnah Oholot 4:2
p366
sg149
(lp367
sg151
g101
sg152
Nsg153
(lp368
I4
aI2
asg155
Nsg156
g366
sg157
(lp369
sg159
g62
sg160
Nsg161
Nsg162
Nsbag2
(g3
g4
Ntp370
Rp371
(dp372
g8
g11
sg140
Nsg141
(dp373
sg143
Nsg26
g29
sg144
(lp374
I4
aI3
asg146
Nsg147
VMishnah Oholot 4:3
p375
sg149
(lp376
sg151
g101
sg152
Nsg153
(lp377
I4
aI3
asg155
Nsg156
g375
sg157
(lp378
sg159
g62
sg160
Nsg161
Nsg162
Nsbag2
(g3
g4
Ntp379
Rp380
(dp381
g8
g11
sg140
Nsg141
(dp382
sg143
Nsg26
g29
sg144
(lp383
I5
aI1
asg146
Nsg147
VMishnah Oholot 5:1
p384
sg149
(lp385
sg151
g101
sg152
Nsg153
(lp386
I5
aI1
asg155
Nsg156
g384
sg157
(lp387
sg159
g62
sg160
Nsg161
Nsg162
Nsbag2
(g3
g4
Ntp388
Rp389
(dp390
g8
g11
sg140
Nsg141
(dp391
sg143
Nsg26
g29
sg144
(lp392
I5
aI2
asg146
Nsg147
VMishnah Oholot 5:2
p393
sg149
(lp394
sg151
g101
sg152
Nsg153
(lp395
I5
aI2
asg155
Nsg156
g393
sg157
(lp396
sg159
g62
sg160
Nsg161
Nsg162
Nsbag2
(g3
g4
Ntp397
Rp398
(dp399
g8
g11
sg140
Nsg141
(dp400
sg143
Nsg26
g29
sg144
(lp401
I5
aI3
asg146
Nsg147
VMishnah Oholot 5:3
p402
sg149
(lp403
sg151
g101
sg152
Nsg153
(lp404
I5
aI3
asg155
Nsg156
g402
sg157
(lp405
sg159
g62
sg160
Nsg161
Nsg162
Nsbag2
(g3
g4
Ntp406
Rp407
(dp408
g8
g11
sg140
Nsg141
(dp409
sg143
Nsg26
g29
sg144
(lp410
I5
aI4
asg146
Nsg147
VMishnah Oholot 5:4
p411
sg149
(lp412
sg151
g101
sg152
Nsg153
(lp413
I5
aI4
asg155
Nsg156
g411
sg157
(lp414
sg159
g62
sg160
Nsg161
Nsg162
Nsbag2
(g3
g4
Ntp415
Rp416
(dp417
g8
g11
sg140
Nsg141
(dp418
sg143
Nsg26
g29
sg144
(lp419
I5
aI5
asg146
Nsg147
VMishnah Oholot 5:5
p420
sg149
(lp421
sg151
g101
sg152
Nsg153
(lp422
I5
aI5
asg155
Nsg156
g420
sg157
(lp423
sg159
g62
sg160
Nsg161
Nsg162
Nsbag2
(g3
g4
Ntp424
Rp425
(dp426
g8
g11
sg140
Nsg141
(dp427
sg143
Nsg26
g29
sg144
(lp428
I5
aI6
asg146
Nsg147
VMishnah Oholot 5:6
p429
sg149
(lp430
sg151
g101
sg152
Nsg153
(lp431
I5
aI6
asg155
Nsg156
g429
sg157
(lp432
sg159
g62
sg160
Nsg161
Nsg162
Nsbag2
(g3
g4
Ntp433
Rp434
(dp435
g8
g11
sg140
Nsg141
(dp436
sg143
Nsg26
g29
sg144
(lp437
I5
aI7
asg146
Nsg147
VMishnah Oholot 5:7
p438
sg149
(lp439
sg151
g101
sg152
Nsg153
(lp440
I5
aI7
asg155
Nsg156
g438
sg157
(lp441
sg159
g62
sg160
Nsg161
Nsg162
Nsbag2
(g3
g4
Ntp442
Rp443
(dp444
g8
g11
sg140
Nsg141
(dp445
sg143
Nsg26
g29
sg144
(lp446
I6
aI1
asg146
Nsg147
VMishnah Oholot 6:1
p447
sg149
(lp448
sg151
g101
sg152
Nsg153
(lp449
I6
aI1
asg155
Nsg156
g447
sg157
(lp450
sg159
g62
sg160
Nsg161
Nsg162
Nsbag2
(g3
g4
Ntp451
Rp452
(dp453
g8
g11
sg140
Nsg141
(dp454
sg143
Nsg26
g29
sg144
(lp455
I6
aI2
asg146
Nsg147
VMishnah Oholot 6:2
p456
sg149
(lp457
sg151
g101
sg152
Nsg153
(lp458
I6
aI2
asg155
Nsg156
g456
sg157
(lp459
sg159
g62
sg160
Nsg161
Nsg162
Nsbag2
(g3
g4
Ntp460
Rp461
(dp462
g8
g11
sg140
Nsg141
(dp463
sg143
Nsg26
g29
sg144
(lp464
I6
aI3
asg146
Nsg147
VMishnah Oholot 6:3
p465
sg149
(lp466
sg151
g101
sg152
Nsg153
(lp467
I6
aI3
asg155
Nsg156
g465
sg157
(lp468
sg159
g62
sg160
Nsg161
Nsg162
Nsbag2
(g3
g4
Ntp469
Rp470
(dp471
g8
g11
sg140
Nsg141
(dp472
sg143
Nsg26
g29
sg144
(lp473
I6
aI4
asg146
Nsg147
VMishnah Oholot 6:4
p474
sg149
(lp475
sg151
g101
sg152
Nsg153
(lp476
I6
aI4
asg155
Nsg156
g474
sg157
(lp477
sg159
g62
sg160
Nsg161
Nsg162
Nsbag2
(g3
g4
Ntp478
Rp479
(dp480
g8
g11
sg140
Nsg141
(dp481
sg143
Nsg26
g29
sg144
(lp482
I6
aI5
asg146
Nsg147
VMishnah Oholot 6:5
p483
sg149
(lp484
sg151
g101
sg152
Nsg153
(lp485
I6
aI5
asg155
Nsg156
g483
sg157
(lp486
sg159
g62
sg160
Nsg161
Nsg162
Nsbag2
(g3
g4
Ntp487
Rp488
(dp489
g8
g11
sg140
Nsg141
(dp490
sg143
Nsg26
g29
sg144
(lp491
I6
aI6
asg146
Nsg147
VMishnah Oholot 6:6
p492
sg149
(lp493
sg151
g101
sg152
Nsg153
(lp494
I6
aI6
asg155
Nsg156
g492
sg157
(lp495
sg159
g62
sg160
Nsg161
Nsg162
Nsbag2
(g3
g4
Ntp496
Rp497
(dp498
g8
g11
sg140
Nsg141
(dp499
sg143
Nsg26
g29
sg144
(lp500
I6
aI7
asg146
Nsg147
VMishnah Oholot 6:7
p501
sg149
(lp502
sg151
g101
sg152
Nsg153
(lp503
I6
aI7
asg155
Nsg156
g501
sg157
(lp504
sg159
g62
sg160
Nsg161
Nsg162
Nsbag2
(g3
g4
Ntp505
Rp506
(dp507
g8
g11
sg140
Nsg141
(dp508
sg143
Nsg26
g29
sg144
(lp509
I7
aI1
asg146
Nsg147
VMishnah Oholot 7:1
p510
sg149
(lp511
sg151
g101
sg152
Nsg153
(lp512
I7
aI1
asg155
Nsg156
g510
sg157
(lp513
sg159
g62
sg160
Nsg161
Nsg162
Nsbag2
(g3
g4
Ntp514
Rp515
(dp516
g8
g11
sg140
Nsg141
(dp517
sg143
Nsg26
g29
sg144
(lp518
I7
aI2
asg146
Nsg147
VMishnah Oholot 7:2
p519
sg149
(lp520
sg151
g101
sg152
Nsg153
(lp521
I7
aI2
asg155
Nsg156
g519
sg157
(lp522
sg159
g62
sg160
Nsg161
Nsg162
Nsbag2
(g3
g4
Ntp523
Rp524
(dp525
g8
g11
sg140
Nsg141
(dp526
sg143
Nsg26
g29
sg144
(lp527
I7
aI3
asg146
Nsg147
VMishnah Oholot 7:3
p528
sg149
(lp529
sg151
g101
sg152
Nsg153
(lp530
I7
aI3
asg155
Nsg156
g528
sg157
(lp531
sg159
g62
sg160
Nsg161
Nsg162
Nsbag2
(g3
g4
Ntp532
Rp533
(dp534
g8
g11
sg140
Nsg141
(dp535
sg143
Nsg26
g29
sg144
(lp536
I7
aI4
asg146
Nsg147
VMishnah Oholot 7:4
p537
sg149
(lp538
sg151
g101
sg152
Nsg153
(lp539
I7
aI4
asg155
Nsg156
g537
sg157
(lp540
sg159
g62
sg160
Nsg161
Nsg162
Nsbag2
(g3
g4
Ntp541
Rp542
(dp543
g8
g11
sg140
Nsg141
(dp544
sg143
Nsg26
g29
sg144
(lp545
I7
aI5
asg146
Nsg147
VMishnah Oholot 7:5
p546
sg149
(lp547
sg151
g101
sg152
Nsg153
(lp548
I7
aI5
asg155
Nsg156
g546
sg157
(lp549
sg159
g62
sg160
Nsg161
Nsg162
Nsbag2
(g3
g4
Ntp550
Rp551
(dp552
g8
g11
sg140
Nsg141
(dp553
sg143
Nsg26
g29
sg144
(lp554
I7
aI6
asg146
Nsg147
VMishnah Oholot 7:6
p555
sg149
(lp556
sg151
g101
sg152
Nsg153
(lp557
I7
aI6
asg155
Nsg156
g555
sg157
(lp558
sg159
g62
sg160
Nsg161
Nsg162
Nsbag2
(g3
g4
Ntp559
Rp560
(dp561
g8
g11
sg140
Nsg141
(dp562
sg143
Nsg26
g29
sg144
(lp563
I8
aI1
asg146
Nsg147
VMishnah Oholot 8:1
p564
sg149
(lp565
sg151
g101
sg152
Nsg153
(lp566
I8
aI1
asg155
Nsg156
g564
sg157
(lp567
sg159
g62
sg160
Nsg161
Nsg162
Nsbag2
(g3
g4
Ntp568
Rp569
(dp570
g8
g11
sg140
Nsg141
(dp571
sg143
Nsg26
g29
sg144
(lp572
I8
aI2
asg146
Nsg147
VMishnah Oholot 8:2
p573
sg149
(lp574
sg151
g101
sg152
Nsg153
(lp575
I8
aI2
asg155
Nsg156
g573
sg157
(lp576
sg159
g62
sg160
Nsg161
Nsg162
Nsbag2
(g3
g4
Ntp577
Rp578
(dp579
g8
g11
sg140
Nsg141
(dp580
sg143
Nsg26
g29
sg144
(lp581
I8
aI3
asg146
Nsg147
VMishnah Oholot 8:3
p582
sg149
(lp583
sg151
g101
sg152
Nsg153
(lp584
I8
aI3
asg155
Nsg156
g582
sg157
(lp585
sg159
g62
sg160
Nsg161
Nsg162
Nsbag2
(g3
g4
Ntp586
Rp587
(dp588
g8
g11
sg140
Nsg141
(dp589
sg143
Nsg26
g29
sg144
(lp590
I8
aI4
asg146
Nsg147
VMishnah Oholot 8:4
p591
sg149
(lp592
sg151
g101
sg152
Nsg153
(lp593
I8
aI4
asg155
Nsg156
g591
sg157
(lp594
sg159
g62
sg160
Nsg161
Nsg162
Nsbag2
(g3
g4
Ntp595
Rp596
(dp597
g8
g11
sg140
Nsg141
(dp598
sg143
Nsg26
g29
sg144
(lp599
I8
aI5
asg146
Nsg147
VMishnah Oholot 8:5
p600
sg149
(lp601
sg151
g101
sg152
Nsg153
(lp602
I8
aI5
asg155
Nsg156
g600
sg157
(lp603
sg159
g62
sg160
Nsg161
Nsg162
Nsbag2
(g3
g4
Ntp604
Rp605
(dp606
g8
g11
sg140
Nsg141
(dp607
sg143
Nsg26
g29
sg144
(lp608
I8
aI6
asg146
Nsg147
VMishnah Oholot 8:6
p609
sg149
(lp610
sg151
g101
sg152
Nsg153
(lp611
I8
aI6
asg155
Nsg156
g609
sg157
(lp612
sg159
g62
sg160
Nsg161
Nsg162
Nsbag2
(g3
g4
Ntp613
Rp614
(dp615
g8
g11
sg140
Nsg141
(dp616
sg143
Nsg26
g29
sg144
(lp617
I9
aI1
asg146
Nsg147
VMishnah Oholot 9:1
p618
sg149
(lp619
sg151
g101
sg152
Nsg153
(lp620
I9
aI1
asg155
Nsg156
g618
sg157
(lp621
sg159
g62
sg160
Nsg161
Nsg162
Nsbag2
(g3
g4
Ntp622
Rp623
(dp624
g8
g11
sg140
Nsg141
(dp625
sg143
Nsg26
g29
sg144
(lp626
I9
aI2
asg146
Nsg147
VMishnah Oholot 9:2
p627
sg149
(lp628
sg151
g101
sg152
Nsg153
(lp629
I9
aI2
asg155
Nsg156
g627
sg157
(lp630
sg159
g62
sg160
Nsg161
Nsg162
Nsbag2
(g3
g4
Ntp631
Rp632
(dp633
g8
g11
sg140
Nsg141
(dp634
sg143
Nsg26
g29
sg144
(lp635
I9
aI3
asg146
Nsg147
VMishnah Oholot 9:3
p636
sg149
(lp637
sg151
g101
sg152
Nsg153
(lp638
I9
aI3
asg155
Nsg156
g636
sg157
(lp639
sg159
g62
sg160
Nsg161
Nsg162
Nsbag2
(g3
g4
Ntp640
Rp641
(dp642
g8
g11
sg140
Nsg141
(dp643
sg143
Nsg26
g29
sg144
(lp644
I9
aI4
asg146
Nsg147
VMishnah Oholot 9:4
p645
sg149
(lp646
sg151
g101
sg152
Nsg153
(lp647
I9
aI4
asg155
Nsg156
g645
sg157
(lp648
sg159
g62
sg160
Nsg161
Nsg162
Nsbag2
(g3
g4
Ntp649
Rp650
(dp651
g8
g11
sg140
Nsg141
(dp652
sg143
Nsg26
g29
sg144
(lp653
I9
aI5
asg146
Nsg147
VMishnah Oholot 9:5
p654
sg149
(lp655
sg151
g101
sg152
Nsg153
(lp656
I9
aI5
asg155
Nsg156
g654
sg157
(lp657
sg159
g62
sg160
Nsg161
Nsg162
Nsbag2
(g3
g4
Ntp658
Rp659
(dp660
g8
g11
sg140
Nsg141
(dp661
sg143
Nsg26
g29
sg144
(lp662
I9
aI6
asg146
Nsg147
VMishnah Oholot 9:6
p663
sg149
(lp664
sg151
g101
sg152
Nsg153
(lp665
I9
aI6
asg155
Nsg156
g663
sg157
(lp666
sg159
g62
sg160
Nsg161
Nsg162
Nsbag2
(g3
g4
Ntp667
Rp668
(dp669
g8
g11
sg140
Nsg141
(dp670
sg143
Nsg26
g29
sg144
(lp671
I9
aI7
asg146
Nsg147
VMishnah Oholot 9:7
p672
sg149
(lp673
sg151
g101
sg152
Nsg153
(lp674
I9
aI7
asg155
Nsg156
g672
sg157
(lp675
sg159
g62
sg160
Nsg161
Nsg162
Nsbag2
(g3
g4
Ntp676
Rp677
(dp678
g8
g11
sg140
Nsg141
(dp679
sg143
Nsg26
g29
sg144
(lp680
I9
aI8
asg146
Nsg147
VMishnah Oholot 9:8
p681
sg149
(lp682
sg151
g101
sg152
Nsg153
(lp683
I9
aI8
asg155
Nsg156
g681
sg157
(lp684
sg159
g62
sg160
Nsg161
Nsg162
Nsbag2
(g3
g4
Ntp685
Rp686
(dp687
g8
g11
sg140
Nsg141
(dp688
sg143
Nsg26
g29
sg144
(lp689
I9
aI9
asg146
Nsg147
VMishnah Oholot 9:9
p690
sg149
(lp691
sg151
g101
sg152
Nsg153
(lp692
I9
aI9
asg155
Nsg156
g690
sg157
(lp693
sg159
g62
sg160
Nsg161
Nsg162
Nsbag2
(g3
g4
Ntp694
Rp695
(dp696
g8
g11
sg140
Nsg141
(dp697
sg143
Nsg26
g29
sg144
(lp698
I9
aI10
asg146
Nsg147
VMishnah Oholot 9:10
p699
sg149
(lp700
sg151
g101
sg152
Nsg153
(lp701
I9
aI10
asg155
Nsg156
g699
sg157
(lp702
sg159
g62
sg160
Nsg161
Nsg162
Nsbag2
(g3
g4
Ntp703
Rp704
(dp705
g8
g11
sg140
Nsg141
(dp706
sg143
Nsg26
g29
sg144
(lp707
I9
aI11
asg146
Nsg147
VMishnah Oholot 9:11
p708
sg149
(lp709
sg151
g101
sg152
Nsg153
(lp710
I9
aI11
asg155
Nsg156
g708
sg157
(lp711
sg159
g62
sg160
Nsg161
Nsg162
Nsbag2
(g3
g4
Ntp712
Rp713
(dp714
g8
g11
sg140
Nsg141
(dp715
sg143
Nsg26
g29
sg144
(lp716
I9
aI12
asg146
Nsg147
VMishnah Oholot 9:12
p717
sg149
(lp718
sg151
g101
sg152
Nsg153
(lp719
I9
aI12
asg155
Nsg156
g717
sg157
(lp720
sg159
g62
sg160
Nsg161
Nsg162
Nsbag2
(g3
g4
Ntp721
Rp722
(dp723
g8
g11
sg140
Nsg141
(dp724
sg143
Nsg26
g29
sg144
(lp725
I9
aI13
asg146
Nsg147
VMishnah Oholot 9:13
p726
sg149
(lp727
sg151
g101
sg152
Nsg153
(lp728
I9
aI13
asg155
Nsg156
g726
sg157
(lp729
sg159
g62
sg160
Nsg161
Nsg162
Nsbag2
(g3
g4
Ntp730
Rp731
(dp732
g8
g11
sg140
Nsg141
(dp733
sg143
Nsg26
g29
sg144
(lp734
I9
aI14
asg146
Nsg147
VMishnah Oholot 9:14
p735
sg149
(lp736
sg151
g101
sg152
Nsg153
(lp737
I9
aI14
asg155
Nsg156
g735
sg157
(lp738
sg159
g62
sg160
Nsg161
Nsg162
Nsbag2
(g3
g4
Ntp739
Rp740
(dp741
g8
g11
sg140
Nsg141
(dp742
sg143
Nsg26
g29
sg144
(lp743
I9
aI15
asg146
Nsg147
VMishnah Oholot 9:15
p744
sg149
(lp745
sg151
g101
sg152
Nsg153
(lp746
I9
aI15
asg155
Nsg156
g744
sg157
(lp747
sg159
g62
sg160
Nsg161
Nsg162
Nsbag2
(g3
g4
Ntp748
Rp749
(dp750
g8
g11
sg140
Nsg141
(dp751
sg143
Nsg26
g29
sg144
(lp752
I9
aI16
asg146
Nsg147
VMishnah Oholot 9:16
p753
sg149
(lp754
sg151
g101
sg152
Nsg153
(lp755
I9
aI16
asg155
Nsg156
g753
sg157
(lp756
sg159
g62
sg160
Nsg161
Nsg162
Nsbag2
(g3
g4
Ntp757
Rp758
(dp759
g8
g11
sg140
Nsg141
(dp760
sg143
Nsg26
g29
sg144
(lp761
I10
aI1
asg146
Nsg147
VMishnah Oholot 10:1
p762
sg149
(lp763
sg151
g101
sg152
Nsg153
(lp764
I10
aI1
asg155
Nsg156
g762
sg157
(lp765
sg159
g62
sg160
Nsg161
Nsg162
Nsbag2
(g3
g4
Ntp766
Rp767
(dp768
g8
g11
sg140
Nsg141
(dp769
sg143
Nsg26
g29
sg144
(lp770
I10
aI2
asg146
Nsg147
VMishnah Oholot 10:2
p771
sg149
(lp772
sg151
g101
sg152
Nsg153
(lp773
I10
aI2
asg155
Nsg156
g771
sg157
(lp774
sg159
g62
sg160
Nsg161
Nsg162
Nsbag2
(g3
g4
Ntp775
Rp776
(dp777
g8
g11
sg140
Nsg141
(dp778
sg143
Nsg26
g29
sg144
(lp779
I10
aI3
asg146
Nsg147
VMishnah Oholot 10:3
p780
sg149
(lp781
sg151
g101
sg152
Nsg153
(lp782
I10
aI3
asg155
Nsg156
g780
sg157
(lp783
sg159
g62
sg160
Nsg161
Nsg162
Nsbag2
(g3
g4
Ntp784
Rp785
(dp786
g8
g11
sg140
Nsg141
(dp787
sg143
Nsg26
g29
sg144
(lp788
I10
aI4
asg146
Nsg147
VMishnah Oholot 10:4
p789
sg149
(lp790
sg151
g101
sg152
Nsg153
(lp791
I10
aI4
asg155
Nsg156
g789
sg157
(lp792
sg159
g62
sg160
Nsg161
Nsg162
Nsbag2
(g3
g4
Ntp793
Rp794
(dp795
g8
g11
sg140
Nsg141
(dp796
sg143
Nsg26
g29
sg144
(lp797
I10
aI5
asg146
Nsg147
VMishnah Oholot 10:5
p798
sg149
(lp799
sg151
g101
sg152
Nsg153
(lp800
I10
aI5
asg155
Nsg156
g798
sg157
(lp801
sg159
g62
sg160
Nsg161
Nsg162
Nsbag2
(g3
g4
Ntp802
Rp803
(dp804
g8
g11
sg140
Nsg141
(dp805
sg143
Nsg26
g29
sg144
(lp806
I10
aI6
asg146
Nsg147
VMishnah Oholot 10:6
p807
sg149
(lp808
sg151
g101
sg152
Nsg153
(lp809
I10
aI6
asg155
Nsg156
g807
sg157
(lp810
sg159
g62
sg160
Nsg161
Nsg162
Nsbag2
(g3
g4
Ntp811
Rp812
(dp813
g8
g11
sg140
Nsg141
(dp814
sg143
Nsg26
g29
sg144
(lp815
I10
aI7
asg146
Nsg147
VMishnah Oholot 10:7
p816
sg149
(lp817
sg151
g101
sg152
Nsg153
(lp818
I10
aI7
asg155
Nsg156
g816
sg157
(lp819
sg159
g62
sg160
Nsg161
Nsg162
Nsbag2
(g3
g4
Ntp820
Rp821
(dp822
g8
g11
sg140
Nsg141
(dp823
sg143
Nsg26
g29
sg144
(lp824
I11
aI1
asg146
Nsg147
VMishnah Oholot 11:1
p825
sg149
(lp826
sg151
g101
sg152
Nsg153
(lp827
I11
aI1
asg155
Nsg156
g825
sg157
(lp828
sg159
g62
sg160
Nsg161
Nsg162
Nsbag2
(g3
g4
Ntp829
Rp830
(dp831
g8
g11
sg140
Nsg141
(dp832
sg143
Nsg26
g29
sg144
(lp833
I11
aI2
asg146
Nsg147
VMishnah Oholot 11:2
p834
sg149
(lp835
sg151
g101
sg152
Nsg153
(lp836
I11
aI2
asg155
Nsg156
g834
sg157
(lp837
sg159
g62
sg160
Nsg161
Nsg162
Nsbag2
(g3
g4
Ntp838
Rp839
(dp840
g8
g11
sg140
Nsg141
(dp841
sg143
Nsg26
g29
sg144
(lp842
I11
aI3
asg146
Nsg147
VMishnah Oholot 11:3
p843
sg149
(lp844
sg151
g101
sg152
Nsg153
(lp845
I11
aI3
asg155
Nsg156
g843
sg157
(lp846
sg159
g62
sg160
Nsg161
Nsg162
Nsbag2
(g3
g4
Ntp847
Rp848
(dp849
g8
g11
sg140
Nsg141
(dp850
sg143
Nsg26
g29
sg144
(lp851
I11
aI4
asg146
Nsg147
VMishnah Oholot 11:4
p852
sg149
(lp853
sg151
g101
sg152
Nsg153
(lp854
I11
aI4
asg155
Nsg156
g852
sg157
(lp855
sg159
g62
sg160
Nsg161
Nsg162
Nsbag2
(g3
g4
Ntp856
Rp857
(dp858
g8
g11
sg140
Nsg141
(dp859
sg143
Nsg26
g29
sg144
(lp860
I11
aI5
asg146
Nsg147
VMishnah Oholot 11:5
p861
sg149
(lp862
sg151
g101
sg152
Nsg153
(lp863
I11
aI5
asg155
Nsg156
g861
sg157
(lp864
sg159
g62
sg160
Nsg161
Nsg162
Nsbag2
(g3
g4
Ntp865
Rp866
(dp867
g8
g11
sg140
Nsg141
(dp868
sg143
Nsg26
g29
sg144
(lp869
I11
aI6
asg146
Nsg147
VMishnah Oholot 11:6
p870
sg149
(lp871
sg151
g101
sg152
Nsg153
(lp872
I11
aI6
asg155
Nsg156
g870
sg157
(lp873
sg159
g62
sg160
Nsg161
Nsg162
Nsbag2
(g3
g4
Ntp874
Rp875
(dp876
g8
g11
sg140
Nsg141
(dp877
sg143
Nsg26
g29
sg144
(lp878
I11
aI7
asg146
Nsg147
VMishnah Oholot 11:7
p879
sg149
(lp880
sg151
g101
sg152
Nsg153
(lp881
I11
aI7
asg155
Nsg156
g879
sg157
(lp882
sg159
g62
sg160
Nsg161
Nsg162
Nsbag2
(g3
g4
Ntp883
Rp884
(dp885
g8
g11
sg140
Nsg141
(dp886
sg143
Nsg26
g29
sg144
(lp887
I11
aI8
asg146
Nsg147
VMishnah Oholot 11:8
p888
sg149
(lp889
sg151
g101
sg152
Nsg153
(lp890
I11
aI8
asg155
Nsg156
g888
sg157
(lp891
sg159
g62
sg160
Nsg161
Nsg162
Nsbag2
(g3
g4
Ntp892
Rp893
(dp894
g8
g11
sg140
Nsg141
(dp895
sg143
Nsg26
g29
sg144
(lp896
I11
aI9
asg146
Nsg147
VMishnah Oholot 11:9
p897
sg149
(lp898
sg151
g101
sg152
Nsg153
(lp899
I11
aI9
asg155
Nsg156
g897
sg157
(lp900
sg159
g62
sg160
Nsg161
Nsg162
Nsbag2
(g3
g4
Ntp901
Rp902
(dp903
g8
g11
sg140
Nsg141
(dp904
sg143
Nsg26
g29
sg144
(lp905
I12
aI1
asg146
Nsg147
VMishnah Oholot 12:1
p906
sg149
(lp907
sg151
g101
sg152
Nsg153
(lp908
I12
aI1
asg155
Nsg156
g906
sg157
(lp909
sg159
g62
sg160
Nsg161
Nsg162
Nsbag2
(g3
g4
Ntp910
Rp911
(dp912
g8
g11
sg140
Nsg141
(dp913
sg143
Nsg26
g29
sg144
(lp914
I12
aI2
asg146
Nsg147
VMishnah Oholot 12:2
p915
sg149
(lp916
sg151
g101
sg152
Nsg153
(lp917
I12
aI2
asg155
Nsg156
g915
sg157
(lp918
sg159
g62
sg160
Nsg161
Nsg162
Nsbag2
(g3
g4
Ntp919
Rp920
(dp921
g8
g11
sg140
Nsg141
(dp922
sg143
Nsg26
g29
sg144
(lp923
I12
aI3
asg146
Nsg147
VMishnah Oholot 12:3
p924
sg149
(lp925
sg151
g101
sg152
Nsg153
(lp926
I12
aI3
asg155
Nsg156
g924
sg157
(lp927
sg159
g62
sg160
Nsg161
Nsg162
Nsbag2
(g3
g4
Ntp928
Rp929
(dp930
g8
g11
sg140
Nsg141
(dp931
sg143
Nsg26
g29
sg144
(lp932
I12
aI4
asg146
Nsg147
VMishnah Oholot 12:4
p933
sg149
(lp934
sg151
g101
sg152
Nsg153
(lp935
I12
aI4
asg155
Nsg156
g933
sg157
(lp936
sg159
g62
sg160
Nsg161
Nsg162
Nsbag2
(g3
g4
Ntp937
Rp938
(dp939
g8
g11
sg140
Nsg141
(dp940
sg143
Nsg26
g29
sg144
(lp941
I12
aI5
asg146
Nsg147
VMishnah Oholot 12:5
p942
sg149
(lp943
sg151
g101
sg152
Nsg153
(lp944
I12
aI5
asg155
Nsg156
g942
sg157
(lp945
sg159
g62
sg160
Nsg161
Nsg162
Nsbag2
(g3
g4
Ntp946
Rp947
(dp948
g8
g11
sg140
Nsg141
(dp949
sg143
Nsg26
g29
sg144
(lp950
I12
aI6
asg146
Nsg147
VMishnah Oholot 12:6
p951
sg149
(lp952
sg151
g101
sg152
Nsg153
(lp953
I12
aI6
asg155
Nsg156
g951
sg157
(lp954
sg159
g62
sg160
Nsg161
Nsg162
Nsbag2
(g3
g4
Ntp955
Rp956
(dp957
g8
g11
sg140
Nsg141
(dp958
sg143
Nsg26
g29
sg144
(lp959
I12
aI7
asg146
Nsg147
VMishnah Oholot 12:7
p960
sg149
(lp961
sg151
g101
sg152
Nsg153
(lp962
I12
aI7
asg155
Nsg156
g960
sg157
(lp963
sg159
g62
sg160
Nsg161
Nsg162
Nsbag2
(g3
g4
Ntp964
Rp965
(dp966
g8
g11
sg140
Nsg141
(dp967
sg143
Nsg26
g29
sg144
(lp968
I12
aI8
asg146
Nsg147
VMishnah Oholot 12:8
p969
sg149
(lp970
sg151
g101
sg152
Nsg153
(lp971
I12
aI8
asg155
Nsg156
g969
sg157
(lp972
sg159
g62
sg160
Nsg161
Nsg162
Nsbag2
(g3
g4
Ntp973
Rp974
(dp975
g8
g11
sg140
Nsg141
(dp976
sg143
Nsg26
g29
sg144
(lp977
I13
aI1
asg146
Nsg147
VMishnah Oholot 13:1
p978
sg149
(lp979
sg151
g101
sg152
Nsg153
(lp980
I13
aI1
asg155
Nsg156
g978
sg157
(lp981
sg159
g62
sg160
Nsg161
Nsg162
Nsbag2
(g3
g4
Ntp982
Rp983
(dp984
g8
g11
sg140
Nsg141
(dp985
sg143
Nsg26
g29
sg144
(lp986
I13
aI2
asg146
Nsg147
VMishnah Oholot 13:2
p987
sg149
(lp988
sg151
g101
sg152
Nsg153
(lp989
I13
aI2
asg155
Nsg156
g987
sg157
(lp990
sg159
g62
sg160
Nsg161
Nsg162
Nsbag2
(g3
g4
Ntp991
Rp992
(dp993
g8
g11
sg140
Nsg141
(dp994
sg143
Nsg26
g29
sg144
(lp995
I13
aI3
asg146
Nsg147
VMishnah Oholot 13:3
p996
sg149
(lp997
sg151
g101
sg152
Nsg153
(lp998
I13
aI3
asg155
Nsg156
g996
sg157
(lp999
sg159
g62
sg160
Nsg161
Nsg162
Nsbag2
(g3
g4
Ntp1000
Rp1001
(dp1002
g8
g11
sg140
Nsg141
(dp1003
sg143
Nsg26
g29
sg144
(lp1004
I13
aI4
asg146
Nsg147
VMishnah Oholot 13:4
p1005
sg149
(lp1006
sg151
g101
sg152
Nsg153
(lp1007
I13
aI4
asg155
Nsg156
g1005
sg157
(lp1008
sg159
g62
sg160
Nsg161
Nsg162
Nsbag2
(g3
g4
Ntp1009
Rp1010
(dp1011
g8
g11
sg140
Nsg141
(dp1012
sg143
Nsg26
g29
sg144
(lp1013
I13
aI5
asg146
Nsg147
VMishnah Oholot 13:5
p1014
sg149
(lp1015
sg151
g101
sg152
Nsg153
(lp1016
I13
aI5
asg155
Nsg156
g1014
sg157
(lp1017
sg159
g62
sg160
Nsg161
Nsg162
Nsbag2
(g3
g4
Ntp1018
Rp1019
(dp1020
g8
g11
sg140
Nsg141
(dp1021
sg143
Nsg26
g29
sg144
(lp1022
I13
aI6
asg146
Nsg147
VMishnah Oholot 13:6
p1023
sg149
(lp1024
sg151
g101
sg152
Nsg153
(lp1025
I13
aI6
asg155
Nsg156
g1023
sg157
(lp1026
sg159
g62
sg160
Nsg161
Nsg162
Nsbag2
(g3
g4
Ntp1027
Rp1028
(dp1029
g8
g11
sg140
Nsg141
(dp1030
sg143
Nsg26
g29
sg144
(lp1031
I14
aI1
asg146
Nsg147
VMishnah Oholot 14:1
p1032
sg149
(lp1033
sg151
g101
sg152
Nsg153
(lp1034
I14
aI1
asg155
Nsg156
g1032
sg157
(lp1035
sg159
g62
sg160
Nsg161
Nsg162
Nsbag2
(g3
g4
Ntp1036
Rp1037
(dp1038
g8
g11
sg140
Nsg141
(dp1039
sg143
Nsg26
g29
sg144
(lp1040
I14
aI2
asg146
Nsg147
VMishnah Oholot 14:2
p1041
sg149
(lp1042
sg151
g101
sg152
Nsg153
(lp1043
I14
aI2
asg155
Nsg156
g1041
sg157
(lp1044
sg159
g62
sg160
Nsg161
Nsg162
Nsbag2
(g3
g4
Ntp1045
Rp1046
(dp1047
g8
g11
sg140
Nsg141
(dp1048
sg143
Nsg26
g29
sg144
(lp1049
I14
aI3
asg146
Nsg147
VMishnah Oholot 14:3
p1050
sg149
(lp1051
sg151
g101
sg152
Nsg153
(lp1052
I14
aI3
asg155
Nsg156
g1050
sg157
(lp1053
sg159
g62
sg160
Nsg161
Nsg162
Nsbag2
(g3
g4
Ntp1054
Rp1055
(dp1056
g8
g11
sg140
Nsg141
(dp1057
sg143
Nsg26
g29
sg144
(lp1058
I14
aI4
asg146
Nsg147
VMishnah Oholot 14:4
p1059
sg149
(lp1060
sg151
g101
sg152
Nsg153
(lp1061
I14
aI4
asg155
Nsg156
g1059
sg157
(lp1062
sg159
g62
sg160
Nsg161
Nsg162
Nsbag2
(g3
g4
Ntp1063
Rp1064
(dp1065
g8
g11
sg140
Nsg141
(dp1066
sg143
Nsg26
g29
sg144
(lp1067
I14
aI5
asg146
Nsg147
VMishnah Oholot 14:5
p1068
sg149
(lp1069
sg151
g101
sg152
Nsg153
(lp1070
I14
aI5
asg155
Nsg156
g1068
sg157
(lp1071
sg159
g62
sg160
Nsg161
Nsg162
Nsbag2
(g3
g4
Ntp1072
Rp1073
(dp1074
g8
g11
sg140
Nsg141
(dp1075
sg143
Nsg26
g29
sg144
(lp1076
I14
aI6
asg146
Nsg147
VMishnah Oholot 14:6
p1077
sg149
(lp1078
sg151
g101
sg152
Nsg153
(lp1079
I14
aI6
asg155
Nsg156
g1077
sg157
(lp1080
sg159
g62
sg160
Nsg161
Nsg162
Nsbag2
(g3
g4
Ntp1081
Rp1082
(dp1083
g8
g11
sg140
Nsg141
(dp1084
sg143
Nsg26
g29
sg144
(lp1085
I14
aI7
asg146
Nsg147
VMishnah Oholot 14:7
p1086
sg149
(lp1087
sg151
g101
sg152
Nsg153
(lp1088
I14
aI7
asg155
Nsg156
g1086
sg157
(lp1089
sg159
g62
sg160
Nsg161
Nsg162
Nsbag2
(g3
g4
Ntp1090
Rp1091
(dp1092
g8
g11
sg140
Nsg141
(dp1093
sg143
Nsg26
g29
sg144
(lp1094
I15
aI1
asg146
Nsg147
VMishnah Oholot 15:1
p1095
sg149
(lp1096
sg151
g101
sg152
Nsg153
(lp1097
I15
aI1
asg155
Nsg156
g1095
sg157
(lp1098
sg159
g62
sg160
Nsg161
Nsg162
Nsbag2
(g3
g4
Ntp1099
Rp1100
(dp1101
g8
g11
sg140
Nsg141
(dp1102
sg143
Nsg26
g29
sg144
(lp1103
I15
aI2
asg146
Nsg147
VMishnah Oholot 15:2
p1104
sg149
(lp1105
sg151
g101
sg152
Nsg153
(lp1106
I15
aI2
asg155
Nsg156
g1104
sg157
(lp1107
sg159
g62
sg160
Nsg161
Nsg162
Nsbag2
(g3
g4
Ntp1108
Rp1109
(dp1110
g8
g11
sg140
Nsg141
(dp1111
sg143
Nsg26
g29
sg144
(lp1112
I15
aI3
asg146
Nsg147
VMishnah Oholot 15:3
p1113
sg149
(lp1114
sg151
g101
sg152
Nsg153
(lp1115
I15
aI3
asg155
Nsg156
g1113
sg157
(lp1116
sg159
g62
sg160
Nsg161
Nsg162
Nsbag2
(g3
g4
Ntp1117
Rp1118
(dp1119
g8
g11
sg140
Nsg141
(dp1120
sg143
Nsg26
g29
sg144
(lp1121
I15
aI4
asg146
Nsg147
VMishnah Oholot 15:4
p1122
sg149
(lp1123
sg151
g101
sg152
Nsg153
(lp1124
I15
aI4
asg155
Nsg156
g1122
sg157
(lp1125
sg159
g62
sg160
Nsg161
Nsg162
Nsbag2
(g3
g4
Ntp1126
Rp1127
(dp1128
g8
g11
sg140
Nsg141
(dp1129
sg143
Nsg26
g29
sg144
(lp1130
I15
aI5
asg146
Nsg147
VMishnah Oholot 15:5
p1131
sg149
(lp1132
sg151
g101
sg152
Nsg153
(lp1133
I15
aI5
asg155
Nsg156
g1131
sg157
(lp1134
sg159
g62
sg160
Nsg161
Nsg162
Nsbag2
(g3
g4
Ntp1135
Rp1136
(dp1137
g8
g11
sg140
Nsg141
(dp1138
sg143
Nsg26
g29
sg144
(lp1139
I15
aI6
asg146
Nsg147
VMishnah Oholot 15:6
p1140
sg149
(lp1141
sg151
g101
sg152
Nsg153
(lp1142
I15
aI6
asg155
Nsg156
g1140
sg157
(lp1143
sg159
g62
sg160
Nsg161
Nsg162
Nsbag2
(g3
g4
Ntp1144
Rp1145
(dp1146
g8
g11
sg140
Nsg141
(dp1147
sg143
Nsg26
g29
sg144
(lp1148
I15
aI7
asg146
Nsg147
VMishnah Oholot 15:7
p1149
sg149
(lp1150
sg151
g101
sg152
Nsg153
(lp1151
I15
aI7
asg155
Nsg156
g1149
sg157
(lp1152
sg159
g62
sg160
Nsg161
Nsg162
Nsbag2
(g3
g4
Ntp1153
Rp1154
(dp1155
g8
g11
sg140
Nsg141
(dp1156
sg143
Nsg26
g29
sg144
(lp1157
I15
aI8
asg146
Nsg147
VMishnah Oholot 15:8
p1158
sg149
(lp1159
sg151
g101
sg152
Nsg153
(lp1160
I15
aI8
asg155
Nsg156
g1158
sg157
(lp1161
sg159
g62
sg160
Nsg161
Nsg162
Nsbag2
(g3
g4
Ntp1162
Rp1163
(dp1164
g8
g11
sg140
Nsg141
(dp1165
sg143
Nsg26
g29
sg144
(lp1166
I15
aI9
asg146
Nsg147
VMishnah Oholot 15:9
p1167
sg149
(lp1168
sg151
g101
sg152
Nsg153
(lp1169
I15
aI9
asg155
Nsg156
g1167
sg157
(lp1170
sg159
g62
sg160
Nsg161
Nsg162
Nsbag2
(g3
g4
Ntp1171
Rp1172
(dp1173
g8
g11
sg140
Nsg141
(dp1174
sg143
Nsg26
g29
sg144
(lp1175
I15
aI10
asg146
Nsg147
VMishnah Oholot 15:10
p1176
sg149
(lp1177
sg151
g101
sg152
Nsg153
(lp1178
I15
aI10
asg155
Nsg156
g1176
sg157
(lp1179
sg159
g62
sg160
Nsg161
Nsg162
Nsbag2
(g3
g4
Ntp1180
Rp1181
(dp1182
g8
g11
sg140
Nsg141
(dp1183
sg143
Nsg26
g29
sg144
(lp1184
I16
aI1
asg146
Nsg147
VMishnah Oholot 16:1
p1185
sg149
(lp1186
sg151
g101
sg152
Nsg153
(lp1187
I16
aI1
asg155
Nsg156
g1185
sg157
(lp1188
sg159
g62
sg160
Nsg161
Nsg162
Nsbag2
(g3
g4
Ntp1189
Rp1190
(dp1191
g8
g11
sg140
Nsg141
(dp1192
sg143
Nsg26
g29
sg144
(lp1193
I16
aI2
asg146
Nsg147
VMishnah Oholot 16:2
p1194
sg149
(lp1195
sg151
g101
sg152
Nsg153
(lp1196
I16
aI2
asg155
Nsg156
g1194
sg157
(lp1197
sg159
g62
sg160
Nsg161
Nsg162
Nsbag2
(g3
g4
Ntp1198
Rp1199
(dp1200
g8
g11
sg140
Nsg141
(dp1201
sg143
Nsg26
g29
sg144
(lp1202
I16
aI3
asg146
Nsg147
VMishnah Oholot 16:3
p1203
sg149
(lp1204
sg151
g101
sg152
Nsg153
(lp1205
I16
aI3
asg155
Nsg156
g1203
sg157
(lp1206
sg159
g62
sg160
Nsg161
Nsg162
Nsbag2
(g3
g4
Ntp1207
Rp1208
(dp1209
g8
g11
sg140
Nsg141
(dp1210
sg143
Nsg26
g29
sg144
(lp1211
I16
aI4
asg146
Nsg147
VMishnah Oholot 16:4
p1212
sg149
(lp1213
sg151
g101
sg152
Nsg153
(lp1214
I16
aI4
asg155
Nsg156
g1212
sg157
(lp1215
sg159
g62
sg160
Nsg161
Nsg162
Nsbag2
(g3
g4
Ntp1216
Rp1217
(dp1218
g8
g11
sg140
Nsg141
(dp1219
sg143
Nsg26
g29
sg144
(lp1220
I16
aI5
asg146
Nsg147
VMishnah Oholot 16:5
p1221
sg149
(lp1222
sg151
g101
sg152
Nsg153
(lp1223
I16
aI5
asg155
Nsg156
g1221
sg157
(lp1224
sg159
g62
sg160
Nsg161
Nsg162
Nsbag2
(g3
g4
Ntp1225
Rp1226
(dp1227
g8
g11
sg140
Nsg141
(dp1228
sg143
Nsg26
g29
sg144
(lp1229
I17
aI1
asg146
Nsg147
VMishnah Oholot 17:1
p1230
sg149
(lp1231
sg151
g101
sg152
Nsg153
(lp1232
I17
aI1
asg155
Nsg156
g1230
sg157
(lp1233
sg159
g62
sg160
Nsg161
Nsg162
Nsbag2
(g3
g4
Ntp1234
Rp1235
(dp1236
g8
g11
sg140
Nsg141
(dp1237
sg143
Nsg26
g29
sg144
(lp1238
I17
aI2
asg146
Nsg147
VMishnah Oholot 17:2
p1239
sg149
(lp1240
sg151
g101
sg152
Nsg153
(lp1241
I17
aI2
asg155
Nsg156
g1239
sg157
(lp1242
sg159
g62
sg160
Nsg161
Nsg162
Nsbag2
(g3
g4
Ntp1243
Rp1244
(dp1245
g8
g11
sg140
Nsg141
(dp1246
sg143
Nsg26
g29
sg144
(lp1247
I17
aI3
asg146
Nsg147
VMishnah Oholot 17:3
p1248
sg149
(lp1249
sg151
g101
sg152
Nsg153
(lp1250
I17
aI3
asg155
Nsg156
g1248
sg157
(lp1251
sg159
g62
sg160
Nsg161
Nsg162
Nsbag2
(g3
g4
Ntp1252
Rp1253
(dp1254
g8
g11
sg140
Nsg141
(dp1255
sg143
Nsg26
g29
sg144
(lp1256
I17
aI4
asg146
Nsg147
VMishnah Oholot 17:4
p1257
sg149
(lp1258
sg151
g101
sg152
Nsg153
(lp1259
I17
aI4
asg155
Nsg156
g1257
sg157
(lp1260
sg159
g62
sg160
Nsg161
Nsg162
Nsbag2
(g3
g4
Ntp1261
Rp1262
(dp1263
g8
g11
sg140
Nsg141
(dp1264
sg143
Nsg26
g29
sg144
(lp1265
I17
aI5
asg146
Nsg147
VMishnah Oholot 17:5
p1266
sg149
(lp1267
sg151
g101
sg152
Nsg153
(lp1268
I17
aI5
asg155
Nsg156
g1266
sg157
(lp1269
sg159
g62
sg160
Nsg161
Nsg162
Nsbag2
(g3
g4
Ntp1270
Rp1271
(dp1272
g8
g11
sg140
Nsg141
(dp1273
sg143
Nsg26
g29
sg144
(lp1274
I18
aI1
asg146
Nsg147
VMishnah Oholot 18:1
p1275
sg149
(lp1276
sg151
g101
sg152
Nsg153
(lp1277
I18
aI1
asg155
Nsg156
g1275
sg157
(lp1278
sg159
g62
sg160
Nsg161
Nsg162
Nsbag2
(g3
g4
Ntp1279
Rp1280
(dp1281
g8
g11
sg140
Nsg141
(dp1282
sg143
Nsg26
g29
sg144
(lp1283
I18
aI2
asg146
Nsg147
VMishnah Oholot 18:2
p1284
sg149
(lp1285
sg151
g101
sg152
Nsg153
(lp1286
I18
aI2
asg155
Nsg156
g1284
sg157
(lp1287
sg159
g62
sg160
Nsg161
Nsg162
Nsbag2
(g3
g4
Ntp1288
Rp1289
(dp1290
g8
g11
sg140
Nsg141
(dp1291
sg143
Nsg26
g29
sg144
(lp1292
I18
aI3
asg146
Nsg147
VMishnah Oholot 18:3
p1293
sg149
(lp1294
sg151
g101
sg152
Nsg153
(lp1295
I18
aI3
asg155
Nsg156
g1293
sg157
(lp1296
sg159
g62
sg160
Nsg161
Nsg162
Nsbag2
(g3
g4
Ntp1297
Rp1298
(dp1299
g8
g11
sg140
Nsg141
(dp1300
sg143
Nsg26
g29
sg144
(lp1301
I18
aI4
asg146
Nsg147
VMishnah Oholot 18:4
p1302
sg149
(lp1303
sg151
g101
sg152
Nsg153
(lp1304
I18
aI4
asg155
Nsg156
g1302
sg157
(lp1305
sg159
g62
sg160
Nsg161
Nsg162
Nsbag2
(g3
g4
Ntp1306
Rp1307
(dp1308
g8
g11
sg140
Nsg141
(dp1309
sg143
Nsg26
g29
sg144
(lp1310
I18
aI5
asg146
Nsg147
VMishnah Oholot 18:5
p1311
sg149
(lp1312
sg151
g101
sg152
Nsg153
(lp1313
I18
aI5
asg155
Nsg156
g1311
sg157
(lp1314
sg159
g62
sg160
Nsg161
Nsg162
Nsbag2
(g3
g4
Ntp1315
Rp1316
(dp1317
g8
g11
sg140
Nsg141
(dp1318
sg143
Nsg26
g29
sg144
(lp1319
I18
aI6
asg146
Nsg147
VMishnah Oholot 18:6
p1320
sg149
(lp1321
sg151
g101
sg152
Nsg153
(lp1322
I18
aI6
asg155
Nsg156
g1320
sg157
(lp1323
sg159
g62
sg160
Nsg161
Nsg162
Nsbag2
(g3
g4
Ntp1324
Rp1325
(dp1326
g8
g11
sg140
Nsg141
(dp1327
sg143
Nsg26
g29
sg144
(lp1328
I18
aI7
asg146
Nsg147
VMishnah Oholot 18:7
p1329
sg149
(lp1330
sg151
g101
sg152
Nsg153
(lp1331
I18
aI7
asg155
Nsg156
g1329
sg157
(lp1332
sg159
g62
sg160
Nsg161
Nsg162
Nsbag2
(g3
g4
Ntp1333
Rp1334
(dp1335
g8
g11
sg140
Nsg141
(dp1336
sg143
Nsg26
g29
sg144
(lp1337
I18
aI8
asg146
Nsg147
VMishnah Oholot 18:8
p1338
sg149
(lp1339
sg151
g101
sg152
Nsg153
(lp1340
I18
aI8
asg155
Nsg156
g1338
sg157
(lp1341
sg159
g62
sg160
Nsg161
Nsg162
Nsbag2
(g3
g4
Ntp1342
Rp1343
(dp1344
g8
g11
sg140
Nsg141
(dp1345
sg143
Nsg26
g29
sg144
(lp1346
I18
aI9
asg146
Nsg147
VMishnah Oholot 18:9
p1347
sg149
(lp1348
sg151
g101
sg152
Nsg153
(lp1349
I18
aI9
asg155
Nsg156
g1347
sg157
(lp1350
sg159
g62
sg160
Nsg161
Nsg162
Nsbag2
(g3
g4
Ntp1351
Rp1352
(dp1353
g8
g11
sg140
Nsg141
(dp1354
sg143
Nsg26
g29
sg144
(lp1355
I18
aI10
asg146
Nsg147
VMishnah Oholot 18:10
p1356
sg149
(lp1357
sg151
g101
sg152
Nsg153
(lp1358
I18
aI10
asg155
Nsg156
g1356
sg157
(lp1359
sg159
g62
sg160
Nsg161
Nsg162
Nsbatp1360
.