((lp0
I0
aI38
aI59
aI89
aI109
aI120
aI175
aI211
aI237
aI255
aI291
aI335
aI383
aI404
aI433
aI460
aI493
aI525
aI548
aI605
aI652
aI693
aI724
aI752
aI768
aI792
aI807
aI842
aI865
aI882
aI912
aI944
aI989
aI1013
aI1045
aI1097
aI1107
aI1133
aI1190
aI1238
aI1261
aI1312
aI1344
aI1359
aI1374
aI1426
aI1471
aI1542
aI1568
aI1596
aI1627
aI1658
aI1689
aI1738
aI1789
aI1830
aI1876
aI1899
aI1928
aI1969
aI2004
aI2042
aI2068
aI2117
aI2139
aI2186
aI2207
aI2252
aI2296
a(lp1
ccopy_reg
_reconstructor
p2
(csefaria.model.text
Ref
p3
c__builtin__
object
p4
Ntp5
Rp6
(dp7
S'index_node'
p8
g2
(csefaria.model.schema
JaggedArrayNode
p9
g4
Ntp10
Rp11
(dp12
S'_address'
p13
(lp14
VMishnah Peah
p15
asS'_full_titles'
p16
(dp17
sVnodeType
p18
VJaggedArrayNode
p19
sS'parent'
p20
NsVaddressTypes
p21
(lp22
VPerek
p23
aVMishnah
p24
asS'default'
p25
I00
sS'index'
p26
g2
(csefaria.model.text
Index
p27
g4
Ntp28
Rp29
(dp30
S'_id'
p31
g2
(cbson.objectid
ObjectId
p32
g4
Ntp33
Rp34
S'NJ\xb8\x8f\xed\xba\xb4X3\x00\x00('
p35
bsS'pkeys_orig_values'
p36
(dp37
S'title'
p38
VMishnah Peah
p39
ssS'pubDate'
p40
V1492
p41
sS'compDate'
p42
V210
p43
sS'pubPlace'
p44
VNaples
p45
sS'compPlace'
p46
VTalmudic Israel
p47
sS'enDesc'
p48
VThe Mishnah is the first major written redaction of the Jewish oral traditions known as the Oral Torah. The Mishnah was redacted by Rabbi Yehudah Ha-Nasi before his death around 217 CE, in a time when, according to the Talmud, the persecution of the Jews and the passage of time raised the possibility that the details of the oral traditions of the Pharisees from the Second Temple period (536 BCE \u2013 70 CE) would be forgotten. The majority of the Mishnah is written in Mishnaic Hebrew, while some parts are Aramaic. The Mishnah consists of six orders (sedarim, singular seder), each containing 7\u201312 tractates (masekhtot, singular masekhet), numbering 63 in total and further subdivided into chapters and paragraphs or verses. The word Mishnah can also indicate a single paragraph or a verse of the work itself, i.e. the smallest unit of structure in the Mishnah. For this reason the whole work is sometimes called by the plural, Mishnayot. Peah (Corner) belongs to the first order, Zera'im (seeds) and discusses the regulations concerning the commandment to leave the corner of one's field for the poor as stated in Leviticus 19:9-10, Leviticus 23:22; Deuteronomy 24:19-22, and with the rights of the poor in general. It consists of eight chapters.
p49
sS'order'
p50
(lp51
I2
aI2
asS'era'
p52
VT
p53
sS'struct_objs'
p54
(dp55
sS'nodes'
p56
g11
sS'errorMargin'
p57
V20
p58
sS'_title'
p59
g39
sS'categories'
p60
(lp61
VMishnah
p62
aVSeder Zeraim
p63
asS'schema'
p64
(dp65
g18
g19
sg21
g22
sVlengths
p66
(lp67
I8
aI69
asVdepth
p68
I2
sVtitles
p69
(lp70
(dp71
Vlang
p72
Ven
p73
sVtext
p74
VM Peah
p75
sa(dp76
Vlang
p77
Ven
p78
sVtext
p79
VMishna Peah
p80
sa(dp81
Vlang
p82
Ven
p83
sVtext
p84
VM. Peah
p85
sa(dp86
Vlang
p87
Vhe
p88
sVtext
p89
V\u05de\u05e9\u05e0\u05d4 \u05e4\u05d0\u05d4
p90
sVprimary
p91
I01
sa(dp92
Vlang
p93
Vhe
p94
sVtext
p95
V\u05e4\u05d0\u05d4
p96
sa(dp97
Vlang
p98
Ven
p99
sVtext
p100
VMishnah Peah
p101
sVprimary
p102
I01
sasVkey
p103
g15
sVsectionNames
p104
(lp105
VChapter
p106
aVMishna
p107
assbsS'_primary_title'
p108
(dp109
sS'title_group'
p110
g2
(csefaria.model.schema
TitleGroup
p111
g4
Ntp112
Rp113
(dp114
g108
(dp115
S'en'
p116
g101
ssS'titles'
p117
g70
sbsS'_addressTypes'
p118
(lp119
g2
(csefaria.model.schema
AddressPerek
p120
g4
Ntp121
Rp122
(dp123
S'length'
p124
I8
sg50
I0
sbag2
(csefaria.model.schema
AddressMishnah
p125
g4
Ntp126
Rp127
(dp128
g124
Nsg50
I1
sbasS'sharedTitle'
p129
Nsg66
g67
sg68
I2
sS'_full_title'
p130
(dp131
g116
g101
ssS'key'
p132
g15
sS'checkFirst'
p133
NsS'_regexes'
p134
(dp135
sS'_leaf_nodes'
p136
(lp137
sg104
g105
sS'children'
p138
(lp139
sbsS'_range_index'
p140
NsS'_context'
p141
(dp142
sS'_padded'
p143
Nsg26
g29
sS'sections'
p144
(lp145
I1
aI1
asS'_first_spanned_ref'
p146
NsS'tref'
p147
VMishnah Peah 1:1
p148
sS'_spanned_refs'
p149
(lp150
sS'book'
p151
g101
sS'_range_depth'
p152
NsS'toSections'
p153
(lp154
I1
aI1
asS'_url'
p155
NsS'_normal'
p156
g148
sS'_ranged_refs'
p157
(lp158
sS'type'
p159
g62
sS'_prev'
p160
NsS'_he_normal'
p161
NsS'_next'
p162
Nsbag2
(g3
g4
Ntp163
Rp164
(dp165
g8
g11
sg140
Nsg141
(dp166
sg143
Nsg26
g29
sg144
(lp167
I1
aI2
asg146
Nsg147
VMishnah Peah 1:2
p168
sg149
(lp169
sg151
g101
sg152
Nsg153
(lp170
I1
aI2
asg155
Nsg156
g168
sg157
(lp171
sg159
g62
sg160
Nsg161
Nsg162
Nsbag2
(g3
g4
Ntp172
Rp173
(dp174
g8
g11
sg140
Nsg141
(dp175
sg143
Nsg26
g29
sg144
(lp176
I1
aI3
asg146
Nsg147
VMishnah Peah 1:3
p177
sg149
(lp178
sg151
g101
sg152
Nsg153
(lp179
I1
aI3
asg155
Nsg156
g177
sg157
(lp180
sg159
g62
sg160
Nsg161
Nsg162
Nsbag2
(g3
g4
Ntp181
Rp182
(dp183
g8
g11
sg140
Nsg141
(dp184
sg143
Nsg26
g29
sg144
(lp185
I1
aI4
asg146
Nsg147
VMishnah Peah 1:4
p186
sg149
(lp187
sg151
g101
sg152
Nsg153
(lp188
I1
aI4
asg155
Nsg156
g186
sg157
(lp189
sg159
g62
sg160
Nsg161
Nsg162
Nsbag2
(g3
g4
Ntp190
Rp191
(dp192
g8
g11
sg140
Nsg141
(dp193
sg143
Nsg26
g29
sg144
(lp194
I1
aI5
asg146
Nsg147
VMishnah Peah 1:5
p195
sg149
(lp196
sg151
g101
sg152
Nsg153
(lp197
I1
aI5
asg155
Nsg156
g195
sg157
(lp198
sg159
g62
sg160
Nsg161
Nsg162
Nsbag2
(g3
g4
Ntp199
Rp200
(dp201
g8
g11
sg140
Nsg141
(dp202
sg143
Nsg26
g29
sg144
(lp203
I1
aI6
asg146
Nsg147
VMishnah Peah 1:6
p204
sg149
(lp205
sg151
g101
sg152
Nsg153
(lp206
I1
aI6
asg155
Nsg156
g204
sg157
(lp207
sg159
g62
sg160
Nsg161
Nsg162
Nsbag2
(g3
g4
Ntp208
Rp209
(dp210
g8
g11
sg140
Nsg141
(dp211
sg143
Nsg26
g29
sg144
(lp212
I2
aI1
asg146
Nsg147
VMishnah Peah 2:1
p213
sg149
(lp214
sg151
g101
sg152
Nsg153
(lp215
I2
aI1
asg155
Nsg156
g213
sg157
(lp216
sg159
g62
sg160
Nsg161
Nsg162
Nsbag2
(g3
g4
Ntp217
Rp218
(dp219
g8
g11
sg140
Nsg141
(dp220
sg143
Nsg26
g29
sg144
(lp221
I2
aI2
asg146
Nsg147
VMishnah Peah 2:2
p222
sg149
(lp223
sg151
g101
sg152
Nsg153
(lp224
I2
aI2
asg155
Nsg156
g222
sg157
(lp225
sg159
g62
sg160
Nsg161
Nsg162
Nsbag2
(g3
g4
Ntp226
Rp227
(dp228
g8
g11
sg140
Nsg141
(dp229
sg143
Nsg26
g29
sg144
(lp230
I2
aI3
asg146
Nsg147
VMishnah Peah 2:3
p231
sg149
(lp232
sg151
g101
sg152
Nsg153
(lp233
I2
aI3
asg155
Nsg156
g231
sg157
(lp234
sg159
g62
sg160
Nsg161
Nsg162
Nsbag2
(g3
g4
Ntp235
Rp236
(dp237
g8
g11
sg140
Nsg141
(dp238
sg143
Nsg26
g29
sg144
(lp239
I2
aI4
asg146
Nsg147
VMishnah Peah 2:4
p240
sg149
(lp241
sg151
g101
sg152
Nsg153
(lp242
I2
aI4
asg155
Nsg156
g240
sg157
(lp243
sg159
g62
sg160
Nsg161
Nsg162
Nsbag2
(g3
g4
Ntp244
Rp245
(dp246
g8
g11
sg140
Nsg141
(dp247
sg143
Nsg26
g29
sg144
(lp248
I2
aI5
asg146
Nsg147
VMishnah Peah 2:5
p249
sg149
(lp250
sg151
g101
sg152
Nsg153
(lp251
I2
aI5
asg155
Nsg156
g249
sg157
(lp252
sg159
g62
sg160
Nsg161
Nsg162
Nsbag2
(g3
g4
Ntp253
Rp254
(dp255
g8
g11
sg140
Nsg141
(dp256
sg143
Nsg26
g29
sg144
(lp257
I2
aI6
asg146
Nsg147
VMishnah Peah 2:6
p258
sg149
(lp259
sg151
g101
sg152
Nsg153
(lp260
I2
aI6
asg155
Nsg156
g258
sg157
(lp261
sg159
g62
sg160
Nsg161
Nsg162
Nsbag2
(g3
g4
Ntp262
Rp263
(dp264
g8
g11
sg140
Nsg141
(dp265
sg143
Nsg26
g29
sg144
(lp266
I2
aI7
asg146
Nsg147
VMishnah Peah 2:7
p267
sg149
(lp268
sg151
g101
sg152
Nsg153
(lp269
I2
aI7
asg155
Nsg156
g267
sg157
(lp270
sg159
g62
sg160
Nsg161
Nsg162
Nsbag2
(g3
g4
Ntp271
Rp272
(dp273
g8
g11
sg140
Nsg141
(dp274
sg143
Nsg26
g29
sg144
(lp275
I2
aI8
asg146
Nsg147
VMishnah Peah 2:8
p276
sg149
(lp277
sg151
g101
sg152
Nsg153
(lp278
I2
aI8
asg155
Nsg156
g276
sg157
(lp279
sg159
g62
sg160
Nsg161
Nsg162
Nsbag2
(g3
g4
Ntp280
Rp281
(dp282
g8
g11
sg140
Nsg141
(dp283
sg143
Nsg26
g29
sg144
(lp284
I3
aI1
asg146
Nsg147
VMishnah Peah 3:1
p285
sg149
(lp286
sg151
g101
sg152
Nsg153
(lp287
I3
aI1
asg155
Nsg156
g285
sg157
(lp288
sg159
g62
sg160
Nsg161
Nsg162
Nsbag2
(g3
g4
Ntp289
Rp290
(dp291
g8
g11
sg140
Nsg141
(dp292
sg143
Nsg26
g29
sg144
(lp293
I3
aI2
asg146
Nsg147
VMishnah Peah 3:2
p294
sg149
(lp295
sg151
g101
sg152
Nsg153
(lp296
I3
aI2
asg155
Nsg156
g294
sg157
(lp297
sg159
g62
sg160
Nsg161
Nsg162
Nsbag2
(g3
g4
Ntp298
Rp299
(dp300
g8
g11
sg140
Nsg141
(dp301
sg143
Nsg26
g29
sg144
(lp302
I3
aI3
asg146
Nsg147
VMishnah Peah 3:3
p303
sg149
(lp304
sg151
g101
sg152
Nsg153
(lp305
I3
aI3
asg155
Nsg156
g303
sg157
(lp306
sg159
g62
sg160
Nsg161
Nsg162
Nsbag2
(g3
g4
Ntp307
Rp308
(dp309
g8
g11
sg140
Nsg141
(dp310
sg143
Nsg26
g29
sg144
(lp311
I3
aI4
asg146
Nsg147
VMishnah Peah 3:4
p312
sg149
(lp313
sg151
g101
sg152
Nsg153
(lp314
I3
aI4
asg155
Nsg156
g312
sg157
(lp315
sg159
g62
sg160
Nsg161
Nsg162
Nsbag2
(g3
g4
Ntp316
Rp317
(dp318
g8
g11
sg140
Nsg141
(dp319
sg143
Nsg26
g29
sg144
(lp320
I3
aI5
asg146
Nsg147
VMishnah Peah 3:5
p321
sg149
(lp322
sg151
g101
sg152
Nsg153
(lp323
I3
aI5
asg155
Nsg156
g321
sg157
(lp324
sg159
g62
sg160
Nsg161
Nsg162
Nsbag2
(g3
g4
Ntp325
Rp326
(dp327
g8
g11
sg140
Nsg141
(dp328
sg143
Nsg26
g29
sg144
(lp329
I3
aI6
asg146
Nsg147
VMishnah Peah 3:6
p330
sg149
(lp331
sg151
g101
sg152
Nsg153
(lp332
I3
aI6
asg155
Nsg156
g330
sg157
(lp333
sg159
g62
sg160
Nsg161
Nsg162
Nsbag2
(g3
g4
Ntp334
Rp335
(dp336
g8
g11
sg140
Nsg141
(dp337
sg143
Nsg26
g29
sg144
(lp338
I3
aI7
asg146
Nsg147
VMishnah Peah 3:7
p339
sg149
(lp340
sg151
g101
sg152
Nsg153
(lp341
I3
aI7
asg155
Nsg156
g339
sg157
(lp342
sg159
g62
sg160
Nsg161
Nsg162
Nsbag2
(g3
g4
Ntp343
Rp344
(dp345
g8
g11
sg140
Nsg141
(dp346
sg143
Nsg26
g29
sg144
(lp347
I3
aI8
asg146
Nsg147
VMishnah Peah 3:8
p348
sg149
(lp349
sg151
g101
sg152
Nsg153
(lp350
I3
aI8
asg155
Nsg156
g348
sg157
(lp351
sg159
g62
sg160
Nsg161
Nsg162
Nsbag2
(g3
g4
Ntp352
Rp353
(dp354
g8
g11
sg140
Nsg141
(dp355
sg143
Nsg26
g29
sg144
(lp356
I4
aI1
asg146
Nsg147
VMishnah Peah 4:1
p357
sg149
(lp358
sg151
g101
sg152
Nsg153
(lp359
I4
aI1
asg155
Nsg156
g357
sg157
(lp360
sg159
g62
sg160
Nsg161
Nsg162
Nsbag2
(g3
g4
Ntp361
Rp362
(dp363
g8
g11
sg140
Nsg141
(dp364
sg143
Nsg26
g29
sg144
(lp365
I4
aI2
asg146
Nsg147
VMishnah Peah 4:2
p366
sg149
(lp367
sg151
g101
sg152
Nsg153
(lp368
I4
aI2
asg155
Nsg156
g366
sg157
(lp369
sg159
g62
sg160
Nsg161
Nsg162
Nsbag2
(g3
g4
Ntp370
Rp371
(dp372
g8
g11
sg140
Nsg141
(dp373
sg143
Nsg26
g29
sg144
(lp374
I4
aI3
asg146
Nsg147
VMishnah Peah 4:3
p375
sg149
(lp376
sg151
g101
sg152
Nsg153
(lp377
I4
aI3
asg155
Nsg156
g375
sg157
(lp378
sg159
g62
sg160
Nsg161
Nsg162
Nsbag2
(g3
g4
Ntp379
Rp380
(dp381
g8
g11
sg140
Nsg141
(dp382
sg143
Nsg26
g29
sg144
(lp383
I4
aI4
asg146
Nsg147
VMishnah Peah 4:4
p384
sg149
(lp385
sg151
g101
sg152
Nsg153
(lp386
I4
aI4
asg155
Nsg156
g384
sg157
(lp387
sg159
g62
sg160
Nsg161
Nsg162
Nsbag2
(g3
g4
Ntp388
Rp389
(dp390
g8
g11
sg140
Nsg141
(dp391
sg143
Nsg26
g29
sg144
(lp392
I4
aI5
asg146
Nsg147
VMishnah Peah 4:5
p393
sg149
(lp394
sg151
g101
sg152
Nsg153
(lp395
I4
aI5
asg155
Nsg156
g393
sg157
(lp396
sg159
g62
sg160
Nsg161
Nsg162
Nsbag2
(g3
g4
Ntp397
Rp398
(dp399
g8
g11
sg140
Nsg141
(dp400
sg143
Nsg26
g29
sg144
(lp401
I4
aI6
asg146
Nsg147
VMishnah Peah 4:6
p402
sg149
(lp403
sg151
g101
sg152
Nsg153
(lp404
I4
aI6
asg155
Nsg156
g402
sg157
(lp405
sg159
g62
sg160
Nsg161
Nsg162
Nsbag2
(g3
g4
Ntp406
Rp407
(dp408
g8
g11
sg140
Nsg141
(dp409
sg143
Nsg26
g29
sg144
(lp410
I4
aI7
asg146
Nsg147
VMishnah Peah 4:7
p411
sg149
(lp412
sg151
g101
sg152
Nsg153
(lp413
I4
aI7
asg155
Nsg156
g411
sg157
(lp414
sg159
g62
sg160
Nsg161
Nsg162
Nsbag2
(g3
g4
Ntp415
Rp416
(dp417
g8
g11
sg140
Nsg141
(dp418
sg143
Nsg26
g29
sg144
(lp419
I4
aI8
asg146
Nsg147
VMishnah Peah 4:8
p420
sg149
(lp421
sg151
g101
sg152
Nsg153
(lp422
I4
aI8
asg155
Nsg156
g420
sg157
(lp423
sg159
g62
sg160
Nsg161
Nsg162
Nsbag2
(g3
g4
Ntp424
Rp425
(dp426
g8
g11
sg140
Nsg141
(dp427
sg143
Nsg26
g29
sg144
(lp428
I4
aI9
asg146
Nsg147
VMishnah Peah 4:9
p429
sg149
(lp430
sg151
g101
sg152
Nsg153
(lp431
I4
aI9
asg155
Nsg156
g429
sg157
(lp432
sg159
g62
sg160
Nsg161
Nsg162
Nsbag2
(g3
g4
Ntp433
Rp434
(dp435
g8
g11
sg140
Nsg141
(dp436
sg143
Nsg26
g29
sg144
(lp437
I4
aI10
asg146
Nsg147
VMishnah Peah 4:10
p438
sg149
(lp439
sg151
g101
sg152
Nsg153
(lp440
I4
aI10
asg155
Nsg156
g438
sg157
(lp441
sg159
g62
sg160
Nsg161
Nsg162
Nsbag2
(g3
g4
Ntp442
Rp443
(dp444
g8
g11
sg140
Nsg141
(dp445
sg143
Nsg26
g29
sg144
(lp446
I4
aI11
asg146
Nsg147
VMishnah Peah 4:11
p447
sg149
(lp448
sg151
g101
sg152
Nsg153
(lp449
I4
aI11
asg155
Nsg156
g447
sg157
(lp450
sg159
g62
sg160
Nsg161
Nsg162
Nsbag2
(g3
g4
Ntp451
Rp452
(dp453
g8
g11
sg140
Nsg141
(dp454
sg143
Nsg26
g29
sg144
(lp455
I5
aI1
asg146
Nsg147
VMishnah Peah 5:1
p456
sg149
(lp457
sg151
g101
sg152
Nsg153
(lp458
I5
aI1
asg155
Nsg156
g456
sg157
(lp459
sg159
g62
sg160
Nsg161
Nsg162
Nsbag2
(g3
g4
Ntp460
Rp461
(dp462
g8
g11
sg140
Nsg141
(dp463
sg143
Nsg26
g29
sg144
(lp464
I5
aI2
asg146
Nsg147
VMishnah Peah 5:2
p465
sg149
(lp466
sg151
g101
sg152
Nsg153
(lp467
I5
aI2
asg155
Nsg156
g465
sg157
(lp468
sg159
g62
sg160
Nsg161
Nsg162
Nsbag2
(g3
g4
Ntp469
Rp470
(dp471
g8
g11
sg140
Nsg141
(dp472
sg143
Nsg26
g29
sg144
(lp473
I5
aI3
asg146
Nsg147
VMishnah Peah 5:3
p474
sg149
(lp475
sg151
g101
sg152
Nsg153
(lp476
I5
aI3
asg155
Nsg156
g474
sg157
(lp477
sg159
g62
sg160
Nsg161
Nsg162
Nsbag2
(g3
g4
Ntp478
Rp479
(dp480
g8
g11
sg140
Nsg141
(dp481
sg143
Nsg26
g29
sg144
(lp482
I5
aI4
asg146
Nsg147
VMishnah Peah 5:4
p483
sg149
(lp484
sg151
g101
sg152
Nsg153
(lp485
I5
aI4
asg155
Nsg156
g483
sg157
(lp486
sg159
g62
sg160
Nsg161
Nsg162
Nsbag2
(g3
g4
Ntp487
Rp488
(dp489
g8
g11
sg140
Nsg141
(dp490
sg143
Nsg26
g29
sg144
(lp491
I5
aI5
asg146
Nsg147
VMishnah Peah 5:5
p492
sg149
(lp493
sg151
g101
sg152
Nsg153
(lp494
I5
aI5
asg155
Nsg156
g492
sg157
(lp495
sg159
g62
sg160
Nsg161
Nsg162
Nsbag2
(g3
g4
Ntp496
Rp497
(dp498
g8
g11
sg140
Nsg141
(dp499
sg143
Nsg26
g29
sg144
(lp500
I5
aI6
asg146
Nsg147
VMishnah Peah 5:6
p501
sg149
(lp502
sg151
g101
sg152
Nsg153
(lp503
I5
aI6
asg155
Nsg156
g501
sg157
(lp504
sg159
g62
sg160
Nsg161
Nsg162
Nsbag2
(g3
g4
Ntp505
Rp506
(dp507
g8
g11
sg140
Nsg141
(dp508
sg143
Nsg26
g29
sg144
(lp509
I5
aI7
asg146
Nsg147
VMishnah Peah 5:7
p510
sg149
(lp511
sg151
g101
sg152
Nsg153
(lp512
I5
aI7
asg155
Nsg156
g510
sg157
(lp513
sg159
g62
sg160
Nsg161
Nsg162
Nsbag2
(g3
g4
Ntp514
Rp515
(dp516
g8
g11
sg140
Nsg141
(dp517
sg143
Nsg26
g29
sg144
(lp518
I5
aI8
asg146
Nsg147
VMishnah Peah 5:8
p519
sg149
(lp520
sg151
g101
sg152
Nsg153
(lp521
I5
aI8
asg155
Nsg156
g519
sg157
(lp522
sg159
g62
sg160
Nsg161
Nsg162
Nsbag2
(g3
g4
Ntp523
Rp524
(dp525
g8
g11
sg140
Nsg141
(dp526
sg143
Nsg26
g29
sg144
(lp527
I6
aI1
asg146
Nsg147
VMishnah Peah 6:1
p528
sg149
(lp529
sg151
g101
sg152
Nsg153
(lp530
I6
aI1
asg155
Nsg156
g528
sg157
(lp531
sg159
g62
sg160
Nsg161
Nsg162
Nsbag2
(g3
g4
Ntp532
Rp533
(dp534
g8
g11
sg140
Nsg141
(dp535
sg143
Nsg26
g29
sg144
(lp536
I6
aI2
asg146
Nsg147
VMishnah Peah 6:2
p537
sg149
(lp538
sg151
g101
sg152
Nsg153
(lp539
I6
aI2
asg155
Nsg156
g537
sg157
(lp540
sg159
g62
sg160
Nsg161
Nsg162
Nsbag2
(g3
g4
Ntp541
Rp542
(dp543
g8
g11
sg140
Nsg141
(dp544
sg143
Nsg26
g29
sg144
(lp545
I6
aI3
asg146
Nsg147
VMishnah Peah 6:3
p546
sg149
(lp547
sg151
g101
sg152
Nsg153
(lp548
I6
aI3
asg155
Nsg156
g546
sg157
(lp549
sg159
g62
sg160
Nsg161
Nsg162
Nsbag2
(g3
g4
Ntp550
Rp551
(dp552
g8
g11
sg140
Nsg141
(dp553
sg143
Nsg26
g29
sg144
(lp554
I6
aI4
asg146
Nsg147
VMishnah Peah 6:4
p555
sg149
(lp556
sg151
g101
sg152
Nsg153
(lp557
I6
aI4
asg155
Nsg156
g555
sg157
(lp558
sg159
g62
sg160
Nsg161
Nsg162
Nsbag2
(g3
g4
Ntp559
Rp560
(dp561
g8
g11
sg140
Nsg141
(dp562
sg143
Nsg26
g29
sg144
(lp563
I6
aI5
asg146
Nsg147
VMishnah Peah 6:5
p564
sg149
(lp565
sg151
g101
sg152
Nsg153
(lp566
I6
aI5
asg155
Nsg156
g564
sg157
(lp567
sg159
g62
sg160
Nsg161
Nsg162
Nsbag2
(g3
g4
Ntp568
Rp569
(dp570
g8
g11
sg140
Nsg141
(dp571
sg143
Nsg26
g29
sg144
(lp572
I6
aI6
asg146
Nsg147
VMishnah Peah 6:6
p573
sg149
(lp574
sg151
g101
sg152
Nsg153
(lp575
I6
aI6
asg155
Nsg156
g573
sg157
(lp576
sg159
g62
sg160
Nsg161
Nsg162
Nsbag2
(g3
g4
Ntp577
Rp578
(dp579
g8
g11
sg140
Nsg141
(dp580
sg143
Nsg26
g29
sg144
(lp581
I6
aI7
asg146
Nsg147
VMishnah Peah 6:7
p582
sg149
(lp583
sg151
g101
sg152
Nsg153
(lp584
I6
aI7
asg155
Nsg156
g582
sg157
(lp585
sg159
g62
sg160
Nsg161
Nsg162
Nsbag2
(g3
g4
Ntp586
Rp587
(dp588
g8
g11
sg140
Nsg141
(dp589
sg143
Nsg26
g29
sg144
(lp590
I6
aI8
asg146
Nsg147
VMishnah Peah 6:8
p591
sg149
(lp592
sg151
g101
sg152
Nsg153
(lp593
I6
aI8
asg155
Nsg156
g591
sg157
(lp594
sg159
g62
sg160
Nsg161
Nsg162
Nsbag2
(g3
g4
Ntp595
Rp596
(dp597
g8
g11
sg140
Nsg141
(dp598
sg143
Nsg26
g29
sg144
(lp599
I6
aI9
asg146
Nsg147
VMishnah Peah 6:9
p600
sg149
(lp601
sg151
g101
sg152
Nsg153
(lp602
I6
aI9
asg155
Nsg156
g600
sg157
(lp603
sg159
g62
sg160
Nsg161
Nsg162
Nsbag2
(g3
g4
Ntp604
Rp605
(dp606
g8
g11
sg140
Nsg141
(dp607
sg143
Nsg26
g29
sg144
(lp608
I6
aI10
asg146
Nsg147
VMishnah Peah 6:10
p609
sg149
(lp610
sg151
g101
sg152
Nsg153
(lp611
I6
aI10
asg155
Nsg156
g609
sg157
(lp612
sg159
g62
sg160
Nsg161
Nsg162
Nsbag2
(g3
g4
Ntp613
Rp614
(dp615
g8
g11
sg140
Nsg141
(dp616
sg143
Nsg26
g29
sg144
(lp617
I6
aI11
asg146
Nsg147
VMishnah Peah 6:11
p618
sg149
(lp619
sg151
g101
sg152
Nsg153
(lp620
I6
aI11
asg155
Nsg156
g618
sg157
(lp621
sg159
g62
sg160
Nsg161
Nsg162
Nsbag2
(g3
g4
Ntp622
Rp623
(dp624
g8
g11
sg140
Nsg141
(dp625
sg143
Nsg26
g29
sg144
(lp626
I7
aI1
asg146
Nsg147
VMishnah Peah 7:1
p627
sg149
(lp628
sg151
g101
sg152
Nsg153
(lp629
I7
aI1
asg155
Nsg156
g627
sg157
(lp630
sg159
g62
sg160
Nsg161
Nsg162
Nsbag2
(g3
g4
Ntp631
Rp632
(dp633
g8
g11
sg140
Nsg141
(dp634
sg143
Nsg26
g29
sg144
(lp635
I7
aI2
asg146
Nsg147
VMishnah Peah 7:2
p636
sg149
(lp637
sg151
g101
sg152
Nsg153
(lp638
I7
aI2
asg155
Nsg156
g636
sg157
(lp639
sg159
g62
sg160
Nsg161
Nsg162
Nsbag2
(g3
g4
Ntp640
Rp641
(dp642
g8
g11
sg140
Nsg141
(dp643
sg143
Nsg26
g29
sg144
(lp644
I7
aI3
asg146
Nsg147
VMishnah Peah 7:3
p645
sg149
(lp646
sg151
g101
sg152
Nsg153
(lp647
I7
aI3
asg155
Nsg156
g645
sg157
(lp648
sg159
g62
sg160
Nsg161
Nsg162
Nsbag2
(g3
g4
Ntp649
Rp650
(dp651
g8
g11
sg140
Nsg141
(dp652
sg143
Nsg26
g29
sg144
(lp653
I7
aI4
asg146
Nsg147
VMishnah Peah 7:4
p654
sg149
(lp655
sg151
g101
sg152
Nsg153
(lp656
I7
aI4
asg155
Nsg156
g654
sg157
(lp657
sg159
g62
sg160
Nsg161
Nsg162
Nsbag2
(g3
g4
Ntp658
Rp659
(dp660
g8
g11
sg140
Nsg141
(dp661
sg143
Nsg26
g29
sg144
(lp662
I7
aI5
asg146
Nsg147
VMishnah Peah 7:5
p663
sg149
(lp664
sg151
g101
sg152
Nsg153
(lp665
I7
aI5
asg155
Nsg156
g663
sg157
(lp666
sg159
g62
sg160
Nsg161
Nsg162
Nsbag2
(g3
g4
Ntp667
Rp668
(dp669
g8
g11
sg140
Nsg141
(dp670
sg143
Nsg26
g29
sg144
(lp671
I7
aI6
asg146
Nsg147
VMishnah Peah 7:6
p672
sg149
(lp673
sg151
g101
sg152
Nsg153
(lp674
I7
aI6
asg155
Nsg156
g672
sg157
(lp675
sg159
g62
sg160
Nsg161
Nsg162
Nsbag2
(g3
g4
Ntp676
Rp677
(dp678
g8
g11
sg140
Nsg141
(dp679
sg143
Nsg26
g29
sg144
(lp680
I7
aI7
asg146
Nsg147
VMishnah Peah 7:7
p681
sg149
(lp682
sg151
g101
sg152
Nsg153
(lp683
I7
aI7
asg155
Nsg156
g681
sg157
(lp684
sg159
g62
sg160
Nsg161
Nsg162
Nsbag2
(g3
g4
Ntp685
Rp686
(dp687
g8
g11
sg140
Nsg141
(dp688
sg143
Nsg26
g29
sg144
(lp689
I7
aI8
asg146
Nsg147
VMishnah Peah 7:8
p690
sg149
(lp691
sg151
g101
sg152
Nsg153
(lp692
I7
aI8
asg155
Nsg156
g690
sg157
(lp693
sg159
g62
sg160
Nsg161
Nsg162
Nsbag2
(g3
g4
Ntp694
Rp695
(dp696
g8
g11
sg140
Nsg141
(dp697
sg143
Nsg26
g29
sg144
(lp698
I8
aI1
asg146
Nsg147
VMishnah Peah 8:1
p699
sg149
(lp700
sg151
g101
sg152
Nsg153
(lp701
I8
aI1
asg155
Nsg156
g699
sg157
(lp702
sg159
g62
sg160
Nsg161
Nsg162
Nsbag2
(g3
g4
Ntp703
Rp704
(dp705
g8
g11
sg140
Nsg141
(dp706
sg143
Nsg26
g29
sg144
(lp707
I8
aI2
asg146
Nsg147
VMishnah Peah 8:2
p708
sg149
(lp709
sg151
g101
sg152
Nsg153
(lp710
I8
aI2
asg155
Nsg156
g708
sg157
(lp711
sg159
g62
sg160
Nsg161
Nsg162
Nsbag2
(g3
g4
Ntp712
Rp713
(dp714
g8
g11
sg140
Nsg141
(dp715
sg143
Nsg26
g29
sg144
(lp716
I8
aI3
asg146
Nsg147
VMishnah Peah 8:3
p717
sg149
(lp718
sg151
g101
sg152
Nsg153
(lp719
I8
aI3
asg155
Nsg156
g717
sg157
(lp720
sg159
g62
sg160
Nsg161
Nsg162
Nsbag2
(g3
g4
Ntp721
Rp722
(dp723
g8
g11
sg140
Nsg141
(dp724
sg143
Nsg26
g29
sg144
(lp725
I8
aI4
asg146
Nsg147
VMishnah Peah 8:4
p726
sg149
(lp727
sg151
g101
sg152
Nsg153
(lp728
I8
aI4
asg155
Nsg156
g726
sg157
(lp729
sg159
g62
sg160
Nsg161
Nsg162
Nsbag2
(g3
g4
Ntp730
Rp731
(dp732
g8
g11
sg140
Nsg141
(dp733
sg143
Nsg26
g29
sg144
(lp734
I8
aI5
asg146
Nsg147
VMishnah Peah 8:5
p735
sg149
(lp736
sg151
g101
sg152
Nsg153
(lp737
I8
aI5
asg155
Nsg156
g735
sg157
(lp738
sg159
g62
sg160
Nsg161
Nsg162
Nsbag2
(g3
g4
Ntp739
Rp740
(dp741
g8
g11
sg140
Nsg141
(dp742
sg143
Nsg26
g29
sg144
(lp743
I8
aI6
asg146
Nsg147
VMishnah Peah 8:6
p744
sg149
(lp745
sg151
g101
sg152
Nsg153
(lp746
I8
aI6
asg155
Nsg156
g744
sg157
(lp747
sg159
g62
sg160
Nsg161
Nsg162
Nsbag2
(g3
g4
Ntp748
Rp749
(dp750
g8
g11
sg140
Nsg141
(dp751
sg143
Nsg26
g29
sg144
(lp752
I8
aI7
asg146
Nsg147
VMishnah Peah 8:7
p753
sg149
(lp754
sg151
g101
sg152
Nsg153
(lp755
I8
aI7
asg155
Nsg156
g753
sg157
(lp756
sg159
g62
sg160
Nsg161
Nsg162
Nsbag2
(g3
g4
Ntp757
Rp758
(dp759
g8
g11
sg140
Nsg141
(dp760
sg143
Nsg26
g29
sg144
(lp761
I8
aI8
asg146
Nsg147
VMishnah Peah 8:8
p762
sg149
(lp763
sg151
g101
sg152
Nsg153
(lp764
I8
aI8
asg155
Nsg156
g762
sg157
(lp765
sg159
g62
sg160
Nsg161
Nsg162
Nsbag2
(g3
g4
Ntp766
Rp767
(dp768
g8
g11
sg140
Nsg141
(dp769
sg143
Nsg26
g29
sg144
(lp770
I8
aI9
asg146
Nsg147
VMishnah Peah 8:9
p771
sg149
(lp772
sg151
g101
sg152
Nsg153
(lp773
I8
aI9
asg155
Nsg156
g771
sg157
(lp774
sg159
g62
sg160
Nsg161
Nsg162
Nsbatp775
.