((lp0
I0
aI24
aI57
aI89
aI165
aI189
aI213
aI235
aI266
aI301
aI328
aI358
aI386
aI432
aI469
aI488
aI512
aI547
aI587
aI603
aI631
aI690
aI735
aI758
aI814
aI866
aI909
aI943
aI985
aI1027
aI1073
aI1096
aI1131
aI1175
aI1207
aI1230
aI1249
aI1286
aI1329
aI1356
aI1390
aI1423
aI1457
aI1472
aI1505
aI1531
aI1576
aI1635
aI1669
aI1698
aI1726
aI1746
aI1765
aI1781
aI1837
aI1902
aI1956
aI1994
aI2029
aI2047
aI2092
aI2152
aI2184
aI2218
aI2260
aI2280
aI2318
aI2339
aI2375
aI2409
aI2431
aI2448
aI2499
aI2556
aI2587
aI2617
aI2660
aI2692
aI2731
aI2764
aI2801
aI2845
aI2880
aI2912
aI2938
aI2966
aI3000
aI3034
aI3078
a(lp1
ccopy_reg
_reconstructor
p2
(csefaria.model.text
Ref
p3
c__builtin__
object
p4
Ntp5
Rp6
(dp7
S'index_node'
p8
g2
(csefaria.model.schema
JaggedArrayNode
p9
g4
Ntp10
Rp11
(dp12
S'_address'
p13
(lp14
VMishnah Sheviit
p15
asS'_full_titles'
p16
(dp17
sVnodeType
p18
VJaggedArrayNode
p19
sS'parent'
p20
NsVaddressTypes
p21
(lp22
VPerek
p23
aVMishnah
p24
asS'default'
p25
I00
sS'index'
p26
g2
(csefaria.model.text
Index
p27
g4
Ntp28
Rp29
(dp30
S'_id'
p31
g2
(cbson.objectid
ObjectId
p32
g4
Ntp33
Rp34
S'NJ\xb8\x8f\xed\xba\xb4X3\x00\x00+'
p35
bsS'pkeys_orig_values'
p36
(dp37
S'title'
p38
VMishnah Sheviit
p39
ssS'pubDate'
p40
V1492
p41
sS'compDate'
p42
V210
p43
sS'pubPlace'
p44
VNaples
p45
sS'compPlace'
p46
VTalmudic Israel
p47
sS'enDesc'
p48
VThe Mishnah is the first major written redaction of the Jewish oral traditions known as the Oral Torah. The Mishnah was redacted by Rabbi Yehudah Ha-Nasi before his death around 217 CE, in a time when, according to the Talmud, the persecution of the Jews and the passage of time raised the possibility that the details of the oral traditions of the Pharisees from the Second Temple period (536 BCE \u2013 70 CE) would be forgotten. The majority of the Mishnah is written in Mishnaic Hebrew, while some parts are Aramaic. The Mishnah consists of six orders (sedarim, singular seder), each containing 7\u201312 tractates (masekhtot, singular masekhet), numbering 63 in total and further subdivided into chapters and paragraphs or verses. The word Mishnah can also indicate a single paragraph or a verse of the work itself, i.e. the smallest unit of structure in the Mishnah. For this reason the whole work is sometimes called by the plural, Mishnayot. Sheviit (Seventh Year) belongs to the first order, Zera'im (seeds) and discusses rules of agricultural and fiscal regulations concerning the Sabbatical Year, as stated in Exodus 23:11, Leviticus 25:1-8, Deuteronomy 15:1-11. It consists of ten chapters.
p49
sS'order'
p50
(lp51
I5
aI5
asS'era'
p52
VT
p53
sS'struct_objs'
p54
(dp55
sS'nodes'
p56
g11
sS'errorMargin'
p57
V20
p58
sS'_title'
p59
g39
sS'categories'
p60
(lp61
VMishnah
p62
aVSeder Zeraim
p63
asS'schema'
p64
(dp65
g18
g19
sg21
g22
sVlengths
p66
(lp67
I10
aI89
asVdepth
p68
I2
sVtitles
p69
(lp70
(dp71
Vlang
p72
Ven
p73
sVtext
p74
VM Sheviit
p75
sa(dp76
Vlang
p77
Ven
p78
sVtext
p79
VMishna Sheviit
p80
sa(dp81
Vlang
p82
Ven
p83
sVtext
p84
VM. Sheviit
p85
sa(dp86
Vlang
p87
Ven
p88
sVtext
p89
VShevi'it
p90
sa(dp91
Vlang
p92
Ven
p93
sVtext
p94
VSheviit
p95
sa(dp96
Vlang
p97
Vhe
p98
sVtext
p99
V\u05de\u05e9\u05e0\u05d4 \u05e9\u05d1\u05d9\u05e2\u05d9\u05ea
p100
sVprimary
p101
I01
sa(dp102
Vlang
p103
Vhe
p104
sVtext
p105
V\u05e9\u05d1\u05d9\u05e2\u05d9\u05ea
p106
sa(dp107
Vlang
p108
Ven
p109
sVtext
p110
VMishnah Sheviit
p111
sVprimary
p112
I01
sasVkey
p113
g15
sVsectionNames
p114
(lp115
VChapter
p116
aVMishna
p117
assbsS'_primary_title'
p118
(dp119
sS'title_group'
p120
g2
(csefaria.model.schema
TitleGroup
p121
g4
Ntp122
Rp123
(dp124
g118
(dp125
S'en'
p126
g111
ssS'titles'
p127
g70
sbsS'_addressTypes'
p128
(lp129
g2
(csefaria.model.schema
AddressPerek
p130
g4
Ntp131
Rp132
(dp133
S'length'
p134
I10
sg50
I0
sbag2
(csefaria.model.schema
AddressMishnah
p135
g4
Ntp136
Rp137
(dp138
g134
Nsg50
I1
sbasS'sharedTitle'
p139
Nsg66
g67
sg68
I2
sS'_full_title'
p140
(dp141
g126
g111
ssS'key'
p142
g15
sS'checkFirst'
p143
NsS'_regexes'
p144
(dp145
sS'_leaf_nodes'
p146
(lp147
sg114
g115
sS'children'
p148
(lp149
sbsS'_range_index'
p150
NsS'_context'
p151
(dp152
sS'_padded'
p153
Nsg26
g29
sS'sections'
p154
(lp155
I1
aI1
asS'_first_spanned_ref'
p156
NsS'tref'
p157
VMishnah Sheviit 1:1
p158
sS'_spanned_refs'
p159
(lp160
sS'book'
p161
g111
sS'_range_depth'
p162
NsS'toSections'
p163
(lp164
I1
aI1
asS'_url'
p165
NsS'_normal'
p166
g158
sS'_ranged_refs'
p167
(lp168
sS'type'
p169
g62
sS'_prev'
p170
NsS'_he_normal'
p171
NsS'_next'
p172
Nsbag2
(g3
g4
Ntp173
Rp174
(dp175
g8
g11
sg150
Nsg151
(dp176
sg153
Nsg26
g29
sg154
(lp177
I1
aI2
asg156
Nsg157
VMishnah Sheviit 1:2
p178
sg159
(lp179
sg161
g111
sg162
Nsg163
(lp180
I1
aI2
asg165
Nsg166
g178
sg167
(lp181
sg169
g62
sg170
Nsg171
Nsg172
Nsbag2
(g3
g4
Ntp182
Rp183
(dp184
g8
g11
sg150
Nsg151
(dp185
sg153
Nsg26
g29
sg154
(lp186
I1
aI3
asg156
Nsg157
VMishnah Sheviit 1:3
p187
sg159
(lp188
sg161
g111
sg162
Nsg163
(lp189
I1
aI3
asg165
Nsg166
g187
sg167
(lp190
sg169
g62
sg170
Nsg171
Nsg172
Nsbag2
(g3
g4
Ntp191
Rp192
(dp193
g8
g11
sg150
Nsg151
(dp194
sg153
Nsg26
g29
sg154
(lp195
I1
aI4
asg156
Nsg157
VMishnah Sheviit 1:4
p196
sg159
(lp197
sg161
g111
sg162
Nsg163
(lp198
I1
aI4
asg165
Nsg166
g196
sg167
(lp199
sg169
g62
sg170
Nsg171
Nsg172
Nsbag2
(g3
g4
Ntp200
Rp201
(dp202
g8
g11
sg150
Nsg151
(dp203
sg153
Nsg26
g29
sg154
(lp204
I1
aI5
asg156
Nsg157
VMishnah Sheviit 1:5
p205
sg159
(lp206
sg161
g111
sg162
Nsg163
(lp207
I1
aI5
asg165
Nsg166
g205
sg167
(lp208
sg169
g62
sg170
Nsg171
Nsg172
Nsbag2
(g3
g4
Ntp209
Rp210
(dp211
g8
g11
sg150
Nsg151
(dp212
sg153
Nsg26
g29
sg154
(lp213
I1
aI6
asg156
Nsg157
VMishnah Sheviit 1:6
p214
sg159
(lp215
sg161
g111
sg162
Nsg163
(lp216
I1
aI6
asg165
Nsg166
g214
sg167
(lp217
sg169
g62
sg170
Nsg171
Nsg172
Nsbag2
(g3
g4
Ntp218
Rp219
(dp220
g8
g11
sg150
Nsg151
(dp221
sg153
Nsg26
g29
sg154
(lp222
I1
aI7
asg156
Nsg157
VMishnah Sheviit 1:7
p223
sg159
(lp224
sg161
g111
sg162
Nsg163
(lp225
I1
aI7
asg165
Nsg166
g223
sg167
(lp226
sg169
g62
sg170
Nsg171
Nsg172
Nsbag2
(g3
g4
Ntp227
Rp228
(dp229
g8
g11
sg150
Nsg151
(dp230
sg153
Nsg26
g29
sg154
(lp231
I1
aI8
asg156
Nsg157
VMishnah Sheviit 1:8
p232
sg159
(lp233
sg161
g111
sg162
Nsg163
(lp234
I1
aI8
asg165
Nsg166
g232
sg167
(lp235
sg169
g62
sg170
Nsg171
Nsg172
Nsbag2
(g3
g4
Ntp236
Rp237
(dp238
g8
g11
sg150
Nsg151
(dp239
sg153
Nsg26
g29
sg154
(lp240
I2
aI1
asg156
Nsg157
VMishnah Sheviit 2:1
p241
sg159
(lp242
sg161
g111
sg162
Nsg163
(lp243
I2
aI1
asg165
Nsg166
g241
sg167
(lp244
sg169
g62
sg170
Nsg171
Nsg172
Nsbag2
(g3
g4
Ntp245
Rp246
(dp247
g8
g11
sg150
Nsg151
(dp248
sg153
Nsg26
g29
sg154
(lp249
I2
aI2
asg156
Nsg157
VMishnah Sheviit 2:2
p250
sg159
(lp251
sg161
g111
sg162
Nsg163
(lp252
I2
aI2
asg165
Nsg166
g250
sg167
(lp253
sg169
g62
sg170
Nsg171
Nsg172
Nsbag2
(g3
g4
Ntp254
Rp255
(dp256
g8
g11
sg150
Nsg151
(dp257
sg153
Nsg26
g29
sg154
(lp258
I2
aI3
asg156
Nsg157
VMishnah Sheviit 2:3
p259
sg159
(lp260
sg161
g111
sg162
Nsg163
(lp261
I2
aI3
asg165
Nsg166
g259
sg167
(lp262
sg169
g62
sg170
Nsg171
Nsg172
Nsbag2
(g3
g4
Ntp263
Rp264
(dp265
g8
g11
sg150
Nsg151
(dp266
sg153
Nsg26
g29
sg154
(lp267
I2
aI4
asg156
Nsg157
VMishnah Sheviit 2:4
p268
sg159
(lp269
sg161
g111
sg162
Nsg163
(lp270
I2
aI4
asg165
Nsg166
g268
sg167
(lp271
sg169
g62
sg170
Nsg171
Nsg172
Nsbag2
(g3
g4
Ntp272
Rp273
(dp274
g8
g11
sg150
Nsg151
(dp275
sg153
Nsg26
g29
sg154
(lp276
I2
aI5
asg156
Nsg157
VMishnah Sheviit 2:5
p277
sg159
(lp278
sg161
g111
sg162
Nsg163
(lp279
I2
aI5
asg165
Nsg166
g277
sg167
(lp280
sg169
g62
sg170
Nsg171
Nsg172
Nsbag2
(g3
g4
Ntp281
Rp282
(dp283
g8
g11
sg150
Nsg151
(dp284
sg153
Nsg26
g29
sg154
(lp285
I2
aI6
asg156
Nsg157
VMishnah Sheviit 2:6
p286
sg159
(lp287
sg161
g111
sg162
Nsg163
(lp288
I2
aI6
asg165
Nsg166
g286
sg167
(lp289
sg169
g62
sg170
Nsg171
Nsg172
Nsbag2
(g3
g4
Ntp290
Rp291
(dp292
g8
g11
sg150
Nsg151
(dp293
sg153
Nsg26
g29
sg154
(lp294
I2
aI7
asg156
Nsg157
VMishnah Sheviit 2:7
p295
sg159
(lp296
sg161
g111
sg162
Nsg163
(lp297
I2
aI7
asg165
Nsg166
g295
sg167
(lp298
sg169
g62
sg170
Nsg171
Nsg172
Nsbag2
(g3
g4
Ntp299
Rp300
(dp301
g8
g11
sg150
Nsg151
(dp302
sg153
Nsg26
g29
sg154
(lp303
I2
aI8
asg156
Nsg157
VMishnah Sheviit 2:8
p304
sg159
(lp305
sg161
g111
sg162
Nsg163
(lp306
I2
aI8
asg165
Nsg166
g304
sg167
(lp307
sg169
g62
sg170
Nsg171
Nsg172
Nsbag2
(g3
g4
Ntp308
Rp309
(dp310
g8
g11
sg150
Nsg151
(dp311
sg153
Nsg26
g29
sg154
(lp312
I2
aI9
asg156
Nsg157
VMishnah Sheviit 2:9
p313
sg159
(lp314
sg161
g111
sg162
Nsg163
(lp315
I2
aI9
asg165
Nsg166
g313
sg167
(lp316
sg169
g62
sg170
Nsg171
Nsg172
Nsbag2
(g3
g4
Ntp317
Rp318
(dp319
g8
g11
sg150
Nsg151
(dp320
sg153
Nsg26
g29
sg154
(lp321
I2
aI10
asg156
Nsg157
VMishnah Sheviit 2:10
p322
sg159
(lp323
sg161
g111
sg162
Nsg163
(lp324
I2
aI10
asg165
Nsg166
g322
sg167
(lp325
sg169
g62
sg170
Nsg171
Nsg172
Nsbag2
(g3
g4
Ntp326
Rp327
(dp328
g8
g11
sg150
Nsg151
(dp329
sg153
Nsg26
g29
sg154
(lp330
I3
aI1
asg156
Nsg157
VMishnah Sheviit 3:1
p331
sg159
(lp332
sg161
g111
sg162
Nsg163
(lp333
I3
aI1
asg165
Nsg166
g331
sg167
(lp334
sg169
g62
sg170
Nsg171
Nsg172
Nsbag2
(g3
g4
Ntp335
Rp336
(dp337
g8
g11
sg150
Nsg151
(dp338
sg153
Nsg26
g29
sg154
(lp339
I3
aI2
asg156
Nsg157
VMishnah Sheviit 3:2
p340
sg159
(lp341
sg161
g111
sg162
Nsg163
(lp342
I3
aI2
asg165
Nsg166
g340
sg167
(lp343
sg169
g62
sg170
Nsg171
Nsg172
Nsbag2
(g3
g4
Ntp344
Rp345
(dp346
g8
g11
sg150
Nsg151
(dp347
sg153
Nsg26
g29
sg154
(lp348
I3
aI3
asg156
Nsg157
VMishnah Sheviit 3:3
p349
sg159
(lp350
sg161
g111
sg162
Nsg163
(lp351
I3
aI3
asg165
Nsg166
g349
sg167
(lp352
sg169
g62
sg170
Nsg171
Nsg172
Nsbag2
(g3
g4
Ntp353
Rp354
(dp355
g8
g11
sg150
Nsg151
(dp356
sg153
Nsg26
g29
sg154
(lp357
I3
aI4
asg156
Nsg157
VMishnah Sheviit 3:4
p358
sg159
(lp359
sg161
g111
sg162
Nsg163
(lp360
I3
aI4
asg165
Nsg166
g358
sg167
(lp361
sg169
g62
sg170
Nsg171
Nsg172
Nsbag2
(g3
g4
Ntp362
Rp363
(dp364
g8
g11
sg150
Nsg151
(dp365
sg153
Nsg26
g29
sg154
(lp366
I3
aI5
asg156
Nsg157
VMishnah Sheviit 3:5
p367
sg159
(lp368
sg161
g111
sg162
Nsg163
(lp369
I3
aI5
asg165
Nsg166
g367
sg167
(lp370
sg169
g62
sg170
Nsg171
Nsg172
Nsbag2
(g3
g4
Ntp371
Rp372
(dp373
g8
g11
sg150
Nsg151
(dp374
sg153
Nsg26
g29
sg154
(lp375
I3
aI6
asg156
Nsg157
VMishnah Sheviit 3:6
p376
sg159
(lp377
sg161
g111
sg162
Nsg163
(lp378
I3
aI6
asg165
Nsg166
g376
sg167
(lp379
sg169
g62
sg170
Nsg171
Nsg172
Nsbag2
(g3
g4
Ntp380
Rp381
(dp382
g8
g11
sg150
Nsg151
(dp383
sg153
Nsg26
g29
sg154
(lp384
I3
aI7
asg156
Nsg157
VMishnah Sheviit 3:7
p385
sg159
(lp386
sg161
g111
sg162
Nsg163
(lp387
I3
aI7
asg165
Nsg166
g385
sg167
(lp388
sg169
g62
sg170
Nsg171
Nsg172
Nsbag2
(g3
g4
Ntp389
Rp390
(dp391
g8
g11
sg150
Nsg151
(dp392
sg153
Nsg26
g29
sg154
(lp393
I3
aI8
asg156
Nsg157
VMishnah Sheviit 3:8
p394
sg159
(lp395
sg161
g111
sg162
Nsg163
(lp396
I3
aI8
asg165
Nsg166
g394
sg167
(lp397
sg169
g62
sg170
Nsg171
Nsg172
Nsbag2
(g3
g4
Ntp398
Rp399
(dp400
g8
g11
sg150
Nsg151
(dp401
sg153
Nsg26
g29
sg154
(lp402
I3
aI9
asg156
Nsg157
VMishnah Sheviit 3:9
p403
sg159
(lp404
sg161
g111
sg162
Nsg163
(lp405
I3
aI9
asg165
Nsg166
g403
sg167
(lp406
sg169
g62
sg170
Nsg171
Nsg172
Nsbag2
(g3
g4
Ntp407
Rp408
(dp409
g8
g11
sg150
Nsg151
(dp410
sg153
Nsg26
g29
sg154
(lp411
I3
aI10
asg156
Nsg157
VMishnah Sheviit 3:10
p412
sg159
(lp413
sg161
g111
sg162
Nsg163
(lp414
I3
aI10
asg165
Nsg166
g412
sg167
(lp415
sg169
g62
sg170
Nsg171
Nsg172
Nsbag2
(g3
g4
Ntp416
Rp417
(dp418
g8
g11
sg150
Nsg151
(dp419
sg153
Nsg26
g29
sg154
(lp420
I4
aI1
asg156
Nsg157
VMishnah Sheviit 4:1
p421
sg159
(lp422
sg161
g111
sg162
Nsg163
(lp423
I4
aI1
asg165
Nsg166
g421
sg167
(lp424
sg169
g62
sg170
Nsg171
Nsg172
Nsbag2
(g3
g4
Ntp425
Rp426
(dp427
g8
g11
sg150
Nsg151
(dp428
sg153
Nsg26
g29
sg154
(lp429
I4
aI2
asg156
Nsg157
VMishnah Sheviit 4:2
p430
sg159
(lp431
sg161
g111
sg162
Nsg163
(lp432
I4
aI2
asg165
Nsg166
g430
sg167
(lp433
sg169
g62
sg170
Nsg171
Nsg172
Nsbag2
(g3
g4
Ntp434
Rp435
(dp436
g8
g11
sg150
Nsg151
(dp437
sg153
Nsg26
g29
sg154
(lp438
I4
aI3
asg156
Nsg157
VMishnah Sheviit 4:3
p439
sg159
(lp440
sg161
g111
sg162
Nsg163
(lp441
I4
aI3
asg165
Nsg166
g439
sg167
(lp442
sg169
g62
sg170
Nsg171
Nsg172
Nsbag2
(g3
g4
Ntp443
Rp444
(dp445
g8
g11
sg150
Nsg151
(dp446
sg153
Nsg26
g29
sg154
(lp447
I4
aI4
asg156
Nsg157
VMishnah Sheviit 4:4
p448
sg159
(lp449
sg161
g111
sg162
Nsg163
(lp450
I4
aI4
asg165
Nsg166
g448
sg167
(lp451
sg169
g62
sg170
Nsg171
Nsg172
Nsbag2
(g3
g4
Ntp452
Rp453
(dp454
g8
g11
sg150
Nsg151
(dp455
sg153
Nsg26
g29
sg154
(lp456
I4
aI5
asg156
Nsg157
VMishnah Sheviit 4:5
p457
sg159
(lp458
sg161
g111
sg162
Nsg163
(lp459
I4
aI5
asg165
Nsg166
g457
sg167
(lp460
sg169
g62
sg170
Nsg171
Nsg172
Nsbag2
(g3
g4
Ntp461
Rp462
(dp463
g8
g11
sg150
Nsg151
(dp464
sg153
Nsg26
g29
sg154
(lp465
I4
aI6
asg156
Nsg157
VMishnah Sheviit 4:6
p466
sg159
(lp467
sg161
g111
sg162
Nsg163
(lp468
I4
aI6
asg165
Nsg166
g466
sg167
(lp469
sg169
g62
sg170
Nsg171
Nsg172
Nsbag2
(g3
g4
Ntp470
Rp471
(dp472
g8
g11
sg150
Nsg151
(dp473
sg153
Nsg26
g29
sg154
(lp474
I4
aI7
asg156
Nsg157
VMishnah Sheviit 4:7
p475
sg159
(lp476
sg161
g111
sg162
Nsg163
(lp477
I4
aI7
asg165
Nsg166
g475
sg167
(lp478
sg169
g62
sg170
Nsg171
Nsg172
Nsbag2
(g3
g4
Ntp479
Rp480
(dp481
g8
g11
sg150
Nsg151
(dp482
sg153
Nsg26
g29
sg154
(lp483
I4
aI8
asg156
Nsg157
VMishnah Sheviit 4:8
p484
sg159
(lp485
sg161
g111
sg162
Nsg163
(lp486
I4
aI8
asg165
Nsg166
g484
sg167
(lp487
sg169
g62
sg170
Nsg171
Nsg172
Nsbag2
(g3
g4
Ntp488
Rp489
(dp490
g8
g11
sg150
Nsg151
(dp491
sg153
Nsg26
g29
sg154
(lp492
I4
aI9
asg156
Nsg157
VMishnah Sheviit 4:9
p493
sg159
(lp494
sg161
g111
sg162
Nsg163
(lp495
I4
aI9
asg165
Nsg166
g493
sg167
(lp496
sg169
g62
sg170
Nsg171
Nsg172
Nsbag2
(g3
g4
Ntp497
Rp498
(dp499
g8
g11
sg150
Nsg151
(dp500
sg153
Nsg26
g29
sg154
(lp501
I4
aI10
asg156
Nsg157
VMishnah Sheviit 4:10
p502
sg159
(lp503
sg161
g111
sg162
Nsg163
(lp504
I4
aI10
asg165
Nsg166
g502
sg167
(lp505
sg169
g62
sg170
Nsg171
Nsg172
Nsbag2
(g3
g4
Ntp506
Rp507
(dp508
g8
g11
sg150
Nsg151
(dp509
sg153
Nsg26
g29
sg154
(lp510
I5
aI1
asg156
Nsg157
VMishnah Sheviit 5:1
p511
sg159
(lp512
sg161
g111
sg162
Nsg163
(lp513
I5
aI1
asg165
Nsg166
g511
sg167
(lp514
sg169
g62
sg170
Nsg171
Nsg172
Nsbag2
(g3
g4
Ntp515
Rp516
(dp517
g8
g11
sg150
Nsg151
(dp518
sg153
Nsg26
g29
sg154
(lp519
I5
aI2
asg156
Nsg157
VMishnah Sheviit 5:2
p520
sg159
(lp521
sg161
g111
sg162
Nsg163
(lp522
I5
aI2
asg165
Nsg166
g520
sg167
(lp523
sg169
g62
sg170
Nsg171
Nsg172
Nsbag2
(g3
g4
Ntp524
Rp525
(dp526
g8
g11
sg150
Nsg151
(dp527
sg153
Nsg26
g29
sg154
(lp528
I5
aI3
asg156
Nsg157
VMishnah Sheviit 5:3
p529
sg159
(lp530
sg161
g111
sg162
Nsg163
(lp531
I5
aI3
asg165
Nsg166
g529
sg167
(lp532
sg169
g62
sg170
Nsg171
Nsg172
Nsbag2
(g3
g4
Ntp533
Rp534
(dp535
g8
g11
sg150
Nsg151
(dp536
sg153
Nsg26
g29
sg154
(lp537
I5
aI4
asg156
Nsg157
VMishnah Sheviit 5:4
p538
sg159
(lp539
sg161
g111
sg162
Nsg163
(lp540
I5
aI4
asg165
Nsg166
g538
sg167
(lp541
sg169
g62
sg170
Nsg171
Nsg172
Nsbag2
(g3
g4
Ntp542
Rp543
(dp544
g8
g11
sg150
Nsg151
(dp545
sg153
Nsg26
g29
sg154
(lp546
I5
aI5
asg156
Nsg157
VMishnah Sheviit 5:5
p547
sg159
(lp548
sg161
g111
sg162
Nsg163
(lp549
I5
aI5
asg165
Nsg166
g547
sg167
(lp550
sg169
g62
sg170
Nsg171
Nsg172
Nsbag2
(g3
g4
Ntp551
Rp552
(dp553
g8
g11
sg150
Nsg151
(dp554
sg153
Nsg26
g29
sg154
(lp555
I5
aI6
asg156
Nsg157
VMishnah Sheviit 5:6
p556
sg159
(lp557
sg161
g111
sg162
Nsg163
(lp558
I5
aI6
asg165
Nsg166
g556
sg167
(lp559
sg169
g62
sg170
Nsg171
Nsg172
Nsbag2
(g3
g4
Ntp560
Rp561
(dp562
g8
g11
sg150
Nsg151
(dp563
sg153
Nsg26
g29
sg154
(lp564
I5
aI7
asg156
Nsg157
VMishnah Sheviit 5:7
p565
sg159
(lp566
sg161
g111
sg162
Nsg163
(lp567
I5
aI7
asg165
Nsg166
g565
sg167
(lp568
sg169
g62
sg170
Nsg171
Nsg172
Nsbag2
(g3
g4
Ntp569
Rp570
(dp571
g8
g11
sg150
Nsg151
(dp572
sg153
Nsg26
g29
sg154
(lp573
I5
aI8
asg156
Nsg157
VMishnah Sheviit 5:8
p574
sg159
(lp575
sg161
g111
sg162
Nsg163
(lp576
I5
aI8
asg165
Nsg166
g574
sg167
(lp577
sg169
g62
sg170
Nsg171
Nsg172
Nsbag2
(g3
g4
Ntp578
Rp579
(dp580
g8
g11
sg150
Nsg151
(dp581
sg153
Nsg26
g29
sg154
(lp582
I5
aI9
asg156
Nsg157
VMishnah Sheviit 5:9
p583
sg159
(lp584
sg161
g111
sg162
Nsg163
(lp585
I5
aI9
asg165
Nsg166
g583
sg167
(lp586
sg169
g62
sg170
Nsg171
Nsg172
Nsbag2
(g3
g4
Ntp587
Rp588
(dp589
g8
g11
sg150
Nsg151
(dp590
sg153
Nsg26
g29
sg154
(lp591
I6
aI1
asg156
Nsg157
VMishnah Sheviit 6:1
p592
sg159
(lp593
sg161
g111
sg162
Nsg163
(lp594
I6
aI1
asg165
Nsg166
g592
sg167
(lp595
sg169
g62
sg170
Nsg171
Nsg172
Nsbag2
(g3
g4
Ntp596
Rp597
(dp598
g8
g11
sg150
Nsg151
(dp599
sg153
Nsg26
g29
sg154
(lp600
I6
aI2
asg156
Nsg157
VMishnah Sheviit 6:2
p601
sg159
(lp602
sg161
g111
sg162
Nsg163
(lp603
I6
aI2
asg165
Nsg166
g601
sg167
(lp604
sg169
g62
sg170
Nsg171
Nsg172
Nsbag2
(g3
g4
Ntp605
Rp606
(dp607
g8
g11
sg150
Nsg151
(dp608
sg153
Nsg26
g29
sg154
(lp609
I6
aI3
asg156
Nsg157
VMishnah Sheviit 6:3
p610
sg159
(lp611
sg161
g111
sg162
Nsg163
(lp612
I6
aI3
asg165
Nsg166
g610
sg167
(lp613
sg169
g62
sg170
Nsg171
Nsg172
Nsbag2
(g3
g4
Ntp614
Rp615
(dp616
g8
g11
sg150
Nsg151
(dp617
sg153
Nsg26
g29
sg154
(lp618
I6
aI4
asg156
Nsg157
VMishnah Sheviit 6:4
p619
sg159
(lp620
sg161
g111
sg162
Nsg163
(lp621
I6
aI4
asg165
Nsg166
g619
sg167
(lp622
sg169
g62
sg170
Nsg171
Nsg172
Nsbag2
(g3
g4
Ntp623
Rp624
(dp625
g8
g11
sg150
Nsg151
(dp626
sg153
Nsg26
g29
sg154
(lp627
I6
aI5
asg156
Nsg157
VMishnah Sheviit 6:5
p628
sg159
(lp629
sg161
g111
sg162
Nsg163
(lp630
I6
aI5
asg165
Nsg166
g628
sg167
(lp631
sg169
g62
sg170
Nsg171
Nsg172
Nsbag2
(g3
g4
Ntp632
Rp633
(dp634
g8
g11
sg150
Nsg151
(dp635
sg153
Nsg26
g29
sg154
(lp636
I6
aI6
asg156
Nsg157
VMishnah Sheviit 6:6
p637
sg159
(lp638
sg161
g111
sg162
Nsg163
(lp639
I6
aI6
asg165
Nsg166
g637
sg167
(lp640
sg169
g62
sg170
Nsg171
Nsg172
Nsbag2
(g3
g4
Ntp641
Rp642
(dp643
g8
g11
sg150
Nsg151
(dp644
sg153
Nsg26
g29
sg154
(lp645
I7
aI1
asg156
Nsg157
VMishnah Sheviit 7:1
p646
sg159
(lp647
sg161
g111
sg162
Nsg163
(lp648
I7
aI1
asg165
Nsg166
g646
sg167
(lp649
sg169
g62
sg170
Nsg171
Nsg172
Nsbag2
(g3
g4
Ntp650
Rp651
(dp652
g8
g11
sg150
Nsg151
(dp653
sg153
Nsg26
g29
sg154
(lp654
I7
aI2
asg156
Nsg157
VMishnah Sheviit 7:2
p655
sg159
(lp656
sg161
g111
sg162
Nsg163
(lp657
I7
aI2
asg165
Nsg166
g655
sg167
(lp658
sg169
g62
sg170
Nsg171
Nsg172
Nsbag2
(g3
g4
Ntp659
Rp660
(dp661
g8
g11
sg150
Nsg151
(dp662
sg153
Nsg26
g29
sg154
(lp663
I7
aI3
asg156
Nsg157
VMishnah Sheviit 7:3
p664
sg159
(lp665
sg161
g111
sg162
Nsg163
(lp666
I7
aI3
asg165
Nsg166
g664
sg167
(lp667
sg169
g62
sg170
Nsg171
Nsg172
Nsbag2
(g3
g4
Ntp668
Rp669
(dp670
g8
g11
sg150
Nsg151
(dp671
sg153
Nsg26
g29
sg154
(lp672
I7
aI4
asg156
Nsg157
VMishnah Sheviit 7:4
p673
sg159
(lp674
sg161
g111
sg162
Nsg163
(lp675
I7
aI4
asg165
Nsg166
g673
sg167
(lp676
sg169
g62
sg170
Nsg171
Nsg172
Nsbag2
(g3
g4
Ntp677
Rp678
(dp679
g8
g11
sg150
Nsg151
(dp680
sg153
Nsg26
g29
sg154
(lp681
I7
aI5
asg156
Nsg157
VMishnah Sheviit 7:5
p682
sg159
(lp683
sg161
g111
sg162
Nsg163
(lp684
I7
aI5
asg165
Nsg166
g682
sg167
(lp685
sg169
g62
sg170
Nsg171
Nsg172
Nsbag2
(g3
g4
Ntp686
Rp687
(dp688
g8
g11
sg150
Nsg151
(dp689
sg153
Nsg26
g29
sg154
(lp690
I7
aI6
asg156
Nsg157
VMishnah Sheviit 7:6
p691
sg159
(lp692
sg161
g111
sg162
Nsg163
(lp693
I7
aI6
asg165
Nsg166
g691
sg167
(lp694
sg169
g62
sg170
Nsg171
Nsg172
Nsbag2
(g3
g4
Ntp695
Rp696
(dp697
g8
g11
sg150
Nsg151
(dp698
sg153
Nsg26
g29
sg154
(lp699
I7
aI7
asg156
Nsg157
VMishnah Sheviit 7:7
p700
sg159
(lp701
sg161
g111
sg162
Nsg163
(lp702
I7
aI7
asg165
Nsg166
g700
sg167
(lp703
sg169
g62
sg170
Nsg171
Nsg172
Nsbag2
(g3
g4
Ntp704
Rp705
(dp706
g8
g11
sg150
Nsg151
(dp707
sg153
Nsg26
g29
sg154
(lp708
I8
aI1
asg156
Nsg157
VMishnah Sheviit 8:1
p709
sg159
(lp710
sg161
g111
sg162
Nsg163
(lp711
I8
aI1
asg165
Nsg166
g709
sg167
(lp712
sg169
g62
sg170
Nsg171
Nsg172
Nsbag2
(g3
g4
Ntp713
Rp714
(dp715
g8
g11
sg150
Nsg151
(dp716
sg153
Nsg26
g29
sg154
(lp717
I8
aI2
asg156
Nsg157
VMishnah Sheviit 8:2
p718
sg159
(lp719
sg161
g111
sg162
Nsg163
(lp720
I8
aI2
asg165
Nsg166
g718
sg167
(lp721
sg169
g62
sg170
Nsg171
Nsg172
Nsbag2
(g3
g4
Ntp722
Rp723
(dp724
g8
g11
sg150
Nsg151
(dp725
sg153
Nsg26
g29
sg154
(lp726
I8
aI3
asg156
Nsg157
VMishnah Sheviit 8:3
p727
sg159
(lp728
sg161
g111
sg162
Nsg163
(lp729
I8
aI3
asg165
Nsg166
g727
sg167
(lp730
sg169
g62
sg170
Nsg171
Nsg172
Nsbag2
(g3
g4
Ntp731
Rp732
(dp733
g8
g11
sg150
Nsg151
(dp734
sg153
Nsg26
g29
sg154
(lp735
I8
aI4
asg156
Nsg157
VMishnah Sheviit 8:4
p736
sg159
(lp737
sg161
g111
sg162
Nsg163
(lp738
I8
aI4
asg165
Nsg166
g736
sg167
(lp739
sg169
g62
sg170
Nsg171
Nsg172
Nsbag2
(g3
g4
Ntp740
Rp741
(dp742
g8
g11
sg150
Nsg151
(dp743
sg153
Nsg26
g29
sg154
(lp744
I8
aI5
asg156
Nsg157
VMishnah Sheviit 8:5
p745
sg159
(lp746
sg161
g111
sg162
Nsg163
(lp747
I8
aI5
asg165
Nsg166
g745
sg167
(lp748
sg169
g62
sg170
Nsg171
Nsg172
Nsbag2
(g3
g4
Ntp749
Rp750
(dp751
g8
g11
sg150
Nsg151
(dp752
sg153
Nsg26
g29
sg154
(lp753
I8
aI6
asg156
Nsg157
VMishnah Sheviit 8:6
p754
sg159
(lp755
sg161
g111
sg162
Nsg163
(lp756
I8
aI6
asg165
Nsg166
g754
sg167
(lp757
sg169
g62
sg170
Nsg171
Nsg172
Nsbag2
(g3
g4
Ntp758
Rp759
(dp760
g8
g11
sg150
Nsg151
(dp761
sg153
Nsg26
g29
sg154
(lp762
I8
aI7
asg156
Nsg157
VMishnah Sheviit 8:7
p763
sg159
(lp764
sg161
g111
sg162
Nsg163
(lp765
I8
aI7
asg165
Nsg166
g763
sg167
(lp766
sg169
g62
sg170
Nsg171
Nsg172
Nsbag2
(g3
g4
Ntp767
Rp768
(dp769
g8
g11
sg150
Nsg151
(dp770
sg153
Nsg26
g29
sg154
(lp771
I8
aI8
asg156
Nsg157
VMishnah Sheviit 8:8
p772
sg159
(lp773
sg161
g111
sg162
Nsg163
(lp774
I8
aI8
asg165
Nsg166
g772
sg167
(lp775
sg169
g62
sg170
Nsg171
Nsg172
Nsbag2
(g3
g4
Ntp776
Rp777
(dp778
g8
g11
sg150
Nsg151
(dp779
sg153
Nsg26
g29
sg154
(lp780
I8
aI9
asg156
Nsg157
VMishnah Sheviit 8:9
p781
sg159
(lp782
sg161
g111
sg162
Nsg163
(lp783
I8
aI9
asg165
Nsg166
g781
sg167
(lp784
sg169
g62
sg170
Nsg171
Nsg172
Nsbag2
(g3
g4
Ntp785
Rp786
(dp787
g8
g11
sg150
Nsg151
(dp788
sg153
Nsg26
g29
sg154
(lp789
I8
aI10
asg156
Nsg157
VMishnah Sheviit 8:10
p790
sg159
(lp791
sg161
g111
sg162
Nsg163
(lp792
I8
aI10
asg165
Nsg166
g790
sg167
(lp793
sg169
g62
sg170
Nsg171
Nsg172
Nsbag2
(g3
g4
Ntp794
Rp795
(dp796
g8
g11
sg150
Nsg151
(dp797
sg153
Nsg26
g29
sg154
(lp798
I8
aI11
asg156
Nsg157
VMishnah Sheviit 8:11
p799
sg159
(lp800
sg161
g111
sg162
Nsg163
(lp801
I8
aI11
asg165
Nsg166
g799
sg167
(lp802
sg169
g62
sg170
Nsg171
Nsg172
Nsbag2
(g3
g4
Ntp803
Rp804
(dp805
g8
g11
sg150
Nsg151
(dp806
sg153
Nsg26
g29
sg154
(lp807
I9
aI1
asg156
Nsg157
VMishnah Sheviit 9:1
p808
sg159
(lp809
sg161
g111
sg162
Nsg163
(lp810
I9
aI1
asg165
Nsg166
g808
sg167
(lp811
sg169
g62
sg170
Nsg171
Nsg172
Nsbag2
(g3
g4
Ntp812
Rp813
(dp814
g8
g11
sg150
Nsg151
(dp815
sg153
Nsg26
g29
sg154
(lp816
I9
aI2
asg156
Nsg157
VMishnah Sheviit 9:2
p817
sg159
(lp818
sg161
g111
sg162
Nsg163
(lp819
I9
aI2
asg165
Nsg166
g817
sg167
(lp820
sg169
g62
sg170
Nsg171
Nsg172
Nsbag2
(g3
g4
Ntp821
Rp822
(dp823
g8
g11
sg150
Nsg151
(dp824
sg153
Nsg26
g29
sg154
(lp825
I9
aI3
asg156
Nsg157
VMishnah Sheviit 9:3
p826
sg159
(lp827
sg161
g111
sg162
Nsg163
(lp828
I9
aI3
asg165
Nsg166
g826
sg167
(lp829
sg169
g62
sg170
Nsg171
Nsg172
Nsbag2
(g3
g4
Ntp830
Rp831
(dp832
g8
g11
sg150
Nsg151
(dp833
sg153
Nsg26
g29
sg154
(lp834
I9
aI4
asg156
Nsg157
VMishnah Sheviit 9:4
p835
sg159
(lp836
sg161
g111
sg162
Nsg163
(lp837
I9
aI4
asg165
Nsg166
g835
sg167
(lp838
sg169
g62
sg170
Nsg171
Nsg172
Nsbag2
(g3
g4
Ntp839
Rp840
(dp841
g8
g11
sg150
Nsg151
(dp842
sg153
Nsg26
g29
sg154
(lp843
I9
aI5
asg156
Nsg157
VMishnah Sheviit 9:5
p844
sg159
(lp845
sg161
g111
sg162
Nsg163
(lp846
I9
aI5
asg165
Nsg166
g844
sg167
(lp847
sg169
g62
sg170
Nsg171
Nsg172
Nsbag2
(g3
g4
Ntp848
Rp849
(dp850
g8
g11
sg150
Nsg151
(dp851
sg153
Nsg26
g29
sg154
(lp852
I9
aI6
asg156
Nsg157
VMishnah Sheviit 9:6
p853
sg159
(lp854
sg161
g111
sg162
Nsg163
(lp855
I9
aI6
asg165
Nsg166
g853
sg167
(lp856
sg169
g62
sg170
Nsg171
Nsg172
Nsbag2
(g3
g4
Ntp857
Rp858
(dp859
g8
g11
sg150
Nsg151
(dp860
sg153
Nsg26
g29
sg154
(lp861
I9
aI7
asg156
Nsg157
VMishnah Sheviit 9:7
p862
sg159
(lp863
sg161
g111
sg162
Nsg163
(lp864
I9
aI7
asg165
Nsg166
g862
sg167
(lp865
sg169
g62
sg170
Nsg171
Nsg172
Nsbag2
(g3
g4
Ntp866
Rp867
(dp868
g8
g11
sg150
Nsg151
(dp869
sg153
Nsg26
g29
sg154
(lp870
I9
aI8
asg156
Nsg157
VMishnah Sheviit 9:8
p871
sg159
(lp872
sg161
g111
sg162
Nsg163
(lp873
I9
aI8
asg165
Nsg166
g871
sg167
(lp874
sg169
g62
sg170
Nsg171
Nsg172
Nsbag2
(g3
g4
Ntp875
Rp876
(dp877
g8
g11
sg150
Nsg151
(dp878
sg153
Nsg26
g29
sg154
(lp879
I9
aI9
asg156
Nsg157
VMishnah Sheviit 9:9
p880
sg159
(lp881
sg161
g111
sg162
Nsg163
(lp882
I9
aI9
asg165
Nsg166
g880
sg167
(lp883
sg169
g62
sg170
Nsg171
Nsg172
Nsbag2
(g3
g4
Ntp884
Rp885
(dp886
g8
g11
sg150
Nsg151
(dp887
sg153
Nsg26
g29
sg154
(lp888
I10
aI1
asg156
Nsg157
VMishnah Sheviit 10:1
p889
sg159
(lp890
sg161
g111
sg162
Nsg163
(lp891
I10
aI1
asg165
Nsg166
g889
sg167
(lp892
sg169
g62
sg170
Nsg171
Nsg172
Nsbag2
(g3
g4
Ntp893
Rp894
(dp895
g8
g11
sg150
Nsg151
(dp896
sg153
Nsg26
g29
sg154
(lp897
I10
aI2
asg156
Nsg157
VMishnah Sheviit 10:2
p898
sg159
(lp899
sg161
g111
sg162
Nsg163
(lp900
I10
aI2
asg165
Nsg166
g898
sg167
(lp901
sg169
g62
sg170
Nsg171
Nsg172
Nsbag2
(g3
g4
Ntp902
Rp903
(dp904
g8
g11
sg150
Nsg151
(dp905
sg153
Nsg26
g29
sg154
(lp906
I10
aI3
asg156
Nsg157
VMishnah Sheviit 10:3
p907
sg159
(lp908
sg161
g111
sg162
Nsg163
(lp909
I10
aI3
asg165
Nsg166
g907
sg167
(lp910
sg169
g62
sg170
Nsg171
Nsg172
Nsbag2
(g3
g4
Ntp911
Rp912
(dp913
g8
g11
sg150
Nsg151
(dp914
sg153
Nsg26
g29
sg154
(lp915
I10
aI4
asg156
Nsg157
VMishnah Sheviit 10:4
p916
sg159
(lp917
sg161
g111
sg162
Nsg163
(lp918
I10
aI4
asg165
Nsg166
g916
sg167
(lp919
sg169
g62
sg170
Nsg171
Nsg172
Nsbag2
(g3
g4
Ntp920
Rp921
(dp922
g8
g11
sg150
Nsg151
(dp923
sg153
Nsg26
g29
sg154
(lp924
I10
aI5
asg156
Nsg157
VMishnah Sheviit 10:5
p925
sg159
(lp926
sg161
g111
sg162
Nsg163
(lp927
I10
aI5
asg165
Nsg166
g925
sg167
(lp928
sg169
g62
sg170
Nsg171
Nsg172
Nsbag2
(g3
g4
Ntp929
Rp930
(dp931
g8
g11
sg150
Nsg151
(dp932
sg153
Nsg26
g29
sg154
(lp933
I10
aI6
asg156
Nsg157
VMishnah Sheviit 10:6
p934
sg159
(lp935
sg161
g111
sg162
Nsg163
(lp936
I10
aI6
asg165
Nsg166
g934
sg167
(lp937
sg169
g62
sg170
Nsg171
Nsg172
Nsbag2
(g3
g4
Ntp938
Rp939
(dp940
g8
g11
sg150
Nsg151
(dp941
sg153
Nsg26
g29
sg154
(lp942
I10
aI7
asg156
Nsg157
VMishnah Sheviit 10:7
p943
sg159
(lp944
sg161
g111
sg162
Nsg163
(lp945
I10
aI7
asg165
Nsg166
g943
sg167
(lp946
sg169
g62
sg170
Nsg171
Nsg172
Nsbag2
(g3
g4
Ntp947
Rp948
(dp949
g8
g11
sg150
Nsg151
(dp950
sg153
Nsg26
g29
sg154
(lp951
I10
aI8
asg156
Nsg157
VMishnah Sheviit 10:8
p952
sg159
(lp953
sg161
g111
sg162
Nsg163
(lp954
I10
aI8
asg165
Nsg166
g952
sg167
(lp955
sg169
g62
sg170
Nsg171
Nsg172
Nsbag2
(g3
g4
Ntp956
Rp957
(dp958
g8
g11
sg150
Nsg151
(dp959
sg153
Nsg26
g29
sg154
(lp960
I10
aI9
asg156
Nsg157
VMishnah Sheviit 10:9
p961
sg159
(lp962
sg161
g111
sg162
Nsg163
(lp963
I10
aI9
asg165
Nsg166
g961
sg167
(lp964
sg169
g62
sg170
Nsg171
Nsg172
Nsbatp965
.