((lp0
I0
aI56
aI88
aI136
aI158
aI215
aI237
aI262
aI286
aI312
aI357
aI383
aI492
aI561
aI630
aI683
aI714
aI773
aI841
aI900
aI922
aI964
aI1010
aI1045
aI1101
aI1207
aI1240
aI1268
aI1293
aI1315
aI1351
aI1397
aI1416
aI1453
aI1511
aI1531
aI1574
aI1604
aI1651
aI1683
aI1698
aI1731
aI1792
aI1870
aI1926
aI1980
aI2015
aI2065
aI2086
aI2166
aI2253
aI2290
aI2320
aI2347
aI2489
aI2551
aI2588
aI2669
aI2970
aI3001
aI3020
aI3038
aI3056
aI3104
aI3138
aI3207
aI3226
aI3268
aI3303
aI3367
aI3408
aI3429
aI3456
aI3505
a(lp1
ccopy_reg
_reconstructor
p2
(csefaria.model.text
Ref
p3
c__builtin__
object
p4
Ntp5
Rp6
(dp7
S'index_node'
p8
g2
(csefaria.model.schema
JaggedArrayNode
p9
g4
Ntp10
Rp11
(dp12
S'_address'
p13
(lp14
VMishnah Eduyot
p15
asS'_full_titles'
p16
(dp17
sVnodeType
p18
VJaggedArrayNode
p19
sS'parent'
p20
NsVaddressTypes
p21
(lp22
VPerek
p23
aVMishnah
p24
asS'default'
p25
I00
sS'index'
p26
g2
(csefaria.model.text
Index
p27
g4
Ntp28
Rp29
(dp30
S'_id'
p31
g2
(cbson.objectid
ObjectId
p32
g4
Ntp33
Rp34
S'NJ\xb8\x8f\xed\xba\xb4X3\x00\x00K'
p35
bsS'pkeys_orig_values'
p36
(dp37
S'title'
p38
VMishnah Eduyot
p39
ssS'pubDate'
p40
V1492
p41
sS'compDate'
p42
V210
p43
sS'pubPlace'
p44
VNaples
p45
sS'compPlace'
p46
VTalmudic Israel
p47
sS'enDesc'
p48
VThe Mishnah is the first major written redaction of the Jewish oral traditions known as the Oral Torah. The Mishnah was redacted by Rabbi Yehudah Ha-Nasi before his death around 217 CE, in a time when, according to the Talmud, the persecution of the Jews and the passage of time raised the possibility that the details of the oral traditions of the Pharisees from the Second Temple period (536 BCE \u2013 70 CE) would be forgotten. The majority of the Mishnah is written in Mishnaic Hebrew, while some parts are Aramaic. The Mishnah consists of six orders (sedarim, singular seder), each containing 7\u201312 tractates (masekhtot, singular masekhet), numbering 63 in total and further subdivided into chapters and paragraphs or verses. The word Mishnah can also indicate a single paragraph or a verse of the work itself, i.e. the smallest unit of structure in the Mishnah. For this reason the whole work is sometimes called by the plural, Mishnayot. Eduyot (Testimonies) belongs to the fourth order, Nezikin (The Order of Damages) and presents case studies of legal disputes in Mishnaic times and the miscellaneous testimonies that illustrate various Sages and principles of halakha. It has eight chapters.
p49
sS'order'
p50
(lp51
I37
aI7
asS'era'
p52
VT
p53
sS'struct_objs'
p54
(dp55
sS'nodes'
p56
g11
sS'errorMargin'
p57
V20
p58
sS'_title'
p59
g39
sS'categories'
p60
(lp61
VMishnah
p62
aVSeder Nezikin
p63
asS'schema'
p64
(dp65
g18
g19
sg21
g22
sVlengths
p66
(lp67
I8
aI74
asVdepth
p68
I2
sVtitles
p69
(lp70
(dp71
Vlang
p72
Ven
p73
sVtext
p74
VM. Eduyot
p75
sa(dp76
Vlang
p77
Ven
p78
sVtext
p79
VMishna Eduyot
p80
sa(dp81
Vlang
p82
Ven
p83
sVtext
p84
VM Eduyot
p85
sa(dp86
Vlang
p87
Ven
p88
sVtext
p89
VEduyot
p90
sa(dp91
Vlang
p92
Ven
p93
sVtext
p94
VEduyoth
p95
sa(dp96
Vlang
p97
Vhe
p98
sVtext
p99
V\u05de\u05e9\u05e0\u05d4 \u05e2\u05d3\u05d9\u05d5\u05ea
p100
sVprimary
p101
I01
sa(dp102
Vlang
p103
Vhe
p104
sVtext
p105
V\u05de\u05e9\u05e0\u05d4 \u05e2\u05d3\u05d5\u05d9\u05d5\u05ea
p106
sa(dp107
Vlang
p108
Vhe
p109
sVtext
p110
V\u05e2\u05d3\u05d9\u05d5\u05ea
p111
sa(dp112
Vlang
p113
Ven
p114
sVtext
p115
VMishnah Eduyot
p116
sVprimary
p117
I01
sasVkey
p118
g15
sVsectionNames
p119
(lp120
VChapter
p121
aVMishna
p122
assbsS'_primary_title'
p123
(dp124
sS'title_group'
p125
g2
(csefaria.model.schema
TitleGroup
p126
g4
Ntp127
Rp128
(dp129
g123
(dp130
S'en'
p131
g116
ssS'titles'
p132
g70
sbsS'_addressTypes'
p133
(lp134
g2
(csefaria.model.schema
AddressPerek
p135
g4
Ntp136
Rp137
(dp138
S'length'
p139
I8
sg50
I0
sbag2
(csefaria.model.schema
AddressMishnah
p140
g4
Ntp141
Rp142
(dp143
g139
Nsg50
I1
sbasS'sharedTitle'
p144
Nsg66
g67
sg68
I2
sS'_full_title'
p145
(dp146
g131
g116
ssS'key'
p147
g15
sS'checkFirst'
p148
NsS'_regexes'
p149
(dp150
sS'_leaf_nodes'
p151
(lp152
sg119
g120
sS'children'
p153
(lp154
sbsS'_range_index'
p155
NsS'_context'
p156
(dp157
sS'_padded'
p158
Nsg26
g29
sS'sections'
p159
(lp160
I1
aI1
asS'_first_spanned_ref'
p161
NsS'tref'
p162
VMishnah Eduyot 1:1
p163
sS'_spanned_refs'
p164
(lp165
sS'book'
p166
g116
sS'_range_depth'
p167
NsS'toSections'
p168
(lp169
I1
aI1
asS'_url'
p170
NsS'_normal'
p171
g163
sS'_ranged_refs'
p172
(lp173
sS'type'
p174
g62
sS'_prev'
p175
NsS'_he_normal'
p176
NsS'_next'
p177
Nsbag2
(g3
g4
Ntp178
Rp179
(dp180
g8
g11
sg155
Nsg156
(dp181
sg158
Nsg26
g29
sg159
(lp182
I1
aI2
asg161
Nsg162
VMishnah Eduyot 1:2
p183
sg164
(lp184
sg166
g116
sg167
Nsg168
(lp185
I1
aI2
asg170
Nsg171
g183
sg172
(lp186
sg174
g62
sg175
Nsg176
Nsg177
Nsbag2
(g3
g4
Ntp187
Rp188
(dp189
g8
g11
sg155
Nsg156
(dp190
sg158
Nsg26
g29
sg159
(lp191
I1
aI3
asg161
Nsg162
VMishnah Eduyot 1:3
p192
sg164
(lp193
sg166
g116
sg167
Nsg168
(lp194
I1
aI3
asg170
Nsg171
g192
sg172
(lp195
sg174
g62
sg175
Nsg176
Nsg177
Nsbag2
(g3
g4
Ntp196
Rp197
(dp198
g8
g11
sg155
Nsg156
(dp199
sg158
Nsg26
g29
sg159
(lp200
I1
aI4
asg161
Nsg162
VMishnah Eduyot 1:4
p201
sg164
(lp202
sg166
g116
sg167
Nsg168
(lp203
I1
aI4
asg170
Nsg171
g201
sg172
(lp204
sg174
g62
sg175
Nsg176
Nsg177
Nsbag2
(g3
g4
Ntp205
Rp206
(dp207
g8
g11
sg155
Nsg156
(dp208
sg158
Nsg26
g29
sg159
(lp209
I1
aI5
asg161
Nsg162
VMishnah Eduyot 1:5
p210
sg164
(lp211
sg166
g116
sg167
Nsg168
(lp212
I1
aI5
asg170
Nsg171
g210
sg172
(lp213
sg174
g62
sg175
Nsg176
Nsg177
Nsbag2
(g3
g4
Ntp214
Rp215
(dp216
g8
g11
sg155
Nsg156
(dp217
sg158
Nsg26
g29
sg159
(lp218
I1
aI6
asg161
Nsg162
VMishnah Eduyot 1:6
p219
sg164
(lp220
sg166
g116
sg167
Nsg168
(lp221
I1
aI6
asg170
Nsg171
g219
sg172
(lp222
sg174
g62
sg175
Nsg176
Nsg177
Nsbag2
(g3
g4
Ntp223
Rp224
(dp225
g8
g11
sg155
Nsg156
(dp226
sg158
Nsg26
g29
sg159
(lp227
I1
aI7
asg161
Nsg162
VMishnah Eduyot 1:7
p228
sg164
(lp229
sg166
g116
sg167
Nsg168
(lp230
I1
aI7
asg170
Nsg171
g228
sg172
(lp231
sg174
g62
sg175
Nsg176
Nsg177
Nsbag2
(g3
g4
Ntp232
Rp233
(dp234
g8
g11
sg155
Nsg156
(dp235
sg158
Nsg26
g29
sg159
(lp236
I1
aI8
asg161
Nsg162
VMishnah Eduyot 1:8
p237
sg164
(lp238
sg166
g116
sg167
Nsg168
(lp239
I1
aI8
asg170
Nsg171
g237
sg172
(lp240
sg174
g62
sg175
Nsg176
Nsg177
Nsbag2
(g3
g4
Ntp241
Rp242
(dp243
g8
g11
sg155
Nsg156
(dp244
sg158
Nsg26
g29
sg159
(lp245
I1
aI9
asg161
Nsg162
VMishnah Eduyot 1:9
p246
sg164
(lp247
sg166
g116
sg167
Nsg168
(lp248
I1
aI9
asg170
Nsg171
g246
sg172
(lp249
sg174
g62
sg175
Nsg176
Nsg177
Nsbag2
(g3
g4
Ntp250
Rp251
(dp252
g8
g11
sg155
Nsg156
(dp253
sg158
Nsg26
g29
sg159
(lp254
I1
aI10
asg161
Nsg162
VMishnah Eduyot 1:10
p255
sg164
(lp256
sg166
g116
sg167
Nsg168
(lp257
I1
aI10
asg170
Nsg171
g255
sg172
(lp258
sg174
g62
sg175
Nsg176
Nsg177
Nsbag2
(g3
g4
Ntp259
Rp260
(dp261
g8
g11
sg155
Nsg156
(dp262
sg158
Nsg26
g29
sg159
(lp263
I1
aI11
asg161
Nsg162
VMishnah Eduyot 1:11
p264
sg164
(lp265
sg166
g116
sg167
Nsg168
(lp266
I1
aI11
asg170
Nsg171
g264
sg172
(lp267
sg174
g62
sg175
Nsg176
Nsg177
Nsbag2
(g3
g4
Ntp268
Rp269
(dp270
g8
g11
sg155
Nsg156
(dp271
sg158
Nsg26
g29
sg159
(lp272
I1
aI12
asg161
Nsg162
VMishnah Eduyot 1:12
p273
sg164
(lp274
sg166
g116
sg167
Nsg168
(lp275
I1
aI12
asg170
Nsg171
g273
sg172
(lp276
sg174
g62
sg175
Nsg176
Nsg177
Nsbag2
(g3
g4
Ntp277
Rp278
(dp279
g8
g11
sg155
Nsg156
(dp280
sg158
Nsg26
g29
sg159
(lp281
I1
aI13
asg161
Nsg162
VMishnah Eduyot 1:13
p282
sg164
(lp283
sg166
g116
sg167
Nsg168
(lp284
I1
aI13
asg170
Nsg171
g282
sg172
(lp285
sg174
g62
sg175
Nsg176
Nsg177
Nsbag2
(g3
g4
Ntp286
Rp287
(dp288
g8
g11
sg155
Nsg156
(dp289
sg158
Nsg26
g29
sg159
(lp290
I1
aI14
asg161
Nsg162
VMishnah Eduyot 1:14
p291
sg164
(lp292
sg166
g116
sg167
Nsg168
(lp293
I1
aI14
asg170
Nsg171
g291
sg172
(lp294
sg174
g62
sg175
Nsg176
Nsg177
Nsbag2
(g3
g4
Ntp295
Rp296
(dp297
g8
g11
sg155
Nsg156
(dp298
sg158
Nsg26
g29
sg159
(lp299
I2
aI1
asg161
Nsg162
VMishnah Eduyot 2:1
p300
sg164
(lp301
sg166
g116
sg167
Nsg168
(lp302
I2
aI1
asg170
Nsg171
g300
sg172
(lp303
sg174
g62
sg175
Nsg176
Nsg177
Nsbag2
(g3
g4
Ntp304
Rp305
(dp306
g8
g11
sg155
Nsg156
(dp307
sg158
Nsg26
g29
sg159
(lp308
I2
aI2
asg161
Nsg162
VMishnah Eduyot 2:2
p309
sg164
(lp310
sg166
g116
sg167
Nsg168
(lp311
I2
aI2
asg170
Nsg171
g309
sg172
(lp312
sg174
g62
sg175
Nsg176
Nsg177
Nsbag2
(g3
g4
Ntp313
Rp314
(dp315
g8
g11
sg155
Nsg156
(dp316
sg158
Nsg26
g29
sg159
(lp317
I2
aI3
asg161
Nsg162
VMishnah Eduyot 2:3
p318
sg164
(lp319
sg166
g116
sg167
Nsg168
(lp320
I2
aI3
asg170
Nsg171
g318
sg172
(lp321
sg174
g62
sg175
Nsg176
Nsg177
Nsbag2
(g3
g4
Ntp322
Rp323
(dp324
g8
g11
sg155
Nsg156
(dp325
sg158
Nsg26
g29
sg159
(lp326
I2
aI4
asg161
Nsg162
VMishnah Eduyot 2:4
p327
sg164
(lp328
sg166
g116
sg167
Nsg168
(lp329
I2
aI4
asg170
Nsg171
g327
sg172
(lp330
sg174
g62
sg175
Nsg176
Nsg177
Nsbag2
(g3
g4
Ntp331
Rp332
(dp333
g8
g11
sg155
Nsg156
(dp334
sg158
Nsg26
g29
sg159
(lp335
I2
aI5
asg161
Nsg162
VMishnah Eduyot 2:5
p336
sg164
(lp337
sg166
g116
sg167
Nsg168
(lp338
I2
aI5
asg170
Nsg171
g336
sg172
(lp339
sg174
g62
sg175
Nsg176
Nsg177
Nsbag2
(g3
g4
Ntp340
Rp341
(dp342
g8
g11
sg155
Nsg156
(dp343
sg158
Nsg26
g29
sg159
(lp344
I2
aI6
asg161
Nsg162
VMishnah Eduyot 2:6
p345
sg164
(lp346
sg166
g116
sg167
Nsg168
(lp347
I2
aI6
asg170
Nsg171
g345
sg172
(lp348
sg174
g62
sg175
Nsg176
Nsg177
Nsbag2
(g3
g4
Ntp349
Rp350
(dp351
g8
g11
sg155
Nsg156
(dp352
sg158
Nsg26
g29
sg159
(lp353
I2
aI7
asg161
Nsg162
VMishnah Eduyot 2:7
p354
sg164
(lp355
sg166
g116
sg167
Nsg168
(lp356
I2
aI7
asg170
Nsg171
g354
sg172
(lp357
sg174
g62
sg175
Nsg176
Nsg177
Nsbag2
(g3
g4
Ntp358
Rp359
(dp360
g8
g11
sg155
Nsg156
(dp361
sg158
Nsg26
g29
sg159
(lp362
I2
aI8
asg161
Nsg162
VMishnah Eduyot 2:8
p363
sg164
(lp364
sg166
g116
sg167
Nsg168
(lp365
I2
aI8
asg170
Nsg171
g363
sg172
(lp366
sg174
g62
sg175
Nsg176
Nsg177
Nsbag2
(g3
g4
Ntp367
Rp368
(dp369
g8
g11
sg155
Nsg156
(dp370
sg158
Nsg26
g29
sg159
(lp371
I2
aI9
asg161
Nsg162
VMishnah Eduyot 2:9
p372
sg164
(lp373
sg166
g116
sg167
Nsg168
(lp374
I2
aI9
asg170
Nsg171
g372
sg172
(lp375
sg174
g62
sg175
Nsg176
Nsg177
Nsbag2
(g3
g4
Ntp376
Rp377
(dp378
g8
g11
sg155
Nsg156
(dp379
sg158
Nsg26
g29
sg159
(lp380
I2
aI10
asg161
Nsg162
VMishnah Eduyot 2:10
p381
sg164
(lp382
sg166
g116
sg167
Nsg168
(lp383
I2
aI10
asg170
Nsg171
g381
sg172
(lp384
sg174
g62
sg175
Nsg176
Nsg177
Nsbag2
(g3
g4
Ntp385
Rp386
(dp387
g8
g11
sg155
Nsg156
(dp388
sg158
Nsg26
g29
sg159
(lp389
I3
aI1
asg161
Nsg162
VMishnah Eduyot 3:1
p390
sg164
(lp391
sg166
g116
sg167
Nsg168
(lp392
I3
aI1
asg170
Nsg171
g390
sg172
(lp393
sg174
g62
sg175
Nsg176
Nsg177
Nsbag2
(g3
g4
Ntp394
Rp395
(dp396
g8
g11
sg155
Nsg156
(dp397
sg158
Nsg26
g29
sg159
(lp398
I3
aI2
asg161
Nsg162
VMishnah Eduyot 3:2
p399
sg164
(lp400
sg166
g116
sg167
Nsg168
(lp401
I3
aI2
asg170
Nsg171
g399
sg172
(lp402
sg174
g62
sg175
Nsg176
Nsg177
Nsbag2
(g3
g4
Ntp403
Rp404
(dp405
g8
g11
sg155
Nsg156
(dp406
sg158
Nsg26
g29
sg159
(lp407
I3
aI3
asg161
Nsg162
VMishnah Eduyot 3:3
p408
sg164
(lp409
sg166
g116
sg167
Nsg168
(lp410
I3
aI3
asg170
Nsg171
g408
sg172
(lp411
sg174
g62
sg175
Nsg176
Nsg177
Nsbag2
(g3
g4
Ntp412
Rp413
(dp414
g8
g11
sg155
Nsg156
(dp415
sg158
Nsg26
g29
sg159
(lp416
I3
aI4
asg161
Nsg162
VMishnah Eduyot 3:4
p417
sg164
(lp418
sg166
g116
sg167
Nsg168
(lp419
I3
aI4
asg170
Nsg171
g417
sg172
(lp420
sg174
g62
sg175
Nsg176
Nsg177
Nsbag2
(g3
g4
Ntp421
Rp422
(dp423
g8
g11
sg155
Nsg156
(dp424
sg158
Nsg26
g29
sg159
(lp425
I3
aI5
asg161
Nsg162
VMishnah Eduyot 3:5
p426
sg164
(lp427
sg166
g116
sg167
Nsg168
(lp428
I3
aI5
asg170
Nsg171
g426
sg172
(lp429
sg174
g62
sg175
Nsg176
Nsg177
Nsbag2
(g3
g4
Ntp430
Rp431
(dp432
g8
g11
sg155
Nsg156
(dp433
sg158
Nsg26
g29
sg159
(lp434
I3
aI6
asg161
Nsg162
VMishnah Eduyot 3:6
p435
sg164
(lp436
sg166
g116
sg167
Nsg168
(lp437
I3
aI6
asg170
Nsg171
g435
sg172
(lp438
sg174
g62
sg175
Nsg176
Nsg177
Nsbag2
(g3
g4
Ntp439
Rp440
(dp441
g8
g11
sg155
Nsg156
(dp442
sg158
Nsg26
g29
sg159
(lp443
I3
aI7
asg161
Nsg162
VMishnah Eduyot 3:7
p444
sg164
(lp445
sg166
g116
sg167
Nsg168
(lp446
I3
aI7
asg170
Nsg171
g444
sg172
(lp447
sg174
g62
sg175
Nsg176
Nsg177
Nsbag2
(g3
g4
Ntp448
Rp449
(dp450
g8
g11
sg155
Nsg156
(dp451
sg158
Nsg26
g29
sg159
(lp452
I3
aI8
asg161
Nsg162
VMishnah Eduyot 3:8
p453
sg164
(lp454
sg166
g116
sg167
Nsg168
(lp455
I3
aI8
asg170
Nsg171
g453
sg172
(lp456
sg174
g62
sg175
Nsg176
Nsg177
Nsbag2
(g3
g4
Ntp457
Rp458
(dp459
g8
g11
sg155
Nsg156
(dp460
sg158
Nsg26
g29
sg159
(lp461
I3
aI9
asg161
Nsg162
VMishnah Eduyot 3:9
p462
sg164
(lp463
sg166
g116
sg167
Nsg168
(lp464
I3
aI9
asg170
Nsg171
g462
sg172
(lp465
sg174
g62
sg175
Nsg176
Nsg177
Nsbag2
(g3
g4
Ntp466
Rp467
(dp468
g8
g11
sg155
Nsg156
(dp469
sg158
Nsg26
g29
sg159
(lp470
I3
aI10
asg161
Nsg162
VMishnah Eduyot 3:10
p471
sg164
(lp472
sg166
g116
sg167
Nsg168
(lp473
I3
aI10
asg170
Nsg171
g471
sg172
(lp474
sg174
g62
sg175
Nsg176
Nsg177
Nsbag2
(g3
g4
Ntp475
Rp476
(dp477
g8
g11
sg155
Nsg156
(dp478
sg158
Nsg26
g29
sg159
(lp479
I3
aI11
asg161
Nsg162
VMishnah Eduyot 3:11
p480
sg164
(lp481
sg166
g116
sg167
Nsg168
(lp482
I3
aI11
asg170
Nsg171
g480
sg172
(lp483
sg174
g62
sg175
Nsg176
Nsg177
Nsbag2
(g3
g4
Ntp484
Rp485
(dp486
g8
g11
sg155
Nsg156
(dp487
sg158
Nsg26
g29
sg159
(lp488
I3
aI12
asg161
Nsg162
VMishnah Eduyot 3:12
p489
sg164
(lp490
sg166
g116
sg167
Nsg168
(lp491
I3
aI12
asg170
Nsg171
g489
sg172
(lp492
sg174
g62
sg175
Nsg176
Nsg177
Nsbag2
(g3
g4
Ntp493
Rp494
(dp495
g8
g11
sg155
Nsg156
(dp496
sg158
Nsg26
g29
sg159
(lp497
I4
aI1
asg161
Nsg162
VMishnah Eduyot 4:1
p498
sg164
(lp499
sg166
g116
sg167
Nsg168
(lp500
I4
aI1
asg170
Nsg171
g498
sg172
(lp501
sg174
g62
sg175
Nsg176
Nsg177
Nsbag2
(g3
g4
Ntp502
Rp503
(dp504
g8
g11
sg155
Nsg156
(dp505
sg158
Nsg26
g29
sg159
(lp506
I4
aI2
asg161
Nsg162
VMishnah Eduyot 4:2
p507
sg164
(lp508
sg166
g116
sg167
Nsg168
(lp509
I4
aI2
asg170
Nsg171
g507
sg172
(lp510
sg174
g62
sg175
Nsg176
Nsg177
Nsbag2
(g3
g4
Ntp511
Rp512
(dp513
g8
g11
sg155
Nsg156
(dp514
sg158
Nsg26
g29
sg159
(lp515
I4
aI3
asg161
Nsg162
VMishnah Eduyot 4:3
p516
sg164
(lp517
sg166
g116
sg167
Nsg168
(lp518
I4
aI3
asg170
Nsg171
g516
sg172
(lp519
sg174
g62
sg175
Nsg176
Nsg177
Nsbag2
(g3
g4
Ntp520
Rp521
(dp522
g8
g11
sg155
Nsg156
(dp523
sg158
Nsg26
g29
sg159
(lp524
I4
aI4
asg161
Nsg162
VMishnah Eduyot 4:4
p525
sg164
(lp526
sg166
g116
sg167
Nsg168
(lp527
I4
aI4
asg170
Nsg171
g525
sg172
(lp528
sg174
g62
sg175
Nsg176
Nsg177
Nsbag2
(g3
g4
Ntp529
Rp530
(dp531
g8
g11
sg155
Nsg156
(dp532
sg158
Nsg26
g29
sg159
(lp533
I4
aI5
asg161
Nsg162
VMishnah Eduyot 4:5
p534
sg164
(lp535
sg166
g116
sg167
Nsg168
(lp536
I4
aI5
asg170
Nsg171
g534
sg172
(lp537
sg174
g62
sg175
Nsg176
Nsg177
Nsbag2
(g3
g4
Ntp538
Rp539
(dp540
g8
g11
sg155
Nsg156
(dp541
sg158
Nsg26
g29
sg159
(lp542
I4
aI6
asg161
Nsg162
VMishnah Eduyot 4:6
p543
sg164
(lp544
sg166
g116
sg167
Nsg168
(lp545
I4
aI6
asg170
Nsg171
g543
sg172
(lp546
sg174
g62
sg175
Nsg176
Nsg177
Nsbag2
(g3
g4
Ntp547
Rp548
(dp549
g8
g11
sg155
Nsg156
(dp550
sg158
Nsg26
g29
sg159
(lp551
I4
aI7
asg161
Nsg162
VMishnah Eduyot 4:7
p552
sg164
(lp553
sg166
g116
sg167
Nsg168
(lp554
I4
aI7
asg170
Nsg171
g552
sg172
(lp555
sg174
g62
sg175
Nsg176
Nsg177
Nsbag2
(g3
g4
Ntp556
Rp557
(dp558
g8
g11
sg155
Nsg156
(dp559
sg158
Nsg26
g29
sg159
(lp560
I4
aI8
asg161
Nsg162
VMishnah Eduyot 4:8
p561
sg164
(lp562
sg166
g116
sg167
Nsg168
(lp563
I4
aI8
asg170
Nsg171
g561
sg172
(lp564
sg174
g62
sg175
Nsg176
Nsg177
Nsbag2
(g3
g4
Ntp565
Rp566
(dp567
g8
g11
sg155
Nsg156
(dp568
sg158
Nsg26
g29
sg159
(lp569
I4
aI9
asg161
Nsg162
VMishnah Eduyot 4:9
p570
sg164
(lp571
sg166
g116
sg167
Nsg168
(lp572
I4
aI9
asg170
Nsg171
g570
sg172
(lp573
sg174
g62
sg175
Nsg176
Nsg177
Nsbag2
(g3
g4
Ntp574
Rp575
(dp576
g8
g11
sg155
Nsg156
(dp577
sg158
Nsg26
g29
sg159
(lp578
I4
aI10
asg161
Nsg162
VMishnah Eduyot 4:10
p579
sg164
(lp580
sg166
g116
sg167
Nsg168
(lp581
I4
aI10
asg170
Nsg171
g579
sg172
(lp582
sg174
g62
sg175
Nsg176
Nsg177
Nsbag2
(g3
g4
Ntp583
Rp584
(dp585
g8
g11
sg155
Nsg156
(dp586
sg158
Nsg26
g29
sg159
(lp587
I4
aI11
asg161
Nsg162
VMishnah Eduyot 4:11
p588
sg164
(lp589
sg166
g116
sg167
Nsg168
(lp590
I4
aI11
asg170
Nsg171
g588
sg172
(lp591
sg174
g62
sg175
Nsg176
Nsg177
Nsbag2
(g3
g4
Ntp592
Rp593
(dp594
g8
g11
sg155
Nsg156
(dp595
sg158
Nsg26
g29
sg159
(lp596
I4
aI12
asg161
Nsg162
VMishnah Eduyot 4:12
p597
sg164
(lp598
sg166
g116
sg167
Nsg168
(lp599
I4
aI12
asg170
Nsg171
g597
sg172
(lp600
sg174
g62
sg175
Nsg176
Nsg177
Nsbag2
(g3
g4
Ntp601
Rp602
(dp603
g8
g11
sg155
Nsg156
(dp604
sg158
Nsg26
g29
sg159
(lp605
I5
aI1
asg161
Nsg162
VMishnah Eduyot 5:1
p606
sg164
(lp607
sg166
g116
sg167
Nsg168
(lp608
I5
aI1
asg170
Nsg171
g606
sg172
(lp609
sg174
g62
sg175
Nsg176
Nsg177
Nsbag2
(g3
g4
Ntp610
Rp611
(dp612
g8
g11
sg155
Nsg156
(dp613
sg158
Nsg26
g29
sg159
(lp614
I5
aI2
asg161
Nsg162
VMishnah Eduyot 5:2
p615
sg164
(lp616
sg166
g116
sg167
Nsg168
(lp617
I5
aI2
asg170
Nsg171
g615
sg172
(lp618
sg174
g62
sg175
Nsg176
Nsg177
Nsbag2
(g3
g4
Ntp619
Rp620
(dp621
g8
g11
sg155
Nsg156
(dp622
sg158
Nsg26
g29
sg159
(lp623
I5
aI3
asg161
Nsg162
VMishnah Eduyot 5:3
p624
sg164
(lp625
sg166
g116
sg167
Nsg168
(lp626
I5
aI3
asg170
Nsg171
g624
sg172
(lp627
sg174
g62
sg175
Nsg176
Nsg177
Nsbag2
(g3
g4
Ntp628
Rp629
(dp630
g8
g11
sg155
Nsg156
(dp631
sg158
Nsg26
g29
sg159
(lp632
I5
aI4
asg161
Nsg162
VMishnah Eduyot 5:4
p633
sg164
(lp634
sg166
g116
sg167
Nsg168
(lp635
I5
aI4
asg170
Nsg171
g633
sg172
(lp636
sg174
g62
sg175
Nsg176
Nsg177
Nsbag2
(g3
g4
Ntp637
Rp638
(dp639
g8
g11
sg155
Nsg156
(dp640
sg158
Nsg26
g29
sg159
(lp641
I5
aI5
asg161
Nsg162
VMishnah Eduyot 5:5
p642
sg164
(lp643
sg166
g116
sg167
Nsg168
(lp644
I5
aI5
asg170
Nsg171
g642
sg172
(lp645
sg174
g62
sg175
Nsg176
Nsg177
Nsbag2
(g3
g4
Ntp646
Rp647
(dp648
g8
g11
sg155
Nsg156
(dp649
sg158
Nsg26
g29
sg159
(lp650
I5
aI6
asg161
Nsg162
VMishnah Eduyot 5:6
p651
sg164
(lp652
sg166
g116
sg167
Nsg168
(lp653
I5
aI6
asg170
Nsg171
g651
sg172
(lp654
sg174
g62
sg175
Nsg176
Nsg177
Nsbag2
(g3
g4
Ntp655
Rp656
(dp657
g8
g11
sg155
Nsg156
(dp658
sg158
Nsg26
g29
sg159
(lp659
I5
aI7
asg161
Nsg162
VMishnah Eduyot 5:7
p660
sg164
(lp661
sg166
g116
sg167
Nsg168
(lp662
I5
aI7
asg170
Nsg171
g660
sg172
(lp663
sg174
g62
sg175
Nsg176
Nsg177
Nsbag2
(g3
g4
Ntp664
Rp665
(dp666
g8
g11
sg155
Nsg156
(dp667
sg158
Nsg26
g29
sg159
(lp668
I6
aI1
asg161
Nsg162
VMishnah Eduyot 6:1
p669
sg164
(lp670
sg166
g116
sg167
Nsg168
(lp671
I6
aI1
asg170
Nsg171
g669
sg172
(lp672
sg174
g62
sg175
Nsg176
Nsg177
Nsbag2
(g3
g4
Ntp673
Rp674
(dp675
g8
g11
sg155
Nsg156
(dp676
sg158
Nsg26
g29
sg159
(lp677
I6
aI2
asg161
Nsg162
VMishnah Eduyot 6:2
p678
sg164
(lp679
sg166
g116
sg167
Nsg168
(lp680
I6
aI2
asg170
Nsg171
g678
sg172
(lp681
sg174
g62
sg175
Nsg176
Nsg177
Nsbag2
(g3
g4
Ntp682
Rp683
(dp684
g8
g11
sg155
Nsg156
(dp685
sg158
Nsg26
g29
sg159
(lp686
I6
aI3
asg161
Nsg162
VMishnah Eduyot 6:3
p687
sg164
(lp688
sg166
g116
sg167
Nsg168
(lp689
I6
aI3
asg170
Nsg171
g687
sg172
(lp690
sg174
g62
sg175
Nsg176
Nsg177
Nsbag2
(g3
g4
Ntp691
Rp692
(dp693
g8
g11
sg155
Nsg156
(dp694
sg158
Nsg26
g29
sg159
(lp695
I7
aI1
asg161
Nsg162
VMishnah Eduyot 7:1
p696
sg164
(lp697
sg166
g116
sg167
Nsg168
(lp698
I7
aI1
asg170
Nsg171
g696
sg172
(lp699
sg174
g62
sg175
Nsg176
Nsg177
Nsbag2
(g3
g4
Ntp700
Rp701
(dp702
g8
g11
sg155
Nsg156
(dp703
sg158
Nsg26
g29
sg159
(lp704
I7
aI2
asg161
Nsg162
VMishnah Eduyot 7:2
p705
sg164
(lp706
sg166
g116
sg167
Nsg168
(lp707
I7
aI2
asg170
Nsg171
g705
sg172
(lp708
sg174
g62
sg175
Nsg176
Nsg177
Nsbag2
(g3
g4
Ntp709
Rp710
(dp711
g8
g11
sg155
Nsg156
(dp712
sg158
Nsg26
g29
sg159
(lp713
I7
aI3
asg161
Nsg162
VMishnah Eduyot 7:3
p714
sg164
(lp715
sg166
g116
sg167
Nsg168
(lp716
I7
aI3
asg170
Nsg171
g714
sg172
(lp717
sg174
g62
sg175
Nsg176
Nsg177
Nsbag2
(g3
g4
Ntp718
Rp719
(dp720
g8
g11
sg155
Nsg156
(dp721
sg158
Nsg26
g29
sg159
(lp722
I7
aI4
asg161
Nsg162
VMishnah Eduyot 7:4
p723
sg164
(lp724
sg166
g116
sg167
Nsg168
(lp725
I7
aI4
asg170
Nsg171
g723
sg172
(lp726
sg174
g62
sg175
Nsg176
Nsg177
Nsbag2
(g3
g4
Ntp727
Rp728
(dp729
g8
g11
sg155
Nsg156
(dp730
sg158
Nsg26
g29
sg159
(lp731
I7
aI5
asg161
Nsg162
VMishnah Eduyot 7:5
p732
sg164
(lp733
sg166
g116
sg167
Nsg168
(lp734
I7
aI5
asg170
Nsg171
g732
sg172
(lp735
sg174
g62
sg175
Nsg176
Nsg177
Nsbag2
(g3
g4
Ntp736
Rp737
(dp738
g8
g11
sg155
Nsg156
(dp739
sg158
Nsg26
g29
sg159
(lp740
I7
aI6
asg161
Nsg162
VMishnah Eduyot 7:6
p741
sg164
(lp742
sg166
g116
sg167
Nsg168
(lp743
I7
aI6
asg170
Nsg171
g741
sg172
(lp744
sg174
g62
sg175
Nsg176
Nsg177
Nsbag2
(g3
g4
Ntp745
Rp746
(dp747
g8
g11
sg155
Nsg156
(dp748
sg158
Nsg26
g29
sg159
(lp749
I7
aI7
asg161
Nsg162
VMishnah Eduyot 7:7
p750
sg164
(lp751
sg166
g116
sg167
Nsg168
(lp752
I7
aI7
asg170
Nsg171
g750
sg172
(lp753
sg174
g62
sg175
Nsg176
Nsg177
Nsbag2
(g3
g4
Ntp754
Rp755
(dp756
g8
g11
sg155
Nsg156
(dp757
sg158
Nsg26
g29
sg159
(lp758
I7
aI8
asg161
Nsg162
VMishnah Eduyot 7:8
p759
sg164
(lp760
sg166
g116
sg167
Nsg168
(lp761
I7
aI8
asg170
Nsg171
g759
sg172
(lp762
sg174
g62
sg175
Nsg176
Nsg177
Nsbag2
(g3
g4
Ntp763
Rp764
(dp765
g8
g11
sg155
Nsg156
(dp766
sg158
Nsg26
g29
sg159
(lp767
I7
aI9
asg161
Nsg162
VMishnah Eduyot 7:9
p768
sg164
(lp769
sg166
g116
sg167
Nsg168
(lp770
I7
aI9
asg170
Nsg171
g768
sg172
(lp771
sg174
g62
sg175
Nsg176
Nsg177
Nsbag2
(g3
g4
Ntp772
Rp773
(dp774
g8
g11
sg155
Nsg156
(dp775
sg158
Nsg26
g29
sg159
(lp776
I8
aI1
asg161
Nsg162
VMishnah Eduyot 8:1
p777
sg164
(lp778
sg166
g116
sg167
Nsg168
(lp779
I8
aI1
asg170
Nsg171
g777
sg172
(lp780
sg174
g62
sg175
Nsg176
Nsg177
Nsbag2
(g3
g4
Ntp781
Rp782
(dp783
g8
g11
sg155
Nsg156
(dp784
sg158
Nsg26
g29
sg159
(lp785
I8
aI2
asg161
Nsg162
VMishnah Eduyot 8:2
p786
sg164
(lp787
sg166
g116
sg167
Nsg168
(lp788
I8
aI2
asg170
Nsg171
g786
sg172
(lp789
sg174
g62
sg175
Nsg176
Nsg177
Nsbag2
(g3
g4
Ntp790
Rp791
(dp792
g8
g11
sg155
Nsg156
(dp793
sg158
Nsg26
g29
sg159
(lp794
I8
aI3
asg161
Nsg162
VMishnah Eduyot 8:3
p795
sg164
(lp796
sg166
g116
sg167
Nsg168
(lp797
I8
aI3
asg170
Nsg171
g795
sg172
(lp798
sg174
g62
sg175
Nsg176
Nsg177
Nsbag2
(g3
g4
Ntp799
Rp800
(dp801
g8
g11
sg155
Nsg156
(dp802
sg158
Nsg26
g29
sg159
(lp803
I8
aI4
asg161
Nsg162
VMishnah Eduyot 8:4
p804
sg164
(lp805
sg166
g116
sg167
Nsg168
(lp806
I8
aI4
asg170
Nsg171
g804
sg172
(lp807
sg174
g62
sg175
Nsg176
Nsg177
Nsbag2
(g3
g4
Ntp808
Rp809
(dp810
g8
g11
sg155
Nsg156
(dp811
sg158
Nsg26
g29
sg159
(lp812
I8
aI5
asg161
Nsg162
VMishnah Eduyot 8:5
p813
sg164
(lp814
sg166
g116
sg167
Nsg168
(lp815
I8
aI5
asg170
Nsg171
g813
sg172
(lp816
sg174
g62
sg175
Nsg176
Nsg177
Nsbag2
(g3
g4
Ntp817
Rp818
(dp819
g8
g11
sg155
Nsg156
(dp820
sg158
Nsg26
g29
sg159
(lp821
I8
aI6
asg161
Nsg162
VMishnah Eduyot 8:6
p822
sg164
(lp823
sg166
g116
sg167
Nsg168
(lp824
I8
aI6
asg170
Nsg171
g822
sg172
(lp825
sg174
g62
sg175
Nsg176
Nsg177
Nsbag2
(g3
g4
Ntp826
Rp827
(dp828
g8
g11
sg155
Nsg156
(dp829
sg158
Nsg26
g29
sg159
(lp830
I8
aI7
asg161
Nsg162
VMishnah Eduyot 8:7
p831
sg164
(lp832
sg166
g116
sg167
Nsg168
(lp833
I8
aI7
asg170
Nsg171
g831
sg172
(lp834
sg174
g62
sg175
Nsg176
Nsg177
Nsbatp835
.