((lp0
I0
aI46
aI70
aI92
aI135
aI150
aI168
aI194
aI213
aI254
aI285
aI336
aI398
aI429
aI494
aI517
aI550
aI607
aI669
aI695
aI723
aI758
aI785
aI808
aI841
aI881
aI915
aI939
aI969
aI1033
aI1058
aI1084
aI1112
aI1163
aI1183
aI1206
aI1220
aI1237
aI1253
aI1320
aI1395
aI1434
aI1441
aI1482
aI1577
aI1609
aI1638
aI1683
aI1702
aI1818
aI1915
aI2002
aI2050
a(lp1
ccopy_reg
_reconstructor
p2
(csefaria.model.text
Ref
p3
c__builtin__
object
p4
Ntp5
Rp6
(dp7
S'index_node'
p8
g2
(csefaria.model.schema
JaggedArrayNode
p9
g4
Ntp10
Rp11
(dp12
S'_address'
p13
(lp14
VMishnah Sukkah
p15
asS'_full_titles'
p16
(dp17
sVnodeType
p18
VJaggedArrayNode
p19
sS'parent'
p20
NsVaddressTypes
p21
(lp22
VPerek
p23
aVMishnah
p24
asS'default'
p25
I00
sS'index'
p26
g2
(csefaria.model.text
Index
p27
g4
Ntp28
Rp29
(dp30
S'_id'
p31
g2
(cbson.objectid
ObjectId
p32
g4
Ntp33
Rp34
S'NJ\xb8\x8f\xed\xba\xb4X3\x00\x007'
p35
bsS'pkeys_orig_values'
p36
(dp37
S'title'
p38
VMishnah Sukkah
p39
ssS'pubDate'
p40
V1492
p41
sS'compDate'
p42
V210
p43
sS'pubPlace'
p44
VNaples
p45
sS'compPlace'
p46
VTalmudic Israel
p47
sS'enDesc'
p48
VThe Mishnah is the first major written redaction of the Jewish oral traditions known as the Oral Torah. The Mishnah was redacted by Rabbi Yehudah Ha-Nasi before his death around 217 CE, in a time when, according to the Talmud, the persecution of the Jews and the passage of time raised the possibility that the details of the oral traditions of the Pharisees from the Second Temple period (536 BCE \u2013 70 CE) would be forgotten. The majority of the Mishnah is written in Mishnaic Hebrew, while some parts are Aramaic. The Mishnah consists of six orders (sedarim, singular seder), each containing 7\u201312 tractates (masekhtot, singular masekhet), numbering 63 in total and further subdivided into chapters and paragraphs or verses. The word Mishnah can also indicate a single paragraph or a verse of the work itself, i.e. the smallest unit of structure in the Mishnah. For this reason the whole work is sometimes called by the plural, Mishnayot. Sukkah (Booths) belongs to the second order, Moed (Festivals) and discusses the festival of Sukkot (the Feast of Tabernacles) and the Sukkah itself. Also deals with the Four Species (Lulav, Etrog, Hadass, Aravah \u2014 Palm branch, Citron, Myrtle, Willow) which are waved on Sukkot. It has five chapters.
p49
sS'order'
p50
(lp51
I17
aI6
asS'era'
p52
VT
p53
sS'struct_objs'
p54
(dp55
sS'nodes'
p56
g11
sS'errorMargin'
p57
V20
p58
sS'_title'
p59
g39
sS'categories'
p60
(lp61
VMishnah
p62
aVSeder Moed
p63
asS'schema'
p64
(dp65
g18
g19
sg21
g22
sVlengths
p66
(lp67
I5
aI53
asVdepth
p68
I2
sVtitles
p69
(lp70
(dp71
Vlang
p72
Ven
p73
sVtext
p74
VMishna Sukkah
p75
sa(dp76
Vlang
p77
Ven
p78
sVtext
p79
VM. Sukkah
p80
sa(dp81
Vlang
p82
Ven
p83
sVtext
p84
VM Sukkah
p85
sa(dp86
Vlang
p87
Vhe
p88
sVtext
p89
V\u05de\u05e9\u05e0\u05d4 \u05e1\u05d5\u05db\u05d4
p90
sVprimary
p91
I01
sa(dp92
Vlang
p93
Ven
p94
sVtext
p95
VMishnah Sukkah
p96
sVprimary
p97
I01
sasVkey
p98
g15
sVsectionNames
p99
(lp100
VChapter
p101
aVMishna
p102
assbsS'_primary_title'
p103
(dp104
sS'title_group'
p105
g2
(csefaria.model.schema
TitleGroup
p106
g4
Ntp107
Rp108
(dp109
g103
(dp110
S'en'
p111
g96
ssS'titles'
p112
g70
sbsS'_addressTypes'
p113
(lp114
g2
(csefaria.model.schema
AddressPerek
p115
g4
Ntp116
Rp117
(dp118
S'length'
p119
I5
sg50
I0
sbag2
(csefaria.model.schema
AddressMishnah
p120
g4
Ntp121
Rp122
(dp123
g119
Nsg50
I1
sbasS'sharedTitle'
p124
Nsg66
g67
sg68
I2
sS'_full_title'
p125
(dp126
g111
g96
ssS'key'
p127
g15
sS'checkFirst'
p128
NsS'_regexes'
p129
(dp130
sS'_leaf_nodes'
p131
(lp132
sg99
g100
sS'children'
p133
(lp134
sbsS'_range_index'
p135
NsS'_context'
p136
(dp137
sS'_padded'
p138
Nsg26
g29
sS'sections'
p139
(lp140
I1
aI1
asS'_first_spanned_ref'
p141
NsS'tref'
p142
VMishnah Sukkah 1:1
p143
sS'_spanned_refs'
p144
(lp145
sS'book'
p146
g96
sS'_range_depth'
p147
NsS'toSections'
p148
(lp149
I1
aI1
asS'_url'
p150
NsS'_normal'
p151
g143
sS'_ranged_refs'
p152
(lp153
sS'type'
p154
g62
sS'_prev'
p155
NsS'_he_normal'
p156
NsS'_next'
p157
Nsbag2
(g3
g4
Ntp158
Rp159
(dp160
g8
g11
sg135
Nsg136
(dp161
sg138
Nsg26
g29
sg139
(lp162
I1
aI2
asg141
Nsg142
VMishnah Sukkah 1:2
p163
sg144
(lp164
sg146
g96
sg147
Nsg148
(lp165
I1
aI2
asg150
Nsg151
g163
sg152
(lp166
sg154
g62
sg155
Nsg156
Nsg157
Nsbag2
(g3
g4
Ntp167
Rp168
(dp169
g8
g11
sg135
Nsg136
(dp170
sg138
Nsg26
g29
sg139
(lp171
I1
aI3
asg141
Nsg142
VMishnah Sukkah 1:3
p172
sg144
(lp173
sg146
g96
sg147
Nsg148
(lp174
I1
aI3
asg150
Nsg151
g172
sg152
(lp175
sg154
g62
sg155
Nsg156
Nsg157
Nsbag2
(g3
g4
Ntp176
Rp177
(dp178
g8
g11
sg135
Nsg136
(dp179
sg138
Nsg26
g29
sg139
(lp180
I1
aI4
asg141
Nsg142
VMishnah Sukkah 1:4
p181
sg144
(lp182
sg146
g96
sg147
Nsg148
(lp183
I1
aI4
asg150
Nsg151
g181
sg152
(lp184
sg154
g62
sg155
Nsg156
Nsg157
Nsbag2
(g3
g4
Ntp185
Rp186
(dp187
g8
g11
sg135
Nsg136
(dp188
sg138
Nsg26
g29
sg139
(lp189
I1
aI5
asg141
Nsg142
VMishnah Sukkah 1:5
p190
sg144
(lp191
sg146
g96
sg147
Nsg148
(lp192
I1
aI5
asg150
Nsg151
g190
sg152
(lp193
sg154
g62
sg155
Nsg156
Nsg157
Nsbag2
(g3
g4
Ntp194
Rp195
(dp196
g8
g11
sg135
Nsg136
(dp197
sg138
Nsg26
g29
sg139
(lp198
I1
aI6
asg141
Nsg142
VMishnah Sukkah 1:6
p199
sg144
(lp200
sg146
g96
sg147
Nsg148
(lp201
I1
aI6
asg150
Nsg151
g199
sg152
(lp202
sg154
g62
sg155
Nsg156
Nsg157
Nsbag2
(g3
g4
Ntp203
Rp204
(dp205
g8
g11
sg135
Nsg136
(dp206
sg138
Nsg26
g29
sg139
(lp207
I1
aI7
asg141
Nsg142
VMishnah Sukkah 1:7
p208
sg144
(lp209
sg146
g96
sg147
Nsg148
(lp210
I1
aI7
asg150
Nsg151
g208
sg152
(lp211
sg154
g62
sg155
Nsg156
Nsg157
Nsbag2
(g3
g4
Ntp212
Rp213
(dp214
g8
g11
sg135
Nsg136
(dp215
sg138
Nsg26
g29
sg139
(lp216
I1
aI8
asg141
Nsg142
VMishnah Sukkah 1:8
p217
sg144
(lp218
sg146
g96
sg147
Nsg148
(lp219
I1
aI8
asg150
Nsg151
g217
sg152
(lp220
sg154
g62
sg155
Nsg156
Nsg157
Nsbag2
(g3
g4
Ntp221
Rp222
(dp223
g8
g11
sg135
Nsg136
(dp224
sg138
Nsg26
g29
sg139
(lp225
I1
aI9
asg141
Nsg142
VMishnah Sukkah 1:9
p226
sg144
(lp227
sg146
g96
sg147
Nsg148
(lp228
I1
aI9
asg150
Nsg151
g226
sg152
(lp229
sg154
g62
sg155
Nsg156
Nsg157
Nsbag2
(g3
g4
Ntp230
Rp231
(dp232
g8
g11
sg135
Nsg136
(dp233
sg138
Nsg26
g29
sg139
(lp234
I1
aI10
asg141
Nsg142
VMishnah Sukkah 1:10
p235
sg144
(lp236
sg146
g96
sg147
Nsg148
(lp237
I1
aI10
asg150
Nsg151
g235
sg152
(lp238
sg154
g62
sg155
Nsg156
Nsg157
Nsbag2
(g3
g4
Ntp239
Rp240
(dp241
g8
g11
sg135
Nsg136
(dp242
sg138
Nsg26
g29
sg139
(lp243
I1
aI11
asg141
Nsg142
VMishnah Sukkah 1:11
p244
sg144
(lp245
sg146
g96
sg147
Nsg148
(lp246
I1
aI11
asg150
Nsg151
g244
sg152
(lp247
sg154
g62
sg155
Nsg156
Nsg157
Nsbag2
(g3
g4
Ntp248
Rp249
(dp250
g8
g11
sg135
Nsg136
(dp251
sg138
Nsg26
g29
sg139
(lp252
I2
aI1
asg141
Nsg142
VMishnah Sukkah 2:1
p253
sg144
(lp254
sg146
g96
sg147
Nsg148
(lp255
I2
aI1
asg150
Nsg151
g253
sg152
(lp256
sg154
g62
sg155
Nsg156
Nsg157
Nsbag2
(g3
g4
Ntp257
Rp258
(dp259
g8
g11
sg135
Nsg136
(dp260
sg138
Nsg26
g29
sg139
(lp261
I2
aI2
asg141
Nsg142
VMishnah Sukkah 2:2
p262
sg144
(lp263
sg146
g96
sg147
Nsg148
(lp264
I2
aI2
asg150
Nsg151
g262
sg152
(lp265
sg154
g62
sg155
Nsg156
Nsg157
Nsbag2
(g3
g4
Ntp266
Rp267
(dp268
g8
g11
sg135
Nsg136
(dp269
sg138
Nsg26
g29
sg139
(lp270
I2
aI3
asg141
Nsg142
VMishnah Sukkah 2:3
p271
sg144
(lp272
sg146
g96
sg147
Nsg148
(lp273
I2
aI3
asg150
Nsg151
g271
sg152
(lp274
sg154
g62
sg155
Nsg156
Nsg157
Nsbag2
(g3
g4
Ntp275
Rp276
(dp277
g8
g11
sg135
Nsg136
(dp278
sg138
Nsg26
g29
sg139
(lp279
I2
aI4
asg141
Nsg142
VMishnah Sukkah 2:4
p280
sg144
(lp281
sg146
g96
sg147
Nsg148
(lp282
I2
aI4
asg150
Nsg151
g280
sg152
(lp283
sg154
g62
sg155
Nsg156
Nsg157
Nsbag2
(g3
g4
Ntp284
Rp285
(dp286
g8
g11
sg135
Nsg136
(dp287
sg138
Nsg26
g29
sg139
(lp288
I2
aI5
asg141
Nsg142
VMishnah Sukkah 2:5
p289
sg144
(lp290
sg146
g96
sg147
Nsg148
(lp291
I2
aI5
asg150
Nsg151
g289
sg152
(lp292
sg154
g62
sg155
Nsg156
Nsg157
Nsbag2
(g3
g4
Ntp293
Rp294
(dp295
g8
g11
sg135
Nsg136
(dp296
sg138
Nsg26
g29
sg139
(lp297
I2
aI6
asg141
Nsg142
VMishnah Sukkah 2:6
p298
sg144
(lp299
sg146
g96
sg147
Nsg148
(lp300
I2
aI6
asg150
Nsg151
g298
sg152
(lp301
sg154
g62
sg155
Nsg156
Nsg157
Nsbag2
(g3
g4
Ntp302
Rp303
(dp304
g8
g11
sg135
Nsg136
(dp305
sg138
Nsg26
g29
sg139
(lp306
I2
aI7
asg141
Nsg142
VMishnah Sukkah 2:7
p307
sg144
(lp308
sg146
g96
sg147
Nsg148
(lp309
I2
aI7
asg150
Nsg151
g307
sg152
(lp310
sg154
g62
sg155
Nsg156
Nsg157
Nsbag2
(g3
g4
Ntp311
Rp312
(dp313
g8
g11
sg135
Nsg136
(dp314
sg138
Nsg26
g29
sg139
(lp315
I2
aI8
asg141
Nsg142
VMishnah Sukkah 2:8
p316
sg144
(lp317
sg146
g96
sg147
Nsg148
(lp318
I2
aI8
asg150
Nsg151
g316
sg152
(lp319
sg154
g62
sg155
Nsg156
Nsg157
Nsbag2
(g3
g4
Ntp320
Rp321
(dp322
g8
g11
sg135
Nsg136
(dp323
sg138
Nsg26
g29
sg139
(lp324
I2
aI9
asg141
Nsg142
VMishnah Sukkah 2:9
p325
sg144
(lp326
sg146
g96
sg147
Nsg148
(lp327
I2
aI9
asg150
Nsg151
g325
sg152
(lp328
sg154
g62
sg155
Nsg156
Nsg157
Nsbag2
(g3
g4
Ntp329
Rp330
(dp331
g8
g11
sg135
Nsg136
(dp332
sg138
Nsg26
g29
sg139
(lp333
I3
aI1
asg141
Nsg142
VMishnah Sukkah 3:1
p334
sg144
(lp335
sg146
g96
sg147
Nsg148
(lp336
I3
aI1
asg150
Nsg151
g334
sg152
(lp337
sg154
g62
sg155
Nsg156
Nsg157
Nsbag2
(g3
g4
Ntp338
Rp339
(dp340
g8
g11
sg135
Nsg136
(dp341
sg138
Nsg26
g29
sg139
(lp342
I3
aI2
asg141
Nsg142
VMishnah Sukkah 3:2
p343
sg144
(lp344
sg146
g96
sg147
Nsg148
(lp345
I3
aI2
asg150
Nsg151
g343
sg152
(lp346
sg154
g62
sg155
Nsg156
Nsg157
Nsbag2
(g3
g4
Ntp347
Rp348
(dp349
g8
g11
sg135
Nsg136
(dp350
sg138
Nsg26
g29
sg139
(lp351
I3
aI3
asg141
Nsg142
VMishnah Sukkah 3:3
p352
sg144
(lp353
sg146
g96
sg147
Nsg148
(lp354
I3
aI3
asg150
Nsg151
g352
sg152
(lp355
sg154
g62
sg155
Nsg156
Nsg157
Nsbag2
(g3
g4
Ntp356
Rp357
(dp358
g8
g11
sg135
Nsg136
(dp359
sg138
Nsg26
g29
sg139
(lp360
I3
aI4
asg141
Nsg142
VMishnah Sukkah 3:4
p361
sg144
(lp362
sg146
g96
sg147
Nsg148
(lp363
I3
aI4
asg150
Nsg151
g361
sg152
(lp364
sg154
g62
sg155
Nsg156
Nsg157
Nsbag2
(g3
g4
Ntp365
Rp366
(dp367
g8
g11
sg135
Nsg136
(dp368
sg138
Nsg26
g29
sg139
(lp369
I3
aI5
asg141
Nsg142
VMishnah Sukkah 3:5
p370
sg144
(lp371
sg146
g96
sg147
Nsg148
(lp372
I3
aI5
asg150
Nsg151
g370
sg152
(lp373
sg154
g62
sg155
Nsg156
Nsg157
Nsbag2
(g3
g4
Ntp374
Rp375
(dp376
g8
g11
sg135
Nsg136
(dp377
sg138
Nsg26
g29
sg139
(lp378
I3
aI6
asg141
Nsg142
VMishnah Sukkah 3:6
p379
sg144
(lp380
sg146
g96
sg147
Nsg148
(lp381
I3
aI6
asg150
Nsg151
g379
sg152
(lp382
sg154
g62
sg155
Nsg156
Nsg157
Nsbag2
(g3
g4
Ntp383
Rp384
(dp385
g8
g11
sg135
Nsg136
(dp386
sg138
Nsg26
g29
sg139
(lp387
I3
aI7
asg141
Nsg142
VMishnah Sukkah 3:7
p388
sg144
(lp389
sg146
g96
sg147
Nsg148
(lp390
I3
aI7
asg150
Nsg151
g388
sg152
(lp391
sg154
g62
sg155
Nsg156
Nsg157
Nsbag2
(g3
g4
Ntp392
Rp393
(dp394
g8
g11
sg135
Nsg136
(dp395
sg138
Nsg26
g29
sg139
(lp396
I3
aI8
asg141
Nsg142
VMishnah Sukkah 3:8
p397
sg144
(lp398
sg146
g96
sg147
Nsg148
(lp399
I3
aI8
asg150
Nsg151
g397
sg152
(lp400
sg154
g62
sg155
Nsg156
Nsg157
Nsbag2
(g3
g4
Ntp401
Rp402
(dp403
g8
g11
sg135
Nsg136
(dp404
sg138
Nsg26
g29
sg139
(lp405
I3
aI9
asg141
Nsg142
VMishnah Sukkah 3:9
p406
sg144
(lp407
sg146
g96
sg147
Nsg148
(lp408
I3
aI9
asg150
Nsg151
g406
sg152
(lp409
sg154
g62
sg155
Nsg156
Nsg157
Nsbag2
(g3
g4
Ntp410
Rp411
(dp412
g8
g11
sg135
Nsg136
(dp413
sg138
Nsg26
g29
sg139
(lp414
I3
aI10
asg141
Nsg142
VMishnah Sukkah 3:10
p415
sg144
(lp416
sg146
g96
sg147
Nsg148
(lp417
I3
aI10
asg150
Nsg151
g415
sg152
(lp418
sg154
g62
sg155
Nsg156
Nsg157
Nsbag2
(g3
g4
Ntp419
Rp420
(dp421
g8
g11
sg135
Nsg136
(dp422
sg138
Nsg26
g29
sg139
(lp423
I3
aI11
asg141
Nsg142
VMishnah Sukkah 3:11
p424
sg144
(lp425
sg146
g96
sg147
Nsg148
(lp426
I3
aI11
asg150
Nsg151
g424
sg152
(lp427
sg154
g62
sg155
Nsg156
Nsg157
Nsbag2
(g3
g4
Ntp428
Rp429
(dp430
g8
g11
sg135
Nsg136
(dp431
sg138
Nsg26
g29
sg139
(lp432
I3
aI12
asg141
Nsg142
VMishnah Sukkah 3:12
p433
sg144
(lp434
sg146
g96
sg147
Nsg148
(lp435
I3
aI12
asg150
Nsg151
g433
sg152
(lp436
sg154
g62
sg155
Nsg156
Nsg157
Nsbag2
(g3
g4
Ntp437
Rp438
(dp439
g8
g11
sg135
Nsg136
(dp440
sg138
Nsg26
g29
sg139
(lp441
I3
aI13
asg141
Nsg142
VMishnah Sukkah 3:13
p442
sg144
(lp443
sg146
g96
sg147
Nsg148
(lp444
I3
aI13
asg150
Nsg151
g442
sg152
(lp445
sg154
g62
sg155
Nsg156
Nsg157
Nsbag2
(g3
g4
Ntp446
Rp447
(dp448
g8
g11
sg135
Nsg136
(dp449
sg138
Nsg26
g29
sg139
(lp450
I3
aI14
asg141
Nsg142
VMishnah Sukkah 3:14
p451
sg144
(lp452
sg146
g96
sg147
Nsg148
(lp453
I3
aI14
asg150
Nsg151
g451
sg152
(lp454
sg154
g62
sg155
Nsg156
Nsg157
Nsbag2
(g3
g4
Ntp455
Rp456
(dp457
g8
g11
sg135
Nsg136
(dp458
sg138
Nsg26
g29
sg139
(lp459
I3
aI15
asg141
Nsg142
VMishnah Sukkah 3:15
p460
sg144
(lp461
sg146
g96
sg147
Nsg148
(lp462
I3
aI15
asg150
Nsg151
g460
sg152
(lp463
sg154
g62
sg155
Nsg156
Nsg157
Nsbag2
(g3
g4
Ntp464
Rp465
(dp466
g8
g11
sg135
Nsg136
(dp467
sg138
Nsg26
g29
sg139
(lp468
I4
aI1
asg141
Nsg142
VMishnah Sukkah 4:1
p469
sg144
(lp470
sg146
g96
sg147
Nsg148
(lp471
I4
aI1
asg150
Nsg151
g469
sg152
(lp472
sg154
g62
sg155
Nsg156
Nsg157
Nsbag2
(g3
g4
Ntp473
Rp474
(dp475
g8
g11
sg135
Nsg136
(dp476
sg138
Nsg26
g29
sg139
(lp477
I4
aI2
asg141
Nsg142
VMishnah Sukkah 4:2
p478
sg144
(lp479
sg146
g96
sg147
Nsg148
(lp480
I4
aI2
asg150
Nsg151
g478
sg152
(lp481
sg154
g62
sg155
Nsg156
Nsg157
Nsbag2
(g3
g4
Ntp482
Rp483
(dp484
g8
g11
sg135
Nsg136
(dp485
sg138
Nsg26
g29
sg139
(lp486
I4
aI3
asg141
Nsg142
VMishnah Sukkah 4:3
p487
sg144
(lp488
sg146
g96
sg147
Nsg148
(lp489
I4
aI3
asg150
Nsg151
g487
sg152
(lp490
sg154
g62
sg155
Nsg156
Nsg157
Nsbag2
(g3
g4
Ntp491
Rp492
(dp493
g8
g11
sg135
Nsg136
(dp494
sg138
Nsg26
g29
sg139
(lp495
I4
aI4
asg141
Nsg142
VMishnah Sukkah 4:4
p496
sg144
(lp497
sg146
g96
sg147
Nsg148
(lp498
I4
aI4
asg150
Nsg151
g496
sg152
(lp499
sg154
g62
sg155
Nsg156
Nsg157
Nsbag2
(g3
g4
Ntp500
Rp501
(dp502
g8
g11
sg135
Nsg136
(dp503
sg138
Nsg26
g29
sg139
(lp504
I4
aI5
asg141
Nsg142
VMishnah Sukkah 4:5
p505
sg144
(lp506
sg146
g96
sg147
Nsg148
(lp507
I4
aI5
asg150
Nsg151
g505
sg152
(lp508
sg154
g62
sg155
Nsg156
Nsg157
Nsbag2
(g3
g4
Ntp509
Rp510
(dp511
g8
g11
sg135
Nsg136
(dp512
sg138
Nsg26
g29
sg139
(lp513
I4
aI6
asg141
Nsg142
VMishnah Sukkah 4:6
p514
sg144
(lp515
sg146
g96
sg147
Nsg148
(lp516
I4
aI6
asg150
Nsg151
g514
sg152
(lp517
sg154
g62
sg155
Nsg156
Nsg157
Nsbag2
(g3
g4
Ntp518
Rp519
(dp520
g8
g11
sg135
Nsg136
(dp521
sg138
Nsg26
g29
sg139
(lp522
I4
aI7
asg141
Nsg142
VMishnah Sukkah 4:7
p523
sg144
(lp524
sg146
g96
sg147
Nsg148
(lp525
I4
aI7
asg150
Nsg151
g523
sg152
(lp526
sg154
g62
sg155
Nsg156
Nsg157
Nsbag2
(g3
g4
Ntp527
Rp528
(dp529
g8
g11
sg135
Nsg136
(dp530
sg138
Nsg26
g29
sg139
(lp531
I4
aI8
asg141
Nsg142
VMishnah Sukkah 4:8
p532
sg144
(lp533
sg146
g96
sg147
Nsg148
(lp534
I4
aI8
asg150
Nsg151
g532
sg152
(lp535
sg154
g62
sg155
Nsg156
Nsg157
Nsbag2
(g3
g4
Ntp536
Rp537
(dp538
g8
g11
sg135
Nsg136
(dp539
sg138
Nsg26
g29
sg139
(lp540
I4
aI9
asg141
Nsg142
VMishnah Sukkah 4:9
p541
sg144
(lp542
sg146
g96
sg147
Nsg148
(lp543
I4
aI9
asg150
Nsg151
g541
sg152
(lp544
sg154
g62
sg155
Nsg156
Nsg157
Nsbag2
(g3
g4
Ntp545
Rp546
(dp547
g8
g11
sg135
Nsg136
(dp548
sg138
Nsg26
g29
sg139
(lp549
I4
aI10
asg141
Nsg142
VMishnah Sukkah 4:10
p550
sg144
(lp551
sg146
g96
sg147
Nsg148
(lp552
I4
aI10
asg150
Nsg151
g550
sg152
(lp553
sg154
g62
sg155
Nsg156
Nsg157
Nsbag2
(g3
g4
Ntp554
Rp555
(dp556
g8
g11
sg135
Nsg136
(dp557
sg138
Nsg26
g29
sg139
(lp558
I5
aI1
asg141
Nsg142
VMishnah Sukkah 5:1
p559
sg144
(lp560
sg146
g96
sg147
Nsg148
(lp561
I5
aI1
asg150
Nsg151
g559
sg152
(lp562
sg154
g62
sg155
Nsg156
Nsg157
Nsbag2
(g3
g4
Ntp563
Rp564
(dp565
g8
g11
sg135
Nsg136
(dp566
sg138
Nsg26
g29
sg139
(lp567
I5
aI2
asg141
Nsg142
VMishnah Sukkah 5:2
p568
sg144
(lp569
sg146
g96
sg147
Nsg148
(lp570
I5
aI2
asg150
Nsg151
g568
sg152
(lp571
sg154
g62
sg155
Nsg156
Nsg157
Nsbag2
(g3
g4
Ntp572
Rp573
(dp574
g8
g11
sg135
Nsg136
(dp575
sg138
Nsg26
g29
sg139
(lp576
I5
aI3
asg141
Nsg142
VMishnah Sukkah 5:3
p577
sg144
(lp578
sg146
g96
sg147
Nsg148
(lp579
I5
aI3
asg150
Nsg151
g577
sg152
(lp580
sg154
g62
sg155
Nsg156
Nsg157
Nsbag2
(g3
g4
Ntp581
Rp582
(dp583
g8
g11
sg135
Nsg136
(dp584
sg138
Nsg26
g29
sg139
(lp585
I5
aI4
asg141
Nsg142
VMishnah Sukkah 5:4
p586
sg144
(lp587
sg146
g96
sg147
Nsg148
(lp588
I5
aI4
asg150
Nsg151
g586
sg152
(lp589
sg154
g62
sg155
Nsg156
Nsg157
Nsbag2
(g3
g4
Ntp590
Rp591
(dp592
g8
g11
sg135
Nsg136
(dp593
sg138
Nsg26
g29
sg139
(lp594
I5
aI5
asg141
Nsg142
VMishnah Sukkah 5:5
p595
sg144
(lp596
sg146
g96
sg147
Nsg148
(lp597
I5
aI5
asg150
Nsg151
g595
sg152
(lp598
sg154
g62
sg155
Nsg156
Nsg157
Nsbag2
(g3
g4
Ntp599
Rp600
(dp601
g8
g11
sg135
Nsg136
(dp602
sg138
Nsg26
g29
sg139
(lp603
I5
aI6
asg141
Nsg142
VMishnah Sukkah 5:6
p604
sg144
(lp605
sg146
g96
sg147
Nsg148
(lp606
I5
aI6
asg150
Nsg151
g604
sg152
(lp607
sg154
g62
sg155
Nsg156
Nsg157
Nsbag2
(g3
g4
Ntp608
Rp609
(dp610
g8
g11
sg135
Nsg136
(dp611
sg138
Nsg26
g29
sg139
(lp612
I5
aI7
asg141
Nsg142
VMishnah Sukkah 5:7
p613
sg144
(lp614
sg146
g96
sg147
Nsg148
(lp615
I5
aI7
asg150
Nsg151
g613
sg152
(lp616
sg154
g62
sg155
Nsg156
Nsg157
Nsbag2
(g3
g4
Ntp617
Rp618
(dp619
g8
g11
sg135
Nsg136
(dp620
sg138
Nsg26
g29
sg139
(lp621
I5
aI8
asg141
Nsg142
VMishnah Sukkah 5:8
p622
sg144
(lp623
sg146
g96
sg147
Nsg148
(lp624
I5
aI8
asg150
Nsg151
g622
sg152
(lp625
sg154
g62
sg155
Nsg156
Nsg157
Nsbatp626
.