((lp0
I0
aI6
aI20
aI36
aI48
aI60
aI74
aI82
aI90
aI101
aI111
aI119
aI132
aI138
aI154
aI176
aI189
aI202
aI215
aI224
aI233
aI238
aI248
aI259
aI270
aI284
aI299
aI310
aI329
aI339
aI348
aI363
aI375
aI389
aI395
aI409
aI422
aI431
aI450
aI460
aI471
aI483
aI495
aI506
aI513
aI529
aI541
a(lp1
ccopy_reg
_reconstructor
p2
(csefaria.model.text
Ref
p3
c__builtin__
object
p4
Ntp5
Rp6
(dp7
S'index_node'
p8
g2
(csefaria.model.schema
JaggedArrayNode
p9
g4
Ntp10
Rp11
(dp12
S'_address'
p13
(lp14
VNahum
p15
asS'_full_titles'
p16
(dp17
sVnodeType
p18
VJaggedArrayNode
p19
sS'parent'
p20
NsVaddressTypes
p21
(lp22
VInteger
p23
aVInteger
p24
asS'default'
p25
I00
sS'index'
p26
g2
(csefaria.model.text
Index
p27
g4
Ntp28
Rp29
(dp30
S'_id'
p31
g2
(cbson.objectid
ObjectId
p32
g4
Ntp33
Rp34
S'NJ\xb8l\xed\xba\xb4X3\x00\x00\x14'
p35
bsS'pkeys_orig_values'
p36
(dp37
S'title'
p38
VNahum
p39
ssS'pubDate'
p40
V1488
p41
sS'compDate'
p42
V-650
p43
sS'pubPlace'
p44
VSoncino
p45
sS'compPlace'
p46
VJudea/Israel
p47
sS'enDesc'
p48
VThe Book of Nahum is the seventh of the Tere Asar (Twelve Minor Prophets). The term denotes the short length of the text in relation to the longer prophetic texts known as the Major Prophets. According to some, Nahum prophesies at the beginning of the reign of Ahaz. Others, however, think that his prophecies refer to the latter half of the reign of Hezekiah. The book of Nahum consists of two parts: Chapter one shows the majesty and might of God in goodness and severity. Chapters two and three describe the fall of Nineveh the capital of the Assyrian empire.
p49
sS'order'
p50
(lp51
I21
aI16
asS'struct_objs'
p52
(dp53
sS'nodes'
p54
g11
sS'errorMargin'
p55
V50
p56
sS'_title'
p57
g39
sS'categories'
p58
(lp59
VTanakh
p60
aVProphets
p61
asS'schema'
p62
(dp63
g18
g19
sg21
g22
sVlengths
p64
(lp65
I3
aI47
asVdepth
p66
I2
sVtitles
p67
(lp68
(dp69
Vlang
p70
Ven
p71
sVtext
p72
VNah.
p73
sa(dp74
Vlang
p75
Ven
p76
sVtext
p77
VNah
p78
sa(dp79
Vlang
p80
Vhe
p81
sVtext
p82
V\u05e0\u05d7\u05d5\u05dd
p83
sVprimary
p84
I01
sa(dp85
Vlang
p86
Ven
p87
sVtext
p88
VNahum
p89
sVprimary
p90
I01
sasVkey
p91
g15
sVsectionNames
p92
(lp93
VChapter
p94
aVVerse
p95
assbsS'_primary_title'
p96
(dp97
sS'title_group'
p98
g2
(csefaria.model.schema
TitleGroup
p99
g4
Ntp100
Rp101
(dp102
g96
(dp103
S'en'
p104
g89
ssS'titles'
p105
g68
sbsS'_addressTypes'
p106
(lp107
g2
(csefaria.model.schema
AddressInteger
p108
g4
Ntp109
Rp110
(dp111
S'length'
p112
I3
sg50
I0
sbag2
(g108
g4
Ntp113
Rp114
(dp115
g112
Nsg50
I1
sbasS'sharedTitle'
p116
Nsg64
g65
sg66
I2
sS'_full_title'
p117
(dp118
g104
g89
ssS'key'
p119
g15
sS'checkFirst'
p120
NsS'_regexes'
p121
(dp122
sS'_leaf_nodes'
p123
(lp124
sg92
g93
sS'children'
p125
(lp126
sbsS'_range_index'
p127
NsS'_context'
p128
(dp129
sS'_padded'
p130
Nsg26
g29
sS'sections'
p131
(lp132
I1
aI1
asS'_first_spanned_ref'
p133
NsS'tref'
p134
VNahum 1:1
p135
sS'_spanned_refs'
p136
(lp137
sS'book'
p138
g89
sS'_range_depth'
p139
NsS'toSections'
p140
(lp141
I1
aI1
asS'_url'
p142
NsS'_normal'
p143
g135
sS'_ranged_refs'
p144
(lp145
sS'type'
p146
g60
sS'_prev'
p147
NsS'_he_normal'
p148
NsS'_next'
p149
Nsbag2
(g3
g4
Ntp150
Rp151
(dp152
g8
g11
sg127
Nsg128
(dp153
sg130
Nsg26
g29
sg131
(lp154
I1
aI2
asg133
Nsg134
VNahum 1:2
p155
sg136
(lp156
sg138
g89
sg139
Nsg140
(lp157
I1
aI2
asg142
Nsg143
g155
sg144
(lp158
sg146
g60
sg147
Nsg148
Nsg149
Nsbag2
(g3
g4
Ntp159
Rp160
(dp161
g8
g11
sg127
Nsg128
(dp162
sg130
Nsg26
g29
sg131
(lp163
I1
aI3
asg133
Nsg134
VNahum 1:3
p164
sg136
(lp165
sg138
g89
sg139
Nsg140
(lp166
I1
aI3
asg142
Nsg143
g164
sg144
(lp167
sg146
g60
sg147
Nsg148
Nsg149
Nsbag2
(g3
g4
Ntp168
Rp169
(dp170
g8
g11
sg127
Nsg128
(dp171
sg130
Nsg26
g29
sg131
(lp172
I1
aI4
asg133
Nsg134
VNahum 1:4
p173
sg136
(lp174
sg138
g89
sg139
Nsg140
(lp175
I1
aI4
asg142
Nsg143
g173
sg144
(lp176
sg146
g60
sg147
Nsg148
Nsg149
Nsbag2
(g3
g4
Ntp177
Rp178
(dp179
g8
g11
sg127
Nsg128
(dp180
sg130
Nsg26
g29
sg131
(lp181
I1
aI5
asg133
Nsg134
VNahum 1:5
p182
sg136
(lp183
sg138
g89
sg139
Nsg140
(lp184
I1
aI5
asg142
Nsg143
g182
sg144
(lp185
sg146
g60
sg147
Nsg148
Nsg149
Nsbag2
(g3
g4
Ntp186
Rp187
(dp188
g8
g11
sg127
Nsg128
(dp189
sg130
Nsg26
g29
sg131
(lp190
I1
aI6
asg133
Nsg134
VNahum 1:6
p191
sg136
(lp192
sg138
g89
sg139
Nsg140
(lp193
I1
aI6
asg142
Nsg143
g191
sg144
(lp194
sg146
g60
sg147
Nsg148
Nsg149
Nsbag2
(g3
g4
Ntp195
Rp196
(dp197
g8
g11
sg127
Nsg128
(dp198
sg130
Nsg26
g29
sg131
(lp199
I1
aI7
asg133
Nsg134
VNahum 1:7
p200
sg136
(lp201
sg138
g89
sg139
Nsg140
(lp202
I1
aI7
asg142
Nsg143
g200
sg144
(lp203
sg146
g60
sg147
Nsg148
Nsg149
Nsbag2
(g3
g4
Ntp204
Rp205
(dp206
g8
g11
sg127
Nsg128
(dp207
sg130
Nsg26
g29
sg131
(lp208
I1
aI8
asg133
Nsg134
VNahum 1:8
p209
sg136
(lp210
sg138
g89
sg139
Nsg140
(lp211
I1
aI8
asg142
Nsg143
g209
sg144
(lp212
sg146
g60
sg147
Nsg148
Nsg149
Nsbag2
(g3
g4
Ntp213
Rp214
(dp215
g8
g11
sg127
Nsg128
(dp216
sg130
Nsg26
g29
sg131
(lp217
I1
aI9
asg133
Nsg134
VNahum 1:9
p218
sg136
(lp219
sg138
g89
sg139
Nsg140
(lp220
I1
aI9
asg142
Nsg143
g218
sg144
(lp221
sg146
g60
sg147
Nsg148
Nsg149
Nsbag2
(g3
g4
Ntp222
Rp223
(dp224
g8
g11
sg127
Nsg128
(dp225
sg130
Nsg26
g29
sg131
(lp226
I1
aI10
asg133
Nsg134
VNahum 1:10
p227
sg136
(lp228
sg138
g89
sg139
Nsg140
(lp229
I1
aI10
asg142
Nsg143
g227
sg144
(lp230
sg146
g60
sg147
Nsg148
Nsg149
Nsbag2
(g3
g4
Ntp231
Rp232
(dp233
g8
g11
sg127
Nsg128
(dp234
sg130
Nsg26
g29
sg131
(lp235
I1
aI11
asg133
Nsg134
VNahum 1:11
p236
sg136
(lp237
sg138
g89
sg139
Nsg140
(lp238
I1
aI11
asg142
Nsg143
g236
sg144
(lp239
sg146
g60
sg147
Nsg148
Nsg149
Nsbag2
(g3
g4
Ntp240
Rp241
(dp242
g8
g11
sg127
Nsg128
(dp243
sg130
Nsg26
g29
sg131
(lp244
I1
aI12
asg133
Nsg134
VNahum 1:12
p245
sg136
(lp246
sg138
g89
sg139
Nsg140
(lp247
I1
aI12
asg142
Nsg143
g245
sg144
(lp248
sg146
g60
sg147
Nsg148
Nsg149
Nsbag2
(g3
g4
Ntp249
Rp250
(dp251
g8
g11
sg127
Nsg128
(dp252
sg130
Nsg26
g29
sg131
(lp253
I1
aI13
asg133
Nsg134
VNahum 1:13
p254
sg136
(lp255
sg138
g89
sg139
Nsg140
(lp256
I1
aI13
asg142
Nsg143
g254
sg144
(lp257
sg146
g60
sg147
Nsg148
Nsg149
Nsbag2
(g3
g4
Ntp258
Rp259
(dp260
g8
g11
sg127
Nsg128
(dp261
sg130
Nsg26
g29
sg131
(lp262
I1
aI14
asg133
Nsg134
VNahum 1:14
p263
sg136
(lp264
sg138
g89
sg139
Nsg140
(lp265
I1
aI14
asg142
Nsg143
g263
sg144
(lp266
sg146
g60
sg147
Nsg148
Nsg149
Nsbag2
(g3
g4
Ntp267
Rp268
(dp269
g8
g11
sg127
Nsg128
(dp270
sg130
Nsg26
g29
sg131
(lp271
I2
aI1
asg133
Nsg134
VNahum 2:1
p272
sg136
(lp273
sg138
g89
sg139
Nsg140
(lp274
I2
aI1
asg142
Nsg143
g272
sg144
(lp275
sg146
g60
sg147
Nsg148
Nsg149
Nsbag2
(g3
g4
Ntp276
Rp277
(dp278
g8
g11
sg127
Nsg128
(dp279
sg130
Nsg26
g29
sg131
(lp280
I2
aI2
asg133
Nsg134
VNahum 2:2
p281
sg136
(lp282
sg138
g89
sg139
Nsg140
(lp283
I2
aI2
asg142
Nsg143
g281
sg144
(lp284
sg146
g60
sg147
Nsg148
Nsg149
Nsbag2
(g3
g4
Ntp285
Rp286
(dp287
g8
g11
sg127
Nsg128
(dp288
sg130
Nsg26
g29
sg131
(lp289
I2
aI3
asg133
Nsg134
VNahum 2:3
p290
sg136
(lp291
sg138
g89
sg139
Nsg140
(lp292
I2
aI3
asg142
Nsg143
g290
sg144
(lp293
sg146
g60
sg147
Nsg148
Nsg149
Nsbag2
(g3
g4
Ntp294
Rp295
(dp296
g8
g11
sg127
Nsg128
(dp297
sg130
Nsg26
g29
sg131
(lp298
I2
aI4
asg133
Nsg134
VNahum 2:4
p299
sg136
(lp300
sg138
g89
sg139
Nsg140
(lp301
I2
aI4
asg142
Nsg143
g299
sg144
(lp302
sg146
g60
sg147
Nsg148
Nsg149
Nsbag2
(g3
g4
Ntp303
Rp304
(dp305
g8
g11
sg127
Nsg128
(dp306
sg130
Nsg26
g29
sg131
(lp307
I2
aI5
asg133
Nsg134
VNahum 2:5
p308
sg136
(lp309
sg138
g89
sg139
Nsg140
(lp310
I2
aI5
asg142
Nsg143
g308
sg144
(lp311
sg146
g60
sg147
Nsg148
Nsg149
Nsbag2
(g3
g4
Ntp312
Rp313
(dp314
g8
g11
sg127
Nsg128
(dp315
sg130
Nsg26
g29
sg131
(lp316
I2
aI6
asg133
Nsg134
VNahum 2:6
p317
sg136
(lp318
sg138
g89
sg139
Nsg140
(lp319
I2
aI6
asg142
Nsg143
g317
sg144
(lp320
sg146
g60
sg147
Nsg148
Nsg149
Nsbag2
(g3
g4
Ntp321
Rp322
(dp323
g8
g11
sg127
Nsg128
(dp324
sg130
Nsg26
g29
sg131
(lp325
I2
aI7
asg133
Nsg134
VNahum 2:7
p326
sg136
(lp327
sg138
g89
sg139
Nsg140
(lp328
I2
aI7
asg142
Nsg143
g326
sg144
(lp329
sg146
g60
sg147
Nsg148
Nsg149
Nsbag2
(g3
g4
Ntp330
Rp331
(dp332
g8
g11
sg127
Nsg128
(dp333
sg130
Nsg26
g29
sg131
(lp334
I2
aI8
asg133
Nsg134
VNahum 2:8
p335
sg136
(lp336
sg138
g89
sg139
Nsg140
(lp337
I2
aI8
asg142
Nsg143
g335
sg144
(lp338
sg146
g60
sg147
Nsg148
Nsg149
Nsbag2
(g3
g4
Ntp339
Rp340
(dp341
g8
g11
sg127
Nsg128
(dp342
sg130
Nsg26
g29
sg131
(lp343
I2
aI9
asg133
Nsg134
VNahum 2:9
p344
sg136
(lp345
sg138
g89
sg139
Nsg140
(lp346
I2
aI9
asg142
Nsg143
g344
sg144
(lp347
sg146
g60
sg147
Nsg148
Nsg149
Nsbag2
(g3
g4
Ntp348
Rp349
(dp350
g8
g11
sg127
Nsg128
(dp351
sg130
Nsg26
g29
sg131
(lp352
I2
aI10
asg133
Nsg134
VNahum 2:10
p353
sg136
(lp354
sg138
g89
sg139
Nsg140
(lp355
I2
aI10
asg142
Nsg143
g353
sg144
(lp356
sg146
g60
sg147
Nsg148
Nsg149
Nsbag2
(g3
g4
Ntp357
Rp358
(dp359
g8
g11
sg127
Nsg128
(dp360
sg130
Nsg26
g29
sg131
(lp361
I2
aI11
asg133
Nsg134
VNahum 2:11
p362
sg136
(lp363
sg138
g89
sg139
Nsg140
(lp364
I2
aI11
asg142
Nsg143
g362
sg144
(lp365
sg146
g60
sg147
Nsg148
Nsg149
Nsbag2
(g3
g4
Ntp366
Rp367
(dp368
g8
g11
sg127
Nsg128
(dp369
sg130
Nsg26
g29
sg131
(lp370
I2
aI12
asg133
Nsg134
VNahum 2:12
p371
sg136
(lp372
sg138
g89
sg139
Nsg140
(lp373
I2
aI12
asg142
Nsg143
g371
sg144
(lp374
sg146
g60
sg147
Nsg148
Nsg149
Nsbag2
(g3
g4
Ntp375
Rp376
(dp377
g8
g11
sg127
Nsg128
(dp378
sg130
Nsg26
g29
sg131
(lp379
I2
aI13
asg133
Nsg134
VNahum 2:13
p380
sg136
(lp381
sg138
g89
sg139
Nsg140
(lp382
I2
aI13
asg142
Nsg143
g380
sg144
(lp383
sg146
g60
sg147
Nsg148
Nsg149
Nsbag2
(g3
g4
Ntp384
Rp385
(dp386
g8
g11
sg127
Nsg128
(dp387
sg130
Nsg26
g29
sg131
(lp388
I2
aI14
asg133
Nsg134
VNahum 2:14
p389
sg136
(lp390
sg138
g89
sg139
Nsg140
(lp391
I2
aI14
asg142
Nsg143
g389
sg144
(lp392
sg146
g60
sg147
Nsg148
Nsg149
Nsbag2
(g3
g4
Ntp393
Rp394
(dp395
g8
g11
sg127
Nsg128
(dp396
sg130
Nsg26
g29
sg131
(lp397
I3
aI1
asg133
Nsg134
VNahum 3:1
p398
sg136
(lp399
sg138
g89
sg139
Nsg140
(lp400
I3
aI1
asg142
Nsg143
g398
sg144
(lp401
sg146
g60
sg147
Nsg148
Nsg149
Nsbag2
(g3
g4
Ntp402
Rp403
(dp404
g8
g11
sg127
Nsg128
(dp405
sg130
Nsg26
g29
sg131
(lp406
I3
aI2
asg133
Nsg134
VNahum 3:2
p407
sg136
(lp408
sg138
g89
sg139
Nsg140
(lp409
I3
aI2
asg142
Nsg143
g407
sg144
(lp410
sg146
g60
sg147
Nsg148
Nsg149
Nsbag2
(g3
g4
Ntp411
Rp412
(dp413
g8
g11
sg127
Nsg128
(dp414
sg130
Nsg26
g29
sg131
(lp415
I3
aI3
asg133
Nsg134
VNahum 3:3
p416
sg136
(lp417
sg138
g89
sg139
Nsg140
(lp418
I3
aI3
asg142
Nsg143
g416
sg144
(lp419
sg146
g60
sg147
Nsg148
Nsg149
Nsbag2
(g3
g4
Ntp420
Rp421
(dp422
g8
g11
sg127
Nsg128
(dp423
sg130
Nsg26
g29
sg131
(lp424
I3
aI4
asg133
Nsg134
VNahum 3:4
p425
sg136
(lp426
sg138
g89
sg139
Nsg140
(lp427
I3
aI4
asg142
Nsg143
g425
sg144
(lp428
sg146
g60
sg147
Nsg148
Nsg149
Nsbag2
(g3
g4
Ntp429
Rp430
(dp431
g8
g11
sg127
Nsg128
(dp432
sg130
Nsg26
g29
sg131
(lp433
I3
aI5
asg133
Nsg134
VNahum 3:5
p434
sg136
(lp435
sg138
g89
sg139
Nsg140
(lp436
I3
aI5
asg142
Nsg143
g434
sg144
(lp437
sg146
g60
sg147
Nsg148
Nsg149
Nsbag2
(g3
g4
Ntp438
Rp439
(dp440
g8
g11
sg127
Nsg128
(dp441
sg130
Nsg26
g29
sg131
(lp442
I3
aI6
asg133
Nsg134
VNahum 3:6
p443
sg136
(lp444
sg138
g89
sg139
Nsg140
(lp445
I3
aI6
asg142
Nsg143
g443
sg144
(lp446
sg146
g60
sg147
Nsg148
Nsg149
Nsbag2
(g3
g4
Ntp447
Rp448
(dp449
g8
g11
sg127
Nsg128
(dp450
sg130
Nsg26
g29
sg131
(lp451
I3
aI7
asg133
Nsg134
VNahum 3:7
p452
sg136
(lp453
sg138
g89
sg139
Nsg140
(lp454
I3
aI7
asg142
Nsg143
g452
sg144
(lp455
sg146
g60
sg147
Nsg148
Nsg149
Nsbag2
(g3
g4
Ntp456
Rp457
(dp458
g8
g11
sg127
Nsg128
(dp459
sg130
Nsg26
g29
sg131
(lp460
I3
aI8
asg133
Nsg134
VNahum 3:8
p461
sg136
(lp462
sg138
g89
sg139
Nsg140
(lp463
I3
aI8
asg142
Nsg143
g461
sg144
(lp464
sg146
g60
sg147
Nsg148
Nsg149
Nsbag2
(g3
g4
Ntp465
Rp466
(dp467
g8
g11
sg127
Nsg128
(dp468
sg130
Nsg26
g29
sg131
(lp469
I3
aI9
asg133
Nsg134
VNahum 3:9
p470
sg136
(lp471
sg138
g89
sg139
Nsg140
(lp472
I3
aI9
asg142
Nsg143
g470
sg144
(lp473
sg146
g60
sg147
Nsg148
Nsg149
Nsbag2
(g3
g4
Ntp474
Rp475
(dp476
g8
g11
sg127
Nsg128
(dp477
sg130
Nsg26
g29
sg131
(lp478
I3
aI10
asg133
Nsg134
VNahum 3:10
p479
sg136
(lp480
sg138
g89
sg139
Nsg140
(lp481
I3
aI10
asg142
Nsg143
g479
sg144
(lp482
sg146
g60
sg147
Nsg148
Nsg149
Nsbag2
(g3
g4
Ntp483
Rp484
(dp485
g8
g11
sg127
Nsg128
(dp486
sg130
Nsg26
g29
sg131
(lp487
I3
aI11
asg133
Nsg134
VNahum 3:11
p488
sg136
(lp489
sg138
g89
sg139
Nsg140
(lp490
I3
aI11
asg142
Nsg143
g488
sg144
(lp491
sg146
g60
sg147
Nsg148
Nsg149
Nsbag2
(g3
g4
Ntp492
Rp493
(dp494
g8
g11
sg127
Nsg128
(dp495
sg130
Nsg26
g29
sg131
(lp496
I3
aI12
asg133
Nsg134
VNahum 3:12
p497
sg136
(lp498
sg138
g89
sg139
Nsg140
(lp499
I3
aI12
asg142
Nsg143
g497
sg144
(lp500
sg146
g60
sg147
Nsg148
Nsg149
Nsbag2
(g3
g4
Ntp501
Rp502
(dp503
g8
g11
sg127
Nsg128
(dp504
sg130
Nsg26
g29
sg131
(lp505
I3
aI13
asg133
Nsg134
VNahum 3:13
p506
sg136
(lp507
sg138
g89
sg139
Nsg140
(lp508
I3
aI13
asg142
Nsg143
g506
sg144
(lp509
sg146
g60
sg147
Nsg148
Nsg149
Nsbag2
(g3
g4
Ntp510
Rp511
(dp512
g8
g11
sg127
Nsg128
(dp513
sg130
Nsg26
g29
sg131
(lp514
I3
aI14
asg133
Nsg134
VNahum 3:14
p515
sg136
(lp516
sg138
g89
sg139
Nsg140
(lp517
I3
aI14
asg142
Nsg143
g515
sg144
(lp518
sg146
g60
sg147
Nsg148
Nsg149
Nsbag2
(g3
g4
Ntp519
Rp520
(dp521
g8
g11
sg127
Nsg128
(dp522
sg130
Nsg26
g29
sg131
(lp523
I3
aI15
asg133
Nsg134
VNahum 3:15
p524
sg136
(lp525
sg138
g89
sg139
Nsg140
(lp526
I3
aI15
asg142
Nsg143
g524
sg144
(lp527
sg146
g60
sg147
Nsg148
Nsg149
Nsbag2
(g3
g4
Ntp528
Rp529
(dp530
g8
g11
sg127
Nsg128
(dp531
sg130
Nsg26
g29
sg131
(lp532
I3
aI16
asg133
Nsg134
VNahum 3:16
p533
sg136
(lp534
sg138
g89
sg139
Nsg140
(lp535
I3
aI16
asg142
Nsg143
g533
sg144
(lp536
sg146
g60
sg147
Nsg148
Nsg149
Nsbag2
(g3
g4
Ntp537
Rp538
(dp539
g8
g11
sg127
Nsg128
(dp540
sg130
Nsg26
g29
sg131
(lp541
I3
aI17
asg133
Nsg134
VNahum 3:17
p542
sg136
(lp543
sg138
g89
sg139
Nsg140
(lp544
I3
aI17
asg142
Nsg143
g542
sg144
(lp545
sg146
g60
sg147
Nsg148
Nsg149
Nsbag2
(g3
g4
Ntp546
Rp547
(dp548
g8
g11
sg127
Nsg128
(dp549
sg130
Nsg26
g29
sg131
(lp550
I3
aI18
asg133
Nsg134
VNahum 3:18
p551
sg136
(lp552
sg138
g89
sg139
Nsg140
(lp553
I3
aI18
asg142
Nsg143
g551
sg144
(lp554
sg146
g60
sg147
Nsg148
Nsg149
Nsbag2
(g3
g4
Ntp555
Rp556
(dp557
g8
g11
sg127
Nsg128
(dp558
sg130
Nsg26
g29
sg131
(lp559
I3
aI19
asg133
Nsg134
VNahum 3:19
p560
sg136
(lp561
sg138
g89
sg139
Nsg140
(lp562
I3
aI19
asg142
Nsg143
g560
sg144
(lp563
sg146
g60
sg147
Nsg148
Nsg149
Nsbatp564
.