((lp0
I0
aI17
aI24
aI36
aI48
aI67
aI72
aI90
aI101
aI110
aI117
aI136
aI153
aI171
aI183
aI197
aI212
aI223
aI244
aI262
aI279
a(lp1
ccopy_reg
_reconstructor
p2
(csefaria.model.text
Ref
p3
c__builtin__
object
p4
Ntp5
Rp6
(dp7
S'index_node'
p8
g2
(csefaria.model.schema
JaggedArrayNode
p9
g4
Ntp10
Rp11
(dp12
S'_address'
p13
(lp14
VObadiah
p15
asS'_full_titles'
p16
(dp17
sVnodeType
p18
VJaggedArrayNode
p19
sS'parent'
p20
NsVaddressTypes
p21
(lp22
VInteger
p23
aVInteger
p24
asS'default'
p25
I00
sS'index'
p26
g2
(csefaria.model.text
Index
p27
g4
Ntp28
Rp29
(dp30
S'_id'
p31
g2
(cbson.objectid
ObjectId
p32
g4
Ntp33
Rp34
S'NJ\xb8l\xed\xba\xb4X3\x00\x00\x11'
p35
bsS'pkeys_orig_values'
p36
(dp37
S'title'
p38
VObadiah
p39
ssS'pubDate'
p40
V1488
p41
sS'compDate'
p42
V-600
p43
sS'pubPlace'
p44
VSoncino
p45
sS'compPlace'
p46
VJudea/Israel
p47
sS'enDesc'
p48
VThe Book of Obadiah is the fourht of the Tere Asar (Twelve Minor Prophets). The term denotes the short length of the text in relation to the longer prophetic texts known as the Major Prophets. The text consists of a single chapter, divided into 21 verses, making it the shortest book of the Tanakh (Bible). The book is a vision concerning the fall of Edom. Obadiah describes an encounter with God who addresses Edom\u2019s arrogance and charges them for their violent actions against their brother nation, the House of Jacob. When Nebuchadnezzar II sacked Jerusalem and carted away the King of Judea, Edom assisted the Babylonians in looting the city. Obadiah suggests Edom should have remembered that blood was thicker than water. He said in judgement God would wipe out the house of Esau forever and not even a remnant would remain.
p49
sS'order'
p50
(lp51
I18
aI13
asS'struct_objs'
p52
(dp53
sS'nodes'
p54
g11
sS'errorMargin'
p55
V100
p56
sS'_title'
p57
g39
sS'categories'
p58
(lp59
VTanakh
p60
aVProphets
p61
asS'schema'
p62
(dp63
g18
g19
sg21
g22
sVlengths
p64
(lp65
I1
aI21
asVdepth
p66
I2
sVtitles
p67
(lp68
(dp69
Vlang
p70
Ven
p71
sVtext
p72
VOvadiah
p73
sa(dp74
Vlang
p75
Vhe
p76
sVtext
p77
V\u05e2\u05d5\u05d1\u05d3\u05d9\u05d4
p78
sVprimary
p79
I01
sa(dp80
Vlang
p81
Ven
p82
sVtext
p83
VObadiah
p84
sVprimary
p85
I01
sasVkey
p86
g15
sVsectionNames
p87
(lp88
VChapter
p89
aVVerse
p90
assbsS'_primary_title'
p91
(dp92
sS'title_group'
p93
g2
(csefaria.model.schema
TitleGroup
p94
g4
Ntp95
Rp96
(dp97
g91
(dp98
S'en'
p99
g84
ssS'titles'
p100
g68
sbsS'_addressTypes'
p101
(lp102
g2
(csefaria.model.schema
AddressInteger
p103
g4
Ntp104
Rp105
(dp106
S'length'
p107
I1
sg50
I0
sbag2
(g103
g4
Ntp108
Rp109
(dp110
g107
Nsg50
I1
sbasS'sharedTitle'
p111
Nsg64
g65
sg66
I2
sS'_full_title'
p112
(dp113
g99
g84
ssS'key'
p114
g15
sS'checkFirst'
p115
NsS'_regexes'
p116
(dp117
sS'_leaf_nodes'
p118
(lp119
sg87
g88
sS'children'
p120
(lp121
sbsS'_range_index'
p122
NsS'_context'
p123
(dp124
sS'_padded'
p125
Nsg26
g29
sS'sections'
p126
(lp127
I1
aI1
asS'_first_spanned_ref'
p128
NsS'tref'
p129
VObadiah 1:1
p130
sS'_spanned_refs'
p131
(lp132
sS'book'
p133
g84
sS'_range_depth'
p134
NsS'toSections'
p135
(lp136
I1
aI1
asS'_url'
p137
NsS'_normal'
p138
g130
sS'_ranged_refs'
p139
(lp140
sS'type'
p141
g60
sS'_prev'
p142
NsS'_he_normal'
p143
NsS'_next'
p144
Nsbag2
(g3
g4
Ntp145
Rp146
(dp147
g8
g11
sg122
Nsg123
(dp148
sg125
Nsg26
g29
sg126
(lp149
I1
aI2
asg128
Nsg129
VObadiah 1:2
p150
sg131
(lp151
sg133
g84
sg134
Nsg135
(lp152
I1
aI2
asg137
Nsg138
g150
sg139
(lp153
sg141
g60
sg142
Nsg143
Nsg144
Nsbag2
(g3
g4
Ntp154
Rp155
(dp156
g8
g11
sg122
Nsg123
(dp157
sg125
Nsg26
g29
sg126
(lp158
I1
aI3
asg128
Nsg129
VObadiah 1:3
p159
sg131
(lp160
sg133
g84
sg134
Nsg135
(lp161
I1
aI3
asg137
Nsg138
g159
sg139
(lp162
sg141
g60
sg142
Nsg143
Nsg144
Nsbag2
(g3
g4
Ntp163
Rp164
(dp165
g8
g11
sg122
Nsg123
(dp166
sg125
Nsg26
g29
sg126
(lp167
I1
aI4
asg128
Nsg129
VObadiah 1:4
p168
sg131
(lp169
sg133
g84
sg134
Nsg135
(lp170
I1
aI4
asg137
Nsg138
g168
sg139
(lp171
sg141
g60
sg142
Nsg143
Nsg144
Nsbag2
(g3
g4
Ntp172
Rp173
(dp174
g8
g11
sg122
Nsg123
(dp175
sg125
Nsg26
g29
sg126
(lp176
I1
aI5
asg128
Nsg129
VObadiah 1:5
p177
sg131
(lp178
sg133
g84
sg134
Nsg135
(lp179
I1
aI5
asg137
Nsg138
g177
sg139
(lp180
sg141
g60
sg142
Nsg143
Nsg144
Nsbag2
(g3
g4
Ntp181
Rp182
(dp183
g8
g11
sg122
Nsg123
(dp184
sg125
Nsg26
g29
sg126
(lp185
I1
aI6
asg128
Nsg129
VObadiah 1:6
p186
sg131
(lp187
sg133
g84
sg134
Nsg135
(lp188
I1
aI6
asg137
Nsg138
g186
sg139
(lp189
sg141
g60
sg142
Nsg143
Nsg144
Nsbag2
(g3
g4
Ntp190
Rp191
(dp192
g8
g11
sg122
Nsg123
(dp193
sg125
Nsg26
g29
sg126
(lp194
I1
aI7
asg128
Nsg129
VObadiah 1:7
p195
sg131
(lp196
sg133
g84
sg134
Nsg135
(lp197
I1
aI7
asg137
Nsg138
g195
sg139
(lp198
sg141
g60
sg142
Nsg143
Nsg144
Nsbag2
(g3
g4
Ntp199
Rp200
(dp201
g8
g11
sg122
Nsg123
(dp202
sg125
Nsg26
g29
sg126
(lp203
I1
aI8
asg128
Nsg129
VObadiah 1:8
p204
sg131
(lp205
sg133
g84
sg134
Nsg135
(lp206
I1
aI8
asg137
Nsg138
g204
sg139
(lp207
sg141
g60
sg142
Nsg143
Nsg144
Nsbag2
(g3
g4
Ntp208
Rp209
(dp210
g8
g11
sg122
Nsg123
(dp211
sg125
Nsg26
g29
sg126
(lp212
I1
aI9
asg128
Nsg129
VObadiah 1:9
p213
sg131
(lp214
sg133
g84
sg134
Nsg135
(lp215
I1
aI9
asg137
Nsg138
g213
sg139
(lp216
sg141
g60
sg142
Nsg143
Nsg144
Nsbag2
(g3
g4
Ntp217
Rp218
(dp219
g8
g11
sg122
Nsg123
(dp220
sg125
Nsg26
g29
sg126
(lp221
I1
aI10
asg128
Nsg129
VObadiah 1:10
p222
sg131
(lp223
sg133
g84
sg134
Nsg135
(lp224
I1
aI10
asg137
Nsg138
g222
sg139
(lp225
sg141
g60
sg142
Nsg143
Nsg144
Nsbag2
(g3
g4
Ntp226
Rp227
(dp228
g8
g11
sg122
Nsg123
(dp229
sg125
Nsg26
g29
sg126
(lp230
I1
aI11
asg128
Nsg129
VObadiah 1:11
p231
sg131
(lp232
sg133
g84
sg134
Nsg135
(lp233
I1
aI11
asg137
Nsg138
g231
sg139
(lp234
sg141
g60
sg142
Nsg143
Nsg144
Nsbag2
(g3
g4
Ntp235
Rp236
(dp237
g8
g11
sg122
Nsg123
(dp238
sg125
Nsg26
g29
sg126
(lp239
I1
aI12
asg128
Nsg129
VObadiah 1:12
p240
sg131
(lp241
sg133
g84
sg134
Nsg135
(lp242
I1
aI12
asg137
Nsg138
g240
sg139
(lp243
sg141
g60
sg142
Nsg143
Nsg144
Nsbag2
(g3
g4
Ntp244
Rp245
(dp246
g8
g11
sg122
Nsg123
(dp247
sg125
Nsg26
g29
sg126
(lp248
I1
aI13
asg128
Nsg129
VObadiah 1:13
p249
sg131
(lp250
sg133
g84
sg134
Nsg135
(lp251
I1
aI13
asg137
Nsg138
g249
sg139
(lp252
sg141
g60
sg142
Nsg143
Nsg144
Nsbag2
(g3
g4
Ntp253
Rp254
(dp255
g8
g11
sg122
Nsg123
(dp256
sg125
Nsg26
g29
sg126
(lp257
I1
aI14
asg128
Nsg129
VObadiah 1:14
p258
sg131
(lp259
sg133
g84
sg134
Nsg135
(lp260
I1
aI14
asg137
Nsg138
g258
sg139
(lp261
sg141
g60
sg142
Nsg143
Nsg144
Nsbag2
(g3
g4
Ntp262
Rp263
(dp264
g8
g11
sg122
Nsg123
(dp265
sg125
Nsg26
g29
sg126
(lp266
I1
aI15
asg128
Nsg129
VObadiah 1:15
p267
sg131
(lp268
sg133
g84
sg134
Nsg135
(lp269
I1
aI15
asg137
Nsg138
g267
sg139
(lp270
sg141
g60
sg142
Nsg143
Nsg144
Nsbag2
(g3
g4
Ntp271
Rp272
(dp273
g8
g11
sg122
Nsg123
(dp274
sg125
Nsg26
g29
sg126
(lp275
I1
aI16
asg128
Nsg129
VObadiah 1:16
p276
sg131
(lp277
sg133
g84
sg134
Nsg135
(lp278
I1
aI16
asg137
Nsg138
g276
sg139
(lp279
sg141
g60
sg142
Nsg143
Nsg144
Nsbag2
(g3
g4
Ntp280
Rp281
(dp282
g8
g11
sg122
Nsg123
(dp283
sg125
Nsg26
g29
sg126
(lp284
I1
aI17
asg128
Nsg129
VObadiah 1:17
p285
sg131
(lp286
sg133
g84
sg134
Nsg135
(lp287
I1
aI17
asg137
Nsg138
g285
sg139
(lp288
sg141
g60
sg142
Nsg143
Nsg144
Nsbag2
(g3
g4
Ntp289
Rp290
(dp291
g8
g11
sg122
Nsg123
(dp292
sg125
Nsg26
g29
sg126
(lp293
I1
aI18
asg128
Nsg129
VObadiah 1:18
p294
sg131
(lp295
sg133
g84
sg134
Nsg135
(lp296
I1
aI18
asg137
Nsg138
g294
sg139
(lp297
sg141
g60
sg142
Nsg143
Nsg144
Nsbag2
(g3
g4
Ntp298
Rp299
(dp300
g8
g11
sg122
Nsg123
(dp301
sg125
Nsg26
g29
sg126
(lp302
I1
aI19
asg128
Nsg129
VObadiah 1:19
p303
sg131
(lp304
sg133
g84
sg134
Nsg135
(lp305
I1
aI19
asg137
Nsg138
g303
sg139
(lp306
sg141
g60
sg142
Nsg143
Nsg144
Nsbag2
(g3
g4
Ntp307
Rp308
(dp309
g8
g11
sg122
Nsg123
(dp310
sg125
Nsg26
g29
sg126
(lp311
I1
aI20
asg128
Nsg129
VObadiah 1:20
p312
sg131
(lp313
sg133
g84
sg134
Nsg135
(lp314
I1
aI20
asg137
Nsg138
g312
sg139
(lp315
sg141
g60
sg142
Nsg143
Nsg144
Nsbag2
(g3
g4
Ntp316
Rp317
(dp318
g8
g11
sg122
Nsg123
(dp319
sg125
Nsg26
g29
sg126
(lp320
I1
aI21
asg128
Nsg129
VObadiah 1:21
p321
sg131
(lp322
sg133
g84
sg134
Nsg135
(lp323
I1
aI21
asg137
Nsg138
g321
sg139
(lp324
sg141
g60
sg142
Nsg143
Nsg144
Nsbatp325
.