((lp0
I0
aI1461
aI2518
aI5452
aI6464
aI9403
aI11073
aI12263
aI13842
aI14681
aI18359
aI21284
aI24222
aI25901
aI30848
aI35828
aI37806
aI39661
aI41071
aI41430
aI43278
aI48246
aI49993
aI53764
aI54407
aI55881
aI58341
aI59691
aI60964
aI63447
aI64420
aI67705
aI68560
aI73587
aI74365
aI75385
aI76375
aI77265
aI77495
aI77928
aI81085
aI82267
aI84682
aI87108
aI89098
aI89552
aI90559
a(lp1
ccopy_reg
_reconstructor
p2
(csefaria.model.text
Ref
p3
c__builtin__
object
p4
Ntp5
Rp6
(dp7
S'index_node'
p8
g2
(csefaria.model.schema
JaggedArrayNode
p9
g4
Ntp10
Rp11
(dp12
S'_address'
p13
(lp14
VPesikta Rabbati
p15
asS'_full_titles'
p16
(dp17
sVnodeType
p18
VJaggedArrayNode
p19
sS'parent'
p20
NsVaddressTypes
p21
(lp22
VInteger
p23
aVInteger
p24
asS'default'
p25
I00
sS'index'
p26
g2
(csefaria.model.text
Index
p27
g4
Ntp28
Rp29
(dp30
S'_id'
p31
g2
(cbson.objectid
ObjectId
p32
g4
Ntp33
Rp34
S'V\x9d\t\xe3\xd6\xe4\xa9y\xb4\n\x11\xf6'
p35
bsS'pkeys_orig_values'
p36
(dp37
S'title'
p38
VPesikta Rabbati
p39
ssS'compDate'
p40
V750
p41
sS'struct_objs'
p42
(dp43
sS'compPlace'
p44
VTalmudic Israel
p45
sS'authors'
p46
(lp47
sS'nodes'
p48
g11
sS'errorMargin'
p49
V150
p50
sS'_title'
p51
g39
sS'categories'
p52
(lp53
VMidrash
p54
aVAggadic Midrash
p55
asS'schema'
p56
(dp57
g18
g19
sg21
g22
sVdepth
p58
I2
sVtitles
p59
(lp60
(dp61
Vlang
p62
Vhe
p63
sVtext
p64
V\u05e4\u05e1\u05d9\u05e7\u05ea\u05d0 \u05e8\u05d1\u05ea\u05d9
p65
sVprimary
p66
I01
sa(dp67
Vlang
p68
Ven
p69
sVtext
p70
VPesikta Rabbati
p71
sVprimary
p72
I01
sasVkey
p73
g15
sVsectionNames
p74
(lp75
VChapter
p76
aVSection
p77
assbsS'_primary_title'
p78
(dp79
sS'title_group'
p80
g2
(csefaria.model.schema
TitleGroup
p81
g4
Ntp82
Rp83
(dp84
g78
(dp85
S'en'
p86
g71
ssS'titles'
p87
g60
sbsS'_addressTypes'
p88
(lp89
g2
(csefaria.model.schema
AddressInteger
p90
g4
Ntp91
Rp92
(dp93
S'length'
p94
NsS'order'
p95
I0
sbag2
(g90
g4
Ntp96
Rp97
(dp98
g94
Nsg95
I1
sbasS'sharedTitle'
p99
Nsg58
I2
sS'_full_title'
p100
(dp101
g86
g71
ssS'key'
p102
g15
sS'checkFirst'
p103
NsS'_regexes'
p104
(dp105
sS'_leaf_nodes'
p106
(lp107
sg74
g75
sS'children'
p108
(lp109
sbsS'_range_index'
p110
NsS'_context'
p111
(dp112
sS'_padded'
p113
Nsg26
g29
sS'sections'
p114
(lp115
I1
aI1
asS'_first_spanned_ref'
p116
NsS'tref'
p117
VPesikta Rabbati 1:1
p118
sS'_spanned_refs'
p119
(lp120
sS'book'
p121
g71
sS'_range_depth'
p122
NsS'toSections'
p123
(lp124
I1
aI1
asS'_url'
p125
NsS'_normal'
p126
g118
sS'_ranged_refs'
p127
(lp128
sS'type'
p129
g54
sS'_prev'
p130
NsS'_he_normal'
p131
NsS'_next'
p132
Nsbag2
(g3
g4
Ntp133
Rp134
(dp135
g8
g11
sg110
Nsg111
(dp136
sg113
Nsg26
g29
sg114
(lp137
I2
aI1
asg116
Nsg117
VPesikta Rabbati 2:1
p138
sg119
(lp139
sg121
g71
sg122
Nsg123
(lp140
I2
aI1
asg125
Nsg126
g138
sg127
(lp141
sg129
g54
sg130
Nsg131
Nsg132
Nsbag2
(g3
g4
Ntp142
Rp143
(dp144
g8
g11
sg110
Nsg111
(dp145
sg113
Nsg26
g29
sg114
(lp146
I3
aI1
asg116
Nsg117
VPesikta Rabbati 3:1
p147
sg119
(lp148
sg121
g71
sg122
Nsg123
(lp149
I3
aI1
asg125
Nsg126
g147
sg127
(lp150
sg129
g54
sg130
Nsg131
Nsg132
Nsbag2
(g3
g4
Ntp151
Rp152
(dp153
g8
g11
sg110
Nsg111
(dp154
sg113
Nsg26
g29
sg114
(lp155
I4
aI1
asg116
Nsg117
VPesikta Rabbati 4:1
p156
sg119
(lp157
sg121
g71
sg122
Nsg123
(lp158
I4
aI1
asg125
Nsg126
g156
sg127
(lp159
sg129
g54
sg130
Nsg131
Nsg132
Nsbag2
(g3
g4
Ntp160
Rp161
(dp162
g8
g11
sg110
Nsg111
(dp163
sg113
Nsg26
g29
sg114
(lp164
I5
aI1
asg116
Nsg117
VPesikta Rabbati 5:1
p165
sg119
(lp166
sg121
g71
sg122
Nsg123
(lp167
I5
aI1
asg125
Nsg126
g165
sg127
(lp168
sg129
g54
sg130
Nsg131
Nsg132
Nsbag2
(g3
g4
Ntp169
Rp170
(dp171
g8
g11
sg110
Nsg111
(dp172
sg113
Nsg26
g29
sg114
(lp173
I6
aI1
asg116
Nsg117
VPesikta Rabbati 6:1
p174
sg119
(lp175
sg121
g71
sg122
Nsg123
(lp176
I6
aI1
asg125
Nsg126
g174
sg127
(lp177
sg129
g54
sg130
Nsg131
Nsg132
Nsbag2
(g3
g4
Ntp178
Rp179
(dp180
g8
g11
sg110
Nsg111
(dp181
sg113
Nsg26
g29
sg114
(lp182
I7
aI1
asg116
Nsg117
VPesikta Rabbati 7:1
p183
sg119
(lp184
sg121
g71
sg122
Nsg123
(lp185
I7
aI1
asg125
Nsg126
g183
sg127
(lp186
sg129
g54
sg130
Nsg131
Nsg132
Nsbag2
(g3
g4
Ntp187
Rp188
(dp189
g8
g11
sg110
Nsg111
(dp190
sg113
Nsg26
g29
sg114
(lp191
I8
aI1
asg116
Nsg117
VPesikta Rabbati 8:1
p192
sg119
(lp193
sg121
g71
sg122
Nsg123
(lp194
I8
aI1
asg125
Nsg126
g192
sg127
(lp195
sg129
g54
sg130
Nsg131
Nsg132
Nsbag2
(g3
g4
Ntp196
Rp197
(dp198
g8
g11
sg110
Nsg111
(dp199
sg113
Nsg26
g29
sg114
(lp200
I9
aI1
asg116
Nsg117
VPesikta Rabbati 9:1
p201
sg119
(lp202
sg121
g71
sg122
Nsg123
(lp203
I9
aI1
asg125
Nsg126
g201
sg127
(lp204
sg129
g54
sg130
Nsg131
Nsg132
Nsbag2
(g3
g4
Ntp205
Rp206
(dp207
g8
g11
sg110
Nsg111
(dp208
sg113
Nsg26
g29
sg114
(lp209
I10
aI1
asg116
Nsg117
VPesikta Rabbati 10:1
p210
sg119
(lp211
sg121
g71
sg122
Nsg123
(lp212
I10
aI1
asg125
Nsg126
g210
sg127
(lp213
sg129
g54
sg130
Nsg131
Nsg132
Nsbag2
(g3
g4
Ntp214
Rp215
(dp216
g8
g11
sg110
Nsg111
(dp217
sg113
Nsg26
g29
sg114
(lp218
I11
aI1
asg116
Nsg117
VPesikta Rabbati 11:1
p219
sg119
(lp220
sg121
g71
sg122
Nsg123
(lp221
I11
aI1
asg125
Nsg126
g219
sg127
(lp222
sg129
g54
sg130
Nsg131
Nsg132
Nsbag2
(g3
g4
Ntp223
Rp224
(dp225
g8
g11
sg110
Nsg111
(dp226
sg113
Nsg26
g29
sg114
(lp227
I12
aI1
asg116
Nsg117
VPesikta Rabbati 12:1
p228
sg119
(lp229
sg121
g71
sg122
Nsg123
(lp230
I12
aI1
asg125
Nsg126
g228
sg127
(lp231
sg129
g54
sg130
Nsg131
Nsg132
Nsbag2
(g3
g4
Ntp232
Rp233
(dp234
g8
g11
sg110
Nsg111
(dp235
sg113
Nsg26
g29
sg114
(lp236
I13
aI1
asg116
Nsg117
VPesikta Rabbati 13:1
p237
sg119
(lp238
sg121
g71
sg122
Nsg123
(lp239
I13
aI1
asg125
Nsg126
g237
sg127
(lp240
sg129
g54
sg130
Nsg131
Nsg132
Nsbag2
(g3
g4
Ntp241
Rp242
(dp243
g8
g11
sg110
Nsg111
(dp244
sg113
Nsg26
g29
sg114
(lp245
I14
aI1
asg116
Nsg117
VPesikta Rabbati 14:1
p246
sg119
(lp247
sg121
g71
sg122
Nsg123
(lp248
I14
aI1
asg125
Nsg126
g246
sg127
(lp249
sg129
g54
sg130
Nsg131
Nsg132
Nsbag2
(g3
g4
Ntp250
Rp251
(dp252
g8
g11
sg110
Nsg111
(dp253
sg113
Nsg26
g29
sg114
(lp254
I15
aI1
asg116
Nsg117
VPesikta Rabbati 15:1
p255
sg119
(lp256
sg121
g71
sg122
Nsg123
(lp257
I15
aI1
asg125
Nsg126
g255
sg127
(lp258
sg129
g54
sg130
Nsg131
Nsg132
Nsbag2
(g3
g4
Ntp259
Rp260
(dp261
g8
g11
sg110
Nsg111
(dp262
sg113
Nsg26
g29
sg114
(lp263
I16
aI1
asg116
Nsg117
VPesikta Rabbati 16:1
p264
sg119
(lp265
sg121
g71
sg122
Nsg123
(lp266
I16
aI1
asg125
Nsg126
g264
sg127
(lp267
sg129
g54
sg130
Nsg131
Nsg132
Nsbag2
(g3
g4
Ntp268
Rp269
(dp270
g8
g11
sg110
Nsg111
(dp271
sg113
Nsg26
g29
sg114
(lp272
I17
aI1
asg116
Nsg117
VPesikta Rabbati 17:1
p273
sg119
(lp274
sg121
g71
sg122
Nsg123
(lp275
I17
aI1
asg125
Nsg126
g273
sg127
(lp276
sg129
g54
sg130
Nsg131
Nsg132
Nsbag2
(g3
g4
Ntp277
Rp278
(dp279
g8
g11
sg110
Nsg111
(dp280
sg113
Nsg26
g29
sg114
(lp281
I18
aI1
asg116
Nsg117
VPesikta Rabbati 18:1
p282
sg119
(lp283
sg121
g71
sg122
Nsg123
(lp284
I18
aI1
asg125
Nsg126
g282
sg127
(lp285
sg129
g54
sg130
Nsg131
Nsg132
Nsbag2
(g3
g4
Ntp286
Rp287
(dp288
g8
g11
sg110
Nsg111
(dp289
sg113
Nsg26
g29
sg114
(lp290
I19
aI1
asg116
Nsg117
VPesikta Rabbati 19:1
p291
sg119
(lp292
sg121
g71
sg122
Nsg123
(lp293
I19
aI1
asg125
Nsg126
g291
sg127
(lp294
sg129
g54
sg130
Nsg131
Nsg132
Nsbag2
(g3
g4
Ntp295
Rp296
(dp297
g8
g11
sg110
Nsg111
(dp298
sg113
Nsg26
g29
sg114
(lp299
I20
aI1
asg116
Nsg117
VPesikta Rabbati 20:1
p300
sg119
(lp301
sg121
g71
sg122
Nsg123
(lp302
I20
aI1
asg125
Nsg126
g300
sg127
(lp303
sg129
g54
sg130
Nsg131
Nsg132
Nsbag2
(g3
g4
Ntp304
Rp305
(dp306
g8
g11
sg110
Nsg111
(dp307
sg113
Nsg26
g29
sg114
(lp308
I21
aI1
asg116
Nsg117
VPesikta Rabbati 21:1
p309
sg119
(lp310
sg121
g71
sg122
Nsg123
(lp311
I21
aI1
asg125
Nsg126
g309
sg127
(lp312
sg129
g54
sg130
Nsg131
Nsg132
Nsbag2
(g3
g4
Ntp313
Rp314
(dp315
g8
g11
sg110
Nsg111
(dp316
sg113
Nsg26
g29
sg114
(lp317
I22
aI1
asg116
Nsg117
VPesikta Rabbati 22:1
p318
sg119
(lp319
sg121
g71
sg122
Nsg123
(lp320
I22
aI1
asg125
Nsg126
g318
sg127
(lp321
sg129
g54
sg130
Nsg131
Nsg132
Nsbag2
(g3
g4
Ntp322
Rp323
(dp324
g8
g11
sg110
Nsg111
(dp325
sg113
Nsg26
g29
sg114
(lp326
I23
aI1
asg116
Nsg117
VPesikta Rabbati 23:1
p327
sg119
(lp328
sg121
g71
sg122
Nsg123
(lp329
I23
aI1
asg125
Nsg126
g327
sg127
(lp330
sg129
g54
sg130
Nsg131
Nsg132
Nsbag2
(g3
g4
Ntp331
Rp332
(dp333
g8
g11
sg110
Nsg111
(dp334
sg113
Nsg26
g29
sg114
(lp335
I24
aI1
asg116
Nsg117
VPesikta Rabbati 24:1
p336
sg119
(lp337
sg121
g71
sg122
Nsg123
(lp338
I24
aI1
asg125
Nsg126
g336
sg127
(lp339
sg129
g54
sg130
Nsg131
Nsg132
Nsbag2
(g3
g4
Ntp340
Rp341
(dp342
g8
g11
sg110
Nsg111
(dp343
sg113
Nsg26
g29
sg114
(lp344
I25
aI1
asg116
Nsg117
VPesikta Rabbati 25:1
p345
sg119
(lp346
sg121
g71
sg122
Nsg123
(lp347
I25
aI1
asg125
Nsg126
g345
sg127
(lp348
sg129
g54
sg130
Nsg131
Nsg132
Nsbag2
(g3
g4
Ntp349
Rp350
(dp351
g8
g11
sg110
Nsg111
(dp352
sg113
Nsg26
g29
sg114
(lp353
I26
aI1
asg116
Nsg117
VPesikta Rabbati 26:1
p354
sg119
(lp355
sg121
g71
sg122
Nsg123
(lp356
I26
aI1
asg125
Nsg126
g354
sg127
(lp357
sg129
g54
sg130
Nsg131
Nsg132
Nsbag2
(g3
g4
Ntp358
Rp359
(dp360
g8
g11
sg110
Nsg111
(dp361
sg113
Nsg26
g29
sg114
(lp362
I27
aI1
asg116
Nsg117
VPesikta Rabbati 27:1
p363
sg119
(lp364
sg121
g71
sg122
Nsg123
(lp365
I27
aI1
asg125
Nsg126
g363
sg127
(lp366
sg129
g54
sg130
Nsg131
Nsg132
Nsbag2
(g3
g4
Ntp367
Rp368
(dp369
g8
g11
sg110
Nsg111
(dp370
sg113
Nsg26
g29
sg114
(lp371
I28
aI1
asg116
Nsg117
VPesikta Rabbati 28:1
p372
sg119
(lp373
sg121
g71
sg122
Nsg123
(lp374
I28
aI1
asg125
Nsg126
g372
sg127
(lp375
sg129
g54
sg130
Nsg131
Nsg132
Nsbag2
(g3
g4
Ntp376
Rp377
(dp378
g8
g11
sg110
Nsg111
(dp379
sg113
Nsg26
g29
sg114
(lp380
I29
aI1
asg116
Nsg117
VPesikta Rabbati 29:1
p381
sg119
(lp382
sg121
g71
sg122
Nsg123
(lp383
I29
aI1
asg125
Nsg126
g381
sg127
(lp384
sg129
g54
sg130
Nsg131
Nsg132
Nsbag2
(g3
g4
Ntp385
Rp386
(dp387
g8
g11
sg110
Nsg111
(dp388
sg113
Nsg26
g29
sg114
(lp389
I30
aI1
asg116
Nsg117
VPesikta Rabbati 30:1
p390
sg119
(lp391
sg121
g71
sg122
Nsg123
(lp392
I30
aI1
asg125
Nsg126
g390
sg127
(lp393
sg129
g54
sg130
Nsg131
Nsg132
Nsbag2
(g3
g4
Ntp394
Rp395
(dp396
g8
g11
sg110
Nsg111
(dp397
sg113
Nsg26
g29
sg114
(lp398
I31
aI1
asg116
Nsg117
VPesikta Rabbati 31:1
p399
sg119
(lp400
sg121
g71
sg122
Nsg123
(lp401
I31
aI1
asg125
Nsg126
g399
sg127
(lp402
sg129
g54
sg130
Nsg131
Nsg132
Nsbag2
(g3
g4
Ntp403
Rp404
(dp405
g8
g11
sg110
Nsg111
(dp406
sg113
Nsg26
g29
sg114
(lp407
I32
aI1
asg116
Nsg117
VPesikta Rabbati 32:1
p408
sg119
(lp409
sg121
g71
sg122
Nsg123
(lp410
I32
aI1
asg125
Nsg126
g408
sg127
(lp411
sg129
g54
sg130
Nsg131
Nsg132
Nsbag2
(g3
g4
Ntp412
Rp413
(dp414
g8
g11
sg110
Nsg111
(dp415
sg113
Nsg26
g29
sg114
(lp416
I33
aI1
asg116
Nsg117
VPesikta Rabbati 33:1
p417
sg119
(lp418
sg121
g71
sg122
Nsg123
(lp419
I33
aI1
asg125
Nsg126
g417
sg127
(lp420
sg129
g54
sg130
Nsg131
Nsg132
Nsbag2
(g3
g4
Ntp421
Rp422
(dp423
g8
g11
sg110
Nsg111
(dp424
sg113
Nsg26
g29
sg114
(lp425
I34
aI1
asg116
Nsg117
VPesikta Rabbati 34:1
p426
sg119
(lp427
sg121
g71
sg122
Nsg123
(lp428
I34
aI1
asg125
Nsg126
g426
sg127
(lp429
sg129
g54
sg130
Nsg131
Nsg132
Nsbag2
(g3
g4
Ntp430
Rp431
(dp432
g8
g11
sg110
Nsg111
(dp433
sg113
Nsg26
g29
sg114
(lp434
I35
aI1
asg116
Nsg117
VPesikta Rabbati 35:1
p435
sg119
(lp436
sg121
g71
sg122
Nsg123
(lp437
I35
aI1
asg125
Nsg126
g435
sg127
(lp438
sg129
g54
sg130
Nsg131
Nsg132
Nsbag2
(g3
g4
Ntp439
Rp440
(dp441
g8
g11
sg110
Nsg111
(dp442
sg113
Nsg26
g29
sg114
(lp443
I36
aI1
asg116
Nsg117
VPesikta Rabbati 36:1
p444
sg119
(lp445
sg121
g71
sg122
Nsg123
(lp446
I36
aI1
asg125
Nsg126
g444
sg127
(lp447
sg129
g54
sg130
Nsg131
Nsg132
Nsbag2
(g3
g4
Ntp448
Rp449
(dp450
g8
g11
sg110
Nsg111
(dp451
sg113
Nsg26
g29
sg114
(lp452
I37
aI1
asg116
Nsg117
VPesikta Rabbati 37:1
p453
sg119
(lp454
sg121
g71
sg122
Nsg123
(lp455
I37
aI1
asg125
Nsg126
g453
sg127
(lp456
sg129
g54
sg130
Nsg131
Nsg132
Nsbag2
(g3
g4
Ntp457
Rp458
(dp459
g8
g11
sg110
Nsg111
(dp460
sg113
Nsg26
g29
sg114
(lp461
I38
aI1
asg116
Nsg117
VPesikta Rabbati 38:1
p462
sg119
(lp463
sg121
g71
sg122
Nsg123
(lp464
I38
aI1
asg125
Nsg126
g462
sg127
(lp465
sg129
g54
sg130
Nsg131
Nsg132
Nsbag2
(g3
g4
Ntp466
Rp467
(dp468
g8
g11
sg110
Nsg111
(dp469
sg113
Nsg26
g29
sg114
(lp470
I39
aI1
asg116
Nsg117
VPesikta Rabbati 39:1
p471
sg119
(lp472
sg121
g71
sg122
Nsg123
(lp473
I39
aI1
asg125
Nsg126
g471
sg127
(lp474
sg129
g54
sg130
Nsg131
Nsg132
Nsbag2
(g3
g4
Ntp475
Rp476
(dp477
g8
g11
sg110
Nsg111
(dp478
sg113
Nsg26
g29
sg114
(lp479
I40
aI1
asg116
Nsg117
VPesikta Rabbati 40:1
p480
sg119
(lp481
sg121
g71
sg122
Nsg123
(lp482
I40
aI1
asg125
Nsg126
g480
sg127
(lp483
sg129
g54
sg130
Nsg131
Nsg132
Nsbag2
(g3
g4
Ntp484
Rp485
(dp486
g8
g11
sg110
Nsg111
(dp487
sg113
Nsg26
g29
sg114
(lp488
I41
aI1
asg116
Nsg117
VPesikta Rabbati 41:1
p489
sg119
(lp490
sg121
g71
sg122
Nsg123
(lp491
I41
aI1
asg125
Nsg126
g489
sg127
(lp492
sg129
g54
sg130
Nsg131
Nsg132
Nsbag2
(g3
g4
Ntp493
Rp494
(dp495
g8
g11
sg110
Nsg111
(dp496
sg113
Nsg26
g29
sg114
(lp497
I42
aI1
asg116
Nsg117
VPesikta Rabbati 42:1
p498
sg119
(lp499
sg121
g71
sg122
Nsg123
(lp500
I42
aI1
asg125
Nsg126
g498
sg127
(lp501
sg129
g54
sg130
Nsg131
Nsg132
Nsbag2
(g3
g4
Ntp502
Rp503
(dp504
g8
g11
sg110
Nsg111
(dp505
sg113
Nsg26
g29
sg114
(lp506
I43
aI1
asg116
Nsg117
VPesikta Rabbati 43:1
p507
sg119
(lp508
sg121
g71
sg122
Nsg123
(lp509
I43
aI1
asg125
Nsg126
g507
sg127
(lp510
sg129
g54
sg130
Nsg131
Nsg132
Nsbag2
(g3
g4
Ntp511
Rp512
(dp513
g8
g11
sg110
Nsg111
(dp514
sg113
Nsg26
g29
sg114
(lp515
I44
aI1
asg116
Nsg117
VPesikta Rabbati 44:1
p516
sg119
(lp517
sg121
g71
sg122
Nsg123
(lp518
I44
aI1
asg125
Nsg126
g516
sg127
(lp519
sg129
g54
sg130
Nsg131
Nsg132
Nsbag2
(g3
g4
Ntp520
Rp521
(dp522
g8
g11
sg110
Nsg111
(dp523
sg113
Nsg26
g29
sg114
(lp524
I45
aI1
asg116
Nsg117
VPesikta Rabbati 45:1
p525
sg119
(lp526
sg121
g71
sg122
Nsg123
(lp527
I45
aI1
asg125
Nsg126
g525
sg127
(lp528
sg129
g54
sg130
Nsg131
Nsg132
Nsbag2
(g3
g4
Ntp529
Rp530
(dp531
g8
g11
sg110
Nsg111
(dp532
sg113
Nsg26
g29
sg114
(lp533
I46
aI1
asg116
Nsg117
VPesikta Rabbati 46:1
p534
sg119
(lp535
sg121
g71
sg122
Nsg123
(lp536
I46
aI1
asg125
Nsg126
g534
sg127
(lp537
sg129
g54
sg130
Nsg131
Nsg132
Nsbag2
(g3
g4
Ntp538
Rp539
(dp540
g8
g11
sg110
Nsg111
(dp541
sg113
Nsg26
g29
sg114
(lp542
I47
aI1
asg116
Nsg117
VPesikta Rabbati 47:1
p543
sg119
(lp544
sg121
g71
sg122
Nsg123
(lp545
I47
aI1
asg125
Nsg126
g543
sg127
(lp546
sg129
g54
sg130
Nsg131
Nsg132
Nsbatp547
.