((lp0
I0
aI319
aI649
aI1214
aI1454
aI1575
aI1967
aI2151
aI2309
aI3084
aI4086
aI4741
aI4850
aI4907
aI4981
aI5115
aI5945
aI6830
aI7332
aI7861
aI8183
aI8337
aI8757
aI9431
aI10396
aI10880
aI11043
aI11772
aI12301
aI12891
aI13279
aI13488
aI14063
aI14620
aI15403
aI15883
aI16225
aI16802
aI18007
aI18922
aI19762
aI20585
aI21967
aI22838
aI23585
aI25158
aI25745
aI27458
aI28276
aI28959
aI30027
aI30922
aI31754
aI32483
aI33385
aI33620
aI33794
aI34025
aI34283
aI34929
aI36298
aI37133
aI38939
aI39726
aI40498
aI41082
a(lp1
ccopy_reg
_reconstructor
p2
(csefaria.model.text
Ref
p3
c__builtin__
object
p4
Ntp5
Rp6
(dp7
S'index_node'
p8
g2
(csefaria.model.schema
JaggedArrayNode
p9
g4
Ntp10
Rp11
(dp12
S'_address'
p13
(lp14
VPirkei DeRabbi Eliezer
p15
asS'_full_titles'
p16
(dp17
sVnodeType
p18
VJaggedArrayNode
p19
sS'parent'
p20
NsVaddressTypes
p21
(lp22
VInteger
p23
aVInteger
p24
asS'default'
p25
I00
sS'index'
p26
g2
(csefaria.model.text
Index
p27
g4
Ntp28
Rp29
(dp30
S'struct_objs'
p31
(dp32
sS'_id'
p33
g2
(cbson.objectid
ObjectId
p34
g4
Ntp35
Rp36
S'Tjv\xe1\xfb\xfb\xa2\x01\x86Q\x18I'
p37
bsS'pkeys_orig_values'
p38
(dp39
S'title'
p40
VPirkei DeRabbi Eliezer
p41
ssS'pubDate'
p42
V1514
p43
sS'compDate'
p44
V830
p45
sS'pubPlace'
p46
VIstanbul
p47
sS'compPlace'
p48
VTalmudic Israel/Babylon
p49
sS'enDesc'
p50
VPirke de-Rabbi Eliezer (Chapters of Rabbi Eliezer) is an aggadic-midrashic work on the Torah containing exegesis and retellings of biblical stories. The composition enjoyed widespread circulation and recognition throughout Jewish history, and continues to do so in the present. Traditionally, it has been understood to be a tannaitic composition which originated with the tanna Rabbi Eliezer ben Hyrcanus, - a disciple of Rabbi Yohanan ben Zakai and teacher of Rabbi Akiva - and his disciples. However, modern scholarship has shown the book in fact a a medieval work from the 8th Century. The work is divided into 54 chapters, which may be divided into seven groups. Pirke De-Rabbi Eliezer comprises exegesis, legends and folklore, as well as astronomical discussions related to the story of the Creation. The author dwells longest on the description of the second day of Creation, in which the Ma'aseh ha-Merkavah (Ezek. i.) is described in various forms.
p51
sS'era'
p52
VGN
p53
sS'authors'
p54
(lp55
sS'nodes'
p56
g11
sS'errorMargin'
p57
V200
p58
sS'_title'
p59
g41
sS'categories'
p60
(lp61
VMidrash
p62
aVAggadic Midrash
p63
asS'schema'
p64
(dp65
g18
g19
sg21
g22
sVdepth
p66
I2
sVtitles
p67
(lp68
(dp69
Vlang
p70
Ven
p71
sVtext
p72
VBaraita de-Rabbi Eliezer
p73
sa(dp74
Vlang
p75
Ven
p76
sVtext
p77
VPirkei Derabbi Eliezer
p78
sa(dp79
Vlang
p80
Ven
p81
sVtext
p82
VPirkei D'Rabbi Eliezer
p83
sa(dp84
Vlang
p85
Ven
p86
sVtext
p87
VPirke de-Rabbi Eliezer
p88
sa(dp89
Vlang
p90
Ven
p91
sVtext
p92
VPirke Rabbi Eliezer ben Hyrcanus
p93
sa(dp94
Vlang
p95
Ven
p96
sVtext
p97
VHaggadah de-Rabbi Eliezer ben Hyrcanus
p98
sa(dp99
Vlang
p100
Ven
p101
sVtext
p102
VPirke Rabbi Eliezer ha-Gadol
p103
sa(dp104
Vlang
p105
Ven
p106
sVtext
p107
VPirkei Derabi Eliezer
p108
sa(dp109
Vlang
p110
Vhe
p111
sVtext
p112
V\u05e4\u05e8\u05e7\u05d9 \u05d3\u05e8\u05d1\u05d9 \u05d0\u05dc\u05d9\u05e2\u05d6\u05e8
p113
sVprimary
p114
I01
sa(dp115
Vlang
p116
Ven
p117
sVtext
p118
VPirkei DeRabbi Eliezer
p119
sVprimary
p120
I01
sasVkey
p121
g15
sVsectionNames
p122
(lp123
VPerek
p124
aVParagraph
p125
assbsS'_primary_title'
p126
(dp127
sS'title_group'
p128
g2
(csefaria.model.schema
TitleGroup
p129
g4
Ntp130
Rp131
(dp132
g126
(dp133
S'en'
p134
g119
ssS'titles'
p135
g68
sbsS'_addressTypes'
p136
(lp137
g2
(csefaria.model.schema
AddressInteger
p138
g4
Ntp139
Rp140
(dp141
S'length'
p142
NsS'order'
p143
I0
sbag2
(g138
g4
Ntp144
Rp145
(dp146
g142
Nsg143
I1
sbasS'sharedTitle'
p147
Nsg66
I2
sS'_full_title'
p148
(dp149
g134
g119
ssS'key'
p150
g15
sS'checkFirst'
p151
NsS'_regexes'
p152
(dp153
sS'_leaf_nodes'
p154
(lp155
sg122
g123
sS'children'
p156
(lp157
sbsS'_range_index'
p158
NsS'_context'
p159
(dp160
sS'_padded'
p161
Nsg26
g29
sS'sections'
p162
(lp163
I1
aI1
asS'_first_spanned_ref'
p164
NsS'tref'
p165
VPirkei DeRabbi Eliezer 1:1
p166
sS'_spanned_refs'
p167
(lp168
sS'book'
p169
g119
sS'_range_depth'
p170
NsS'toSections'
p171
(lp172
I1
aI1
asS'_url'
p173
NsS'_normal'
p174
g166
sS'_ranged_refs'
p175
(lp176
sS'type'
p177
g62
sS'_prev'
p178
NsS'_he_normal'
p179
NsS'_next'
p180
Nsbag2
(g3
g4
Ntp181
Rp182
(dp183
g8
g11
sg158
Nsg159
(dp184
sg161
Nsg26
g29
sg162
(lp185
I2
aI1
asg164
Nsg165
VPirkei DeRabbi Eliezer 2:1
p186
sg167
(lp187
sg169
g119
sg170
Nsg171
(lp188
I2
aI1
asg173
Nsg174
g186
sg175
(lp189
sg177
g62
sg178
Nsg179
Nsg180
Nsbag2
(g3
g4
Ntp190
Rp191
(dp192
g8
g11
sg158
Nsg159
(dp193
sg161
Nsg26
g29
sg162
(lp194
I3
aI1
asg164
Nsg165
VPirkei DeRabbi Eliezer 3:1
p195
sg167
(lp196
sg169
g119
sg170
Nsg171
(lp197
I3
aI1
asg173
Nsg174
g195
sg175
(lp198
sg177
g62
sg178
Nsg179
Nsg180
Nsbag2
(g3
g4
Ntp199
Rp200
(dp201
g8
g11
sg158
Nsg159
(dp202
sg161
Nsg26
g29
sg162
(lp203
I3
aI2
asg164
Nsg165
VPirkei DeRabbi Eliezer 3:2
p204
sg167
(lp205
sg169
g119
sg170
Nsg171
(lp206
I3
aI2
asg173
Nsg174
g204
sg175
(lp207
sg177
g62
sg178
Nsg179
Nsg180
Nsbag2
(g3
g4
Ntp208
Rp209
(dp210
g8
g11
sg158
Nsg159
(dp211
sg161
Nsg26
g29
sg162
(lp212
I4
aI1
asg164
Nsg165
VPirkei DeRabbi Eliezer 4:1
p213
sg167
(lp214
sg169
g119
sg170
Nsg171
(lp215
I4
aI1
asg173
Nsg174
g213
sg175
(lp216
sg177
g62
sg178
Nsg179
Nsg180
Nsbag2
(g3
g4
Ntp217
Rp218
(dp219
g8
g11
sg158
Nsg159
(dp220
sg161
Nsg26
g29
sg162
(lp221
I4
aI2
asg164
Nsg165
VPirkei DeRabbi Eliezer 4:2
p222
sg167
(lp223
sg169
g119
sg170
Nsg171
(lp224
I4
aI2
asg173
Nsg174
g222
sg175
(lp225
sg177
g62
sg178
Nsg179
Nsg180
Nsbag2
(g3
g4
Ntp226
Rp227
(dp228
g8
g11
sg158
Nsg159
(dp229
sg161
Nsg26
g29
sg162
(lp230
I5
aI1
asg164
Nsg165
VPirkei DeRabbi Eliezer 5:1
p231
sg167
(lp232
sg169
g119
sg170
Nsg171
(lp233
I5
aI1
asg173
Nsg174
g231
sg175
(lp234
sg177
g62
sg178
Nsg179
Nsg180
Nsbag2
(g3
g4
Ntp235
Rp236
(dp237
g8
g11
sg158
Nsg159
(dp238
sg161
Nsg26
g29
sg162
(lp239
I5
aI2
asg164
Nsg165
VPirkei DeRabbi Eliezer 5:2
p240
sg167
(lp241
sg169
g119
sg170
Nsg171
(lp242
I5
aI2
asg173
Nsg174
g240
sg175
(lp243
sg177
g62
sg178
Nsg179
Nsg180
Nsbag2
(g3
g4
Ntp244
Rp245
(dp246
g8
g11
sg158
Nsg159
(dp247
sg161
Nsg26
g29
sg162
(lp248
I6
aI1
asg164
Nsg165
VPirkei DeRabbi Eliezer 6:1
p249
sg167
(lp250
sg169
g119
sg170
Nsg171
(lp251
I6
aI1
asg173
Nsg174
g249
sg175
(lp252
sg177
g62
sg178
Nsg179
Nsg180
Nsbag2
(g3
g4
Ntp253
Rp254
(dp255
g8
g11
sg158
Nsg159
(dp256
sg161
Nsg26
g29
sg162
(lp257
I7
aI1
asg164
Nsg165
VPirkei DeRabbi Eliezer 7:1
p258
sg167
(lp259
sg169
g119
sg170
Nsg171
(lp260
I7
aI1
asg173
Nsg174
g258
sg175
(lp261
sg177
g62
sg178
Nsg179
Nsg180
Nsbag2
(g3
g4
Ntp262
Rp263
(dp264
g8
g11
sg158
Nsg159
(dp265
sg161
Nsg26
g29
sg162
(lp266
I8
aI1
asg164
Nsg165
VPirkei DeRabbi Eliezer 8:1
p267
sg167
(lp268
sg169
g119
sg170
Nsg171
(lp269
I8
aI1
asg173
Nsg174
g267
sg175
(lp270
sg177
g62
sg178
Nsg179
Nsg180
Nsbag2
(g3
g4
Ntp271
Rp272
(dp273
g8
g11
sg158
Nsg159
(dp274
sg161
Nsg26
g29
sg162
(lp275
I9
aI1
asg164
Nsg165
VPirkei DeRabbi Eliezer 9:1
p276
sg167
(lp277
sg169
g119
sg170
Nsg171
(lp278
I9
aI1
asg173
Nsg174
g276
sg175
(lp279
sg177
g62
sg178
Nsg179
Nsg180
Nsbag2
(g3
g4
Ntp280
Rp281
(dp282
g8
g11
sg158
Nsg159
(dp283
sg161
Nsg26
g29
sg162
(lp284
I9
aI2
asg164
Nsg165
VPirkei DeRabbi Eliezer 9:2
p285
sg167
(lp286
sg169
g119
sg170
Nsg171
(lp287
I9
aI2
asg173
Nsg174
g285
sg175
(lp288
sg177
g62
sg178
Nsg179
Nsg180
Nsbag2
(g3
g4
Ntp289
Rp290
(dp291
g8
g11
sg158
Nsg159
(dp292
sg161
Nsg26
g29
sg162
(lp293
I9
aI3
asg164
Nsg165
VPirkei DeRabbi Eliezer 9:3
p294
sg167
(lp295
sg169
g119
sg170
Nsg171
(lp296
I9
aI3
asg173
Nsg174
g294
sg175
(lp297
sg177
g62
sg178
Nsg179
Nsg180
Nsbag2
(g3
g4
Ntp298
Rp299
(dp300
g8
g11
sg158
Nsg159
(dp301
sg161
Nsg26
g29
sg162
(lp302
I9
aI4
asg164
Nsg165
VPirkei DeRabbi Eliezer 9:4
p303
sg167
(lp304
sg169
g119
sg170
Nsg171
(lp305
I9
aI4
asg173
Nsg174
g303
sg175
(lp306
sg177
g62
sg178
Nsg179
Nsg180
Nsbag2
(g3
g4
Ntp307
Rp308
(dp309
g8
g11
sg158
Nsg159
(dp310
sg161
Nsg26
g29
sg162
(lp311
I10
aI1
asg164
Nsg165
VPirkei DeRabbi Eliezer 10:1
p312
sg167
(lp313
sg169
g119
sg170
Nsg171
(lp314
I10
aI1
asg173
Nsg174
g312
sg175
(lp315
sg177
g62
sg178
Nsg179
Nsg180
Nsbag2
(g3
g4
Ntp316
Rp317
(dp318
g8
g11
sg158
Nsg159
(dp319
sg161
Nsg26
g29
sg162
(lp320
I11
aI1
asg164
Nsg165
VPirkei DeRabbi Eliezer 11:1
p321
sg167
(lp322
sg169
g119
sg170
Nsg171
(lp323
I11
aI1
asg173
Nsg174
g321
sg175
(lp324
sg177
g62
sg178
Nsg179
Nsg180
Nsbag2
(g3
g4
Ntp325
Rp326
(dp327
g8
g11
sg158
Nsg159
(dp328
sg161
Nsg26
g29
sg162
(lp329
I12
aI1
asg164
Nsg165
VPirkei DeRabbi Eliezer 12:1
p330
sg167
(lp331
sg169
g119
sg170
Nsg171
(lp332
I12
aI1
asg173
Nsg174
g330
sg175
(lp333
sg177
g62
sg178
Nsg179
Nsg180
Nsbag2
(g3
g4
Ntp334
Rp335
(dp336
g8
g11
sg158
Nsg159
(dp337
sg161
Nsg26
g29
sg162
(lp338
I13
aI1
asg164
Nsg165
VPirkei DeRabbi Eliezer 13:1
p339
sg167
(lp340
sg169
g119
sg170
Nsg171
(lp341
I13
aI1
asg173
Nsg174
g339
sg175
(lp342
sg177
g62
sg178
Nsg179
Nsg180
Nsbag2
(g3
g4
Ntp343
Rp344
(dp345
g8
g11
sg158
Nsg159
(dp346
sg161
Nsg26
g29
sg162
(lp347
I14
aI1
asg164
Nsg165
VPirkei DeRabbi Eliezer 14:1
p348
sg167
(lp349
sg169
g119
sg170
Nsg171
(lp350
I14
aI1
asg173
Nsg174
g348
sg175
(lp351
sg177
g62
sg178
Nsg179
Nsg180
Nsbag2
(g3
g4
Ntp352
Rp353
(dp354
g8
g11
sg158
Nsg159
(dp355
sg161
Nsg26
g29
sg162
(lp356
I14
aI2
asg164
Nsg165
VPirkei DeRabbi Eliezer 14:2
p357
sg167
(lp358
sg169
g119
sg170
Nsg171
(lp359
I14
aI2
asg173
Nsg174
g357
sg175
(lp360
sg177
g62
sg178
Nsg179
Nsg180
Nsbag2
(g3
g4
Ntp361
Rp362
(dp363
g8
g11
sg158
Nsg159
(dp364
sg161
Nsg26
g29
sg162
(lp365
I15
aI1
asg164
Nsg165
VPirkei DeRabbi Eliezer 15:1
p366
sg167
(lp367
sg169
g119
sg170
Nsg171
(lp368
I15
aI1
asg173
Nsg174
g366
sg175
(lp369
sg177
g62
sg178
Nsg179
Nsg180
Nsbag2
(g3
g4
Ntp370
Rp371
(dp372
g8
g11
sg158
Nsg159
(dp373
sg161
Nsg26
g29
sg162
(lp374
I16
aI1
asg164
Nsg165
VPirkei DeRabbi Eliezer 16:1
p375
sg167
(lp376
sg169
g119
sg170
Nsg171
(lp377
I16
aI1
asg173
Nsg174
g375
sg175
(lp378
sg177
g62
sg178
Nsg179
Nsg180
Nsbag2
(g3
g4
Ntp379
Rp380
(dp381
g8
g11
sg158
Nsg159
(dp382
sg161
Nsg26
g29
sg162
(lp383
I17
aI1
asg164
Nsg165
VPirkei DeRabbi Eliezer 17:1
p384
sg167
(lp385
sg169
g119
sg170
Nsg171
(lp386
I17
aI1
asg173
Nsg174
g384
sg175
(lp387
sg177
g62
sg178
Nsg179
Nsg180
Nsbag2
(g3
g4
Ntp388
Rp389
(dp390
g8
g11
sg158
Nsg159
(dp391
sg161
Nsg26
g29
sg162
(lp392
I18
aI1
asg164
Nsg165
VPirkei DeRabbi Eliezer 18:1
p393
sg167
(lp394
sg169
g119
sg170
Nsg171
(lp395
I18
aI1
asg173
Nsg174
g393
sg175
(lp396
sg177
g62
sg178
Nsg179
Nsg180
Nsbag2
(g3
g4
Ntp397
Rp398
(dp399
g8
g11
sg158
Nsg159
(dp400
sg161
Nsg26
g29
sg162
(lp401
I18
aI2
asg164
Nsg165
VPirkei DeRabbi Eliezer 18:2
p402
sg167
(lp403
sg169
g119
sg170
Nsg171
(lp404
I18
aI2
asg173
Nsg174
g402
sg175
(lp405
sg177
g62
sg178
Nsg179
Nsg180
Nsbag2
(g3
g4
Ntp406
Rp407
(dp408
g8
g11
sg158
Nsg159
(dp409
sg161
Nsg26
g29
sg162
(lp410
I19
aI1
asg164
Nsg165
VPirkei DeRabbi Eliezer 19:1
p411
sg167
(lp412
sg169
g119
sg170
Nsg171
(lp413
I19
aI1
asg173
Nsg174
g411
sg175
(lp414
sg177
g62
sg178
Nsg179
Nsg180
Nsbag2
(g3
g4
Ntp415
Rp416
(dp417
g8
g11
sg158
Nsg159
(dp418
sg161
Nsg26
g29
sg162
(lp419
I20
aI1
asg164
Nsg165
VPirkei DeRabbi Eliezer 20:1
p420
sg167
(lp421
sg169
g119
sg170
Nsg171
(lp422
I20
aI1
asg173
Nsg174
g420
sg175
(lp423
sg177
g62
sg178
Nsg179
Nsg180
Nsbag2
(g3
g4
Ntp424
Rp425
(dp426
g8
g11
sg158
Nsg159
(dp427
sg161
Nsg26
g29
sg162
(lp428
I21
aI1
asg164
Nsg165
VPirkei DeRabbi Eliezer 21:1
p429
sg167
(lp430
sg169
g119
sg170
Nsg171
(lp431
I21
aI1
asg173
Nsg174
g429
sg175
(lp432
sg177
g62
sg178
Nsg179
Nsg180
Nsbag2
(g3
g4
Ntp433
Rp434
(dp435
g8
g11
sg158
Nsg159
(dp436
sg161
Nsg26
g29
sg162
(lp437
I22
aI1
asg164
Nsg165
VPirkei DeRabbi Eliezer 22:1
p438
sg167
(lp439
sg169
g119
sg170
Nsg171
(lp440
I22
aI1
asg173
Nsg174
g438
sg175
(lp441
sg177
g62
sg178
Nsg179
Nsg180
Nsbag2
(g3
g4
Ntp442
Rp443
(dp444
g8
g11
sg158
Nsg159
(dp445
sg161
Nsg26
g29
sg162
(lp446
I23
aI1
asg164
Nsg165
VPirkei DeRabbi Eliezer 23:1
p447
sg167
(lp448
sg169
g119
sg170
Nsg171
(lp449
I23
aI1
asg173
Nsg174
g447
sg175
(lp450
sg177
g62
sg178
Nsg179
Nsg180
Nsbag2
(g3
g4
Ntp451
Rp452
(dp453
g8
g11
sg158
Nsg159
(dp454
sg161
Nsg26
g29
sg162
(lp455
I23
aI2
asg164
Nsg165
VPirkei DeRabbi Eliezer 23:2
p456
sg167
(lp457
sg169
g119
sg170
Nsg171
(lp458
I23
aI2
asg173
Nsg174
g456
sg175
(lp459
sg177
g62
sg178
Nsg179
Nsg180
Nsbag2
(g3
g4
Ntp460
Rp461
(dp462
g8
g11
sg158
Nsg159
(dp463
sg161
Nsg26
g29
sg162
(lp464
I24
aI1
asg164
Nsg165
VPirkei DeRabbi Eliezer 24:1
p465
sg167
(lp466
sg169
g119
sg170
Nsg171
(lp467
I24
aI1
asg173
Nsg174
g465
sg175
(lp468
sg177
g62
sg178
Nsg179
Nsg180
Nsbag2
(g3
g4
Ntp469
Rp470
(dp471
g8
g11
sg158
Nsg159
(dp472
sg161
Nsg26
g29
sg162
(lp473
I25
aI1
asg164
Nsg165
VPirkei DeRabbi Eliezer 25:1
p474
sg167
(lp475
sg169
g119
sg170
Nsg171
(lp476
I25
aI1
asg173
Nsg174
g474
sg175
(lp477
sg177
g62
sg178
Nsg179
Nsg180
Nsbag2
(g3
g4
Ntp478
Rp479
(dp480
g8
g11
sg158
Nsg159
(dp481
sg161
Nsg26
g29
sg162
(lp482
I26
aI1
asg164
Nsg165
VPirkei DeRabbi Eliezer 26:1
p483
sg167
(lp484
sg169
g119
sg170
Nsg171
(lp485
I26
aI1
asg173
Nsg174
g483
sg175
(lp486
sg177
g62
sg178
Nsg179
Nsg180
Nsbag2
(g3
g4
Ntp487
Rp488
(dp489
g8
g11
sg158
Nsg159
(dp490
sg161
Nsg26
g29
sg162
(lp491
I27
aI1
asg164
Nsg165
VPirkei DeRabbi Eliezer 27:1
p492
sg167
(lp493
sg169
g119
sg170
Nsg171
(lp494
I27
aI1
asg173
Nsg174
g492
sg175
(lp495
sg177
g62
sg178
Nsg179
Nsg180
Nsbag2
(g3
g4
Ntp496
Rp497
(dp498
g8
g11
sg158
Nsg159
(dp499
sg161
Nsg26
g29
sg162
(lp500
I28
aI1
asg164
Nsg165
VPirkei DeRabbi Eliezer 28:1
p501
sg167
(lp502
sg169
g119
sg170
Nsg171
(lp503
I28
aI1
asg173
Nsg174
g501
sg175
(lp504
sg177
g62
sg178
Nsg179
Nsg180
Nsbag2
(g3
g4
Ntp505
Rp506
(dp507
g8
g11
sg158
Nsg159
(dp508
sg161
Nsg26
g29
sg162
(lp509
I29
aI1
asg164
Nsg165
VPirkei DeRabbi Eliezer 29:1
p510
sg167
(lp511
sg169
g119
sg170
Nsg171
(lp512
I29
aI1
asg173
Nsg174
g510
sg175
(lp513
sg177
g62
sg178
Nsg179
Nsg180
Nsbag2
(g3
g4
Ntp514
Rp515
(dp516
g8
g11
sg158
Nsg159
(dp517
sg161
Nsg26
g29
sg162
(lp518
I30
aI1
asg164
Nsg165
VPirkei DeRabbi Eliezer 30:1
p519
sg167
(lp520
sg169
g119
sg170
Nsg171
(lp521
I30
aI1
asg173
Nsg174
g519
sg175
(lp522
sg177
g62
sg178
Nsg179
Nsg180
Nsbag2
(g3
g4
Ntp523
Rp524
(dp525
g8
g11
sg158
Nsg159
(dp526
sg161
Nsg26
g29
sg162
(lp527
I31
aI1
asg164
Nsg165
VPirkei DeRabbi Eliezer 31:1
p528
sg167
(lp529
sg169
g119
sg170
Nsg171
(lp530
I31
aI1
asg173
Nsg174
g528
sg175
(lp531
sg177
g62
sg178
Nsg179
Nsg180
Nsbag2
(g3
g4
Ntp532
Rp533
(dp534
g8
g11
sg158
Nsg159
(dp535
sg161
Nsg26
g29
sg162
(lp536
I32
aI1
asg164
Nsg165
VPirkei DeRabbi Eliezer 32:1
p537
sg167
(lp538
sg169
g119
sg170
Nsg171
(lp539
I32
aI1
asg173
Nsg174
g537
sg175
(lp540
sg177
g62
sg178
Nsg179
Nsg180
Nsbag2
(g3
g4
Ntp541
Rp542
(dp543
g8
g11
sg158
Nsg159
(dp544
sg161
Nsg26
g29
sg162
(lp545
I33
aI1
asg164
Nsg165
VPirkei DeRabbi Eliezer 33:1
p546
sg167
(lp547
sg169
g119
sg170
Nsg171
(lp548
I33
aI1
asg173
Nsg174
g546
sg175
(lp549
sg177
g62
sg178
Nsg179
Nsg180
Nsbag2
(g3
g4
Ntp550
Rp551
(dp552
g8
g11
sg158
Nsg159
(dp553
sg161
Nsg26
g29
sg162
(lp554
I34
aI1
asg164
Nsg165
VPirkei DeRabbi Eliezer 34:1
p555
sg167
(lp556
sg169
g119
sg170
Nsg171
(lp557
I34
aI1
asg173
Nsg174
g555
sg175
(lp558
sg177
g62
sg178
Nsg179
Nsg180
Nsbag2
(g3
g4
Ntp559
Rp560
(dp561
g8
g11
sg158
Nsg159
(dp562
sg161
Nsg26
g29
sg162
(lp563
I35
aI1
asg164
Nsg165
VPirkei DeRabbi Eliezer 35:1
p564
sg167
(lp565
sg169
g119
sg170
Nsg171
(lp566
I35
aI1
asg173
Nsg174
g564
sg175
(lp567
sg177
g62
sg178
Nsg179
Nsg180
Nsbag2
(g3
g4
Ntp568
Rp569
(dp570
g8
g11
sg158
Nsg159
(dp571
sg161
Nsg26
g29
sg162
(lp572
I36
aI1
asg164
Nsg165
VPirkei DeRabbi Eliezer 36:1
p573
sg167
(lp574
sg169
g119
sg170
Nsg171
(lp575
I36
aI1
asg173
Nsg174
g573
sg175
(lp576
sg177
g62
sg178
Nsg179
Nsg180
Nsbag2
(g3
g4
Ntp577
Rp578
(dp579
g8
g11
sg158
Nsg159
(dp580
sg161
Nsg26
g29
sg162
(lp581
I37
aI1
asg164
Nsg165
VPirkei DeRabbi Eliezer 37:1
p582
sg167
(lp583
sg169
g119
sg170
Nsg171
(lp584
I37
aI1
asg173
Nsg174
g582
sg175
(lp585
sg177
g62
sg178
Nsg179
Nsg180
Nsbag2
(g3
g4
Ntp586
Rp587
(dp588
g8
g11
sg158
Nsg159
(dp589
sg161
Nsg26
g29
sg162
(lp590
I38
aI1
asg164
Nsg165
VPirkei DeRabbi Eliezer 38:1
p591
sg167
(lp592
sg169
g119
sg170
Nsg171
(lp593
I38
aI1
asg173
Nsg174
g591
sg175
(lp594
sg177
g62
sg178
Nsg179
Nsg180
Nsbag2
(g3
g4
Ntp595
Rp596
(dp597
g8
g11
sg158
Nsg159
(dp598
sg161
Nsg26
g29
sg162
(lp599
I39
aI1
asg164
Nsg165
VPirkei DeRabbi Eliezer 39:1
p600
sg167
(lp601
sg169
g119
sg170
Nsg171
(lp602
I39
aI1
asg173
Nsg174
g600
sg175
(lp603
sg177
g62
sg178
Nsg179
Nsg180
Nsbag2
(g3
g4
Ntp604
Rp605
(dp606
g8
g11
sg158
Nsg159
(dp607
sg161
Nsg26
g29
sg162
(lp608
I40
aI1
asg164
Nsg165
VPirkei DeRabbi Eliezer 40:1
p609
sg167
(lp610
sg169
g119
sg170
Nsg171
(lp611
I40
aI1
asg173
Nsg174
g609
sg175
(lp612
sg177
g62
sg178
Nsg179
Nsg180
Nsbag2
(g3
g4
Ntp613
Rp614
(dp615
g8
g11
sg158
Nsg159
(dp616
sg161
Nsg26
g29
sg162
(lp617
I41
aI1
asg164
Nsg165
VPirkei DeRabbi Eliezer 41:1
p618
sg167
(lp619
sg169
g119
sg170
Nsg171
(lp620
I41
aI1
asg173
Nsg174
g618
sg175
(lp621
sg177
g62
sg178
Nsg179
Nsg180
Nsbag2
(g3
g4
Ntp622
Rp623
(dp624
g8
g11
sg158
Nsg159
(dp625
sg161
Nsg26
g29
sg162
(lp626
I42
aI1
asg164
Nsg165
VPirkei DeRabbi Eliezer 42:1
p627
sg167
(lp628
sg169
g119
sg170
Nsg171
(lp629
I42
aI1
asg173
Nsg174
g627
sg175
(lp630
sg177
g62
sg178
Nsg179
Nsg180
Nsbag2
(g3
g4
Ntp631
Rp632
(dp633
g8
g11
sg158
Nsg159
(dp634
sg161
Nsg26
g29
sg162
(lp635
I43
aI1
asg164
Nsg165
VPirkei DeRabbi Eliezer 43:1
p636
sg167
(lp637
sg169
g119
sg170
Nsg171
(lp638
I43
aI1
asg173
Nsg174
g636
sg175
(lp639
sg177
g62
sg178
Nsg179
Nsg180
Nsbag2
(g3
g4
Ntp640
Rp641
(dp642
g8
g11
sg158
Nsg159
(dp643
sg161
Nsg26
g29
sg162
(lp644
I44
aI1
asg164
Nsg165
VPirkei DeRabbi Eliezer 44:1
p645
sg167
(lp646
sg169
g119
sg170
Nsg171
(lp647
I44
aI1
asg173
Nsg174
g645
sg175
(lp648
sg177
g62
sg178
Nsg179
Nsg180
Nsbag2
(g3
g4
Ntp649
Rp650
(dp651
g8
g11
sg158
Nsg159
(dp652
sg161
Nsg26
g29
sg162
(lp653
I45
aI1
asg164
Nsg165
VPirkei DeRabbi Eliezer 45:1
p654
sg167
(lp655
sg169
g119
sg170
Nsg171
(lp656
I45
aI1
asg173
Nsg174
g654
sg175
(lp657
sg177
g62
sg178
Nsg179
Nsg180
Nsbag2
(g3
g4
Ntp658
Rp659
(dp660
g8
g11
sg158
Nsg159
(dp661
sg161
Nsg26
g29
sg162
(lp662
I46
aI1
asg164
Nsg165
VPirkei DeRabbi Eliezer 46:1
p663
sg167
(lp664
sg169
g119
sg170
Nsg171
(lp665
I46
aI1
asg173
Nsg174
g663
sg175
(lp666
sg177
g62
sg178
Nsg179
Nsg180
Nsbag2
(g3
g4
Ntp667
Rp668
(dp669
g8
g11
sg158
Nsg159
(dp670
sg161
Nsg26
g29
sg162
(lp671
I46
aI2
asg164
Nsg165
VPirkei DeRabbi Eliezer 46:2
p672
sg167
(lp673
sg169
g119
sg170
Nsg171
(lp674
I46
aI2
asg173
Nsg174
g672
sg175
(lp675
sg177
g62
sg178
Nsg179
Nsg180
Nsbag2
(g3
g4
Ntp676
Rp677
(dp678
g8
g11
sg158
Nsg159
(dp679
sg161
Nsg26
g29
sg162
(lp680
I46
aI3
asg164
Nsg165
VPirkei DeRabbi Eliezer 46:3
p681
sg167
(lp682
sg169
g119
sg170
Nsg171
(lp683
I46
aI3
asg173
Nsg174
g681
sg175
(lp684
sg177
g62
sg178
Nsg179
Nsg180
Nsbag2
(g3
g4
Ntp685
Rp686
(dp687
g8
g11
sg158
Nsg159
(dp688
sg161
Nsg26
g29
sg162
(lp689
I46
aI4
asg164
Nsg165
VPirkei DeRabbi Eliezer 46:4
p690
sg167
(lp691
sg169
g119
sg170
Nsg171
(lp692
I46
aI4
asg173
Nsg174
g690
sg175
(lp693
sg177
g62
sg178
Nsg179
Nsg180
Nsbag2
(g3
g4
Ntp694
Rp695
(dp696
g8
g11
sg158
Nsg159
(dp697
sg161
Nsg26
g29
sg162
(lp698
I47
aI1
asg164
Nsg165
VPirkei DeRabbi Eliezer 47:1
p699
sg167
(lp700
sg169
g119
sg170
Nsg171
(lp701
I47
aI1
asg173
Nsg174
g699
sg175
(lp702
sg177
g62
sg178
Nsg179
Nsg180
Nsbag2
(g3
g4
Ntp703
Rp704
(dp705
g8
g11
sg158
Nsg159
(dp706
sg161
Nsg26
g29
sg162
(lp707
I48
aI1
asg164
Nsg165
VPirkei DeRabbi Eliezer 48:1
p708
sg167
(lp709
sg169
g119
sg170
Nsg171
(lp710
I48
aI1
asg173
Nsg174
g708
sg175
(lp711
sg177
g62
sg178
Nsg179
Nsg180
Nsbag2
(g3
g4
Ntp712
Rp713
(dp714
g8
g11
sg158
Nsg159
(dp715
sg161
Nsg26
g29
sg162
(lp716
I49
aI1
asg164
Nsg165
VPirkei DeRabbi Eliezer 49:1
p717
sg167
(lp718
sg169
g119
sg170
Nsg171
(lp719
I49
aI1
asg173
Nsg174
g717
sg175
(lp720
sg177
g62
sg178
Nsg179
Nsg180
Nsbag2
(g3
g4
Ntp721
Rp722
(dp723
g8
g11
sg158
Nsg159
(dp724
sg161
Nsg26
g29
sg162
(lp725
I50
aI1
asg164
Nsg165
VPirkei DeRabbi Eliezer 50:1
p726
sg167
(lp727
sg169
g119
sg170
Nsg171
(lp728
I50
aI1
asg173
Nsg174
g726
sg175
(lp729
sg177
g62
sg178
Nsg179
Nsg180
Nsbag2
(g3
g4
Ntp730
Rp731
(dp732
g8
g11
sg158
Nsg159
(dp733
sg161
Nsg26
g29
sg162
(lp734
I51
aI1
asg164
Nsg165
VPirkei DeRabbi Eliezer 51:1
p735
sg167
(lp736
sg169
g119
sg170
Nsg171
(lp737
I51
aI1
asg173
Nsg174
g735
sg175
(lp738
sg177
g62
sg178
Nsg179
Nsg180
Nsbag2
(g3
g4
Ntp739
Rp740
(dp741
g8
g11
sg158
Nsg159
(dp742
sg161
Nsg26
g29
sg162
(lp743
I52
aI1
asg164
Nsg165
VPirkei DeRabbi Eliezer 52:1
p744
sg167
(lp745
sg169
g119
sg170
Nsg171
(lp746
I52
aI1
asg173
Nsg174
g744
sg175
(lp747
sg177
g62
sg178
Nsg179
Nsg180
Nsbag2
(g3
g4
Ntp748
Rp749
(dp750
g8
g11
sg158
Nsg159
(dp751
sg161
Nsg26
g29
sg162
(lp752
I53
aI1
asg164
Nsg165
VPirkei DeRabbi Eliezer 53:1
p753
sg167
(lp754
sg169
g119
sg170
Nsg171
(lp755
I53
aI1
asg173
Nsg174
g753
sg175
(lp756
sg177
g62
sg178
Nsg179
Nsg180
Nsbag2
(g3
g4
Ntp757
Rp758
(dp759
g8
g11
sg158
Nsg159
(dp760
sg161
Nsg26
g29
sg162
(lp761
I54
aI1
asg164
Nsg165
VPirkei DeRabbi Eliezer 54:1
p762
sg167
(lp763
sg169
g119
sg170
Nsg171
(lp764
I54
aI1
asg173
Nsg174
g762
sg175
(lp765
sg177
g62
sg178
Nsg179
Nsg180
Nsbatp766
.