((lp0
I0
aI28
aI49
aI83
aI115
aI159
aI183
aI196
aI230
aI246
aI261
aI283
aI302
aI319
aI336
aI353
aI367
aI392
aI414
aI472
aI522
aI542
aI596
aI624
aI641
aI694
aI823
aI938
aI984
aI998
aI1019
aI1057
aI1081
aI1095
aI1131
aI1181
aI1270
aI1321
aI1338
aI1367
aI1430
aI1474
aI1529
aI1565
aI1612
aI1651
aI1665
aI1685
aI1748
aI1759
aI1805
aI1940
aI1956
aI2016
aI2039
aI2064
aI2096
aI2148
aI2167
aI2188
aI2208
aI2227
aI2259
aI2301
aI2320
aI2348
aI2367
aI2396
aI2412
aI2439
aI2466
aI2485
aI2560
aI2572
aI2659
aI2691
aI2734
aI2751
aI2789
aI2858
aI2897
aI2943
aI3010
aI3073
aI3105
aI3132
aI3161
aI3192
aI3217
aI3250
aI3281
aI3312
aI3367
aI3456
aI3495
aI3549
aI3572
aI3579
aI3670
aI3746
aI3857
aI3891
aI3920
aI4077
aI4171
aI4257
aI4400
aI4532
a(lp1
ccopy_reg
_reconstructor
p2
(csefaria.model.text
Ref
p3
c__builtin__
object
p4
Ntp5
Rp6
(dp7
S'index_node'
p8
g2
(csefaria.model.schema
JaggedArrayNode
p9
g4
Ntp10
Rp11
(dp12
S'_address'
p13
(lp14
VPirkei Avot
p15
asS'_full_titles'
p16
(dp17
sVnodeType
p18
VJaggedArrayNode
p19
sS'parent'
p20
NsVaddressTypes
p21
(lp22
VPerek
p23
aVMishnah
p24
asS'default'
p25
I00
sS'index'
p26
g2
(csefaria.model.text
Index
p27
g4
Ntp28
Rp29
(dp30
S'_id'
p31
g2
(cbson.objectid
ObjectId
p32
g4
Ntp33
Rp34
S'NJ\xb8\x8f\xed\xba\xb4X3\x00\x00M'
p35
bsS'pkeys_orig_values'
p36
(dp37
S'title'
p38
VPirkei Avot
p39
ssS'pubDate'
p40
V1492
p41
sS'compDate'
p42
V210
p43
sS'pubPlace'
p44
VNaples
p45
sS'compPlace'
p46
VTalmudic Israel
p47
sS'enDesc'
p48
VThe Mishnah is the first major written redaction of the Jewish oral traditions known as the Oral Torah. The Mishnah was redacted by Rabbi Yehudah Ha-Nasi before his death around 217 CE, in a time when, according to the Talmud, the persecution of the Jews and the passage of time raised the possibility that the details of the oral traditions of the Pharisees from the Second Temple period (536 BCE \u2013 70 CE) would be forgotten. The majority of the Mishnah is written in Mishnaic Hebrew, while some parts are Aramaic. The Mishnah consists of six orders (sedarim, singular seder), each containing 7\u201312 tractates (masekhtot, singular masekhet), numbering 63 in total and further subdivided into chapters and paragraphs or verses. The word Mishnah can also indicate a single paragraph or a verse of the work itself, i.e. the smallest unit of structure in the Mishnah. For this reason the whole work is sometimes called by the plural, Mishnayot. Avot (Fathers) belongs to the fourth order, Nezikin (The Order of Damages) and presents the laws of interactions between Jews and Gentiles and/or idolaters (from a Jewish perspective). It has five chapters.
p49
sS'order'
p50
(lp51
I39
aI9
asS'era'
p52
VT
p53
sS'struct_objs'
p54
(dp55
sS'nodes'
p56
g11
sS'errorMargin'
p57
V20
p58
sS'_title'
p59
g39
sS'categories'
p60
(lp61
VMishnah
p62
aVSeder Nezikin
p63
asS'schema'
p64
(dp65
g18
g19
sg21
g22
sVlengths
p66
(lp67
I6
aI108
asVdepth
p68
I2
sVtitles
p69
(lp70
(dp71
Vlang
p72
Ven
p73
sVtext
p74
VAvot
p75
sa(dp76
Vlang
p77
Ven
p78
sVtext
p79
VM Avot
p80
sa(dp81
Vlang
p82
Ven
p83
sVtext
p84
VMishna Avot
p85
sa(dp86
Vlang
p87
Ven
p88
sVtext
p89
VM. Avot
p90
sa(dp91
Vlang
p92
Ven
p93
sVtext
p94
VAvoth
p95
sa(dp96
Vlang
p97
Ven
p98
sVtext
p99
VPerkei Avot
p100
sa(dp101
Vlang
p102
Ven
p103
sVtext
p104
VMishnah Avot
p105
sa(dp106
Vlang
p107
Vhe
p108
sVtext
p109
V\u05de\u05e9\u05e0\u05d4 \u05d0\u05d1\u05d5\u05ea
p110
sVprimary
p111
I01
sa(dp112
Vlang
p113
Vhe
p114
sVtext
p115
V\u05d0\u05d1\u05d5\u05ea
p116
sa(dp117
Vlang
p118
Ven
p119
sVtext
p120
VPirkei Avot
p121
sVprimary
p122
I01
sasVkey
p123
g15
sVsectionNames
p124
(lp125
VChapter
p126
aVMishna
p127
assbsS'_primary_title'
p128
(dp129
sS'title_group'
p130
g2
(csefaria.model.schema
TitleGroup
p131
g4
Ntp132
Rp133
(dp134
g128
(dp135
S'en'
p136
g121
ssS'titles'
p137
g70
sbsS'_addressTypes'
p138
(lp139
g2
(csefaria.model.schema
AddressPerek
p140
g4
Ntp141
Rp142
(dp143
S'length'
p144
I6
sg50
I0
sbag2
(csefaria.model.schema
AddressMishnah
p145
g4
Ntp146
Rp147
(dp148
g144
Nsg50
I1
sbasS'sharedTitle'
p149
Nsg66
g67
sg68
I2
sS'_full_title'
p150
(dp151
g136
g121
ssS'key'
p152
g15
sS'checkFirst'
p153
NsS'_regexes'
p154
(dp155
sS'_leaf_nodes'
p156
(lp157
sg124
g125
sS'children'
p158
(lp159
sbsS'_range_index'
p160
NsS'_context'
p161
(dp162
sS'_padded'
p163
Nsg26
g29
sS'sections'
p164
(lp165
I1
aI1
asS'_first_spanned_ref'
p166
NsS'tref'
p167
VPirkei Avot 1:1
p168
sS'_spanned_refs'
p169
(lp170
sS'book'
p171
g121
sS'_range_depth'
p172
NsS'toSections'
p173
(lp174
I1
aI1
asS'_url'
p175
NsS'_normal'
p176
g168
sS'_ranged_refs'
p177
(lp178
sS'type'
p179
g62
sS'_prev'
p180
NsS'_he_normal'
p181
NsS'_next'
p182
Nsbag2
(g3
g4
Ntp183
Rp184
(dp185
g8
g11
sg160
Nsg161
(dp186
sg163
Nsg26
g29
sg164
(lp187
I1
aI2
asg166
Nsg167
VPirkei Avot 1:2
p188
sg169
(lp189
sg171
g121
sg172
Nsg173
(lp190
I1
aI2
asg175
Nsg176
g188
sg177
(lp191
sg179
g62
sg180
Nsg181
Nsg182
Nsbag2
(g3
g4
Ntp192
Rp193
(dp194
g8
g11
sg160
Nsg161
(dp195
sg163
Nsg26
g29
sg164
(lp196
I1
aI3
asg166
Nsg167
VPirkei Avot 1:3
p197
sg169
(lp198
sg171
g121
sg172
Nsg173
(lp199
I1
aI3
asg175
Nsg176
g197
sg177
(lp200
sg179
g62
sg180
Nsg181
Nsg182
Nsbag2
(g3
g4
Ntp201
Rp202
(dp203
g8
g11
sg160
Nsg161
(dp204
sg163
Nsg26
g29
sg164
(lp205
I1
aI4
asg166
Nsg167
VPirkei Avot 1:4
p206
sg169
(lp207
sg171
g121
sg172
Nsg173
(lp208
I1
aI4
asg175
Nsg176
g206
sg177
(lp209
sg179
g62
sg180
Nsg181
Nsg182
Nsbag2
(g3
g4
Ntp210
Rp211
(dp212
g8
g11
sg160
Nsg161
(dp213
sg163
Nsg26
g29
sg164
(lp214
I1
aI5
asg166
Nsg167
VPirkei Avot 1:5
p215
sg169
(lp216
sg171
g121
sg172
Nsg173
(lp217
I1
aI5
asg175
Nsg176
g215
sg177
(lp218
sg179
g62
sg180
Nsg181
Nsg182
Nsbag2
(g3
g4
Ntp219
Rp220
(dp221
g8
g11
sg160
Nsg161
(dp222
sg163
Nsg26
g29
sg164
(lp223
I1
aI6
asg166
Nsg167
VPirkei Avot 1:6
p224
sg169
(lp225
sg171
g121
sg172
Nsg173
(lp226
I1
aI6
asg175
Nsg176
g224
sg177
(lp227
sg179
g62
sg180
Nsg181
Nsg182
Nsbag2
(g3
g4
Ntp228
Rp229
(dp230
g8
g11
sg160
Nsg161
(dp231
sg163
Nsg26
g29
sg164
(lp232
I1
aI7
asg166
Nsg167
VPirkei Avot 1:7
p233
sg169
(lp234
sg171
g121
sg172
Nsg173
(lp235
I1
aI7
asg175
Nsg176
g233
sg177
(lp236
sg179
g62
sg180
Nsg181
Nsg182
Nsbag2
(g3
g4
Ntp237
Rp238
(dp239
g8
g11
sg160
Nsg161
(dp240
sg163
Nsg26
g29
sg164
(lp241
I1
aI8
asg166
Nsg167
VPirkei Avot 1:8
p242
sg169
(lp243
sg171
g121
sg172
Nsg173
(lp244
I1
aI8
asg175
Nsg176
g242
sg177
(lp245
sg179
g62
sg180
Nsg181
Nsg182
Nsbag2
(g3
g4
Ntp246
Rp247
(dp248
g8
g11
sg160
Nsg161
(dp249
sg163
Nsg26
g29
sg164
(lp250
I1
aI9
asg166
Nsg167
VPirkei Avot 1:9
p251
sg169
(lp252
sg171
g121
sg172
Nsg173
(lp253
I1
aI9
asg175
Nsg176
g251
sg177
(lp254
sg179
g62
sg180
Nsg181
Nsg182
Nsbag2
(g3
g4
Ntp255
Rp256
(dp257
g8
g11
sg160
Nsg161
(dp258
sg163
Nsg26
g29
sg164
(lp259
I1
aI10
asg166
Nsg167
VPirkei Avot 1:10
p260
sg169
(lp261
sg171
g121
sg172
Nsg173
(lp262
I1
aI10
asg175
Nsg176
g260
sg177
(lp263
sg179
g62
sg180
Nsg181
Nsg182
Nsbag2
(g3
g4
Ntp264
Rp265
(dp266
g8
g11
sg160
Nsg161
(dp267
sg163
Nsg26
g29
sg164
(lp268
I1
aI11
asg166
Nsg167
VPirkei Avot 1:11
p269
sg169
(lp270
sg171
g121
sg172
Nsg173
(lp271
I1
aI11
asg175
Nsg176
g269
sg177
(lp272
sg179
g62
sg180
Nsg181
Nsg182
Nsbag2
(g3
g4
Ntp273
Rp274
(dp275
g8
g11
sg160
Nsg161
(dp276
sg163
Nsg26
g29
sg164
(lp277
I1
aI12
asg166
Nsg167
VPirkei Avot 1:12
p278
sg169
(lp279
sg171
g121
sg172
Nsg173
(lp280
I1
aI12
asg175
Nsg176
g278
sg177
(lp281
sg179
g62
sg180
Nsg181
Nsg182
Nsbag2
(g3
g4
Ntp282
Rp283
(dp284
g8
g11
sg160
Nsg161
(dp285
sg163
Nsg26
g29
sg164
(lp286
I1
aI13
asg166
Nsg167
VPirkei Avot 1:13
p287
sg169
(lp288
sg171
g121
sg172
Nsg173
(lp289
I1
aI13
asg175
Nsg176
g287
sg177
(lp290
sg179
g62
sg180
Nsg181
Nsg182
Nsbag2
(g3
g4
Ntp291
Rp292
(dp293
g8
g11
sg160
Nsg161
(dp294
sg163
Nsg26
g29
sg164
(lp295
I1
aI14
asg166
Nsg167
VPirkei Avot 1:14
p296
sg169
(lp297
sg171
g121
sg172
Nsg173
(lp298
I1
aI14
asg175
Nsg176
g296
sg177
(lp299
sg179
g62
sg180
Nsg181
Nsg182
Nsbag2
(g3
g4
Ntp300
Rp301
(dp302
g8
g11
sg160
Nsg161
(dp303
sg163
Nsg26
g29
sg164
(lp304
I1
aI15
asg166
Nsg167
VPirkei Avot 1:15
p305
sg169
(lp306
sg171
g121
sg172
Nsg173
(lp307
I1
aI15
asg175
Nsg176
g305
sg177
(lp308
sg179
g62
sg180
Nsg181
Nsg182
Nsbag2
(g3
g4
Ntp309
Rp310
(dp311
g8
g11
sg160
Nsg161
(dp312
sg163
Nsg26
g29
sg164
(lp313
I1
aI16
asg166
Nsg167
VPirkei Avot 1:16
p314
sg169
(lp315
sg171
g121
sg172
Nsg173
(lp316
I1
aI16
asg175
Nsg176
g314
sg177
(lp317
sg179
g62
sg180
Nsg181
Nsg182
Nsbag2
(g3
g4
Ntp318
Rp319
(dp320
g8
g11
sg160
Nsg161
(dp321
sg163
Nsg26
g29
sg164
(lp322
I1
aI17
asg166
Nsg167
VPirkei Avot 1:17
p323
sg169
(lp324
sg171
g121
sg172
Nsg173
(lp325
I1
aI17
asg175
Nsg176
g323
sg177
(lp326
sg179
g62
sg180
Nsg181
Nsg182
Nsbag2
(g3
g4
Ntp327
Rp328
(dp329
g8
g11
sg160
Nsg161
(dp330
sg163
Nsg26
g29
sg164
(lp331
I1
aI18
asg166
Nsg167
VPirkei Avot 1:18
p332
sg169
(lp333
sg171
g121
sg172
Nsg173
(lp334
I1
aI18
asg175
Nsg176
g332
sg177
(lp335
sg179
g62
sg180
Nsg181
Nsg182
Nsbag2
(g3
g4
Ntp336
Rp337
(dp338
g8
g11
sg160
Nsg161
(dp339
sg163
Nsg26
g29
sg164
(lp340
I2
aI1
asg166
Nsg167
VPirkei Avot 2:1
p341
sg169
(lp342
sg171
g121
sg172
Nsg173
(lp343
I2
aI1
asg175
Nsg176
g341
sg177
(lp344
sg179
g62
sg180
Nsg181
Nsg182
Nsbag2
(g3
g4
Ntp345
Rp346
(dp347
g8
g11
sg160
Nsg161
(dp348
sg163
Nsg26
g29
sg164
(lp349
I2
aI2
asg166
Nsg167
VPirkei Avot 2:2
p350
sg169
(lp351
sg171
g121
sg172
Nsg173
(lp352
I2
aI2
asg175
Nsg176
g350
sg177
(lp353
sg179
g62
sg180
Nsg181
Nsg182
Nsbag2
(g3
g4
Ntp354
Rp355
(dp356
g8
g11
sg160
Nsg161
(dp357
sg163
Nsg26
g29
sg164
(lp358
I2
aI3
asg166
Nsg167
VPirkei Avot 2:3
p359
sg169
(lp360
sg171
g121
sg172
Nsg173
(lp361
I2
aI3
asg175
Nsg176
g359
sg177
(lp362
sg179
g62
sg180
Nsg181
Nsg182
Nsbag2
(g3
g4
Ntp363
Rp364
(dp365
g8
g11
sg160
Nsg161
(dp366
sg163
Nsg26
g29
sg164
(lp367
I2
aI4
asg166
Nsg167
VPirkei Avot 2:4
p368
sg169
(lp369
sg171
g121
sg172
Nsg173
(lp370
I2
aI4
asg175
Nsg176
g368
sg177
(lp371
sg179
g62
sg180
Nsg181
Nsg182
Nsbag2
(g3
g4
Ntp372
Rp373
(dp374
g8
g11
sg160
Nsg161
(dp375
sg163
Nsg26
g29
sg164
(lp376
I2
aI5
asg166
Nsg167
VPirkei Avot 2:5
p377
sg169
(lp378
sg171
g121
sg172
Nsg173
(lp379
I2
aI5
asg175
Nsg176
g377
sg177
(lp380
sg179
g62
sg180
Nsg181
Nsg182
Nsbag2
(g3
g4
Ntp381
Rp382
(dp383
g8
g11
sg160
Nsg161
(dp384
sg163
Nsg26
g29
sg164
(lp385
I2
aI6
asg166
Nsg167
VPirkei Avot 2:6
p386
sg169
(lp387
sg171
g121
sg172
Nsg173
(lp388
I2
aI6
asg175
Nsg176
g386
sg177
(lp389
sg179
g62
sg180
Nsg181
Nsg182
Nsbag2
(g3
g4
Ntp390
Rp391
(dp392
g8
g11
sg160
Nsg161
(dp393
sg163
Nsg26
g29
sg164
(lp394
I2
aI7
asg166
Nsg167
VPirkei Avot 2:7
p395
sg169
(lp396
sg171
g121
sg172
Nsg173
(lp397
I2
aI7
asg175
Nsg176
g395
sg177
(lp398
sg179
g62
sg180
Nsg181
Nsg182
Nsbag2
(g3
g4
Ntp399
Rp400
(dp401
g8
g11
sg160
Nsg161
(dp402
sg163
Nsg26
g29
sg164
(lp403
I2
aI8
asg166
Nsg167
VPirkei Avot 2:8
p404
sg169
(lp405
sg171
g121
sg172
Nsg173
(lp406
I2
aI8
asg175
Nsg176
g404
sg177
(lp407
sg179
g62
sg180
Nsg181
Nsg182
Nsbag2
(g3
g4
Ntp408
Rp409
(dp410
g8
g11
sg160
Nsg161
(dp411
sg163
Nsg26
g29
sg164
(lp412
I2
aI9
asg166
Nsg167
VPirkei Avot 2:9
p413
sg169
(lp414
sg171
g121
sg172
Nsg173
(lp415
I2
aI9
asg175
Nsg176
g413
sg177
(lp416
sg179
g62
sg180
Nsg181
Nsg182
Nsbag2
(g3
g4
Ntp417
Rp418
(dp419
g8
g11
sg160
Nsg161
(dp420
sg163
Nsg26
g29
sg164
(lp421
I2
aI10
asg166
Nsg167
VPirkei Avot 2:10
p422
sg169
(lp423
sg171
g121
sg172
Nsg173
(lp424
I2
aI10
asg175
Nsg176
g422
sg177
(lp425
sg179
g62
sg180
Nsg181
Nsg182
Nsbag2
(g3
g4
Ntp426
Rp427
(dp428
g8
g11
sg160
Nsg161
(dp429
sg163
Nsg26
g29
sg164
(lp430
I2
aI11
asg166
Nsg167
VPirkei Avot 2:11
p431
sg169
(lp432
sg171
g121
sg172
Nsg173
(lp433
I2
aI11
asg175
Nsg176
g431
sg177
(lp434
sg179
g62
sg180
Nsg181
Nsg182
Nsbag2
(g3
g4
Ntp435
Rp436
(dp437
g8
g11
sg160
Nsg161
(dp438
sg163
Nsg26
g29
sg164
(lp439
I2
aI12
asg166
Nsg167
VPirkei Avot 2:12
p440
sg169
(lp441
sg171
g121
sg172
Nsg173
(lp442
I2
aI12
asg175
Nsg176
g440
sg177
(lp443
sg179
g62
sg180
Nsg181
Nsg182
Nsbag2
(g3
g4
Ntp444
Rp445
(dp446
g8
g11
sg160
Nsg161
(dp447
sg163
Nsg26
g29
sg164
(lp448
I2
aI13
asg166
Nsg167
VPirkei Avot 2:13
p449
sg169
(lp450
sg171
g121
sg172
Nsg173
(lp451
I2
aI13
asg175
Nsg176
g449
sg177
(lp452
sg179
g62
sg180
Nsg181
Nsg182
Nsbag2
(g3
g4
Ntp453
Rp454
(dp455
g8
g11
sg160
Nsg161
(dp456
sg163
Nsg26
g29
sg164
(lp457
I2
aI14
asg166
Nsg167
VPirkei Avot 2:14
p458
sg169
(lp459
sg171
g121
sg172
Nsg173
(lp460
I2
aI14
asg175
Nsg176
g458
sg177
(lp461
sg179
g62
sg180
Nsg181
Nsg182
Nsbag2
(g3
g4
Ntp462
Rp463
(dp464
g8
g11
sg160
Nsg161
(dp465
sg163
Nsg26
g29
sg164
(lp466
I2
aI15
asg166
Nsg167
VPirkei Avot 2:15
p467
sg169
(lp468
sg171
g121
sg172
Nsg173
(lp469
I2
aI15
asg175
Nsg176
g467
sg177
(lp470
sg179
g62
sg180
Nsg181
Nsg182
Nsbag2
(g3
g4
Ntp471
Rp472
(dp473
g8
g11
sg160
Nsg161
(dp474
sg163
Nsg26
g29
sg164
(lp475
I2
aI16
asg166
Nsg167
VPirkei Avot 2:16
p476
sg169
(lp477
sg171
g121
sg172
Nsg173
(lp478
I2
aI16
asg175
Nsg176
g476
sg177
(lp479
sg179
g62
sg180
Nsg181
Nsg182
Nsbag2
(g3
g4
Ntp480
Rp481
(dp482
g8
g11
sg160
Nsg161
(dp483
sg163
Nsg26
g29
sg164
(lp484
I3
aI1
asg166
Nsg167
VPirkei Avot 3:1
p485
sg169
(lp486
sg171
g121
sg172
Nsg173
(lp487
I3
aI1
asg175
Nsg176
g485
sg177
(lp488
sg179
g62
sg180
Nsg181
Nsg182
Nsbag2
(g3
g4
Ntp489
Rp490
(dp491
g8
g11
sg160
Nsg161
(dp492
sg163
Nsg26
g29
sg164
(lp493
I3
aI2
asg166
Nsg167
VPirkei Avot 3:2
p494
sg169
(lp495
sg171
g121
sg172
Nsg173
(lp496
I3
aI2
asg175
Nsg176
g494
sg177
(lp497
sg179
g62
sg180
Nsg181
Nsg182
Nsbag2
(g3
g4
Ntp498
Rp499
(dp500
g8
g11
sg160
Nsg161
(dp501
sg163
Nsg26
g29
sg164
(lp502
I3
aI3
asg166
Nsg167
VPirkei Avot 3:3
p503
sg169
(lp504
sg171
g121
sg172
Nsg173
(lp505
I3
aI3
asg175
Nsg176
g503
sg177
(lp506
sg179
g62
sg180
Nsg181
Nsg182
Nsbag2
(g3
g4
Ntp507
Rp508
(dp509
g8
g11
sg160
Nsg161
(dp510
sg163
Nsg26
g29
sg164
(lp511
I3
aI4
asg166
Nsg167
VPirkei Avot 3:4
p512
sg169
(lp513
sg171
g121
sg172
Nsg173
(lp514
I3
aI4
asg175
Nsg176
g512
sg177
(lp515
sg179
g62
sg180
Nsg181
Nsg182
Nsbag2
(g3
g4
Ntp516
Rp517
(dp518
g8
g11
sg160
Nsg161
(dp519
sg163
Nsg26
g29
sg164
(lp520
I3
aI5
asg166
Nsg167
VPirkei Avot 3:5
p521
sg169
(lp522
sg171
g121
sg172
Nsg173
(lp523
I3
aI5
asg175
Nsg176
g521
sg177
(lp524
sg179
g62
sg180
Nsg181
Nsg182
Nsbag2
(g3
g4
Ntp525
Rp526
(dp527
g8
g11
sg160
Nsg161
(dp528
sg163
Nsg26
g29
sg164
(lp529
I3
aI6
asg166
Nsg167
VPirkei Avot 3:6
p530
sg169
(lp531
sg171
g121
sg172
Nsg173
(lp532
I3
aI6
asg175
Nsg176
g530
sg177
(lp533
sg179
g62
sg180
Nsg181
Nsg182
Nsbag2
(g3
g4
Ntp534
Rp535
(dp536
g8
g11
sg160
Nsg161
(dp537
sg163
Nsg26
g29
sg164
(lp538
I3
aI7
asg166
Nsg167
VPirkei Avot 3:7
p539
sg169
(lp540
sg171
g121
sg172
Nsg173
(lp541
I3
aI7
asg175
Nsg176
g539
sg177
(lp542
sg179
g62
sg180
Nsg181
Nsg182
Nsbag2
(g3
g4
Ntp543
Rp544
(dp545
g8
g11
sg160
Nsg161
(dp546
sg163
Nsg26
g29
sg164
(lp547
I3
aI8
asg166
Nsg167
VPirkei Avot 3:8
p548
sg169
(lp549
sg171
g121
sg172
Nsg173
(lp550
I3
aI8
asg175
Nsg176
g548
sg177
(lp551
sg179
g62
sg180
Nsg181
Nsg182
Nsbag2
(g3
g4
Ntp552
Rp553
(dp554
g8
g11
sg160
Nsg161
(dp555
sg163
Nsg26
g29
sg164
(lp556
I3
aI9
asg166
Nsg167
VPirkei Avot 3:9
p557
sg169
(lp558
sg171
g121
sg172
Nsg173
(lp559
I3
aI9
asg175
Nsg176
g557
sg177
(lp560
sg179
g62
sg180
Nsg181
Nsg182
Nsbag2
(g3
g4
Ntp561
Rp562
(dp563
g8
g11
sg160
Nsg161
(dp564
sg163
Nsg26
g29
sg164
(lp565
I3
aI10
asg166
Nsg167
VPirkei Avot 3:10
p566
sg169
(lp567
sg171
g121
sg172
Nsg173
(lp568
I3
aI10
asg175
Nsg176
g566
sg177
(lp569
sg179
g62
sg180
Nsg181
Nsg182
Nsbag2
(g3
g4
Ntp570
Rp571
(dp572
g8
g11
sg160
Nsg161
(dp573
sg163
Nsg26
g29
sg164
(lp574
I3
aI11
asg166
Nsg167
VPirkei Avot 3:11
p575
sg169
(lp576
sg171
g121
sg172
Nsg173
(lp577
I3
aI11
asg175
Nsg176
g575
sg177
(lp578
sg179
g62
sg180
Nsg181
Nsg182
Nsbag2
(g3
g4
Ntp579
Rp580
(dp581
g8
g11
sg160
Nsg161
(dp582
sg163
Nsg26
g29
sg164
(lp583
I3
aI12
asg166
Nsg167
VPirkei Avot 3:12
p584
sg169
(lp585
sg171
g121
sg172
Nsg173
(lp586
I3
aI12
asg175
Nsg176
g584
sg177
(lp587
sg179
g62
sg180
Nsg181
Nsg182
Nsbag2
(g3
g4
Ntp588
Rp589
(dp590
g8
g11
sg160
Nsg161
(dp591
sg163
Nsg26
g29
sg164
(lp592
I3
aI13
asg166
Nsg167
VPirkei Avot 3:13
p593
sg169
(lp594
sg171
g121
sg172
Nsg173
(lp595
I3
aI13
asg175
Nsg176
g593
sg177
(lp596
sg179
g62
sg180
Nsg181
Nsg182
Nsbag2
(g3
g4
Ntp597
Rp598
(dp599
g8
g11
sg160
Nsg161
(dp600
sg163
Nsg26
g29
sg164
(lp601
I3
aI14
asg166
Nsg167
VPirkei Avot 3:14
p602
sg169
(lp603
sg171
g121
sg172
Nsg173
(lp604
I3
aI14
asg175
Nsg176
g602
sg177
(lp605
sg179
g62
sg180
Nsg181
Nsg182
Nsbag2
(g3
g4
Ntp606
Rp607
(dp608
g8
g11
sg160
Nsg161
(dp609
sg163
Nsg26
g29
sg164
(lp610
I3
aI15
asg166
Nsg167
VPirkei Avot 3:15
p611
sg169
(lp612
sg171
g121
sg172
Nsg173
(lp613
I3
aI15
asg175
Nsg176
g611
sg177
(lp614
sg179
g62
sg180
Nsg181
Nsg182
Nsbag2
(g3
g4
Ntp615
Rp616
(dp617
g8
g11
sg160
Nsg161
(dp618
sg163
Nsg26
g29
sg164
(lp619
I3
aI16
asg166
Nsg167
VPirkei Avot 3:16
p620
sg169
(lp621
sg171
g121
sg172
Nsg173
(lp622
I3
aI16
asg175
Nsg176
g620
sg177
(lp623
sg179
g62
sg180
Nsg181
Nsg182
Nsbag2
(g3
g4
Ntp624
Rp625
(dp626
g8
g11
sg160
Nsg161
(dp627
sg163
Nsg26
g29
sg164
(lp628
I3
aI17
asg166
Nsg167
VPirkei Avot 3:17
p629
sg169
(lp630
sg171
g121
sg172
Nsg173
(lp631
I3
aI17
asg175
Nsg176
g629
sg177
(lp632
sg179
g62
sg180
Nsg181
Nsg182
Nsbag2
(g3
g4
Ntp633
Rp634
(dp635
g8
g11
sg160
Nsg161
(dp636
sg163
Nsg26
g29
sg164
(lp637
I3
aI18
asg166
Nsg167
VPirkei Avot 3:18
p638
sg169
(lp639
sg171
g121
sg172
Nsg173
(lp640
I3
aI18
asg175
Nsg176
g638
sg177
(lp641
sg179
g62
sg180
Nsg181
Nsg182
Nsbag2
(g3
g4
Ntp642
Rp643
(dp644
g8
g11
sg160
Nsg161
(dp645
sg163
Nsg26
g29
sg164
(lp646
I4
aI1
asg166
Nsg167
VPirkei Avot 4:1
p647
sg169
(lp648
sg171
g121
sg172
Nsg173
(lp649
I4
aI1
asg175
Nsg176
g647
sg177
(lp650
sg179
g62
sg180
Nsg181
Nsg182
Nsbag2
(g3
g4
Ntp651
Rp652
(dp653
g8
g11
sg160
Nsg161
(dp654
sg163
Nsg26
g29
sg164
(lp655
I4
aI2
asg166
Nsg167
VPirkei Avot 4:2
p656
sg169
(lp657
sg171
g121
sg172
Nsg173
(lp658
I4
aI2
asg175
Nsg176
g656
sg177
(lp659
sg179
g62
sg180
Nsg181
Nsg182
Nsbag2
(g3
g4
Ntp660
Rp661
(dp662
g8
g11
sg160
Nsg161
(dp663
sg163
Nsg26
g29
sg164
(lp664
I4
aI3
asg166
Nsg167
VPirkei Avot 4:3
p665
sg169
(lp666
sg171
g121
sg172
Nsg173
(lp667
I4
aI3
asg175
Nsg176
g665
sg177
(lp668
sg179
g62
sg180
Nsg181
Nsg182
Nsbag2
(g3
g4
Ntp669
Rp670
(dp671
g8
g11
sg160
Nsg161
(dp672
sg163
Nsg26
g29
sg164
(lp673
I4
aI4
asg166
Nsg167
VPirkei Avot 4:4
p674
sg169
(lp675
sg171
g121
sg172
Nsg173
(lp676
I4
aI4
asg175
Nsg176
g674
sg177
(lp677
sg179
g62
sg180
Nsg181
Nsg182
Nsbag2
(g3
g4
Ntp678
Rp679
(dp680
g8
g11
sg160
Nsg161
(dp681
sg163
Nsg26
g29
sg164
(lp682
I4
aI5
asg166
Nsg167
VPirkei Avot 4:5
p683
sg169
(lp684
sg171
g121
sg172
Nsg173
(lp685
I4
aI5
asg175
Nsg176
g683
sg177
(lp686
sg179
g62
sg180
Nsg181
Nsg182
Nsbag2
(g3
g4
Ntp687
Rp688
(dp689
g8
g11
sg160
Nsg161
(dp690
sg163
Nsg26
g29
sg164
(lp691
I4
aI6
asg166
Nsg167
VPirkei Avot 4:6
p692
sg169
(lp693
sg171
g121
sg172
Nsg173
(lp694
I4
aI6
asg175
Nsg176
g692
sg177
(lp695
sg179
g62
sg180
Nsg181
Nsg182
Nsbag2
(g3
g4
Ntp696
Rp697
(dp698
g8
g11
sg160
Nsg161
(dp699
sg163
Nsg26
g29
sg164
(lp700
I4
aI7
asg166
Nsg167
VPirkei Avot 4:7
p701
sg169
(lp702
sg171
g121
sg172
Nsg173
(lp703
I4
aI7
asg175
Nsg176
g701
sg177
(lp704
sg179
g62
sg180
Nsg181
Nsg182
Nsbag2
(g3
g4
Ntp705
Rp706
(dp707
g8
g11
sg160
Nsg161
(dp708
sg163
Nsg26
g29
sg164
(lp709
I4
aI8
asg166
Nsg167
VPirkei Avot 4:8
p710
sg169
(lp711
sg171
g121
sg172
Nsg173
(lp712
I4
aI8
asg175
Nsg176
g710
sg177
(lp713
sg179
g62
sg180
Nsg181
Nsg182
Nsbag2
(g3
g4
Ntp714
Rp715
(dp716
g8
g11
sg160
Nsg161
(dp717
sg163
Nsg26
g29
sg164
(lp718
I4
aI9
asg166
Nsg167
VPirkei Avot 4:9
p719
sg169
(lp720
sg171
g121
sg172
Nsg173
(lp721
I4
aI9
asg175
Nsg176
g719
sg177
(lp722
sg179
g62
sg180
Nsg181
Nsg182
Nsbag2
(g3
g4
Ntp723
Rp724
(dp725
g8
g11
sg160
Nsg161
(dp726
sg163
Nsg26
g29
sg164
(lp727
I4
aI10
asg166
Nsg167
VPirkei Avot 4:10
p728
sg169
(lp729
sg171
g121
sg172
Nsg173
(lp730
I4
aI10
asg175
Nsg176
g728
sg177
(lp731
sg179
g62
sg180
Nsg181
Nsg182
Nsbag2
(g3
g4
Ntp732
Rp733
(dp734
g8
g11
sg160
Nsg161
(dp735
sg163
Nsg26
g29
sg164
(lp736
I4
aI11
asg166
Nsg167
VPirkei Avot 4:11
p737
sg169
(lp738
sg171
g121
sg172
Nsg173
(lp739
I4
aI11
asg175
Nsg176
g737
sg177
(lp740
sg179
g62
sg180
Nsg181
Nsg182
Nsbag2
(g3
g4
Ntp741
Rp742
(dp743
g8
g11
sg160
Nsg161
(dp744
sg163
Nsg26
g29
sg164
(lp745
I4
aI12
asg166
Nsg167
VPirkei Avot 4:12
p746
sg169
(lp747
sg171
g121
sg172
Nsg173
(lp748
I4
aI12
asg175
Nsg176
g746
sg177
(lp749
sg179
g62
sg180
Nsg181
Nsg182
Nsbag2
(g3
g4
Ntp750
Rp751
(dp752
g8
g11
sg160
Nsg161
(dp753
sg163
Nsg26
g29
sg164
(lp754
I4
aI13
asg166
Nsg167
VPirkei Avot 4:13
p755
sg169
(lp756
sg171
g121
sg172
Nsg173
(lp757
I4
aI13
asg175
Nsg176
g755
sg177
(lp758
sg179
g62
sg180
Nsg181
Nsg182
Nsbag2
(g3
g4
Ntp759
Rp760
(dp761
g8
g11
sg160
Nsg161
(dp762
sg163
Nsg26
g29
sg164
(lp763
I4
aI14
asg166
Nsg167
VPirkei Avot 4:14
p764
sg169
(lp765
sg171
g121
sg172
Nsg173
(lp766
I4
aI14
asg175
Nsg176
g764
sg177
(lp767
sg179
g62
sg180
Nsg181
Nsg182
Nsbag2
(g3
g4
Ntp768
Rp769
(dp770
g8
g11
sg160
Nsg161
(dp771
sg163
Nsg26
g29
sg164
(lp772
I4
aI15
asg166
Nsg167
VPirkei Avot 4:15
p773
sg169
(lp774
sg171
g121
sg172
Nsg173
(lp775
I4
aI15
asg175
Nsg176
g773
sg177
(lp776
sg179
g62
sg180
Nsg181
Nsg182
Nsbag2
(g3
g4
Ntp777
Rp778
(dp779
g8
g11
sg160
Nsg161
(dp780
sg163
Nsg26
g29
sg164
(lp781
I4
aI16
asg166
Nsg167
VPirkei Avot 4:16
p782
sg169
(lp783
sg171
g121
sg172
Nsg173
(lp784
I4
aI16
asg175
Nsg176
g782
sg177
(lp785
sg179
g62
sg180
Nsg181
Nsg182
Nsbag2
(g3
g4
Ntp786
Rp787
(dp788
g8
g11
sg160
Nsg161
(dp789
sg163
Nsg26
g29
sg164
(lp790
I4
aI17
asg166
Nsg167
VPirkei Avot 4:17
p791
sg169
(lp792
sg171
g121
sg172
Nsg173
(lp793
I4
aI17
asg175
Nsg176
g791
sg177
(lp794
sg179
g62
sg180
Nsg181
Nsg182
Nsbag2
(g3
g4
Ntp795
Rp796
(dp797
g8
g11
sg160
Nsg161
(dp798
sg163
Nsg26
g29
sg164
(lp799
I4
aI18
asg166
Nsg167
VPirkei Avot 4:18
p800
sg169
(lp801
sg171
g121
sg172
Nsg173
(lp802
I4
aI18
asg175
Nsg176
g800
sg177
(lp803
sg179
g62
sg180
Nsg181
Nsg182
Nsbag2
(g3
g4
Ntp804
Rp805
(dp806
g8
g11
sg160
Nsg161
(dp807
sg163
Nsg26
g29
sg164
(lp808
I4
aI19
asg166
Nsg167
VPirkei Avot 4:19
p809
sg169
(lp810
sg171
g121
sg172
Nsg173
(lp811
I4
aI19
asg175
Nsg176
g809
sg177
(lp812
sg179
g62
sg180
Nsg181
Nsg182
Nsbag2
(g3
g4
Ntp813
Rp814
(dp815
g8
g11
sg160
Nsg161
(dp816
sg163
Nsg26
g29
sg164
(lp817
I4
aI20
asg166
Nsg167
VPirkei Avot 4:20
p818
sg169
(lp819
sg171
g121
sg172
Nsg173
(lp820
I4
aI20
asg175
Nsg176
g818
sg177
(lp821
sg179
g62
sg180
Nsg181
Nsg182
Nsbag2
(g3
g4
Ntp822
Rp823
(dp824
g8
g11
sg160
Nsg161
(dp825
sg163
Nsg26
g29
sg164
(lp826
I4
aI21
asg166
Nsg167
VPirkei Avot 4:21
p827
sg169
(lp828
sg171
g121
sg172
Nsg173
(lp829
I4
aI21
asg175
Nsg176
g827
sg177
(lp830
sg179
g62
sg180
Nsg181
Nsg182
Nsbag2
(g3
g4
Ntp831
Rp832
(dp833
g8
g11
sg160
Nsg161
(dp834
sg163
Nsg26
g29
sg164
(lp835
I4
aI22
asg166
Nsg167
VPirkei Avot 4:22
p836
sg169
(lp837
sg171
g121
sg172
Nsg173
(lp838
I4
aI22
asg175
Nsg176
g836
sg177
(lp839
sg179
g62
sg180
Nsg181
Nsg182
Nsbag2
(g3
g4
Ntp840
Rp841
(dp842
g8
g11
sg160
Nsg161
(dp843
sg163
Nsg26
g29
sg164
(lp844
I5
aI1
asg166
Nsg167
VPirkei Avot 5:1
p845
sg169
(lp846
sg171
g121
sg172
Nsg173
(lp847
I5
aI1
asg175
Nsg176
g845
sg177
(lp848
sg179
g62
sg180
Nsg181
Nsg182
Nsbag2
(g3
g4
Ntp849
Rp850
(dp851
g8
g11
sg160
Nsg161
(dp852
sg163
Nsg26
g29
sg164
(lp853
I5
aI2
asg166
Nsg167
VPirkei Avot 5:2
p854
sg169
(lp855
sg171
g121
sg172
Nsg173
(lp856
I5
aI2
asg175
Nsg176
g854
sg177
(lp857
sg179
g62
sg180
Nsg181
Nsg182
Nsbag2
(g3
g4
Ntp858
Rp859
(dp860
g8
g11
sg160
Nsg161
(dp861
sg163
Nsg26
g29
sg164
(lp862
I5
aI3
asg166
Nsg167
VPirkei Avot 5:3
p863
sg169
(lp864
sg171
g121
sg172
Nsg173
(lp865
I5
aI3
asg175
Nsg176
g863
sg177
(lp866
sg179
g62
sg180
Nsg181
Nsg182
Nsbag2
(g3
g4
Ntp867
Rp868
(dp869
g8
g11
sg160
Nsg161
(dp870
sg163
Nsg26
g29
sg164
(lp871
I5
aI4
asg166
Nsg167
VPirkei Avot 5:4
p872
sg169
(lp873
sg171
g121
sg172
Nsg173
(lp874
I5
aI4
asg175
Nsg176
g872
sg177
(lp875
sg179
g62
sg180
Nsg181
Nsg182
Nsbag2
(g3
g4
Ntp876
Rp877
(dp878
g8
g11
sg160
Nsg161
(dp879
sg163
Nsg26
g29
sg164
(lp880
I5
aI5
asg166
Nsg167
VPirkei Avot 5:5
p881
sg169
(lp882
sg171
g121
sg172
Nsg173
(lp883
I5
aI5
asg175
Nsg176
g881
sg177
(lp884
sg179
g62
sg180
Nsg181
Nsg182
Nsbag2
(g3
g4
Ntp885
Rp886
(dp887
g8
g11
sg160
Nsg161
(dp888
sg163
Nsg26
g29
sg164
(lp889
I5
aI6
asg166
Nsg167
VPirkei Avot 5:6
p890
sg169
(lp891
sg171
g121
sg172
Nsg173
(lp892
I5
aI6
asg175
Nsg176
g890
sg177
(lp893
sg179
g62
sg180
Nsg181
Nsg182
Nsbag2
(g3
g4
Ntp894
Rp895
(dp896
g8
g11
sg160
Nsg161
(dp897
sg163
Nsg26
g29
sg164
(lp898
I5
aI7
asg166
Nsg167
VPirkei Avot 5:7
p899
sg169
(lp900
sg171
g121
sg172
Nsg173
(lp901
I5
aI7
asg175
Nsg176
g899
sg177
(lp902
sg179
g62
sg180
Nsg181
Nsg182
Nsbag2
(g3
g4
Ntp903
Rp904
(dp905
g8
g11
sg160
Nsg161
(dp906
sg163
Nsg26
g29
sg164
(lp907
I5
aI8
asg166
Nsg167
VPirkei Avot 5:8
p908
sg169
(lp909
sg171
g121
sg172
Nsg173
(lp910
I5
aI8
asg175
Nsg176
g908
sg177
(lp911
sg179
g62
sg180
Nsg181
Nsg182
Nsbag2
(g3
g4
Ntp912
Rp913
(dp914
g8
g11
sg160
Nsg161
(dp915
sg163
Nsg26
g29
sg164
(lp916
I5
aI9
asg166
Nsg167
VPirkei Avot 5:9
p917
sg169
(lp918
sg171
g121
sg172
Nsg173
(lp919
I5
aI9
asg175
Nsg176
g917
sg177
(lp920
sg179
g62
sg180
Nsg181
Nsg182
Nsbag2
(g3
g4
Ntp921
Rp922
(dp923
g8
g11
sg160
Nsg161
(dp924
sg163
Nsg26
g29
sg164
(lp925
I5
aI10
asg166
Nsg167
VPirkei Avot 5:10
p926
sg169
(lp927
sg171
g121
sg172
Nsg173
(lp928
I5
aI10
asg175
Nsg176
g926
sg177
(lp929
sg179
g62
sg180
Nsg181
Nsg182
Nsbag2
(g3
g4
Ntp930
Rp931
(dp932
g8
g11
sg160
Nsg161
(dp933
sg163
Nsg26
g29
sg164
(lp934
I5
aI11
asg166
Nsg167
VPirkei Avot 5:11
p935
sg169
(lp936
sg171
g121
sg172
Nsg173
(lp937
I5
aI11
asg175
Nsg176
g935
sg177
(lp938
sg179
g62
sg180
Nsg181
Nsg182
Nsbag2
(g3
g4
Ntp939
Rp940
(dp941
g8
g11
sg160
Nsg161
(dp942
sg163
Nsg26
g29
sg164
(lp943
I5
aI12
asg166
Nsg167
VPirkei Avot 5:12
p944
sg169
(lp945
sg171
g121
sg172
Nsg173
(lp946
I5
aI12
asg175
Nsg176
g944
sg177
(lp947
sg179
g62
sg180
Nsg181
Nsg182
Nsbag2
(g3
g4
Ntp948
Rp949
(dp950
g8
g11
sg160
Nsg161
(dp951
sg163
Nsg26
g29
sg164
(lp952
I5
aI13
asg166
Nsg167
VPirkei Avot 5:13
p953
sg169
(lp954
sg171
g121
sg172
Nsg173
(lp955
I5
aI13
asg175
Nsg176
g953
sg177
(lp956
sg179
g62
sg180
Nsg181
Nsg182
Nsbag2
(g3
g4
Ntp957
Rp958
(dp959
g8
g11
sg160
Nsg161
(dp960
sg163
Nsg26
g29
sg164
(lp961
I5
aI14
asg166
Nsg167
VPirkei Avot 5:14
p962
sg169
(lp963
sg171
g121
sg172
Nsg173
(lp964
I5
aI14
asg175
Nsg176
g962
sg177
(lp965
sg179
g62
sg180
Nsg181
Nsg182
Nsbag2
(g3
g4
Ntp966
Rp967
(dp968
g8
g11
sg160
Nsg161
(dp969
sg163
Nsg26
g29
sg164
(lp970
I5
aI15
asg166
Nsg167
VPirkei Avot 5:15
p971
sg169
(lp972
sg171
g121
sg172
Nsg173
(lp973
I5
aI15
asg175
Nsg176
g971
sg177
(lp974
sg179
g62
sg180
Nsg181
Nsg182
Nsbag2
(g3
g4
Ntp975
Rp976
(dp977
g8
g11
sg160
Nsg161
(dp978
sg163
Nsg26
g29
sg164
(lp979
I5
aI16
asg166
Nsg167
VPirkei Avot 5:16
p980
sg169
(lp981
sg171
g121
sg172
Nsg173
(lp982
I5
aI16
asg175
Nsg176
g980
sg177
(lp983
sg179
g62
sg180
Nsg181
Nsg182
Nsbag2
(g3
g4
Ntp984
Rp985
(dp986
g8
g11
sg160
Nsg161
(dp987
sg163
Nsg26
g29
sg164
(lp988
I5
aI17
asg166
Nsg167
VPirkei Avot 5:17
p989
sg169
(lp990
sg171
g121
sg172
Nsg173
(lp991
I5
aI17
asg175
Nsg176
g989
sg177
(lp992
sg179
g62
sg180
Nsg181
Nsg182
Nsbag2
(g3
g4
Ntp993
Rp994
(dp995
g8
g11
sg160
Nsg161
(dp996
sg163
Nsg26
g29
sg164
(lp997
I5
aI18
asg166
Nsg167
VPirkei Avot 5:18
p998
sg169
(lp999
sg171
g121
sg172
Nsg173
(lp1000
I5
aI18
asg175
Nsg176
g998
sg177
(lp1001
sg179
g62
sg180
Nsg181
Nsg182
Nsbag2
(g3
g4
Ntp1002
Rp1003
(dp1004
g8
g11
sg160
Nsg161
(dp1005
sg163
Nsg26
g29
sg164
(lp1006
I5
aI19
asg166
Nsg167
VPirkei Avot 5:19
p1007
sg169
(lp1008
sg171
g121
sg172
Nsg173
(lp1009
I5
aI19
asg175
Nsg176
g1007
sg177
(lp1010
sg179
g62
sg180
Nsg181
Nsg182
Nsbag2
(g3
g4
Ntp1011
Rp1012
(dp1013
g8
g11
sg160
Nsg161
(dp1014
sg163
Nsg26
g29
sg164
(lp1015
I5
aI20
asg166
Nsg167
VPirkei Avot 5:20
p1016
sg169
(lp1017
sg171
g121
sg172
Nsg173
(lp1018
I5
aI20
asg175
Nsg176
g1016
sg177
(lp1019
sg179
g62
sg180
Nsg181
Nsg182
Nsbag2
(g3
g4
Ntp1020
Rp1021
(dp1022
g8
g11
sg160
Nsg161
(dp1023
sg163
Nsg26
g29
sg164
(lp1024
I5
aI21
asg166
Nsg167
VPirkei Avot 5:21
p1025
sg169
(lp1026
sg171
g121
sg172
Nsg173
(lp1027
I5
aI21
asg175
Nsg176
g1025
sg177
(lp1028
sg179
g62
sg180
Nsg181
Nsg182
Nsbag2
(g3
g4
Ntp1029
Rp1030
(dp1031
g8
g11
sg160
Nsg161
(dp1032
sg163
Nsg26
g29
sg164
(lp1033
I5
aI22
asg166
Nsg167
VPirkei Avot 5:22
p1034
sg169
(lp1035
sg171
g121
sg172
Nsg173
(lp1036
I5
aI22
asg175
Nsg176
g1034
sg177
(lp1037
sg179
g62
sg180
Nsg181
Nsg182
Nsbag2
(g3
g4
Ntp1038
Rp1039
(dp1040
g8
g11
sg160
Nsg161
(dp1041
sg163
Nsg26
g29
sg164
(lp1042
I5
aI23
asg166
Nsg167
VPirkei Avot 5:23
p1043
sg169
(lp1044
sg171
g121
sg172
Nsg173
(lp1045
I5
aI23
asg175
Nsg176
g1043
sg177
(lp1046
sg179
g62
sg180
Nsg181
Nsg182
Nsbag2
(g3
g4
Ntp1047
Rp1048
(dp1049
g8
g11
sg160
Nsg161
(dp1050
sg163
Nsg26
g29
sg164
(lp1051
I6
aI1
asg166
Nsg167
VPirkei Avot 6:1
p1052
sg169
(lp1053
sg171
g121
sg172
Nsg173
(lp1054
I6
aI1
asg175
Nsg176
g1052
sg177
(lp1055
sg179
g62
sg180
Nsg181
Nsg182
Nsbag2
(g3
g4
Ntp1056
Rp1057
(dp1058
g8
g11
sg160
Nsg161
(dp1059
sg163
Nsg26
g29
sg164
(lp1060
I6
aI2
asg166
Nsg167
VPirkei Avot 6:2
p1061
sg169
(lp1062
sg171
g121
sg172
Nsg173
(lp1063
I6
aI2
asg175
Nsg176
g1061
sg177
(lp1064
sg179
g62
sg180
Nsg181
Nsg182
Nsbag2
(g3
g4
Ntp1065
Rp1066
(dp1067
g8
g11
sg160
Nsg161
(dp1068
sg163
Nsg26
g29
sg164
(lp1069
I6
aI3
asg166
Nsg167
VPirkei Avot 6:3
p1070
sg169
(lp1071
sg171
g121
sg172
Nsg173
(lp1072
I6
aI3
asg175
Nsg176
g1070
sg177
(lp1073
sg179
g62
sg180
Nsg181
Nsg182
Nsbag2
(g3
g4
Ntp1074
Rp1075
(dp1076
g8
g11
sg160
Nsg161
(dp1077
sg163
Nsg26
g29
sg164
(lp1078
I6
aI4
asg166
Nsg167
VPirkei Avot 6:4
p1079
sg169
(lp1080
sg171
g121
sg172
Nsg173
(lp1081
I6
aI4
asg175
Nsg176
g1079
sg177
(lp1082
sg179
g62
sg180
Nsg181
Nsg182
Nsbag2
(g3
g4
Ntp1083
Rp1084
(dp1085
g8
g11
sg160
Nsg161
(dp1086
sg163
Nsg26
g29
sg164
(lp1087
I6
aI5
asg166
Nsg167
VPirkei Avot 6:5
p1088
sg169
(lp1089
sg171
g121
sg172
Nsg173
(lp1090
I6
aI5
asg175
Nsg176
g1088
sg177
(lp1091
sg179
g62
sg180
Nsg181
Nsg182
Nsbag2
(g3
g4
Ntp1092
Rp1093
(dp1094
g8
g11
sg160
Nsg161
(dp1095
sg163
Nsg26
g29
sg164
(lp1096
I6
aI6
asg166
Nsg167
VPirkei Avot 6:6
p1097
sg169
(lp1098
sg171
g121
sg172
Nsg173
(lp1099
I6
aI6
asg175
Nsg176
g1097
sg177
(lp1100
sg179
g62
sg180
Nsg181
Nsg182
Nsbag2
(g3
g4
Ntp1101
Rp1102
(dp1103
g8
g11
sg160
Nsg161
(dp1104
sg163
Nsg26
g29
sg164
(lp1105
I6
aI7
asg166
Nsg167
VPirkei Avot 6:7
p1106
sg169
(lp1107
sg171
g121
sg172
Nsg173
(lp1108
I6
aI7
asg175
Nsg176
g1106
sg177
(lp1109
sg179
g62
sg180
Nsg181
Nsg182
Nsbag2
(g3
g4
Ntp1110
Rp1111
(dp1112
g8
g11
sg160
Nsg161
(dp1113
sg163
Nsg26
g29
sg164
(lp1114
I6
aI8
asg166
Nsg167
VPirkei Avot 6:8
p1115
sg169
(lp1116
sg171
g121
sg172
Nsg173
(lp1117
I6
aI8
asg175
Nsg176
g1115
sg177
(lp1118
sg179
g62
sg180
Nsg181
Nsg182
Nsbag2
(g3
g4
Ntp1119
Rp1120
(dp1121
g8
g11
sg160
Nsg161
(dp1122
sg163
Nsg26
g29
sg164
(lp1123
I6
aI9
asg166
Nsg167
VPirkei Avot 6:9
p1124
sg169
(lp1125
sg171
g121
sg172
Nsg173
(lp1126
I6
aI9
asg175
Nsg176
g1124
sg177
(lp1127
sg179
g62
sg180
Nsg181
Nsg182
Nsbag2
(g3
g4
Ntp1128
Rp1129
(dp1130
g8
g11
sg160
Nsg161
(dp1131
sg163
Nsg26
g29
sg164
(lp1132
I6
aI10
asg166
Nsg167
VPirkei Avot 6:10
p1133
sg169
(lp1134
sg171
g121
sg172
Nsg173
(lp1135
I6
aI10
asg175
Nsg176
g1133
sg177
(lp1136
sg179
g62
sg180
Nsg181
Nsg182
Nsbag2
(g3
g4
Ntp1137
Rp1138
(dp1139
g8
g11
sg160
Nsg161
(dp1140
sg163
Nsg26
g29
sg164
(lp1141
I6
aI11
asg166
Nsg167
VPirkei Avot 6:11
p1142
sg169
(lp1143
sg171
g121
sg172
Nsg173
(lp1144
I6
aI11
asg175
Nsg176
g1142
sg177
(lp1145
sg179
g62
sg180
Nsg181
Nsg182
Nsbatp1146
.