((lp0
I0
aI19
aI39
aI47
aI61
aI71
aI89
aI104
aI123
aI136
aI142
aI156
aI175
aI197
aI207
aI218
aI238
aI254
aI263
aI280
aI294
aI310
aI326
aI337
aI356
aI370
aI383
aI392
aI406
aI423
aI443
aI463
aI477
aI505
aI520
aI537
aI559
aI572
aI583
aI594
aI609
aI634
aI656
aI675
aI691
aI704
aI716
aI731
aI747
aI766
aI773
aI780
aI794
aI804
aI818
aI836
aI854
aI866
aI885
aI904
aI920
aI935
aI948
aI966
aI985
aI994
aI1006
aI1036
aI1055
aI1075
aI1093
aI1100
aI1121
aI1146
aI1175
aI1192
aI1206
aI1221
aI1239
aI1248
aI1263
aI1270
aI1278
aI1286
aI1294
a(lp1
ccopy_reg
_reconstructor
p2
(csefaria.model.text
Ref
p3
c__builtin__
object
p4
Ntp5
Rp6
(dp7
S'index_node'
p8
g2
(csefaria.model.schema
JaggedArrayNode
p9
g4
Ntp10
Rp11
(dp12
S'_address'
p13
(lp14
VRuth
p15
asS'_full_titles'
p16
(dp17
sVnodeType
p18
VJaggedArrayNode
p19
sS'parent'
p20
NsVaddressTypes
p21
(lp22
VInteger
p23
aVInteger
p24
asS'default'
p25
I00
sS'index'
p26
g2
(csefaria.model.text
Index
p27
g4
Ntp28
Rp29
(dp30
S'_id'
p31
g2
(cbson.objectid
ObjectId
p32
g4
Ntp33
Rp34
S'NJ\xb8l\xed\xba\xb4X3\x00\x00\x1e'
p35
bsS'pkeys_orig_values'
p36
(dp37
S'title'
p38
VRuth
p39
ssS'pubDate'
p40
V1488
p41
sS'compDate'
p42
V-650
p43
sS'pubPlace'
p44
VSoncino
p45
sS'compPlace'
p46
VJudea/Israel
p47
sS'enDesc'
p48
VRuth (Book of Ruth) is the second of the five Megillot (scrolls) of Ketuvim (Writings) the last section of the Tanakh (Bible). The book tells of Ruth's accepting the God of the Israelites as her God and the Israelite people as her own. In Ruth 1:16 and 17 Ruth tells Naomi, her Israelite mother in law, "Where you go I will go, and where you stay I will stay. Your people will be my people and your God my God. Where you die I will die, and there I will be buried. May the Lord deal with me, be it ever so severely, if even death separates you and me." The book is held in esteem by Jews who fall under the category of Jews-by-choice, as is evidenced by the considerable presence of Boaz in rabbinic literature. The "Book of Ruth" also functions liturgically, as it is read during the Jewish holiday of Shavuot ("Weeks").
p49
sS'order'
p50
(lp51
I31
aI5
asS'struct_objs'
p52
(dp53
sS'nodes'
p54
g11
sS'errorMargin'
p55
V250
p56
sS'_title'
p57
g39
sS'categories'
p58
(lp59
VTanakh
p60
aVWritings
p61
asS'schema'
p62
(dp63
g18
g19
sg21
g22
sVlengths
p64
(lp65
I4
aI85
asVdepth
p66
I2
sVtitles
p67
(lp68
(dp69
Vlang
p70
Ven
p71
sVtext
p72
VRut
p73
sa(dp74
Vlang
p75
Vhe
p76
sVtext
p77
V\u05e8\u05d5\u05ea
p78
sVprimary
p79
I01
sa(dp80
Vlang
p81
Ven
p82
sVtext
p83
VRuth
p84
sVprimary
p85
I01
sasVkey
p86
g15
sVsectionNames
p87
(lp88
VChapter
p89
aVVerse
p90
assbsS'_primary_title'
p91
(dp92
sS'title_group'
p93
g2
(csefaria.model.schema
TitleGroup
p94
g4
Ntp95
Rp96
(dp97
g91
(dp98
S'en'
p99
g84
ssS'titles'
p100
g68
sbsS'_addressTypes'
p101
(lp102
g2
(csefaria.model.schema
AddressInteger
p103
g4
Ntp104
Rp105
(dp106
S'length'
p107
I4
sg50
I0
sbag2
(g103
g4
Ntp108
Rp109
(dp110
g107
Nsg50
I1
sbasS'sharedTitle'
p111
Nsg64
g65
sg66
I2
sS'_full_title'
p112
(dp113
g99
g84
ssS'key'
p114
g15
sS'checkFirst'
p115
NsS'_regexes'
p116
(dp117
sS'_leaf_nodes'
p118
(lp119
sg87
g88
sS'children'
p120
(lp121
sbsS'_range_index'
p122
NsS'_context'
p123
(dp124
sS'_padded'
p125
Nsg26
g29
sS'sections'
p126
(lp127
I1
aI1
asS'_first_spanned_ref'
p128
NsS'tref'
p129
VRuth 1:1
p130
sS'_spanned_refs'
p131
(lp132
sS'book'
p133
g84
sS'_range_depth'
p134
NsS'toSections'
p135
(lp136
I1
aI1
asS'_url'
p137
NsS'_normal'
p138
g130
sS'_ranged_refs'
p139
(lp140
sS'type'
p141
g60
sS'_prev'
p142
NsS'_he_normal'
p143
NsS'_next'
p144
Nsbag2
(g3
g4
Ntp145
Rp146
(dp147
g8
g11
sg122
Nsg123
(dp148
sg125
Nsg26
g29
sg126
(lp149
I1
aI2
asg128
Nsg129
VRuth 1:2
p150
sg131
(lp151
sg133
g84
sg134
Nsg135
(lp152
I1
aI2
asg137
Nsg138
g150
sg139
(lp153
sg141
g60
sg142
Nsg143
Nsg144
Nsbag2
(g3
g4
Ntp154
Rp155
(dp156
g8
g11
sg122
Nsg123
(dp157
sg125
Nsg26
g29
sg126
(lp158
I1
aI3
asg128
Nsg129
VRuth 1:3
p159
sg131
(lp160
sg133
g84
sg134
Nsg135
(lp161
I1
aI3
asg137
Nsg138
g159
sg139
(lp162
sg141
g60
sg142
Nsg143
Nsg144
Nsbag2
(g3
g4
Ntp163
Rp164
(dp165
g8
g11
sg122
Nsg123
(dp166
sg125
Nsg26
g29
sg126
(lp167
I1
aI4
asg128
Nsg129
VRuth 1:4
p168
sg131
(lp169
sg133
g84
sg134
Nsg135
(lp170
I1
aI4
asg137
Nsg138
g168
sg139
(lp171
sg141
g60
sg142
Nsg143
Nsg144
Nsbag2
(g3
g4
Ntp172
Rp173
(dp174
g8
g11
sg122
Nsg123
(dp175
sg125
Nsg26
g29
sg126
(lp176
I1
aI5
asg128
Nsg129
VRuth 1:5
p177
sg131
(lp178
sg133
g84
sg134
Nsg135
(lp179
I1
aI5
asg137
Nsg138
g177
sg139
(lp180
sg141
g60
sg142
Nsg143
Nsg144
Nsbag2
(g3
g4
Ntp181
Rp182
(dp183
g8
g11
sg122
Nsg123
(dp184
sg125
Nsg26
g29
sg126
(lp185
I1
aI6
asg128
Nsg129
VRuth 1:6
p186
sg131
(lp187
sg133
g84
sg134
Nsg135
(lp188
I1
aI6
asg137
Nsg138
g186
sg139
(lp189
sg141
g60
sg142
Nsg143
Nsg144
Nsbag2
(g3
g4
Ntp190
Rp191
(dp192
g8
g11
sg122
Nsg123
(dp193
sg125
Nsg26
g29
sg126
(lp194
I1
aI7
asg128
Nsg129
VRuth 1:7
p195
sg131
(lp196
sg133
g84
sg134
Nsg135
(lp197
I1
aI7
asg137
Nsg138
g195
sg139
(lp198
sg141
g60
sg142
Nsg143
Nsg144
Nsbag2
(g3
g4
Ntp199
Rp200
(dp201
g8
g11
sg122
Nsg123
(dp202
sg125
Nsg26
g29
sg126
(lp203
I1
aI8
asg128
Nsg129
VRuth 1:8
p204
sg131
(lp205
sg133
g84
sg134
Nsg135
(lp206
I1
aI8
asg137
Nsg138
g204
sg139
(lp207
sg141
g60
sg142
Nsg143
Nsg144
Nsbag2
(g3
g4
Ntp208
Rp209
(dp210
g8
g11
sg122
Nsg123
(dp211
sg125
Nsg26
g29
sg126
(lp212
I1
aI9
asg128
Nsg129
VRuth 1:9
p213
sg131
(lp214
sg133
g84
sg134
Nsg135
(lp215
I1
aI9
asg137
Nsg138
g213
sg139
(lp216
sg141
g60
sg142
Nsg143
Nsg144
Nsbag2
(g3
g4
Ntp217
Rp218
(dp219
g8
g11
sg122
Nsg123
(dp220
sg125
Nsg26
g29
sg126
(lp221
I1
aI10
asg128
Nsg129
VRuth 1:10
p222
sg131
(lp223
sg133
g84
sg134
Nsg135
(lp224
I1
aI10
asg137
Nsg138
g222
sg139
(lp225
sg141
g60
sg142
Nsg143
Nsg144
Nsbag2
(g3
g4
Ntp226
Rp227
(dp228
g8
g11
sg122
Nsg123
(dp229
sg125
Nsg26
g29
sg126
(lp230
I1
aI11
asg128
Nsg129
VRuth 1:11
p231
sg131
(lp232
sg133
g84
sg134
Nsg135
(lp233
I1
aI11
asg137
Nsg138
g231
sg139
(lp234
sg141
g60
sg142
Nsg143
Nsg144
Nsbag2
(g3
g4
Ntp235
Rp236
(dp237
g8
g11
sg122
Nsg123
(dp238
sg125
Nsg26
g29
sg126
(lp239
I1
aI12
asg128
Nsg129
VRuth 1:12
p240
sg131
(lp241
sg133
g84
sg134
Nsg135
(lp242
I1
aI12
asg137
Nsg138
g240
sg139
(lp243
sg141
g60
sg142
Nsg143
Nsg144
Nsbag2
(g3
g4
Ntp244
Rp245
(dp246
g8
g11
sg122
Nsg123
(dp247
sg125
Nsg26
g29
sg126
(lp248
I1
aI13
asg128
Nsg129
VRuth 1:13
p249
sg131
(lp250
sg133
g84
sg134
Nsg135
(lp251
I1
aI13
asg137
Nsg138
g249
sg139
(lp252
sg141
g60
sg142
Nsg143
Nsg144
Nsbag2
(g3
g4
Ntp253
Rp254
(dp255
g8
g11
sg122
Nsg123
(dp256
sg125
Nsg26
g29
sg126
(lp257
I1
aI14
asg128
Nsg129
VRuth 1:14
p258
sg131
(lp259
sg133
g84
sg134
Nsg135
(lp260
I1
aI14
asg137
Nsg138
g258
sg139
(lp261
sg141
g60
sg142
Nsg143
Nsg144
Nsbag2
(g3
g4
Ntp262
Rp263
(dp264
g8
g11
sg122
Nsg123
(dp265
sg125
Nsg26
g29
sg126
(lp266
I1
aI15
asg128
Nsg129
VRuth 1:15
p267
sg131
(lp268
sg133
g84
sg134
Nsg135
(lp269
I1
aI15
asg137
Nsg138
g267
sg139
(lp270
sg141
g60
sg142
Nsg143
Nsg144
Nsbag2
(g3
g4
Ntp271
Rp272
(dp273
g8
g11
sg122
Nsg123
(dp274
sg125
Nsg26
g29
sg126
(lp275
I1
aI16
asg128
Nsg129
VRuth 1:16
p276
sg131
(lp277
sg133
g84
sg134
Nsg135
(lp278
I1
aI16
asg137
Nsg138
g276
sg139
(lp279
sg141
g60
sg142
Nsg143
Nsg144
Nsbag2
(g3
g4
Ntp280
Rp281
(dp282
g8
g11
sg122
Nsg123
(dp283
sg125
Nsg26
g29
sg126
(lp284
I1
aI17
asg128
Nsg129
VRuth 1:17
p285
sg131
(lp286
sg133
g84
sg134
Nsg135
(lp287
I1
aI17
asg137
Nsg138
g285
sg139
(lp288
sg141
g60
sg142
Nsg143
Nsg144
Nsbag2
(g3
g4
Ntp289
Rp290
(dp291
g8
g11
sg122
Nsg123
(dp292
sg125
Nsg26
g29
sg126
(lp293
I1
aI18
asg128
Nsg129
VRuth 1:18
p294
sg131
(lp295
sg133
g84
sg134
Nsg135
(lp296
I1
aI18
asg137
Nsg138
g294
sg139
(lp297
sg141
g60
sg142
Nsg143
Nsg144
Nsbag2
(g3
g4
Ntp298
Rp299
(dp300
g8
g11
sg122
Nsg123
(dp301
sg125
Nsg26
g29
sg126
(lp302
I1
aI19
asg128
Nsg129
VRuth 1:19
p303
sg131
(lp304
sg133
g84
sg134
Nsg135
(lp305
I1
aI19
asg137
Nsg138
g303
sg139
(lp306
sg141
g60
sg142
Nsg143
Nsg144
Nsbag2
(g3
g4
Ntp307
Rp308
(dp309
g8
g11
sg122
Nsg123
(dp310
sg125
Nsg26
g29
sg126
(lp311
I1
aI20
asg128
Nsg129
VRuth 1:20
p312
sg131
(lp313
sg133
g84
sg134
Nsg135
(lp314
I1
aI20
asg137
Nsg138
g312
sg139
(lp315
sg141
g60
sg142
Nsg143
Nsg144
Nsbag2
(g3
g4
Ntp316
Rp317
(dp318
g8
g11
sg122
Nsg123
(dp319
sg125
Nsg26
g29
sg126
(lp320
I1
aI21
asg128
Nsg129
VRuth 1:21
p321
sg131
(lp322
sg133
g84
sg134
Nsg135
(lp323
I1
aI21
asg137
Nsg138
g321
sg139
(lp324
sg141
g60
sg142
Nsg143
Nsg144
Nsbag2
(g3
g4
Ntp325
Rp326
(dp327
g8
g11
sg122
Nsg123
(dp328
sg125
Nsg26
g29
sg126
(lp329
I1
aI22
asg128
Nsg129
VRuth 1:22
p330
sg131
(lp331
sg133
g84
sg134
Nsg135
(lp332
I1
aI22
asg137
Nsg138
g330
sg139
(lp333
sg141
g60
sg142
Nsg143
Nsg144
Nsbag2
(g3
g4
Ntp334
Rp335
(dp336
g8
g11
sg122
Nsg123
(dp337
sg125
Nsg26
g29
sg126
(lp338
I2
aI1
asg128
Nsg129
VRuth 2:1
p339
sg131
(lp340
sg133
g84
sg134
Nsg135
(lp341
I2
aI1
asg137
Nsg138
g339
sg139
(lp342
sg141
g60
sg142
Nsg143
Nsg144
Nsbag2
(g3
g4
Ntp343
Rp344
(dp345
g8
g11
sg122
Nsg123
(dp346
sg125
Nsg26
g29
sg126
(lp347
I2
aI2
asg128
Nsg129
VRuth 2:2
p348
sg131
(lp349
sg133
g84
sg134
Nsg135
(lp350
I2
aI2
asg137
Nsg138
g348
sg139
(lp351
sg141
g60
sg142
Nsg143
Nsg144
Nsbag2
(g3
g4
Ntp352
Rp353
(dp354
g8
g11
sg122
Nsg123
(dp355
sg125
Nsg26
g29
sg126
(lp356
I2
aI3
asg128
Nsg129
VRuth 2:3
p357
sg131
(lp358
sg133
g84
sg134
Nsg135
(lp359
I2
aI3
asg137
Nsg138
g357
sg139
(lp360
sg141
g60
sg142
Nsg143
Nsg144
Nsbag2
(g3
g4
Ntp361
Rp362
(dp363
g8
g11
sg122
Nsg123
(dp364
sg125
Nsg26
g29
sg126
(lp365
I2
aI4
asg128
Nsg129
VRuth 2:4
p366
sg131
(lp367
sg133
g84
sg134
Nsg135
(lp368
I2
aI4
asg137
Nsg138
g366
sg139
(lp369
sg141
g60
sg142
Nsg143
Nsg144
Nsbag2
(g3
g4
Ntp370
Rp371
(dp372
g8
g11
sg122
Nsg123
(dp373
sg125
Nsg26
g29
sg126
(lp374
I2
aI5
asg128
Nsg129
VRuth 2:5
p375
sg131
(lp376
sg133
g84
sg134
Nsg135
(lp377
I2
aI5
asg137
Nsg138
g375
sg139
(lp378
sg141
g60
sg142
Nsg143
Nsg144
Nsbag2
(g3
g4
Ntp379
Rp380
(dp381
g8
g11
sg122
Nsg123
(dp382
sg125
Nsg26
g29
sg126
(lp383
I2
aI6
asg128
Nsg129
VRuth 2:6
p384
sg131
(lp385
sg133
g84
sg134
Nsg135
(lp386
I2
aI6
asg137
Nsg138
g384
sg139
(lp387
sg141
g60
sg142
Nsg143
Nsg144
Nsbag2
(g3
g4
Ntp388
Rp389
(dp390
g8
g11
sg122
Nsg123
(dp391
sg125
Nsg26
g29
sg126
(lp392
I2
aI7
asg128
Nsg129
VRuth 2:7
p393
sg131
(lp394
sg133
g84
sg134
Nsg135
(lp395
I2
aI7
asg137
Nsg138
g393
sg139
(lp396
sg141
g60
sg142
Nsg143
Nsg144
Nsbag2
(g3
g4
Ntp397
Rp398
(dp399
g8
g11
sg122
Nsg123
(dp400
sg125
Nsg26
g29
sg126
(lp401
I2
aI8
asg128
Nsg129
VRuth 2:8
p402
sg131
(lp403
sg133
g84
sg134
Nsg135
(lp404
I2
aI8
asg137
Nsg138
g402
sg139
(lp405
sg141
g60
sg142
Nsg143
Nsg144
Nsbag2
(g3
g4
Ntp406
Rp407
(dp408
g8
g11
sg122
Nsg123
(dp409
sg125
Nsg26
g29
sg126
(lp410
I2
aI9
asg128
Nsg129
VRuth 2:9
p411
sg131
(lp412
sg133
g84
sg134
Nsg135
(lp413
I2
aI9
asg137
Nsg138
g411
sg139
(lp414
sg141
g60
sg142
Nsg143
Nsg144
Nsbag2
(g3
g4
Ntp415
Rp416
(dp417
g8
g11
sg122
Nsg123
(dp418
sg125
Nsg26
g29
sg126
(lp419
I2
aI10
asg128
Nsg129
VRuth 2:10
p420
sg131
(lp421
sg133
g84
sg134
Nsg135
(lp422
I2
aI10
asg137
Nsg138
g420
sg139
(lp423
sg141
g60
sg142
Nsg143
Nsg144
Nsbag2
(g3
g4
Ntp424
Rp425
(dp426
g8
g11
sg122
Nsg123
(dp427
sg125
Nsg26
g29
sg126
(lp428
I2
aI11
asg128
Nsg129
VRuth 2:11
p429
sg131
(lp430
sg133
g84
sg134
Nsg135
(lp431
I2
aI11
asg137
Nsg138
g429
sg139
(lp432
sg141
g60
sg142
Nsg143
Nsg144
Nsbag2
(g3
g4
Ntp433
Rp434
(dp435
g8
g11
sg122
Nsg123
(dp436
sg125
Nsg26
g29
sg126
(lp437
I2
aI12
asg128
Nsg129
VRuth 2:12
p438
sg131
(lp439
sg133
g84
sg134
Nsg135
(lp440
I2
aI12
asg137
Nsg138
g438
sg139
(lp441
sg141
g60
sg142
Nsg143
Nsg144
Nsbag2
(g3
g4
Ntp442
Rp443
(dp444
g8
g11
sg122
Nsg123
(dp445
sg125
Nsg26
g29
sg126
(lp446
I2
aI13
asg128
Nsg129
VRuth 2:13
p447
sg131
(lp448
sg133
g84
sg134
Nsg135
(lp449
I2
aI13
asg137
Nsg138
g447
sg139
(lp450
sg141
g60
sg142
Nsg143
Nsg144
Nsbag2
(g3
g4
Ntp451
Rp452
(dp453
g8
g11
sg122
Nsg123
(dp454
sg125
Nsg26
g29
sg126
(lp455
I2
aI14
asg128
Nsg129
VRuth 2:14
p456
sg131
(lp457
sg133
g84
sg134
Nsg135
(lp458
I2
aI14
asg137
Nsg138
g456
sg139
(lp459
sg141
g60
sg142
Nsg143
Nsg144
Nsbag2
(g3
g4
Ntp460
Rp461
(dp462
g8
g11
sg122
Nsg123
(dp463
sg125
Nsg26
g29
sg126
(lp464
I2
aI15
asg128
Nsg129
VRuth 2:15
p465
sg131
(lp466
sg133
g84
sg134
Nsg135
(lp467
I2
aI15
asg137
Nsg138
g465
sg139
(lp468
sg141
g60
sg142
Nsg143
Nsg144
Nsbag2
(g3
g4
Ntp469
Rp470
(dp471
g8
g11
sg122
Nsg123
(dp472
sg125
Nsg26
g29
sg126
(lp473
I2
aI16
asg128
Nsg129
VRuth 2:16
p474
sg131
(lp475
sg133
g84
sg134
Nsg135
(lp476
I2
aI16
asg137
Nsg138
g474
sg139
(lp477
sg141
g60
sg142
Nsg143
Nsg144
Nsbag2
(g3
g4
Ntp478
Rp479
(dp480
g8
g11
sg122
Nsg123
(dp481
sg125
Nsg26
g29
sg126
(lp482
I2
aI17
asg128
Nsg129
VRuth 2:17
p483
sg131
(lp484
sg133
g84
sg134
Nsg135
(lp485
I2
aI17
asg137
Nsg138
g483
sg139
(lp486
sg141
g60
sg142
Nsg143
Nsg144
Nsbag2
(g3
g4
Ntp487
Rp488
(dp489
g8
g11
sg122
Nsg123
(dp490
sg125
Nsg26
g29
sg126
(lp491
I2
aI18
asg128
Nsg129
VRuth 2:18
p492
sg131
(lp493
sg133
g84
sg134
Nsg135
(lp494
I2
aI18
asg137
Nsg138
g492
sg139
(lp495
sg141
g60
sg142
Nsg143
Nsg144
Nsbag2
(g3
g4
Ntp496
Rp497
(dp498
g8
g11
sg122
Nsg123
(dp499
sg125
Nsg26
g29
sg126
(lp500
I2
aI19
asg128
Nsg129
VRuth 2:19
p501
sg131
(lp502
sg133
g84
sg134
Nsg135
(lp503
I2
aI19
asg137
Nsg138
g501
sg139
(lp504
sg141
g60
sg142
Nsg143
Nsg144
Nsbag2
(g3
g4
Ntp505
Rp506
(dp507
g8
g11
sg122
Nsg123
(dp508
sg125
Nsg26
g29
sg126
(lp509
I2
aI20
asg128
Nsg129
VRuth 2:20
p510
sg131
(lp511
sg133
g84
sg134
Nsg135
(lp512
I2
aI20
asg137
Nsg138
g510
sg139
(lp513
sg141
g60
sg142
Nsg143
Nsg144
Nsbag2
(g3
g4
Ntp514
Rp515
(dp516
g8
g11
sg122
Nsg123
(dp517
sg125
Nsg26
g29
sg126
(lp518
I2
aI21
asg128
Nsg129
VRuth 2:21
p519
sg131
(lp520
sg133
g84
sg134
Nsg135
(lp521
I2
aI21
asg137
Nsg138
g519
sg139
(lp522
sg141
g60
sg142
Nsg143
Nsg144
Nsbag2
(g3
g4
Ntp523
Rp524
(dp525
g8
g11
sg122
Nsg123
(dp526
sg125
Nsg26
g29
sg126
(lp527
I2
aI22
asg128
Nsg129
VRuth 2:22
p528
sg131
(lp529
sg133
g84
sg134
Nsg135
(lp530
I2
aI22
asg137
Nsg138
g528
sg139
(lp531
sg141
g60
sg142
Nsg143
Nsg144
Nsbag2
(g3
g4
Ntp532
Rp533
(dp534
g8
g11
sg122
Nsg123
(dp535
sg125
Nsg26
g29
sg126
(lp536
I2
aI23
asg128
Nsg129
VRuth 2:23
p537
sg131
(lp538
sg133
g84
sg134
Nsg135
(lp539
I2
aI23
asg137
Nsg138
g537
sg139
(lp540
sg141
g60
sg142
Nsg143
Nsg144
Nsbag2
(g3
g4
Ntp541
Rp542
(dp543
g8
g11
sg122
Nsg123
(dp544
sg125
Nsg26
g29
sg126
(lp545
I3
aI1
asg128
Nsg129
VRuth 3:1
p546
sg131
(lp547
sg133
g84
sg134
Nsg135
(lp548
I3
aI1
asg137
Nsg138
g546
sg139
(lp549
sg141
g60
sg142
Nsg143
Nsg144
Nsbag2
(g3
g4
Ntp550
Rp551
(dp552
g8
g11
sg122
Nsg123
(dp553
sg125
Nsg26
g29
sg126
(lp554
I3
aI2
asg128
Nsg129
VRuth 3:2
p555
sg131
(lp556
sg133
g84
sg134
Nsg135
(lp557
I3
aI2
asg137
Nsg138
g555
sg139
(lp558
sg141
g60
sg142
Nsg143
Nsg144
Nsbag2
(g3
g4
Ntp559
Rp560
(dp561
g8
g11
sg122
Nsg123
(dp562
sg125
Nsg26
g29
sg126
(lp563
I3
aI3
asg128
Nsg129
VRuth 3:3
p564
sg131
(lp565
sg133
g84
sg134
Nsg135
(lp566
I3
aI3
asg137
Nsg138
g564
sg139
(lp567
sg141
g60
sg142
Nsg143
Nsg144
Nsbag2
(g3
g4
Ntp568
Rp569
(dp570
g8
g11
sg122
Nsg123
(dp571
sg125
Nsg26
g29
sg126
(lp572
I3
aI4
asg128
Nsg129
VRuth 3:4
p573
sg131
(lp574
sg133
g84
sg134
Nsg135
(lp575
I3
aI4
asg137
Nsg138
g573
sg139
(lp576
sg141
g60
sg142
Nsg143
Nsg144
Nsbag2
(g3
g4
Ntp577
Rp578
(dp579
g8
g11
sg122
Nsg123
(dp580
sg125
Nsg26
g29
sg126
(lp581
I3
aI5
asg128
Nsg129
VRuth 3:5
p582
sg131
(lp583
sg133
g84
sg134
Nsg135
(lp584
I3
aI5
asg137
Nsg138
g582
sg139
(lp585
sg141
g60
sg142
Nsg143
Nsg144
Nsbag2
(g3
g4
Ntp586
Rp587
(dp588
g8
g11
sg122
Nsg123
(dp589
sg125
Nsg26
g29
sg126
(lp590
I3
aI6
asg128
Nsg129
VRuth 3:6
p591
sg131
(lp592
sg133
g84
sg134
Nsg135
(lp593
I3
aI6
asg137
Nsg138
g591
sg139
(lp594
sg141
g60
sg142
Nsg143
Nsg144
Nsbag2
(g3
g4
Ntp595
Rp596
(dp597
g8
g11
sg122
Nsg123
(dp598
sg125
Nsg26
g29
sg126
(lp599
I3
aI7
asg128
Nsg129
VRuth 3:7
p600
sg131
(lp601
sg133
g84
sg134
Nsg135
(lp602
I3
aI7
asg137
Nsg138
g600
sg139
(lp603
sg141
g60
sg142
Nsg143
Nsg144
Nsbag2
(g3
g4
Ntp604
Rp605
(dp606
g8
g11
sg122
Nsg123
(dp607
sg125
Nsg26
g29
sg126
(lp608
I3
aI8
asg128
Nsg129
VRuth 3:8
p609
sg131
(lp610
sg133
g84
sg134
Nsg135
(lp611
I3
aI8
asg137
Nsg138
g609
sg139
(lp612
sg141
g60
sg142
Nsg143
Nsg144
Nsbag2
(g3
g4
Ntp613
Rp614
(dp615
g8
g11
sg122
Nsg123
(dp616
sg125
Nsg26
g29
sg126
(lp617
I3
aI9
asg128
Nsg129
VRuth 3:9
p618
sg131
(lp619
sg133
g84
sg134
Nsg135
(lp620
I3
aI9
asg137
Nsg138
g618
sg139
(lp621
sg141
g60
sg142
Nsg143
Nsg144
Nsbag2
(g3
g4
Ntp622
Rp623
(dp624
g8
g11
sg122
Nsg123
(dp625
sg125
Nsg26
g29
sg126
(lp626
I3
aI10
asg128
Nsg129
VRuth 3:10
p627
sg131
(lp628
sg133
g84
sg134
Nsg135
(lp629
I3
aI10
asg137
Nsg138
g627
sg139
(lp630
sg141
g60
sg142
Nsg143
Nsg144
Nsbag2
(g3
g4
Ntp631
Rp632
(dp633
g8
g11
sg122
Nsg123
(dp634
sg125
Nsg26
g29
sg126
(lp635
I3
aI11
asg128
Nsg129
VRuth 3:11
p636
sg131
(lp637
sg133
g84
sg134
Nsg135
(lp638
I3
aI11
asg137
Nsg138
g636
sg139
(lp639
sg141
g60
sg142
Nsg143
Nsg144
Nsbag2
(g3
g4
Ntp640
Rp641
(dp642
g8
g11
sg122
Nsg123
(dp643
sg125
Nsg26
g29
sg126
(lp644
I3
aI12
asg128
Nsg129
VRuth 3:12
p645
sg131
(lp646
sg133
g84
sg134
Nsg135
(lp647
I3
aI12
asg137
Nsg138
g645
sg139
(lp648
sg141
g60
sg142
Nsg143
Nsg144
Nsbag2
(g3
g4
Ntp649
Rp650
(dp651
g8
g11
sg122
Nsg123
(dp652
sg125
Nsg26
g29
sg126
(lp653
I3
aI13
asg128
Nsg129
VRuth 3:13
p654
sg131
(lp655
sg133
g84
sg134
Nsg135
(lp656
I3
aI13
asg137
Nsg138
g654
sg139
(lp657
sg141
g60
sg142
Nsg143
Nsg144
Nsbag2
(g3
g4
Ntp658
Rp659
(dp660
g8
g11
sg122
Nsg123
(dp661
sg125
Nsg26
g29
sg126
(lp662
I3
aI14
asg128
Nsg129
VRuth 3:14
p663
sg131
(lp664
sg133
g84
sg134
Nsg135
(lp665
I3
aI14
asg137
Nsg138
g663
sg139
(lp666
sg141
g60
sg142
Nsg143
Nsg144
Nsbag2
(g3
g4
Ntp667
Rp668
(dp669
g8
g11
sg122
Nsg123
(dp670
sg125
Nsg26
g29
sg126
(lp671
I3
aI15
asg128
Nsg129
VRuth 3:15
p672
sg131
(lp673
sg133
g84
sg134
Nsg135
(lp674
I3
aI15
asg137
Nsg138
g672
sg139
(lp675
sg141
g60
sg142
Nsg143
Nsg144
Nsbag2
(g3
g4
Ntp676
Rp677
(dp678
g8
g11
sg122
Nsg123
(dp679
sg125
Nsg26
g29
sg126
(lp680
I3
aI16
asg128
Nsg129
VRuth 3:16
p681
sg131
(lp682
sg133
g84
sg134
Nsg135
(lp683
I3
aI16
asg137
Nsg138
g681
sg139
(lp684
sg141
g60
sg142
Nsg143
Nsg144
Nsbag2
(g3
g4
Ntp685
Rp686
(dp687
g8
g11
sg122
Nsg123
(dp688
sg125
Nsg26
g29
sg126
(lp689
I3
aI17
asg128
Nsg129
VRuth 3:17
p690
sg131
(lp691
sg133
g84
sg134
Nsg135
(lp692
I3
aI17
asg137
Nsg138
g690
sg139
(lp693
sg141
g60
sg142
Nsg143
Nsg144
Nsbag2
(g3
g4
Ntp694
Rp695
(dp696
g8
g11
sg122
Nsg123
(dp697
sg125
Nsg26
g29
sg126
(lp698
I3
aI18
asg128
Nsg129
VRuth 3:18
p699
sg131
(lp700
sg133
g84
sg134
Nsg135
(lp701
I3
aI18
asg137
Nsg138
g699
sg139
(lp702
sg141
g60
sg142
Nsg143
Nsg144
Nsbag2
(g3
g4
Ntp703
Rp704
(dp705
g8
g11
sg122
Nsg123
(dp706
sg125
Nsg26
g29
sg126
(lp707
I4
aI1
asg128
Nsg129
VRuth 4:1
p708
sg131
(lp709
sg133
g84
sg134
Nsg135
(lp710
I4
aI1
asg137
Nsg138
g708
sg139
(lp711
sg141
g60
sg142
Nsg143
Nsg144
Nsbag2
(g3
g4
Ntp712
Rp713
(dp714
g8
g11
sg122
Nsg123
(dp715
sg125
Nsg26
g29
sg126
(lp716
I4
aI2
asg128
Nsg129
VRuth 4:2
p717
sg131
(lp718
sg133
g84
sg134
Nsg135
(lp719
I4
aI2
asg137
Nsg138
g717
sg139
(lp720
sg141
g60
sg142
Nsg143
Nsg144
Nsbag2
(g3
g4
Ntp721
Rp722
(dp723
g8
g11
sg122
Nsg123
(dp724
sg125
Nsg26
g29
sg126
(lp725
I4
aI3
asg128
Nsg129
VRuth 4:3
p726
sg131
(lp727
sg133
g84
sg134
Nsg135
(lp728
I4
aI3
asg137
Nsg138
g726
sg139
(lp729
sg141
g60
sg142
Nsg143
Nsg144
Nsbag2
(g3
g4
Ntp730
Rp731
(dp732
g8
g11
sg122
Nsg123
(dp733
sg125
Nsg26
g29
sg126
(lp734
I4
aI4
asg128
Nsg129
VRuth 4:4
p735
sg131
(lp736
sg133
g84
sg134
Nsg135
(lp737
I4
aI4
asg137
Nsg138
g735
sg139
(lp738
sg141
g60
sg142
Nsg143
Nsg144
Nsbag2
(g3
g4
Ntp739
Rp740
(dp741
g8
g11
sg122
Nsg123
(dp742
sg125
Nsg26
g29
sg126
(lp743
I4
aI5
asg128
Nsg129
VRuth 4:5
p744
sg131
(lp745
sg133
g84
sg134
Nsg135
(lp746
I4
aI5
asg137
Nsg138
g744
sg139
(lp747
sg141
g60
sg142
Nsg143
Nsg144
Nsbag2
(g3
g4
Ntp748
Rp749
(dp750
g8
g11
sg122
Nsg123
(dp751
sg125
Nsg26
g29
sg126
(lp752
I4
aI6
asg128
Nsg129
VRuth 4:6
p753
sg131
(lp754
sg133
g84
sg134
Nsg135
(lp755
I4
aI6
asg137
Nsg138
g753
sg139
(lp756
sg141
g60
sg142
Nsg143
Nsg144
Nsbag2
(g3
g4
Ntp757
Rp758
(dp759
g8
g11
sg122
Nsg123
(dp760
sg125
Nsg26
g29
sg126
(lp761
I4
aI7
asg128
Nsg129
VRuth 4:7
p762
sg131
(lp763
sg133
g84
sg134
Nsg135
(lp764
I4
aI7
asg137
Nsg138
g762
sg139
(lp765
sg141
g60
sg142
Nsg143
Nsg144
Nsbag2
(g3
g4
Ntp766
Rp767
(dp768
g8
g11
sg122
Nsg123
(dp769
sg125
Nsg26
g29
sg126
(lp770
I4
aI8
asg128
Nsg129
VRuth 4:8
p771
sg131
(lp772
sg133
g84
sg134
Nsg135
(lp773
I4
aI8
asg137
Nsg138
g771
sg139
(lp774
sg141
g60
sg142
Nsg143
Nsg144
Nsbag2
(g3
g4
Ntp775
Rp776
(dp777
g8
g11
sg122
Nsg123
(dp778
sg125
Nsg26
g29
sg126
(lp779
I4
aI9
asg128
Nsg129
VRuth 4:9
p780
sg131
(lp781
sg133
g84
sg134
Nsg135
(lp782
I4
aI9
asg137
Nsg138
g780
sg139
(lp783
sg141
g60
sg142
Nsg143
Nsg144
Nsbag2
(g3
g4
Ntp784
Rp785
(dp786
g8
g11
sg122
Nsg123
(dp787
sg125
Nsg26
g29
sg126
(lp788
I4
aI10
asg128
Nsg129
VRuth 4:10
p789
sg131
(lp790
sg133
g84
sg134
Nsg135
(lp791
I4
aI10
asg137
Nsg138
g789
sg139
(lp792
sg141
g60
sg142
Nsg143
Nsg144
Nsbag2
(g3
g4
Ntp793
Rp794
(dp795
g8
g11
sg122
Nsg123
(dp796
sg125
Nsg26
g29
sg126
(lp797
I4
aI11
asg128
Nsg129
VRuth 4:11
p798
sg131
(lp799
sg133
g84
sg134
Nsg135
(lp800
I4
aI11
asg137
Nsg138
g798
sg139
(lp801
sg141
g60
sg142
Nsg143
Nsg144
Nsbag2
(g3
g4
Ntp802
Rp803
(dp804
g8
g11
sg122
Nsg123
(dp805
sg125
Nsg26
g29
sg126
(lp806
I4
aI12
asg128
Nsg129
VRuth 4:12
p807
sg131
(lp808
sg133
g84
sg134
Nsg135
(lp809
I4
aI12
asg137
Nsg138
g807
sg139
(lp810
sg141
g60
sg142
Nsg143
Nsg144
Nsbag2
(g3
g4
Ntp811
Rp812
(dp813
g8
g11
sg122
Nsg123
(dp814
sg125
Nsg26
g29
sg126
(lp815
I4
aI13
asg128
Nsg129
VRuth 4:13
p816
sg131
(lp817
sg133
g84
sg134
Nsg135
(lp818
I4
aI13
asg137
Nsg138
g816
sg139
(lp819
sg141
g60
sg142
Nsg143
Nsg144
Nsbag2
(g3
g4
Ntp820
Rp821
(dp822
g8
g11
sg122
Nsg123
(dp823
sg125
Nsg26
g29
sg126
(lp824
I4
aI14
asg128
Nsg129
VRuth 4:14
p825
sg131
(lp826
sg133
g84
sg134
Nsg135
(lp827
I4
aI14
asg137
Nsg138
g825
sg139
(lp828
sg141
g60
sg142
Nsg143
Nsg144
Nsbag2
(g3
g4
Ntp829
Rp830
(dp831
g8
g11
sg122
Nsg123
(dp832
sg125
Nsg26
g29
sg126
(lp833
I4
aI15
asg128
Nsg129
VRuth 4:15
p834
sg131
(lp835
sg133
g84
sg134
Nsg135
(lp836
I4
aI15
asg137
Nsg138
g834
sg139
(lp837
sg141
g60
sg142
Nsg143
Nsg144
Nsbag2
(g3
g4
Ntp838
Rp839
(dp840
g8
g11
sg122
Nsg123
(dp841
sg125
Nsg26
g29
sg126
(lp842
I4
aI16
asg128
Nsg129
VRuth 4:16
p843
sg131
(lp844
sg133
g84
sg134
Nsg135
(lp845
I4
aI16
asg137
Nsg138
g843
sg139
(lp846
sg141
g60
sg142
Nsg143
Nsg144
Nsbag2
(g3
g4
Ntp847
Rp848
(dp849
g8
g11
sg122
Nsg123
(dp850
sg125
Nsg26
g29
sg126
(lp851
I4
aI17
asg128
Nsg129
VRuth 4:17
p852
sg131
(lp853
sg133
g84
sg134
Nsg135
(lp854
I4
aI17
asg137
Nsg138
g852
sg139
(lp855
sg141
g60
sg142
Nsg143
Nsg144
Nsbag2
(g3
g4
Ntp856
Rp857
(dp858
g8
g11
sg122
Nsg123
(dp859
sg125
Nsg26
g29
sg126
(lp860
I4
aI18
asg128
Nsg129
VRuth 4:18
p861
sg131
(lp862
sg133
g84
sg134
Nsg135
(lp863
I4
aI18
asg137
Nsg138
g861
sg139
(lp864
sg141
g60
sg142
Nsg143
Nsg144
Nsbag2
(g3
g4
Ntp865
Rp866
(dp867
g8
g11
sg122
Nsg123
(dp868
sg125
Nsg26
g29
sg126
(lp869
I4
aI19
asg128
Nsg129
VRuth 4:19
p870
sg131
(lp871
sg133
g84
sg134
Nsg135
(lp872
I4
aI19
asg137
Nsg138
g870
sg139
(lp873
sg141
g60
sg142
Nsg143
Nsg144
Nsbag2
(g3
g4
Ntp874
Rp875
(dp876
g8
g11
sg122
Nsg123
(dp877
sg125
Nsg26
g29
sg126
(lp878
I4
aI20
asg128
Nsg129
VRuth 4:20
p879
sg131
(lp880
sg133
g84
sg134
Nsg135
(lp881
I4
aI20
asg137
Nsg138
g879
sg139
(lp882
sg141
g60
sg142
Nsg143
Nsg144
Nsbag2
(g3
g4
Ntp883
Rp884
(dp885
g8
g11
sg122
Nsg123
(dp886
sg125
Nsg26
g29
sg126
(lp887
I4
aI21
asg128
Nsg129
VRuth 4:21
p888
sg131
(lp889
sg133
g84
sg134
Nsg135
(lp890
I4
aI21
asg137
Nsg138
g888
sg139
(lp891
sg141
g60
sg142
Nsg143
Nsg144
Nsbag2
(g3
g4
Ntp892
Rp893
(dp894
g8
g11
sg122
Nsg123
(dp895
sg125
Nsg26
g29
sg126
(lp896
I4
aI22
asg128
Nsg129
VRuth 4:22
p897
sg131
(lp898
sg133
g84
sg134
Nsg135
(lp899
I4
aI22
asg137
Nsg138
g897
sg139
(lp900
sg141
g60
sg142
Nsg143
Nsg144
Nsbatp901
.