((lp0
I0
aI44
aI363
aI450
aI906
aI998
aI1307
aI1583
aI1777
aI1852
aI1946
aI1977
aI2033
aI2116
aI2217
aI2514
aI2603
aI2753
aI2815
aI2856
aI2928
aI2997
aI3049
aI3107
aI3175
aI3278
aI3352
aI3443
aI3475
aI3528
aI3710
aI4189
aI4448
aI4683
aI4706
aI4877
aI4948
aI5182
aI5225
aI5386
aI5449
aI5830
aI6112
aI6126
aI6172
aI6253
aI6508
aI6522
aI6593
aI6709
aI6757
aI7636
aI7665
aI7685
aI7939
aI7981
aI8039
aI8200
aI8228
aI8308
aI8418
aI8714
aI8822
aI8868
aI9784
aI9850
aI10014
aI10038
aI10069
aI10158
aI10182
aI10305
aI10355
aI10407
aI10465
aI10712
aI10947
aI11036
aI11125
aI11186
aI11233
a(lp1
ccopy_reg
_reconstructor
p2
(csefaria.model.text
Ref
p3
c__builtin__
object
p4
Ntp5
Rp6
(dp7
S'index_node'
p8
g2
(csefaria.model.schema
JaggedArrayNode
p9
g4
Ntp10
Rp11
(dp12
S'_address'
p13
(lp14
VRuth Rabbah
p15
asS'_full_titles'
p16
(dp17
sVnodeType
p18
VJaggedArrayNode
p19
sS'parent'
p20
NsVaddressTypes
p21
(lp22
VInteger
p23
aVInteger
p24
asS'default'
p25
I00
sS'index'
p26
g2
(csefaria.model.text
Index
p27
g4
Ntp28
Rp29
(dp30
S'struct_objs'
p31
(dp32
sS'_id'
p33
g2
(cbson.objectid
ObjectId
p34
g4
Ntp35
Rp36
S'Q7\x8e\xae\xed\xba\xb4l\xb3\xd4kI'
p37
bsS'pkeys_orig_values'
p38
(dp39
S'title'
p40
VRuth Rabbah
p41
ssS'pubDate'
p42
V
p43
sS'compDate'
p44
g43
sS'pubPlace'
p45
g43
sS'compPlace'
p46
g43
sS'enDesc'
p47
g43
sS'order'
p48
(lp49
F7.0
asS'era'
p50
NsS'authors'
p51
(lp52
sS'nodes'
p53
g11
sS'errorMargin'
p54
g43
sS'_title'
p55
g41
sS'categories'
p56
(lp57
VMidrash
p58
aVAggadic Midrash
p59
aVMidrash Rabbah
p60
asS'schema'
p61
(dp62
g18
g19
sg21
g22
sVdepth
p63
I2
sVtitles
p64
(lp65
(dp66
Vlang
p67
Ven
p68
sVtext
p69
VRut Rabbah
p70
sa(dp71
Vlang
p72
Ven
p73
sVtext
p74
VRuth Rabba
p75
sa(dp76
Vlang
p77
Ven
p78
sVtext
p79
VRut Rabba
p80
sa(dp81
Vlang
p82
Vhe
p83
sVtext
p84
V\u05e8\u05d5\u05ea \u05e8\u05d1\u05d4
p85
sVprimary
p86
I01
sa(dp87
Vlang
p88
Ven
p89
sVtext
p90
VRuth Rabbah
p91
sVprimary
p92
I01
sasVkey
p93
g15
sVsectionNames
p94
(lp95
VChapter
p96
aVMidrash
p97
assbsS'_primary_title'
p98
(dp99
sS'title_group'
p100
g2
(csefaria.model.schema
TitleGroup
p101
g4
Ntp102
Rp103
(dp104
g98
(dp105
S'en'
p106
g91
ssS'titles'
p107
g65
sbsS'_addressTypes'
p108
(lp109
g2
(csefaria.model.schema
AddressInteger
p110
g4
Ntp111
Rp112
(dp113
S'length'
p114
Nsg48
I0
sbag2
(g110
g4
Ntp115
Rp116
(dp117
g114
Nsg48
I1
sbasS'sharedTitle'
p118
Nsg63
I2
sS'_full_title'
p119
(dp120
g106
g91
ssS'key'
p121
g15
sS'checkFirst'
p122
NsS'_regexes'
p123
(dp124
sS'_leaf_nodes'
p125
(lp126
sg94
g95
sS'children'
p127
(lp128
sbsS'_range_index'
p129
NsS'_context'
p130
(dp131
sS'_padded'
p132
Nsg26
g29
sS'sections'
p133
(lp134
I1
aI1
asS'_first_spanned_ref'
p135
NsS'tref'
p136
VRuth Rabbah 1:1
p137
sS'_spanned_refs'
p138
(lp139
sS'book'
p140
g91
sS'_range_depth'
p141
NsS'toSections'
p142
(lp143
I1
aI1
asS'_url'
p144
NsS'_normal'
p145
g137
sS'_ranged_refs'
p146
(lp147
sS'type'
p148
g58
sS'_prev'
p149
NsS'_he_normal'
p150
NsS'_next'
p151
Nsbag2
(g3
g4
Ntp152
Rp153
(dp154
g8
g11
sg129
Nsg130
(dp155
sg132
Nsg26
g29
sg133
(lp156
I1
aI2
asg135
Nsg136
VRuth Rabbah 1:2
p157
sg138
(lp158
sg140
g91
sg141
Nsg142
(lp159
I1
aI2
asg144
Nsg145
g157
sg146
(lp160
sg148
g58
sg149
Nsg150
Nsg151
Nsbag2
(g3
g4
Ntp161
Rp162
(dp163
g8
g11
sg129
Nsg130
(dp164
sg132
Nsg26
g29
sg133
(lp165
I1
aI3
asg135
Nsg136
VRuth Rabbah 1:3
p166
sg138
(lp167
sg140
g91
sg141
Nsg142
(lp168
I1
aI3
asg144
Nsg145
g166
sg146
(lp169
sg148
g58
sg149
Nsg150
Nsg151
Nsbag2
(g3
g4
Ntp170
Rp171
(dp172
g8
g11
sg129
Nsg130
(dp173
sg132
Nsg26
g29
sg133
(lp174
I1
aI4
asg135
Nsg136
VRuth Rabbah 1:4
p175
sg138
(lp176
sg140
g91
sg141
Nsg142
(lp177
I1
aI4
asg144
Nsg145
g175
sg146
(lp178
sg148
g58
sg149
Nsg150
Nsg151
Nsbag2
(g3
g4
Ntp179
Rp180
(dp181
g8
g11
sg129
Nsg130
(dp182
sg132
Nsg26
g29
sg133
(lp183
I1
aI5
asg135
Nsg136
VRuth Rabbah 1:5
p184
sg138
(lp185
sg140
g91
sg141
Nsg142
(lp186
I1
aI5
asg144
Nsg145
g184
sg146
(lp187
sg148
g58
sg149
Nsg150
Nsg151
Nsbag2
(g3
g4
Ntp188
Rp189
(dp190
g8
g11
sg129
Nsg130
(dp191
sg132
Nsg26
g29
sg133
(lp192
I2
aI1
asg135
Nsg136
VRuth Rabbah 2:1
p193
sg138
(lp194
sg140
g91
sg141
Nsg142
(lp195
I2
aI1
asg144
Nsg145
g193
sg146
(lp196
sg148
g58
sg149
Nsg150
Nsg151
Nsbag2
(g3
g4
Ntp197
Rp198
(dp199
g8
g11
sg129
Nsg130
(dp200
sg132
Nsg26
g29
sg133
(lp201
I2
aI2
asg135
Nsg136
VRuth Rabbah 2:2
p202
sg138
(lp203
sg140
g91
sg141
Nsg142
(lp204
I2
aI2
asg144
Nsg145
g202
sg146
(lp205
sg148
g58
sg149
Nsg150
Nsg151
Nsbag2
(g3
g4
Ntp206
Rp207
(dp208
g8
g11
sg129
Nsg130
(dp209
sg132
Nsg26
g29
sg133
(lp210
I2
aI3
asg135
Nsg136
VRuth Rabbah 2:3
p211
sg138
(lp212
sg140
g91
sg141
Nsg142
(lp213
I2
aI3
asg144
Nsg145
g211
sg146
(lp214
sg148
g58
sg149
Nsg150
Nsg151
Nsbag2
(g3
g4
Ntp215
Rp216
(dp217
g8
g11
sg129
Nsg130
(dp218
sg132
Nsg26
g29
sg133
(lp219
I2
aI4
asg135
Nsg136
VRuth Rabbah 2:4
p220
sg138
(lp221
sg140
g91
sg141
Nsg142
(lp222
I2
aI4
asg144
Nsg145
g220
sg146
(lp223
sg148
g58
sg149
Nsg150
Nsg151
Nsbag2
(g3
g4
Ntp224
Rp225
(dp226
g8
g11
sg129
Nsg130
(dp227
sg132
Nsg26
g29
sg133
(lp228
I2
aI5
asg135
Nsg136
VRuth Rabbah 2:5
p229
sg138
(lp230
sg140
g91
sg141
Nsg142
(lp231
I2
aI5
asg144
Nsg145
g229
sg146
(lp232
sg148
g58
sg149
Nsg150
Nsg151
Nsbag2
(g3
g4
Ntp233
Rp234
(dp235
g8
g11
sg129
Nsg130
(dp236
sg132
Nsg26
g29
sg133
(lp237
I2
aI6
asg135
Nsg136
VRuth Rabbah 2:6
p238
sg138
(lp239
sg140
g91
sg141
Nsg142
(lp240
I2
aI6
asg144
Nsg145
g238
sg146
(lp241
sg148
g58
sg149
Nsg150
Nsg151
Nsbag2
(g3
g4
Ntp242
Rp243
(dp244
g8
g11
sg129
Nsg130
(dp245
sg132
Nsg26
g29
sg133
(lp246
I2
aI7
asg135
Nsg136
VRuth Rabbah 2:7
p247
sg138
(lp248
sg140
g91
sg141
Nsg142
(lp249
I2
aI7
asg144
Nsg145
g247
sg146
(lp250
sg148
g58
sg149
Nsg150
Nsg151
Nsbag2
(g3
g4
Ntp251
Rp252
(dp253
g8
g11
sg129
Nsg130
(dp254
sg132
Nsg26
g29
sg133
(lp255
I2
aI8
asg135
Nsg136
VRuth Rabbah 2:8
p256
sg138
(lp257
sg140
g91
sg141
Nsg142
(lp258
I2
aI8
asg144
Nsg145
g256
sg146
(lp259
sg148
g58
sg149
Nsg150
Nsg151
Nsbag2
(g3
g4
Ntp260
Rp261
(dp262
g8
g11
sg129
Nsg130
(dp263
sg132
Nsg26
g29
sg133
(lp264
I2
aI9
asg135
Nsg136
VRuth Rabbah 2:9
p265
sg138
(lp266
sg140
g91
sg141
Nsg142
(lp267
I2
aI9
asg144
Nsg145
g265
sg146
(lp268
sg148
g58
sg149
Nsg150
Nsg151
Nsbag2
(g3
g4
Ntp269
Rp270
(dp271
g8
g11
sg129
Nsg130
(dp272
sg132
Nsg26
g29
sg133
(lp273
I2
aI10
asg135
Nsg136
VRuth Rabbah 2:10
p274
sg138
(lp275
sg140
g91
sg141
Nsg142
(lp276
I2
aI10
asg144
Nsg145
g274
sg146
(lp277
sg148
g58
sg149
Nsg150
Nsg151
Nsbag2
(g3
g4
Ntp278
Rp279
(dp280
g8
g11
sg129
Nsg130
(dp281
sg132
Nsg26
g29
sg133
(lp282
I2
aI11
asg135
Nsg136
VRuth Rabbah 2:11
p283
sg138
(lp284
sg140
g91
sg141
Nsg142
(lp285
I2
aI11
asg144
Nsg145
g283
sg146
(lp286
sg148
g58
sg149
Nsg150
Nsg151
Nsbag2
(g3
g4
Ntp287
Rp288
(dp289
g8
g11
sg129
Nsg130
(dp290
sg132
Nsg26
g29
sg133
(lp291
I2
aI12
asg135
Nsg136
VRuth Rabbah 2:12
p292
sg138
(lp293
sg140
g91
sg141
Nsg142
(lp294
I2
aI12
asg144
Nsg145
g292
sg146
(lp295
sg148
g58
sg149
Nsg150
Nsg151
Nsbag2
(g3
g4
Ntp296
Rp297
(dp298
g8
g11
sg129
Nsg130
(dp299
sg132
Nsg26
g29
sg133
(lp300
I2
aI13
asg135
Nsg136
VRuth Rabbah 2:13
p301
sg138
(lp302
sg140
g91
sg141
Nsg142
(lp303
I2
aI13
asg144
Nsg145
g301
sg146
(lp304
sg148
g58
sg149
Nsg150
Nsg151
Nsbag2
(g3
g4
Ntp305
Rp306
(dp307
g8
g11
sg129
Nsg130
(dp308
sg132
Nsg26
g29
sg133
(lp309
I2
aI14
asg135
Nsg136
VRuth Rabbah 2:14
p310
sg138
(lp311
sg140
g91
sg141
Nsg142
(lp312
I2
aI14
asg144
Nsg145
g310
sg146
(lp313
sg148
g58
sg149
Nsg150
Nsg151
Nsbag2
(g3
g4
Ntp314
Rp315
(dp316
g8
g11
sg129
Nsg130
(dp317
sg132
Nsg26
g29
sg133
(lp318
I2
aI15
asg135
Nsg136
VRuth Rabbah 2:15
p319
sg138
(lp320
sg140
g91
sg141
Nsg142
(lp321
I2
aI15
asg144
Nsg145
g319
sg146
(lp322
sg148
g58
sg149
Nsg150
Nsg151
Nsbag2
(g3
g4
Ntp323
Rp324
(dp325
g8
g11
sg129
Nsg130
(dp326
sg132
Nsg26
g29
sg133
(lp327
I2
aI16
asg135
Nsg136
VRuth Rabbah 2:16
p328
sg138
(lp329
sg140
g91
sg141
Nsg142
(lp330
I2
aI16
asg144
Nsg145
g328
sg146
(lp331
sg148
g58
sg149
Nsg150
Nsg151
Nsbag2
(g3
g4
Ntp332
Rp333
(dp334
g8
g11
sg129
Nsg130
(dp335
sg132
Nsg26
g29
sg133
(lp336
I2
aI17
asg135
Nsg136
VRuth Rabbah 2:17
p337
sg138
(lp338
sg140
g91
sg141
Nsg142
(lp339
I2
aI17
asg144
Nsg145
g337
sg146
(lp340
sg148
g58
sg149
Nsg150
Nsg151
Nsbag2
(g3
g4
Ntp341
Rp342
(dp343
g8
g11
sg129
Nsg130
(dp344
sg132
Nsg26
g29
sg133
(lp345
I2
aI18
asg135
Nsg136
VRuth Rabbah 2:18
p346
sg138
(lp347
sg140
g91
sg141
Nsg142
(lp348
I2
aI18
asg144
Nsg145
g346
sg146
(lp349
sg148
g58
sg149
Nsg150
Nsg151
Nsbag2
(g3
g4
Ntp350
Rp351
(dp352
g8
g11
sg129
Nsg130
(dp353
sg132
Nsg26
g29
sg133
(lp354
I2
aI19
asg135
Nsg136
VRuth Rabbah 2:19
p355
sg138
(lp356
sg140
g91
sg141
Nsg142
(lp357
I2
aI19
asg144
Nsg145
g355
sg146
(lp358
sg148
g58
sg149
Nsg150
Nsg151
Nsbag2
(g3
g4
Ntp359
Rp360
(dp361
g8
g11
sg129
Nsg130
(dp362
sg132
Nsg26
g29
sg133
(lp363
I2
aI20
asg135
Nsg136
VRuth Rabbah 2:20
p364
sg138
(lp365
sg140
g91
sg141
Nsg142
(lp366
I2
aI20
asg144
Nsg145
g364
sg146
(lp367
sg148
g58
sg149
Nsg150
Nsg151
Nsbag2
(g3
g4
Ntp368
Rp369
(dp370
g8
g11
sg129
Nsg130
(dp371
sg132
Nsg26
g29
sg133
(lp372
I2
aI21
asg135
Nsg136
VRuth Rabbah 2:21
p373
sg138
(lp374
sg140
g91
sg141
Nsg142
(lp375
I2
aI21
asg144
Nsg145
g373
sg146
(lp376
sg148
g58
sg149
Nsg150
Nsg151
Nsbag2
(g3
g4
Ntp377
Rp378
(dp379
g8
g11
sg129
Nsg130
(dp380
sg132
Nsg26
g29
sg133
(lp381
I2
aI22
asg135
Nsg136
VRuth Rabbah 2:22
p382
sg138
(lp383
sg140
g91
sg141
Nsg142
(lp384
I2
aI22
asg144
Nsg145
g382
sg146
(lp385
sg148
g58
sg149
Nsg150
Nsg151
Nsbag2
(g3
g4
Ntp386
Rp387
(dp388
g8
g11
sg129
Nsg130
(dp389
sg132
Nsg26
g29
sg133
(lp390
I2
aI23
asg135
Nsg136
VRuth Rabbah 2:23
p391
sg138
(lp392
sg140
g91
sg141
Nsg142
(lp393
I2
aI23
asg144
Nsg145
g391
sg146
(lp394
sg148
g58
sg149
Nsg150
Nsg151
Nsbag2
(g3
g4
Ntp395
Rp396
(dp397
g8
g11
sg129
Nsg130
(dp398
sg132
Nsg26
g29
sg133
(lp399
I2
aI24
asg135
Nsg136
VRuth Rabbah 2:24
p400
sg138
(lp401
sg140
g91
sg141
Nsg142
(lp402
I2
aI24
asg144
Nsg145
g400
sg146
(lp403
sg148
g58
sg149
Nsg150
Nsg151
Nsbag2
(g3
g4
Ntp404
Rp405
(dp406
g8
g11
sg129
Nsg130
(dp407
sg132
Nsg26
g29
sg133
(lp408
I3
aI1
asg135
Nsg136
VRuth Rabbah 3:1
p409
sg138
(lp410
sg140
g91
sg141
Nsg142
(lp411
I3
aI1
asg144
Nsg145
g409
sg146
(lp412
sg148
g58
sg149
Nsg150
Nsg151
Nsbag2
(g3
g4
Ntp413
Rp414
(dp415
g8
g11
sg129
Nsg130
(dp416
sg132
Nsg26
g29
sg133
(lp417
I3
aI2
asg135
Nsg136
VRuth Rabbah 3:2
p418
sg138
(lp419
sg140
g91
sg141
Nsg142
(lp420
I3
aI2
asg144
Nsg145
g418
sg146
(lp421
sg148
g58
sg149
Nsg150
Nsg151
Nsbag2
(g3
g4
Ntp422
Rp423
(dp424
g8
g11
sg129
Nsg130
(dp425
sg132
Nsg26
g29
sg133
(lp426
I3
aI3
asg135
Nsg136
VRuth Rabbah 3:3
p427
sg138
(lp428
sg140
g91
sg141
Nsg142
(lp429
I3
aI3
asg144
Nsg145
g427
sg146
(lp430
sg148
g58
sg149
Nsg150
Nsg151
Nsbag2
(g3
g4
Ntp431
Rp432
(dp433
g8
g11
sg129
Nsg130
(dp434
sg132
Nsg26
g29
sg133
(lp435
I3
aI4
asg135
Nsg136
VRuth Rabbah 3:4
p436
sg138
(lp437
sg140
g91
sg141
Nsg142
(lp438
I3
aI4
asg144
Nsg145
g436
sg146
(lp439
sg148
g58
sg149
Nsg150
Nsg151
Nsbag2
(g3
g4
Ntp440
Rp441
(dp442
g8
g11
sg129
Nsg130
(dp443
sg132
Nsg26
g29
sg133
(lp444
I3
aI5
asg135
Nsg136
VRuth Rabbah 3:5
p445
sg138
(lp446
sg140
g91
sg141
Nsg142
(lp447
I3
aI5
asg144
Nsg145
g445
sg146
(lp448
sg148
g58
sg149
Nsg150
Nsg151
Nsbag2
(g3
g4
Ntp449
Rp450
(dp451
g8
g11
sg129
Nsg130
(dp452
sg132
Nsg26
g29
sg133
(lp453
I3
aI6
asg135
Nsg136
VRuth Rabbah 3:6
p454
sg138
(lp455
sg140
g91
sg141
Nsg142
(lp456
I3
aI6
asg144
Nsg145
g454
sg146
(lp457
sg148
g58
sg149
Nsg150
Nsg151
Nsbag2
(g3
g4
Ntp458
Rp459
(dp460
g8
g11
sg129
Nsg130
(dp461
sg132
Nsg26
g29
sg133
(lp462
I3
aI7
asg135
Nsg136
VRuth Rabbah 3:7
p463
sg138
(lp464
sg140
g91
sg141
Nsg142
(lp465
I3
aI7
asg144
Nsg145
g463
sg146
(lp466
sg148
g58
sg149
Nsg150
Nsg151
Nsbag2
(g3
g4
Ntp467
Rp468
(dp469
g8
g11
sg129
Nsg130
(dp470
sg132
Nsg26
g29
sg133
(lp471
I4
aI1
asg135
Nsg136
VRuth Rabbah 4:1
p472
sg138
(lp473
sg140
g91
sg141
Nsg142
(lp474
I4
aI1
asg144
Nsg145
g472
sg146
(lp475
sg148
g58
sg149
Nsg150
Nsg151
Nsbag2
(g3
g4
Ntp476
Rp477
(dp478
g8
g11
sg129
Nsg130
(dp479
sg132
Nsg26
g29
sg133
(lp480
I4
aI2
asg135
Nsg136
VRuth Rabbah 4:2
p481
sg138
(lp482
sg140
g91
sg141
Nsg142
(lp483
I4
aI2
asg144
Nsg145
g481
sg146
(lp484
sg148
g58
sg149
Nsg150
Nsg151
Nsbag2
(g3
g4
Ntp485
Rp486
(dp487
g8
g11
sg129
Nsg130
(dp488
sg132
Nsg26
g29
sg133
(lp489
I4
aI3
asg135
Nsg136
VRuth Rabbah 4:3
p490
sg138
(lp491
sg140
g91
sg141
Nsg142
(lp492
I4
aI3
asg144
Nsg145
g490
sg146
(lp493
sg148
g58
sg149
Nsg150
Nsg151
Nsbag2
(g3
g4
Ntp494
Rp495
(dp496
g8
g11
sg129
Nsg130
(dp497
sg132
Nsg26
g29
sg133
(lp498
I4
aI4
asg135
Nsg136
VRuth Rabbah 4:4
p499
sg138
(lp500
sg140
g91
sg141
Nsg142
(lp501
I4
aI4
asg144
Nsg145
g499
sg146
(lp502
sg148
g58
sg149
Nsg150
Nsg151
Nsbag2
(g3
g4
Ntp503
Rp504
(dp505
g8
g11
sg129
Nsg130
(dp506
sg132
Nsg26
g29
sg133
(lp507
I4
aI5
asg135
Nsg136
VRuth Rabbah 4:5
p508
sg138
(lp509
sg140
g91
sg141
Nsg142
(lp510
I4
aI5
asg144
Nsg145
g508
sg146
(lp511
sg148
g58
sg149
Nsg150
Nsg151
Nsbag2
(g3
g4
Ntp512
Rp513
(dp514
g8
g11
sg129
Nsg130
(dp515
sg132
Nsg26
g29
sg133
(lp516
I4
aI6
asg135
Nsg136
VRuth Rabbah 4:6
p517
sg138
(lp518
sg140
g91
sg141
Nsg142
(lp519
I4
aI6
asg144
Nsg145
g517
sg146
(lp520
sg148
g58
sg149
Nsg150
Nsg151
Nsbag2
(g3
g4
Ntp521
Rp522
(dp523
g8
g11
sg129
Nsg130
(dp524
sg132
Nsg26
g29
sg133
(lp525
I4
aI7
asg135
Nsg136
VRuth Rabbah 4:7
p526
sg138
(lp527
sg140
g91
sg141
Nsg142
(lp528
I4
aI7
asg144
Nsg145
g526
sg146
(lp529
sg148
g58
sg149
Nsg150
Nsg151
Nsbag2
(g3
g4
Ntp530
Rp531
(dp532
g8
g11
sg129
Nsg130
(dp533
sg132
Nsg26
g29
sg133
(lp534
I4
aI8
asg135
Nsg136
VRuth Rabbah 4:8
p535
sg138
(lp536
sg140
g91
sg141
Nsg142
(lp537
I4
aI8
asg144
Nsg145
g535
sg146
(lp538
sg148
g58
sg149
Nsg150
Nsg151
Nsbag2
(g3
g4
Ntp539
Rp540
(dp541
g8
g11
sg129
Nsg130
(dp542
sg132
Nsg26
g29
sg133
(lp543
I4
aI9
asg135
Nsg136
VRuth Rabbah 4:9
p544
sg138
(lp545
sg140
g91
sg141
Nsg142
(lp546
I4
aI9
asg144
Nsg145
g544
sg146
(lp547
sg148
g58
sg149
Nsg150
Nsg151
Nsbag2
(g3
g4
Ntp548
Rp549
(dp550
g8
g11
sg129
Nsg130
(dp551
sg132
Nsg26
g29
sg133
(lp552
I5
aI1
asg135
Nsg136
VRuth Rabbah 5:1
p553
sg138
(lp554
sg140
g91
sg141
Nsg142
(lp555
I5
aI1
asg144
Nsg145
g553
sg146
(lp556
sg148
g58
sg149
Nsg150
Nsg151
Nsbag2
(g3
g4
Ntp557
Rp558
(dp559
g8
g11
sg129
Nsg130
(dp560
sg132
Nsg26
g29
sg133
(lp561
I5
aI2
asg135
Nsg136
VRuth Rabbah 5:2
p562
sg138
(lp563
sg140
g91
sg141
Nsg142
(lp564
I5
aI2
asg144
Nsg145
g562
sg146
(lp565
sg148
g58
sg149
Nsg150
Nsg151
Nsbag2
(g3
g4
Ntp566
Rp567
(dp568
g8
g11
sg129
Nsg130
(dp569
sg132
Nsg26
g29
sg133
(lp570
I5
aI3
asg135
Nsg136
VRuth Rabbah 5:3
p571
sg138
(lp572
sg140
g91
sg141
Nsg142
(lp573
I5
aI3
asg144
Nsg145
g571
sg146
(lp574
sg148
g58
sg149
Nsg150
Nsg151
Nsbag2
(g3
g4
Ntp575
Rp576
(dp577
g8
g11
sg129
Nsg130
(dp578
sg132
Nsg26
g29
sg133
(lp579
I5
aI4
asg135
Nsg136
VRuth Rabbah 5:4
p580
sg138
(lp581
sg140
g91
sg141
Nsg142
(lp582
I5
aI4
asg144
Nsg145
g580
sg146
(lp583
sg148
g58
sg149
Nsg150
Nsg151
Nsbag2
(g3
g4
Ntp584
Rp585
(dp586
g8
g11
sg129
Nsg130
(dp587
sg132
Nsg26
g29
sg133
(lp588
I5
aI5
asg135
Nsg136
VRuth Rabbah 5:5
p589
sg138
(lp590
sg140
g91
sg141
Nsg142
(lp591
I5
aI5
asg144
Nsg145
g589
sg146
(lp592
sg148
g58
sg149
Nsg150
Nsg151
Nsbag2
(g3
g4
Ntp593
Rp594
(dp595
g8
g11
sg129
Nsg130
(dp596
sg132
Nsg26
g29
sg133
(lp597
I5
aI6
asg135
Nsg136
VRuth Rabbah 5:6
p598
sg138
(lp599
sg140
g91
sg141
Nsg142
(lp600
I5
aI6
asg144
Nsg145
g598
sg146
(lp601
sg148
g58
sg149
Nsg150
Nsg151
Nsbag2
(g3
g4
Ntp602
Rp603
(dp604
g8
g11
sg129
Nsg130
(dp605
sg132
Nsg26
g29
sg133
(lp606
I5
aI7
asg135
Nsg136
VRuth Rabbah 5:7
p607
sg138
(lp608
sg140
g91
sg141
Nsg142
(lp609
I5
aI7
asg144
Nsg145
g607
sg146
(lp610
sg148
g58
sg149
Nsg150
Nsg151
Nsbag2
(g3
g4
Ntp611
Rp612
(dp613
g8
g11
sg129
Nsg130
(dp614
sg132
Nsg26
g29
sg133
(lp615
I5
aI8
asg135
Nsg136
VRuth Rabbah 5:8
p616
sg138
(lp617
sg140
g91
sg141
Nsg142
(lp618
I5
aI8
asg144
Nsg145
g616
sg146
(lp619
sg148
g58
sg149
Nsg150
Nsg151
Nsbag2
(g3
g4
Ntp620
Rp621
(dp622
g8
g11
sg129
Nsg130
(dp623
sg132
Nsg26
g29
sg133
(lp624
I5
aI9
asg135
Nsg136
VRuth Rabbah 5:9
p625
sg138
(lp626
sg140
g91
sg141
Nsg142
(lp627
I5
aI9
asg144
Nsg145
g625
sg146
(lp628
sg148
g58
sg149
Nsg150
Nsg151
Nsbag2
(g3
g4
Ntp629
Rp630
(dp631
g8
g11
sg129
Nsg130
(dp632
sg132
Nsg26
g29
sg133
(lp633
I5
aI10
asg135
Nsg136
VRuth Rabbah 5:10
p634
sg138
(lp635
sg140
g91
sg141
Nsg142
(lp636
I5
aI10
asg144
Nsg145
g634
sg146
(lp637
sg148
g58
sg149
Nsg150
Nsg151
Nsbag2
(g3
g4
Ntp638
Rp639
(dp640
g8
g11
sg129
Nsg130
(dp641
sg132
Nsg26
g29
sg133
(lp642
I5
aI11
asg135
Nsg136
VRuth Rabbah 5:11
p643
sg138
(lp644
sg140
g91
sg141
Nsg142
(lp645
I5
aI11
asg144
Nsg145
g643
sg146
(lp646
sg148
g58
sg149
Nsg150
Nsg151
Nsbag2
(g3
g4
Ntp647
Rp648
(dp649
g8
g11
sg129
Nsg130
(dp650
sg132
Nsg26
g29
sg133
(lp651
I5
aI12
asg135
Nsg136
VRuth Rabbah 5:12
p652
sg138
(lp653
sg140
g91
sg141
Nsg142
(lp654
I5
aI12
asg144
Nsg145
g652
sg146
(lp655
sg148
g58
sg149
Nsg150
Nsg151
Nsbag2
(g3
g4
Ntp656
Rp657
(dp658
g8
g11
sg129
Nsg130
(dp659
sg132
Nsg26
g29
sg133
(lp660
I5
aI13
asg135
Nsg136
VRuth Rabbah 5:13
p661
sg138
(lp662
sg140
g91
sg141
Nsg142
(lp663
I5
aI13
asg144
Nsg145
g661
sg146
(lp664
sg148
g58
sg149
Nsg150
Nsg151
Nsbag2
(g3
g4
Ntp665
Rp666
(dp667
g8
g11
sg129
Nsg130
(dp668
sg132
Nsg26
g29
sg133
(lp669
I5
aI14
asg135
Nsg136
VRuth Rabbah 5:14
p670
sg138
(lp671
sg140
g91
sg141
Nsg142
(lp672
I5
aI14
asg144
Nsg145
g670
sg146
(lp673
sg148
g58
sg149
Nsg150
Nsg151
Nsbag2
(g3
g4
Ntp674
Rp675
(dp676
g8
g11
sg129
Nsg130
(dp677
sg132
Nsg26
g29
sg133
(lp678
I5
aI15
asg135
Nsg136
VRuth Rabbah 5:15
p679
sg138
(lp680
sg140
g91
sg141
Nsg142
(lp681
I5
aI15
asg144
Nsg145
g679
sg146
(lp682
sg148
g58
sg149
Nsg150
Nsg151
Nsbag2
(g3
g4
Ntp683
Rp684
(dp685
g8
g11
sg129
Nsg130
(dp686
sg132
Nsg26
g29
sg133
(lp687
I6
aI1
asg135
Nsg136
VRuth Rabbah 6:1
p688
sg138
(lp689
sg140
g91
sg141
Nsg142
(lp690
I6
aI1
asg144
Nsg145
g688
sg146
(lp691
sg148
g58
sg149
Nsg150
Nsg151
Nsbag2
(g3
g4
Ntp692
Rp693
(dp694
g8
g11
sg129
Nsg130
(dp695
sg132
Nsg26
g29
sg133
(lp696
I6
aI2
asg135
Nsg136
VRuth Rabbah 6:2
p697
sg138
(lp698
sg140
g91
sg141
Nsg142
(lp699
I6
aI2
asg144
Nsg145
g697
sg146
(lp700
sg148
g58
sg149
Nsg150
Nsg151
Nsbag2
(g3
g4
Ntp701
Rp702
(dp703
g8
g11
sg129
Nsg130
(dp704
sg132
Nsg26
g29
sg133
(lp705
I6
aI3
asg135
Nsg136
VRuth Rabbah 6:3
p706
sg138
(lp707
sg140
g91
sg141
Nsg142
(lp708
I6
aI3
asg144
Nsg145
g706
sg146
(lp709
sg148
g58
sg149
Nsg150
Nsg151
Nsbag2
(g3
g4
Ntp710
Rp711
(dp712
g8
g11
sg129
Nsg130
(dp713
sg132
Nsg26
g29
sg133
(lp714
I6
aI4
asg135
Nsg136
VRuth Rabbah 6:4
p715
sg138
(lp716
sg140
g91
sg141
Nsg142
(lp717
I6
aI4
asg144
Nsg145
g715
sg146
(lp718
sg148
g58
sg149
Nsg150
Nsg151
Nsbag2
(g3
g4
Ntp719
Rp720
(dp721
g8
g11
sg129
Nsg130
(dp722
sg132
Nsg26
g29
sg133
(lp723
I7
aI1
asg135
Nsg136
VRuth Rabbah 7:1
p724
sg138
(lp725
sg140
g91
sg141
Nsg142
(lp726
I7
aI1
asg144
Nsg145
g724
sg146
(lp727
sg148
g58
sg149
Nsg150
Nsg151
Nsbag2
(g3
g4
Ntp728
Rp729
(dp730
g8
g11
sg129
Nsg130
(dp731
sg132
Nsg26
g29
sg133
(lp732
I7
aI2
asg135
Nsg136
VRuth Rabbah 7:2
p733
sg138
(lp734
sg140
g91
sg141
Nsg142
(lp735
I7
aI2
asg144
Nsg145
g733
sg146
(lp736
sg148
g58
sg149
Nsg150
Nsg151
Nsbag2
(g3
g4
Ntp737
Rp738
(dp739
g8
g11
sg129
Nsg130
(dp740
sg132
Nsg26
g29
sg133
(lp741
I7
aI3
asg135
Nsg136
VRuth Rabbah 7:3
p742
sg138
(lp743
sg140
g91
sg141
Nsg142
(lp744
I7
aI3
asg144
Nsg145
g742
sg146
(lp745
sg148
g58
sg149
Nsg150
Nsg151
Nsbag2
(g3
g4
Ntp746
Rp747
(dp748
g8
g11
sg129
Nsg130
(dp749
sg132
Nsg26
g29
sg133
(lp750
I7
aI4
asg135
Nsg136
VRuth Rabbah 7:4
p751
sg138
(lp752
sg140
g91
sg141
Nsg142
(lp753
I7
aI4
asg144
Nsg145
g751
sg146
(lp754
sg148
g58
sg149
Nsg150
Nsg151
Nsbag2
(g3
g4
Ntp755
Rp756
(dp757
g8
g11
sg129
Nsg130
(dp758
sg132
Nsg26
g29
sg133
(lp759
I7
aI5
asg135
Nsg136
VRuth Rabbah 7:5
p760
sg138
(lp761
sg140
g91
sg141
Nsg142
(lp762
I7
aI5
asg144
Nsg145
g760
sg146
(lp763
sg148
g58
sg149
Nsg150
Nsg151
Nsbag2
(g3
g4
Ntp764
Rp765
(dp766
g8
g11
sg129
Nsg130
(dp767
sg132
Nsg26
g29
sg133
(lp768
I7
aI6
asg135
Nsg136
VRuth Rabbah 7:6
p769
sg138
(lp770
sg140
g91
sg141
Nsg142
(lp771
I7
aI6
asg144
Nsg145
g769
sg146
(lp772
sg148
g58
sg149
Nsg150
Nsg151
Nsbag2
(g3
g4
Ntp773
Rp774
(dp775
g8
g11
sg129
Nsg130
(dp776
sg132
Nsg26
g29
sg133
(lp777
I7
aI7
asg135
Nsg136
VRuth Rabbah 7:7
p778
sg138
(lp779
sg140
g91
sg141
Nsg142
(lp780
I7
aI7
asg144
Nsg145
g778
sg146
(lp781
sg148
g58
sg149
Nsg150
Nsg151
Nsbag2
(g3
g4
Ntp782
Rp783
(dp784
g8
g11
sg129
Nsg130
(dp785
sg132
Nsg26
g29
sg133
(lp786
I7
aI8
asg135
Nsg136
VRuth Rabbah 7:8
p787
sg138
(lp788
sg140
g91
sg141
Nsg142
(lp789
I7
aI8
asg144
Nsg145
g787
sg146
(lp790
sg148
g58
sg149
Nsg150
Nsg151
Nsbag2
(g3
g4
Ntp791
Rp792
(dp793
g8
g11
sg129
Nsg130
(dp794
sg132
Nsg26
g29
sg133
(lp795
I7
aI9
asg135
Nsg136
VRuth Rabbah 7:9
p796
sg138
(lp797
sg140
g91
sg141
Nsg142
(lp798
I7
aI9
asg144
Nsg145
g796
sg146
(lp799
sg148
g58
sg149
Nsg150
Nsg151
Nsbag2
(g3
g4
Ntp800
Rp801
(dp802
g8
g11
sg129
Nsg130
(dp803
sg132
Nsg26
g29
sg133
(lp804
I7
aI10
asg135
Nsg136
VRuth Rabbah 7:10
p805
sg138
(lp806
sg140
g91
sg141
Nsg142
(lp807
I7
aI10
asg144
Nsg145
g805
sg146
(lp808
sg148
g58
sg149
Nsg150
Nsg151
Nsbag2
(g3
g4
Ntp809
Rp810
(dp811
g8
g11
sg129
Nsg130
(dp812
sg132
Nsg26
g29
sg133
(lp813
I7
aI11
asg135
Nsg136
VRuth Rabbah 7:11
p814
sg138
(lp815
sg140
g91
sg141
Nsg142
(lp816
I7
aI11
asg144
Nsg145
g814
sg146
(lp817
sg148
g58
sg149
Nsg150
Nsg151
Nsbag2
(g3
g4
Ntp818
Rp819
(dp820
g8
g11
sg129
Nsg130
(dp821
sg132
Nsg26
g29
sg133
(lp822
I7
aI12
asg135
Nsg136
VRuth Rabbah 7:12
p823
sg138
(lp824
sg140
g91
sg141
Nsg142
(lp825
I7
aI12
asg144
Nsg145
g823
sg146
(lp826
sg148
g58
sg149
Nsg150
Nsg151
Nsbag2
(g3
g4
Ntp827
Rp828
(dp829
g8
g11
sg129
Nsg130
(dp830
sg132
Nsg26
g29
sg133
(lp831
I7
aI13
asg135
Nsg136
VRuth Rabbah 7:13
p832
sg138
(lp833
sg140
g91
sg141
Nsg142
(lp834
I7
aI13
asg144
Nsg145
g832
sg146
(lp835
sg148
g58
sg149
Nsg150
Nsg151
Nsbag2
(g3
g4
Ntp836
Rp837
(dp838
g8
g11
sg129
Nsg130
(dp839
sg132
Nsg26
g29
sg133
(lp840
I7
aI14
asg135
Nsg136
VRuth Rabbah 7:14
p841
sg138
(lp842
sg140
g91
sg141
Nsg142
(lp843
I7
aI14
asg144
Nsg145
g841
sg146
(lp844
sg148
g58
sg149
Nsg150
Nsg151
Nsbag2
(g3
g4
Ntp845
Rp846
(dp847
g8
g11
sg129
Nsg130
(dp848
sg132
Nsg26
g29
sg133
(lp849
I7
aI15
asg135
Nsg136
VRuth Rabbah 7:15
p850
sg138
(lp851
sg140
g91
sg141
Nsg142
(lp852
I7
aI15
asg144
Nsg145
g850
sg146
(lp853
sg148
g58
sg149
Nsg150
Nsg151
Nsbag2
(g3
g4
Ntp854
Rp855
(dp856
g8
g11
sg129
Nsg130
(dp857
sg132
Nsg26
g29
sg133
(lp858
I7
aI16
asg135
Nsg136
VRuth Rabbah 7:16
p859
sg138
(lp860
sg140
g91
sg141
Nsg142
(lp861
I7
aI16
asg144
Nsg145
g859
sg146
(lp862
sg148
g58
sg149
Nsg150
Nsg151
Nsbag2
(g3
g4
Ntp863
Rp864
(dp865
g8
g11
sg129
Nsg130
(dp866
sg132
Nsg26
g29
sg133
(lp867
I8
aI1
asg135
Nsg136
VRuth Rabbah 8:1
p868
sg138
(lp869
sg140
g91
sg141
Nsg142
(lp870
I8
aI1
asg144
Nsg145
g868
sg146
(lp871
sg148
g58
sg149
Nsg150
Nsg151
Nsbatp872
.