((lp0
I0
aI2
aI449
aI451
aI962
aI964
aI1425
aI1427
aI1907
aI1909
aI2455
aI2456
aI2764
aI2766
aI3100
aI3102
aI3405
aI3407
aI3718
aI3720
aI4082
aI4086
aI4088
aI4505
aI4507
aI4842
aI4844
aI5204
aI5206
aI5508
aI5510
aI5864
aI5866
aI6270
aI6272
aI6638
aI6640
aI6809
aI6811
aI7197
aI7199
aI7814
aI7818
aI7820
aI8250
aI8252
aI8845
aI8847
aI9315
aI9317
aI9740
aI9742
aI10179
aI10181
aI10865
aI10867
aI11279
aI11281
aI11856
aI11858
aI12189
aI12191
aI12888
a(lp1
ccopy_reg
_reconstructor
p2
(csefaria.model.text
Ref
p3
c__builtin__
object
p4
Ntp5
Rp6
(dp7
S'index_node'
p8
g2
(csefaria.model.schema
JaggedArrayNode
p9
g4
Ntp10
Rp11
(dp12
S'_address'
p13
(lp14
VSeder Olam Rabbah
p15
aVdefault
p16
asS'_full_titles'
p17
(dp18
sVnodeType
p19
VJaggedArrayNode
p20
sS'parent'
p21
g2
(csefaria.model.schema
SchemaNode
p22
g4
Ntp23
Rp24
(dp25
g13
(lp26
g15
asg17
(dp27
sg21
NsS'index'
p28
g2
(csefaria.model.text
Index
p29
g4
Ntp30
Rp31
(dp32
S'_id'
p33
g2
(cbson.objectid
ObjectId
p34
g4
Ntp35
Rp36
S'UZJK\xfb\xfb\xa2H\x85>\xe9\x1c'
p37
bsS'pkeys_orig_values'
p38
(dp39
S'title'
p40
VSeder Olam Rabbah
p41
ssS'pubDate'
p42
V1513
p43
sS'compDate'
p44
V350
p45
sS'pubPlace'
p46
VMantua
p47
sS'compPlace'
p48
VTalmudic Israel/Babylon
p49
sS'enDesc'
p50
VSeder Olam Rabbah (The Great Order of the World) is a 2nd-century CE Hebrew language chronology detailing the dates of biblical events from the Creation to Alexander the Great's conquest of Persia. Originally Seder Olam was a more extensive work dealing with the post-Alexandrian period. Instead the period from Alexander to Hadrian is condensed into the end of chapter 30. It adds no stories beyond what is in the biblical text, and addresses such questions as the age of Isaac at the binding and the number of years that Joshua led the Israelites. In its present form the Seder Olam Rabbah consists of 30 chapters, each 10 chapters forming a section, or gate. Tradition considers it to have been written about 160 CE by Yose ben Halafta, which is not unreasonable, but it was probably also supplemented and edited at a later period.
p51
sS'era'
p52
VT
p53
sS'struct_objs'
p54
(dp55
sS'nodes'
p56
g24
sS'errorMargin'
p57
V150
p58
sS'_title'
p59
g41
sS'categories'
p60
(lp61
VMidrash
p62
aVAggadic Midrash
p63
asS'schema'
p64
(dp65
Vnodes
p66
(lp67
(dp68
VnodeType
p69
VJaggedArrayNode
p70
sVaddressTypes
p71
(lp72
VInteger
p73
asVdepth
p74
I1
sVtitles
p75
(lp76
(dp77
Vlang
p78
Ven
p79
sVtext
p80
VIntroduction
p81
sVprimary
p82
I01
sa(dp83
Vlang
p84
Vhe
p85
sVtext
p86
V\u05d4\u05e7\u05d3\u05de\u05d4
p87
sVprimary
p88
I01
sasVkey
p89
VIntroduction
p90
sVsectionNames
p91
(lp92
VParagraph
p93
asa(dp94
g19
g20
sVaddressTypes
p95
(lp96
VInteger
p97
aVInteger
p98
asVdefault
p99
I01
sVdepth
p100
I2
sVkey
p101
g16
sVsectionNames
p102
(lp103
VChapter
p104
aVParagraph
p105
asasVtitles
p106
(lp107
(dp108
Vlang
p109
Ven
p110
sVtext
p111
VSeder Olam
p112
sa(dp113
Vlang
p114
Ven
p115
sVtext
p116
VOlam Rabbah
p117
sa(dp118
Vlang
p119
Vhe
p120
sVtext
p121
V\u05e1\u05d3\u05e8 \u05e2\u05d5\u05dc\u05dd \u05e8\u05d1\u05d4
p122
sVprimary
p123
I01
sa(dp124
Vlang
p125
Vhe
p126
sVtext
p127
V\u05e1\u05d3\u05e8 \u05e2\u05d5\u05dc\u05dd
p128
sa(dp129
Vlang
p130
Ven
p131
sVtext
p132
VSeder Olam Rabbah
p133
sVprimary
p134
I01
sasVkey
p135
g15
ssbsS'default'
p136
I00
sS'_primary_title'
p137
(dp138
sS'title_group'
p139
g2
(csefaria.model.schema
TitleGroup
p140
g4
Ntp141
Rp142
(dp143
g137
(dp144
S'en'
p145
g133
ssS'titles'
p146
g107
sbsS'sharedTitle'
p147
NsS'_full_title'
p148
(dp149
g145
g133
ssS'key'
p150
g15
sS'checkFirst'
p151
NsS'_leaf_nodes'
p152
(lp153
sS'children'
p154
(lp155
g2
(g9
g4
Ntp156
Rp157
(dp158
g13
(lp159
g15
ag90
asg17
(dp160
sg69
g70
sg21
g24
sg71
g72
sg136
I00
sg28
g31
sg137
(dp161
sg139
g2
(g140
g4
Ntp162
Rp163
(dp164
g137
(dp165
g145
g81
ssg146
g76
sbsS'_addressTypes'
p166
(lp167
g2
(csefaria.model.schema
AddressInteger
p168
g4
Ntp169
Rp170
(dp171
S'length'
p172
NsS'order'
p173
I0
sbasg147
Nsg74
I1
sg148
(dp174
g145
VSeder Olam Rabbah, Introduction
p175
ssg150
g90
sg151
NsS'_regexes'
p176
(dp177
sg152
(lp178
sg91
g92
sg154
(lp179
sbag11
asbsg95
g96
sg136
I01
sg28
g31
sg137
(dp180
sg139
g2
(g140
g4
Ntp181
Rp182
(dp183
g137
(dp184
g145
S''
p185
ssg146
(lp186
sbsg166
(lp187
g2
(g168
g4
Ntp188
Rp189
(dp190
g172
Nsg173
I0
sbag2
(g168
g4
Ntp191
Rp192
(dp193
g172
Nsg173
I1
sbasg147
Nsg100
I2
sg148
(dp194
g145
g133
ssg150
g16
sg151
Nsg176
(dp195
sg152
(lp196
sg102
g103
sg154
(lp197
sbsS'_range_index'
p198
NsS'_context'
p199
(dp200
sS'_padded'
p201
Nsg28
g31
sS'sections'
p202
(lp203
I1
aI1
asS'_first_spanned_ref'
p204
NsS'tref'
p205
VSeder Olam Rabbah 1:1
p206
sS'_spanned_refs'
p207
(lp208
sS'book'
p209
g133
sS'_range_depth'
p210
NsS'toSections'
p211
(lp212
I1
aI1
asS'_url'
p213
NsS'_normal'
p214
g206
sS'_ranged_refs'
p215
(lp216
sS'type'
p217
g62
sS'_prev'
p218
NsS'_he_normal'
p219
NsS'_next'
p220
Nsbag2
(g3
g4
Ntp221
Rp222
(dp223
g8
g11
sg198
Nsg199
(dp224
sg201
Nsg28
g31
sg202
(lp225
I1
aI2
asg204
Nsg205
VSeder Olam Rabbah 1:2
p226
sg207
(lp227
sg209
g133
sg210
Nsg211
(lp228
I1
aI2
asg213
Nsg214
g226
sg215
(lp229
sg217
g62
sg218
Nsg219
Nsg220
Nsbag2
(g3
g4
Ntp230
Rp231
(dp232
g8
g11
sg198
Nsg199
(dp233
sg201
Nsg28
g31
sg202
(lp234
I2
aI1
asg204
Nsg205
VSeder Olam Rabbah 2:1
p235
sg207
(lp236
sg209
g133
sg210
Nsg211
(lp237
I2
aI1
asg213
Nsg214
g235
sg215
(lp238
sg217
g62
sg218
Nsg219
Nsg220
Nsbag2
(g3
g4
Ntp239
Rp240
(dp241
g8
g11
sg198
Nsg199
(dp242
sg201
Nsg28
g31
sg202
(lp243
I2
aI2
asg204
Nsg205
VSeder Olam Rabbah 2:2
p244
sg207
(lp245
sg209
g133
sg210
Nsg211
(lp246
I2
aI2
asg213
Nsg214
g244
sg215
(lp247
sg217
g62
sg218
Nsg219
Nsg220
Nsbag2
(g3
g4
Ntp248
Rp249
(dp250
g8
g11
sg198
Nsg199
(dp251
sg201
Nsg28
g31
sg202
(lp252
I3
aI1
asg204
Nsg205
VSeder Olam Rabbah 3:1
p253
sg207
(lp254
sg209
g133
sg210
Nsg211
(lp255
I3
aI1
asg213
Nsg214
g253
sg215
(lp256
sg217
g62
sg218
Nsg219
Nsg220
Nsbag2
(g3
g4
Ntp257
Rp258
(dp259
g8
g11
sg198
Nsg199
(dp260
sg201
Nsg28
g31
sg202
(lp261
I3
aI2
asg204
Nsg205
VSeder Olam Rabbah 3:2
p262
sg207
(lp263
sg209
g133
sg210
Nsg211
(lp264
I3
aI2
asg213
Nsg214
g262
sg215
(lp265
sg217
g62
sg218
Nsg219
Nsg220
Nsbag2
(g3
g4
Ntp266
Rp267
(dp268
g8
g11
sg198
Nsg199
(dp269
sg201
Nsg28
g31
sg202
(lp270
I4
aI1
asg204
Nsg205
VSeder Olam Rabbah 4:1
p271
sg207
(lp272
sg209
g133
sg210
Nsg211
(lp273
I4
aI1
asg213
Nsg214
g271
sg215
(lp274
sg217
g62
sg218
Nsg219
Nsg220
Nsbag2
(g3
g4
Ntp275
Rp276
(dp277
g8
g11
sg198
Nsg199
(dp278
sg201
Nsg28
g31
sg202
(lp279
I4
aI2
asg204
Nsg205
VSeder Olam Rabbah 4:2
p280
sg207
(lp281
sg209
g133
sg210
Nsg211
(lp282
I4
aI2
asg213
Nsg214
g280
sg215
(lp283
sg217
g62
sg218
Nsg219
Nsg220
Nsbag2
(g3
g4
Ntp284
Rp285
(dp286
g8
g11
sg198
Nsg199
(dp287
sg201
Nsg28
g31
sg202
(lp288
I5
aI1
asg204
Nsg205
VSeder Olam Rabbah 5:1
p289
sg207
(lp290
sg209
g133
sg210
Nsg211
(lp291
I5
aI1
asg213
Nsg214
g289
sg215
(lp292
sg217
g62
sg218
Nsg219
Nsg220
Nsbag2
(g3
g4
Ntp293
Rp294
(dp295
g8
g11
sg198
Nsg199
(dp296
sg201
Nsg28
g31
sg202
(lp297
I5
aI2
asg204
Nsg205
VSeder Olam Rabbah 5:2
p298
sg207
(lp299
sg209
g133
sg210
Nsg211
(lp300
I5
aI2
asg213
Nsg214
g298
sg215
(lp301
sg217
g62
sg218
Nsg219
Nsg220
Nsbag2
(g3
g4
Ntp302
Rp303
(dp304
g8
g11
sg198
Nsg199
(dp305
sg201
Nsg28
g31
sg202
(lp306
I6
aI1
asg204
Nsg205
VSeder Olam Rabbah 6:1
p307
sg207
(lp308
sg209
g133
sg210
Nsg211
(lp309
I6
aI1
asg213
Nsg214
g307
sg215
(lp310
sg217
g62
sg218
Nsg219
Nsg220
Nsbag2
(g3
g4
Ntp311
Rp312
(dp313
g8
g11
sg198
Nsg199
(dp314
sg201
Nsg28
g31
sg202
(lp315
I6
aI2
asg204
Nsg205
VSeder Olam Rabbah 6:2
p316
sg207
(lp317
sg209
g133
sg210
Nsg211
(lp318
I6
aI2
asg213
Nsg214
g316
sg215
(lp319
sg217
g62
sg218
Nsg219
Nsg220
Nsbag2
(g3
g4
Ntp320
Rp321
(dp322
g8
g11
sg198
Nsg199
(dp323
sg201
Nsg28
g31
sg202
(lp324
I7
aI1
asg204
Nsg205
VSeder Olam Rabbah 7:1
p325
sg207
(lp326
sg209
g133
sg210
Nsg211
(lp327
I7
aI1
asg213
Nsg214
g325
sg215
(lp328
sg217
g62
sg218
Nsg219
Nsg220
Nsbag2
(g3
g4
Ntp329
Rp330
(dp331
g8
g11
sg198
Nsg199
(dp332
sg201
Nsg28
g31
sg202
(lp333
I7
aI2
asg204
Nsg205
VSeder Olam Rabbah 7:2
p334
sg207
(lp335
sg209
g133
sg210
Nsg211
(lp336
I7
aI2
asg213
Nsg214
g334
sg215
(lp337
sg217
g62
sg218
Nsg219
Nsg220
Nsbag2
(g3
g4
Ntp338
Rp339
(dp340
g8
g11
sg198
Nsg199
(dp341
sg201
Nsg28
g31
sg202
(lp342
I8
aI1
asg204
Nsg205
VSeder Olam Rabbah 8:1
p343
sg207
(lp344
sg209
g133
sg210
Nsg211
(lp345
I8
aI1
asg213
Nsg214
g343
sg215
(lp346
sg217
g62
sg218
Nsg219
Nsg220
Nsbag2
(g3
g4
Ntp347
Rp348
(dp349
g8
g11
sg198
Nsg199
(dp350
sg201
Nsg28
g31
sg202
(lp351
I8
aI2
asg204
Nsg205
VSeder Olam Rabbah 8:2
p352
sg207
(lp353
sg209
g133
sg210
Nsg211
(lp354
I8
aI2
asg213
Nsg214
g352
sg215
(lp355
sg217
g62
sg218
Nsg219
Nsg220
Nsbag2
(g3
g4
Ntp356
Rp357
(dp358
g8
g11
sg198
Nsg199
(dp359
sg201
Nsg28
g31
sg202
(lp360
I9
aI1
asg204
Nsg205
VSeder Olam Rabbah 9:1
p361
sg207
(lp362
sg209
g133
sg210
Nsg211
(lp363
I9
aI1
asg213
Nsg214
g361
sg215
(lp364
sg217
g62
sg218
Nsg219
Nsg220
Nsbag2
(g3
g4
Ntp365
Rp366
(dp367
g8
g11
sg198
Nsg199
(dp368
sg201
Nsg28
g31
sg202
(lp369
I9
aI2
asg204
Nsg205
VSeder Olam Rabbah 9:2
p370
sg207
(lp371
sg209
g133
sg210
Nsg211
(lp372
I9
aI2
asg213
Nsg214
g370
sg215
(lp373
sg217
g62
sg218
Nsg219
Nsg220
Nsbag2
(g3
g4
Ntp374
Rp375
(dp376
g8
g11
sg198
Nsg199
(dp377
sg201
Nsg28
g31
sg202
(lp378
I10
aI1
asg204
Nsg205
VSeder Olam Rabbah 10:1
p379
sg207
(lp380
sg209
g133
sg210
Nsg211
(lp381
I10
aI1
asg213
Nsg214
g379
sg215
(lp382
sg217
g62
sg218
Nsg219
Nsg220
Nsbag2
(g3
g4
Ntp383
Rp384
(dp385
g8
g11
sg198
Nsg199
(dp386
sg201
Nsg28
g31
sg202
(lp387
I10
aI2
asg204
Nsg205
VSeder Olam Rabbah 10:2
p388
sg207
(lp389
sg209
g133
sg210
Nsg211
(lp390
I10
aI2
asg213
Nsg214
g388
sg215
(lp391
sg217
g62
sg218
Nsg219
Nsg220
Nsbag2
(g3
g4
Ntp392
Rp393
(dp394
g8
g11
sg198
Nsg199
(dp395
sg201
Nsg28
g31
sg202
(lp396
I10
aI3
asg204
Nsg205
VSeder Olam Rabbah 10:3
p397
sg207
(lp398
sg209
g133
sg210
Nsg211
(lp399
I10
aI3
asg213
Nsg214
g397
sg215
(lp400
sg217
g62
sg218
Nsg219
Nsg220
Nsbag2
(g3
g4
Ntp401
Rp402
(dp403
g8
g11
sg198
Nsg199
(dp404
sg201
Nsg28
g31
sg202
(lp405
I11
aI1
asg204
Nsg205
VSeder Olam Rabbah 11:1
p406
sg207
(lp407
sg209
g133
sg210
Nsg211
(lp408
I11
aI1
asg213
Nsg214
g406
sg215
(lp409
sg217
g62
sg218
Nsg219
Nsg220
Nsbag2
(g3
g4
Ntp410
Rp411
(dp412
g8
g11
sg198
Nsg199
(dp413
sg201
Nsg28
g31
sg202
(lp414
I11
aI2
asg204
Nsg205
VSeder Olam Rabbah 11:2
p415
sg207
(lp416
sg209
g133
sg210
Nsg211
(lp417
I11
aI2
asg213
Nsg214
g415
sg215
(lp418
sg217
g62
sg218
Nsg219
Nsg220
Nsbag2
(g3
g4
Ntp419
Rp420
(dp421
g8
g11
sg198
Nsg199
(dp422
sg201
Nsg28
g31
sg202
(lp423
I12
aI1
asg204
Nsg205
VSeder Olam Rabbah 12:1
p424
sg207
(lp425
sg209
g133
sg210
Nsg211
(lp426
I12
aI1
asg213
Nsg214
g424
sg215
(lp427
sg217
g62
sg218
Nsg219
Nsg220
Nsbag2
(g3
g4
Ntp428
Rp429
(dp430
g8
g11
sg198
Nsg199
(dp431
sg201
Nsg28
g31
sg202
(lp432
I12
aI2
asg204
Nsg205
VSeder Olam Rabbah 12:2
p433
sg207
(lp434
sg209
g133
sg210
Nsg211
(lp435
I12
aI2
asg213
Nsg214
g433
sg215
(lp436
sg217
g62
sg218
Nsg219
Nsg220
Nsbag2
(g3
g4
Ntp437
Rp438
(dp439
g8
g11
sg198
Nsg199
(dp440
sg201
Nsg28
g31
sg202
(lp441
I13
aI1
asg204
Nsg205
VSeder Olam Rabbah 13:1
p442
sg207
(lp443
sg209
g133
sg210
Nsg211
(lp444
I13
aI1
asg213
Nsg214
g442
sg215
(lp445
sg217
g62
sg218
Nsg219
Nsg220
Nsbag2
(g3
g4
Ntp446
Rp447
(dp448
g8
g11
sg198
Nsg199
(dp449
sg201
Nsg28
g31
sg202
(lp450
I13
aI2
asg204
Nsg205
VSeder Olam Rabbah 13:2
p451
sg207
(lp452
sg209
g133
sg210
Nsg211
(lp453
I13
aI2
asg213
Nsg214
g451
sg215
(lp454
sg217
g62
sg218
Nsg219
Nsg220
Nsbag2
(g3
g4
Ntp455
Rp456
(dp457
g8
g11
sg198
Nsg199
(dp458
sg201
Nsg28
g31
sg202
(lp459
I14
aI1
asg204
Nsg205
VSeder Olam Rabbah 14:1
p460
sg207
(lp461
sg209
g133
sg210
Nsg211
(lp462
I14
aI1
asg213
Nsg214
g460
sg215
(lp463
sg217
g62
sg218
Nsg219
Nsg220
Nsbag2
(g3
g4
Ntp464
Rp465
(dp466
g8
g11
sg198
Nsg199
(dp467
sg201
Nsg28
g31
sg202
(lp468
I14
aI2
asg204
Nsg205
VSeder Olam Rabbah 14:2
p469
sg207
(lp470
sg209
g133
sg210
Nsg211
(lp471
I14
aI2
asg213
Nsg214
g469
sg215
(lp472
sg217
g62
sg218
Nsg219
Nsg220
Nsbag2
(g3
g4
Ntp473
Rp474
(dp475
g8
g11
sg198
Nsg199
(dp476
sg201
Nsg28
g31
sg202
(lp477
I15
aI1
asg204
Nsg205
VSeder Olam Rabbah 15:1
p478
sg207
(lp479
sg209
g133
sg210
Nsg211
(lp480
I15
aI1
asg213
Nsg214
g478
sg215
(lp481
sg217
g62
sg218
Nsg219
Nsg220
Nsbag2
(g3
g4
Ntp482
Rp483
(dp484
g8
g11
sg198
Nsg199
(dp485
sg201
Nsg28
g31
sg202
(lp486
I15
aI2
asg204
Nsg205
VSeder Olam Rabbah 15:2
p487
sg207
(lp488
sg209
g133
sg210
Nsg211
(lp489
I15
aI2
asg213
Nsg214
g487
sg215
(lp490
sg217
g62
sg218
Nsg219
Nsg220
Nsbag2
(g3
g4
Ntp491
Rp492
(dp493
g8
g11
sg198
Nsg199
(dp494
sg201
Nsg28
g31
sg202
(lp495
I16
aI1
asg204
Nsg205
VSeder Olam Rabbah 16:1
p496
sg207
(lp497
sg209
g133
sg210
Nsg211
(lp498
I16
aI1
asg213
Nsg214
g496
sg215
(lp499
sg217
g62
sg218
Nsg219
Nsg220
Nsbag2
(g3
g4
Ntp500
Rp501
(dp502
g8
g11
sg198
Nsg199
(dp503
sg201
Nsg28
g31
sg202
(lp504
I16
aI2
asg204
Nsg205
VSeder Olam Rabbah 16:2
p505
sg207
(lp506
sg209
g133
sg210
Nsg211
(lp507
I16
aI2
asg213
Nsg214
g505
sg215
(lp508
sg217
g62
sg218
Nsg219
Nsg220
Nsbag2
(g3
g4
Ntp509
Rp510
(dp511
g8
g11
sg198
Nsg199
(dp512
sg201
Nsg28
g31
sg202
(lp513
I17
aI1
asg204
Nsg205
VSeder Olam Rabbah 17:1
p514
sg207
(lp515
sg209
g133
sg210
Nsg211
(lp516
I17
aI1
asg213
Nsg214
g514
sg215
(lp517
sg217
g62
sg218
Nsg219
Nsg220
Nsbag2
(g3
g4
Ntp518
Rp519
(dp520
g8
g11
sg198
Nsg199
(dp521
sg201
Nsg28
g31
sg202
(lp522
I17
aI2
asg204
Nsg205
VSeder Olam Rabbah 17:2
p523
sg207
(lp524
sg209
g133
sg210
Nsg211
(lp525
I17
aI2
asg213
Nsg214
g523
sg215
(lp526
sg217
g62
sg218
Nsg219
Nsg220
Nsbag2
(g3
g4
Ntp527
Rp528
(dp529
g8
g11
sg198
Nsg199
(dp530
sg201
Nsg28
g31
sg202
(lp531
I18
aI1
asg204
Nsg205
VSeder Olam Rabbah 18:1
p532
sg207
(lp533
sg209
g133
sg210
Nsg211
(lp534
I18
aI1
asg213
Nsg214
g532
sg215
(lp535
sg217
g62
sg218
Nsg219
Nsg220
Nsbag2
(g3
g4
Ntp536
Rp537
(dp538
g8
g11
sg198
Nsg199
(dp539
sg201
Nsg28
g31
sg202
(lp540
I18
aI2
asg204
Nsg205
VSeder Olam Rabbah 18:2
p541
sg207
(lp542
sg209
g133
sg210
Nsg211
(lp543
I18
aI2
asg213
Nsg214
g541
sg215
(lp544
sg217
g62
sg218
Nsg219
Nsg220
Nsbag2
(g3
g4
Ntp545
Rp546
(dp547
g8
g11
sg198
Nsg199
(dp548
sg201
Nsg28
g31
sg202
(lp549
I19
aI1
asg204
Nsg205
VSeder Olam Rabbah 19:1
p550
sg207
(lp551
sg209
g133
sg210
Nsg211
(lp552
I19
aI1
asg213
Nsg214
g550
sg215
(lp553
sg217
g62
sg218
Nsg219
Nsg220
Nsbag2
(g3
g4
Ntp554
Rp555
(dp556
g8
g11
sg198
Nsg199
(dp557
sg201
Nsg28
g31
sg202
(lp558
I19
aI2
asg204
Nsg205
VSeder Olam Rabbah 19:2
p559
sg207
(lp560
sg209
g133
sg210
Nsg211
(lp561
I19
aI2
asg213
Nsg214
g559
sg215
(lp562
sg217
g62
sg218
Nsg219
Nsg220
Nsbag2
(g3
g4
Ntp563
Rp564
(dp565
g8
g11
sg198
Nsg199
(dp566
sg201
Nsg28
g31
sg202
(lp567
I20
aI1
asg204
Nsg205
VSeder Olam Rabbah 20:1
p568
sg207
(lp569
sg209
g133
sg210
Nsg211
(lp570
I20
aI1
asg213
Nsg214
g568
sg215
(lp571
sg217
g62
sg218
Nsg219
Nsg220
Nsbag2
(g3
g4
Ntp572
Rp573
(dp574
g8
g11
sg198
Nsg199
(dp575
sg201
Nsg28
g31
sg202
(lp576
I20
aI2
asg204
Nsg205
VSeder Olam Rabbah 20:2
p577
sg207
(lp578
sg209
g133
sg210
Nsg211
(lp579
I20
aI2
asg213
Nsg214
g577
sg215
(lp580
sg217
g62
sg218
Nsg219
Nsg220
Nsbag2
(g3
g4
Ntp581
Rp582
(dp583
g8
g11
sg198
Nsg199
(dp584
sg201
Nsg28
g31
sg202
(lp585
I20
aI3
asg204
Nsg205
VSeder Olam Rabbah 20:3
p586
sg207
(lp587
sg209
g133
sg210
Nsg211
(lp588
I20
aI3
asg213
Nsg214
g586
sg215
(lp589
sg217
g62
sg218
Nsg219
Nsg220
Nsbag2
(g3
g4
Ntp590
Rp591
(dp592
g8
g11
sg198
Nsg199
(dp593
sg201
Nsg28
g31
sg202
(lp594
I21
aI1
asg204
Nsg205
VSeder Olam Rabbah 21:1
p595
sg207
(lp596
sg209
g133
sg210
Nsg211
(lp597
I21
aI1
asg213
Nsg214
g595
sg215
(lp598
sg217
g62
sg218
Nsg219
Nsg220
Nsbag2
(g3
g4
Ntp599
Rp600
(dp601
g8
g11
sg198
Nsg199
(dp602
sg201
Nsg28
g31
sg202
(lp603
I21
aI2
asg204
Nsg205
VSeder Olam Rabbah 21:2
p604
sg207
(lp605
sg209
g133
sg210
Nsg211
(lp606
I21
aI2
asg213
Nsg214
g604
sg215
(lp607
sg217
g62
sg218
Nsg219
Nsg220
Nsbag2
(g3
g4
Ntp608
Rp609
(dp610
g8
g11
sg198
Nsg199
(dp611
sg201
Nsg28
g31
sg202
(lp612
I22
aI1
asg204
Nsg205
VSeder Olam Rabbah 22:1
p613
sg207
(lp614
sg209
g133
sg210
Nsg211
(lp615
I22
aI1
asg213
Nsg214
g613
sg215
(lp616
sg217
g62
sg218
Nsg219
Nsg220
Nsbag2
(g3
g4
Ntp617
Rp618
(dp619
g8
g11
sg198
Nsg199
(dp620
sg201
Nsg28
g31
sg202
(lp621
I22
aI2
asg204
Nsg205
VSeder Olam Rabbah 22:2
p622
sg207
(lp623
sg209
g133
sg210
Nsg211
(lp624
I22
aI2
asg213
Nsg214
g622
sg215
(lp625
sg217
g62
sg218
Nsg219
Nsg220
Nsbag2
(g3
g4
Ntp626
Rp627
(dp628
g8
g11
sg198
Nsg199
(dp629
sg201
Nsg28
g31
sg202
(lp630
I23
aI1
asg204
Nsg205
VSeder Olam Rabbah 23:1
p631
sg207
(lp632
sg209
g133
sg210
Nsg211
(lp633
I23
aI1
asg213
Nsg214
g631
sg215
(lp634
sg217
g62
sg218
Nsg219
Nsg220
Nsbag2
(g3
g4
Ntp635
Rp636
(dp637
g8
g11
sg198
Nsg199
(dp638
sg201
Nsg28
g31
sg202
(lp639
I23
aI2
asg204
Nsg205
VSeder Olam Rabbah 23:2
p640
sg207
(lp641
sg209
g133
sg210
Nsg211
(lp642
I23
aI2
asg213
Nsg214
g640
sg215
(lp643
sg217
g62
sg218
Nsg219
Nsg220
Nsbag2
(g3
g4
Ntp644
Rp645
(dp646
g8
g11
sg198
Nsg199
(dp647
sg201
Nsg28
g31
sg202
(lp648
I24
aI1
asg204
Nsg205
VSeder Olam Rabbah 24:1
p649
sg207
(lp650
sg209
g133
sg210
Nsg211
(lp651
I24
aI1
asg213
Nsg214
g649
sg215
(lp652
sg217
g62
sg218
Nsg219
Nsg220
Nsbag2
(g3
g4
Ntp653
Rp654
(dp655
g8
g11
sg198
Nsg199
(dp656
sg201
Nsg28
g31
sg202
(lp657
I24
aI2
asg204
Nsg205
VSeder Olam Rabbah 24:2
p658
sg207
(lp659
sg209
g133
sg210
Nsg211
(lp660
I24
aI2
asg213
Nsg214
g658
sg215
(lp661
sg217
g62
sg218
Nsg219
Nsg220
Nsbag2
(g3
g4
Ntp662
Rp663
(dp664
g8
g11
sg198
Nsg199
(dp665
sg201
Nsg28
g31
sg202
(lp666
I25
aI1
asg204
Nsg205
VSeder Olam Rabbah 25:1
p667
sg207
(lp668
sg209
g133
sg210
Nsg211
(lp669
I25
aI1
asg213
Nsg214
g667
sg215
(lp670
sg217
g62
sg218
Nsg219
Nsg220
Nsbag2
(g3
g4
Ntp671
Rp672
(dp673
g8
g11
sg198
Nsg199
(dp674
sg201
Nsg28
g31
sg202
(lp675
I25
aI2
asg204
Nsg205
VSeder Olam Rabbah 25:2
p676
sg207
(lp677
sg209
g133
sg210
Nsg211
(lp678
I25
aI2
asg213
Nsg214
g676
sg215
(lp679
sg217
g62
sg218
Nsg219
Nsg220
Nsbag2
(g3
g4
Ntp680
Rp681
(dp682
g8
g11
sg198
Nsg199
(dp683
sg201
Nsg28
g31
sg202
(lp684
I26
aI1
asg204
Nsg205
VSeder Olam Rabbah 26:1
p685
sg207
(lp686
sg209
g133
sg210
Nsg211
(lp687
I26
aI1
asg213
Nsg214
g685
sg215
(lp688
sg217
g62
sg218
Nsg219
Nsg220
Nsbag2
(g3
g4
Ntp689
Rp690
(dp691
g8
g11
sg198
Nsg199
(dp692
sg201
Nsg28
g31
sg202
(lp693
I26
aI2
asg204
Nsg205
VSeder Olam Rabbah 26:2
p694
sg207
(lp695
sg209
g133
sg210
Nsg211
(lp696
I26
aI2
asg213
Nsg214
g694
sg215
(lp697
sg217
g62
sg218
Nsg219
Nsg220
Nsbag2
(g3
g4
Ntp698
Rp699
(dp700
g8
g11
sg198
Nsg199
(dp701
sg201
Nsg28
g31
sg202
(lp702
I27
aI1
asg204
Nsg205
VSeder Olam Rabbah 27:1
p703
sg207
(lp704
sg209
g133
sg210
Nsg211
(lp705
I27
aI1
asg213
Nsg214
g703
sg215
(lp706
sg217
g62
sg218
Nsg219
Nsg220
Nsbag2
(g3
g4
Ntp707
Rp708
(dp709
g8
g11
sg198
Nsg199
(dp710
sg201
Nsg28
g31
sg202
(lp711
I27
aI2
asg204
Nsg205
VSeder Olam Rabbah 27:2
p712
sg207
(lp713
sg209
g133
sg210
Nsg211
(lp714
I27
aI2
asg213
Nsg214
g712
sg215
(lp715
sg217
g62
sg218
Nsg219
Nsg220
Nsbag2
(g3
g4
Ntp716
Rp717
(dp718
g8
g11
sg198
Nsg199
(dp719
sg201
Nsg28
g31
sg202
(lp720
I28
aI1
asg204
Nsg205
VSeder Olam Rabbah 28:1
p721
sg207
(lp722
sg209
g133
sg210
Nsg211
(lp723
I28
aI1
asg213
Nsg214
g721
sg215
(lp724
sg217
g62
sg218
Nsg219
Nsg220
Nsbag2
(g3
g4
Ntp725
Rp726
(dp727
g8
g11
sg198
Nsg199
(dp728
sg201
Nsg28
g31
sg202
(lp729
I28
aI2
asg204
Nsg205
VSeder Olam Rabbah 28:2
p730
sg207
(lp731
sg209
g133
sg210
Nsg211
(lp732
I28
aI2
asg213
Nsg214
g730
sg215
(lp733
sg217
g62
sg218
Nsg219
Nsg220
Nsbag2
(g3
g4
Ntp734
Rp735
(dp736
g8
g11
sg198
Nsg199
(dp737
sg201
Nsg28
g31
sg202
(lp738
I29
aI1
asg204
Nsg205
VSeder Olam Rabbah 29:1
p739
sg207
(lp740
sg209
g133
sg210
Nsg211
(lp741
I29
aI1
asg213
Nsg214
g739
sg215
(lp742
sg217
g62
sg218
Nsg219
Nsg220
Nsbag2
(g3
g4
Ntp743
Rp744
(dp745
g8
g11
sg198
Nsg199
(dp746
sg201
Nsg28
g31
sg202
(lp747
I29
aI2
asg204
Nsg205
VSeder Olam Rabbah 29:2
p748
sg207
(lp749
sg209
g133
sg210
Nsg211
(lp750
I29
aI2
asg213
Nsg214
g748
sg215
(lp751
sg217
g62
sg218
Nsg219
Nsg220
Nsbag2
(g3
g4
Ntp752
Rp753
(dp754
g8
g11
sg198
Nsg199
(dp755
sg201
Nsg28
g31
sg202
(lp756
I30
aI1
asg204
Nsg205
VSeder Olam Rabbah 30:1
p757
sg207
(lp758
sg209
g133
sg210
Nsg211
(lp759
I30
aI1
asg213
Nsg214
g757
sg215
(lp760
sg217
g62
sg218
Nsg219
Nsg220
Nsbag2
(g3
g4
Ntp761
Rp762
(dp763
g8
g11
sg198
Nsg199
(dp764
sg201
Nsg28
g31
sg202
(lp765
I30
aI2
asg204
Nsg205
VSeder Olam Rabbah 30:2
p766
sg207
(lp767
sg209
g133
sg210
Nsg211
(lp768
I30
aI2
asg213
Nsg214
g766
sg215
(lp769
sg217
g62
sg218
Nsg219
Nsg220
Nsbag2
(g3
g4
Ntp770
Rp771
(dp772
g8
g11
sg198
Nsg199
(dp773
sg201
Nsg28
g31
sg202
(lp774
I30
aI3
asg204
Nsg205
VSeder Olam Rabbah 30:3
p775
sg207
(lp776
sg209
g133
sg210
Nsg211
(lp777
I30
aI3
asg213
Nsg214
g775
sg215
(lp778
sg217
g62
sg218
Nsg219
Nsg220
Nsbatp779
.