((lp0
I0
aI742
aI778
aI833
aI889
aI1090
aI1170
aI1216
aI1555
aI1775
aI1881
aI1993
aI2172
aI2556
aI2768
aI3060
aI3247
aI3617
aI3791
aI3879
aI4006
aI4091
aI4220
aI4360
aI4662
aI4830
aI5070
aI5241
aI5493
aI5724
aI5867
aI6020
aI6499
aI6639
aI6790
aI6885
aI7108
aI7235
aI7599
aI7722
aI8080
aI8755
aI9078
aI9376
aI9706
aI9800
aI10115
aI10175
aI10466
aI10572
aI10989
aI11050
aI11079
aI11158
aI11483
aI11765
aI11856
aI11948
aI12115
aI12293
aI12442
aI12691
aI12833
aI12971
aI13172
aI13223
aI13252
aI13340
aI13386
aI13461
aI13534
aI13670
aI14288
aI14555
aI14590
aI14832
aI14973
aI15623
aI15680
aI15720
aI15804
aI15941
aI16040
aI16154
aI16277
aI16496
aI16533
aI17035
aI17224
aI17313
aI17582
aI17647
aI17794
aI17888
aI18007
aI18194
aI18263
aI18703
aI19153
aI19236
aI19578
aI19648
aI19742
aI19783
aI19860
aI19946
aI20256
aI20368
aI20485
aI20587
aI20927
aI21004
aI21136
aI21283
aI21538
aI21638
aI21740
aI21795
aI22042
aI22288
aI22452
aI22593
aI22857
aI22959
aI23180
aI23321
aI23530
aI23818
aI23928
aI23987
aI24132
aI24395
aI24442
aI24576
aI24670
aI24764
aI24862
aI24925
aI25023
aI25154
aI25556
aI25852
aI25963
aI26047
aI26256
aI26392
aI26989
aI27398
aI27490
aI27549
aI27851
aI28002
aI28257
aI28331
aI28526
aI28992
aI29240
aI29581
aI29699
aI29837
aI30069
aI30363
aI31424
aI31685
aI31879
aI31980
aI32403
aI32885
aI33081
aI33246
aI33321
aI33386
aI33529
aI34290
aI34404
aI34657
aI34902
aI35094
aI35175
aI35317
aI35503
aI35891
aI36019
aI36112
aI36173
aI36877
aI37039
aI37137
aI37198
aI37269
aI37461
aI37553
aI37685
aI37994
aI38166
aI38299
aI38816
aI39111
aI39292
aI39480
aI39606
aI40345
aI40531
aI40662
aI40709
aI40947
aI41108
aI41292
aI41354
aI41502
aI41729
aI42011
aI42120
aI42192
aI42344
aI42411
aI42501
aI42585
aI42696
aI43013
aI43330
aI43463
aI43686
aI43950
aI44578
aI44847
aI45075
aI45314
aI45394
aI45525
aI45595
aI45914
aI46084
aI46352
aI46454
aI46555
aI46754
aI46937
aI47254
aI47389
aI47617
aI47804
aI48031
aI48228
aI48292
aI48395
aI48519
aI48790
aI49329
aI49502
aI49714
aI49954
aI50120
aI50261
aI50548
aI50725
aI50925
aI51250
aI51496
aI52197
aI52311
aI52447
aI52535
aI52810
aI52915
aI53350
aI53495
aI53683
aI53828
aI53929
aI54049
aI54119
aI54345
aI54408
aI54459
aI54966
aI55136
aI55284
aI55418
aI55559
aI55621
aI55875
aI55986
aI56092
aI56144
aI56315
aI56420
aI56476
aI56582
aI56621
aI57191
aI57555
aI57622
aI58007
aI58065
aI58317
aI58408
aI58514
aI58639
aI59054
aI59141
aI59413
aI59519
aI59791
aI59892
aI60130
aI60392
aI60624
aI60727
aI60893
aI61020
aI61183
aI61280
aI61346
aI62297
aI62441
aI62528
aI62910
aI63099
aI63304
aI63523
aI63704
aI63873
aI64028
aI64348
aI64450
aI64630
aI64969
aI65248
aI65693
aI65845
aI66624
aI66811
aI67159
aI67249
aI67409
aI67606
aI67678
aI67874
aI67957
aI68098
aI68326
aI68419
aI68490
aI68735
aI69234
aI69311
aI69507
aI69703
aI69970
aI70129
aI70239
aI70638
aI70687
aI70748
aI70816
aI71117
aI71224
aI71595
aI71730
aI71982
aI72128
aI72384
aI72570
aI72619
aI72754
aI72824
aI72916
aI73112
aI73594
aI73673
aI73875
aI73954
aI74158
aI74248
aI74302
aI74636
aI74763
aI74966
aI75437
aI75863
aI76058
aI76323
aI76514
aI76716
aI76855
aI77399
aI77744
aI77889
aI78167
aI78328
aI78574
aI78677
aI78845
aI79235
aI79420
aI79744
aI79842
aI80092
aI80384
aI80478
aI80661
aI80878
aI81154
aI81310
aI81508
aI81662
aI81731
aI81909
aI81975
aI82044
aI82121
aI82199
aI82506
aI82714
aI82901
aI83286
aI83454
aI83620
aI83926
aI84101
aI84343
aI84354
aI84389
aI84407
aI84521
aI84714
aI85394
aI85590
aI85730
aI85791
aI86067
aI86139
aI86427
aI86557
aI86760
aI86854
aI87097
aI87336
aI87539
aI87699
aI87962
aI88036
aI88154
aI88250
aI88441
aI88576
aI88733
aI88892
aI89026
aI89177
aI89325
aI89465
aI89518
aI89700
aI89895
aI90125
aI90359
aI90728
aI90822
aI91017
aI91504
aI91640
a(lp1
ccopy_reg
_reconstructor
p2
(csefaria.model.text
Ref
p3
c__builtin__
object
p4
Ntp5
Rp6
(dp7
S'index_node'
p8
g2
(csefaria.model.schema
JaggedArrayNode
p9
g4
Ntp10
Rp11
(dp12
S'_address'
p13
(lp14
VShemot Rabbah
p15
asS'_full_titles'
p16
(dp17
sVnodeType
p18
VJaggedArrayNode
p19
sS'parent'
p20
NsVaddressTypes
p21
(lp22
VInteger
p23
aVInteger
p24
asS'default'
p25
I00
sS'index'
p26
g2
(csefaria.model.text
Index
p27
g4
Ntp28
Rp29
(dp30
S'pkeys_orig_values'
p31
(dp32
S'title'
p33
VShemot Rabbah
p34
ssS'pubDate'
p35
V1512
p36
sS'compDate'
p37
V1200
p38
sS'pubPlace'
p39
VIstanbul
p40
sS'compPlace'
p41
VTalmudic Israel/Babylon
p42
sS'enDesc'
p43
VShemot Rabbah (The Great Exodus) is the midrash to the book of Shemot, containing in the printed editions 52 parashiyyot. It is not uniform in its composition. In parashiyyot 1-14 the proems are almost invariably followed by the running commentary on the entire seder or other Scriptural division. The author includes sources Tanhuma as well as others. Zunz ascribes the composition of the entire work to the 11th or 12th century
p44
sS'order'
p45
(lp46
F2.0
asS'era'
p47
VRI
p48
sS'struct_objs'
p49
(dp50
sS'nodes'
p51
g11
sS'_id'
p52
g2
(cbson.objectid
ObjectId
p53
g4
Ntp54
Rp55
S'P\xeb\x9bq\xed\xba\xb46\xcb\xb6\xcde'
p56
bsS'_title'
p57
g34
sS'categories'
p58
(lp59
VMidrash
p60
aVAggadic Midrash
p61
aVMidrash Rabbah
p62
asS'schema'
p63
(dp64
g18
g19
sg21
g22
sVdepth
p65
I2
sVtitles
p66
(lp67
(dp68
Vlang
p69
Ven
p70
sVtext
p71
VExodus Rabbah
p72
sa(dp73
Vlang
p74
Ven
p75
sVtext
p76
VShemoth Rabbah
p77
sa(dp78
Vlang
p79
Ven
p80
sVtext
p81
VShmot Rabbah
p82
sa(dp83
Vlang
p84
Ven
p85
sVtext
p86
VExodus Rabba
p87
sa(dp88
Vlang
p89
Ven
p90
sVtext
p91
VShemoth Rabba
p92
sa(dp93
Vlang
p94
Ven
p95
sVtext
p96
VShmot Rabba
p97
sa(dp98
Vlang
p99
Ven
p100
sVtext
p101
VShemot Rabba
p102
sa(dp103
Vlang
p104
Ven
p105
sVtext
p106
VMidrash Rabbah Shemot
p107
sa(dp108
Vlang
p109
Vhe
p110
sVtext
p111
V\u05e9\u05de\u05d5\u05ea \u05e8\u05d1\u05d4
p112
sVprimary
p113
I01
sa(dp114
Vlang
p115
Ven
p116
sVtext
p117
VShemot Rabbah
p118
sVprimary
p119
I01
sasVkey
p120
g15
sVsectionNames
p121
(lp122
VChapter
p123
aVParagraph
p124
assbsS'_primary_title'
p125
(dp126
sS'title_group'
p127
g2
(csefaria.model.schema
TitleGroup
p128
g4
Ntp129
Rp130
(dp131
g125
(dp132
S'en'
p133
g118
ssS'titles'
p134
g67
sbsS'_addressTypes'
p135
(lp136
g2
(csefaria.model.schema
AddressInteger
p137
g4
Ntp138
Rp139
(dp140
S'length'
p141
Nsg45
I0
sbag2
(g137
g4
Ntp142
Rp143
(dp144
g141
Nsg45
I1
sbasS'sharedTitle'
p145
Nsg65
I2
sS'_full_title'
p146
(dp147
g133
g118
ssS'key'
p148
g15
sS'checkFirst'
p149
NsS'_regexes'
p150
(dp151
sS'_leaf_nodes'
p152
(lp153
sg121
g122
sS'children'
p154
(lp155
sbsS'_range_index'
p156
NsS'_context'
p157
(dp158
sS'_padded'
p159
Nsg26
g29
sS'sections'
p160
(lp161
I1
aI1
asS'_first_spanned_ref'
p162
NsS'tref'
p163
VShemot Rabbah 1:1
p164
sS'_spanned_refs'
p165
(lp166
sS'book'
p167
g118
sS'_range_depth'
p168
NsS'toSections'
p169
(lp170
I1
aI1
asS'_url'
p171
NsS'_normal'
p172
g164
sS'_ranged_refs'
p173
(lp174
sS'type'
p175
g60
sS'_prev'
p176
NsS'_he_normal'
p177
NsS'_next'
p178
Nsbag2
(g3
g4
Ntp179
Rp180
(dp181
g8
g11
sg156
Nsg157
(dp182
sg159
Nsg26
g29
sg160
(lp183
I1
aI2
asg162
Nsg163
VShemot Rabbah 1:2
p184
sg165
(lp185
sg167
g118
sg168
Nsg169
(lp186
I1
aI2
asg171
Nsg172
g184
sg173
(lp187
sg175
g60
sg176
Nsg177
Nsg178
Nsbag2
(g3
g4
Ntp188
Rp189
(dp190
g8
g11
sg156
Nsg157
(dp191
sg159
Nsg26
g29
sg160
(lp192
I1
aI3
asg162
Nsg163
VShemot Rabbah 1:3
p193
sg165
(lp194
sg167
g118
sg168
Nsg169
(lp195
I1
aI3
asg171
Nsg172
g193
sg173
(lp196
sg175
g60
sg176
Nsg177
Nsg178
Nsbag2
(g3
g4
Ntp197
Rp198
(dp199
g8
g11
sg156
Nsg157
(dp200
sg159
Nsg26
g29
sg160
(lp201
I1
aI4
asg162
Nsg163
VShemot Rabbah 1:4
p202
sg165
(lp203
sg167
g118
sg168
Nsg169
(lp204
I1
aI4
asg171
Nsg172
g202
sg173
(lp205
sg175
g60
sg176
Nsg177
Nsg178
Nsbag2
(g3
g4
Ntp206
Rp207
(dp208
g8
g11
sg156
Nsg157
(dp209
sg159
Nsg26
g29
sg160
(lp210
I1
aI5
asg162
Nsg163
VShemot Rabbah 1:5
p211
sg165
(lp212
sg167
g118
sg168
Nsg169
(lp213
I1
aI5
asg171
Nsg172
g211
sg173
(lp214
sg175
g60
sg176
Nsg177
Nsg178
Nsbag2
(g3
g4
Ntp215
Rp216
(dp217
g8
g11
sg156
Nsg157
(dp218
sg159
Nsg26
g29
sg160
(lp219
I1
aI6
asg162
Nsg163
VShemot Rabbah 1:6
p220
sg165
(lp221
sg167
g118
sg168
Nsg169
(lp222
I1
aI6
asg171
Nsg172
g220
sg173
(lp223
sg175
g60
sg176
Nsg177
Nsg178
Nsbag2
(g3
g4
Ntp224
Rp225
(dp226
g8
g11
sg156
Nsg157
(dp227
sg159
Nsg26
g29
sg160
(lp228
I1
aI7
asg162
Nsg163
VShemot Rabbah 1:7
p229
sg165
(lp230
sg167
g118
sg168
Nsg169
(lp231
I1
aI7
asg171
Nsg172
g229
sg173
(lp232
sg175
g60
sg176
Nsg177
Nsg178
Nsbag2
(g3
g4
Ntp233
Rp234
(dp235
g8
g11
sg156
Nsg157
(dp236
sg159
Nsg26
g29
sg160
(lp237
I1
aI8
asg162
Nsg163
VShemot Rabbah 1:8
p238
sg165
(lp239
sg167
g118
sg168
Nsg169
(lp240
I1
aI8
asg171
Nsg172
g238
sg173
(lp241
sg175
g60
sg176
Nsg177
Nsg178
Nsbag2
(g3
g4
Ntp242
Rp243
(dp244
g8
g11
sg156
Nsg157
(dp245
sg159
Nsg26
g29
sg160
(lp246
I1
aI9
asg162
Nsg163
VShemot Rabbah 1:9
p247
sg165
(lp248
sg167
g118
sg168
Nsg169
(lp249
I1
aI9
asg171
Nsg172
g247
sg173
(lp250
sg175
g60
sg176
Nsg177
Nsg178
Nsbag2
(g3
g4
Ntp251
Rp252
(dp253
g8
g11
sg156
Nsg157
(dp254
sg159
Nsg26
g29
sg160
(lp255
I1
aI10
asg162
Nsg163
VShemot Rabbah 1:10
p256
sg165
(lp257
sg167
g118
sg168
Nsg169
(lp258
I1
aI10
asg171
Nsg172
g256
sg173
(lp259
sg175
g60
sg176
Nsg177
Nsg178
Nsbag2
(g3
g4
Ntp260
Rp261
(dp262
g8
g11
sg156
Nsg157
(dp263
sg159
Nsg26
g29
sg160
(lp264
I1
aI11
asg162
Nsg163
VShemot Rabbah 1:11
p265
sg165
(lp266
sg167
g118
sg168
Nsg169
(lp267
I1
aI11
asg171
Nsg172
g265
sg173
(lp268
sg175
g60
sg176
Nsg177
Nsg178
Nsbag2
(g3
g4
Ntp269
Rp270
(dp271
g8
g11
sg156
Nsg157
(dp272
sg159
Nsg26
g29
sg160
(lp273
I1
aI12
asg162
Nsg163
VShemot Rabbah 1:12
p274
sg165
(lp275
sg167
g118
sg168
Nsg169
(lp276
I1
aI12
asg171
Nsg172
g274
sg173
(lp277
sg175
g60
sg176
Nsg177
Nsg178
Nsbag2
(g3
g4
Ntp278
Rp279
(dp280
g8
g11
sg156
Nsg157
(dp281
sg159
Nsg26
g29
sg160
(lp282
I1
aI13
asg162
Nsg163
VShemot Rabbah 1:13
p283
sg165
(lp284
sg167
g118
sg168
Nsg169
(lp285
I1
aI13
asg171
Nsg172
g283
sg173
(lp286
sg175
g60
sg176
Nsg177
Nsg178
Nsbag2
(g3
g4
Ntp287
Rp288
(dp289
g8
g11
sg156
Nsg157
(dp290
sg159
Nsg26
g29
sg160
(lp291
I1
aI14
asg162
Nsg163
VShemot Rabbah 1:14
p292
sg165
(lp293
sg167
g118
sg168
Nsg169
(lp294
I1
aI14
asg171
Nsg172
g292
sg173
(lp295
sg175
g60
sg176
Nsg177
Nsg178
Nsbag2
(g3
g4
Ntp296
Rp297
(dp298
g8
g11
sg156
Nsg157
(dp299
sg159
Nsg26
g29
sg160
(lp300
I1
aI15
asg162
Nsg163
VShemot Rabbah 1:15
p301
sg165
(lp302
sg167
g118
sg168
Nsg169
(lp303
I1
aI15
asg171
Nsg172
g301
sg173
(lp304
sg175
g60
sg176
Nsg177
Nsg178
Nsbag2
(g3
g4
Ntp305
Rp306
(dp307
g8
g11
sg156
Nsg157
(dp308
sg159
Nsg26
g29
sg160
(lp309
I1
aI16
asg162
Nsg163
VShemot Rabbah 1:16
p310
sg165
(lp311
sg167
g118
sg168
Nsg169
(lp312
I1
aI16
asg171
Nsg172
g310
sg173
(lp313
sg175
g60
sg176
Nsg177
Nsg178
Nsbag2
(g3
g4
Ntp314
Rp315
(dp316
g8
g11
sg156
Nsg157
(dp317
sg159
Nsg26
g29
sg160
(lp318
I1
aI17
asg162
Nsg163
VShemot Rabbah 1:17
p319
sg165
(lp320
sg167
g118
sg168
Nsg169
(lp321
I1
aI17
asg171
Nsg172
g319
sg173
(lp322
sg175
g60
sg176
Nsg177
Nsg178
Nsbag2
(g3
g4
Ntp323
Rp324
(dp325
g8
g11
sg156
Nsg157
(dp326
sg159
Nsg26
g29
sg160
(lp327
I1
aI18
asg162
Nsg163
VShemot Rabbah 1:18
p328
sg165
(lp329
sg167
g118
sg168
Nsg169
(lp330
I1
aI18
asg171
Nsg172
g328
sg173
(lp331
sg175
g60
sg176
Nsg177
Nsg178
Nsbag2
(g3
g4
Ntp332
Rp333
(dp334
g8
g11
sg156
Nsg157
(dp335
sg159
Nsg26
g29
sg160
(lp336
I1
aI19
asg162
Nsg163
VShemot Rabbah 1:19
p337
sg165
(lp338
sg167
g118
sg168
Nsg169
(lp339
I1
aI19
asg171
Nsg172
g337
sg173
(lp340
sg175
g60
sg176
Nsg177
Nsg178
Nsbag2
(g3
g4
Ntp341
Rp342
(dp343
g8
g11
sg156
Nsg157
(dp344
sg159
Nsg26
g29
sg160
(lp345
I1
aI20
asg162
Nsg163
VShemot Rabbah 1:20
p346
sg165
(lp347
sg167
g118
sg168
Nsg169
(lp348
I1
aI20
asg171
Nsg172
g346
sg173
(lp349
sg175
g60
sg176
Nsg177
Nsg178
Nsbag2
(g3
g4
Ntp350
Rp351
(dp352
g8
g11
sg156
Nsg157
(dp353
sg159
Nsg26
g29
sg160
(lp354
I1
aI21
asg162
Nsg163
VShemot Rabbah 1:21
p355
sg165
(lp356
sg167
g118
sg168
Nsg169
(lp357
I1
aI21
asg171
Nsg172
g355
sg173
(lp358
sg175
g60
sg176
Nsg177
Nsg178
Nsbag2
(g3
g4
Ntp359
Rp360
(dp361
g8
g11
sg156
Nsg157
(dp362
sg159
Nsg26
g29
sg160
(lp363
I1
aI22
asg162
Nsg163
VShemot Rabbah 1:22
p364
sg165
(lp365
sg167
g118
sg168
Nsg169
(lp366
I1
aI22
asg171
Nsg172
g364
sg173
(lp367
sg175
g60
sg176
Nsg177
Nsg178
Nsbag2
(g3
g4
Ntp368
Rp369
(dp370
g8
g11
sg156
Nsg157
(dp371
sg159
Nsg26
g29
sg160
(lp372
I1
aI23
asg162
Nsg163
VShemot Rabbah 1:23
p373
sg165
(lp374
sg167
g118
sg168
Nsg169
(lp375
I1
aI23
asg171
Nsg172
g373
sg173
(lp376
sg175
g60
sg176
Nsg177
Nsg178
Nsbag2
(g3
g4
Ntp377
Rp378
(dp379
g8
g11
sg156
Nsg157
(dp380
sg159
Nsg26
g29
sg160
(lp381
I1
aI24
asg162
Nsg163
VShemot Rabbah 1:24
p382
sg165
(lp383
sg167
g118
sg168
Nsg169
(lp384
I1
aI24
asg171
Nsg172
g382
sg173
(lp385
sg175
g60
sg176
Nsg177
Nsg178
Nsbag2
(g3
g4
Ntp386
Rp387
(dp388
g8
g11
sg156
Nsg157
(dp389
sg159
Nsg26
g29
sg160
(lp390
I1
aI25
asg162
Nsg163
VShemot Rabbah 1:25
p391
sg165
(lp392
sg167
g118
sg168
Nsg169
(lp393
I1
aI25
asg171
Nsg172
g391
sg173
(lp394
sg175
g60
sg176
Nsg177
Nsg178
Nsbag2
(g3
g4
Ntp395
Rp396
(dp397
g8
g11
sg156
Nsg157
(dp398
sg159
Nsg26
g29
sg160
(lp399
I1
aI26
asg162
Nsg163
VShemot Rabbah 1:26
p400
sg165
(lp401
sg167
g118
sg168
Nsg169
(lp402
I1
aI26
asg171
Nsg172
g400
sg173
(lp403
sg175
g60
sg176
Nsg177
Nsg178
Nsbag2
(g3
g4
Ntp404
Rp405
(dp406
g8
g11
sg156
Nsg157
(dp407
sg159
Nsg26
g29
sg160
(lp408
I1
aI27
asg162
Nsg163
VShemot Rabbah 1:27
p409
sg165
(lp410
sg167
g118
sg168
Nsg169
(lp411
I1
aI27
asg171
Nsg172
g409
sg173
(lp412
sg175
g60
sg176
Nsg177
Nsg178
Nsbag2
(g3
g4
Ntp413
Rp414
(dp415
g8
g11
sg156
Nsg157
(dp416
sg159
Nsg26
g29
sg160
(lp417
I1
aI28
asg162
Nsg163
VShemot Rabbah 1:28
p418
sg165
(lp419
sg167
g118
sg168
Nsg169
(lp420
I1
aI28
asg171
Nsg172
g418
sg173
(lp421
sg175
g60
sg176
Nsg177
Nsg178
Nsbag2
(g3
g4
Ntp422
Rp423
(dp424
g8
g11
sg156
Nsg157
(dp425
sg159
Nsg26
g29
sg160
(lp426
I1
aI29
asg162
Nsg163
VShemot Rabbah 1:29
p427
sg165
(lp428
sg167
g118
sg168
Nsg169
(lp429
I1
aI29
asg171
Nsg172
g427
sg173
(lp430
sg175
g60
sg176
Nsg177
Nsg178
Nsbag2
(g3
g4
Ntp431
Rp432
(dp433
g8
g11
sg156
Nsg157
(dp434
sg159
Nsg26
g29
sg160
(lp435
I1
aI30
asg162
Nsg163
VShemot Rabbah 1:30
p436
sg165
(lp437
sg167
g118
sg168
Nsg169
(lp438
I1
aI30
asg171
Nsg172
g436
sg173
(lp439
sg175
g60
sg176
Nsg177
Nsg178
Nsbag2
(g3
g4
Ntp440
Rp441
(dp442
g8
g11
sg156
Nsg157
(dp443
sg159
Nsg26
g29
sg160
(lp444
I1
aI31
asg162
Nsg163
VShemot Rabbah 1:31
p445
sg165
(lp446
sg167
g118
sg168
Nsg169
(lp447
I1
aI31
asg171
Nsg172
g445
sg173
(lp448
sg175
g60
sg176
Nsg177
Nsg178
Nsbag2
(g3
g4
Ntp449
Rp450
(dp451
g8
g11
sg156
Nsg157
(dp452
sg159
Nsg26
g29
sg160
(lp453
I1
aI32
asg162
Nsg163
VShemot Rabbah 1:32
p454
sg165
(lp455
sg167
g118
sg168
Nsg169
(lp456
I1
aI32
asg171
Nsg172
g454
sg173
(lp457
sg175
g60
sg176
Nsg177
Nsg178
Nsbag2
(g3
g4
Ntp458
Rp459
(dp460
g8
g11
sg156
Nsg157
(dp461
sg159
Nsg26
g29
sg160
(lp462
I1
aI33
asg162
Nsg163
VShemot Rabbah 1:33
p463
sg165
(lp464
sg167
g118
sg168
Nsg169
(lp465
I1
aI33
asg171
Nsg172
g463
sg173
(lp466
sg175
g60
sg176
Nsg177
Nsg178
Nsbag2
(g3
g4
Ntp467
Rp468
(dp469
g8
g11
sg156
Nsg157
(dp470
sg159
Nsg26
g29
sg160
(lp471
I1
aI34
asg162
Nsg163
VShemot Rabbah 1:34
p472
sg165
(lp473
sg167
g118
sg168
Nsg169
(lp474
I1
aI34
asg171
Nsg172
g472
sg173
(lp475
sg175
g60
sg176
Nsg177
Nsg178
Nsbag2
(g3
g4
Ntp476
Rp477
(dp478
g8
g11
sg156
Nsg157
(dp479
sg159
Nsg26
g29
sg160
(lp480
I1
aI35
asg162
Nsg163
VShemot Rabbah 1:35
p481
sg165
(lp482
sg167
g118
sg168
Nsg169
(lp483
I1
aI35
asg171
Nsg172
g481
sg173
(lp484
sg175
g60
sg176
Nsg177
Nsg178
Nsbag2
(g3
g4
Ntp485
Rp486
(dp487
g8
g11
sg156
Nsg157
(dp488
sg159
Nsg26
g29
sg160
(lp489
I1
aI36
asg162
Nsg163
VShemot Rabbah 1:36
p490
sg165
(lp491
sg167
g118
sg168
Nsg169
(lp492
I1
aI36
asg171
Nsg172
g490
sg173
(lp493
sg175
g60
sg176
Nsg177
Nsg178
Nsbag2
(g3
g4
Ntp494
Rp495
(dp496
g8
g11
sg156
Nsg157
(dp497
sg159
Nsg26
g29
sg160
(lp498
I2
aI1
asg162
Nsg163
VShemot Rabbah 2:1
p499
sg165
(lp500
sg167
g118
sg168
Nsg169
(lp501
I2
aI1
asg171
Nsg172
g499
sg173
(lp502
sg175
g60
sg176
Nsg177
Nsg178
Nsbag2
(g3
g4
Ntp503
Rp504
(dp505
g8
g11
sg156
Nsg157
(dp506
sg159
Nsg26
g29
sg160
(lp507
I2
aI2
asg162
Nsg163
VShemot Rabbah 2:2
p508
sg165
(lp509
sg167
g118
sg168
Nsg169
(lp510
I2
aI2
asg171
Nsg172
g508
sg173
(lp511
sg175
g60
sg176
Nsg177
Nsg178
Nsbag2
(g3
g4
Ntp512
Rp513
(dp514
g8
g11
sg156
Nsg157
(dp515
sg159
Nsg26
g29
sg160
(lp516
I2
aI3
asg162
Nsg163
VShemot Rabbah 2:3
p517
sg165
(lp518
sg167
g118
sg168
Nsg169
(lp519
I2
aI3
asg171
Nsg172
g517
sg173
(lp520
sg175
g60
sg176
Nsg177
Nsg178
Nsbag2
(g3
g4
Ntp521
Rp522
(dp523
g8
g11
sg156
Nsg157
(dp524
sg159
Nsg26
g29
sg160
(lp525
I2
aI4
asg162
Nsg163
VShemot Rabbah 2:4
p526
sg165
(lp527
sg167
g118
sg168
Nsg169
(lp528
I2
aI4
asg171
Nsg172
g526
sg173
(lp529
sg175
g60
sg176
Nsg177
Nsg178
Nsbag2
(g3
g4
Ntp530
Rp531
(dp532
g8
g11
sg156
Nsg157
(dp533
sg159
Nsg26
g29
sg160
(lp534
I2
aI5
asg162
Nsg163
VShemot Rabbah 2:5
p535
sg165
(lp536
sg167
g118
sg168
Nsg169
(lp537
I2
aI5
asg171
Nsg172
g535
sg173
(lp538
sg175
g60
sg176
Nsg177
Nsg178
Nsbag2
(g3
g4
Ntp539
Rp540
(dp541
g8
g11
sg156
Nsg157
(dp542
sg159
Nsg26
g29
sg160
(lp543
I2
aI6
asg162
Nsg163
VShemot Rabbah 2:6
p544
sg165
(lp545
sg167
g118
sg168
Nsg169
(lp546
I2
aI6
asg171
Nsg172
g544
sg173
(lp547
sg175
g60
sg176
Nsg177
Nsg178
Nsbag2
(g3
g4
Ntp548
Rp549
(dp550
g8
g11
sg156
Nsg157
(dp551
sg159
Nsg26
g29
sg160
(lp552
I3
aI1
asg162
Nsg163
VShemot Rabbah 3:1
p553
sg165
(lp554
sg167
g118
sg168
Nsg169
(lp555
I3
aI1
asg171
Nsg172
g553
sg173
(lp556
sg175
g60
sg176
Nsg177
Nsg178
Nsbag2
(g3
g4
Ntp557
Rp558
(dp559
g8
g11
sg156
Nsg157
(dp560
sg159
Nsg26
g29
sg160
(lp561
I3
aI2
asg162
Nsg163
VShemot Rabbah 3:2
p562
sg165
(lp563
sg167
g118
sg168
Nsg169
(lp564
I3
aI2
asg171
Nsg172
g562
sg173
(lp565
sg175
g60
sg176
Nsg177
Nsg178
Nsbag2
(g3
g4
Ntp566
Rp567
(dp568
g8
g11
sg156
Nsg157
(dp569
sg159
Nsg26
g29
sg160
(lp570
I3
aI3
asg162
Nsg163
VShemot Rabbah 3:3
p571
sg165
(lp572
sg167
g118
sg168
Nsg169
(lp573
I3
aI3
asg171
Nsg172
g571
sg173
(lp574
sg175
g60
sg176
Nsg177
Nsg178
Nsbag2
(g3
g4
Ntp575
Rp576
(dp577
g8
g11
sg156
Nsg157
(dp578
sg159
Nsg26
g29
sg160
(lp579
I3
aI4
asg162
Nsg163
VShemot Rabbah 3:4
p580
sg165
(lp581
sg167
g118
sg168
Nsg169
(lp582
I3
aI4
asg171
Nsg172
g580
sg173
(lp583
sg175
g60
sg176
Nsg177
Nsg178
Nsbag2
(g3
g4
Ntp584
Rp585
(dp586
g8
g11
sg156
Nsg157
(dp587
sg159
Nsg26
g29
sg160
(lp588
I3
aI5
asg162
Nsg163
VShemot Rabbah 3:5
p589
sg165
(lp590
sg167
g118
sg168
Nsg169
(lp591
I3
aI5
asg171
Nsg172
g589
sg173
(lp592
sg175
g60
sg176
Nsg177
Nsg178
Nsbag2
(g3
g4
Ntp593
Rp594
(dp595
g8
g11
sg156
Nsg157
(dp596
sg159
Nsg26
g29
sg160
(lp597
I3
aI6
asg162
Nsg163
VShemot Rabbah 3:6
p598
sg165
(lp599
sg167
g118
sg168
Nsg169
(lp600
I3
aI6
asg171
Nsg172
g598
sg173
(lp601
sg175
g60
sg176
Nsg177
Nsg178
Nsbag2
(g3
g4
Ntp602
Rp603
(dp604
g8
g11
sg156
Nsg157
(dp605
sg159
Nsg26
g29
sg160
(lp606
I3
aI7
asg162
Nsg163
VShemot Rabbah 3:7
p607
sg165
(lp608
sg167
g118
sg168
Nsg169
(lp609
I3
aI7
asg171
Nsg172
g607
sg173
(lp610
sg175
g60
sg176
Nsg177
Nsg178
Nsbag2
(g3
g4
Ntp611
Rp612
(dp613
g8
g11
sg156
Nsg157
(dp614
sg159
Nsg26
g29
sg160
(lp615
I3
aI8
asg162
Nsg163
VShemot Rabbah 3:8
p616
sg165
(lp617
sg167
g118
sg168
Nsg169
(lp618
I3
aI8
asg171
Nsg172
g616
sg173
(lp619
sg175
g60
sg176
Nsg177
Nsg178
Nsbag2
(g3
g4
Ntp620
Rp621
(dp622
g8
g11
sg156
Nsg157
(dp623
sg159
Nsg26
g29
sg160
(lp624
I3
aI9
asg162
Nsg163
VShemot Rabbah 3:9
p625
sg165
(lp626
sg167
g118
sg168
Nsg169
(lp627
I3
aI9
asg171
Nsg172
g625
sg173
(lp628
sg175
g60
sg176
Nsg177
Nsg178
Nsbag2
(g3
g4
Ntp629
Rp630
(dp631
g8
g11
sg156
Nsg157
(dp632
sg159
Nsg26
g29
sg160
(lp633
I3
aI10
asg162
Nsg163
VShemot Rabbah 3:10
p634
sg165
(lp635
sg167
g118
sg168
Nsg169
(lp636
I3
aI10
asg171
Nsg172
g634
sg173
(lp637
sg175
g60
sg176
Nsg177
Nsg178
Nsbag2
(g3
g4
Ntp638
Rp639
(dp640
g8
g11
sg156
Nsg157
(dp641
sg159
Nsg26
g29
sg160
(lp642
I3
aI11
asg162
Nsg163
VShemot Rabbah 3:11
p643
sg165
(lp644
sg167
g118
sg168
Nsg169
(lp645
I3
aI11
asg171
Nsg172
g643
sg173
(lp646
sg175
g60
sg176
Nsg177
Nsg178
Nsbag2
(g3
g4
Ntp647
Rp648
(dp649
g8
g11
sg156
Nsg157
(dp650
sg159
Nsg26
g29
sg160
(lp651
I3
aI12
asg162
Nsg163
VShemot Rabbah 3:12
p652
sg165
(lp653
sg167
g118
sg168
Nsg169
(lp654
I3
aI12
asg171
Nsg172
g652
sg173
(lp655
sg175
g60
sg176
Nsg177
Nsg178
Nsbag2
(g3
g4
Ntp656
Rp657
(dp658
g8
g11
sg156
Nsg157
(dp659
sg159
Nsg26
g29
sg160
(lp660
I3
aI13
asg162
Nsg163
VShemot Rabbah 3:13
p661
sg165
(lp662
sg167
g118
sg168
Nsg169
(lp663
I3
aI13
asg171
Nsg172
g661
sg173
(lp664
sg175
g60
sg176
Nsg177
Nsg178
Nsbag2
(g3
g4
Ntp665
Rp666
(dp667
g8
g11
sg156
Nsg157
(dp668
sg159
Nsg26
g29
sg160
(lp669
I3
aI14
asg162
Nsg163
VShemot Rabbah 3:14
p670
sg165
(lp671
sg167
g118
sg168
Nsg169
(lp672
I3
aI14
asg171
Nsg172
g670
sg173
(lp673
sg175
g60
sg176
Nsg177
Nsg178
Nsbag2
(g3
g4
Ntp674
Rp675
(dp676
g8
g11
sg156
Nsg157
(dp677
sg159
Nsg26
g29
sg160
(lp678
I3
aI15
asg162
Nsg163
VShemot Rabbah 3:15
p679
sg165
(lp680
sg167
g118
sg168
Nsg169
(lp681
I3
aI15
asg171
Nsg172
g679
sg173
(lp682
sg175
g60
sg176
Nsg177
Nsg178
Nsbag2
(g3
g4
Ntp683
Rp684
(dp685
g8
g11
sg156
Nsg157
(dp686
sg159
Nsg26
g29
sg160
(lp687
I3
aI16
asg162
Nsg163
VShemot Rabbah 3:16
p688
sg165
(lp689
sg167
g118
sg168
Nsg169
(lp690
I3
aI16
asg171
Nsg172
g688
sg173
(lp691
sg175
g60
sg176
Nsg177
Nsg178
Nsbag2
(g3
g4
Ntp692
Rp693
(dp694
g8
g11
sg156
Nsg157
(dp695
sg159
Nsg26
g29
sg160
(lp696
I3
aI17
asg162
Nsg163
VShemot Rabbah 3:17
p697
sg165
(lp698
sg167
g118
sg168
Nsg169
(lp699
I3
aI17
asg171
Nsg172
g697
sg173
(lp700
sg175
g60
sg176
Nsg177
Nsg178
Nsbag2
(g3
g4
Ntp701
Rp702
(dp703
g8
g11
sg156
Nsg157
(dp704
sg159
Nsg26
g29
sg160
(lp705
I4
aI1
asg162
Nsg163
VShemot Rabbah 4:1
p706
sg165
(lp707
sg167
g118
sg168
Nsg169
(lp708
I4
aI1
asg171
Nsg172
g706
sg173
(lp709
sg175
g60
sg176
Nsg177
Nsg178
Nsbag2
(g3
g4
Ntp710
Rp711
(dp712
g8
g11
sg156
Nsg157
(dp713
sg159
Nsg26
g29
sg160
(lp714
I4
aI2
asg162
Nsg163
VShemot Rabbah 4:2
p715
sg165
(lp716
sg167
g118
sg168
Nsg169
(lp717
I4
aI2
asg171
Nsg172
g715
sg173
(lp718
sg175
g60
sg176
Nsg177
Nsg178
Nsbag2
(g3
g4
Ntp719
Rp720
(dp721
g8
g11
sg156
Nsg157
(dp722
sg159
Nsg26
g29
sg160
(lp723
I4
aI3
asg162
Nsg163
VShemot Rabbah 4:3
p724
sg165
(lp725
sg167
g118
sg168
Nsg169
(lp726
I4
aI3
asg171
Nsg172
g724
sg173
(lp727
sg175
g60
sg176
Nsg177
Nsg178
Nsbag2
(g3
g4
Ntp728
Rp729
(dp730
g8
g11
sg156
Nsg157
(dp731
sg159
Nsg26
g29
sg160
(lp732
I4
aI4
asg162
Nsg163
VShemot Rabbah 4:4
p733
sg165
(lp734
sg167
g118
sg168
Nsg169
(lp735
I4
aI4
asg171
Nsg172
g733
sg173
(lp736
sg175
g60
sg176
Nsg177
Nsg178
Nsbag2
(g3
g4
Ntp737
Rp738
(dp739
g8
g11
sg156
Nsg157
(dp740
sg159
Nsg26
g29
sg160
(lp741
I5
aI1
asg162
Nsg163
VShemot Rabbah 5:1
p742
sg165
(lp743
sg167
g118
sg168
Nsg169
(lp744
I5
aI1
asg171
Nsg172
g742
sg173
(lp745
sg175
g60
sg176
Nsg177
Nsg178
Nsbag2
(g3
g4
Ntp746
Rp747
(dp748
g8
g11
sg156
Nsg157
(dp749
sg159
Nsg26
g29
sg160
(lp750
I5
aI2
asg162
Nsg163
VShemot Rabbah 5:2
p751
sg165
(lp752
sg167
g118
sg168
Nsg169
(lp753
I5
aI2
asg171
Nsg172
g751
sg173
(lp754
sg175
g60
sg176
Nsg177
Nsg178
Nsbag2
(g3
g4
Ntp755
Rp756
(dp757
g8
g11
sg156
Nsg157
(dp758
sg159
Nsg26
g29
sg160
(lp759
I5
aI3
asg162
Nsg163
VShemot Rabbah 5:3
p760
sg165
(lp761
sg167
g118
sg168
Nsg169
(lp762
I5
aI3
asg171
Nsg172
g760
sg173
(lp763
sg175
g60
sg176
Nsg177
Nsg178
Nsbag2
(g3
g4
Ntp764
Rp765
(dp766
g8
g11
sg156
Nsg157
(dp767
sg159
Nsg26
g29
sg160
(lp768
I5
aI4
asg162
Nsg163
VShemot Rabbah 5:4
p769
sg165
(lp770
sg167
g118
sg168
Nsg169
(lp771
I5
aI4
asg171
Nsg172
g769
sg173
(lp772
sg175
g60
sg176
Nsg177
Nsg178
Nsbag2
(g3
g4
Ntp773
Rp774
(dp775
g8
g11
sg156
Nsg157
(dp776
sg159
Nsg26
g29
sg160
(lp777
I5
aI5
asg162
Nsg163
VShemot Rabbah 5:5
p778
sg165
(lp779
sg167
g118
sg168
Nsg169
(lp780
I5
aI5
asg171
Nsg172
g778
sg173
(lp781
sg175
g60
sg176
Nsg177
Nsg178
Nsbag2
(g3
g4
Ntp782
Rp783
(dp784
g8
g11
sg156
Nsg157
(dp785
sg159
Nsg26
g29
sg160
(lp786
I5
aI6
asg162
Nsg163
VShemot Rabbah 5:6
p787
sg165
(lp788
sg167
g118
sg168
Nsg169
(lp789
I5
aI6
asg171
Nsg172
g787
sg173
(lp790
sg175
g60
sg176
Nsg177
Nsg178
Nsbag2
(g3
g4
Ntp791
Rp792
(dp793
g8
g11
sg156
Nsg157
(dp794
sg159
Nsg26
g29
sg160
(lp795
I5
aI7
asg162
Nsg163
VShemot Rabbah 5:7
p796
sg165
(lp797
sg167
g118
sg168
Nsg169
(lp798
I5
aI7
asg171
Nsg172
g796
sg173
(lp799
sg175
g60
sg176
Nsg177
Nsg178
Nsbag2
(g3
g4
Ntp800
Rp801
(dp802
g8
g11
sg156
Nsg157
(dp803
sg159
Nsg26
g29
sg160
(lp804
I5
aI8
asg162
Nsg163
VShemot Rabbah 5:8
p805
sg165
(lp806
sg167
g118
sg168
Nsg169
(lp807
I5
aI8
asg171
Nsg172
g805
sg173
(lp808
sg175
g60
sg176
Nsg177
Nsg178
Nsbag2
(g3
g4
Ntp809
Rp810
(dp811
g8
g11
sg156
Nsg157
(dp812
sg159
Nsg26
g29
sg160
(lp813
I5
aI9
asg162
Nsg163
VShemot Rabbah 5:9
p814
sg165
(lp815
sg167
g118
sg168
Nsg169
(lp816
I5
aI9
asg171
Nsg172
g814
sg173
(lp817
sg175
g60
sg176
Nsg177
Nsg178
Nsbag2
(g3
g4
Ntp818
Rp819
(dp820
g8
g11
sg156
Nsg157
(dp821
sg159
Nsg26
g29
sg160
(lp822
I5
aI10
asg162
Nsg163
VShemot Rabbah 5:10
p823
sg165
(lp824
sg167
g118
sg168
Nsg169
(lp825
I5
aI10
asg171
Nsg172
g823
sg173
(lp826
sg175
g60
sg176
Nsg177
Nsg178
Nsbag2
(g3
g4
Ntp827
Rp828
(dp829
g8
g11
sg156
Nsg157
(dp830
sg159
Nsg26
g29
sg160
(lp831
I5
aI11
asg162
Nsg163
VShemot Rabbah 5:11
p832
sg165
(lp833
sg167
g118
sg168
Nsg169
(lp834
I5
aI11
asg171
Nsg172
g832
sg173
(lp835
sg175
g60
sg176
Nsg177
Nsg178
Nsbag2
(g3
g4
Ntp836
Rp837
(dp838
g8
g11
sg156
Nsg157
(dp839
sg159
Nsg26
g29
sg160
(lp840
I5
aI12
asg162
Nsg163
VShemot Rabbah 5:12
p841
sg165
(lp842
sg167
g118
sg168
Nsg169
(lp843
I5
aI12
asg171
Nsg172
g841
sg173
(lp844
sg175
g60
sg176
Nsg177
Nsg178
Nsbag2
(g3
g4
Ntp845
Rp846
(dp847
g8
g11
sg156
Nsg157
(dp848
sg159
Nsg26
g29
sg160
(lp849
I5
aI13
asg162
Nsg163
VShemot Rabbah 5:13
p850
sg165
(lp851
sg167
g118
sg168
Nsg169
(lp852
I5
aI13
asg171
Nsg172
g850
sg173
(lp853
sg175
g60
sg176
Nsg177
Nsg178
Nsbag2
(g3
g4
Ntp854
Rp855
(dp856
g8
g11
sg156
Nsg157
(dp857
sg159
Nsg26
g29
sg160
(lp858
I5
aI14
asg162
Nsg163
VShemot Rabbah 5:14
p859
sg165
(lp860
sg167
g118
sg168
Nsg169
(lp861
I5
aI14
asg171
Nsg172
g859
sg173
(lp862
sg175
g60
sg176
Nsg177
Nsg178
Nsbag2
(g3
g4
Ntp863
Rp864
(dp865
g8
g11
sg156
Nsg157
(dp866
sg159
Nsg26
g29
sg160
(lp867
I5
aI15
asg162
Nsg163
VShemot Rabbah 5:15
p868
sg165
(lp869
sg167
g118
sg168
Nsg169
(lp870
I5
aI15
asg171
Nsg172
g868
sg173
(lp871
sg175
g60
sg176
Nsg177
Nsg178
Nsbag2
(g3
g4
Ntp872
Rp873
(dp874
g8
g11
sg156
Nsg157
(dp875
sg159
Nsg26
g29
sg160
(lp876
I5
aI16
asg162
Nsg163
VShemot Rabbah 5:16
p877
sg165
(lp878
sg167
g118
sg168
Nsg169
(lp879
I5
aI16
asg171
Nsg172
g877
sg173
(lp880
sg175
g60
sg176
Nsg177
Nsg178
Nsbag2
(g3
g4
Ntp881
Rp882
(dp883
g8
g11
sg156
Nsg157
(dp884
sg159
Nsg26
g29
sg160
(lp885
I5
aI17
asg162
Nsg163
VShemot Rabbah 5:17
p886
sg165
(lp887
sg167
g118
sg168
Nsg169
(lp888
I5
aI17
asg171
Nsg172
g886
sg173
(lp889
sg175
g60
sg176
Nsg177
Nsg178
Nsbag2
(g3
g4
Ntp890
Rp891
(dp892
g8
g11
sg156
Nsg157
(dp893
sg159
Nsg26
g29
sg160
(lp894
I5
aI18
asg162
Nsg163
VShemot Rabbah 5:18
p895
sg165
(lp896
sg167
g118
sg168
Nsg169
(lp897
I5
aI18
asg171
Nsg172
g895
sg173
(lp898
sg175
g60
sg176
Nsg177
Nsg178
Nsbag2
(g3
g4
Ntp899
Rp900
(dp901
g8
g11
sg156
Nsg157
(dp902
sg159
Nsg26
g29
sg160
(lp903
I5
aI19
asg162
Nsg163
VShemot Rabbah 5:19
p904
sg165
(lp905
sg167
g118
sg168
Nsg169
(lp906
I5
aI19
asg171
Nsg172
g904
sg173
(lp907
sg175
g60
sg176
Nsg177
Nsg178
Nsbag2
(g3
g4
Ntp908
Rp909
(dp910
g8
g11
sg156
Nsg157
(dp911
sg159
Nsg26
g29
sg160
(lp912
I5
aI20
asg162
Nsg163
VShemot Rabbah 5:20
p913
sg165
(lp914
sg167
g118
sg168
Nsg169
(lp915
I5
aI20
asg171
Nsg172
g913
sg173
(lp916
sg175
g60
sg176
Nsg177
Nsg178
Nsbag2
(g3
g4
Ntp917
Rp918
(dp919
g8
g11
sg156
Nsg157
(dp920
sg159
Nsg26
g29
sg160
(lp921
I5
aI21
asg162
Nsg163
VShemot Rabbah 5:21
p922
sg165
(lp923
sg167
g118
sg168
Nsg169
(lp924
I5
aI21
asg171
Nsg172
g922
sg173
(lp925
sg175
g60
sg176
Nsg177
Nsg178
Nsbag2
(g3
g4
Ntp926
Rp927
(dp928
g8
g11
sg156
Nsg157
(dp929
sg159
Nsg26
g29
sg160
(lp930
I5
aI22
asg162
Nsg163
VShemot Rabbah 5:22
p931
sg165
(lp932
sg167
g118
sg168
Nsg169
(lp933
I5
aI22
asg171
Nsg172
g931
sg173
(lp934
sg175
g60
sg176
Nsg177
Nsg178
Nsbag2
(g3
g4
Ntp935
Rp936
(dp937
g8
g11
sg156
Nsg157
(dp938
sg159
Nsg26
g29
sg160
(lp939
I5
aI23
asg162
Nsg163
VShemot Rabbah 5:23
p940
sg165
(lp941
sg167
g118
sg168
Nsg169
(lp942
I5
aI23
asg171
Nsg172
g940
sg173
(lp943
sg175
g60
sg176
Nsg177
Nsg178
Nsbag2
(g3
g4
Ntp944
Rp945
(dp946
g8
g11
sg156
Nsg157
(dp947
sg159
Nsg26
g29
sg160
(lp948
I6
aI1
asg162
Nsg163
VShemot Rabbah 6:1
p949
sg165
(lp950
sg167
g118
sg168
Nsg169
(lp951
I6
aI1
asg171
Nsg172
g949
sg173
(lp952
sg175
g60
sg176
Nsg177
Nsg178
Nsbag2
(g3
g4
Ntp953
Rp954
(dp955
g8
g11
sg156
Nsg157
(dp956
sg159
Nsg26
g29
sg160
(lp957
I6
aI2
asg162
Nsg163
VShemot Rabbah 6:2
p958
sg165
(lp959
sg167
g118
sg168
Nsg169
(lp960
I6
aI2
asg171
Nsg172
g958
sg173
(lp961
sg175
g60
sg176
Nsg177
Nsg178
Nsbag2
(g3
g4
Ntp962
Rp963
(dp964
g8
g11
sg156
Nsg157
(dp965
sg159
Nsg26
g29
sg160
(lp966
I6
aI3
asg162
Nsg163
VShemot Rabbah 6:3
p967
sg165
(lp968
sg167
g118
sg168
Nsg169
(lp969
I6
aI3
asg171
Nsg172
g967
sg173
(lp970
sg175
g60
sg176
Nsg177
Nsg178
Nsbag2
(g3
g4
Ntp971
Rp972
(dp973
g8
g11
sg156
Nsg157
(dp974
sg159
Nsg26
g29
sg160
(lp975
I6
aI4
asg162
Nsg163
VShemot Rabbah 6:4
p976
sg165
(lp977
sg167
g118
sg168
Nsg169
(lp978
I6
aI4
asg171
Nsg172
g976
sg173
(lp979
sg175
g60
sg176
Nsg177
Nsg178
Nsbag2
(g3
g4
Ntp980
Rp981
(dp982
g8
g11
sg156
Nsg157
(dp983
sg159
Nsg26
g29
sg160
(lp984
I6
aI5
asg162
Nsg163
VShemot Rabbah 6:5
p985
sg165
(lp986
sg167
g118
sg168
Nsg169
(lp987
I6
aI5
asg171
Nsg172
g985
sg173
(lp988
sg175
g60
sg176
Nsg177
Nsg178
Nsbag2
(g3
g4
Ntp989
Rp990
(dp991
g8
g11
sg156
Nsg157
(dp992
sg159
Nsg26
g29
sg160
(lp993
I7
aI1
asg162
Nsg163
VShemot Rabbah 7:1
p994
sg165
(lp995
sg167
g118
sg168
Nsg169
(lp996
I7
aI1
asg171
Nsg172
g994
sg173
(lp997
sg175
g60
sg176
Nsg177
Nsg178
Nsbag2
(g3
g4
Ntp998
Rp999
(dp1000
g8
g11
sg156
Nsg157
(dp1001
sg159
Nsg26
g29
sg160
(lp1002
I7
aI2
asg162
Nsg163
VShemot Rabbah 7:2
p1003
sg165
(lp1004
sg167
g118
sg168
Nsg169
(lp1005
I7
aI2
asg171
Nsg172
g1003
sg173
(lp1006
sg175
g60
sg176
Nsg177
Nsg178
Nsbag2
(g3
g4
Ntp1007
Rp1008
(dp1009
g8
g11
sg156
Nsg157
(dp1010
sg159
Nsg26
g29
sg160
(lp1011
I7
aI3
asg162
Nsg163
VShemot Rabbah 7:3
p1012
sg165
(lp1013
sg167
g118
sg168
Nsg169
(lp1014
I7
aI3
asg171
Nsg172
g1012
sg173
(lp1015
sg175
g60
sg176
Nsg177
Nsg178
Nsbag2
(g3
g4
Ntp1016
Rp1017
(dp1018
g8
g11
sg156
Nsg157
(dp1019
sg159
Nsg26
g29
sg160
(lp1020
I7
aI4
asg162
Nsg163
VShemot Rabbah 7:4
p1021
sg165
(lp1022
sg167
g118
sg168
Nsg169
(lp1023
I7
aI4
asg171
Nsg172
g1021
sg173
(lp1024
sg175
g60
sg176
Nsg177
Nsg178
Nsbag2
(g3
g4
Ntp1025
Rp1026
(dp1027
g8
g11
sg156
Nsg157
(dp1028
sg159
Nsg26
g29
sg160
(lp1029
I7
aI5
asg162
Nsg163
VShemot Rabbah 7:5
p1030
sg165
(lp1031
sg167
g118
sg168
Nsg169
(lp1032
I7
aI5
asg171
Nsg172
g1030
sg173
(lp1033
sg175
g60
sg176
Nsg177
Nsg178
Nsbag2
(g3
g4
Ntp1034
Rp1035
(dp1036
g8
g11
sg156
Nsg157
(dp1037
sg159
Nsg26
g29
sg160
(lp1038
I8
aI1
asg162
Nsg163
VShemot Rabbah 8:1
p1039
sg165
(lp1040
sg167
g118
sg168
Nsg169
(lp1041
I8
aI1
asg171
Nsg172
g1039
sg173
(lp1042
sg175
g60
sg176
Nsg177
Nsg178
Nsbag2
(g3
g4
Ntp1043
Rp1044
(dp1045
g8
g11
sg156
Nsg157
(dp1046
sg159
Nsg26
g29
sg160
(lp1047
I8
aI2
asg162
Nsg163
VShemot Rabbah 8:2
p1048
sg165
(lp1049
sg167
g118
sg168
Nsg169
(lp1050
I8
aI2
asg171
Nsg172
g1048
sg173
(lp1051
sg175
g60
sg176
Nsg177
Nsg178
Nsbag2
(g3
g4
Ntp1052
Rp1053
(dp1054
g8
g11
sg156
Nsg157
(dp1055
sg159
Nsg26
g29
sg160
(lp1056
I8
aI3
asg162
Nsg163
VShemot Rabbah 8:3
p1057
sg165
(lp1058
sg167
g118
sg168
Nsg169
(lp1059
I8
aI3
asg171
Nsg172
g1057
sg173
(lp1060
sg175
g60
sg176
Nsg177
Nsg178
Nsbag2
(g3
g4
Ntp1061
Rp1062
(dp1063
g8
g11
sg156
Nsg157
(dp1064
sg159
Nsg26
g29
sg160
(lp1065
I9
aI1
asg162
Nsg163
VShemot Rabbah 9:1
p1066
sg165
(lp1067
sg167
g118
sg168
Nsg169
(lp1068
I9
aI1
asg171
Nsg172
g1066
sg173
(lp1069
sg175
g60
sg176
Nsg177
Nsg178
Nsbag2
(g3
g4
Ntp1070
Rp1071
(dp1072
g8
g11
sg156
Nsg157
(dp1073
sg159
Nsg26
g29
sg160
(lp1074
I9
aI2
asg162
Nsg163
VShemot Rabbah 9:2
p1075
sg165
(lp1076
sg167
g118
sg168
Nsg169
(lp1077
I9
aI2
asg171
Nsg172
g1075
sg173
(lp1078
sg175
g60
sg176
Nsg177
Nsg178
Nsbag2
(g3
g4
Ntp1079
Rp1080
(dp1081
g8
g11
sg156
Nsg157
(dp1082
sg159
Nsg26
g29
sg160
(lp1083
I9
aI3
asg162
Nsg163
VShemot Rabbah 9:3
p1084
sg165
(lp1085
sg167
g118
sg168
Nsg169
(lp1086
I9
aI3
asg171
Nsg172
g1084
sg173
(lp1087
sg175
g60
sg176
Nsg177
Nsg178
Nsbag2
(g3
g4
Ntp1088
Rp1089
(dp1090
g8
g11
sg156
Nsg157
(dp1091
sg159
Nsg26
g29
sg160
(lp1092
I9
aI4
asg162
Nsg163
VShemot Rabbah 9:4
p1093
sg165
(lp1094
sg167
g118
sg168
Nsg169
(lp1095
I9
aI4
asg171
Nsg172
g1093
sg173
(lp1096
sg175
g60
sg176
Nsg177
Nsg178
Nsbag2
(g3
g4
Ntp1097
Rp1098
(dp1099
g8
g11
sg156
Nsg157
(dp1100
sg159
Nsg26
g29
sg160
(lp1101
I9
aI5
asg162
Nsg163
VShemot Rabbah 9:5
p1102
sg165
(lp1103
sg167
g118
sg168
Nsg169
(lp1104
I9
aI5
asg171
Nsg172
g1102
sg173
(lp1105
sg175
g60
sg176
Nsg177
Nsg178
Nsbag2
(g3
g4
Ntp1106
Rp1107
(dp1108
g8
g11
sg156
Nsg157
(dp1109
sg159
Nsg26
g29
sg160
(lp1110
I9
aI6
asg162
Nsg163
VShemot Rabbah 9:6
p1111
sg165
(lp1112
sg167
g118
sg168
Nsg169
(lp1113
I9
aI6
asg171
Nsg172
g1111
sg173
(lp1114
sg175
g60
sg176
Nsg177
Nsg178
Nsbag2
(g3
g4
Ntp1115
Rp1116
(dp1117
g8
g11
sg156
Nsg157
(dp1118
sg159
Nsg26
g29
sg160
(lp1119
I9
aI7
asg162
Nsg163
VShemot Rabbah 9:7
p1120
sg165
(lp1121
sg167
g118
sg168
Nsg169
(lp1122
I9
aI7
asg171
Nsg172
g1120
sg173
(lp1123
sg175
g60
sg176
Nsg177
Nsg178
Nsbag2
(g3
g4
Ntp1124
Rp1125
(dp1126
g8
g11
sg156
Nsg157
(dp1127
sg159
Nsg26
g29
sg160
(lp1128
I9
aI8
asg162
Nsg163
VShemot Rabbah 9:8
p1129
sg165
(lp1130
sg167
g118
sg168
Nsg169
(lp1131
I9
aI8
asg171
Nsg172
g1129
sg173
(lp1132
sg175
g60
sg176
Nsg177
Nsg178
Nsbag2
(g3
g4
Ntp1133
Rp1134
(dp1135
g8
g11
sg156
Nsg157
(dp1136
sg159
Nsg26
g29
sg160
(lp1137
I9
aI9
asg162
Nsg163
VShemot Rabbah 9:9
p1138
sg165
(lp1139
sg167
g118
sg168
Nsg169
(lp1140
I9
aI9
asg171
Nsg172
g1138
sg173
(lp1141
sg175
g60
sg176
Nsg177
Nsg178
Nsbag2
(g3
g4
Ntp1142
Rp1143
(dp1144
g8
g11
sg156
Nsg157
(dp1145
sg159
Nsg26
g29
sg160
(lp1146
I9
aI10
asg162
Nsg163
VShemot Rabbah 9:10
p1147
sg165
(lp1148
sg167
g118
sg168
Nsg169
(lp1149
I9
aI10
asg171
Nsg172
g1147
sg173
(lp1150
sg175
g60
sg176
Nsg177
Nsg178
Nsbag2
(g3
g4
Ntp1151
Rp1152
(dp1153
g8
g11
sg156
Nsg157
(dp1154
sg159
Nsg26
g29
sg160
(lp1155
I9
aI11
asg162
Nsg163
VShemot Rabbah 9:11
p1156
sg165
(lp1157
sg167
g118
sg168
Nsg169
(lp1158
I9
aI11
asg171
Nsg172
g1156
sg173
(lp1159
sg175
g60
sg176
Nsg177
Nsg178
Nsbag2
(g3
g4
Ntp1160
Rp1161
(dp1162
g8
g11
sg156
Nsg157
(dp1163
sg159
Nsg26
g29
sg160
(lp1164
I9
aI12
asg162
Nsg163
VShemot Rabbah 9:12
p1165
sg165
(lp1166
sg167
g118
sg168
Nsg169
(lp1167
I9
aI12
asg171
Nsg172
g1165
sg173
(lp1168
sg175
g60
sg176
Nsg177
Nsg178
Nsbag2
(g3
g4
Ntp1169
Rp1170
(dp1171
g8
g11
sg156
Nsg157
(dp1172
sg159
Nsg26
g29
sg160
(lp1173
I9
aI13
asg162
Nsg163
VShemot Rabbah 9:13
p1174
sg165
(lp1175
sg167
g118
sg168
Nsg169
(lp1176
I9
aI13
asg171
Nsg172
g1174
sg173
(lp1177
sg175
g60
sg176
Nsg177
Nsg178
Nsbag2
(g3
g4
Ntp1178
Rp1179
(dp1180
g8
g11
sg156
Nsg157
(dp1181
sg159
Nsg26
g29
sg160
(lp1182
I10
aI1
asg162
Nsg163
VShemot Rabbah 10:1
p1183
sg165
(lp1184
sg167
g118
sg168
Nsg169
(lp1185
I10
aI1
asg171
Nsg172
g1183
sg173
(lp1186
sg175
g60
sg176
Nsg177
Nsg178
Nsbag2
(g3
g4
Ntp1187
Rp1188
(dp1189
g8
g11
sg156
Nsg157
(dp1190
sg159
Nsg26
g29
sg160
(lp1191
I10
aI2
asg162
Nsg163
VShemot Rabbah 10:2
p1192
sg165
(lp1193
sg167
g118
sg168
Nsg169
(lp1194
I10
aI2
asg171
Nsg172
g1192
sg173
(lp1195
sg175
g60
sg176
Nsg177
Nsg178
Nsbag2
(g3
g4
Ntp1196
Rp1197
(dp1198
g8
g11
sg156
Nsg157
(dp1199
sg159
Nsg26
g29
sg160
(lp1200
I10
aI3
asg162
Nsg163
VShemot Rabbah 10:3
p1201
sg165
(lp1202
sg167
g118
sg168
Nsg169
(lp1203
I10
aI3
asg171
Nsg172
g1201
sg173
(lp1204
sg175
g60
sg176
Nsg177
Nsg178
Nsbag2
(g3
g4
Ntp1205
Rp1206
(dp1207
g8
g11
sg156
Nsg157
(dp1208
sg159
Nsg26
g29
sg160
(lp1209
I10
aI4
asg162
Nsg163
VShemot Rabbah 10:4
p1210
sg165
(lp1211
sg167
g118
sg168
Nsg169
(lp1212
I10
aI4
asg171
Nsg172
g1210
sg173
(lp1213
sg175
g60
sg176
Nsg177
Nsg178
Nsbag2
(g3
g4
Ntp1214
Rp1215
(dp1216
g8
g11
sg156
Nsg157
(dp1217
sg159
Nsg26
g29
sg160
(lp1218
I10
aI5
asg162
Nsg163
VShemot Rabbah 10:5
p1219
sg165
(lp1220
sg167
g118
sg168
Nsg169
(lp1221
I10
aI5
asg171
Nsg172
g1219
sg173
(lp1222
sg175
g60
sg176
Nsg177
Nsg178
Nsbag2
(g3
g4
Ntp1223
Rp1224
(dp1225
g8
g11
sg156
Nsg157
(dp1226
sg159
Nsg26
g29
sg160
(lp1227
I10
aI6
asg162
Nsg163
VShemot Rabbah 10:6
p1228
sg165
(lp1229
sg167
g118
sg168
Nsg169
(lp1230
I10
aI6
asg171
Nsg172
g1228
sg173
(lp1231
sg175
g60
sg176
Nsg177
Nsg178
Nsbag2
(g3
g4
Ntp1232
Rp1233
(dp1234
g8
g11
sg156
Nsg157
(dp1235
sg159
Nsg26
g29
sg160
(lp1236
I11
aI1
asg162
Nsg163
VShemot Rabbah 11:1
p1237
sg165
(lp1238
sg167
g118
sg168
Nsg169
(lp1239
I11
aI1
asg171
Nsg172
g1237
sg173
(lp1240
sg175
g60
sg176
Nsg177
Nsg178
Nsbag2
(g3
g4
Ntp1241
Rp1242
(dp1243
g8
g11
sg156
Nsg157
(dp1244
sg159
Nsg26
g29
sg160
(lp1245
I11
aI2
asg162
Nsg163
VShemot Rabbah 11:2
p1246
sg165
(lp1247
sg167
g118
sg168
Nsg169
(lp1248
I11
aI2
asg171
Nsg172
g1246
sg173
(lp1249
sg175
g60
sg176
Nsg177
Nsg178
Nsbag2
(g3
g4
Ntp1250
Rp1251
(dp1252
g8
g11
sg156
Nsg157
(dp1253
sg159
Nsg26
g29
sg160
(lp1254
I11
aI3
asg162
Nsg163
VShemot Rabbah 11:3
p1255
sg165
(lp1256
sg167
g118
sg168
Nsg169
(lp1257
I11
aI3
asg171
Nsg172
g1255
sg173
(lp1258
sg175
g60
sg176
Nsg177
Nsg178
Nsbag2
(g3
g4
Ntp1259
Rp1260
(dp1261
g8
g11
sg156
Nsg157
(dp1262
sg159
Nsg26
g29
sg160
(lp1263
I11
aI4
asg162
Nsg163
VShemot Rabbah 11:4
p1264
sg165
(lp1265
sg167
g118
sg168
Nsg169
(lp1266
I11
aI4
asg171
Nsg172
g1264
sg173
(lp1267
sg175
g60
sg176
Nsg177
Nsg178
Nsbag2
(g3
g4
Ntp1268
Rp1269
(dp1270
g8
g11
sg156
Nsg157
(dp1271
sg159
Nsg26
g29
sg160
(lp1272
I11
aI5
asg162
Nsg163
VShemot Rabbah 11:5
p1273
sg165
(lp1274
sg167
g118
sg168
Nsg169
(lp1275
I11
aI5
asg171
Nsg172
g1273
sg173
(lp1276
sg175
g60
sg176
Nsg177
Nsg178
Nsbag2
(g3
g4
Ntp1277
Rp1278
(dp1279
g8
g11
sg156
Nsg157
(dp1280
sg159
Nsg26
g29
sg160
(lp1281
I12
aI1
asg162
Nsg163
VShemot Rabbah 12:1
p1282
sg165
(lp1283
sg167
g118
sg168
Nsg169
(lp1284
I12
aI1
asg171
Nsg172
g1282
sg173
(lp1285
sg175
g60
sg176
Nsg177
Nsg178
Nsbag2
(g3
g4
Ntp1286
Rp1287
(dp1288
g8
g11
sg156
Nsg157
(dp1289
sg159
Nsg26
g29
sg160
(lp1290
I12
aI2
asg162
Nsg163
VShemot Rabbah 12:2
p1291
sg165
(lp1292
sg167
g118
sg168
Nsg169
(lp1293
I12
aI2
asg171
Nsg172
g1291
sg173
(lp1294
sg175
g60
sg176
Nsg177
Nsg178
Nsbag2
(g3
g4
Ntp1295
Rp1296
(dp1297
g8
g11
sg156
Nsg157
(dp1298
sg159
Nsg26
g29
sg160
(lp1299
I12
aI3
asg162
Nsg163
VShemot Rabbah 12:3
p1300
sg165
(lp1301
sg167
g118
sg168
Nsg169
(lp1302
I12
aI3
asg171
Nsg172
g1300
sg173
(lp1303
sg175
g60
sg176
Nsg177
Nsg178
Nsbag2
(g3
g4
Ntp1304
Rp1305
(dp1306
g8
g11
sg156
Nsg157
(dp1307
sg159
Nsg26
g29
sg160
(lp1308
I12
aI4
asg162
Nsg163
VShemot Rabbah 12:4
p1309
sg165
(lp1310
sg167
g118
sg168
Nsg169
(lp1311
I12
aI4
asg171
Nsg172
g1309
sg173
(lp1312
sg175
g60
sg176
Nsg177
Nsg178
Nsbag2
(g3
g4
Ntp1313
Rp1314
(dp1315
g8
g11
sg156
Nsg157
(dp1316
sg159
Nsg26
g29
sg160
(lp1317
I12
aI5
asg162
Nsg163
VShemot Rabbah 12:5
p1318
sg165
(lp1319
sg167
g118
sg168
Nsg169
(lp1320
I12
aI5
asg171
Nsg172
g1318
sg173
(lp1321
sg175
g60
sg176
Nsg177
Nsg178
Nsbag2
(g3
g4
Ntp1322
Rp1323
(dp1324
g8
g11
sg156
Nsg157
(dp1325
sg159
Nsg26
g29
sg160
(lp1326
I12
aI6
asg162
Nsg163
VShemot Rabbah 12:6
p1327
sg165
(lp1328
sg167
g118
sg168
Nsg169
(lp1329
I12
aI6
asg171
Nsg172
g1327
sg173
(lp1330
sg175
g60
sg176
Nsg177
Nsg178
Nsbag2
(g3
g4
Ntp1331
Rp1332
(dp1333
g8
g11
sg156
Nsg157
(dp1334
sg159
Nsg26
g29
sg160
(lp1335
I12
aI7
asg162
Nsg163
VShemot Rabbah 12:7
p1336
sg165
(lp1337
sg167
g118
sg168
Nsg169
(lp1338
I12
aI7
asg171
Nsg172
g1336
sg173
(lp1339
sg175
g60
sg176
Nsg177
Nsg178
Nsbag2
(g3
g4
Ntp1340
Rp1341
(dp1342
g8
g11
sg156
Nsg157
(dp1343
sg159
Nsg26
g29
sg160
(lp1344
I13
aI1
asg162
Nsg163
VShemot Rabbah 13:1
p1345
sg165
(lp1346
sg167
g118
sg168
Nsg169
(lp1347
I13
aI1
asg171
Nsg172
g1345
sg173
(lp1348
sg175
g60
sg176
Nsg177
Nsg178
Nsbag2
(g3
g4
Ntp1349
Rp1350
(dp1351
g8
g11
sg156
Nsg157
(dp1352
sg159
Nsg26
g29
sg160
(lp1353
I13
aI2
asg162
Nsg163
VShemot Rabbah 13:2
p1354
sg165
(lp1355
sg167
g118
sg168
Nsg169
(lp1356
I13
aI2
asg171
Nsg172
g1354
sg173
(lp1357
sg175
g60
sg176
Nsg177
Nsg178
Nsbag2
(g3
g4
Ntp1358
Rp1359
(dp1360
g8
g11
sg156
Nsg157
(dp1361
sg159
Nsg26
g29
sg160
(lp1362
I13
aI3
asg162
Nsg163
VShemot Rabbah 13:3
p1363
sg165
(lp1364
sg167
g118
sg168
Nsg169
(lp1365
I13
aI3
asg171
Nsg172
g1363
sg173
(lp1366
sg175
g60
sg176
Nsg177
Nsg178
Nsbag2
(g3
g4
Ntp1367
Rp1368
(dp1369
g8
g11
sg156
Nsg157
(dp1370
sg159
Nsg26
g29
sg160
(lp1371
I13
aI4
asg162
Nsg163
VShemot Rabbah 13:4
p1372
sg165
(lp1373
sg167
g118
sg168
Nsg169
(lp1374
I13
aI4
asg171
Nsg172
g1372
sg173
(lp1375
sg175
g60
sg176
Nsg177
Nsg178
Nsbag2
(g3
g4
Ntp1376
Rp1377
(dp1378
g8
g11
sg156
Nsg157
(dp1379
sg159
Nsg26
g29
sg160
(lp1380
I13
aI5
asg162
Nsg163
VShemot Rabbah 13:5
p1381
sg165
(lp1382
sg167
g118
sg168
Nsg169
(lp1383
I13
aI5
asg171
Nsg172
g1381
sg173
(lp1384
sg175
g60
sg176
Nsg177
Nsg178
Nsbag2
(g3
g4
Ntp1385
Rp1386
(dp1387
g8
g11
sg156
Nsg157
(dp1388
sg159
Nsg26
g29
sg160
(lp1389
I13
aI6
asg162
Nsg163
VShemot Rabbah 13:6
p1390
sg165
(lp1391
sg167
g118
sg168
Nsg169
(lp1392
I13
aI6
asg171
Nsg172
g1390
sg173
(lp1393
sg175
g60
sg176
Nsg177
Nsg178
Nsbag2
(g3
g4
Ntp1394
Rp1395
(dp1396
g8
g11
sg156
Nsg157
(dp1397
sg159
Nsg26
g29
sg160
(lp1398
I13
aI7
asg162
Nsg163
VShemot Rabbah 13:7
p1399
sg165
(lp1400
sg167
g118
sg168
Nsg169
(lp1401
I13
aI7
asg171
Nsg172
g1399
sg173
(lp1402
sg175
g60
sg176
Nsg177
Nsg178
Nsbag2
(g3
g4
Ntp1403
Rp1404
(dp1405
g8
g11
sg156
Nsg157
(dp1406
sg159
Nsg26
g29
sg160
(lp1407
I14
aI1
asg162
Nsg163
VShemot Rabbah 14:1
p1408
sg165
(lp1409
sg167
g118
sg168
Nsg169
(lp1410
I14
aI1
asg171
Nsg172
g1408
sg173
(lp1411
sg175
g60
sg176
Nsg177
Nsg178
Nsbag2
(g3
g4
Ntp1412
Rp1413
(dp1414
g8
g11
sg156
Nsg157
(dp1415
sg159
Nsg26
g29
sg160
(lp1416
I14
aI2
asg162
Nsg163
VShemot Rabbah 14:2
p1417
sg165
(lp1418
sg167
g118
sg168
Nsg169
(lp1419
I14
aI2
asg171
Nsg172
g1417
sg173
(lp1420
sg175
g60
sg176
Nsg177
Nsg178
Nsbag2
(g3
g4
Ntp1421
Rp1422
(dp1423
g8
g11
sg156
Nsg157
(dp1424
sg159
Nsg26
g29
sg160
(lp1425
I14
aI3
asg162
Nsg163
VShemot Rabbah 14:3
p1426
sg165
(lp1427
sg167
g118
sg168
Nsg169
(lp1428
I14
aI3
asg171
Nsg172
g1426
sg173
(lp1429
sg175
g60
sg176
Nsg177
Nsg178
Nsbag2
(g3
g4
Ntp1430
Rp1431
(dp1432
g8
g11
sg156
Nsg157
(dp1433
sg159
Nsg26
g29
sg160
(lp1434
I15
aI1
asg162
Nsg163
VShemot Rabbah 15:1
p1435
sg165
(lp1436
sg167
g118
sg168
Nsg169
(lp1437
I15
aI1
asg171
Nsg172
g1435
sg173
(lp1438
sg175
g60
sg176
Nsg177
Nsg178
Nsbag2
(g3
g4
Ntp1439
Rp1440
(dp1441
g8
g11
sg156
Nsg157
(dp1442
sg159
Nsg26
g29
sg160
(lp1443
I15
aI2
asg162
Nsg163
VShemot Rabbah 15:2
p1444
sg165
(lp1445
sg167
g118
sg168
Nsg169
(lp1446
I15
aI2
asg171
Nsg172
g1444
sg173
(lp1447
sg175
g60
sg176
Nsg177
Nsg178
Nsbag2
(g3
g4
Ntp1448
Rp1449
(dp1450
g8
g11
sg156
Nsg157
(dp1451
sg159
Nsg26
g29
sg160
(lp1452
I15
aI3
asg162
Nsg163
VShemot Rabbah 15:3
p1453
sg165
(lp1454
sg167
g118
sg168
Nsg169
(lp1455
I15
aI3
asg171
Nsg172
g1453
sg173
(lp1456
sg175
g60
sg176
Nsg177
Nsg178
Nsbag2
(g3
g4
Ntp1457
Rp1458
(dp1459
g8
g11
sg156
Nsg157
(dp1460
sg159
Nsg26
g29
sg160
(lp1461
I15
aI4
asg162
Nsg163
VShemot Rabbah 15:4
p1462
sg165
(lp1463
sg167
g118
sg168
Nsg169
(lp1464
I15
aI4
asg171
Nsg172
g1462
sg173
(lp1465
sg175
g60
sg176
Nsg177
Nsg178
Nsbag2
(g3
g4
Ntp1466
Rp1467
(dp1468
g8
g11
sg156
Nsg157
(dp1469
sg159
Nsg26
g29
sg160
(lp1470
I15
aI5
asg162
Nsg163
VShemot Rabbah 15:5
p1471
sg165
(lp1472
sg167
g118
sg168
Nsg169
(lp1473
I15
aI5
asg171
Nsg172
g1471
sg173
(lp1474
sg175
g60
sg176
Nsg177
Nsg178
Nsbag2
(g3
g4
Ntp1475
Rp1476
(dp1477
g8
g11
sg156
Nsg157
(dp1478
sg159
Nsg26
g29
sg160
(lp1479
I15
aI6
asg162
Nsg163
VShemot Rabbah 15:6
p1480
sg165
(lp1481
sg167
g118
sg168
Nsg169
(lp1482
I15
aI6
asg171
Nsg172
g1480
sg173
(lp1483
sg175
g60
sg176
Nsg177
Nsg178
Nsbag2
(g3
g4
Ntp1484
Rp1485
(dp1486
g8
g11
sg156
Nsg157
(dp1487
sg159
Nsg26
g29
sg160
(lp1488
I15
aI7
asg162
Nsg163
VShemot Rabbah 15:7
p1489
sg165
(lp1490
sg167
g118
sg168
Nsg169
(lp1491
I15
aI7
asg171
Nsg172
g1489
sg173
(lp1492
sg175
g60
sg176
Nsg177
Nsg178
Nsbag2
(g3
g4
Ntp1493
Rp1494
(dp1495
g8
g11
sg156
Nsg157
(dp1496
sg159
Nsg26
g29
sg160
(lp1497
I15
aI8
asg162
Nsg163
VShemot Rabbah 15:8
p1498
sg165
(lp1499
sg167
g118
sg168
Nsg169
(lp1500
I15
aI8
asg171
Nsg172
g1498
sg173
(lp1501
sg175
g60
sg176
Nsg177
Nsg178
Nsbag2
(g3
g4
Ntp1502
Rp1503
(dp1504
g8
g11
sg156
Nsg157
(dp1505
sg159
Nsg26
g29
sg160
(lp1506
I15
aI9
asg162
Nsg163
VShemot Rabbah 15:9
p1507
sg165
(lp1508
sg167
g118
sg168
Nsg169
(lp1509
I15
aI9
asg171
Nsg172
g1507
sg173
(lp1510
sg175
g60
sg176
Nsg177
Nsg178
Nsbag2
(g3
g4
Ntp1511
Rp1512
(dp1513
g8
g11
sg156
Nsg157
(dp1514
sg159
Nsg26
g29
sg160
(lp1515
I15
aI10
asg162
Nsg163
VShemot Rabbah 15:10
p1516
sg165
(lp1517
sg167
g118
sg168
Nsg169
(lp1518
I15
aI10
asg171
Nsg172
g1516
sg173
(lp1519
sg175
g60
sg176
Nsg177
Nsg178
Nsbag2
(g3
g4
Ntp1520
Rp1521
(dp1522
g8
g11
sg156
Nsg157
(dp1523
sg159
Nsg26
g29
sg160
(lp1524
I15
aI11
asg162
Nsg163
VShemot Rabbah 15:11
p1525
sg165
(lp1526
sg167
g118
sg168
Nsg169
(lp1527
I15
aI11
asg171
Nsg172
g1525
sg173
(lp1528
sg175
g60
sg176
Nsg177
Nsg178
Nsbag2
(g3
g4
Ntp1529
Rp1530
(dp1531
g8
g11
sg156
Nsg157
(dp1532
sg159
Nsg26
g29
sg160
(lp1533
I15
aI12
asg162
Nsg163
VShemot Rabbah 15:12
p1534
sg165
(lp1535
sg167
g118
sg168
Nsg169
(lp1536
I15
aI12
asg171
Nsg172
g1534
sg173
(lp1537
sg175
g60
sg176
Nsg177
Nsg178
Nsbag2
(g3
g4
Ntp1538
Rp1539
(dp1540
g8
g11
sg156
Nsg157
(dp1541
sg159
Nsg26
g29
sg160
(lp1542
I15
aI13
asg162
Nsg163
VShemot Rabbah 15:13
p1543
sg165
(lp1544
sg167
g118
sg168
Nsg169
(lp1545
I15
aI13
asg171
Nsg172
g1543
sg173
(lp1546
sg175
g60
sg176
Nsg177
Nsg178
Nsbag2
(g3
g4
Ntp1547
Rp1548
(dp1549
g8
g11
sg156
Nsg157
(dp1550
sg159
Nsg26
g29
sg160
(lp1551
I15
aI14
asg162
Nsg163
VShemot Rabbah 15:14
p1552
sg165
(lp1553
sg167
g118
sg168
Nsg169
(lp1554
I15
aI14
asg171
Nsg172
g1552
sg173
(lp1555
sg175
g60
sg176
Nsg177
Nsg178
Nsbag2
(g3
g4
Ntp1556
Rp1557
(dp1558
g8
g11
sg156
Nsg157
(dp1559
sg159
Nsg26
g29
sg160
(lp1560
I15
aI15
asg162
Nsg163
VShemot Rabbah 15:15
p1561
sg165
(lp1562
sg167
g118
sg168
Nsg169
(lp1563
I15
aI15
asg171
Nsg172
g1561
sg173
(lp1564
sg175
g60
sg176
Nsg177
Nsg178
Nsbag2
(g3
g4
Ntp1565
Rp1566
(dp1567
g8
g11
sg156
Nsg157
(dp1568
sg159
Nsg26
g29
sg160
(lp1569
I15
aI16
asg162
Nsg163
VShemot Rabbah 15:16
p1570
sg165
(lp1571
sg167
g118
sg168
Nsg169
(lp1572
I15
aI16
asg171
Nsg172
g1570
sg173
(lp1573
sg175
g60
sg176
Nsg177
Nsg178
Nsbag2
(g3
g4
Ntp1574
Rp1575
(dp1576
g8
g11
sg156
Nsg157
(dp1577
sg159
Nsg26
g29
sg160
(lp1578
I15
aI17
asg162
Nsg163
VShemot Rabbah 15:17
p1579
sg165
(lp1580
sg167
g118
sg168
Nsg169
(lp1581
I15
aI17
asg171
Nsg172
g1579
sg173
(lp1582
sg175
g60
sg176
Nsg177
Nsg178
Nsbag2
(g3
g4
Ntp1583
Rp1584
(dp1585
g8
g11
sg156
Nsg157
(dp1586
sg159
Nsg26
g29
sg160
(lp1587
I15
aI18
asg162
Nsg163
VShemot Rabbah 15:18
p1588
sg165
(lp1589
sg167
g118
sg168
Nsg169
(lp1590
I15
aI18
asg171
Nsg172
g1588
sg173
(lp1591
sg175
g60
sg176
Nsg177
Nsg178
Nsbag2
(g3
g4
Ntp1592
Rp1593
(dp1594
g8
g11
sg156
Nsg157
(dp1595
sg159
Nsg26
g29
sg160
(lp1596
I15
aI19
asg162
Nsg163
VShemot Rabbah 15:19
p1597
sg165
(lp1598
sg167
g118
sg168
Nsg169
(lp1599
I15
aI19
asg171
Nsg172
g1597
sg173
(lp1600
sg175
g60
sg176
Nsg177
Nsg178
Nsbag2
(g3
g4
Ntp1601
Rp1602
(dp1603
g8
g11
sg156
Nsg157
(dp1604
sg159
Nsg26
g29
sg160
(lp1605
I15
aI20
asg162
Nsg163
VShemot Rabbah 15:20
p1606
sg165
(lp1607
sg167
g118
sg168
Nsg169
(lp1608
I15
aI20
asg171
Nsg172
g1606
sg173
(lp1609
sg175
g60
sg176
Nsg177
Nsg178
Nsbag2
(g3
g4
Ntp1610
Rp1611
(dp1612
g8
g11
sg156
Nsg157
(dp1613
sg159
Nsg26
g29
sg160
(lp1614
I15
aI21
asg162
Nsg163
VShemot Rabbah 15:21
p1615
sg165
(lp1616
sg167
g118
sg168
Nsg169
(lp1617
I15
aI21
asg171
Nsg172
g1615
sg173
(lp1618
sg175
g60
sg176
Nsg177
Nsg178
Nsbag2
(g3
g4
Ntp1619
Rp1620
(dp1621
g8
g11
sg156
Nsg157
(dp1622
sg159
Nsg26
g29
sg160
(lp1623
I15
aI22
asg162
Nsg163
VShemot Rabbah 15:22
p1624
sg165
(lp1625
sg167
g118
sg168
Nsg169
(lp1626
I15
aI22
asg171
Nsg172
g1624
sg173
(lp1627
sg175
g60
sg176
Nsg177
Nsg178
Nsbag2
(g3
g4
Ntp1628
Rp1629
(dp1630
g8
g11
sg156
Nsg157
(dp1631
sg159
Nsg26
g29
sg160
(lp1632
I15
aI23
asg162
Nsg163
VShemot Rabbah 15:23
p1633
sg165
(lp1634
sg167
g118
sg168
Nsg169
(lp1635
I15
aI23
asg171
Nsg172
g1633
sg173
(lp1636
sg175
g60
sg176
Nsg177
Nsg178
Nsbag2
(g3
g4
Ntp1637
Rp1638
(dp1639
g8
g11
sg156
Nsg157
(dp1640
sg159
Nsg26
g29
sg160
(lp1641
I15
aI24
asg162
Nsg163
VShemot Rabbah 15:24
p1642
sg165
(lp1643
sg167
g118
sg168
Nsg169
(lp1644
I15
aI24
asg171
Nsg172
g1642
sg173
(lp1645
sg175
g60
sg176
Nsg177
Nsg178
Nsbag2
(g3
g4
Ntp1646
Rp1647
(dp1648
g8
g11
sg156
Nsg157
(dp1649
sg159
Nsg26
g29
sg160
(lp1650
I15
aI25
asg162
Nsg163
VShemot Rabbah 15:25
p1651
sg165
(lp1652
sg167
g118
sg168
Nsg169
(lp1653
I15
aI25
asg171
Nsg172
g1651
sg173
(lp1654
sg175
g60
sg176
Nsg177
Nsg178
Nsbag2
(g3
g4
Ntp1655
Rp1656
(dp1657
g8
g11
sg156
Nsg157
(dp1658
sg159
Nsg26
g29
sg160
(lp1659
I15
aI26
asg162
Nsg163
VShemot Rabbah 15:26
p1660
sg165
(lp1661
sg167
g118
sg168
Nsg169
(lp1662
I15
aI26
asg171
Nsg172
g1660
sg173
(lp1663
sg175
g60
sg176
Nsg177
Nsg178
Nsbag2
(g3
g4
Ntp1664
Rp1665
(dp1666
g8
g11
sg156
Nsg157
(dp1667
sg159
Nsg26
g29
sg160
(lp1668
I15
aI27
asg162
Nsg163
VShemot Rabbah 15:27
p1669
sg165
(lp1670
sg167
g118
sg168
Nsg169
(lp1671
I15
aI27
asg171
Nsg172
g1669
sg173
(lp1672
sg175
g60
sg176
Nsg177
Nsg178
Nsbag2
(g3
g4
Ntp1673
Rp1674
(dp1675
g8
g11
sg156
Nsg157
(dp1676
sg159
Nsg26
g29
sg160
(lp1677
I15
aI28
asg162
Nsg163
VShemot Rabbah 15:28
p1678
sg165
(lp1679
sg167
g118
sg168
Nsg169
(lp1680
I15
aI28
asg171
Nsg172
g1678
sg173
(lp1681
sg175
g60
sg176
Nsg177
Nsg178
Nsbag2
(g3
g4
Ntp1682
Rp1683
(dp1684
g8
g11
sg156
Nsg157
(dp1685
sg159
Nsg26
g29
sg160
(lp1686
I15
aI29
asg162
Nsg163
VShemot Rabbah 15:29
p1687
sg165
(lp1688
sg167
g118
sg168
Nsg169
(lp1689
I15
aI29
asg171
Nsg172
g1687
sg173
(lp1690
sg175
g60
sg176
Nsg177
Nsg178
Nsbag2
(g3
g4
Ntp1691
Rp1692
(dp1693
g8
g11
sg156
Nsg157
(dp1694
sg159
Nsg26
g29
sg160
(lp1695
I15
aI30
asg162
Nsg163
VShemot Rabbah 15:30
p1696
sg165
(lp1697
sg167
g118
sg168
Nsg169
(lp1698
I15
aI30
asg171
Nsg172
g1696
sg173
(lp1699
sg175
g60
sg176
Nsg177
Nsg178
Nsbag2
(g3
g4
Ntp1700
Rp1701
(dp1702
g8
g11
sg156
Nsg157
(dp1703
sg159
Nsg26
g29
sg160
(lp1704
I15
aI31
asg162
Nsg163
VShemot Rabbah 15:31
p1705
sg165
(lp1706
sg167
g118
sg168
Nsg169
(lp1707
I15
aI31
asg171
Nsg172
g1705
sg173
(lp1708
sg175
g60
sg176
Nsg177
Nsg178
Nsbag2
(g3
g4
Ntp1709
Rp1710
(dp1711
g8
g11
sg156
Nsg157
(dp1712
sg159
Nsg26
g29
sg160
(lp1713
I16
aI1
asg162
Nsg163
VShemot Rabbah 16:1
p1714
sg165
(lp1715
sg167
g118
sg168
Nsg169
(lp1716
I16
aI1
asg171
Nsg172
g1714
sg173
(lp1717
sg175
g60
sg176
Nsg177
Nsg178
Nsbag2
(g3
g4
Ntp1718
Rp1719
(dp1720
g8
g11
sg156
Nsg157
(dp1721
sg159
Nsg26
g29
sg160
(lp1722
I16
aI2
asg162
Nsg163
VShemot Rabbah 16:2
p1723
sg165
(lp1724
sg167
g118
sg168
Nsg169
(lp1725
I16
aI2
asg171
Nsg172
g1723
sg173
(lp1726
sg175
g60
sg176
Nsg177
Nsg178
Nsbag2
(g3
g4
Ntp1727
Rp1728
(dp1729
g8
g11
sg156
Nsg157
(dp1730
sg159
Nsg26
g29
sg160
(lp1731
I16
aI3
asg162
Nsg163
VShemot Rabbah 16:3
p1732
sg165
(lp1733
sg167
g118
sg168
Nsg169
(lp1734
I16
aI3
asg171
Nsg172
g1732
sg173
(lp1735
sg175
g60
sg176
Nsg177
Nsg178
Nsbag2
(g3
g4
Ntp1736
Rp1737
(dp1738
g8
g11
sg156
Nsg157
(dp1739
sg159
Nsg26
g29
sg160
(lp1740
I16
aI4
asg162
Nsg163
VShemot Rabbah 16:4
p1741
sg165
(lp1742
sg167
g118
sg168
Nsg169
(lp1743
I16
aI4
asg171
Nsg172
g1741
sg173
(lp1744
sg175
g60
sg176
Nsg177
Nsg178
Nsbag2
(g3
g4
Ntp1745
Rp1746
(dp1747
g8
g11
sg156
Nsg157
(dp1748
sg159
Nsg26
g29
sg160
(lp1749
I17
aI1
asg162
Nsg163
VShemot Rabbah 17:1
p1750
sg165
(lp1751
sg167
g118
sg168
Nsg169
(lp1752
I17
aI1
asg171
Nsg172
g1750
sg173
(lp1753
sg175
g60
sg176
Nsg177
Nsg178
Nsbag2
(g3
g4
Ntp1754
Rp1755
(dp1756
g8
g11
sg156
Nsg157
(dp1757
sg159
Nsg26
g29
sg160
(lp1758
I17
aI2
asg162
Nsg163
VShemot Rabbah 17:2
p1759
sg165
(lp1760
sg167
g118
sg168
Nsg169
(lp1761
I17
aI2
asg171
Nsg172
g1759
sg173
(lp1762
sg175
g60
sg176
Nsg177
Nsg178
Nsbag2
(g3
g4
Ntp1763
Rp1764
(dp1765
g8
g11
sg156
Nsg157
(dp1766
sg159
Nsg26
g29
sg160
(lp1767
I17
aI3
asg162
Nsg163
VShemot Rabbah 17:3
p1768
sg165
(lp1769
sg167
g118
sg168
Nsg169
(lp1770
I17
aI3
asg171
Nsg172
g1768
sg173
(lp1771
sg175
g60
sg176
Nsg177
Nsg178
Nsbag2
(g3
g4
Ntp1772
Rp1773
(dp1774
g8
g11
sg156
Nsg157
(dp1775
sg159
Nsg26
g29
sg160
(lp1776
I17
aI4
asg162
Nsg163
VShemot Rabbah 17:4
p1777
sg165
(lp1778
sg167
g118
sg168
Nsg169
(lp1779
I17
aI4
asg171
Nsg172
g1777
sg173
(lp1780
sg175
g60
sg176
Nsg177
Nsg178
Nsbag2
(g3
g4
Ntp1781
Rp1782
(dp1783
g8
g11
sg156
Nsg157
(dp1784
sg159
Nsg26
g29
sg160
(lp1785
I17
aI5
asg162
Nsg163
VShemot Rabbah 17:5
p1786
sg165
(lp1787
sg167
g118
sg168
Nsg169
(lp1788
I17
aI5
asg171
Nsg172
g1786
sg173
(lp1789
sg175
g60
sg176
Nsg177
Nsg178
Nsbag2
(g3
g4
Ntp1790
Rp1791
(dp1792
g8
g11
sg156
Nsg157
(dp1793
sg159
Nsg26
g29
sg160
(lp1794
I18
aI1
asg162
Nsg163
VShemot Rabbah 18:1
p1795
sg165
(lp1796
sg167
g118
sg168
Nsg169
(lp1797
I18
aI1
asg171
Nsg172
g1795
sg173
(lp1798
sg175
g60
sg176
Nsg177
Nsg178
Nsbag2
(g3
g4
Ntp1799
Rp1800
(dp1801
g8
g11
sg156
Nsg157
(dp1802
sg159
Nsg26
g29
sg160
(lp1803
I18
aI2
asg162
Nsg163
VShemot Rabbah 18:2
p1804
sg165
(lp1805
sg167
g118
sg168
Nsg169
(lp1806
I18
aI2
asg171
Nsg172
g1804
sg173
(lp1807
sg175
g60
sg176
Nsg177
Nsg178
Nsbag2
(g3
g4
Ntp1808
Rp1809
(dp1810
g8
g11
sg156
Nsg157
(dp1811
sg159
Nsg26
g29
sg160
(lp1812
I18
aI3
asg162
Nsg163
VShemot Rabbah 18:3
p1813
sg165
(lp1814
sg167
g118
sg168
Nsg169
(lp1815
I18
aI3
asg171
Nsg172
g1813
sg173
(lp1816
sg175
g60
sg176
Nsg177
Nsg178
Nsbag2
(g3
g4
Ntp1817
Rp1818
(dp1819
g8
g11
sg156
Nsg157
(dp1820
sg159
Nsg26
g29
sg160
(lp1821
I18
aI4
asg162
Nsg163
VShemot Rabbah 18:4
p1822
sg165
(lp1823
sg167
g118
sg168
Nsg169
(lp1824
I18
aI4
asg171
Nsg172
g1822
sg173
(lp1825
sg175
g60
sg176
Nsg177
Nsg178
Nsbag2
(g3
g4
Ntp1826
Rp1827
(dp1828
g8
g11
sg156
Nsg157
(dp1829
sg159
Nsg26
g29
sg160
(lp1830
I18
aI5
asg162
Nsg163
VShemot Rabbah 18:5
p1831
sg165
(lp1832
sg167
g118
sg168
Nsg169
(lp1833
I18
aI5
asg171
Nsg172
g1831
sg173
(lp1834
sg175
g60
sg176
Nsg177
Nsg178
Nsbag2
(g3
g4
Ntp1835
Rp1836
(dp1837
g8
g11
sg156
Nsg157
(dp1838
sg159
Nsg26
g29
sg160
(lp1839
I18
aI6
asg162
Nsg163
VShemot Rabbah 18:6
p1840
sg165
(lp1841
sg167
g118
sg168
Nsg169
(lp1842
I18
aI6
asg171
Nsg172
g1840
sg173
(lp1843
sg175
g60
sg176
Nsg177
Nsg178
Nsbag2
(g3
g4
Ntp1844
Rp1845
(dp1846
g8
g11
sg156
Nsg157
(dp1847
sg159
Nsg26
g29
sg160
(lp1848
I18
aI7
asg162
Nsg163
VShemot Rabbah 18:7
p1849
sg165
(lp1850
sg167
g118
sg168
Nsg169
(lp1851
I18
aI7
asg171
Nsg172
g1849
sg173
(lp1852
sg175
g60
sg176
Nsg177
Nsg178
Nsbag2
(g3
g4
Ntp1853
Rp1854
(dp1855
g8
g11
sg156
Nsg157
(dp1856
sg159
Nsg26
g29
sg160
(lp1857
I18
aI8
asg162
Nsg163
VShemot Rabbah 18:8
p1858
sg165
(lp1859
sg167
g118
sg168
Nsg169
(lp1860
I18
aI8
asg171
Nsg172
g1858
sg173
(lp1861
sg175
g60
sg176
Nsg177
Nsg178
Nsbag2
(g3
g4
Ntp1862
Rp1863
(dp1864
g8
g11
sg156
Nsg157
(dp1865
sg159
Nsg26
g29
sg160
(lp1866
I18
aI9
asg162
Nsg163
VShemot Rabbah 18:9
p1867
sg165
(lp1868
sg167
g118
sg168
Nsg169
(lp1869
I18
aI9
asg171
Nsg172
g1867
sg173
(lp1870
sg175
g60
sg176
Nsg177
Nsg178
Nsbag2
(g3
g4
Ntp1871
Rp1872
(dp1873
g8
g11
sg156
Nsg157
(dp1874
sg159
Nsg26
g29
sg160
(lp1875
I18
aI10
asg162
Nsg163
VShemot Rabbah 18:10
p1876
sg165
(lp1877
sg167
g118
sg168
Nsg169
(lp1878
I18
aI10
asg171
Nsg172
g1876
sg173
(lp1879
sg175
g60
sg176
Nsg177
Nsg178
Nsbag2
(g3
g4
Ntp1880
Rp1881
(dp1882
g8
g11
sg156
Nsg157
(dp1883
sg159
Nsg26
g29
sg160
(lp1884
I18
aI11
asg162
Nsg163
VShemot Rabbah 18:11
p1885
sg165
(lp1886
sg167
g118
sg168
Nsg169
(lp1887
I18
aI11
asg171
Nsg172
g1885
sg173
(lp1888
sg175
g60
sg176
Nsg177
Nsg178
Nsbag2
(g3
g4
Ntp1889
Rp1890
(dp1891
g8
g11
sg156
Nsg157
(dp1892
sg159
Nsg26
g29
sg160
(lp1893
I18
aI12
asg162
Nsg163
VShemot Rabbah 18:12
p1894
sg165
(lp1895
sg167
g118
sg168
Nsg169
(lp1896
I18
aI12
asg171
Nsg172
g1894
sg173
(lp1897
sg175
g60
sg176
Nsg177
Nsg178
Nsbag2
(g3
g4
Ntp1898
Rp1899
(dp1900
g8
g11
sg156
Nsg157
(dp1901
sg159
Nsg26
g29
sg160
(lp1902
I19
aI1
asg162
Nsg163
VShemot Rabbah 19:1
p1903
sg165
(lp1904
sg167
g118
sg168
Nsg169
(lp1905
I19
aI1
asg171
Nsg172
g1903
sg173
(lp1906
sg175
g60
sg176
Nsg177
Nsg178
Nsbag2
(g3
g4
Ntp1907
Rp1908
(dp1909
g8
g11
sg156
Nsg157
(dp1910
sg159
Nsg26
g29
sg160
(lp1911
I19
aI2
asg162
Nsg163
VShemot Rabbah 19:2
p1912
sg165
(lp1913
sg167
g118
sg168
Nsg169
(lp1914
I19
aI2
asg171
Nsg172
g1912
sg173
(lp1915
sg175
g60
sg176
Nsg177
Nsg178
Nsbag2
(g3
g4
Ntp1916
Rp1917
(dp1918
g8
g11
sg156
Nsg157
(dp1919
sg159
Nsg26
g29
sg160
(lp1920
I19
aI3
asg162
Nsg163
VShemot Rabbah 19:3
p1921
sg165
(lp1922
sg167
g118
sg168
Nsg169
(lp1923
I19
aI3
asg171
Nsg172
g1921
sg173
(lp1924
sg175
g60
sg176
Nsg177
Nsg178
Nsbag2
(g3
g4
Ntp1925
Rp1926
(dp1927
g8
g11
sg156
Nsg157
(dp1928
sg159
Nsg26
g29
sg160
(lp1929
I19
aI4
asg162
Nsg163
VShemot Rabbah 19:4
p1930
sg165
(lp1931
sg167
g118
sg168
Nsg169
(lp1932
I19
aI4
asg171
Nsg172
g1930
sg173
(lp1933
sg175
g60
sg176
Nsg177
Nsg178
Nsbag2
(g3
g4
Ntp1934
Rp1935
(dp1936
g8
g11
sg156
Nsg157
(dp1937
sg159
Nsg26
g29
sg160
(lp1938
I19
aI5
asg162
Nsg163
VShemot Rabbah 19:5
p1939
sg165
(lp1940
sg167
g118
sg168
Nsg169
(lp1941
I19
aI5
asg171
Nsg172
g1939
sg173
(lp1942
sg175
g60
sg176
Nsg177
Nsg178
Nsbag2
(g3
g4
Ntp1943
Rp1944
(dp1945
g8
g11
sg156
Nsg157
(dp1946
sg159
Nsg26
g29
sg160
(lp1947
I19
aI6
asg162
Nsg163
VShemot Rabbah 19:6
p1948
sg165
(lp1949
sg167
g118
sg168
Nsg169
(lp1950
I19
aI6
asg171
Nsg172
g1948
sg173
(lp1951
sg175
g60
sg176
Nsg177
Nsg178
Nsbag2
(g3
g4
Ntp1952
Rp1953
(dp1954
g8
g11
sg156
Nsg157
(dp1955
sg159
Nsg26
g29
sg160
(lp1956
I19
aI7
asg162
Nsg163
VShemot Rabbah 19:7
p1957
sg165
(lp1958
sg167
g118
sg168
Nsg169
(lp1959
I19
aI7
asg171
Nsg172
g1957
sg173
(lp1960
sg175
g60
sg176
Nsg177
Nsg178
Nsbag2
(g3
g4
Ntp1961
Rp1962
(dp1963
g8
g11
sg156
Nsg157
(dp1964
sg159
Nsg26
g29
sg160
(lp1965
I19
aI8
asg162
Nsg163
VShemot Rabbah 19:8
p1966
sg165
(lp1967
sg167
g118
sg168
Nsg169
(lp1968
I19
aI8
asg171
Nsg172
g1966
sg173
(lp1969
sg175
g60
sg176
Nsg177
Nsg178
Nsbag2
(g3
g4
Ntp1970
Rp1971
(dp1972
g8
g11
sg156
Nsg157
(dp1973
sg159
Nsg26
g29
sg160
(lp1974
I20
aI1
asg162
Nsg163
VShemot Rabbah 20:1
p1975
sg165
(lp1976
sg167
g118
sg168
Nsg169
(lp1977
I20
aI1
asg171
Nsg172
g1975
sg173
(lp1978
sg175
g60
sg176
Nsg177
Nsg178
Nsbag2
(g3
g4
Ntp1979
Rp1980
(dp1981
g8
g11
sg156
Nsg157
(dp1982
sg159
Nsg26
g29
sg160
(lp1983
I20
aI2
asg162
Nsg163
VShemot Rabbah 20:2
p1984
sg165
(lp1985
sg167
g118
sg168
Nsg169
(lp1986
I20
aI2
asg171
Nsg172
g1984
sg173
(lp1987
sg175
g60
sg176
Nsg177
Nsg178
Nsbag2
(g3
g4
Ntp1988
Rp1989
(dp1990
g8
g11
sg156
Nsg157
(dp1991
sg159
Nsg26
g29
sg160
(lp1992
I20
aI3
asg162
Nsg163
VShemot Rabbah 20:3
p1993
sg165
(lp1994
sg167
g118
sg168
Nsg169
(lp1995
I20
aI3
asg171
Nsg172
g1993
sg173
(lp1996
sg175
g60
sg176
Nsg177
Nsg178
Nsbag2
(g3
g4
Ntp1997
Rp1998
(dp1999
g8
g11
sg156
Nsg157
(dp2000
sg159
Nsg26
g29
sg160
(lp2001
I20
aI4
asg162
Nsg163
VShemot Rabbah 20:4
p2002
sg165
(lp2003
sg167
g118
sg168
Nsg169
(lp2004
I20
aI4
asg171
Nsg172
g2002
sg173
(lp2005
sg175
g60
sg176
Nsg177
Nsg178
Nsbag2
(g3
g4
Ntp2006
Rp2007
(dp2008
g8
g11
sg156
Nsg157
(dp2009
sg159
Nsg26
g29
sg160
(lp2010
I20
aI5
asg162
Nsg163
VShemot Rabbah 20:5
p2011
sg165
(lp2012
sg167
g118
sg168
Nsg169
(lp2013
I20
aI5
asg171
Nsg172
g2011
sg173
(lp2014
sg175
g60
sg176
Nsg177
Nsg178
Nsbag2
(g3
g4
Ntp2015
Rp2016
(dp2017
g8
g11
sg156
Nsg157
(dp2018
sg159
Nsg26
g29
sg160
(lp2019
I20
aI6
asg162
Nsg163
VShemot Rabbah 20:6
p2020
sg165
(lp2021
sg167
g118
sg168
Nsg169
(lp2022
I20
aI6
asg171
Nsg172
g2020
sg173
(lp2023
sg175
g60
sg176
Nsg177
Nsg178
Nsbag2
(g3
g4
Ntp2024
Rp2025
(dp2026
g8
g11
sg156
Nsg157
(dp2027
sg159
Nsg26
g29
sg160
(lp2028
I20
aI7
asg162
Nsg163
VShemot Rabbah 20:7
p2029
sg165
(lp2030
sg167
g118
sg168
Nsg169
(lp2031
I20
aI7
asg171
Nsg172
g2029
sg173
(lp2032
sg175
g60
sg176
Nsg177
Nsg178
Nsbag2
(g3
g4
Ntp2033
Rp2034
(dp2035
g8
g11
sg156
Nsg157
(dp2036
sg159
Nsg26
g29
sg160
(lp2037
I20
aI8
asg162
Nsg163
VShemot Rabbah 20:8
p2038
sg165
(lp2039
sg167
g118
sg168
Nsg169
(lp2040
I20
aI8
asg171
Nsg172
g2038
sg173
(lp2041
sg175
g60
sg176
Nsg177
Nsg178
Nsbag2
(g3
g4
Ntp2042
Rp2043
(dp2044
g8
g11
sg156
Nsg157
(dp2045
sg159
Nsg26
g29
sg160
(lp2046
I20
aI9
asg162
Nsg163
VShemot Rabbah 20:9
p2047
sg165
(lp2048
sg167
g118
sg168
Nsg169
(lp2049
I20
aI9
asg171
Nsg172
g2047
sg173
(lp2050
sg175
g60
sg176
Nsg177
Nsg178
Nsbag2
(g3
g4
Ntp2051
Rp2052
(dp2053
g8
g11
sg156
Nsg157
(dp2054
sg159
Nsg26
g29
sg160
(lp2055
I20
aI10
asg162
Nsg163
VShemot Rabbah 20:10
p2056
sg165
(lp2057
sg167
g118
sg168
Nsg169
(lp2058
I20
aI10
asg171
Nsg172
g2056
sg173
(lp2059
sg175
g60
sg176
Nsg177
Nsg178
Nsbag2
(g3
g4
Ntp2060
Rp2061
(dp2062
g8
g11
sg156
Nsg157
(dp2063
sg159
Nsg26
g29
sg160
(lp2064
I20
aI11
asg162
Nsg163
VShemot Rabbah 20:11
p2065
sg165
(lp2066
sg167
g118
sg168
Nsg169
(lp2067
I20
aI11
asg171
Nsg172
g2065
sg173
(lp2068
sg175
g60
sg176
Nsg177
Nsg178
Nsbag2
(g3
g4
Ntp2069
Rp2070
(dp2071
g8
g11
sg156
Nsg157
(dp2072
sg159
Nsg26
g29
sg160
(lp2073
I20
aI12
asg162
Nsg163
VShemot Rabbah 20:12
p2074
sg165
(lp2075
sg167
g118
sg168
Nsg169
(lp2076
I20
aI12
asg171
Nsg172
g2074
sg173
(lp2077
sg175
g60
sg176
Nsg177
Nsg178
Nsbag2
(g3
g4
Ntp2078
Rp2079
(dp2080
g8
g11
sg156
Nsg157
(dp2081
sg159
Nsg26
g29
sg160
(lp2082
I20
aI13
asg162
Nsg163
VShemot Rabbah 20:13
p2083
sg165
(lp2084
sg167
g118
sg168
Nsg169
(lp2085
I20
aI13
asg171
Nsg172
g2083
sg173
(lp2086
sg175
g60
sg176
Nsg177
Nsg178
Nsbag2
(g3
g4
Ntp2087
Rp2088
(dp2089
g8
g11
sg156
Nsg157
(dp2090
sg159
Nsg26
g29
sg160
(lp2091
I20
aI14
asg162
Nsg163
VShemot Rabbah 20:14
p2092
sg165
(lp2093
sg167
g118
sg168
Nsg169
(lp2094
I20
aI14
asg171
Nsg172
g2092
sg173
(lp2095
sg175
g60
sg176
Nsg177
Nsg178
Nsbag2
(g3
g4
Ntp2096
Rp2097
(dp2098
g8
g11
sg156
Nsg157
(dp2099
sg159
Nsg26
g29
sg160
(lp2100
I20
aI15
asg162
Nsg163
VShemot Rabbah 20:15
p2101
sg165
(lp2102
sg167
g118
sg168
Nsg169
(lp2103
I20
aI15
asg171
Nsg172
g2101
sg173
(lp2104
sg175
g60
sg176
Nsg177
Nsg178
Nsbag2
(g3
g4
Ntp2105
Rp2106
(dp2107
g8
g11
sg156
Nsg157
(dp2108
sg159
Nsg26
g29
sg160
(lp2109
I20
aI16
asg162
Nsg163
VShemot Rabbah 20:16
p2110
sg165
(lp2111
sg167
g118
sg168
Nsg169
(lp2112
I20
aI16
asg171
Nsg172
g2110
sg173
(lp2113
sg175
g60
sg176
Nsg177
Nsg178
Nsbag2
(g3
g4
Ntp2114
Rp2115
(dp2116
g8
g11
sg156
Nsg157
(dp2117
sg159
Nsg26
g29
sg160
(lp2118
I20
aI17
asg162
Nsg163
VShemot Rabbah 20:17
p2119
sg165
(lp2120
sg167
g118
sg168
Nsg169
(lp2121
I20
aI17
asg171
Nsg172
g2119
sg173
(lp2122
sg175
g60
sg176
Nsg177
Nsg178
Nsbag2
(g3
g4
Ntp2123
Rp2124
(dp2125
g8
g11
sg156
Nsg157
(dp2126
sg159
Nsg26
g29
sg160
(lp2127
I20
aI18
asg162
Nsg163
VShemot Rabbah 20:18
p2128
sg165
(lp2129
sg167
g118
sg168
Nsg169
(lp2130
I20
aI18
asg171
Nsg172
g2128
sg173
(lp2131
sg175
g60
sg176
Nsg177
Nsg178
Nsbag2
(g3
g4
Ntp2132
Rp2133
(dp2134
g8
g11
sg156
Nsg157
(dp2135
sg159
Nsg26
g29
sg160
(lp2136
I20
aI19
asg162
Nsg163
VShemot Rabbah 20:19
p2137
sg165
(lp2138
sg167
g118
sg168
Nsg169
(lp2139
I20
aI19
asg171
Nsg172
g2137
sg173
(lp2140
sg175
g60
sg176
Nsg177
Nsg178
Nsbag2
(g3
g4
Ntp2141
Rp2142
(dp2143
g8
g11
sg156
Nsg157
(dp2144
sg159
Nsg26
g29
sg160
(lp2145
I21
aI1
asg162
Nsg163
VShemot Rabbah 21:1
p2146
sg165
(lp2147
sg167
g118
sg168
Nsg169
(lp2148
I21
aI1
asg171
Nsg172
g2146
sg173
(lp2149
sg175
g60
sg176
Nsg177
Nsg178
Nsbag2
(g3
g4
Ntp2150
Rp2151
(dp2152
g8
g11
sg156
Nsg157
(dp2153
sg159
Nsg26
g29
sg160
(lp2154
I21
aI2
asg162
Nsg163
VShemot Rabbah 21:2
p2155
sg165
(lp2156
sg167
g118
sg168
Nsg169
(lp2157
I21
aI2
asg171
Nsg172
g2155
sg173
(lp2158
sg175
g60
sg176
Nsg177
Nsg178
Nsbag2
(g3
g4
Ntp2159
Rp2160
(dp2161
g8
g11
sg156
Nsg157
(dp2162
sg159
Nsg26
g29
sg160
(lp2163
I21
aI3
asg162
Nsg163
VShemot Rabbah 21:3
p2164
sg165
(lp2165
sg167
g118
sg168
Nsg169
(lp2166
I21
aI3
asg171
Nsg172
g2164
sg173
(lp2167
sg175
g60
sg176
Nsg177
Nsg178
Nsbag2
(g3
g4
Ntp2168
Rp2169
(dp2170
g8
g11
sg156
Nsg157
(dp2171
sg159
Nsg26
g29
sg160
(lp2172
I21
aI4
asg162
Nsg163
VShemot Rabbah 21:4
p2173
sg165
(lp2174
sg167
g118
sg168
Nsg169
(lp2175
I21
aI4
asg171
Nsg172
g2173
sg173
(lp2176
sg175
g60
sg176
Nsg177
Nsg178
Nsbag2
(g3
g4
Ntp2177
Rp2178
(dp2179
g8
g11
sg156
Nsg157
(dp2180
sg159
Nsg26
g29
sg160
(lp2181
I21
aI5
asg162
Nsg163
VShemot Rabbah 21:5
p2182
sg165
(lp2183
sg167
g118
sg168
Nsg169
(lp2184
I21
aI5
asg171
Nsg172
g2182
sg173
(lp2185
sg175
g60
sg176
Nsg177
Nsg178
Nsbag2
(g3
g4
Ntp2186
Rp2187
(dp2188
g8
g11
sg156
Nsg157
(dp2189
sg159
Nsg26
g29
sg160
(lp2190
I21
aI6
asg162
Nsg163
VShemot Rabbah 21:6
p2191
sg165
(lp2192
sg167
g118
sg168
Nsg169
(lp2193
I21
aI6
asg171
Nsg172
g2191
sg173
(lp2194
sg175
g60
sg176
Nsg177
Nsg178
Nsbag2
(g3
g4
Ntp2195
Rp2196
(dp2197
g8
g11
sg156
Nsg157
(dp2198
sg159
Nsg26
g29
sg160
(lp2199
I21
aI7
asg162
Nsg163
VShemot Rabbah 21:7
p2200
sg165
(lp2201
sg167
g118
sg168
Nsg169
(lp2202
I21
aI7
asg171
Nsg172
g2200
sg173
(lp2203
sg175
g60
sg176
Nsg177
Nsg178
Nsbag2
(g3
g4
Ntp2204
Rp2205
(dp2206
g8
g11
sg156
Nsg157
(dp2207
sg159
Nsg26
g29
sg160
(lp2208
I21
aI8
asg162
Nsg163
VShemot Rabbah 21:8
p2209
sg165
(lp2210
sg167
g118
sg168
Nsg169
(lp2211
I21
aI8
asg171
Nsg172
g2209
sg173
(lp2212
sg175
g60
sg176
Nsg177
Nsg178
Nsbag2
(g3
g4
Ntp2213
Rp2214
(dp2215
g8
g11
sg156
Nsg157
(dp2216
sg159
Nsg26
g29
sg160
(lp2217
I21
aI9
asg162
Nsg163
VShemot Rabbah 21:9
p2218
sg165
(lp2219
sg167
g118
sg168
Nsg169
(lp2220
I21
aI9
asg171
Nsg172
g2218
sg173
(lp2221
sg175
g60
sg176
Nsg177
Nsg178
Nsbag2
(g3
g4
Ntp2222
Rp2223
(dp2224
g8
g11
sg156
Nsg157
(dp2225
sg159
Nsg26
g29
sg160
(lp2226
I21
aI10
asg162
Nsg163
VShemot Rabbah 21:10
p2227
sg165
(lp2228
sg167
g118
sg168
Nsg169
(lp2229
I21
aI10
asg171
Nsg172
g2227
sg173
(lp2230
sg175
g60
sg176
Nsg177
Nsg178
Nsbag2
(g3
g4
Ntp2231
Rp2232
(dp2233
g8
g11
sg156
Nsg157
(dp2234
sg159
Nsg26
g29
sg160
(lp2235
I21
aI11
asg162
Nsg163
VShemot Rabbah 21:11
p2236
sg165
(lp2237
sg167
g118
sg168
Nsg169
(lp2238
I21
aI11
asg171
Nsg172
g2236
sg173
(lp2239
sg175
g60
sg176
Nsg177
Nsg178
Nsbag2
(g3
g4
Ntp2240
Rp2241
(dp2242
g8
g11
sg156
Nsg157
(dp2243
sg159
Nsg26
g29
sg160
(lp2244
I22
aI1
asg162
Nsg163
VShemot Rabbah 22:1
p2245
sg165
(lp2246
sg167
g118
sg168
Nsg169
(lp2247
I22
aI1
asg171
Nsg172
g2245
sg173
(lp2248
sg175
g60
sg176
Nsg177
Nsg178
Nsbag2
(g3
g4
Ntp2249
Rp2250
(dp2251
g8
g11
sg156
Nsg157
(dp2252
sg159
Nsg26
g29
sg160
(lp2253
I22
aI2
asg162
Nsg163
VShemot Rabbah 22:2
p2254
sg165
(lp2255
sg167
g118
sg168
Nsg169
(lp2256
I22
aI2
asg171
Nsg172
g2254
sg173
(lp2257
sg175
g60
sg176
Nsg177
Nsg178
Nsbag2
(g3
g4
Ntp2258
Rp2259
(dp2260
g8
g11
sg156
Nsg157
(dp2261
sg159
Nsg26
g29
sg160
(lp2262
I22
aI3
asg162
Nsg163
VShemot Rabbah 22:3
p2263
sg165
(lp2264
sg167
g118
sg168
Nsg169
(lp2265
I22
aI3
asg171
Nsg172
g2263
sg173
(lp2266
sg175
g60
sg176
Nsg177
Nsg178
Nsbag2
(g3
g4
Ntp2267
Rp2268
(dp2269
g8
g11
sg156
Nsg157
(dp2270
sg159
Nsg26
g29
sg160
(lp2271
I23
aI1
asg162
Nsg163
VShemot Rabbah 23:1
p2272
sg165
(lp2273
sg167
g118
sg168
Nsg169
(lp2274
I23
aI1
asg171
Nsg172
g2272
sg173
(lp2275
sg175
g60
sg176
Nsg177
Nsg178
Nsbag2
(g3
g4
Ntp2276
Rp2277
(dp2278
g8
g11
sg156
Nsg157
(dp2279
sg159
Nsg26
g29
sg160
(lp2280
I23
aI2
asg162
Nsg163
VShemot Rabbah 23:2
p2281
sg165
(lp2282
sg167
g118
sg168
Nsg169
(lp2283
I23
aI2
asg171
Nsg172
g2281
sg173
(lp2284
sg175
g60
sg176
Nsg177
Nsg178
Nsbag2
(g3
g4
Ntp2285
Rp2286
(dp2287
g8
g11
sg156
Nsg157
(dp2288
sg159
Nsg26
g29
sg160
(lp2289
I23
aI3
asg162
Nsg163
VShemot Rabbah 23:3
p2290
sg165
(lp2291
sg167
g118
sg168
Nsg169
(lp2292
I23
aI3
asg171
Nsg172
g2290
sg173
(lp2293
sg175
g60
sg176
Nsg177
Nsg178
Nsbag2
(g3
g4
Ntp2294
Rp2295
(dp2296
g8
g11
sg156
Nsg157
(dp2297
sg159
Nsg26
g29
sg160
(lp2298
I23
aI4
asg162
Nsg163
VShemot Rabbah 23:4
p2299
sg165
(lp2300
sg167
g118
sg168
Nsg169
(lp2301
I23
aI4
asg171
Nsg172
g2299
sg173
(lp2302
sg175
g60
sg176
Nsg177
Nsg178
Nsbag2
(g3
g4
Ntp2303
Rp2304
(dp2305
g8
g11
sg156
Nsg157
(dp2306
sg159
Nsg26
g29
sg160
(lp2307
I23
aI5
asg162
Nsg163
VShemot Rabbah 23:5
p2308
sg165
(lp2309
sg167
g118
sg168
Nsg169
(lp2310
I23
aI5
asg171
Nsg172
g2308
sg173
(lp2311
sg175
g60
sg176
Nsg177
Nsg178
Nsbag2
(g3
g4
Ntp2312
Rp2313
(dp2314
g8
g11
sg156
Nsg157
(dp2315
sg159
Nsg26
g29
sg160
(lp2316
I23
aI6
asg162
Nsg163
VShemot Rabbah 23:6
p2317
sg165
(lp2318
sg167
g118
sg168
Nsg169
(lp2319
I23
aI6
asg171
Nsg172
g2317
sg173
(lp2320
sg175
g60
sg176
Nsg177
Nsg178
Nsbag2
(g3
g4
Ntp2321
Rp2322
(dp2323
g8
g11
sg156
Nsg157
(dp2324
sg159
Nsg26
g29
sg160
(lp2325
I23
aI7
asg162
Nsg163
VShemot Rabbah 23:7
p2326
sg165
(lp2327
sg167
g118
sg168
Nsg169
(lp2328
I23
aI7
asg171
Nsg172
g2326
sg173
(lp2329
sg175
g60
sg176
Nsg177
Nsg178
Nsbag2
(g3
g4
Ntp2330
Rp2331
(dp2332
g8
g11
sg156
Nsg157
(dp2333
sg159
Nsg26
g29
sg160
(lp2334
I23
aI8
asg162
Nsg163
VShemot Rabbah 23:8
p2335
sg165
(lp2336
sg167
g118
sg168
Nsg169
(lp2337
I23
aI8
asg171
Nsg172
g2335
sg173
(lp2338
sg175
g60
sg176
Nsg177
Nsg178
Nsbag2
(g3
g4
Ntp2339
Rp2340
(dp2341
g8
g11
sg156
Nsg157
(dp2342
sg159
Nsg26
g29
sg160
(lp2343
I23
aI9
asg162
Nsg163
VShemot Rabbah 23:9
p2344
sg165
(lp2345
sg167
g118
sg168
Nsg169
(lp2346
I23
aI9
asg171
Nsg172
g2344
sg173
(lp2347
sg175
g60
sg176
Nsg177
Nsg178
Nsbag2
(g3
g4
Ntp2348
Rp2349
(dp2350
g8
g11
sg156
Nsg157
(dp2351
sg159
Nsg26
g29
sg160
(lp2352
I23
aI10
asg162
Nsg163
VShemot Rabbah 23:10
p2353
sg165
(lp2354
sg167
g118
sg168
Nsg169
(lp2355
I23
aI10
asg171
Nsg172
g2353
sg173
(lp2356
sg175
g60
sg176
Nsg177
Nsg178
Nsbag2
(g3
g4
Ntp2357
Rp2358
(dp2359
g8
g11
sg156
Nsg157
(dp2360
sg159
Nsg26
g29
sg160
(lp2361
I23
aI11
asg162
Nsg163
VShemot Rabbah 23:11
p2362
sg165
(lp2363
sg167
g118
sg168
Nsg169
(lp2364
I23
aI11
asg171
Nsg172
g2362
sg173
(lp2365
sg175
g60
sg176
Nsg177
Nsg178
Nsbag2
(g3
g4
Ntp2366
Rp2367
(dp2368
g8
g11
sg156
Nsg157
(dp2369
sg159
Nsg26
g29
sg160
(lp2370
I23
aI12
asg162
Nsg163
VShemot Rabbah 23:12
p2371
sg165
(lp2372
sg167
g118
sg168
Nsg169
(lp2373
I23
aI12
asg171
Nsg172
g2371
sg173
(lp2374
sg175
g60
sg176
Nsg177
Nsg178
Nsbag2
(g3
g4
Ntp2375
Rp2376
(dp2377
g8
g11
sg156
Nsg157
(dp2378
sg159
Nsg26
g29
sg160
(lp2379
I23
aI13
asg162
Nsg163
VShemot Rabbah 23:13
p2380
sg165
(lp2381
sg167
g118
sg168
Nsg169
(lp2382
I23
aI13
asg171
Nsg172
g2380
sg173
(lp2383
sg175
g60
sg176
Nsg177
Nsg178
Nsbag2
(g3
g4
Ntp2384
Rp2385
(dp2386
g8
g11
sg156
Nsg157
(dp2387
sg159
Nsg26
g29
sg160
(lp2388
I23
aI14
asg162
Nsg163
VShemot Rabbah 23:14
p2389
sg165
(lp2390
sg167
g118
sg168
Nsg169
(lp2391
I23
aI14
asg171
Nsg172
g2389
sg173
(lp2392
sg175
g60
sg176
Nsg177
Nsg178
Nsbag2
(g3
g4
Ntp2393
Rp2394
(dp2395
g8
g11
sg156
Nsg157
(dp2396
sg159
Nsg26
g29
sg160
(lp2397
I24
aI1
asg162
Nsg163
VShemot Rabbah 24:1
p2398
sg165
(lp2399
sg167
g118
sg168
Nsg169
(lp2400
I24
aI1
asg171
Nsg172
g2398
sg173
(lp2401
sg175
g60
sg176
Nsg177
Nsg178
Nsbag2
(g3
g4
Ntp2402
Rp2403
(dp2404
g8
g11
sg156
Nsg157
(dp2405
sg159
Nsg26
g29
sg160
(lp2406
I24
aI2
asg162
Nsg163
VShemot Rabbah 24:2
p2407
sg165
(lp2408
sg167
g118
sg168
Nsg169
(lp2409
I24
aI2
asg171
Nsg172
g2407
sg173
(lp2410
sg175
g60
sg176
Nsg177
Nsg178
Nsbag2
(g3
g4
Ntp2411
Rp2412
(dp2413
g8
g11
sg156
Nsg157
(dp2414
sg159
Nsg26
g29
sg160
(lp2415
I24
aI3
asg162
Nsg163
VShemot Rabbah 24:3
p2416
sg165
(lp2417
sg167
g118
sg168
Nsg169
(lp2418
I24
aI3
asg171
Nsg172
g2416
sg173
(lp2419
sg175
g60
sg176
Nsg177
Nsg178
Nsbag2
(g3
g4
Ntp2420
Rp2421
(dp2422
g8
g11
sg156
Nsg157
(dp2423
sg159
Nsg26
g29
sg160
(lp2424
I24
aI4
asg162
Nsg163
VShemot Rabbah 24:4
p2425
sg165
(lp2426
sg167
g118
sg168
Nsg169
(lp2427
I24
aI4
asg171
Nsg172
g2425
sg173
(lp2428
sg175
g60
sg176
Nsg177
Nsg178
Nsbag2
(g3
g4
Ntp2429
Rp2430
(dp2431
g8
g11
sg156
Nsg157
(dp2432
sg159
Nsg26
g29
sg160
(lp2433
I25
aI1
asg162
Nsg163
VShemot Rabbah 25:1
p2434
sg165
(lp2435
sg167
g118
sg168
Nsg169
(lp2436
I25
aI1
asg171
Nsg172
g2434
sg173
(lp2437
sg175
g60
sg176
Nsg177
Nsg178
Nsbag2
(g3
g4
Ntp2438
Rp2439
(dp2440
g8
g11
sg156
Nsg157
(dp2441
sg159
Nsg26
g29
sg160
(lp2442
I25
aI2
asg162
Nsg163
VShemot Rabbah 25:2
p2443
sg165
(lp2444
sg167
g118
sg168
Nsg169
(lp2445
I25
aI2
asg171
Nsg172
g2443
sg173
(lp2446
sg175
g60
sg176
Nsg177
Nsg178
Nsbag2
(g3
g4
Ntp2447
Rp2448
(dp2449
g8
g11
sg156
Nsg157
(dp2450
sg159
Nsg26
g29
sg160
(lp2451
I25
aI3
asg162
Nsg163
VShemot Rabbah 25:3
p2452
sg165
(lp2453
sg167
g118
sg168
Nsg169
(lp2454
I25
aI3
asg171
Nsg172
g2452
sg173
(lp2455
sg175
g60
sg176
Nsg177
Nsg178
Nsbag2
(g3
g4
Ntp2456
Rp2457
(dp2458
g8
g11
sg156
Nsg157
(dp2459
sg159
Nsg26
g29
sg160
(lp2460
I25
aI4
asg162
Nsg163
VShemot Rabbah 25:4
p2461
sg165
(lp2462
sg167
g118
sg168
Nsg169
(lp2463
I25
aI4
asg171
Nsg172
g2461
sg173
(lp2464
sg175
g60
sg176
Nsg177
Nsg178
Nsbag2
(g3
g4
Ntp2465
Rp2466
(dp2467
g8
g11
sg156
Nsg157
(dp2468
sg159
Nsg26
g29
sg160
(lp2469
I25
aI5
asg162
Nsg163
VShemot Rabbah 25:5
p2470
sg165
(lp2471
sg167
g118
sg168
Nsg169
(lp2472
I25
aI5
asg171
Nsg172
g2470
sg173
(lp2473
sg175
g60
sg176
Nsg177
Nsg178
Nsbag2
(g3
g4
Ntp2474
Rp2475
(dp2476
g8
g11
sg156
Nsg157
(dp2477
sg159
Nsg26
g29
sg160
(lp2478
I25
aI6
asg162
Nsg163
VShemot Rabbah 25:6
p2479
sg165
(lp2480
sg167
g118
sg168
Nsg169
(lp2481
I25
aI6
asg171
Nsg172
g2479
sg173
(lp2482
sg175
g60
sg176
Nsg177
Nsg178
Nsbag2
(g3
g4
Ntp2483
Rp2484
(dp2485
g8
g11
sg156
Nsg157
(dp2486
sg159
Nsg26
g29
sg160
(lp2487
I25
aI7
asg162
Nsg163
VShemot Rabbah 25:7
p2488
sg165
(lp2489
sg167
g118
sg168
Nsg169
(lp2490
I25
aI7
asg171
Nsg172
g2488
sg173
(lp2491
sg175
g60
sg176
Nsg177
Nsg178
Nsbag2
(g3
g4
Ntp2492
Rp2493
(dp2494
g8
g11
sg156
Nsg157
(dp2495
sg159
Nsg26
g29
sg160
(lp2496
I25
aI8
asg162
Nsg163
VShemot Rabbah 25:8
p2497
sg165
(lp2498
sg167
g118
sg168
Nsg169
(lp2499
I25
aI8
asg171
Nsg172
g2497
sg173
(lp2500
sg175
g60
sg176
Nsg177
Nsg178
Nsbag2
(g3
g4
Ntp2501
Rp2502
(dp2503
g8
g11
sg156
Nsg157
(dp2504
sg159
Nsg26
g29
sg160
(lp2505
I25
aI9
asg162
Nsg163
VShemot Rabbah 25:9
p2506
sg165
(lp2507
sg167
g118
sg168
Nsg169
(lp2508
I25
aI9
asg171
Nsg172
g2506
sg173
(lp2509
sg175
g60
sg176
Nsg177
Nsg178
Nsbag2
(g3
g4
Ntp2510
Rp2511
(dp2512
g8
g11
sg156
Nsg157
(dp2513
sg159
Nsg26
g29
sg160
(lp2514
I25
aI10
asg162
Nsg163
VShemot Rabbah 25:10
p2515
sg165
(lp2516
sg167
g118
sg168
Nsg169
(lp2517
I25
aI10
asg171
Nsg172
g2515
sg173
(lp2518
sg175
g60
sg176
Nsg177
Nsg178
Nsbag2
(g3
g4
Ntp2519
Rp2520
(dp2521
g8
g11
sg156
Nsg157
(dp2522
sg159
Nsg26
g29
sg160
(lp2523
I25
aI11
asg162
Nsg163
VShemot Rabbah 25:11
p2524
sg165
(lp2525
sg167
g118
sg168
Nsg169
(lp2526
I25
aI11
asg171
Nsg172
g2524
sg173
(lp2527
sg175
g60
sg176
Nsg177
Nsg178
Nsbag2
(g3
g4
Ntp2528
Rp2529
(dp2530
g8
g11
sg156
Nsg157
(dp2531
sg159
Nsg26
g29
sg160
(lp2532
I25
aI12
asg162
Nsg163
VShemot Rabbah 25:12
p2533
sg165
(lp2534
sg167
g118
sg168
Nsg169
(lp2535
I25
aI12
asg171
Nsg172
g2533
sg173
(lp2536
sg175
g60
sg176
Nsg177
Nsg178
Nsbag2
(g3
g4
Ntp2537
Rp2538
(dp2539
g8
g11
sg156
Nsg157
(dp2540
sg159
Nsg26
g29
sg160
(lp2541
I26
aI1
asg162
Nsg163
VShemot Rabbah 26:1
p2542
sg165
(lp2543
sg167
g118
sg168
Nsg169
(lp2544
I26
aI1
asg171
Nsg172
g2542
sg173
(lp2545
sg175
g60
sg176
Nsg177
Nsg178
Nsbag2
(g3
g4
Ntp2546
Rp2547
(dp2548
g8
g11
sg156
Nsg157
(dp2549
sg159
Nsg26
g29
sg160
(lp2550
I26
aI2
asg162
Nsg163
VShemot Rabbah 26:2
p2551
sg165
(lp2552
sg167
g118
sg168
Nsg169
(lp2553
I26
aI2
asg171
Nsg172
g2551
sg173
(lp2554
sg175
g60
sg176
Nsg177
Nsg178
Nsbag2
(g3
g4
Ntp2555
Rp2556
(dp2557
g8
g11
sg156
Nsg157
(dp2558
sg159
Nsg26
g29
sg160
(lp2559
I26
aI3
asg162
Nsg163
VShemot Rabbah 26:3
p2560
sg165
(lp2561
sg167
g118
sg168
Nsg169
(lp2562
I26
aI3
asg171
Nsg172
g2560
sg173
(lp2563
sg175
g60
sg176
Nsg177
Nsg178
Nsbag2
(g3
g4
Ntp2564
Rp2565
(dp2566
g8
g11
sg156
Nsg157
(dp2567
sg159
Nsg26
g29
sg160
(lp2568
I27
aI1
asg162
Nsg163
VShemot Rabbah 27:1
p2569
sg165
(lp2570
sg167
g118
sg168
Nsg169
(lp2571
I27
aI1
asg171
Nsg172
g2569
sg173
(lp2572
sg175
g60
sg176
Nsg177
Nsg178
Nsbag2
(g3
g4
Ntp2573
Rp2574
(dp2575
g8
g11
sg156
Nsg157
(dp2576
sg159
Nsg26
g29
sg160
(lp2577
I27
aI2
asg162
Nsg163
VShemot Rabbah 27:2
p2578
sg165
(lp2579
sg167
g118
sg168
Nsg169
(lp2580
I27
aI2
asg171
Nsg172
g2578
sg173
(lp2581
sg175
g60
sg176
Nsg177
Nsg178
Nsbag2
(g3
g4
Ntp2582
Rp2583
(dp2584
g8
g11
sg156
Nsg157
(dp2585
sg159
Nsg26
g29
sg160
(lp2586
I27
aI3
asg162
Nsg163
VShemot Rabbah 27:3
p2587
sg165
(lp2588
sg167
g118
sg168
Nsg169
(lp2589
I27
aI3
asg171
Nsg172
g2587
sg173
(lp2590
sg175
g60
sg176
Nsg177
Nsg178
Nsbag2
(g3
g4
Ntp2591
Rp2592
(dp2593
g8
g11
sg156
Nsg157
(dp2594
sg159
Nsg26
g29
sg160
(lp2595
I27
aI4
asg162
Nsg163
VShemot Rabbah 27:4
p2596
sg165
(lp2597
sg167
g118
sg168
Nsg169
(lp2598
I27
aI4
asg171
Nsg172
g2596
sg173
(lp2599
sg175
g60
sg176
Nsg177
Nsg178
Nsbag2
(g3
g4
Ntp2600
Rp2601
(dp2602
g8
g11
sg156
Nsg157
(dp2603
sg159
Nsg26
g29
sg160
(lp2604
I27
aI5
asg162
Nsg163
VShemot Rabbah 27:5
p2605
sg165
(lp2606
sg167
g118
sg168
Nsg169
(lp2607
I27
aI5
asg171
Nsg172
g2605
sg173
(lp2608
sg175
g60
sg176
Nsg177
Nsg178
Nsbag2
(g3
g4
Ntp2609
Rp2610
(dp2611
g8
g11
sg156
Nsg157
(dp2612
sg159
Nsg26
g29
sg160
(lp2613
I27
aI6
asg162
Nsg163
VShemot Rabbah 27:6
p2614
sg165
(lp2615
sg167
g118
sg168
Nsg169
(lp2616
I27
aI6
asg171
Nsg172
g2614
sg173
(lp2617
sg175
g60
sg176
Nsg177
Nsg178
Nsbag2
(g3
g4
Ntp2618
Rp2619
(dp2620
g8
g11
sg156
Nsg157
(dp2621
sg159
Nsg26
g29
sg160
(lp2622
I27
aI7
asg162
Nsg163
VShemot Rabbah 27:7
p2623
sg165
(lp2624
sg167
g118
sg168
Nsg169
(lp2625
I27
aI7
asg171
Nsg172
g2623
sg173
(lp2626
sg175
g60
sg176
Nsg177
Nsg178
Nsbag2
(g3
g4
Ntp2627
Rp2628
(dp2629
g8
g11
sg156
Nsg157
(dp2630
sg159
Nsg26
g29
sg160
(lp2631
I27
aI8
asg162
Nsg163
VShemot Rabbah 27:8
p2632
sg165
(lp2633
sg167
g118
sg168
Nsg169
(lp2634
I27
aI8
asg171
Nsg172
g2632
sg173
(lp2635
sg175
g60
sg176
Nsg177
Nsg178
Nsbag2
(g3
g4
Ntp2636
Rp2637
(dp2638
g8
g11
sg156
Nsg157
(dp2639
sg159
Nsg26
g29
sg160
(lp2640
I27
aI9
asg162
Nsg163
VShemot Rabbah 27:9
p2641
sg165
(lp2642
sg167
g118
sg168
Nsg169
(lp2643
I27
aI9
asg171
Nsg172
g2641
sg173
(lp2644
sg175
g60
sg176
Nsg177
Nsg178
Nsbag2
(g3
g4
Ntp2645
Rp2646
(dp2647
g8
g11
sg156
Nsg157
(dp2648
sg159
Nsg26
g29
sg160
(lp2649
I28
aI1
asg162
Nsg163
VShemot Rabbah 28:1
p2650
sg165
(lp2651
sg167
g118
sg168
Nsg169
(lp2652
I28
aI1
asg171
Nsg172
g2650
sg173
(lp2653
sg175
g60
sg176
Nsg177
Nsg178
Nsbag2
(g3
g4
Ntp2654
Rp2655
(dp2656
g8
g11
sg156
Nsg157
(dp2657
sg159
Nsg26
g29
sg160
(lp2658
I28
aI2
asg162
Nsg163
VShemot Rabbah 28:2
p2659
sg165
(lp2660
sg167
g118
sg168
Nsg169
(lp2661
I28
aI2
asg171
Nsg172
g2659
sg173
(lp2662
sg175
g60
sg176
Nsg177
Nsg178
Nsbag2
(g3
g4
Ntp2663
Rp2664
(dp2665
g8
g11
sg156
Nsg157
(dp2666
sg159
Nsg26
g29
sg160
(lp2667
I28
aI3
asg162
Nsg163
VShemot Rabbah 28:3
p2668
sg165
(lp2669
sg167
g118
sg168
Nsg169
(lp2670
I28
aI3
asg171
Nsg172
g2668
sg173
(lp2671
sg175
g60
sg176
Nsg177
Nsg178
Nsbag2
(g3
g4
Ntp2672
Rp2673
(dp2674
g8
g11
sg156
Nsg157
(dp2675
sg159
Nsg26
g29
sg160
(lp2676
I28
aI4
asg162
Nsg163
VShemot Rabbah 28:4
p2677
sg165
(lp2678
sg167
g118
sg168
Nsg169
(lp2679
I28
aI4
asg171
Nsg172
g2677
sg173
(lp2680
sg175
g60
sg176
Nsg177
Nsg178
Nsbag2
(g3
g4
Ntp2681
Rp2682
(dp2683
g8
g11
sg156
Nsg157
(dp2684
sg159
Nsg26
g29
sg160
(lp2685
I28
aI5
asg162
Nsg163
VShemot Rabbah 28:5
p2686
sg165
(lp2687
sg167
g118
sg168
Nsg169
(lp2688
I28
aI5
asg171
Nsg172
g2686
sg173
(lp2689
sg175
g60
sg176
Nsg177
Nsg178
Nsbag2
(g3
g4
Ntp2690
Rp2691
(dp2692
g8
g11
sg156
Nsg157
(dp2693
sg159
Nsg26
g29
sg160
(lp2694
I28
aI6
asg162
Nsg163
VShemot Rabbah 28:6
p2695
sg165
(lp2696
sg167
g118
sg168
Nsg169
(lp2697
I28
aI6
asg171
Nsg172
g2695
sg173
(lp2698
sg175
g60
sg176
Nsg177
Nsg178
Nsbag2
(g3
g4
Ntp2699
Rp2700
(dp2701
g8
g11
sg156
Nsg157
(dp2702
sg159
Nsg26
g29
sg160
(lp2703
I29
aI1
asg162
Nsg163
VShemot Rabbah 29:1
p2704
sg165
(lp2705
sg167
g118
sg168
Nsg169
(lp2706
I29
aI1
asg171
Nsg172
g2704
sg173
(lp2707
sg175
g60
sg176
Nsg177
Nsg178
Nsbag2
(g3
g4
Ntp2708
Rp2709
(dp2710
g8
g11
sg156
Nsg157
(dp2711
sg159
Nsg26
g29
sg160
(lp2712
I29
aI2
asg162
Nsg163
VShemot Rabbah 29:2
p2713
sg165
(lp2714
sg167
g118
sg168
Nsg169
(lp2715
I29
aI2
asg171
Nsg172
g2713
sg173
(lp2716
sg175
g60
sg176
Nsg177
Nsg178
Nsbag2
(g3
g4
Ntp2717
Rp2718
(dp2719
g8
g11
sg156
Nsg157
(dp2720
sg159
Nsg26
g29
sg160
(lp2721
I29
aI3
asg162
Nsg163
VShemot Rabbah 29:3
p2722
sg165
(lp2723
sg167
g118
sg168
Nsg169
(lp2724
I29
aI3
asg171
Nsg172
g2722
sg173
(lp2725
sg175
g60
sg176
Nsg177
Nsg178
Nsbag2
(g3
g4
Ntp2726
Rp2727
(dp2728
g8
g11
sg156
Nsg157
(dp2729
sg159
Nsg26
g29
sg160
(lp2730
I29
aI4
asg162
Nsg163
VShemot Rabbah 29:4
p2731
sg165
(lp2732
sg167
g118
sg168
Nsg169
(lp2733
I29
aI4
asg171
Nsg172
g2731
sg173
(lp2734
sg175
g60
sg176
Nsg177
Nsg178
Nsbag2
(g3
g4
Ntp2735
Rp2736
(dp2737
g8
g11
sg156
Nsg157
(dp2738
sg159
Nsg26
g29
sg160
(lp2739
I29
aI5
asg162
Nsg163
VShemot Rabbah 29:5
p2740
sg165
(lp2741
sg167
g118
sg168
Nsg169
(lp2742
I29
aI5
asg171
Nsg172
g2740
sg173
(lp2743
sg175
g60
sg176
Nsg177
Nsg178
Nsbag2
(g3
g4
Ntp2744
Rp2745
(dp2746
g8
g11
sg156
Nsg157
(dp2747
sg159
Nsg26
g29
sg160
(lp2748
I29
aI6
asg162
Nsg163
VShemot Rabbah 29:6
p2749
sg165
(lp2750
sg167
g118
sg168
Nsg169
(lp2751
I29
aI6
asg171
Nsg172
g2749
sg173
(lp2752
sg175
g60
sg176
Nsg177
Nsg178
Nsbag2
(g3
g4
Ntp2753
Rp2754
(dp2755
g8
g11
sg156
Nsg157
(dp2756
sg159
Nsg26
g29
sg160
(lp2757
I29
aI7
asg162
Nsg163
VShemot Rabbah 29:7
p2758
sg165
(lp2759
sg167
g118
sg168
Nsg169
(lp2760
I29
aI7
asg171
Nsg172
g2758
sg173
(lp2761
sg175
g60
sg176
Nsg177
Nsg178
Nsbag2
(g3
g4
Ntp2762
Rp2763
(dp2764
g8
g11
sg156
Nsg157
(dp2765
sg159
Nsg26
g29
sg160
(lp2766
I29
aI8
asg162
Nsg163
VShemot Rabbah 29:8
p2767
sg165
(lp2768
sg167
g118
sg168
Nsg169
(lp2769
I29
aI8
asg171
Nsg172
g2767
sg173
(lp2770
sg175
g60
sg176
Nsg177
Nsg178
Nsbag2
(g3
g4
Ntp2771
Rp2772
(dp2773
g8
g11
sg156
Nsg157
(dp2774
sg159
Nsg26
g29
sg160
(lp2775
I29
aI9
asg162
Nsg163
VShemot Rabbah 29:9
p2776
sg165
(lp2777
sg167
g118
sg168
Nsg169
(lp2778
I29
aI9
asg171
Nsg172
g2776
sg173
(lp2779
sg175
g60
sg176
Nsg177
Nsg178
Nsbag2
(g3
g4
Ntp2780
Rp2781
(dp2782
g8
g11
sg156
Nsg157
(dp2783
sg159
Nsg26
g29
sg160
(lp2784
I30
aI1
asg162
Nsg163
VShemot Rabbah 30:1
p2785
sg165
(lp2786
sg167
g118
sg168
Nsg169
(lp2787
I30
aI1
asg171
Nsg172
g2785
sg173
(lp2788
sg175
g60
sg176
Nsg177
Nsg178
Nsbag2
(g3
g4
Ntp2789
Rp2790
(dp2791
g8
g11
sg156
Nsg157
(dp2792
sg159
Nsg26
g29
sg160
(lp2793
I30
aI2
asg162
Nsg163
VShemot Rabbah 30:2
p2794
sg165
(lp2795
sg167
g118
sg168
Nsg169
(lp2796
I30
aI2
asg171
Nsg172
g2794
sg173
(lp2797
sg175
g60
sg176
Nsg177
Nsg178
Nsbag2
(g3
g4
Ntp2798
Rp2799
(dp2800
g8
g11
sg156
Nsg157
(dp2801
sg159
Nsg26
g29
sg160
(lp2802
I30
aI3
asg162
Nsg163
VShemot Rabbah 30:3
p2803
sg165
(lp2804
sg167
g118
sg168
Nsg169
(lp2805
I30
aI3
asg171
Nsg172
g2803
sg173
(lp2806
sg175
g60
sg176
Nsg177
Nsg178
Nsbag2
(g3
g4
Ntp2807
Rp2808
(dp2809
g8
g11
sg156
Nsg157
(dp2810
sg159
Nsg26
g29
sg160
(lp2811
I30
aI4
asg162
Nsg163
VShemot Rabbah 30:4
p2812
sg165
(lp2813
sg167
g118
sg168
Nsg169
(lp2814
I30
aI4
asg171
Nsg172
g2812
sg173
(lp2815
sg175
g60
sg176
Nsg177
Nsg178
Nsbag2
(g3
g4
Ntp2816
Rp2817
(dp2818
g8
g11
sg156
Nsg157
(dp2819
sg159
Nsg26
g29
sg160
(lp2820
I30
aI5
asg162
Nsg163
VShemot Rabbah 30:5
p2821
sg165
(lp2822
sg167
g118
sg168
Nsg169
(lp2823
I30
aI5
asg171
Nsg172
g2821
sg173
(lp2824
sg175
g60
sg176
Nsg177
Nsg178
Nsbag2
(g3
g4
Ntp2825
Rp2826
(dp2827
g8
g11
sg156
Nsg157
(dp2828
sg159
Nsg26
g29
sg160
(lp2829
I30
aI6
asg162
Nsg163
VShemot Rabbah 30:6
p2830
sg165
(lp2831
sg167
g118
sg168
Nsg169
(lp2832
I30
aI6
asg171
Nsg172
g2830
sg173
(lp2833
sg175
g60
sg176
Nsg177
Nsg178
Nsbag2
(g3
g4
Ntp2834
Rp2835
(dp2836
g8
g11
sg156
Nsg157
(dp2837
sg159
Nsg26
g29
sg160
(lp2838
I30
aI7
asg162
Nsg163
VShemot Rabbah 30:7
p2839
sg165
(lp2840
sg167
g118
sg168
Nsg169
(lp2841
I30
aI7
asg171
Nsg172
g2839
sg173
(lp2842
sg175
g60
sg176
Nsg177
Nsg178
Nsbag2
(g3
g4
Ntp2843
Rp2844
(dp2845
g8
g11
sg156
Nsg157
(dp2846
sg159
Nsg26
g29
sg160
(lp2847
I30
aI8
asg162
Nsg163
VShemot Rabbah 30:8
p2848
sg165
(lp2849
sg167
g118
sg168
Nsg169
(lp2850
I30
aI8
asg171
Nsg172
g2848
sg173
(lp2851
sg175
g60
sg176
Nsg177
Nsg178
Nsbag2
(g3
g4
Ntp2852
Rp2853
(dp2854
g8
g11
sg156
Nsg157
(dp2855
sg159
Nsg26
g29
sg160
(lp2856
I30
aI9
asg162
Nsg163
VShemot Rabbah 30:9
p2857
sg165
(lp2858
sg167
g118
sg168
Nsg169
(lp2859
I30
aI9
asg171
Nsg172
g2857
sg173
(lp2860
sg175
g60
sg176
Nsg177
Nsg178
Nsbag2
(g3
g4
Ntp2861
Rp2862
(dp2863
g8
g11
sg156
Nsg157
(dp2864
sg159
Nsg26
g29
sg160
(lp2865
I30
aI10
asg162
Nsg163
VShemot Rabbah 30:10
p2866
sg165
(lp2867
sg167
g118
sg168
Nsg169
(lp2868
I30
aI10
asg171
Nsg172
g2866
sg173
(lp2869
sg175
g60
sg176
Nsg177
Nsg178
Nsbag2
(g3
g4
Ntp2870
Rp2871
(dp2872
g8
g11
sg156
Nsg157
(dp2873
sg159
Nsg26
g29
sg160
(lp2874
I30
aI11
asg162
Nsg163
VShemot Rabbah 30:11
p2875
sg165
(lp2876
sg167
g118
sg168
Nsg169
(lp2877
I30
aI11
asg171
Nsg172
g2875
sg173
(lp2878
sg175
g60
sg176
Nsg177
Nsg178
Nsbag2
(g3
g4
Ntp2879
Rp2880
(dp2881
g8
g11
sg156
Nsg157
(dp2882
sg159
Nsg26
g29
sg160
(lp2883
I30
aI12
asg162
Nsg163
VShemot Rabbah 30:12
p2884
sg165
(lp2885
sg167
g118
sg168
Nsg169
(lp2886
I30
aI12
asg171
Nsg172
g2884
sg173
(lp2887
sg175
g60
sg176
Nsg177
Nsg178
Nsbag2
(g3
g4
Ntp2888
Rp2889
(dp2890
g8
g11
sg156
Nsg157
(dp2891
sg159
Nsg26
g29
sg160
(lp2892
I30
aI13
asg162
Nsg163
VShemot Rabbah 30:13
p2893
sg165
(lp2894
sg167
g118
sg168
Nsg169
(lp2895
I30
aI13
asg171
Nsg172
g2893
sg173
(lp2896
sg175
g60
sg176
Nsg177
Nsg178
Nsbag2
(g3
g4
Ntp2897
Rp2898
(dp2899
g8
g11
sg156
Nsg157
(dp2900
sg159
Nsg26
g29
sg160
(lp2901
I30
aI14
asg162
Nsg163
VShemot Rabbah 30:14
p2902
sg165
(lp2903
sg167
g118
sg168
Nsg169
(lp2904
I30
aI14
asg171
Nsg172
g2902
sg173
(lp2905
sg175
g60
sg176
Nsg177
Nsg178
Nsbag2
(g3
g4
Ntp2906
Rp2907
(dp2908
g8
g11
sg156
Nsg157
(dp2909
sg159
Nsg26
g29
sg160
(lp2910
I30
aI15
asg162
Nsg163
VShemot Rabbah 30:15
p2911
sg165
(lp2912
sg167
g118
sg168
Nsg169
(lp2913
I30
aI15
asg171
Nsg172
g2911
sg173
(lp2914
sg175
g60
sg176
Nsg177
Nsg178
Nsbag2
(g3
g4
Ntp2915
Rp2916
(dp2917
g8
g11
sg156
Nsg157
(dp2918
sg159
Nsg26
g29
sg160
(lp2919
I30
aI16
asg162
Nsg163
VShemot Rabbah 30:16
p2920
sg165
(lp2921
sg167
g118
sg168
Nsg169
(lp2922
I30
aI16
asg171
Nsg172
g2920
sg173
(lp2923
sg175
g60
sg176
Nsg177
Nsg178
Nsbag2
(g3
g4
Ntp2924
Rp2925
(dp2926
g8
g11
sg156
Nsg157
(dp2927
sg159
Nsg26
g29
sg160
(lp2928
I30
aI17
asg162
Nsg163
VShemot Rabbah 30:17
p2929
sg165
(lp2930
sg167
g118
sg168
Nsg169
(lp2931
I30
aI17
asg171
Nsg172
g2929
sg173
(lp2932
sg175
g60
sg176
Nsg177
Nsg178
Nsbag2
(g3
g4
Ntp2933
Rp2934
(dp2935
g8
g11
sg156
Nsg157
(dp2936
sg159
Nsg26
g29
sg160
(lp2937
I30
aI18
asg162
Nsg163
VShemot Rabbah 30:18
p2938
sg165
(lp2939
sg167
g118
sg168
Nsg169
(lp2940
I30
aI18
asg171
Nsg172
g2938
sg173
(lp2941
sg175
g60
sg176
Nsg177
Nsg178
Nsbag2
(g3
g4
Ntp2942
Rp2943
(dp2944
g8
g11
sg156
Nsg157
(dp2945
sg159
Nsg26
g29
sg160
(lp2946
I30
aI19
asg162
Nsg163
VShemot Rabbah 30:19
p2947
sg165
(lp2948
sg167
g118
sg168
Nsg169
(lp2949
I30
aI19
asg171
Nsg172
g2947
sg173
(lp2950
sg175
g60
sg176
Nsg177
Nsg178
Nsbag2
(g3
g4
Ntp2951
Rp2952
(dp2953
g8
g11
sg156
Nsg157
(dp2954
sg159
Nsg26
g29
sg160
(lp2955
I30
aI20
asg162
Nsg163
VShemot Rabbah 30:20
p2956
sg165
(lp2957
sg167
g118
sg168
Nsg169
(lp2958
I30
aI20
asg171
Nsg172
g2956
sg173
(lp2959
sg175
g60
sg176
Nsg177
Nsg178
Nsbag2
(g3
g4
Ntp2960
Rp2961
(dp2962
g8
g11
sg156
Nsg157
(dp2963
sg159
Nsg26
g29
sg160
(lp2964
I30
aI21
asg162
Nsg163
VShemot Rabbah 30:21
p2965
sg165
(lp2966
sg167
g118
sg168
Nsg169
(lp2967
I30
aI21
asg171
Nsg172
g2965
sg173
(lp2968
sg175
g60
sg176
Nsg177
Nsg178
Nsbag2
(g3
g4
Ntp2969
Rp2970
(dp2971
g8
g11
sg156
Nsg157
(dp2972
sg159
Nsg26
g29
sg160
(lp2973
I30
aI22
asg162
Nsg163
VShemot Rabbah 30:22
p2974
sg165
(lp2975
sg167
g118
sg168
Nsg169
(lp2976
I30
aI22
asg171
Nsg172
g2974
sg173
(lp2977
sg175
g60
sg176
Nsg177
Nsg178
Nsbag2
(g3
g4
Ntp2978
Rp2979
(dp2980
g8
g11
sg156
Nsg157
(dp2981
sg159
Nsg26
g29
sg160
(lp2982
I30
aI23
asg162
Nsg163
VShemot Rabbah 30:23
p2983
sg165
(lp2984
sg167
g118
sg168
Nsg169
(lp2985
I30
aI23
asg171
Nsg172
g2983
sg173
(lp2986
sg175
g60
sg176
Nsg177
Nsg178
Nsbag2
(g3
g4
Ntp2987
Rp2988
(dp2989
g8
g11
sg156
Nsg157
(dp2990
sg159
Nsg26
g29
sg160
(lp2991
I30
aI24
asg162
Nsg163
VShemot Rabbah 30:24
p2992
sg165
(lp2993
sg167
g118
sg168
Nsg169
(lp2994
I30
aI24
asg171
Nsg172
g2992
sg173
(lp2995
sg175
g60
sg176
Nsg177
Nsg178
Nsbag2
(g3
g4
Ntp2996
Rp2997
(dp2998
g8
g11
sg156
Nsg157
(dp2999
sg159
Nsg26
g29
sg160
(lp3000
I31
aI1
asg162
Nsg163
VShemot Rabbah 31:1
p3001
sg165
(lp3002
sg167
g118
sg168
Nsg169
(lp3003
I31
aI1
asg171
Nsg172
g3001
sg173
(lp3004
sg175
g60
sg176
Nsg177
Nsg178
Nsbag2
(g3
g4
Ntp3005
Rp3006
(dp3007
g8
g11
sg156
Nsg157
(dp3008
sg159
Nsg26
g29
sg160
(lp3009
I31
aI2
asg162
Nsg163
VShemot Rabbah 31:2
p3010
sg165
(lp3011
sg167
g118
sg168
Nsg169
(lp3012
I31
aI2
asg171
Nsg172
g3010
sg173
(lp3013
sg175
g60
sg176
Nsg177
Nsg178
Nsbag2
(g3
g4
Ntp3014
Rp3015
(dp3016
g8
g11
sg156
Nsg157
(dp3017
sg159
Nsg26
g29
sg160
(lp3018
I31
aI3
asg162
Nsg163
VShemot Rabbah 31:3
p3019
sg165
(lp3020
sg167
g118
sg168
Nsg169
(lp3021
I31
aI3
asg171
Nsg172
g3019
sg173
(lp3022
sg175
g60
sg176
Nsg177
Nsg178
Nsbag2
(g3
g4
Ntp3023
Rp3024
(dp3025
g8
g11
sg156
Nsg157
(dp3026
sg159
Nsg26
g29
sg160
(lp3027
I31
aI4
asg162
Nsg163
VShemot Rabbah 31:4
p3028
sg165
(lp3029
sg167
g118
sg168
Nsg169
(lp3030
I31
aI4
asg171
Nsg172
g3028
sg173
(lp3031
sg175
g60
sg176
Nsg177
Nsg178
Nsbag2
(g3
g4
Ntp3032
Rp3033
(dp3034
g8
g11
sg156
Nsg157
(dp3035
sg159
Nsg26
g29
sg160
(lp3036
I31
aI5
asg162
Nsg163
VShemot Rabbah 31:5
p3037
sg165
(lp3038
sg167
g118
sg168
Nsg169
(lp3039
I31
aI5
asg171
Nsg172
g3037
sg173
(lp3040
sg175
g60
sg176
Nsg177
Nsg178
Nsbag2
(g3
g4
Ntp3041
Rp3042
(dp3043
g8
g11
sg156
Nsg157
(dp3044
sg159
Nsg26
g29
sg160
(lp3045
I31
aI6
asg162
Nsg163
VShemot Rabbah 31:6
p3046
sg165
(lp3047
sg167
g118
sg168
Nsg169
(lp3048
I31
aI6
asg171
Nsg172
g3046
sg173
(lp3049
sg175
g60
sg176
Nsg177
Nsg178
Nsbag2
(g3
g4
Ntp3050
Rp3051
(dp3052
g8
g11
sg156
Nsg157
(dp3053
sg159
Nsg26
g29
sg160
(lp3054
I31
aI7
asg162
Nsg163
VShemot Rabbah 31:7
p3055
sg165
(lp3056
sg167
g118
sg168
Nsg169
(lp3057
I31
aI7
asg171
Nsg172
g3055
sg173
(lp3058
sg175
g60
sg176
Nsg177
Nsg178
Nsbag2
(g3
g4
Ntp3059
Rp3060
(dp3061
g8
g11
sg156
Nsg157
(dp3062
sg159
Nsg26
g29
sg160
(lp3063
I31
aI8
asg162
Nsg163
VShemot Rabbah 31:8
p3064
sg165
(lp3065
sg167
g118
sg168
Nsg169
(lp3066
I31
aI8
asg171
Nsg172
g3064
sg173
(lp3067
sg175
g60
sg176
Nsg177
Nsg178
Nsbag2
(g3
g4
Ntp3068
Rp3069
(dp3070
g8
g11
sg156
Nsg157
(dp3071
sg159
Nsg26
g29
sg160
(lp3072
I31
aI9
asg162
Nsg163
VShemot Rabbah 31:9
p3073
sg165
(lp3074
sg167
g118
sg168
Nsg169
(lp3075
I31
aI9
asg171
Nsg172
g3073
sg173
(lp3076
sg175
g60
sg176
Nsg177
Nsg178
Nsbag2
(g3
g4
Ntp3077
Rp3078
(dp3079
g8
g11
sg156
Nsg157
(dp3080
sg159
Nsg26
g29
sg160
(lp3081
I31
aI10
asg162
Nsg163
VShemot Rabbah 31:10
p3082
sg165
(lp3083
sg167
g118
sg168
Nsg169
(lp3084
I31
aI10
asg171
Nsg172
g3082
sg173
(lp3085
sg175
g60
sg176
Nsg177
Nsg178
Nsbag2
(g3
g4
Ntp3086
Rp3087
(dp3088
g8
g11
sg156
Nsg157
(dp3089
sg159
Nsg26
g29
sg160
(lp3090
I31
aI11
asg162
Nsg163
VShemot Rabbah 31:11
p3091
sg165
(lp3092
sg167
g118
sg168
Nsg169
(lp3093
I31
aI11
asg171
Nsg172
g3091
sg173
(lp3094
sg175
g60
sg176
Nsg177
Nsg178
Nsbag2
(g3
g4
Ntp3095
Rp3096
(dp3097
g8
g11
sg156
Nsg157
(dp3098
sg159
Nsg26
g29
sg160
(lp3099
I31
aI12
asg162
Nsg163
VShemot Rabbah 31:12
p3100
sg165
(lp3101
sg167
g118
sg168
Nsg169
(lp3102
I31
aI12
asg171
Nsg172
g3100
sg173
(lp3103
sg175
g60
sg176
Nsg177
Nsg178
Nsbag2
(g3
g4
Ntp3104
Rp3105
(dp3106
g8
g11
sg156
Nsg157
(dp3107
sg159
Nsg26
g29
sg160
(lp3108
I31
aI13
asg162
Nsg163
VShemot Rabbah 31:13
p3109
sg165
(lp3110
sg167
g118
sg168
Nsg169
(lp3111
I31
aI13
asg171
Nsg172
g3109
sg173
(lp3112
sg175
g60
sg176
Nsg177
Nsg178
Nsbag2
(g3
g4
Ntp3113
Rp3114
(dp3115
g8
g11
sg156
Nsg157
(dp3116
sg159
Nsg26
g29
sg160
(lp3117
I31
aI14
asg162
Nsg163
VShemot Rabbah 31:14
p3118
sg165
(lp3119
sg167
g118
sg168
Nsg169
(lp3120
I31
aI14
asg171
Nsg172
g3118
sg173
(lp3121
sg175
g60
sg176
Nsg177
Nsg178
Nsbag2
(g3
g4
Ntp3122
Rp3123
(dp3124
g8
g11
sg156
Nsg157
(dp3125
sg159
Nsg26
g29
sg160
(lp3126
I31
aI15
asg162
Nsg163
VShemot Rabbah 31:15
p3127
sg165
(lp3128
sg167
g118
sg168
Nsg169
(lp3129
I31
aI15
asg171
Nsg172
g3127
sg173
(lp3130
sg175
g60
sg176
Nsg177
Nsg178
Nsbag2
(g3
g4
Ntp3131
Rp3132
(dp3133
g8
g11
sg156
Nsg157
(dp3134
sg159
Nsg26
g29
sg160
(lp3135
I31
aI16
asg162
Nsg163
VShemot Rabbah 31:16
p3136
sg165
(lp3137
sg167
g118
sg168
Nsg169
(lp3138
I31
aI16
asg171
Nsg172
g3136
sg173
(lp3139
sg175
g60
sg176
Nsg177
Nsg178
Nsbag2
(g3
g4
Ntp3140
Rp3141
(dp3142
g8
g11
sg156
Nsg157
(dp3143
sg159
Nsg26
g29
sg160
(lp3144
I31
aI17
asg162
Nsg163
VShemot Rabbah 31:17
p3145
sg165
(lp3146
sg167
g118
sg168
Nsg169
(lp3147
I31
aI17
asg171
Nsg172
g3145
sg173
(lp3148
sg175
g60
sg176
Nsg177
Nsg178
Nsbag2
(g3
g4
Ntp3149
Rp3150
(dp3151
g8
g11
sg156
Nsg157
(dp3152
sg159
Nsg26
g29
sg160
(lp3153
I32
aI1
asg162
Nsg163
VShemot Rabbah 32:1
p3154
sg165
(lp3155
sg167
g118
sg168
Nsg169
(lp3156
I32
aI1
asg171
Nsg172
g3154
sg173
(lp3157
sg175
g60
sg176
Nsg177
Nsg178
Nsbag2
(g3
g4
Ntp3158
Rp3159
(dp3160
g8
g11
sg156
Nsg157
(dp3161
sg159
Nsg26
g29
sg160
(lp3162
I32
aI2
asg162
Nsg163
VShemot Rabbah 32:2
p3163
sg165
(lp3164
sg167
g118
sg168
Nsg169
(lp3165
I32
aI2
asg171
Nsg172
g3163
sg173
(lp3166
sg175
g60
sg176
Nsg177
Nsg178
Nsbag2
(g3
g4
Ntp3167
Rp3168
(dp3169
g8
g11
sg156
Nsg157
(dp3170
sg159
Nsg26
g29
sg160
(lp3171
I32
aI3
asg162
Nsg163
VShemot Rabbah 32:3
p3172
sg165
(lp3173
sg167
g118
sg168
Nsg169
(lp3174
I32
aI3
asg171
Nsg172
g3172
sg173
(lp3175
sg175
g60
sg176
Nsg177
Nsg178
Nsbag2
(g3
g4
Ntp3176
Rp3177
(dp3178
g8
g11
sg156
Nsg157
(dp3179
sg159
Nsg26
g29
sg160
(lp3180
I32
aI4
asg162
Nsg163
VShemot Rabbah 32:4
p3181
sg165
(lp3182
sg167
g118
sg168
Nsg169
(lp3183
I32
aI4
asg171
Nsg172
g3181
sg173
(lp3184
sg175
g60
sg176
Nsg177
Nsg178
Nsbag2
(g3
g4
Ntp3185
Rp3186
(dp3187
g8
g11
sg156
Nsg157
(dp3188
sg159
Nsg26
g29
sg160
(lp3189
I32
aI5
asg162
Nsg163
VShemot Rabbah 32:5
p3190
sg165
(lp3191
sg167
g118
sg168
Nsg169
(lp3192
I32
aI5
asg171
Nsg172
g3190
sg173
(lp3193
sg175
g60
sg176
Nsg177
Nsg178
Nsbag2
(g3
g4
Ntp3194
Rp3195
(dp3196
g8
g11
sg156
Nsg157
(dp3197
sg159
Nsg26
g29
sg160
(lp3198
I32
aI6
asg162
Nsg163
VShemot Rabbah 32:6
p3199
sg165
(lp3200
sg167
g118
sg168
Nsg169
(lp3201
I32
aI6
asg171
Nsg172
g3199
sg173
(lp3202
sg175
g60
sg176
Nsg177
Nsg178
Nsbag2
(g3
g4
Ntp3203
Rp3204
(dp3205
g8
g11
sg156
Nsg157
(dp3206
sg159
Nsg26
g29
sg160
(lp3207
I32
aI7
asg162
Nsg163
VShemot Rabbah 32:7
p3208
sg165
(lp3209
sg167
g118
sg168
Nsg169
(lp3210
I32
aI7
asg171
Nsg172
g3208
sg173
(lp3211
sg175
g60
sg176
Nsg177
Nsg178
Nsbag2
(g3
g4
Ntp3212
Rp3213
(dp3214
g8
g11
sg156
Nsg157
(dp3215
sg159
Nsg26
g29
sg160
(lp3216
I32
aI8
asg162
Nsg163
VShemot Rabbah 32:8
p3217
sg165
(lp3218
sg167
g118
sg168
Nsg169
(lp3219
I32
aI8
asg171
Nsg172
g3217
sg173
(lp3220
sg175
g60
sg176
Nsg177
Nsg178
Nsbag2
(g3
g4
Ntp3221
Rp3222
(dp3223
g8
g11
sg156
Nsg157
(dp3224
sg159
Nsg26
g29
sg160
(lp3225
I32
aI9
asg162
Nsg163
VShemot Rabbah 32:9
p3226
sg165
(lp3227
sg167
g118
sg168
Nsg169
(lp3228
I32
aI9
asg171
Nsg172
g3226
sg173
(lp3229
sg175
g60
sg176
Nsg177
Nsg178
Nsbag2
(g3
g4
Ntp3230
Rp3231
(dp3232
g8
g11
sg156
Nsg157
(dp3233
sg159
Nsg26
g29
sg160
(lp3234
I33
aI1
asg162
Nsg163
VShemot Rabbah 33:1
p3235
sg165
(lp3236
sg167
g118
sg168
Nsg169
(lp3237
I33
aI1
asg171
Nsg172
g3235
sg173
(lp3238
sg175
g60
sg176
Nsg177
Nsg178
Nsbag2
(g3
g4
Ntp3239
Rp3240
(dp3241
g8
g11
sg156
Nsg157
(dp3242
sg159
Nsg26
g29
sg160
(lp3243
I33
aI2
asg162
Nsg163
VShemot Rabbah 33:2
p3244
sg165
(lp3245
sg167
g118
sg168
Nsg169
(lp3246
I33
aI2
asg171
Nsg172
g3244
sg173
(lp3247
sg175
g60
sg176
Nsg177
Nsg178
Nsbag2
(g3
g4
Ntp3248
Rp3249
(dp3250
g8
g11
sg156
Nsg157
(dp3251
sg159
Nsg26
g29
sg160
(lp3252
I33
aI3
asg162
Nsg163
VShemot Rabbah 33:3
p3253
sg165
(lp3254
sg167
g118
sg168
Nsg169
(lp3255
I33
aI3
asg171
Nsg172
g3253
sg173
(lp3256
sg175
g60
sg176
Nsg177
Nsg178
Nsbag2
(g3
g4
Ntp3257
Rp3258
(dp3259
g8
g11
sg156
Nsg157
(dp3260
sg159
Nsg26
g29
sg160
(lp3261
I33
aI4
asg162
Nsg163
VShemot Rabbah 33:4
p3262
sg165
(lp3263
sg167
g118
sg168
Nsg169
(lp3264
I33
aI4
asg171
Nsg172
g3262
sg173
(lp3265
sg175
g60
sg176
Nsg177
Nsg178
Nsbag2
(g3
g4
Ntp3266
Rp3267
(dp3268
g8
g11
sg156
Nsg157
(dp3269
sg159
Nsg26
g29
sg160
(lp3270
I33
aI5
asg162
Nsg163
VShemot Rabbah 33:5
p3271
sg165
(lp3272
sg167
g118
sg168
Nsg169
(lp3273
I33
aI5
asg171
Nsg172
g3271
sg173
(lp3274
sg175
g60
sg176
Nsg177
Nsg178
Nsbag2
(g3
g4
Ntp3275
Rp3276
(dp3277
g8
g11
sg156
Nsg157
(dp3278
sg159
Nsg26
g29
sg160
(lp3279
I33
aI6
asg162
Nsg163
VShemot Rabbah 33:6
p3280
sg165
(lp3281
sg167
g118
sg168
Nsg169
(lp3282
I33
aI6
asg171
Nsg172
g3280
sg173
(lp3283
sg175
g60
sg176
Nsg177
Nsg178
Nsbag2
(g3
g4
Ntp3284
Rp3285
(dp3286
g8
g11
sg156
Nsg157
(dp3287
sg159
Nsg26
g29
sg160
(lp3288
I33
aI7
asg162
Nsg163
VShemot Rabbah 33:7
p3289
sg165
(lp3290
sg167
g118
sg168
Nsg169
(lp3291
I33
aI7
asg171
Nsg172
g3289
sg173
(lp3292
sg175
g60
sg176
Nsg177
Nsg178
Nsbag2
(g3
g4
Ntp3293
Rp3294
(dp3295
g8
g11
sg156
Nsg157
(dp3296
sg159
Nsg26
g29
sg160
(lp3297
I33
aI8
asg162
Nsg163
VShemot Rabbah 33:8
p3298
sg165
(lp3299
sg167
g118
sg168
Nsg169
(lp3300
I33
aI8
asg171
Nsg172
g3298
sg173
(lp3301
sg175
g60
sg176
Nsg177
Nsg178
Nsbag2
(g3
g4
Ntp3302
Rp3303
(dp3304
g8
g11
sg156
Nsg157
(dp3305
sg159
Nsg26
g29
sg160
(lp3306
I34
aI1
asg162
Nsg163
VShemot Rabbah 34:1
p3307
sg165
(lp3308
sg167
g118
sg168
Nsg169
(lp3309
I34
aI1
asg171
Nsg172
g3307
sg173
(lp3310
sg175
g60
sg176
Nsg177
Nsg178
Nsbag2
(g3
g4
Ntp3311
Rp3312
(dp3313
g8
g11
sg156
Nsg157
(dp3314
sg159
Nsg26
g29
sg160
(lp3315
I34
aI2
asg162
Nsg163
VShemot Rabbah 34:2
p3316
sg165
(lp3317
sg167
g118
sg168
Nsg169
(lp3318
I34
aI2
asg171
Nsg172
g3316
sg173
(lp3319
sg175
g60
sg176
Nsg177
Nsg178
Nsbag2
(g3
g4
Ntp3320
Rp3321
(dp3322
g8
g11
sg156
Nsg157
(dp3323
sg159
Nsg26
g29
sg160
(lp3324
I34
aI3
asg162
Nsg163
VShemot Rabbah 34:3
p3325
sg165
(lp3326
sg167
g118
sg168
Nsg169
(lp3327
I34
aI3
asg171
Nsg172
g3325
sg173
(lp3328
sg175
g60
sg176
Nsg177
Nsg178
Nsbag2
(g3
g4
Ntp3329
Rp3330
(dp3331
g8
g11
sg156
Nsg157
(dp3332
sg159
Nsg26
g29
sg160
(lp3333
I35
aI1
asg162
Nsg163
VShemot Rabbah 35:1
p3334
sg165
(lp3335
sg167
g118
sg168
Nsg169
(lp3336
I35
aI1
asg171
Nsg172
g3334
sg173
(lp3337
sg175
g60
sg176
Nsg177
Nsg178
Nsbag2
(g3
g4
Ntp3338
Rp3339
(dp3340
g8
g11
sg156
Nsg157
(dp3341
sg159
Nsg26
g29
sg160
(lp3342
I35
aI2
asg162
Nsg163
VShemot Rabbah 35:2
p3343
sg165
(lp3344
sg167
g118
sg168
Nsg169
(lp3345
I35
aI2
asg171
Nsg172
g3343
sg173
(lp3346
sg175
g60
sg176
Nsg177
Nsg178
Nsbag2
(g3
g4
Ntp3347
Rp3348
(dp3349
g8
g11
sg156
Nsg157
(dp3350
sg159
Nsg26
g29
sg160
(lp3351
I35
aI3
asg162
Nsg163
VShemot Rabbah 35:3
p3352
sg165
(lp3353
sg167
g118
sg168
Nsg169
(lp3354
I35
aI3
asg171
Nsg172
g3352
sg173
(lp3355
sg175
g60
sg176
Nsg177
Nsg178
Nsbag2
(g3
g4
Ntp3356
Rp3357
(dp3358
g8
g11
sg156
Nsg157
(dp3359
sg159
Nsg26
g29
sg160
(lp3360
I35
aI4
asg162
Nsg163
VShemot Rabbah 35:4
p3361
sg165
(lp3362
sg167
g118
sg168
Nsg169
(lp3363
I35
aI4
asg171
Nsg172
g3361
sg173
(lp3364
sg175
g60
sg176
Nsg177
Nsg178
Nsbag2
(g3
g4
Ntp3365
Rp3366
(dp3367
g8
g11
sg156
Nsg157
(dp3368
sg159
Nsg26
g29
sg160
(lp3369
I35
aI5
asg162
Nsg163
VShemot Rabbah 35:5
p3370
sg165
(lp3371
sg167
g118
sg168
Nsg169
(lp3372
I35
aI5
asg171
Nsg172
g3370
sg173
(lp3373
sg175
g60
sg176
Nsg177
Nsg178
Nsbag2
(g3
g4
Ntp3374
Rp3375
(dp3376
g8
g11
sg156
Nsg157
(dp3377
sg159
Nsg26
g29
sg160
(lp3378
I35
aI6
asg162
Nsg163
VShemot Rabbah 35:6
p3379
sg165
(lp3380
sg167
g118
sg168
Nsg169
(lp3381
I35
aI6
asg171
Nsg172
g3379
sg173
(lp3382
sg175
g60
sg176
Nsg177
Nsg178
Nsbag2
(g3
g4
Ntp3383
Rp3384
(dp3385
g8
g11
sg156
Nsg157
(dp3386
sg159
Nsg26
g29
sg160
(lp3387
I36
aI1
asg162
Nsg163
VShemot Rabbah 36:1
p3388
sg165
(lp3389
sg167
g118
sg168
Nsg169
(lp3390
I36
aI1
asg171
Nsg172
g3388
sg173
(lp3391
sg175
g60
sg176
Nsg177
Nsg178
Nsbag2
(g3
g4
Ntp3392
Rp3393
(dp3394
g8
g11
sg156
Nsg157
(dp3395
sg159
Nsg26
g29
sg160
(lp3396
I36
aI2
asg162
Nsg163
VShemot Rabbah 36:2
p3397
sg165
(lp3398
sg167
g118
sg168
Nsg169
(lp3399
I36
aI2
asg171
Nsg172
g3397
sg173
(lp3400
sg175
g60
sg176
Nsg177
Nsg178
Nsbag2
(g3
g4
Ntp3401
Rp3402
(dp3403
g8
g11
sg156
Nsg157
(dp3404
sg159
Nsg26
g29
sg160
(lp3405
I36
aI3
asg162
Nsg163
VShemot Rabbah 36:3
p3406
sg165
(lp3407
sg167
g118
sg168
Nsg169
(lp3408
I36
aI3
asg171
Nsg172
g3406
sg173
(lp3409
sg175
g60
sg176
Nsg177
Nsg178
Nsbag2
(g3
g4
Ntp3410
Rp3411
(dp3412
g8
g11
sg156
Nsg157
(dp3413
sg159
Nsg26
g29
sg160
(lp3414
I36
aI4
asg162
Nsg163
VShemot Rabbah 36:4
p3415
sg165
(lp3416
sg167
g118
sg168
Nsg169
(lp3417
I36
aI4
asg171
Nsg172
g3415
sg173
(lp3418
sg175
g60
sg176
Nsg177
Nsg178
Nsbag2
(g3
g4
Ntp3419
Rp3420
(dp3421
g8
g11
sg156
Nsg157
(dp3422
sg159
Nsg26
g29
sg160
(lp3423
I37
aI1
asg162
Nsg163
VShemot Rabbah 37:1
p3424
sg165
(lp3425
sg167
g118
sg168
Nsg169
(lp3426
I37
aI1
asg171
Nsg172
g3424
sg173
(lp3427
sg175
g60
sg176
Nsg177
Nsg178
Nsbag2
(g3
g4
Ntp3428
Rp3429
(dp3430
g8
g11
sg156
Nsg157
(dp3431
sg159
Nsg26
g29
sg160
(lp3432
I37
aI2
asg162
Nsg163
VShemot Rabbah 37:2
p3433
sg165
(lp3434
sg167
g118
sg168
Nsg169
(lp3435
I37
aI2
asg171
Nsg172
g3433
sg173
(lp3436
sg175
g60
sg176
Nsg177
Nsg178
Nsbag2
(g3
g4
Ntp3437
Rp3438
(dp3439
g8
g11
sg156
Nsg157
(dp3440
sg159
Nsg26
g29
sg160
(lp3441
I37
aI3
asg162
Nsg163
VShemot Rabbah 37:3
p3442
sg165
(lp3443
sg167
g118
sg168
Nsg169
(lp3444
I37
aI3
asg171
Nsg172
g3442
sg173
(lp3445
sg175
g60
sg176
Nsg177
Nsg178
Nsbag2
(g3
g4
Ntp3446
Rp3447
(dp3448
g8
g11
sg156
Nsg157
(dp3449
sg159
Nsg26
g29
sg160
(lp3450
I37
aI4
asg162
Nsg163
VShemot Rabbah 37:4
p3451
sg165
(lp3452
sg167
g118
sg168
Nsg169
(lp3453
I37
aI4
asg171
Nsg172
g3451
sg173
(lp3454
sg175
g60
sg176
Nsg177
Nsg178
Nsbag2
(g3
g4
Ntp3455
Rp3456
(dp3457
g8
g11
sg156
Nsg157
(dp3458
sg159
Nsg26
g29
sg160
(lp3459
I38
aI1
asg162
Nsg163
VShemot Rabbah 38:1
p3460
sg165
(lp3461
sg167
g118
sg168
Nsg169
(lp3462
I38
aI1
asg171
Nsg172
g3460
sg173
(lp3463
sg175
g60
sg176
Nsg177
Nsg178
Nsbag2
(g3
g4
Ntp3464
Rp3465
(dp3466
g8
g11
sg156
Nsg157
(dp3467
sg159
Nsg26
g29
sg160
(lp3468
I38
aI2
asg162
Nsg163
VShemot Rabbah 38:2
p3469
sg165
(lp3470
sg167
g118
sg168
Nsg169
(lp3471
I38
aI2
asg171
Nsg172
g3469
sg173
(lp3472
sg175
g60
sg176
Nsg177
Nsg178
Nsbag2
(g3
g4
Ntp3473
Rp3474
(dp3475
g8
g11
sg156
Nsg157
(dp3476
sg159
Nsg26
g29
sg160
(lp3477
I38
aI3
asg162
Nsg163
VShemot Rabbah 38:3
p3478
sg165
(lp3479
sg167
g118
sg168
Nsg169
(lp3480
I38
aI3
asg171
Nsg172
g3478
sg173
(lp3481
sg175
g60
sg176
Nsg177
Nsg178
Nsbag2
(g3
g4
Ntp3482
Rp3483
(dp3484
g8
g11
sg156
Nsg157
(dp3485
sg159
Nsg26
g29
sg160
(lp3486
I38
aI4
asg162
Nsg163
VShemot Rabbah 38:4
p3487
sg165
(lp3488
sg167
g118
sg168
Nsg169
(lp3489
I38
aI4
asg171
Nsg172
g3487
sg173
(lp3490
sg175
g60
sg176
Nsg177
Nsg178
Nsbag2
(g3
g4
Ntp3491
Rp3492
(dp3493
g8
g11
sg156
Nsg157
(dp3494
sg159
Nsg26
g29
sg160
(lp3495
I38
aI5
asg162
Nsg163
VShemot Rabbah 38:5
p3496
sg165
(lp3497
sg167
g118
sg168
Nsg169
(lp3498
I38
aI5
asg171
Nsg172
g3496
sg173
(lp3499
sg175
g60
sg176
Nsg177
Nsg178
Nsbag2
(g3
g4
Ntp3500
Rp3501
(dp3502
g8
g11
sg156
Nsg157
(dp3503
sg159
Nsg26
g29
sg160
(lp3504
I38
aI6
asg162
Nsg163
VShemot Rabbah 38:6
p3505
sg165
(lp3506
sg167
g118
sg168
Nsg169
(lp3507
I38
aI6
asg171
Nsg172
g3505
sg173
(lp3508
sg175
g60
sg176
Nsg177
Nsg178
Nsbag2
(g3
g4
Ntp3509
Rp3510
(dp3511
g8
g11
sg156
Nsg157
(dp3512
sg159
Nsg26
g29
sg160
(lp3513
I38
aI7
asg162
Nsg163
VShemot Rabbah 38:7
p3514
sg165
(lp3515
sg167
g118
sg168
Nsg169
(lp3516
I38
aI7
asg171
Nsg172
g3514
sg173
(lp3517
sg175
g60
sg176
Nsg177
Nsg178
Nsbag2
(g3
g4
Ntp3518
Rp3519
(dp3520
g8
g11
sg156
Nsg157
(dp3521
sg159
Nsg26
g29
sg160
(lp3522
I38
aI8
asg162
Nsg163
VShemot Rabbah 38:8
p3523
sg165
(lp3524
sg167
g118
sg168
Nsg169
(lp3525
I38
aI8
asg171
Nsg172
g3523
sg173
(lp3526
sg175
g60
sg176
Nsg177
Nsg178
Nsbag2
(g3
g4
Ntp3527
Rp3528
(dp3529
g8
g11
sg156
Nsg157
(dp3530
sg159
Nsg26
g29
sg160
(lp3531
I38
aI9
asg162
Nsg163
VShemot Rabbah 38:9
p3532
sg165
(lp3533
sg167
g118
sg168
Nsg169
(lp3534
I38
aI9
asg171
Nsg172
g3532
sg173
(lp3535
sg175
g60
sg176
Nsg177
Nsg178
Nsbag2
(g3
g4
Ntp3536
Rp3537
(dp3538
g8
g11
sg156
Nsg157
(dp3539
sg159
Nsg26
g29
sg160
(lp3540
I39
aI1
asg162
Nsg163
VShemot Rabbah 39:1
p3541
sg165
(lp3542
sg167
g118
sg168
Nsg169
(lp3543
I39
aI1
asg171
Nsg172
g3541
sg173
(lp3544
sg175
g60
sg176
Nsg177
Nsg178
Nsbag2
(g3
g4
Ntp3545
Rp3546
(dp3547
g8
g11
sg156
Nsg157
(dp3548
sg159
Nsg26
g29
sg160
(lp3549
I40
aI1
asg162
Nsg163
VShemot Rabbah 40:1
p3550
sg165
(lp3551
sg167
g118
sg168
Nsg169
(lp3552
I40
aI1
asg171
Nsg172
g3550
sg173
(lp3553
sg175
g60
sg176
Nsg177
Nsg178
Nsbag2
(g3
g4
Ntp3554
Rp3555
(dp3556
g8
g11
sg156
Nsg157
(dp3557
sg159
Nsg26
g29
sg160
(lp3558
I40
aI2
asg162
Nsg163
VShemot Rabbah 40:2
p3559
sg165
(lp3560
sg167
g118
sg168
Nsg169
(lp3561
I40
aI2
asg171
Nsg172
g3559
sg173
(lp3562
sg175
g60
sg176
Nsg177
Nsg178
Nsbag2
(g3
g4
Ntp3563
Rp3564
(dp3565
g8
g11
sg156
Nsg157
(dp3566
sg159
Nsg26
g29
sg160
(lp3567
I40
aI3
asg162
Nsg163
VShemot Rabbah 40:3
p3568
sg165
(lp3569
sg167
g118
sg168
Nsg169
(lp3570
I40
aI3
asg171
Nsg172
g3568
sg173
(lp3571
sg175
g60
sg176
Nsg177
Nsg178
Nsbag2
(g3
g4
Ntp3572
Rp3573
(dp3574
g8
g11
sg156
Nsg157
(dp3575
sg159
Nsg26
g29
sg160
(lp3576
I40
aI4
asg162
Nsg163
VShemot Rabbah 40:4
p3577
sg165
(lp3578
sg167
g118
sg168
Nsg169
(lp3579
I40
aI4
asg171
Nsg172
g3577
sg173
(lp3580
sg175
g60
sg176
Nsg177
Nsg178
Nsbag2
(g3
g4
Ntp3581
Rp3582
(dp3583
g8
g11
sg156
Nsg157
(dp3584
sg159
Nsg26
g29
sg160
(lp3585
I41
aI1
asg162
Nsg163
VShemot Rabbah 41:1
p3586
sg165
(lp3587
sg167
g118
sg168
Nsg169
(lp3588
I41
aI1
asg171
Nsg172
g3586
sg173
(lp3589
sg175
g60
sg176
Nsg177
Nsg178
Nsbag2
(g3
g4
Ntp3590
Rp3591
(dp3592
g8
g11
sg156
Nsg157
(dp3593
sg159
Nsg26
g29
sg160
(lp3594
I41
aI2
asg162
Nsg163
VShemot Rabbah 41:2
p3595
sg165
(lp3596
sg167
g118
sg168
Nsg169
(lp3597
I41
aI2
asg171
Nsg172
g3595
sg173
(lp3598
sg175
g60
sg176
Nsg177
Nsg178
Nsbag2
(g3
g4
Ntp3599
Rp3600
(dp3601
g8
g11
sg156
Nsg157
(dp3602
sg159
Nsg26
g29
sg160
(lp3603
I41
aI3
asg162
Nsg163
VShemot Rabbah 41:3
p3604
sg165
(lp3605
sg167
g118
sg168
Nsg169
(lp3606
I41
aI3
asg171
Nsg172
g3604
sg173
(lp3607
sg175
g60
sg176
Nsg177
Nsg178
Nsbag2
(g3
g4
Ntp3608
Rp3609
(dp3610
g8
g11
sg156
Nsg157
(dp3611
sg159
Nsg26
g29
sg160
(lp3612
I41
aI4
asg162
Nsg163
VShemot Rabbah 41:4
p3613
sg165
(lp3614
sg167
g118
sg168
Nsg169
(lp3615
I41
aI4
asg171
Nsg172
g3613
sg173
(lp3616
sg175
g60
sg176
Nsg177
Nsg178
Nsbag2
(g3
g4
Ntp3617
Rp3618
(dp3619
g8
g11
sg156
Nsg157
(dp3620
sg159
Nsg26
g29
sg160
(lp3621
I41
aI5
asg162
Nsg163
VShemot Rabbah 41:5
p3622
sg165
(lp3623
sg167
g118
sg168
Nsg169
(lp3624
I41
aI5
asg171
Nsg172
g3622
sg173
(lp3625
sg175
g60
sg176
Nsg177
Nsg178
Nsbag2
(g3
g4
Ntp3626
Rp3627
(dp3628
g8
g11
sg156
Nsg157
(dp3629
sg159
Nsg26
g29
sg160
(lp3630
I41
aI6
asg162
Nsg163
VShemot Rabbah 41:6
p3631
sg165
(lp3632
sg167
g118
sg168
Nsg169
(lp3633
I41
aI6
asg171
Nsg172
g3631
sg173
(lp3634
sg175
g60
sg176
Nsg177
Nsg178
Nsbag2
(g3
g4
Ntp3635
Rp3636
(dp3637
g8
g11
sg156
Nsg157
(dp3638
sg159
Nsg26
g29
sg160
(lp3639
I41
aI7
asg162
Nsg163
VShemot Rabbah 41:7
p3640
sg165
(lp3641
sg167
g118
sg168
Nsg169
(lp3642
I41
aI7
asg171
Nsg172
g3640
sg173
(lp3643
sg175
g60
sg176
Nsg177
Nsg178
Nsbag2
(g3
g4
Ntp3644
Rp3645
(dp3646
g8
g11
sg156
Nsg157
(dp3647
sg159
Nsg26
g29
sg160
(lp3648
I42
aI1
asg162
Nsg163
VShemot Rabbah 42:1
p3649
sg165
(lp3650
sg167
g118
sg168
Nsg169
(lp3651
I42
aI1
asg171
Nsg172
g3649
sg173
(lp3652
sg175
g60
sg176
Nsg177
Nsg178
Nsbag2
(g3
g4
Ntp3653
Rp3654
(dp3655
g8
g11
sg156
Nsg157
(dp3656
sg159
Nsg26
g29
sg160
(lp3657
I42
aI2
asg162
Nsg163
VShemot Rabbah 42:2
p3658
sg165
(lp3659
sg167
g118
sg168
Nsg169
(lp3660
I42
aI2
asg171
Nsg172
g3658
sg173
(lp3661
sg175
g60
sg176
Nsg177
Nsg178
Nsbag2
(g3
g4
Ntp3662
Rp3663
(dp3664
g8
g11
sg156
Nsg157
(dp3665
sg159
Nsg26
g29
sg160
(lp3666
I42
aI3
asg162
Nsg163
VShemot Rabbah 42:3
p3667
sg165
(lp3668
sg167
g118
sg168
Nsg169
(lp3669
I42
aI3
asg171
Nsg172
g3667
sg173
(lp3670
sg175
g60
sg176
Nsg177
Nsg178
Nsbag2
(g3
g4
Ntp3671
Rp3672
(dp3673
g8
g11
sg156
Nsg157
(dp3674
sg159
Nsg26
g29
sg160
(lp3675
I42
aI4
asg162
Nsg163
VShemot Rabbah 42:4
p3676
sg165
(lp3677
sg167
g118
sg168
Nsg169
(lp3678
I42
aI4
asg171
Nsg172
g3676
sg173
(lp3679
sg175
g60
sg176
Nsg177
Nsg178
Nsbag2
(g3
g4
Ntp3680
Rp3681
(dp3682
g8
g11
sg156
Nsg157
(dp3683
sg159
Nsg26
g29
sg160
(lp3684
I42
aI5
asg162
Nsg163
VShemot Rabbah 42:5
p3685
sg165
(lp3686
sg167
g118
sg168
Nsg169
(lp3687
I42
aI5
asg171
Nsg172
g3685
sg173
(lp3688
sg175
g60
sg176
Nsg177
Nsg178
Nsbag2
(g3
g4
Ntp3689
Rp3690
(dp3691
g8
g11
sg156
Nsg157
(dp3692
sg159
Nsg26
g29
sg160
(lp3693
I42
aI6
asg162
Nsg163
VShemot Rabbah 42:6
p3694
sg165
(lp3695
sg167
g118
sg168
Nsg169
(lp3696
I42
aI6
asg171
Nsg172
g3694
sg173
(lp3697
sg175
g60
sg176
Nsg177
Nsg178
Nsbag2
(g3
g4
Ntp3698
Rp3699
(dp3700
g8
g11
sg156
Nsg157
(dp3701
sg159
Nsg26
g29
sg160
(lp3702
I42
aI7
asg162
Nsg163
VShemot Rabbah 42:7
p3703
sg165
(lp3704
sg167
g118
sg168
Nsg169
(lp3705
I42
aI7
asg171
Nsg172
g3703
sg173
(lp3706
sg175
g60
sg176
Nsg177
Nsg178
Nsbag2
(g3
g4
Ntp3707
Rp3708
(dp3709
g8
g11
sg156
Nsg157
(dp3710
sg159
Nsg26
g29
sg160
(lp3711
I42
aI8
asg162
Nsg163
VShemot Rabbah 42:8
p3712
sg165
(lp3713
sg167
g118
sg168
Nsg169
(lp3714
I42
aI8
asg171
Nsg172
g3712
sg173
(lp3715
sg175
g60
sg176
Nsg177
Nsg178
Nsbag2
(g3
g4
Ntp3716
Rp3717
(dp3718
g8
g11
sg156
Nsg157
(dp3719
sg159
Nsg26
g29
sg160
(lp3720
I42
aI9
asg162
Nsg163
VShemot Rabbah 42:9
p3721
sg165
(lp3722
sg167
g118
sg168
Nsg169
(lp3723
I42
aI9
asg171
Nsg172
g3721
sg173
(lp3724
sg175
g60
sg176
Nsg177
Nsg178
Nsbag2
(g3
g4
Ntp3725
Rp3726
(dp3727
g8
g11
sg156
Nsg157
(dp3728
sg159
Nsg26
g29
sg160
(lp3729
I43
aI1
asg162
Nsg163
VShemot Rabbah 43:1
p3730
sg165
(lp3731
sg167
g118
sg168
Nsg169
(lp3732
I43
aI1
asg171
Nsg172
g3730
sg173
(lp3733
sg175
g60
sg176
Nsg177
Nsg178
Nsbag2
(g3
g4
Ntp3734
Rp3735
(dp3736
g8
g11
sg156
Nsg157
(dp3737
sg159
Nsg26
g29
sg160
(lp3738
I43
aI2
asg162
Nsg163
VShemot Rabbah 43:2
p3739
sg165
(lp3740
sg167
g118
sg168
Nsg169
(lp3741
I43
aI2
asg171
Nsg172
g3739
sg173
(lp3742
sg175
g60
sg176
Nsg177
Nsg178
Nsbag2
(g3
g4
Ntp3743
Rp3744
(dp3745
g8
g11
sg156
Nsg157
(dp3746
sg159
Nsg26
g29
sg160
(lp3747
I43
aI3
asg162
Nsg163
VShemot Rabbah 43:3
p3748
sg165
(lp3749
sg167
g118
sg168
Nsg169
(lp3750
I43
aI3
asg171
Nsg172
g3748
sg173
(lp3751
sg175
g60
sg176
Nsg177
Nsg178
Nsbag2
(g3
g4
Ntp3752
Rp3753
(dp3754
g8
g11
sg156
Nsg157
(dp3755
sg159
Nsg26
g29
sg160
(lp3756
I43
aI4
asg162
Nsg163
VShemot Rabbah 43:4
p3757
sg165
(lp3758
sg167
g118
sg168
Nsg169
(lp3759
I43
aI4
asg171
Nsg172
g3757
sg173
(lp3760
sg175
g60
sg176
Nsg177
Nsg178
Nsbag2
(g3
g4
Ntp3761
Rp3762
(dp3763
g8
g11
sg156
Nsg157
(dp3764
sg159
Nsg26
g29
sg160
(lp3765
I43
aI5
asg162
Nsg163
VShemot Rabbah 43:5
p3766
sg165
(lp3767
sg167
g118
sg168
Nsg169
(lp3768
I43
aI5
asg171
Nsg172
g3766
sg173
(lp3769
sg175
g60
sg176
Nsg177
Nsg178
Nsbag2
(g3
g4
Ntp3770
Rp3771
(dp3772
g8
g11
sg156
Nsg157
(dp3773
sg159
Nsg26
g29
sg160
(lp3774
I43
aI6
asg162
Nsg163
VShemot Rabbah 43:6
p3775
sg165
(lp3776
sg167
g118
sg168
Nsg169
(lp3777
I43
aI6
asg171
Nsg172
g3775
sg173
(lp3778
sg175
g60
sg176
Nsg177
Nsg178
Nsbag2
(g3
g4
Ntp3779
Rp3780
(dp3781
g8
g11
sg156
Nsg157
(dp3782
sg159
Nsg26
g29
sg160
(lp3783
I43
aI7
asg162
Nsg163
VShemot Rabbah 43:7
p3784
sg165
(lp3785
sg167
g118
sg168
Nsg169
(lp3786
I43
aI7
asg171
Nsg172
g3784
sg173
(lp3787
sg175
g60
sg176
Nsg177
Nsg178
Nsbag2
(g3
g4
Ntp3788
Rp3789
(dp3790
g8
g11
sg156
Nsg157
(dp3791
sg159
Nsg26
g29
sg160
(lp3792
I43
aI8
asg162
Nsg163
VShemot Rabbah 43:8
p3793
sg165
(lp3794
sg167
g118
sg168
Nsg169
(lp3795
I43
aI8
asg171
Nsg172
g3793
sg173
(lp3796
sg175
g60
sg176
Nsg177
Nsg178
Nsbag2
(g3
g4
Ntp3797
Rp3798
(dp3799
g8
g11
sg156
Nsg157
(dp3800
sg159
Nsg26
g29
sg160
(lp3801
I43
aI9
asg162
Nsg163
VShemot Rabbah 43:9
p3802
sg165
(lp3803
sg167
g118
sg168
Nsg169
(lp3804
I43
aI9
asg171
Nsg172
g3802
sg173
(lp3805
sg175
g60
sg176
Nsg177
Nsg178
Nsbag2
(g3
g4
Ntp3806
Rp3807
(dp3808
g8
g11
sg156
Nsg157
(dp3809
sg159
Nsg26
g29
sg160
(lp3810
I44
aI1
asg162
Nsg163
VShemot Rabbah 44:1
p3811
sg165
(lp3812
sg167
g118
sg168
Nsg169
(lp3813
I44
aI1
asg171
Nsg172
g3811
sg173
(lp3814
sg175
g60
sg176
Nsg177
Nsg178
Nsbag2
(g3
g4
Ntp3815
Rp3816
(dp3817
g8
g11
sg156
Nsg157
(dp3818
sg159
Nsg26
g29
sg160
(lp3819
I44
aI2
asg162
Nsg163
VShemot Rabbah 44:2
p3820
sg165
(lp3821
sg167
g118
sg168
Nsg169
(lp3822
I44
aI2
asg171
Nsg172
g3820
sg173
(lp3823
sg175
g60
sg176
Nsg177
Nsg178
Nsbag2
(g3
g4
Ntp3824
Rp3825
(dp3826
g8
g11
sg156
Nsg157
(dp3827
sg159
Nsg26
g29
sg160
(lp3828
I44
aI3
asg162
Nsg163
VShemot Rabbah 44:3
p3829
sg165
(lp3830
sg167
g118
sg168
Nsg169
(lp3831
I44
aI3
asg171
Nsg172
g3829
sg173
(lp3832
sg175
g60
sg176
Nsg177
Nsg178
Nsbag2
(g3
g4
Ntp3833
Rp3834
(dp3835
g8
g11
sg156
Nsg157
(dp3836
sg159
Nsg26
g29
sg160
(lp3837
I44
aI4
asg162
Nsg163
VShemot Rabbah 44:4
p3838
sg165
(lp3839
sg167
g118
sg168
Nsg169
(lp3840
I44
aI4
asg171
Nsg172
g3838
sg173
(lp3841
sg175
g60
sg176
Nsg177
Nsg178
Nsbag2
(g3
g4
Ntp3842
Rp3843
(dp3844
g8
g11
sg156
Nsg157
(dp3845
sg159
Nsg26
g29
sg160
(lp3846
I44
aI5
asg162
Nsg163
VShemot Rabbah 44:5
p3847
sg165
(lp3848
sg167
g118
sg168
Nsg169
(lp3849
I44
aI5
asg171
Nsg172
g3847
sg173
(lp3850
sg175
g60
sg176
Nsg177
Nsg178
Nsbag2
(g3
g4
Ntp3851
Rp3852
(dp3853
g8
g11
sg156
Nsg157
(dp3854
sg159
Nsg26
g29
sg160
(lp3855
I44
aI6
asg162
Nsg163
VShemot Rabbah 44:6
p3856
sg165
(lp3857
sg167
g118
sg168
Nsg169
(lp3858
I44
aI6
asg171
Nsg172
g3856
sg173
(lp3859
sg175
g60
sg176
Nsg177
Nsg178
Nsbag2
(g3
g4
Ntp3860
Rp3861
(dp3862
g8
g11
sg156
Nsg157
(dp3863
sg159
Nsg26
g29
sg160
(lp3864
I44
aI7
asg162
Nsg163
VShemot Rabbah 44:7
p3865
sg165
(lp3866
sg167
g118
sg168
Nsg169
(lp3867
I44
aI7
asg171
Nsg172
g3865
sg173
(lp3868
sg175
g60
sg176
Nsg177
Nsg178
Nsbag2
(g3
g4
Ntp3869
Rp3870
(dp3871
g8
g11
sg156
Nsg157
(dp3872
sg159
Nsg26
g29
sg160
(lp3873
I44
aI8
asg162
Nsg163
VShemot Rabbah 44:8
p3874
sg165
(lp3875
sg167
g118
sg168
Nsg169
(lp3876
I44
aI8
asg171
Nsg172
g3874
sg173
(lp3877
sg175
g60
sg176
Nsg177
Nsg178
Nsbag2
(g3
g4
Ntp3878
Rp3879
(dp3880
g8
g11
sg156
Nsg157
(dp3881
sg159
Nsg26
g29
sg160
(lp3882
I44
aI9
asg162
Nsg163
VShemot Rabbah 44:9
p3883
sg165
(lp3884
sg167
g118
sg168
Nsg169
(lp3885
I44
aI9
asg171
Nsg172
g3883
sg173
(lp3886
sg175
g60
sg176
Nsg177
Nsg178
Nsbag2
(g3
g4
Ntp3887
Rp3888
(dp3889
g8
g11
sg156
Nsg157
(dp3890
sg159
Nsg26
g29
sg160
(lp3891
I44
aI10
asg162
Nsg163
VShemot Rabbah 44:10
p3892
sg165
(lp3893
sg167
g118
sg168
Nsg169
(lp3894
I44
aI10
asg171
Nsg172
g3892
sg173
(lp3895
sg175
g60
sg176
Nsg177
Nsg178
Nsbag2
(g3
g4
Ntp3896
Rp3897
(dp3898
g8
g11
sg156
Nsg157
(dp3899
sg159
Nsg26
g29
sg160
(lp3900
I45
aI1
asg162
Nsg163
VShemot Rabbah 45:1
p3901
sg165
(lp3902
sg167
g118
sg168
Nsg169
(lp3903
I45
aI1
asg171
Nsg172
g3901
sg173
(lp3904
sg175
g60
sg176
Nsg177
Nsg178
Nsbag2
(g3
g4
Ntp3905
Rp3906
(dp3907
g8
g11
sg156
Nsg157
(dp3908
sg159
Nsg26
g29
sg160
(lp3909
I45
aI2
asg162
Nsg163
VShemot Rabbah 45:2
p3910
sg165
(lp3911
sg167
g118
sg168
Nsg169
(lp3912
I45
aI2
asg171
Nsg172
g3910
sg173
(lp3913
sg175
g60
sg176
Nsg177
Nsg178
Nsbag2
(g3
g4
Ntp3914
Rp3915
(dp3916
g8
g11
sg156
Nsg157
(dp3917
sg159
Nsg26
g29
sg160
(lp3918
I45
aI3
asg162
Nsg163
VShemot Rabbah 45:3
p3919
sg165
(lp3920
sg167
g118
sg168
Nsg169
(lp3921
I45
aI3
asg171
Nsg172
g3919
sg173
(lp3922
sg175
g60
sg176
Nsg177
Nsg178
Nsbag2
(g3
g4
Ntp3923
Rp3924
(dp3925
g8
g11
sg156
Nsg157
(dp3926
sg159
Nsg26
g29
sg160
(lp3927
I45
aI4
asg162
Nsg163
VShemot Rabbah 45:4
p3928
sg165
(lp3929
sg167
g118
sg168
Nsg169
(lp3930
I45
aI4
asg171
Nsg172
g3928
sg173
(lp3931
sg175
g60
sg176
Nsg177
Nsg178
Nsbag2
(g3
g4
Ntp3932
Rp3933
(dp3934
g8
g11
sg156
Nsg157
(dp3935
sg159
Nsg26
g29
sg160
(lp3936
I45
aI5
asg162
Nsg163
VShemot Rabbah 45:5
p3937
sg165
(lp3938
sg167
g118
sg168
Nsg169
(lp3939
I45
aI5
asg171
Nsg172
g3937
sg173
(lp3940
sg175
g60
sg176
Nsg177
Nsg178
Nsbag2
(g3
g4
Ntp3941
Rp3942
(dp3943
g8
g11
sg156
Nsg157
(dp3944
sg159
Nsg26
g29
sg160
(lp3945
I45
aI6
asg162
Nsg163
VShemot Rabbah 45:6
p3946
sg165
(lp3947
sg167
g118
sg168
Nsg169
(lp3948
I45
aI6
asg171
Nsg172
g3946
sg173
(lp3949
sg175
g60
sg176
Nsg177
Nsg178
Nsbag2
(g3
g4
Ntp3950
Rp3951
(dp3952
g8
g11
sg156
Nsg157
(dp3953
sg159
Nsg26
g29
sg160
(lp3954
I46
aI1
asg162
Nsg163
VShemot Rabbah 46:1
p3955
sg165
(lp3956
sg167
g118
sg168
Nsg169
(lp3957
I46
aI1
asg171
Nsg172
g3955
sg173
(lp3958
sg175
g60
sg176
Nsg177
Nsg178
Nsbag2
(g3
g4
Ntp3959
Rp3960
(dp3961
g8
g11
sg156
Nsg157
(dp3962
sg159
Nsg26
g29
sg160
(lp3963
I46
aI2
asg162
Nsg163
VShemot Rabbah 46:2
p3964
sg165
(lp3965
sg167
g118
sg168
Nsg169
(lp3966
I46
aI2
asg171
Nsg172
g3964
sg173
(lp3967
sg175
g60
sg176
Nsg177
Nsg178
Nsbag2
(g3
g4
Ntp3968
Rp3969
(dp3970
g8
g11
sg156
Nsg157
(dp3971
sg159
Nsg26
g29
sg160
(lp3972
I46
aI3
asg162
Nsg163
VShemot Rabbah 46:3
p3973
sg165
(lp3974
sg167
g118
sg168
Nsg169
(lp3975
I46
aI3
asg171
Nsg172
g3973
sg173
(lp3976
sg175
g60
sg176
Nsg177
Nsg178
Nsbag2
(g3
g4
Ntp3977
Rp3978
(dp3979
g8
g11
sg156
Nsg157
(dp3980
sg159
Nsg26
g29
sg160
(lp3981
I46
aI4
asg162
Nsg163
VShemot Rabbah 46:4
p3982
sg165
(lp3983
sg167
g118
sg168
Nsg169
(lp3984
I46
aI4
asg171
Nsg172
g3982
sg173
(lp3985
sg175
g60
sg176
Nsg177
Nsg178
Nsbag2
(g3
g4
Ntp3986
Rp3987
(dp3988
g8
g11
sg156
Nsg157
(dp3989
sg159
Nsg26
g29
sg160
(lp3990
I46
aI5
asg162
Nsg163
VShemot Rabbah 46:5
p3991
sg165
(lp3992
sg167
g118
sg168
Nsg169
(lp3993
I46
aI5
asg171
Nsg172
g3991
sg173
(lp3994
sg175
g60
sg176
Nsg177
Nsg178
Nsbag2
(g3
g4
Ntp3995
Rp3996
(dp3997
g8
g11
sg156
Nsg157
(dp3998
sg159
Nsg26
g29
sg160
(lp3999
I46
aI6
asg162
Nsg163
VShemot Rabbah 46:6
p4000
sg165
(lp4001
sg167
g118
sg168
Nsg169
(lp4002
I46
aI6
asg171
Nsg172
g4000
sg173
(lp4003
sg175
g60
sg176
Nsg177
Nsg178
Nsbag2
(g3
g4
Ntp4004
Rp4005
(dp4006
g8
g11
sg156
Nsg157
(dp4007
sg159
Nsg26
g29
sg160
(lp4008
I46
aI7
asg162
Nsg163
VShemot Rabbah 46:7
p4009
sg165
(lp4010
sg167
g118
sg168
Nsg169
(lp4011
I46
aI7
asg171
Nsg172
g4009
sg173
(lp4012
sg175
g60
sg176
Nsg177
Nsg178
Nsbag2
(g3
g4
Ntp4013
Rp4014
(dp4015
g8
g11
sg156
Nsg157
(dp4016
sg159
Nsg26
g29
sg160
(lp4017
I46
aI8
asg162
Nsg163
VShemot Rabbah 46:8
p4018
sg165
(lp4019
sg167
g118
sg168
Nsg169
(lp4020
I46
aI8
asg171
Nsg172
g4018
sg173
(lp4021
sg175
g60
sg176
Nsg177
Nsg178
Nsbag2
(g3
g4
Ntp4022
Rp4023
(dp4024
g8
g11
sg156
Nsg157
(dp4025
sg159
Nsg26
g29
sg160
(lp4026
I47
aI1
asg162
Nsg163
VShemot Rabbah 47:1
p4027
sg165
(lp4028
sg167
g118
sg168
Nsg169
(lp4029
I47
aI1
asg171
Nsg172
g4027
sg173
(lp4030
sg175
g60
sg176
Nsg177
Nsg178
Nsbag2
(g3
g4
Ntp4031
Rp4032
(dp4033
g8
g11
sg156
Nsg157
(dp4034
sg159
Nsg26
g29
sg160
(lp4035
I47
aI2
asg162
Nsg163
VShemot Rabbah 47:2
p4036
sg165
(lp4037
sg167
g118
sg168
Nsg169
(lp4038
I47
aI2
asg171
Nsg172
g4036
sg173
(lp4039
sg175
g60
sg176
Nsg177
Nsg178
Nsbag2
(g3
g4
Ntp4040
Rp4041
(dp4042
g8
g11
sg156
Nsg157
(dp4043
sg159
Nsg26
g29
sg160
(lp4044
I47
aI3
asg162
Nsg163
VShemot Rabbah 47:3
p4045
sg165
(lp4046
sg167
g118
sg168
Nsg169
(lp4047
I47
aI3
asg171
Nsg172
g4045
sg173
(lp4048
sg175
g60
sg176
Nsg177
Nsg178
Nsbag2
(g3
g4
Ntp4049
Rp4050
(dp4051
g8
g11
sg156
Nsg157
(dp4052
sg159
Nsg26
g29
sg160
(lp4053
I47
aI4
asg162
Nsg163
VShemot Rabbah 47:4
p4054
sg165
(lp4055
sg167
g118
sg168
Nsg169
(lp4056
I47
aI4
asg171
Nsg172
g4054
sg173
(lp4057
sg175
g60
sg176
Nsg177
Nsg178
Nsbag2
(g3
g4
Ntp4058
Rp4059
(dp4060
g8
g11
sg156
Nsg157
(dp4061
sg159
Nsg26
g29
sg160
(lp4062
I47
aI5
asg162
Nsg163
VShemot Rabbah 47:5
p4063
sg165
(lp4064
sg167
g118
sg168
Nsg169
(lp4065
I47
aI5
asg171
Nsg172
g4063
sg173
(lp4066
sg175
g60
sg176
Nsg177
Nsg178
Nsbag2
(g3
g4
Ntp4067
Rp4068
(dp4069
g8
g11
sg156
Nsg157
(dp4070
sg159
Nsg26
g29
sg160
(lp4071
I47
aI6
asg162
Nsg163
VShemot Rabbah 47:6
p4072
sg165
(lp4073
sg167
g118
sg168
Nsg169
(lp4074
I47
aI6
asg171
Nsg172
g4072
sg173
(lp4075
sg175
g60
sg176
Nsg177
Nsg178
Nsbag2
(g3
g4
Ntp4076
Rp4077
(dp4078
g8
g11
sg156
Nsg157
(dp4079
sg159
Nsg26
g29
sg160
(lp4080
I47
aI7
asg162
Nsg163
VShemot Rabbah 47:7
p4081
sg165
(lp4082
sg167
g118
sg168
Nsg169
(lp4083
I47
aI7
asg171
Nsg172
g4081
sg173
(lp4084
sg175
g60
sg176
Nsg177
Nsg178
Nsbag2
(g3
g4
Ntp4085
Rp4086
(dp4087
g8
g11
sg156
Nsg157
(dp4088
sg159
Nsg26
g29
sg160
(lp4089
I47
aI8
asg162
Nsg163
VShemot Rabbah 47:8
p4090
sg165
(lp4091
sg167
g118
sg168
Nsg169
(lp4092
I47
aI8
asg171
Nsg172
g4090
sg173
(lp4093
sg175
g60
sg176
Nsg177
Nsg178
Nsbag2
(g3
g4
Ntp4094
Rp4095
(dp4096
g8
g11
sg156
Nsg157
(dp4097
sg159
Nsg26
g29
sg160
(lp4098
I47
aI9
asg162
Nsg163
VShemot Rabbah 47:9
p4099
sg165
(lp4100
sg167
g118
sg168
Nsg169
(lp4101
I47
aI9
asg171
Nsg172
g4099
sg173
(lp4102
sg175
g60
sg176
Nsg177
Nsg178
Nsbag2
(g3
g4
Ntp4103
Rp4104
(dp4105
g8
g11
sg156
Nsg157
(dp4106
sg159
Nsg26
g29
sg160
(lp4107
I48
aI1
asg162
Nsg163
VShemot Rabbah 48:1
p4108
sg165
(lp4109
sg167
g118
sg168
Nsg169
(lp4110
I48
aI1
asg171
Nsg172
g4108
sg173
(lp4111
sg175
g60
sg176
Nsg177
Nsg178
Nsbag2
(g3
g4
Ntp4112
Rp4113
(dp4114
g8
g11
sg156
Nsg157
(dp4115
sg159
Nsg26
g29
sg160
(lp4116
I48
aI2
asg162
Nsg163
VShemot Rabbah 48:2
p4117
sg165
(lp4118
sg167
g118
sg168
Nsg169
(lp4119
I48
aI2
asg171
Nsg172
g4117
sg173
(lp4120
sg175
g60
sg176
Nsg177
Nsg178
Nsbag2
(g3
g4
Ntp4121
Rp4122
(dp4123
g8
g11
sg156
Nsg157
(dp4124
sg159
Nsg26
g29
sg160
(lp4125
I48
aI3
asg162
Nsg163
VShemot Rabbah 48:3
p4126
sg165
(lp4127
sg167
g118
sg168
Nsg169
(lp4128
I48
aI3
asg171
Nsg172
g4126
sg173
(lp4129
sg175
g60
sg176
Nsg177
Nsg178
Nsbag2
(g3
g4
Ntp4130
Rp4131
(dp4132
g8
g11
sg156
Nsg157
(dp4133
sg159
Nsg26
g29
sg160
(lp4134
I48
aI4
asg162
Nsg163
VShemot Rabbah 48:4
p4135
sg165
(lp4136
sg167
g118
sg168
Nsg169
(lp4137
I48
aI4
asg171
Nsg172
g4135
sg173
(lp4138
sg175
g60
sg176
Nsg177
Nsg178
Nsbag2
(g3
g4
Ntp4139
Rp4140
(dp4141
g8
g11
sg156
Nsg157
(dp4142
sg159
Nsg26
g29
sg160
(lp4143
I48
aI5
asg162
Nsg163
VShemot Rabbah 48:5
p4144
sg165
(lp4145
sg167
g118
sg168
Nsg169
(lp4146
I48
aI5
asg171
Nsg172
g4144
sg173
(lp4147
sg175
g60
sg176
Nsg177
Nsg178
Nsbag2
(g3
g4
Ntp4148
Rp4149
(dp4150
g8
g11
sg156
Nsg157
(dp4151
sg159
Nsg26
g29
sg160
(lp4152
I48
aI6
asg162
Nsg163
VShemot Rabbah 48:6
p4153
sg165
(lp4154
sg167
g118
sg168
Nsg169
(lp4155
I48
aI6
asg171
Nsg172
g4153
sg173
(lp4156
sg175
g60
sg176
Nsg177
Nsg178
Nsbag2
(g3
g4
Ntp4157
Rp4158
(dp4159
g8
g11
sg156
Nsg157
(dp4160
sg159
Nsg26
g29
sg160
(lp4161
I49
aI1
asg162
Nsg163
VShemot Rabbah 49:1
p4162
sg165
(lp4163
sg167
g118
sg168
Nsg169
(lp4164
I49
aI1
asg171
Nsg172
g4162
sg173
(lp4165
sg175
g60
sg176
Nsg177
Nsg178
Nsbag2
(g3
g4
Ntp4166
Rp4167
(dp4168
g8
g11
sg156
Nsg157
(dp4169
sg159
Nsg26
g29
sg160
(lp4170
I49
aI2
asg162
Nsg163
VShemot Rabbah 49:2
p4171
sg165
(lp4172
sg167
g118
sg168
Nsg169
(lp4173
I49
aI2
asg171
Nsg172
g4171
sg173
(lp4174
sg175
g60
sg176
Nsg177
Nsg178
Nsbag2
(g3
g4
Ntp4175
Rp4176
(dp4177
g8
g11
sg156
Nsg157
(dp4178
sg159
Nsg26
g29
sg160
(lp4179
I50
aI1
asg162
Nsg163
VShemot Rabbah 50:1
p4180
sg165
(lp4181
sg167
g118
sg168
Nsg169
(lp4182
I50
aI1
asg171
Nsg172
g4180
sg173
(lp4183
sg175
g60
sg176
Nsg177
Nsg178
Nsbag2
(g3
g4
Ntp4184
Rp4185
(dp4186
g8
g11
sg156
Nsg157
(dp4187
sg159
Nsg26
g29
sg160
(lp4188
I50
aI2
asg162
Nsg163
VShemot Rabbah 50:2
p4189
sg165
(lp4190
sg167
g118
sg168
Nsg169
(lp4191
I50
aI2
asg171
Nsg172
g4189
sg173
(lp4192
sg175
g60
sg176
Nsg177
Nsg178
Nsbag2
(g3
g4
Ntp4193
Rp4194
(dp4195
g8
g11
sg156
Nsg157
(dp4196
sg159
Nsg26
g29
sg160
(lp4197
I50
aI3
asg162
Nsg163
VShemot Rabbah 50:3
p4198
sg165
(lp4199
sg167
g118
sg168
Nsg169
(lp4200
I50
aI3
asg171
Nsg172
g4198
sg173
(lp4201
sg175
g60
sg176
Nsg177
Nsg178
Nsbag2
(g3
g4
Ntp4202
Rp4203
(dp4204
g8
g11
sg156
Nsg157
(dp4205
sg159
Nsg26
g29
sg160
(lp4206
I50
aI4
asg162
Nsg163
VShemot Rabbah 50:4
p4207
sg165
(lp4208
sg167
g118
sg168
Nsg169
(lp4209
I50
aI4
asg171
Nsg172
g4207
sg173
(lp4210
sg175
g60
sg176
Nsg177
Nsg178
Nsbag2
(g3
g4
Ntp4211
Rp4212
(dp4213
g8
g11
sg156
Nsg157
(dp4214
sg159
Nsg26
g29
sg160
(lp4215
I50
aI5
asg162
Nsg163
VShemot Rabbah 50:5
p4216
sg165
(lp4217
sg167
g118
sg168
Nsg169
(lp4218
I50
aI5
asg171
Nsg172
g4216
sg173
(lp4219
sg175
g60
sg176
Nsg177
Nsg178
Nsbag2
(g3
g4
Ntp4220
Rp4221
(dp4222
g8
g11
sg156
Nsg157
(dp4223
sg159
Nsg26
g29
sg160
(lp4224
I51
aI1
asg162
Nsg163
VShemot Rabbah 51:1
p4225
sg165
(lp4226
sg167
g118
sg168
Nsg169
(lp4227
I51
aI1
asg171
Nsg172
g4225
sg173
(lp4228
sg175
g60
sg176
Nsg177
Nsg178
Nsbag2
(g3
g4
Ntp4229
Rp4230
(dp4231
g8
g11
sg156
Nsg157
(dp4232
sg159
Nsg26
g29
sg160
(lp4233
I51
aI2
asg162
Nsg163
VShemot Rabbah 51:2
p4234
sg165
(lp4235
sg167
g118
sg168
Nsg169
(lp4236
I51
aI2
asg171
Nsg172
g4234
sg173
(lp4237
sg175
g60
sg176
Nsg177
Nsg178
Nsbag2
(g3
g4
Ntp4238
Rp4239
(dp4240
g8
g11
sg156
Nsg157
(dp4241
sg159
Nsg26
g29
sg160
(lp4242
I51
aI3
asg162
Nsg163
VShemot Rabbah 51:3
p4243
sg165
(lp4244
sg167
g118
sg168
Nsg169
(lp4245
I51
aI3
asg171
Nsg172
g4243
sg173
(lp4246
sg175
g60
sg176
Nsg177
Nsg178
Nsbag2
(g3
g4
Ntp4247
Rp4248
(dp4249
g8
g11
sg156
Nsg157
(dp4250
sg159
Nsg26
g29
sg160
(lp4251
I51
aI4
asg162
Nsg163
VShemot Rabbah 51:4
p4252
sg165
(lp4253
sg167
g118
sg168
Nsg169
(lp4254
I51
aI4
asg171
Nsg172
g4252
sg173
(lp4255
sg175
g60
sg176
Nsg177
Nsg178
Nsbag2
(g3
g4
Ntp4256
Rp4257
(dp4258
g8
g11
sg156
Nsg157
(dp4259
sg159
Nsg26
g29
sg160
(lp4260
I51
aI5
asg162
Nsg163
VShemot Rabbah 51:5
p4261
sg165
(lp4262
sg167
g118
sg168
Nsg169
(lp4263
I51
aI5
asg171
Nsg172
g4261
sg173
(lp4264
sg175
g60
sg176
Nsg177
Nsg178
Nsbag2
(g3
g4
Ntp4265
Rp4266
(dp4267
g8
g11
sg156
Nsg157
(dp4268
sg159
Nsg26
g29
sg160
(lp4269
I51
aI6
asg162
Nsg163
VShemot Rabbah 51:6
p4270
sg165
(lp4271
sg167
g118
sg168
Nsg169
(lp4272
I51
aI6
asg171
Nsg172
g4270
sg173
(lp4273
sg175
g60
sg176
Nsg177
Nsg178
Nsbag2
(g3
g4
Ntp4274
Rp4275
(dp4276
g8
g11
sg156
Nsg157
(dp4277
sg159
Nsg26
g29
sg160
(lp4278
I51
aI7
asg162
Nsg163
VShemot Rabbah 51:7
p4279
sg165
(lp4280
sg167
g118
sg168
Nsg169
(lp4281
I51
aI7
asg171
Nsg172
g4279
sg173
(lp4282
sg175
g60
sg176
Nsg177
Nsg178
Nsbag2
(g3
g4
Ntp4283
Rp4284
(dp4285
g8
g11
sg156
Nsg157
(dp4286
sg159
Nsg26
g29
sg160
(lp4287
I51
aI8
asg162
Nsg163
VShemot Rabbah 51:8
p4288
sg165
(lp4289
sg167
g118
sg168
Nsg169
(lp4290
I51
aI8
asg171
Nsg172
g4288
sg173
(lp4291
sg175
g60
sg176
Nsg177
Nsg178
Nsbag2
(g3
g4
Ntp4292
Rp4293
(dp4294
g8
g11
sg156
Nsg157
(dp4295
sg159
Nsg26
g29
sg160
(lp4296
I52
aI1
asg162
Nsg163
VShemot Rabbah 52:1
p4297
sg165
(lp4298
sg167
g118
sg168
Nsg169
(lp4299
I52
aI1
asg171
Nsg172
g4297
sg173
(lp4300
sg175
g60
sg176
Nsg177
Nsg178
Nsbag2
(g3
g4
Ntp4301
Rp4302
(dp4303
g8
g11
sg156
Nsg157
(dp4304
sg159
Nsg26
g29
sg160
(lp4305
I52
aI2
asg162
Nsg163
VShemot Rabbah 52:2
p4306
sg165
(lp4307
sg167
g118
sg168
Nsg169
(lp4308
I52
aI2
asg171
Nsg172
g4306
sg173
(lp4309
sg175
g60
sg176
Nsg177
Nsg178
Nsbag2
(g3
g4
Ntp4310
Rp4311
(dp4312
g8
g11
sg156
Nsg157
(dp4313
sg159
Nsg26
g29
sg160
(lp4314
I52
aI3
asg162
Nsg163
VShemot Rabbah 52:3
p4315
sg165
(lp4316
sg167
g118
sg168
Nsg169
(lp4317
I52
aI3
asg171
Nsg172
g4315
sg173
(lp4318
sg175
g60
sg176
Nsg177
Nsg178
Nsbag2
(g3
g4
Ntp4319
Rp4320
(dp4321
g8
g11
sg156
Nsg157
(dp4322
sg159
Nsg26
g29
sg160
(lp4323
I52
aI4
asg162
Nsg163
VShemot Rabbah 52:4
p4324
sg165
(lp4325
sg167
g118
sg168
Nsg169
(lp4326
I52
aI4
asg171
Nsg172
g4324
sg173
(lp4327
sg175
g60
sg176
Nsg177
Nsg178
Nsbag2
(g3
g4
Ntp4328
Rp4329
(dp4330
g8
g11
sg156
Nsg157
(dp4331
sg159
Nsg26
g29
sg160
(lp4332
I52
aI5
asg162
Nsg163
VShemot Rabbah 52:5
p4333
sg165
(lp4334
sg167
g118
sg168
Nsg169
(lp4335
I52
aI5
asg171
Nsg172
g4333
sg173
(lp4336
sg175
g60
sg176
Nsg177
Nsg178
Nsbatp4337
.