((lp0
I0
aI48
aI269
aI352
aI454
aI782
aI826
aI1013
aI1044
aI1477
aI1631
aI1779
aI1860
aI1955
aI2009
aI2180
aI2553
aI2690
aI2901
aI3002
aI3454
aI4044
aI4080
aI4324
aI4560
aI4799
aI4832
aI4987
aI5129
aI5252
aI5388
aI5592
aI5787
aI5987
aI6091
aI6293
aI6688
aI7384
aI7669
aI8394
aI8846
aI8911
aI9083
aI9306
aI9479
aI9515
aI10389
aI10665
aI10757
aI11117
aI11208
aI11237
aI11363
aI11528
aI11586
aI11747
aI12055
aI12420
aI12644
aI12827
aI12868
aI13582
aI13930
aI14001
aI14119
aI14439
aI14625
aI14884
aI15056
aI15166
aI15213
aI15356
aI15397
aI15481
aI15609
aI15692
aI15772
aI15850
aI15904
aI15966
aI16184
aI16288
aI16421
aI16725
aI16991
aI17059
aI17183
aI17266
aI17330
aI17571
aI17643
aI17749
aI18054
aI18239
aI18551
aI18692
aI18779
aI18932
aI19061
aI19288
aI19320
aI19378
aI19539
aI19671
aI19917
aI20843
aI20914
aI21139
aI21197
aI21389
aI21488
aI21721
aI21801
aI21813
aI21948
aI22079
aI22148
aI22217
aI22696
aI22848
aI23136
aI23493
aI23620
aI24120
aI24658
aI24746
aI24889
aI25299
aI25360
aI25466
aI25674
aI25901
aI25999
aI26068
aI26225
aI26670
aI26726
aI26844
aI27092
aI27473
aI27533
aI28054
aI28332
aI28645
aI29823
aI29969
aI30189
aI30297
aI30619
aI30918
aI31205
aI31308
aI31669
aI32022
aI32411
aI32634
aI32884
aI34077
aI34345
aI35071
aI35389
aI35517
aI36336
aI36449
aI37486
aI37668
aI38030
aI38078
aI38206
aI38699
aI38859
aI39288
aI39515
aI40202
aI40621
aI41527
aI41656
aI42162
aI42843
aI43069
aI43115
aI43129
aI43199
aI43259
aI43353
aI43391
aI43546
aI43617
aI43653
aI43660
aI43814
aI43998
aI44324
aI45116
aI45174
aI45227
aI45277
aI45440
aI45572
aI45610
aI45637
aI45796
aI45873
aI45997
aI46147
aI46244
aI46532
aI46576
aI46687
aI46994
aI47303
aI47496
aI47593
aI47611
aI47643
aI47811
aI48039
aI48129
aI48335
aI48423
aI48439
aI48475
aI48503
aI48596
aI48707
aI48936
aI49014
aI49045
aI49124
aI49157
aI49190
aI49584
aI49683
aI49731
aI49837
aI49887
aI49907
aI49972
aI50064
aI50107
aI50318
aI50407
aI50430
aI50560
aI50646
aI50684
aI50752
aI50843
aI50921
aI51110
aI51423
aI51514
aI51845
aI52100
aI52191
aI52209
aI52301
aI52403
aI52502
aI52594
aI53091
aI53158
aI53226
aI53278
aI53416
aI53471
aI53578
aI53652
aI53947
aI54048
aI54087
aI54225
aI54391
aI54442
aI54499
aI54564
aI54749
aI54782
aI54972
aI55200
aI55318
aI55403
aI55515
aI55586
aI55853
aI55938
aI55999
aI56211
aI56235
aI56317
aI56428
a(lp1
ccopy_reg
_reconstructor
p2
(csefaria.model.text
Ref
p3
c__builtin__
object
p4
Ntp5
Rp6
(dp7
S'index_node'
p8
g2
(csefaria.model.schema
JaggedArrayNode
p9
g4
Ntp10
Rp11
(dp12
S'_address'
p13
(lp14
VSifrei Bamidbar
p15
asS'_full_titles'
p16
(dp17
sVnodeType
p18
VJaggedArrayNode
p19
sS'parent'
p20
NsVaddressTypes
p21
(lp22
VInteger
p23
aVInteger
p24
asS'default'
p25
I00
sS'index'
p26
g2
(csefaria.model.text
Index
p27
g4
Ntp28
Rp29
(dp30
S'struct_objs'
p31
(dp32
VParasha
p33
g2
(csefaria.model.schema
TitledTreeNode
p34
g4
Ntp35
Rp36
(dp37
g16
(dp38
sg20
Nsg25
I00
sS'_primary_title'
p39
(dp40
sS'title_group'
p41
g2
(csefaria.model.schema
TitleGroup
p42
g4
Ntp43
Rp44
(dp45
g39
(dp46
S'en'
p47
VSifrei Bamidbar
p48
ssS'titles'
p49
(lp50
(dp51
Vlang
p52
Ven
p53
sVtext
p54
VSiphre bamidbar
p55
sa(dp56
Vlang
p57
Vhe
p58
sVtext
p59
V\u05e1\u05e4\u05e8\u05d9 \u05d1\u05de\u05d3\u05d1\u05e8
p60
sVprimary
p61
I01
sa(dp62
Vlang
p63
Ven
p64
sVtext
p65
g48
sVprimary
p66
I01
sasbsS'sharedTitle'
p67
NsS'_full_title'
p68
(dp69
sS'_leaf_nodes'
p70
(lp71
sS'children'
p72
(lp73
g2
(csefaria.model.schema
ArrayMapNode
p74
g4
Ntp75
Rp76
(dp77
g16
(dp78
sVwholeRef
p79
VSifrei Bamidbar 1:1-58:2
p80
sg20
g36
sVaddressTypes
p81
(lp82
sg25
I00
sg39
(dp83
sg41
g2
(g42
g4
Ntp84
Rp85
(dp86
g39
(dp87
g47
VNasso
p88
ssg49
(lp89
(dp90
Vlang
p91
Ven
p92
sVtext
p93
g88
sVprimary
p94
I01
sa(dp95
Vlang
p96
Vhe
p97
sVtext
p98
V\u05e0\u05e9\u05d0
p99
sVprimary
p100
I01
sasbsS'_addressTypes'
p101
(lp102
sg67
NsVdepth
p103
I0
sg68
(dp104
sS'_regexes'
p105
(dp106
sVnodeType
p107
VArrayMapNode
p108
sg70
(lp109
sVsectionNames
p110
(lp111
sg72
(lp112
sVrefs
p113
(lp114
sVincludeSections
p115
I01
sbag2
(g74
g4
Ntp116
Rp117
(dp118
g16
(dp119
sVwholeRef
p120
VSifrei Bamidbar 59:1-106:1
p121
sg20
g36
sVaddressTypes
p122
(lp123
sg25
I00
sg39
(dp124
sg41
g2
(g42
g4
Ntp125
Rp126
(dp127
g39
(dp128
g47
VBeha'alotcha
p129
ssg49
(lp130
(dp131
Vlang
p132
Ven
p133
sVtext
p134
g129
sVprimary
p135
I01
sa(dp136
Vlang
p137
Vhe
p138
sVtext
p139
V\u05d1\u05d4\u05e2\u05dc\u05ea\u05da
p140
sVprimary
p141
I01
sasbsg101
(lp142
sg67
NsVdepth
p143
I0
sg68
(dp144
sg105
(dp145
sVnodeType
p146
VArrayMapNode
p147
sg70
(lp148
sVsectionNames
p149
(lp150
sg72
(lp151
sVrefs
p152
(lp153
sVincludeSections
p154
I01
sbag2
(g74
g4
Ntp155
Rp156
(dp157
g16
(dp158
sVwholeRef
p159
VSifrei Bamidbar 107:1-115:2
p160
sg20
g36
sVaddressTypes
p161
(lp162
sg25
I00
sg39
(dp163
sg41
g2
(g42
g4
Ntp164
Rp165
(dp166
g39
(dp167
g47
VSh\u2019lach
p168
ssg49
(lp169
(dp170
Vlang
p171
Ven
p172
sVtext
p173
g168
sVprimary
p174
I01
sa(dp175
Vlang
p176
Vhe
p177
sVtext
p178
V\u05e9\u05dc\u05d7 \u05dc\u05da
p179
sVprimary
p180
I01
sasbsg101
(lp181
sg67
NsVdepth
p182
I0
sg68
(dp183
sg105
(dp184
sVnodeType
p185
VArrayMapNode
p186
sg70
(lp187
sVsectionNames
p188
(lp189
sg72
(lp190
sVrefs
p191
(lp192
sVincludeSections
p193
I01
sbag2
(g74
g4
Ntp194
Rp195
(dp196
g16
(dp197
sVwholeRef
p198
VSifrei Bamidbar 116:1-122:1
p199
sg20
g36
sVaddressTypes
p200
(lp201
sg25
I00
sg39
(dp202
sg41
g2
(g42
g4
Ntp203
Rp204
(dp205
g39
(dp206
g47
VKorach
p207
ssg49
(lp208
(dp209
Vlang
p210
Ven
p211
sVtext
p212
g207
sVprimary
p213
I01
sa(dp214
Vlang
p215
Vhe
p216
sVtext
p217
V\u05e7\u05e8\u05d7
p218
sVprimary
p219
I01
sasbsg101
(lp220
sg67
NsVdepth
p221
I0
sg68
(dp222
sg105
(dp223
sVnodeType
p224
VArrayMapNode
p225
sg70
(lp226
sVsectionNames
p227
(lp228
sg72
(lp229
sVrefs
p230
(lp231
sVincludeSections
p232
I01
sbag2
(g74
g4
Ntp233
Rp234
(dp235
g16
(dp236
sVwholeRef
p237
VSifrei Bamidbar 123:1-130:1
p238
sg20
g36
sVaddressTypes
p239
(lp240
sg25
I00
sg39
(dp241
sg41
g2
(g42
g4
Ntp242
Rp243
(dp244
g39
(dp245
g47
VChukat
p246
ssg49
(lp247
(dp248
Vlang
p249
Ven
p250
sVtext
p251
g246
sVprimary
p252
I01
sa(dp253
Vlang
p254
Vhe
p255
sVtext
p256
V\u05d7\u05e7\u05ea
p257
sVprimary
p258
I01
sasbsg101
(lp259
sg67
NsVdepth
p260
I0
sg68
(dp261
sg105
(dp262
sVnodeType
p263
VArrayMapNode
p264
sg70
(lp265
sVsectionNames
p266
(lp267
sg72
(lp268
sVrefs
p269
(lp270
sVincludeSections
p271
I01
sbag2
(g74
g4
Ntp272
Rp273
(dp274
g16
(dp275
sVwholeRef
p276
VSifrei Bamidbar 131:1-5
p277
sg20
g36
sVaddressTypes
p278
(lp279
sg25
I00
sg39
(dp280
sg41
g2
(g42
g4
Ntp281
Rp282
(dp283
g39
(dp284
g47
VBalak
p285
ssg49
(lp286
(dp287
Vlang
p288
Ven
p289
sVtext
p290
g285
sVprimary
p291
I01
sa(dp292
Vlang
p293
Vhe
p294
sVtext
p295
V\u05d1\u05dc\u05e7
p296
sVprimary
p297
I01
sasbsg101
(lp298
sg67
NsVdepth
p299
I0
sg68
(dp300
sg105
(dp301
sVnodeType
p302
VArrayMapNode
p303
sg70
(lp304
sVsectionNames
p305
(lp306
sg72
(lp307
sVrefs
p308
(lp309
sVincludeSections
p310
I01
sbag2
(g74
g4
Ntp311
Rp312
(dp313
g16
(dp314
sVwholeRef
p315
VSifrei Bamidbar 132:1-152:1
p316
sg20
g36
sVaddressTypes
p317
(lp318
sg25
I00
sg39
(dp319
sg41
g2
(g42
g4
Ntp320
Rp321
(dp322
g39
(dp323
g47
VPinchas
p324
ssg49
(lp325
(dp326
Vlang
p327
Ven
p328
sVtext
p329
g324
sVprimary
p330
I01
sa(dp331
Vlang
p332
Vhe
p333
sVtext
p334
V\u05e4\u05d9\u05e0\u05d7\u05e1
p335
sVprimary
p336
I01
sasbsg101
(lp337
sg67
NsVdepth
p338
I0
sg68
(dp339
sg105
(dp340
sVnodeType
p341
VArrayMapNode
p342
sg70
(lp343
sVsectionNames
p344
(lp345
sg72
(lp346
sVrefs
p347
(lp348
sVincludeSections
p349
I01
sbag2
(g74
g4
Ntp350
Rp351
(dp352
g16
(dp353
sVwholeRef
p354
VSifrei Bamidbar 153:1-158:3
p355
sg20
g36
sVaddressTypes
p356
(lp357
sg25
I00
sg39
(dp358
sg41
g2
(g42
g4
Ntp359
Rp360
(dp361
g39
(dp362
g47
VMatot
p363
ssg49
(lp364
(dp365
Vlang
p366
Ven
p367
sVtext
p368
g363
sVprimary
p369
I01
sa(dp370
Vlang
p371
Vhe
p372
sVtext
p373
V\u05de\u05d8\u05d5\u05ea
p374
sVprimary
p375
I01
sasbsg101
(lp376
sg67
NsVdepth
p377
I0
sg68
(dp378
sg105
(dp379
sVnodeType
p380
VArrayMapNode
p381
sg70
(lp382
sVsectionNames
p383
(lp384
sg72
(lp385
sVrefs
p386
(lp387
sVincludeSections
p388
I01
sbag2
(g74
g4
Ntp389
Rp390
(dp391
g16
(dp392
sVwholeRef
p393
VSifrei Bamidbar 158:4-160:15
p394
sg20
g36
sVaddressTypes
p395
(lp396
sg25
I00
sg39
(dp397
sg41
g2
(g42
g4
Ntp398
Rp399
(dp400
g39
(dp401
g47
VMasei
p402
ssg49
(lp403
(dp404
Vlang
p405
Ven
p406
sVtext
p407
g402
sVprimary
p408
I01
sa(dp409
Vlang
p410
Vhe
p411
sVtext
p412
V\u05de\u05e1\u05e2\u05d9
p413
sVprimary
p414
I01
sasbsg101
(lp415
sg67
NsVdepth
p416
I0
sg68
(dp417
sg105
(dp418
sVnodeType
p419
VArrayMapNode
p420
sg70
(lp421
sVsectionNames
p422
(lp423
sg72
(lp424
sVrefs
p425
(lp426
sVincludeSections
p427
I01
sbasbsVChapters
p428
g2
(g34
g4
Ntp429
Rp430
(dp431
g16
(dp432
sg20
Nsg25
I00
sg39
(dp433
sg41
g44
sg67
Nsg68
(dp434
sg70
(lp435
sg72
(lp436
g2
(g74
g4
Ntp437
Rp438
(dp439
g16
(dp440
sVwholeRef
p441
VSifrei Bamidbar 1:1-21:1
p442
sg20
g430
sVaddressTypes
p443
(lp444
sg25
I00
sg39
(dp445
sg41
g2
(g42
g4
Ntp446
Rp447
(dp448
g39
(dp449
g47
VChapter 5
p450
ssg49
(lp451
(dp452
Vlang
p453
Ven
p454
sVtext
p455
g450
sVprimary
p456
I01
sa(dp457
Vlang
p458
Vhe
p459
sVtext
p460
V\u05e4\u05e8\u05e7 \u05d4
p461
sVprimary
p462
I01
sasbsg101
(lp463
sg67
NsVdepth
p464
I0
sg68
(dp465
sg105
(dp466
sVnodeType
p467
VArrayMapNode
p468
sg70
(lp469
sVsectionNames
p470
(lp471
VPiska
p472
asg72
(lp473
sVrefs
p474
(lp475
sVincludeSections
p476
I01
sbag2
(g74
g4
Ntp477
Rp478
(dp479
g16
(dp480
sVwholeRef
p481
VSifrei Bamidbar 22:1-43:1
p482
sg20
g430
sVaddressTypes
p483
(lp484
sg25
I00
sg39
(dp485
sg41
g2
(g42
g4
Ntp486
Rp487
(dp488
g39
(dp489
g47
VChapter 6
p490
ssg49
(lp491
(dp492
Vlang
p493
Ven
p494
sVtext
p495
g490
sVprimary
p496
I01
sa(dp497
Vlang
p498
Vhe
p499
sVtext
p500
V\u05e4\u05e8\u05e7 \u05d5
p501
sVprimary
p502
I01
sasbsg101
(lp503
sg67
NsVdepth
p504
I0
sg68
(dp505
sg105
(dp506
sVnodeType
p507
VArrayMapNode
p508
sg70
(lp509
sVsectionNames
p510
(lp511
VPiska
p512
asg72
(lp513
sVrefs
p514
(lp515
sVincludeSections
p516
I01
sbag2
(g74
g4
Ntp517
Rp518
(dp519
g16
(dp520
sVwholeRef
p521
VSifrei Bamidbar 44:1-59:1
p522
sg20
g430
sVaddressTypes
p523
(lp524
sg25
I00
sg39
(dp525
sg41
g2
(g42
g4
Ntp526
Rp527
(dp528
g39
(dp529
g47
VChapter 7
p530
ssg49
(lp531
(dp532
Vlang
p533
Ven
p534
sVtext
p535
g530
sVprimary
p536
I01
sa(dp537
Vlang
p538
Vhe
p539
sVtext
p540
V\u05e4\u05e8\u05e7 \u05d6
p541
sVprimary
p542
I01
sasbsg101
(lp543
sg67
NsVdepth
p544
I0
sg68
(dp545
sg105
(dp546
sVnodeType
p547
VArrayMapNode
p548
sg70
(lp549
sVsectionNames
p550
(lp551
VPiska
p552
asg72
(lp553
sVrefs
p554
(lp555
sVincludeSections
p556
I01
sbag2
(g74
g4
Ntp557
Rp558
(dp559
g16
(dp560
sVwholeRef
p561
VSifrei Bamidbar 60:1-63:2
p562
sg20
g430
sVaddressTypes
p563
(lp564
sg25
I00
sg39
(dp565
sg41
g2
(g42
g4
Ntp566
Rp567
(dp568
g39
(dp569
g47
VChapter 8
p570
ssg49
(lp571
(dp572
Vlang
p573
Ven
p574
sVtext
p575
g570
sVprimary
p576
I01
sa(dp577
Vlang
p578
Vhe
p579
sVtext
p580
V\u05e4\u05e8\u05e7 \u05d7
p581
sVprimary
p582
I01
sasbsg101
(lp583
sg67
NsVdepth
p584
I0
sg68
(dp585
sg105
(dp586
sVnodeType
p587
VArrayMapNode
p588
sg70
(lp589
sVsectionNames
p590
(lp591
VPiska
p592
asg72
(lp593
sVrefs
p594
(lp595
sVincludeSections
p596
I01
sbag2
(g74
g4
Ntp597
Rp598
(dp599
g16
(dp600
sVwholeRef
p601
VSifrei Bamidbar 64:1-71:1
p602
sg20
g430
sVaddressTypes
p603
(lp604
sg25
I00
sg39
(dp605
sg41
g2
(g42
g4
Ntp606
Rp607
(dp608
g39
(dp609
g47
VChapter 9
p610
ssg49
(lp611
(dp612
Vlang
p613
Ven
p614
sVtext
p615
g610
sVprimary
p616
I01
sa(dp617
Vlang
p618
Vhe
p619
sVtext
p620
V\u05e4\u05e8\u05e7 \u05d8
p621
sVprimary
p622
I01
sasbsg101
(lp623
sg67
NsVdepth
p624
I0
sg68
(dp625
sg105
(dp626
sVnodeType
p627
VArrayMapNode
p628
sg70
(lp629
sVsectionNames
p630
(lp631
VPiska
p632
asg72
(lp633
sVrefs
p634
(lp635
sVincludeSections
p636
I01
sbag2
(g74
g4
Ntp637
Rp638
(dp639
g16
(dp640
sVwholeRef
p641
VSifrei Bamidbar 72:1-84:4
p642
sg20
g430
sVaddressTypes
p643
(lp644
sg25
I00
sg39
(dp645
sg41
g2
(g42
g4
Ntp646
Rp647
(dp648
g39
(dp649
g47
VChapter 10
p650
ssg49
(lp651
(dp652
Vlang
p653
Ven
p654
sVtext
p655
g650
sVprimary
p656
I01
sa(dp657
Vlang
p658
Vhe
p659
sVtext
p660
V\u05e4\u05e8\u05e7 \u05d9
p661
sVprimary
p662
I01
sasbsg101
(lp663
sg67
NsVdepth
p664
I0
sg68
(dp665
sg105
(dp666
sVnodeType
p667
VArrayMapNode
p668
sg70
(lp669
sVsectionNames
p670
(lp671
VPiska
p672
asg72
(lp673
sVrefs
p674
(lp675
sVincludeSections
p676
I01
sbag2
(g74
g4
Ntp677
Rp678
(dp679
g16
(dp680
sVwholeRef
p681
VSifrei Bamidbar 85:1-98:1
p682
sg20
g430
sVaddressTypes
p683
(lp684
sg25
I00
sg39
(dp685
sg41
g2
(g42
g4
Ntp686
Rp687
(dp688
g39
(dp689
g47
VChapter 11
p690
ssg49
(lp691
(dp692
Vlang
p693
Ven
p694
sVtext
p695
g690
sVprimary
p696
I01
sa(dp697
Vlang
p698
Vhe
p699
sVtext
p700
V\u05e4\u05e8\u05e7 \u05d9\u05d0
p701
sVprimary
p702
I01
sasbsg101
(lp703
sg67
NsVdepth
p704
I0
sg68
(dp705
sg105
(dp706
sVnodeType
p707
VArrayMapNode
p708
sg70
(lp709
sVsectionNames
p710
(lp711
VPiska
p712
asg72
(lp713
sVrefs
p714
(lp715
sVincludeSections
p716
I01
sbag2
(g74
g4
Ntp717
Rp718
(dp719
g16
(dp720
sVwholeRef
p721
VSifrei Bamidbar 99:1-106:1
p722
sg20
g430
sVaddressTypes
p723
(lp724
sg25
I00
sg39
(dp725
sg41
g2
(g42
g4
Ntp726
Rp727
(dp728
g39
(dp729
g47
VChapter 12
p730
ssg49
(lp731
(dp732
Vlang
p733
Ven
p734
sVtext
p735
g730
sVprimary
p736
I01
sa(dp737
Vlang
p738
Vhe
p739
sVtext
p740
V\u05e4\u05e8\u05e7 \u05d9\u05d1
p741
sVprimary
p742
I01
sasbsg101
(lp743
sg67
NsVdepth
p744
I0
sg68
(dp745
sg105
(dp746
sVnodeType
p747
VArrayMapNode
p748
sg70
(lp749
sVsectionNames
p750
(lp751
VPiska
p752
asg72
(lp753
sVrefs
p754
(lp755
sVincludeSections
p756
I01
sbag2
(g74
g4
Ntp757
Rp758
(dp759
g16
(dp760
sVwholeRef
p761
VSifrei Bamidbar 107:1-115:2
p762
sg20
g430
sVaddressTypes
p763
(lp764
sg25
I00
sg39
(dp765
sg41
g2
(g42
g4
Ntp766
Rp767
(dp768
g39
(dp769
g47
VChapter 15
p770
ssg49
(lp771
(dp772
Vlang
p773
Ven
p774
sVtext
p775
g770
sVprimary
p776
I01
sa(dp777
Vlang
p778
Vhe
p779
sVtext
p780
V\u05e4\u05e8\u05e7 \u05d8\u05d5
p781
sVprimary
p782
I01
sasbsg101
(lp783
sg67
NsVdepth
p784
I0
sg68
(dp785
sg105
(dp786
sVnodeType
p787
VArrayMapNode
p788
sg70
(lp789
sVsectionNames
p790
(lp791
VPiska
p792
asg72
(lp793
sVrefs
p794
(lp795
sVincludeSections
p796
I01
sbag2
(g74
g4
Ntp797
Rp798
(dp799
g16
(dp800
sVwholeRef
p801
VSifrei Bamidbar 116:1-122:1
p802
sg20
g430
sVaddressTypes
p803
(lp804
sg25
I00
sg39
(dp805
sg41
g2
(g42
g4
Ntp806
Rp807
(dp808
g39
(dp809
g47
VChapter 18
p810
ssg49
(lp811
(dp812
Vlang
p813
Ven
p814
sVtext
p815
g810
sVprimary
p816
I01
sa(dp817
Vlang
p818
Vhe
p819
sVtext
p820
V\u05e4\u05e8\u05e7 \u05d9\u05d7
p821
sVprimary
p822
I01
sasbsg101
(lp823
sg67
NsVdepth
p824
I0
sg68
(dp825
sg105
(dp826
sVnodeType
p827
VArrayMapNode
p828
sg70
(lp829
sVsectionNames
p830
(lp831
VPiska
p832
asg72
(lp833
sVrefs
p834
(lp835
sVincludeSections
p836
I01
sbag2
(g74
g4
Ntp837
Rp838
(dp839
g16
(dp840
sVwholeRef
p841
VSifrei Bamidbar 123:1-130:1
p842
sg20
g430
sVaddressTypes
p843
(lp844
sg25
I00
sg39
(dp845
sg41
g2
(g42
g4
Ntp846
Rp847
(dp848
g39
(dp849
g47
VChapter 19
p850
ssg49
(lp851
(dp852
Vlang
p853
Ven
p854
sVtext
p855
g850
sVprimary
p856
I01
sa(dp857
Vlang
p858
Vhe
p859
sVtext
p860
V\u05e4\u05e8\u05e7 \u05d9\u05d8
p861
sVprimary
p862
I01
sasbsg101
(lp863
sg67
NsVdepth
p864
I0
sg68
(dp865
sg105
(dp866
sVnodeType
p867
VArrayMapNode
p868
sg70
(lp869
sVsectionNames
p870
(lp871
VPiska
p872
asg72
(lp873
sVrefs
p874
(lp875
sVincludeSections
p876
I01
sbag2
(g74
g4
Ntp877
Rp878
(dp879
g16
(dp880
sVwholeRef
p881
VSifrei Bamidbar 131:1-5
p882
sg20
g430
sVaddressTypes
p883
(lp884
sg25
I00
sg39
(dp885
sg41
g2
(g42
g4
Ntp886
Rp887
(dp888
g39
(dp889
g47
VChapter 25
p890
ssg49
(lp891
(dp892
Vlang
p893
Ven
p894
sVtext
p895
g890
sVprimary
p896
I01
sa(dp897
Vlang
p898
Vhe
p899
sVtext
p900
V\u05e4\u05e8\u05e7 \u05db\u05d4
p901
sVprimary
p902
I01
sasbsg101
(lp903
sg67
NsVdepth
p904
I0
sg68
(dp905
sg105
(dp906
sVnodeType
p907
VArrayMapNode
p908
sg70
(lp909
sVsectionNames
p910
(lp911
VPiska
p912
asg72
(lp913
sVrefs
p914
(lp915
sVincludeSections
p916
I01
sbag2
(g74
g4
Ntp917
Rp918
(dp919
g16
(dp920
sVwholeRef
p921
VSifrei Bamidbar 132:1-4
p922
sg20
g430
sVaddressTypes
p923
(lp924
sg25
I00
sg39
(dp925
sg41
g2
(g42
g4
Ntp926
Rp927
(dp928
g39
(dp929
g47
VChapter 26
p930
ssg49
(lp931
(dp932
Vlang
p933
Ven
p934
sVtext
p935
g930
sVprimary
p936
I01
sa(dp937
Vlang
p938
Vhe
p939
sVtext
p940
V\u05e4\u05e8\u05e7 \u05db\u05d5
p941
sVprimary
p942
I01
sasbsg101
(lp943
sg67
NsVdepth
p944
I0
sg68
(dp945
sg105
(dp946
sVnodeType
p947
VArrayMapNode
p948
sg70
(lp949
sVsectionNames
p950
(lp951
VPiska
p952
asg72
(lp953
sVrefs
p954
(lp955
sVincludeSections
p956
I01
sbag2
(g74
g4
Ntp957
Rp958
(dp959
g16
(dp960
sVwholeRef
p961
VSifrei Bamidbar 133:1-141:3
p962
sg20
g430
sVaddressTypes
p963
(lp964
sg25
I00
sg39
(dp965
sg41
g2
(g42
g4
Ntp966
Rp967
(dp968
g39
(dp969
g47
VChapter 27
p970
ssg49
(lp971
(dp972
Vlang
p973
Ven
p974
sVtext
p975
g970
sVprimary
p976
I01
sa(dp977
Vlang
p978
Vhe
p979
sVtext
p980
V\u05e4\u05e8\u05e7 \u05db\u05d6
p981
sVprimary
p982
I01
sasbsg101
(lp983
sg67
NsVdepth
p984
I0
sg68
(dp985
sg105
(dp986
sVnodeType
p987
VArrayMapNode
p988
sg70
(lp989
sVsectionNames
p990
(lp991
VPiska
p992
asg72
(lp993
sVrefs
p994
(lp995
sVincludeSections
p996
I01
sbag2
(g74
g4
Ntp997
Rp998
(dp999
g16
(dp1000
sVwholeRef
p1001
VSifrei Bamidbar 142:1-149:2
p1002
sg20
g430
sVaddressTypes
p1003
(lp1004
sg25
I00
sg39
(dp1005
sg41
g2
(g42
g4
Ntp1006
Rp1007
(dp1008
g39
(dp1009
g47
VChapter 28
p1010
ssg49
(lp1011
(dp1012
Vlang
p1013
Ven
p1014
sVtext
p1015
g1010
sVprimary
p1016
I01
sa(dp1017
Vlang
p1018
Vhe
p1019
sVtext
p1020
V\u05e4\u05e8\u05e7 \u05db\u05d7
p1021
sVprimary
p1022
I01
sasbsg101
(lp1023
sg67
NsVdepth
p1024
I0
sg68
(dp1025
sg105
(dp1026
sVnodeType
p1027
VArrayMapNode
p1028
sg70
(lp1029
sVsectionNames
p1030
(lp1031
VPiska
p1032
asg72
(lp1033
sVrefs
p1034
(lp1035
sVincludeSections
p1036
I01
sbag2
(g74
g4
Ntp1037
Rp1038
(dp1039
g16
(dp1040
sVwholeRef
p1041
VSifrei Bamidbar 150:1-152:1
p1042
sg20
g430
sVaddressTypes
p1043
(lp1044
sg25
I00
sg39
(dp1045
sg41
g2
(g42
g4
Ntp1046
Rp1047
(dp1048
g39
(dp1049
g47
VChapter 29
p1050
ssg49
(lp1051
(dp1052
Vlang
p1053
Ven
p1054
sVtext
p1055
g1050
sVprimary
p1056
I01
sa(dp1057
Vlang
p1058
Vhe
p1059
sVtext
p1060
V\u05e4\u05e8\u05e7 \u05db\u05d8
p1061
sVprimary
p1062
I01
sasbsg101
(lp1063
sg67
NsVdepth
p1064
I0
sg68
(dp1065
sg105
(dp1066
sVnodeType
p1067
VArrayMapNode
p1068
sg70
(lp1069
sVsectionNames
p1070
(lp1071
VPiska
p1072
asg72
(lp1073
sVrefs
p1074
(lp1075
sVincludeSections
p1076
I01
sbag2
(g74
g4
Ntp1077
Rp1078
(dp1079
g16
(dp1080
sVwholeRef
p1081
VSifrei Bamidbar 153:1-156:3
p1082
sg20
g430
sVaddressTypes
p1083
(lp1084
sg25
I00
sg39
(dp1085
sg41
g2
(g42
g4
Ntp1086
Rp1087
(dp1088
g39
(dp1089
g47
VChapter 30
p1090
ssg49
(lp1091
(dp1092
Vlang
p1093
Ven
p1094
sVtext
p1095
g1090
sVprimary
p1096
I01
sa(dp1097
Vlang
p1098
Vhe
p1099
sVtext
p1100
V\u05e4\u05e8\u05e7 \u05dc
p1101
sVprimary
p1102
I01
sasbsg101
(lp1103
sg67
NsVdepth
p1104
I0
sg68
(dp1105
sg105
(dp1106
sVnodeType
p1107
VArrayMapNode
p1108
sg70
(lp1109
sVsectionNames
p1110
(lp1111
VPiska
p1112
asg72
(lp1113
sVrefs
p1114
(lp1115
sVincludeSections
p1116
I01
sbag2
(g74
g4
Ntp1117
Rp1118
(dp1119
g16
(dp1120
sVwholeRef
p1121
VSifrei Bamidbar 157:1-158:3
p1122
sg20
g430
sVaddressTypes
p1123
(lp1124
sg25
I00
sg39
(dp1125
sg41
g2
(g42
g4
Ntp1126
Rp1127
(dp1128
g39
(dp1129
g47
VChapter 31
p1130
ssg49
(lp1131
(dp1132
Vlang
p1133
Ven
p1134
sVtext
p1135
g1130
sVprimary
p1136
I01
sa(dp1137
Vlang
p1138
Vhe
p1139
sVtext
p1140
V\u05e4\u05e8\u05e7 \u05dc\u05d0
p1141
sVprimary
p1142
I01
sasbsg101
(lp1143
sg67
NsVdepth
p1144
I0
sg68
(dp1145
sg105
(dp1146
sVnodeType
p1147
VArrayMapNode
p1148
sg70
(lp1149
sVsectionNames
p1150
(lp1151
VPiska
p1152
asg72
(lp1153
sVrefs
p1154
(lp1155
sVincludeSections
p1156
I01
sbasbssS'schema'
p1157
(dp1158
g18
g19
sg21
g22
sVdepth
p1159
I2
sVtitles
p1160
g50
sVkey
p1161
g15
sVsectionNames
p1162
(lp1163
VPiska
p1164
aVParagraph
p1165
assS'pkeys_orig_values'
p1166
(dp1167
S'title'
p1168
VSifrei Bamidbar
p1169
ssS'alt_structs'
p1170
(dp1171
g33
(dp1172
Vnodes
p1173
(lp1174
(dp1175
g79
g80
sg81
g82
sg113
g114
sg103
I0
sVtitles
p1176
g89
sg107
g108
sg110
g111
sg115
I01
sa(dp1177
g120
g121
sg122
g123
sg152
g153
sg143
I0
sVtitles
p1178
g130
sg146
g147
sg149
g150
sg154
I01
sa(dp1179
g159
g160
sg161
g162
sg191
g192
sg182
I0
sVtitles
p1180
g169
sg185
g186
sg188
g189
sg193
I01
sa(dp1181
g198
g199
sg200
g201
sg230
g231
sg221
I0
sVtitles
p1182
g208
sg224
g225
sg227
g228
sg232
I01
sa(dp1183
g237
g238
sg239
g240
sg269
g270
sg260
I0
sVtitles
p1184
g247
sg263
g264
sg266
g267
sg271
I01
sa(dp1185
g276
g277
sg278
g279
sg308
g309
sg299
I0
sVtitles
p1186
g286
sg302
g303
sg305
g306
sg310
I01
sa(dp1187
g315
g316
sg317
g318
sg347
g348
sg338
I0
sVtitles
p1188
g325
sg341
g342
sg344
g345
sg349
I01
sa(dp1189
g354
g355
sg356
g357
sg386
g387
sg377
I0
sVtitles
p1190
g364
sg380
g381
sg383
g384
sg388
I01
sa(dp1191
g393
g394
sg395
g396
sg425
g426
sg416
I0
sVtitles
p1192
g403
sg419
g420
sg422
g423
sg427
I01
sassg428
(dp1193
Vnodes
p1194
(lp1195
(dp1196
g441
g442
sg443
g444
sg474
g475
sg464
I0
sVtitles
p1197
g451
sg467
g468
sg470
g471
sg476
I01
sa(dp1198
g481
g482
sg483
g484
sg514
g515
sg504
I0
sVtitles
p1199
g491
sg507
g508
sg510
g511
sg516
I01
sa(dp1200
g521
g522
sg523
g524
sg554
g555
sg544
I0
sVtitles
p1201
g531
sg547
g548
sg550
g551
sg556
I01
sa(dp1202
g561
g562
sg563
g564
sg594
g595
sg584
I0
sVtitles
p1203
g571
sg587
g588
sg590
g591
sg596
I01
sa(dp1204
g601
g602
sg603
g604
sg634
g635
sg624
I0
sVtitles
p1205
g611
sg627
g628
sg630
g631
sg636
I01
sa(dp1206
g641
g642
sg643
g644
sg674
g675
sg664
I0
sVtitles
p1207
g651
sg667
g668
sg670
g671
sg676
I01
sa(dp1208
g681
g682
sg683
g684
sg714
g715
sg704
I0
sVtitles
p1209
g691
sg707
g708
sg710
g711
sg716
I01
sa(dp1210
g721
g722
sg723
g724
sg754
g755
sg744
I0
sVtitles
p1211
g731
sg747
g748
sg750
g751
sg756
I01
sa(dp1212
g761
g762
sg763
g764
sg794
g795
sg784
I0
sVtitles
p1213
g771
sg787
g788
sg790
g791
sg796
I01
sa(dp1214
g801
g802
sg803
g804
sg834
g835
sg824
I0
sVtitles
p1215
g811
sg827
g828
sg830
g831
sg836
I01
sa(dp1216
g841
g842
sg843
g844
sg874
g875
sg864
I0
sVtitles
p1217
g851
sg867
g868
sg870
g871
sg876
I01
sa(dp1218
g881
g882
sg883
g884
sg914
g915
sg904
I0
sVtitles
p1219
g891
sg907
g908
sg910
g911
sg916
I01
sa(dp1220
g921
g922
sg923
g924
sg954
g955
sg944
I0
sVtitles
p1221
g931
sg947
g948
sg950
g951
sg956
I01
sa(dp1222
g961
g962
sg963
g964
sg994
g995
sg984
I0
sVtitles
p1223
g971
sg987
g988
sg990
g991
sg996
I01
sa(dp1224
g1001
g1002
sg1003
g1004
sg1034
g1035
sg1024
I0
sVtitles
p1225
g1011
sg1027
g1028
sg1030
g1031
sg1036
I01
sa(dp1226
g1041
g1042
sg1043
g1044
sg1074
g1075
sg1064
I0
sVtitles
p1227
g1051
sg1067
g1068
sg1070
g1071
sg1076
I01
sa(dp1228
g1081
g1082
sg1083
g1084
sg1114
g1115
sg1104
I0
sVtitles
p1229
g1091
sg1107
g1108
sg1110
g1111
sg1116
I01
sa(dp1230
g1121
g1122
sg1123
g1124
sg1154
g1155
sg1144
I0
sVtitles
p1231
g1131
sg1147
g1148
sg1150
g1151
sg1156
I01
sasssS'pubDate'
p1232
V1546
p1233
sS'compDate'
p1234
V200
p1235
sS'pubPlace'
p1236
VVenice
p1237
sS'compPlace'
p1238
VTalmudic Israel/Babylon
p1239
sS'enDesc'
p1240
VSifrei (Books) also known as Sifrei debe Rav or Sifrei Rabbah refers to either of two works of Midrash halakhah, based on the biblical books of Bemidbar (Numbers) and Devarim (Deuteronomy). The earliest Sifrei is found in Talmudic times and successively cited by Geonim and Rishonim. This early version is certainly not identical with the modern Sifrei. The modern Sifrei is not a uniform work, but one composed of two parts, one on Numbers and one on Deuteronomy that were joined together. The Sifrei to Numbers is evidently a midrash which originated in R. Ishmael's school, and which has all the peculiarities and characteristics of such a work though this does not exclude borrowing form Mekhilta de R. Shimon. The Sifrei to Deuteronomy is of an entirely different nature. The main portion (Nos. 53-303), halakic in character, is preceded and followed by haggadic parts, and it has all the characteristics of a midrash from the school of R. Akiba. Several anonymous passages may be cited to express the views of R. Simeon; this midrash may with a fair degree of certainty be ascribed to him. The editor certainly drew upon other midrashic works besides R. Simeon's midrash, especially upon that of R. Ishmael.
p1241
sS'era'
p1242
VA
p1243
sS'authors'
p1244
(lp1245
sS'nodes'
p1246
g11
sS'_id'
p1247
g2
(cbson.objectid
ObjectId
p1248
g4
Ntp1249
Rp1250
S'V\x9d\x07\xa8\xd6\xe4\xa9y\xb4\n\x05\xf6'
p1251
bsS'_title'
p1252
g1169
sS'categories'
p1253
(lp1254
VMidrash
p1255
aVHalachic Midrash
p1256
asS'default_struct'
p1257
VChapters
p1258
sbsg39
(dp1259
sg41
g44
sg101
(lp1260
g2
(csefaria.model.schema
AddressInteger
p1261
g4
Ntp1262
Rp1263
(dp1264
S'length'
p1265
NsS'order'
p1266
I0
sbag2
(g1261
g4
Ntp1267
Rp1268
(dp1269
g1265
Nsg1266
I1
sbasg67
Nsg1159
I2
sg68
(dp1270
g47
g48
ssS'key'
p1271
g15
sS'checkFirst'
p1272
Nsg105
(dp1273
sg70
(lp1274
sg1162
g1163
sg72
(lp1275
sbsS'_range_index'
p1276
NsS'_context'
p1277
(dp1278
sS'_padded'
p1279
Nsg26
g29
sS'sections'
p1280
(lp1281
I1
aI1
asS'_first_spanned_ref'
p1282
NsS'tref'
p1283
VSifrei Bamidbar 1:1
p1284
sS'_spanned_refs'
p1285
(lp1286
sS'book'
p1287
g48
sS'_range_depth'
p1288
NsS'toSections'
p1289
(lp1290
I1
aI1
asS'_url'
p1291
NsS'_normal'
p1292
g1284
sS'_ranged_refs'
p1293
(lp1294
sS'type'
p1295
g1255
sS'_prev'
p1296
NsS'_he_normal'
p1297
NsS'_next'
p1298
Nsbag2
(g3
g4
Ntp1299
Rp1300
(dp1301
g8
g11
sg1276
Nsg1277
(dp1302
sg1279
Nsg26
g29
sg1280
(lp1303
I1
aI2
asg1282
Nsg1283
VSifrei Bamidbar 1:2
p1304
sg1285
(lp1305
sg1287
g48
sg1288
Nsg1289
(lp1306
I1
aI2
asg1291
Nsg1292
g1304
sg1293
(lp1307
sg1295
g1255
sg1296
Nsg1297
Nsg1298
Nsbag2
(g3
g4
Ntp1308
Rp1309
(dp1310
g8
g11
sg1276
Nsg1277
(dp1311
sg1279
Nsg26
g29
sg1280
(lp1312
I1
aI3
asg1282
Nsg1283
VSifrei Bamidbar 1:3
p1313
sg1285
(lp1314
sg1287
g48
sg1288
Nsg1289
(lp1315
I1
aI3
asg1291
Nsg1292
g1313
sg1293
(lp1316
sg1295
g1255
sg1296
Nsg1297
Nsg1298
Nsbag2
(g3
g4
Ntp1317
Rp1318
(dp1319
g8
g11
sg1276
Nsg1277
(dp1320
sg1279
Nsg26
g29
sg1280
(lp1321
I1
aI4
asg1282
Nsg1283
VSifrei Bamidbar 1:4
p1322
sg1285
(lp1323
sg1287
g48
sg1288
Nsg1289
(lp1324
I1
aI4
asg1291
Nsg1292
g1322
sg1293
(lp1325
sg1295
g1255
sg1296
Nsg1297
Nsg1298
Nsbag2
(g3
g4
Ntp1326
Rp1327
(dp1328
g8
g11
sg1276
Nsg1277
(dp1329
sg1279
Nsg26
g29
sg1280
(lp1330
I1
aI5
asg1282
Nsg1283
VSifrei Bamidbar 1:5
p1331
sg1285
(lp1332
sg1287
g48
sg1288
Nsg1289
(lp1333
I1
aI5
asg1291
Nsg1292
g1331
sg1293
(lp1334
sg1295
g1255
sg1296
Nsg1297
Nsg1298
Nsbag2
(g3
g4
Ntp1335
Rp1336
(dp1337
g8
g11
sg1276
Nsg1277
(dp1338
sg1279
Nsg26
g29
sg1280
(lp1339
I1
aI6
asg1282
Nsg1283
VSifrei Bamidbar 1:6
p1340
sg1285
(lp1341
sg1287
g48
sg1288
Nsg1289
(lp1342
I1
aI6
asg1291
Nsg1292
g1340
sg1293
(lp1343
sg1295
g1255
sg1296
Nsg1297
Nsg1298
Nsbag2
(g3
g4
Ntp1344
Rp1345
(dp1346
g8
g11
sg1276
Nsg1277
(dp1347
sg1279
Nsg26
g29
sg1280
(lp1348
I1
aI7
asg1282
Nsg1283
VSifrei Bamidbar 1:7
p1349
sg1285
(lp1350
sg1287
g48
sg1288
Nsg1289
(lp1351
I1
aI7
asg1291
Nsg1292
g1349
sg1293
(lp1352
sg1295
g1255
sg1296
Nsg1297
Nsg1298
Nsbag2
(g3
g4
Ntp1353
Rp1354
(dp1355
g8
g11
sg1276
Nsg1277
(dp1356
sg1279
Nsg26
g29
sg1280
(lp1357
I1
aI8
asg1282
Nsg1283
VSifrei Bamidbar 1:8
p1358
sg1285
(lp1359
sg1287
g48
sg1288
Nsg1289
(lp1360
I1
aI8
asg1291
Nsg1292
g1358
sg1293
(lp1361
sg1295
g1255
sg1296
Nsg1297
Nsg1298
Nsbag2
(g3
g4
Ntp1362
Rp1363
(dp1364
g8
g11
sg1276
Nsg1277
(dp1365
sg1279
Nsg26
g29
sg1280
(lp1366
I2
aI1
asg1282
Nsg1283
VSifrei Bamidbar 2:1
p1367
sg1285
(lp1368
sg1287
g48
sg1288
Nsg1289
(lp1369
I2
aI1
asg1291
Nsg1292
g1367
sg1293
(lp1370
sg1295
g1255
sg1296
Nsg1297
Nsg1298
Nsbag2
(g3
g4
Ntp1371
Rp1372
(dp1373
g8
g11
sg1276
Nsg1277
(dp1374
sg1279
Nsg26
g29
sg1280
(lp1375
I3
aI1
asg1282
Nsg1283
VSifrei Bamidbar 3:1
p1376
sg1285
(lp1377
sg1287
g48
sg1288
Nsg1289
(lp1378
I3
aI1
asg1291
Nsg1292
g1376
sg1293
(lp1379
sg1295
g1255
sg1296
Nsg1297
Nsg1298
Nsbag2
(g3
g4
Ntp1380
Rp1381
(dp1382
g8
g11
sg1276
Nsg1277
(dp1383
sg1279
Nsg26
g29
sg1280
(lp1384
I4
aI1
asg1282
Nsg1283
VSifrei Bamidbar 4:1
p1385
sg1285
(lp1386
sg1287
g48
sg1288
Nsg1289
(lp1387
I4
aI1
asg1291
Nsg1292
g1385
sg1293
(lp1388
sg1295
g1255
sg1296
Nsg1297
Nsg1298
Nsbag2
(g3
g4
Ntp1389
Rp1390
(dp1391
g8
g11
sg1276
Nsg1277
(dp1392
sg1279
Nsg26
g29
sg1280
(lp1393
I4
aI2
asg1282
Nsg1283
VSifrei Bamidbar 4:2
p1394
sg1285
(lp1395
sg1287
g48
sg1288
Nsg1289
(lp1396
I4
aI2
asg1291
Nsg1292
g1394
sg1293
(lp1397
sg1295
g1255
sg1296
Nsg1297
Nsg1298
Nsbag2
(g3
g4
Ntp1398
Rp1399
(dp1400
g8
g11
sg1276
Nsg1277
(dp1401
sg1279
Nsg26
g29
sg1280
(lp1402
I4
aI3
asg1282
Nsg1283
VSifrei Bamidbar 4:3
p1403
sg1285
(lp1404
sg1287
g48
sg1288
Nsg1289
(lp1405
I4
aI3
asg1291
Nsg1292
g1403
sg1293
(lp1406
sg1295
g1255
sg1296
Nsg1297
Nsg1298
Nsbag2
(g3
g4
Ntp1407
Rp1408
(dp1409
g8
g11
sg1276
Nsg1277
(dp1410
sg1279
Nsg26
g29
sg1280
(lp1411
I4
aI4
asg1282
Nsg1283
VSifrei Bamidbar 4:4
p1412
sg1285
(lp1413
sg1287
g48
sg1288
Nsg1289
(lp1414
I4
aI4
asg1291
Nsg1292
g1412
sg1293
(lp1415
sg1295
g1255
sg1296
Nsg1297
Nsg1298
Nsbag2
(g3
g4
Ntp1416
Rp1417
(dp1418
g8
g11
sg1276
Nsg1277
(dp1419
sg1279
Nsg26
g29
sg1280
(lp1420
I5
aI1
asg1282
Nsg1283
VSifrei Bamidbar 5:1
p1421
sg1285
(lp1422
sg1287
g48
sg1288
Nsg1289
(lp1423
I5
aI1
asg1291
Nsg1292
g1421
sg1293
(lp1424
sg1295
g1255
sg1296
Nsg1297
Nsg1298
Nsbag2
(g3
g4
Ntp1425
Rp1426
(dp1427
g8
g11
sg1276
Nsg1277
(dp1428
sg1279
Nsg26
g29
sg1280
(lp1429
I6
aI1
asg1282
Nsg1283
VSifrei Bamidbar 6:1
p1430
sg1285
(lp1431
sg1287
g48
sg1288
Nsg1289
(lp1432
I6
aI1
asg1291
Nsg1292
g1430
sg1293
(lp1433
sg1295
g1255
sg1296
Nsg1297
Nsg1298
Nsbag2
(g3
g4
Ntp1434
Rp1435
(dp1436
g8
g11
sg1276
Nsg1277
(dp1437
sg1279
Nsg26
g29
sg1280
(lp1438
I6
aI2
asg1282
Nsg1283
VSifrei Bamidbar 6:2
p1439
sg1285
(lp1440
sg1287
g48
sg1288
Nsg1289
(lp1441
I6
aI2
asg1291
Nsg1292
g1439
sg1293
(lp1442
sg1295
g1255
sg1296
Nsg1297
Nsg1298
Nsbag2
(g3
g4
Ntp1443
Rp1444
(dp1445
g8
g11
sg1276
Nsg1277
(dp1446
sg1279
Nsg26
g29
sg1280
(lp1447
I7
aI1
asg1282
Nsg1283
VSifrei Bamidbar 7:1
p1448
sg1285
(lp1449
sg1287
g48
sg1288
Nsg1289
(lp1450
I7
aI1
asg1291
Nsg1292
g1448
sg1293
(lp1451
sg1295
g1255
sg1296
Nsg1297
Nsg1298
Nsbag2
(g3
g4
Ntp1452
Rp1453
(dp1454
g8
g11
sg1276
Nsg1277
(dp1455
sg1279
Nsg26
g29
sg1280
(lp1456
I7
aI2
asg1282
Nsg1283
VSifrei Bamidbar 7:2
p1457
sg1285
(lp1458
sg1287
g48
sg1288
Nsg1289
(lp1459
I7
aI2
asg1291
Nsg1292
g1457
sg1293
(lp1460
sg1295
g1255
sg1296
Nsg1297
Nsg1298
Nsbag2
(g3
g4
Ntp1461
Rp1462
(dp1463
g8
g11
sg1276
Nsg1277
(dp1464
sg1279
Nsg26
g29
sg1280
(lp1465
I7
aI3
asg1282
Nsg1283
VSifrei Bamidbar 7:3
p1466
sg1285
(lp1467
sg1287
g48
sg1288
Nsg1289
(lp1468
I7
aI3
asg1291
Nsg1292
g1466
sg1293
(lp1469
sg1295
g1255
sg1296
Nsg1297
Nsg1298
Nsbag2
(g3
g4
Ntp1470
Rp1471
(dp1472
g8
g11
sg1276
Nsg1277
(dp1473
sg1279
Nsg26
g29
sg1280
(lp1474
I8
aI1
asg1282
Nsg1283
VSifrei Bamidbar 8:1
p1475
sg1285
(lp1476
sg1287
g48
sg1288
Nsg1289
(lp1477
I8
aI1
asg1291
Nsg1292
g1475
sg1293
(lp1478
sg1295
g1255
sg1296
Nsg1297
Nsg1298
Nsbag2
(g3
g4
Ntp1479
Rp1480
(dp1481
g8
g11
sg1276
Nsg1277
(dp1482
sg1279
Nsg26
g29
sg1280
(lp1483
I9
aI1
asg1282
Nsg1283
VSifrei Bamidbar 9:1
p1484
sg1285
(lp1485
sg1287
g48
sg1288
Nsg1289
(lp1486
I9
aI1
asg1291
Nsg1292
g1484
sg1293
(lp1487
sg1295
g1255
sg1296
Nsg1297
Nsg1298
Nsbag2
(g3
g4
Ntp1488
Rp1489
(dp1490
g8
g11
sg1276
Nsg1277
(dp1491
sg1279
Nsg26
g29
sg1280
(lp1492
I10
aI1
asg1282
Nsg1283
VSifrei Bamidbar 10:1
p1493
sg1285
(lp1494
sg1287
g48
sg1288
Nsg1289
(lp1495
I10
aI1
asg1291
Nsg1292
g1493
sg1293
(lp1496
sg1295
g1255
sg1296
Nsg1297
Nsg1298
Nsbag2
(g3
g4
Ntp1497
Rp1498
(dp1499
g8
g11
sg1276
Nsg1277
(dp1500
sg1279
Nsg26
g29
sg1280
(lp1501
I11
aI1
asg1282
Nsg1283
VSifrei Bamidbar 11:1
p1502
sg1285
(lp1503
sg1287
g48
sg1288
Nsg1289
(lp1504
I11
aI1
asg1291
Nsg1292
g1502
sg1293
(lp1505
sg1295
g1255
sg1296
Nsg1297
Nsg1298
Nsbag2
(g3
g4
Ntp1506
Rp1507
(dp1508
g8
g11
sg1276
Nsg1277
(dp1509
sg1279
Nsg26
g29
sg1280
(lp1510
I12
aI1
asg1282
Nsg1283
VSifrei Bamidbar 12:1
p1511
sg1285
(lp1512
sg1287
g48
sg1288
Nsg1289
(lp1513
I12
aI1
asg1291
Nsg1292
g1511
sg1293
(lp1514
sg1295
g1255
sg1296
Nsg1297
Nsg1298
Nsbag2
(g3
g4
Ntp1515
Rp1516
(dp1517
g8
g11
sg1276
Nsg1277
(dp1518
sg1279
Nsg26
g29
sg1280
(lp1519
I13
aI1
asg1282
Nsg1283
VSifrei Bamidbar 13:1
p1520
sg1285
(lp1521
sg1287
g48
sg1288
Nsg1289
(lp1522
I13
aI1
asg1291
Nsg1292
g1520
sg1293
(lp1523
sg1295
g1255
sg1296
Nsg1297
Nsg1298
Nsbag2
(g3
g4
Ntp1524
Rp1525
(dp1526
g8
g11
sg1276
Nsg1277
(dp1527
sg1279
Nsg26
g29
sg1280
(lp1528
I14
aI1
asg1282
Nsg1283
VSifrei Bamidbar 14:1
p1529
sg1285
(lp1530
sg1287
g48
sg1288
Nsg1289
(lp1531
I14
aI1
asg1291
Nsg1292
g1529
sg1293
(lp1532
sg1295
g1255
sg1296
Nsg1297
Nsg1298
Nsbag2
(g3
g4
Ntp1533
Rp1534
(dp1535
g8
g11
sg1276
Nsg1277
(dp1536
sg1279
Nsg26
g29
sg1280
(lp1537
I15
aI1
asg1282
Nsg1283
VSifrei Bamidbar 15:1
p1538
sg1285
(lp1539
sg1287
g48
sg1288
Nsg1289
(lp1540
I15
aI1
asg1291
Nsg1292
g1538
sg1293
(lp1541
sg1295
g1255
sg1296
Nsg1297
Nsg1298
Nsbag2
(g3
g4
Ntp1542
Rp1543
(dp1544
g8
g11
sg1276
Nsg1277
(dp1545
sg1279
Nsg26
g29
sg1280
(lp1546
I15
aI2
asg1282
Nsg1283
VSifrei Bamidbar 15:2
p1547
sg1285
(lp1548
sg1287
g48
sg1288
Nsg1289
(lp1549
I15
aI2
asg1291
Nsg1292
g1547
sg1293
(lp1550
sg1295
g1255
sg1296
Nsg1297
Nsg1298
Nsbag2
(g3
g4
Ntp1551
Rp1552
(dp1553
g8
g11
sg1276
Nsg1277
(dp1554
sg1279
Nsg26
g29
sg1280
(lp1555
I16
aI1
asg1282
Nsg1283
VSifrei Bamidbar 16:1
p1556
sg1285
(lp1557
sg1287
g48
sg1288
Nsg1289
(lp1558
I16
aI1
asg1291
Nsg1292
g1556
sg1293
(lp1559
sg1295
g1255
sg1296
Nsg1297
Nsg1298
Nsbag2
(g3
g4
Ntp1560
Rp1561
(dp1562
g8
g11
sg1276
Nsg1277
(dp1563
sg1279
Nsg26
g29
sg1280
(lp1564
I17
aI1
asg1282
Nsg1283
VSifrei Bamidbar 17:1
p1565
sg1285
(lp1566
sg1287
g48
sg1288
Nsg1289
(lp1567
I17
aI1
asg1291
Nsg1292
g1565
sg1293
(lp1568
sg1295
g1255
sg1296
Nsg1297
Nsg1298
Nsbag2
(g3
g4
Ntp1569
Rp1570
(dp1571
g8
g11
sg1276
Nsg1277
(dp1572
sg1279
Nsg26
g29
sg1280
(lp1573
I18
aI1
asg1282
Nsg1283
VSifrei Bamidbar 18:1
p1574
sg1285
(lp1575
sg1287
g48
sg1288
Nsg1289
(lp1576
I18
aI1
asg1291
Nsg1292
g1574
sg1293
(lp1577
sg1295
g1255
sg1296
Nsg1297
Nsg1298
Nsbag2
(g3
g4
Ntp1578
Rp1579
(dp1580
g8
g11
sg1276
Nsg1277
(dp1581
sg1279
Nsg26
g29
sg1280
(lp1582
I19
aI1
asg1282
Nsg1283
VSifrei Bamidbar 19:1
p1583
sg1285
(lp1584
sg1287
g48
sg1288
Nsg1289
(lp1585
I19
aI1
asg1291
Nsg1292
g1583
sg1293
(lp1586
sg1295
g1255
sg1296
Nsg1297
Nsg1298
Nsbag2
(g3
g4
Ntp1587
Rp1588
(dp1589
g8
g11
sg1276
Nsg1277
(dp1590
sg1279
Nsg26
g29
sg1280
(lp1591
I20
aI1
asg1282
Nsg1283
VSifrei Bamidbar 20:1
p1592
sg1285
(lp1593
sg1287
g48
sg1288
Nsg1289
(lp1594
I20
aI1
asg1291
Nsg1292
g1592
sg1293
(lp1595
sg1295
g1255
sg1296
Nsg1297
Nsg1298
Nsbag2
(g3
g4
Ntp1596
Rp1597
(dp1598
g8
g11
sg1276
Nsg1277
(dp1599
sg1279
Nsg26
g29
sg1280
(lp1600
I21
aI1
asg1282
Nsg1283
VSifrei Bamidbar 21:1
p1601
sg1285
(lp1602
sg1287
g48
sg1288
Nsg1289
(lp1603
I21
aI1
asg1291
Nsg1292
g1601
sg1293
(lp1604
sg1295
g1255
sg1296
Nsg1297
Nsg1298
Nsbag2
(g3
g4
Ntp1605
Rp1606
(dp1607
g8
g11
sg1276
Nsg1277
(dp1608
sg1279
Nsg26
g29
sg1280
(lp1609
I22
aI1
asg1282
Nsg1283
VSifrei Bamidbar 22:1
p1610
sg1285
(lp1611
sg1287
g48
sg1288
Nsg1289
(lp1612
I22
aI1
asg1291
Nsg1292
g1610
sg1293
(lp1613
sg1295
g1255
sg1296
Nsg1297
Nsg1298
Nsbag2
(g3
g4
Ntp1614
Rp1615
(dp1616
g8
g11
sg1276
Nsg1277
(dp1617
sg1279
Nsg26
g29
sg1280
(lp1618
I23
aI1
asg1282
Nsg1283
VSifrei Bamidbar 23:1
p1619
sg1285
(lp1620
sg1287
g48
sg1288
Nsg1289
(lp1621
I23
aI1
asg1291
Nsg1292
g1619
sg1293
(lp1622
sg1295
g1255
sg1296
Nsg1297
Nsg1298
Nsbag2
(g3
g4
Ntp1623
Rp1624
(dp1625
g8
g11
sg1276
Nsg1277
(dp1626
sg1279
Nsg26
g29
sg1280
(lp1627
I24
aI1
asg1282
Nsg1283
VSifrei Bamidbar 24:1
p1628
sg1285
(lp1629
sg1287
g48
sg1288
Nsg1289
(lp1630
I24
aI1
asg1291
Nsg1292
g1628
sg1293
(lp1631
sg1295
g1255
sg1296
Nsg1297
Nsg1298
Nsbag2
(g3
g4
Ntp1632
Rp1633
(dp1634
g8
g11
sg1276
Nsg1277
(dp1635
sg1279
Nsg26
g29
sg1280
(lp1636
I25
aI1
asg1282
Nsg1283
VSifrei Bamidbar 25:1
p1637
sg1285
(lp1638
sg1287
g48
sg1288
Nsg1289
(lp1639
I25
aI1
asg1291
Nsg1292
g1637
sg1293
(lp1640
sg1295
g1255
sg1296
Nsg1297
Nsg1298
Nsbag2
(g3
g4
Ntp1641
Rp1642
(dp1643
g8
g11
sg1276
Nsg1277
(dp1644
sg1279
Nsg26
g29
sg1280
(lp1645
I26
aI1
asg1282
Nsg1283
VSifrei Bamidbar 26:1
p1646
sg1285
(lp1647
sg1287
g48
sg1288
Nsg1289
(lp1648
I26
aI1
asg1291
Nsg1292
g1646
sg1293
(lp1649
sg1295
g1255
sg1296
Nsg1297
Nsg1298
Nsbag2
(g3
g4
Ntp1650
Rp1651
(dp1652
g8
g11
sg1276
Nsg1277
(dp1653
sg1279
Nsg26
g29
sg1280
(lp1654
I27
aI1
asg1282
Nsg1283
VSifrei Bamidbar 27:1
p1655
sg1285
(lp1656
sg1287
g48
sg1288
Nsg1289
(lp1657
I27
aI1
asg1291
Nsg1292
g1655
sg1293
(lp1658
sg1295
g1255
sg1296
Nsg1297
Nsg1298
Nsbag2
(g3
g4
Ntp1659
Rp1660
(dp1661
g8
g11
sg1276
Nsg1277
(dp1662
sg1279
Nsg26
g29
sg1280
(lp1663
I28
aI1
asg1282
Nsg1283
VSifrei Bamidbar 28:1
p1664
sg1285
(lp1665
sg1287
g48
sg1288
Nsg1289
(lp1666
I28
aI1
asg1291
Nsg1292
g1664
sg1293
(lp1667
sg1295
g1255
sg1296
Nsg1297
Nsg1298
Nsbag2
(g3
g4
Ntp1668
Rp1669
(dp1670
g8
g11
sg1276
Nsg1277
(dp1671
sg1279
Nsg26
g29
sg1280
(lp1672
I28
aI2
asg1282
Nsg1283
VSifrei Bamidbar 28:2
p1673
sg1285
(lp1674
sg1287
g48
sg1288
Nsg1289
(lp1675
I28
aI2
asg1291
Nsg1292
g1673
sg1293
(lp1676
sg1295
g1255
sg1296
Nsg1297
Nsg1298
Nsbag2
(g3
g4
Ntp1677
Rp1678
(dp1679
g8
g11
sg1276
Nsg1277
(dp1680
sg1279
Nsg26
g29
sg1280
(lp1681
I29
aI1
asg1282
Nsg1283
VSifrei Bamidbar 29:1
p1682
sg1285
(lp1683
sg1287
g48
sg1288
Nsg1289
(lp1684
I29
aI1
asg1291
Nsg1292
g1682
sg1293
(lp1685
sg1295
g1255
sg1296
Nsg1297
Nsg1298
Nsbag2
(g3
g4
Ntp1686
Rp1687
(dp1688
g8
g11
sg1276
Nsg1277
(dp1689
sg1279
Nsg26
g29
sg1280
(lp1690
I29
aI2
asg1282
Nsg1283
VSifrei Bamidbar 29:2
p1691
sg1285
(lp1692
sg1287
g48
sg1288
Nsg1289
(lp1693
I29
aI2
asg1291
Nsg1292
g1691
sg1293
(lp1694
sg1295
g1255
sg1296
Nsg1297
Nsg1298
Nsbag2
(g3
g4
Ntp1695
Rp1696
(dp1697
g8
g11
sg1276
Nsg1277
(dp1698
sg1279
Nsg26
g29
sg1280
(lp1699
I30
aI1
asg1282
Nsg1283
VSifrei Bamidbar 30:1
p1700
sg1285
(lp1701
sg1287
g48
sg1288
Nsg1289
(lp1702
I30
aI1
asg1291
Nsg1292
g1700
sg1293
(lp1703
sg1295
g1255
sg1296
Nsg1297
Nsg1298
Nsbag2
(g3
g4
Ntp1704
Rp1705
(dp1706
g8
g11
sg1276
Nsg1277
(dp1707
sg1279
Nsg26
g29
sg1280
(lp1708
I31
aI1
asg1282
Nsg1283
VSifrei Bamidbar 31:1
p1709
sg1285
(lp1710
sg1287
g48
sg1288
Nsg1289
(lp1711
I31
aI1
asg1291
Nsg1292
g1709
sg1293
(lp1712
sg1295
g1255
sg1296
Nsg1297
Nsg1298
Nsbag2
(g3
g4
Ntp1713
Rp1714
(dp1715
g8
g11
sg1276
Nsg1277
(dp1716
sg1279
Nsg26
g29
sg1280
(lp1717
I31
aI2
asg1282
Nsg1283
VSifrei Bamidbar 31:2
p1718
sg1285
(lp1719
sg1287
g48
sg1288
Nsg1289
(lp1720
I31
aI2
asg1291
Nsg1292
g1718
sg1293
(lp1721
sg1295
g1255
sg1296
Nsg1297
Nsg1298
Nsbag2
(g3
g4
Ntp1722
Rp1723
(dp1724
g8
g11
sg1276
Nsg1277
(dp1725
sg1279
Nsg26
g29
sg1280
(lp1726
I31
aI3
asg1282
Nsg1283
VSifrei Bamidbar 31:3
p1727
sg1285
(lp1728
sg1287
g48
sg1288
Nsg1289
(lp1729
I31
aI3
asg1291
Nsg1292
g1727
sg1293
(lp1730
sg1295
g1255
sg1296
Nsg1297
Nsg1298
Nsbag2
(g3
g4
Ntp1731
Rp1732
(dp1733
g8
g11
sg1276
Nsg1277
(dp1734
sg1279
Nsg26
g29
sg1280
(lp1735
I32
aI1
asg1282
Nsg1283
VSifrei Bamidbar 32:1
p1736
sg1285
(lp1737
sg1287
g48
sg1288
Nsg1289
(lp1738
I32
aI1
asg1291
Nsg1292
g1736
sg1293
(lp1739
sg1295
g1255
sg1296
Nsg1297
Nsg1298
Nsbag2
(g3
g4
Ntp1740
Rp1741
(dp1742
g8
g11
sg1276
Nsg1277
(dp1743
sg1279
Nsg26
g29
sg1280
(lp1744
I33
aI1
asg1282
Nsg1283
VSifrei Bamidbar 33:1
p1745
sg1285
(lp1746
sg1287
g48
sg1288
Nsg1289
(lp1747
I33
aI1
asg1291
Nsg1292
g1745
sg1293
(lp1748
sg1295
g1255
sg1296
Nsg1297
Nsg1298
Nsbag2
(g3
g4
Ntp1749
Rp1750
(dp1751
g8
g11
sg1276
Nsg1277
(dp1752
sg1279
Nsg26
g29
sg1280
(lp1753
I34
aI1
asg1282
Nsg1283
VSifrei Bamidbar 34:1
p1754
sg1285
(lp1755
sg1287
g48
sg1288
Nsg1289
(lp1756
I34
aI1
asg1291
Nsg1292
g1754
sg1293
(lp1757
sg1295
g1255
sg1296
Nsg1297
Nsg1298
Nsbag2
(g3
g4
Ntp1758
Rp1759
(dp1760
g8
g11
sg1276
Nsg1277
(dp1761
sg1279
Nsg26
g29
sg1280
(lp1762
I35
aI1
asg1282
Nsg1283
VSifrei Bamidbar 35:1
p1763
sg1285
(lp1764
sg1287
g48
sg1288
Nsg1289
(lp1765
I35
aI1
asg1291
Nsg1292
g1763
sg1293
(lp1766
sg1295
g1255
sg1296
Nsg1297
Nsg1298
Nsbag2
(g3
g4
Ntp1767
Rp1768
(dp1769
g8
g11
sg1276
Nsg1277
(dp1770
sg1279
Nsg26
g29
sg1280
(lp1771
I36
aI1
asg1282
Nsg1283
VSifrei Bamidbar 36:1
p1772
sg1285
(lp1773
sg1287
g48
sg1288
Nsg1289
(lp1774
I36
aI1
asg1291
Nsg1292
g1772
sg1293
(lp1775
sg1295
g1255
sg1296
Nsg1297
Nsg1298
Nsbag2
(g3
g4
Ntp1776
Rp1777
(dp1778
g8
g11
sg1276
Nsg1277
(dp1779
sg1279
Nsg26
g29
sg1280
(lp1780
I37
aI1
asg1282
Nsg1283
VSifrei Bamidbar 37:1
p1781
sg1285
(lp1782
sg1287
g48
sg1288
Nsg1289
(lp1783
I37
aI1
asg1291
Nsg1292
g1781
sg1293
(lp1784
sg1295
g1255
sg1296
Nsg1297
Nsg1298
Nsbag2
(g3
g4
Ntp1785
Rp1786
(dp1787
g8
g11
sg1276
Nsg1277
(dp1788
sg1279
Nsg26
g29
sg1280
(lp1789
I38
aI1
asg1282
Nsg1283
VSifrei Bamidbar 38:1
p1790
sg1285
(lp1791
sg1287
g48
sg1288
Nsg1289
(lp1792
I38
aI1
asg1291
Nsg1292
g1790
sg1293
(lp1793
sg1295
g1255
sg1296
Nsg1297
Nsg1298
Nsbag2
(g3
g4
Ntp1794
Rp1795
(dp1796
g8
g11
sg1276
Nsg1277
(dp1797
sg1279
Nsg26
g29
sg1280
(lp1798
I39
aI1
asg1282
Nsg1283
VSifrei Bamidbar 39:1
p1799
sg1285
(lp1800
sg1287
g48
sg1288
Nsg1289
(lp1801
I39
aI1
asg1291
Nsg1292
g1799
sg1293
(lp1802
sg1295
g1255
sg1296
Nsg1297
Nsg1298
Nsbag2
(g3
g4
Ntp1803
Rp1804
(dp1805
g8
g11
sg1276
Nsg1277
(dp1806
sg1279
Nsg26
g29
sg1280
(lp1807
I40
aI1
asg1282
Nsg1283
VSifrei Bamidbar 40:1
p1808
sg1285
(lp1809
sg1287
g48
sg1288
Nsg1289
(lp1810
I40
aI1
asg1291
Nsg1292
g1808
sg1293
(lp1811
sg1295
g1255
sg1296
Nsg1297
Nsg1298
Nsbag2
(g3
g4
Ntp1812
Rp1813
(dp1814
g8
g11
sg1276
Nsg1277
(dp1815
sg1279
Nsg26
g29
sg1280
(lp1816
I41
aI1
asg1282
Nsg1283
VSifrei Bamidbar 41:1
p1817
sg1285
(lp1818
sg1287
g48
sg1288
Nsg1289
(lp1819
I41
aI1
asg1291
Nsg1292
g1817
sg1293
(lp1820
sg1295
g1255
sg1296
Nsg1297
Nsg1298
Nsbag2
(g3
g4
Ntp1821
Rp1822
(dp1823
g8
g11
sg1276
Nsg1277
(dp1824
sg1279
Nsg26
g29
sg1280
(lp1825
I42
aI1
asg1282
Nsg1283
VSifrei Bamidbar 42:1
p1826
sg1285
(lp1827
sg1287
g48
sg1288
Nsg1289
(lp1828
I42
aI1
asg1291
Nsg1292
g1826
sg1293
(lp1829
sg1295
g1255
sg1296
Nsg1297
Nsg1298
Nsbag2
(g3
g4
Ntp1830
Rp1831
(dp1832
g8
g11
sg1276
Nsg1277
(dp1833
sg1279
Nsg26
g29
sg1280
(lp1834
I42
aI2
asg1282
Nsg1283
VSifrei Bamidbar 42:2
p1835
sg1285
(lp1836
sg1287
g48
sg1288
Nsg1289
(lp1837
I42
aI2
asg1291
Nsg1292
g1835
sg1293
(lp1838
sg1295
g1255
sg1296
Nsg1297
Nsg1298
Nsbag2
(g3
g4
Ntp1839
Rp1840
(dp1841
g8
g11
sg1276
Nsg1277
(dp1842
sg1279
Nsg26
g29
sg1280
(lp1843
I42
aI3
asg1282
Nsg1283
VSifrei Bamidbar 42:3
p1844
sg1285
(lp1845
sg1287
g48
sg1288
Nsg1289
(lp1846
I42
aI3
asg1291
Nsg1292
g1844
sg1293
(lp1847
sg1295
g1255
sg1296
Nsg1297
Nsg1298
Nsbag2
(g3
g4
Ntp1848
Rp1849
(dp1850
g8
g11
sg1276
Nsg1277
(dp1851
sg1279
Nsg26
g29
sg1280
(lp1852
I42
aI4
asg1282
Nsg1283
VSifrei Bamidbar 42:4
p1853
sg1285
(lp1854
sg1287
g48
sg1288
Nsg1289
(lp1855
I42
aI4
asg1291
Nsg1292
g1853
sg1293
(lp1856
sg1295
g1255
sg1296
Nsg1297
Nsg1298
Nsbag2
(g3
g4
Ntp1857
Rp1858
(dp1859
g8
g11
sg1276
Nsg1277
(dp1860
sg1279
Nsg26
g29
sg1280
(lp1861
I43
aI1
asg1282
Nsg1283
VSifrei Bamidbar 43:1
p1862
sg1285
(lp1863
sg1287
g48
sg1288
Nsg1289
(lp1864
I43
aI1
asg1291
Nsg1292
g1862
sg1293
(lp1865
sg1295
g1255
sg1296
Nsg1297
Nsg1298
Nsbag2
(g3
g4
Ntp1866
Rp1867
(dp1868
g8
g11
sg1276
Nsg1277
(dp1869
sg1279
Nsg26
g29
sg1280
(lp1870
I44
aI1
asg1282
Nsg1283
VSifrei Bamidbar 44:1
p1871
sg1285
(lp1872
sg1287
g48
sg1288
Nsg1289
(lp1873
I44
aI1
asg1291
Nsg1292
g1871
sg1293
(lp1874
sg1295
g1255
sg1296
Nsg1297
Nsg1298
Nsbag2
(g3
g4
Ntp1875
Rp1876
(dp1877
g8
g11
sg1276
Nsg1277
(dp1878
sg1279
Nsg26
g29
sg1280
(lp1879
I45
aI1
asg1282
Nsg1283
VSifrei Bamidbar 45:1
p1880
sg1285
(lp1881
sg1287
g48
sg1288
Nsg1289
(lp1882
I45
aI1
asg1291
Nsg1292
g1880
sg1293
(lp1883
sg1295
g1255
sg1296
Nsg1297
Nsg1298
Nsbag2
(g3
g4
Ntp1884
Rp1885
(dp1886
g8
g11
sg1276
Nsg1277
(dp1887
sg1279
Nsg26
g29
sg1280
(lp1888
I46
aI1
asg1282
Nsg1283
VSifrei Bamidbar 46:1
p1889
sg1285
(lp1890
sg1287
g48
sg1288
Nsg1289
(lp1891
I46
aI1
asg1291
Nsg1292
g1889
sg1293
(lp1892
sg1295
g1255
sg1296
Nsg1297
Nsg1298
Nsbag2
(g3
g4
Ntp1893
Rp1894
(dp1895
g8
g11
sg1276
Nsg1277
(dp1896
sg1279
Nsg26
g29
sg1280
(lp1897
I46
aI2
asg1282
Nsg1283
VSifrei Bamidbar 46:2
p1898
sg1285
(lp1899
sg1287
g48
sg1288
Nsg1289
(lp1900
I46
aI2
asg1291
Nsg1292
g1898
sg1293
(lp1901
sg1295
g1255
sg1296
Nsg1297
Nsg1298
Nsbag2
(g3
g4
Ntp1902
Rp1903
(dp1904
g8
g11
sg1276
Nsg1277
(dp1905
sg1279
Nsg26
g29
sg1280
(lp1906
I47
aI1
asg1282
Nsg1283
VSifrei Bamidbar 47:1
p1907
sg1285
(lp1908
sg1287
g48
sg1288
Nsg1289
(lp1909
I47
aI1
asg1291
Nsg1292
g1907
sg1293
(lp1910
sg1295
g1255
sg1296
Nsg1297
Nsg1298
Nsbag2
(g3
g4
Ntp1911
Rp1912
(dp1913
g8
g11
sg1276
Nsg1277
(dp1914
sg1279
Nsg26
g29
sg1280
(lp1915
I48
aI1
asg1282
Nsg1283
VSifrei Bamidbar 48:1
p1916
sg1285
(lp1917
sg1287
g48
sg1288
Nsg1289
(lp1918
I48
aI1
asg1291
Nsg1292
g1916
sg1293
(lp1919
sg1295
g1255
sg1296
Nsg1297
Nsg1298
Nsbag2
(g3
g4
Ntp1920
Rp1921
(dp1922
g8
g11
sg1276
Nsg1277
(dp1923
sg1279
Nsg26
g29
sg1280
(lp1924
I49
aI1
asg1282
Nsg1283
VSifrei Bamidbar 49:1
p1925
sg1285
(lp1926
sg1287
g48
sg1288
Nsg1289
(lp1927
I49
aI1
asg1291
Nsg1292
g1925
sg1293
(lp1928
sg1295
g1255
sg1296
Nsg1297
Nsg1298
Nsbag2
(g3
g4
Ntp1929
Rp1930
(dp1931
g8
g11
sg1276
Nsg1277
(dp1932
sg1279
Nsg26
g29
sg1280
(lp1933
I50
aI1
asg1282
Nsg1283
VSifrei Bamidbar 50:1
p1934
sg1285
(lp1935
sg1287
g48
sg1288
Nsg1289
(lp1936
I50
aI1
asg1291
Nsg1292
g1934
sg1293
(lp1937
sg1295
g1255
sg1296
Nsg1297
Nsg1298
Nsbag2
(g3
g4
Ntp1938
Rp1939
(dp1940
g8
g11
sg1276
Nsg1277
(dp1941
sg1279
Nsg26
g29
sg1280
(lp1942
I51
aI1
asg1282
Nsg1283
VSifrei Bamidbar 51:1
p1943
sg1285
(lp1944
sg1287
g48
sg1288
Nsg1289
(lp1945
I51
aI1
asg1291
Nsg1292
g1943
sg1293
(lp1946
sg1295
g1255
sg1296
Nsg1297
Nsg1298
Nsbag2
(g3
g4
Ntp1947
Rp1948
(dp1949
g8
g11
sg1276
Nsg1277
(dp1950
sg1279
Nsg26
g29
sg1280
(lp1951
I52
aI1
asg1282
Nsg1283
VSifrei Bamidbar 52:1
p1952
sg1285
(lp1953
sg1287
g48
sg1288
Nsg1289
(lp1954
I52
aI1
asg1291
Nsg1292
g1952
sg1293
(lp1955
sg1295
g1255
sg1296
Nsg1297
Nsg1298
Nsbag2
(g3
g4
Ntp1956
Rp1957
(dp1958
g8
g11
sg1276
Nsg1277
(dp1959
sg1279
Nsg26
g29
sg1280
(lp1960
I53
aI1
asg1282
Nsg1283
VSifrei Bamidbar 53:1
p1961
sg1285
(lp1962
sg1287
g48
sg1288
Nsg1289
(lp1963
I53
aI1
asg1291
Nsg1292
g1961
sg1293
(lp1964
sg1295
g1255
sg1296
Nsg1297
Nsg1298
Nsbag2
(g3
g4
Ntp1965
Rp1966
(dp1967
g8
g11
sg1276
Nsg1277
(dp1968
sg1279
Nsg26
g29
sg1280
(lp1969
I54
aI1
asg1282
Nsg1283
VSifrei Bamidbar 54:1
p1970
sg1285
(lp1971
sg1287
g48
sg1288
Nsg1289
(lp1972
I54
aI1
asg1291
Nsg1292
g1970
sg1293
(lp1973
sg1295
g1255
sg1296
Nsg1297
Nsg1298
Nsbag2
(g3
g4
Ntp1974
Rp1975
(dp1976
g8
g11
sg1276
Nsg1277
(dp1977
sg1279
Nsg26
g29
sg1280
(lp1978
I55
aI1
asg1282
Nsg1283
VSifrei Bamidbar 55:1
p1979
sg1285
(lp1980
sg1287
g48
sg1288
Nsg1289
(lp1981
I55
aI1
asg1291
Nsg1292
g1979
sg1293
(lp1982
sg1295
g1255
sg1296
Nsg1297
Nsg1298
Nsbag2
(g3
g4
Ntp1983
Rp1984
(dp1985
g8
g11
sg1276
Nsg1277
(dp1986
sg1279
Nsg26
g29
sg1280
(lp1987
I56
aI1
asg1282
Nsg1283
VSifrei Bamidbar 56:1
p1988
sg1285
(lp1989
sg1287
g48
sg1288
Nsg1289
(lp1990
I56
aI1
asg1291
Nsg1292
g1988
sg1293
(lp1991
sg1295
g1255
sg1296
Nsg1297
Nsg1298
Nsbag2
(g3
g4
Ntp1992
Rp1993
(dp1994
g8
g11
sg1276
Nsg1277
(dp1995
sg1279
Nsg26
g29
sg1280
(lp1996
I57
aI1
asg1282
Nsg1283
VSifrei Bamidbar 57:1
p1997
sg1285
(lp1998
sg1287
g48
sg1288
Nsg1289
(lp1999
I57
aI1
asg1291
Nsg1292
g1997
sg1293
(lp2000
sg1295
g1255
sg1296
Nsg1297
Nsg1298
Nsbag2
(g3
g4
Ntp2001
Rp2002
(dp2003
g8
g11
sg1276
Nsg1277
(dp2004
sg1279
Nsg26
g29
sg1280
(lp2005
I58
aI1
asg1282
Nsg1283
VSifrei Bamidbar 58:1
p2006
sg1285
(lp2007
sg1287
g48
sg1288
Nsg1289
(lp2008
I58
aI1
asg1291
Nsg1292
g2006
sg1293
(lp2009
sg1295
g1255
sg1296
Nsg1297
Nsg1298
Nsbag2
(g3
g4
Ntp2010
Rp2011
(dp2012
g8
g11
sg1276
Nsg1277
(dp2013
sg1279
Nsg26
g29
sg1280
(lp2014
I58
aI2
asg1282
Nsg1283
VSifrei Bamidbar 58:2
p2015
sg1285
(lp2016
sg1287
g48
sg1288
Nsg1289
(lp2017
I58
aI2
asg1291
Nsg1292
g2015
sg1293
(lp2018
sg1295
g1255
sg1296
Nsg1297
Nsg1298
Nsbag2
(g3
g4
Ntp2019
Rp2020
(dp2021
g8
g11
sg1276
Nsg1277
(dp2022
sg1279
Nsg26
g29
sg1280
(lp2023
I59
aI1
asg1282
Nsg1283
VSifrei Bamidbar 59:1
p2024
sg1285
(lp2025
sg1287
g48
sg1288
Nsg1289
(lp2026
I59
aI1
asg1291
Nsg1292
g2024
sg1293
(lp2027
sg1295
g1255
sg1296
Nsg1297
Nsg1298
Nsbag2
(g3
g4
Ntp2028
Rp2029
(dp2030
g8
g11
sg1276
Nsg1277
(dp2031
sg1279
Nsg26
g29
sg1280
(lp2032
I60
aI1
asg1282
Nsg1283
VSifrei Bamidbar 60:1
p2033
sg1285
(lp2034
sg1287
g48
sg1288
Nsg1289
(lp2035
I60
aI1
asg1291
Nsg1292
g2033
sg1293
(lp2036
sg1295
g1255
sg1296
Nsg1297
Nsg1298
Nsbag2
(g3
g4
Ntp2037
Rp2038
(dp2039
g8
g11
sg1276
Nsg1277
(dp2040
sg1279
Nsg26
g29
sg1280
(lp2041
I61
aI1
asg1282
Nsg1283
VSifrei Bamidbar 61:1
p2042
sg1285
(lp2043
sg1287
g48
sg1288
Nsg1289
(lp2044
I61
aI1
asg1291
Nsg1292
g2042
sg1293
(lp2045
sg1295
g1255
sg1296
Nsg1297
Nsg1298
Nsbag2
(g3
g4
Ntp2046
Rp2047
(dp2048
g8
g11
sg1276
Nsg1277
(dp2049
sg1279
Nsg26
g29
sg1280
(lp2050
I62
aI1
asg1282
Nsg1283
VSifrei Bamidbar 62:1
p2051
sg1285
(lp2052
sg1287
g48
sg1288
Nsg1289
(lp2053
I62
aI1
asg1291
Nsg1292
g2051
sg1293
(lp2054
sg1295
g1255
sg1296
Nsg1297
Nsg1298
Nsbag2
(g3
g4
Ntp2055
Rp2056
(dp2057
g8
g11
sg1276
Nsg1277
(dp2058
sg1279
Nsg26
g29
sg1280
(lp2059
I63
aI1
asg1282
Nsg1283
VSifrei Bamidbar 63:1
p2060
sg1285
(lp2061
sg1287
g48
sg1288
Nsg1289
(lp2062
I63
aI1
asg1291
Nsg1292
g2060
sg1293
(lp2063
sg1295
g1255
sg1296
Nsg1297
Nsg1298
Nsbag2
(g3
g4
Ntp2064
Rp2065
(dp2066
g8
g11
sg1276
Nsg1277
(dp2067
sg1279
Nsg26
g29
sg1280
(lp2068
I64
aI1
asg1282
Nsg1283
VSifrei Bamidbar 64:1
p2069
sg1285
(lp2070
sg1287
g48
sg1288
Nsg1289
(lp2071
I64
aI1
asg1291
Nsg1292
g2069
sg1293
(lp2072
sg1295
g1255
sg1296
Nsg1297
Nsg1298
Nsbag2
(g3
g4
Ntp2073
Rp2074
(dp2075
g8
g11
sg1276
Nsg1277
(dp2076
sg1279
Nsg26
g29
sg1280
(lp2077
I64
aI2
asg1282
Nsg1283
VSifrei Bamidbar 64:2
p2078
sg1285
(lp2079
sg1287
g48
sg1288
Nsg1289
(lp2080
I64
aI2
asg1291
Nsg1292
g2078
sg1293
(lp2081
sg1295
g1255
sg1296
Nsg1297
Nsg1298
Nsbag2
(g3
g4
Ntp2082
Rp2083
(dp2084
g8
g11
sg1276
Nsg1277
(dp2085
sg1279
Nsg26
g29
sg1280
(lp2086
I65
aI1
asg1282
Nsg1283
VSifrei Bamidbar 65:1
p2087
sg1285
(lp2088
sg1287
g48
sg1288
Nsg1289
(lp2089
I65
aI1
asg1291
Nsg1292
g2087
sg1293
(lp2090
sg1295
g1255
sg1296
Nsg1297
Nsg1298
Nsbag2
(g3
g4
Ntp2091
Rp2092
(dp2093
g8
g11
sg1276
Nsg1277
(dp2094
sg1279
Nsg26
g29
sg1280
(lp2095
I66
aI1
asg1282
Nsg1283
VSifrei Bamidbar 66:1
p2096
sg1285
(lp2097
sg1287
g48
sg1288
Nsg1289
(lp2098
I66
aI1
asg1291
Nsg1292
g2096
sg1293
(lp2099
sg1295
g1255
sg1296
Nsg1297
Nsg1298
Nsbag2
(g3
g4
Ntp2100
Rp2101
(dp2102
g8
g11
sg1276
Nsg1277
(dp2103
sg1279
Nsg26
g29
sg1280
(lp2104
I67
aI1
asg1282
Nsg1283
VSifrei Bamidbar 67:1
p2105
sg1285
(lp2106
sg1287
g48
sg1288
Nsg1289
(lp2107
I67
aI1
asg1291
Nsg1292
g2105
sg1293
(lp2108
sg1295
g1255
sg1296
Nsg1297
Nsg1298
Nsbag2
(g3
g4
Ntp2109
Rp2110
(dp2111
g8
g11
sg1276
Nsg1277
(dp2112
sg1279
Nsg26
g29
sg1280
(lp2113
I68
aI1
asg1282
Nsg1283
VSifrei Bamidbar 68:1
p2114
sg1285
(lp2115
sg1287
g48
sg1288
Nsg1289
(lp2116
I68
aI1
asg1291
Nsg1292
g2114
sg1293
(lp2117
sg1295
g1255
sg1296
Nsg1297
Nsg1298
Nsbag2
(g3
g4
Ntp2118
Rp2119
(dp2120
g8
g11
sg1276
Nsg1277
(dp2121
sg1279
Nsg26
g29
sg1280
(lp2122
I69
aI1
asg1282
Nsg1283
VSifrei Bamidbar 69:1
p2123
sg1285
(lp2124
sg1287
g48
sg1288
Nsg1289
(lp2125
I69
aI1
asg1291
Nsg1292
g2123
sg1293
(lp2126
sg1295
g1255
sg1296
Nsg1297
Nsg1298
Nsbag2
(g3
g4
Ntp2127
Rp2128
(dp2129
g8
g11
sg1276
Nsg1277
(dp2130
sg1279
Nsg26
g29
sg1280
(lp2131
I69
aI2
asg1282
Nsg1283
VSifrei Bamidbar 69:2
p2132
sg1285
(lp2133
sg1287
g48
sg1288
Nsg1289
(lp2134
I69
aI2
asg1291
Nsg1292
g2132
sg1293
(lp2135
sg1295
g1255
sg1296
Nsg1297
Nsg1298
Nsbag2
(g3
g4
Ntp2136
Rp2137
(dp2138
g8
g11
sg1276
Nsg1277
(dp2139
sg1279
Nsg26
g29
sg1280
(lp2140
I70
aI1
asg1282
Nsg1283
VSifrei Bamidbar 70:1
p2141
sg1285
(lp2142
sg1287
g48
sg1288
Nsg1289
(lp2143
I70
aI1
asg1291
Nsg1292
g2141
sg1293
(lp2144
sg1295
g1255
sg1296
Nsg1297
Nsg1298
Nsbag2
(g3
g4
Ntp2145
Rp2146
(dp2147
g8
g11
sg1276
Nsg1277
(dp2148
sg1279
Nsg26
g29
sg1280
(lp2149
I71
aI1
asg1282
Nsg1283
VSifrei Bamidbar 71:1
p2150
sg1285
(lp2151
sg1287
g48
sg1288
Nsg1289
(lp2152
I71
aI1
asg1291
Nsg1292
g2150
sg1293
(lp2153
sg1295
g1255
sg1296
Nsg1297
Nsg1298
Nsbag2
(g3
g4
Ntp2154
Rp2155
(dp2156
g8
g11
sg1276
Nsg1277
(dp2157
sg1279
Nsg26
g29
sg1280
(lp2158
I72
aI1
asg1282
Nsg1283
VSifrei Bamidbar 72:1
p2159
sg1285
(lp2160
sg1287
g48
sg1288
Nsg1289
(lp2161
I72
aI1
asg1291
Nsg1292
g2159
sg1293
(lp2162
sg1295
g1255
sg1296
Nsg1297
Nsg1298
Nsbag2
(g3
g4
Ntp2163
Rp2164
(dp2165
g8
g11
sg1276
Nsg1277
(dp2166
sg1279
Nsg26
g29
sg1280
(lp2167
I73
aI1
asg1282
Nsg1283
VSifrei Bamidbar 73:1
p2168
sg1285
(lp2169
sg1287
g48
sg1288
Nsg1289
(lp2170
I73
aI1
asg1291
Nsg1292
g2168
sg1293
(lp2171
sg1295
g1255
sg1296
Nsg1297
Nsg1298
Nsbag2
(g3
g4
Ntp2172
Rp2173
(dp2174
g8
g11
sg1276
Nsg1277
(dp2175
sg1279
Nsg26
g29
sg1280
(lp2176
I73
aI2
asg1282
Nsg1283
VSifrei Bamidbar 73:2
p2177
sg1285
(lp2178
sg1287
g48
sg1288
Nsg1289
(lp2179
I73
aI2
asg1291
Nsg1292
g2177
sg1293
(lp2180
sg1295
g1255
sg1296
Nsg1297
Nsg1298
Nsbag2
(g3
g4
Ntp2181
Rp2182
(dp2183
g8
g11
sg1276
Nsg1277
(dp2184
sg1279
Nsg26
g29
sg1280
(lp2185
I73
aI3
asg1282
Nsg1283
VSifrei Bamidbar 73:3
p2186
sg1285
(lp2187
sg1287
g48
sg1288
Nsg1289
(lp2188
I73
aI3
asg1291
Nsg1292
g2186
sg1293
(lp2189
sg1295
g1255
sg1296
Nsg1297
Nsg1298
Nsbag2
(g3
g4
Ntp2190
Rp2191
(dp2192
g8
g11
sg1276
Nsg1277
(dp2193
sg1279
Nsg26
g29
sg1280
(lp2194
I74
aI1
asg1282
Nsg1283
VSifrei Bamidbar 74:1
p2195
sg1285
(lp2196
sg1287
g48
sg1288
Nsg1289
(lp2197
I74
aI1
asg1291
Nsg1292
g2195
sg1293
(lp2198
sg1295
g1255
sg1296
Nsg1297
Nsg1298
Nsbag2
(g3
g4
Ntp2199
Rp2200
(dp2201
g8
g11
sg1276
Nsg1277
(dp2202
sg1279
Nsg26
g29
sg1280
(lp2203
I75
aI1
asg1282
Nsg1283
VSifrei Bamidbar 75:1
p2204
sg1285
(lp2205
sg1287
g48
sg1288
Nsg1289
(lp2206
I75
aI1
asg1291
Nsg1292
g2204
sg1293
(lp2207
sg1295
g1255
sg1296
Nsg1297
Nsg1298
Nsbag2
(g3
g4
Ntp2208
Rp2209
(dp2210
g8
g11
sg1276
Nsg1277
(dp2211
sg1279
Nsg26
g29
sg1280
(lp2212
I76
aI1
asg1282
Nsg1283
VSifrei Bamidbar 76:1
p2213
sg1285
(lp2214
sg1287
g48
sg1288
Nsg1289
(lp2215
I76
aI1
asg1291
Nsg1292
g2213
sg1293
(lp2216
sg1295
g1255
sg1296
Nsg1297
Nsg1298
Nsbag2
(g3
g4
Ntp2217
Rp2218
(dp2219
g8
g11
sg1276
Nsg1277
(dp2220
sg1279
Nsg26
g29
sg1280
(lp2221
I77
aI1
asg1282
Nsg1283
VSifrei Bamidbar 77:1
p2222
sg1285
(lp2223
sg1287
g48
sg1288
Nsg1289
(lp2224
I77
aI1
asg1291
Nsg1292
g2222
sg1293
(lp2225
sg1295
g1255
sg1296
Nsg1297
Nsg1298
Nsbag2
(g3
g4
Ntp2226
Rp2227
(dp2228
g8
g11
sg1276
Nsg1277
(dp2229
sg1279
Nsg26
g29
sg1280
(lp2230
I78
aI1
asg1282
Nsg1283
VSifrei Bamidbar 78:1
p2231
sg1285
(lp2232
sg1287
g48
sg1288
Nsg1289
(lp2233
I78
aI1
asg1291
Nsg1292
g2231
sg1293
(lp2234
sg1295
g1255
sg1296
Nsg1297
Nsg1298
Nsbag2
(g3
g4
Ntp2235
Rp2236
(dp2237
g8
g11
sg1276
Nsg1277
(dp2238
sg1279
Nsg26
g29
sg1280
(lp2239
I78
aI2
asg1282
Nsg1283
VSifrei Bamidbar 78:2
p2240
sg1285
(lp2241
sg1287
g48
sg1288
Nsg1289
(lp2242
I78
aI2
asg1291
Nsg1292
g2240
sg1293
(lp2243
sg1295
g1255
sg1296
Nsg1297
Nsg1298
Nsbag2
(g3
g4
Ntp2244
Rp2245
(dp2246
g8
g11
sg1276
Nsg1277
(dp2247
sg1279
Nsg26
g29
sg1280
(lp2248
I78
aI3
asg1282
Nsg1283
VSifrei Bamidbar 78:3
p2249
sg1285
(lp2250
sg1287
g48
sg1288
Nsg1289
(lp2251
I78
aI3
asg1291
Nsg1292
g2249
sg1293
(lp2252
sg1295
g1255
sg1296
Nsg1297
Nsg1298
Nsbag2
(g3
g4
Ntp2253
Rp2254
(dp2255
g8
g11
sg1276
Nsg1277
(dp2256
sg1279
Nsg26
g29
sg1280
(lp2257
I79
aI1
asg1282
Nsg1283
VSifrei Bamidbar 79:1
p2258
sg1285
(lp2259
sg1287
g48
sg1288
Nsg1289
(lp2260
I79
aI1
asg1291
Nsg1292
g2258
sg1293
(lp2261
sg1295
g1255
sg1296
Nsg1297
Nsg1298
Nsbag2
(g3
g4
Ntp2262
Rp2263
(dp2264
g8
g11
sg1276
Nsg1277
(dp2265
sg1279
Nsg26
g29
sg1280
(lp2266
I80
aI1
asg1282
Nsg1283
VSifrei Bamidbar 80:1
p2267
sg1285
(lp2268
sg1287
g48
sg1288
Nsg1289
(lp2269
I80
aI1
asg1291
Nsg1292
g2267
sg1293
(lp2270
sg1295
g1255
sg1296
Nsg1297
Nsg1298
Nsbag2
(g3
g4
Ntp2271
Rp2272
(dp2273
g8
g11
sg1276
Nsg1277
(dp2274
sg1279
Nsg26
g29
sg1280
(lp2275
I81
aI1
asg1282
Nsg1283
VSifrei Bamidbar 81:1
p2276
sg1285
(lp2277
sg1287
g48
sg1288
Nsg1289
(lp2278
I81
aI1
asg1291
Nsg1292
g2276
sg1293
(lp2279
sg1295
g1255
sg1296
Nsg1297
Nsg1298
Nsbag2
(g3
g4
Ntp2280
Rp2281
(dp2282
g8
g11
sg1276
Nsg1277
(dp2283
sg1279
Nsg26
g29
sg1280
(lp2284
I82
aI1
asg1282
Nsg1283
VSifrei Bamidbar 82:1
p2285
sg1285
(lp2286
sg1287
g48
sg1288
Nsg1289
(lp2287
I82
aI1
asg1291
Nsg1292
g2285
sg1293
(lp2288
sg1295
g1255
sg1296
Nsg1297
Nsg1298
Nsbag2
(g3
g4
Ntp2289
Rp2290
(dp2291
g8
g11
sg1276
Nsg1277
(dp2292
sg1279
Nsg26
g29
sg1280
(lp2293
I83
aI1
asg1282
Nsg1283
VSifrei Bamidbar 83:1
p2294
sg1285
(lp2295
sg1287
g48
sg1288
Nsg1289
(lp2296
I83
aI1
asg1291
Nsg1292
g2294
sg1293
(lp2297
sg1295
g1255
sg1296
Nsg1297
Nsg1298
Nsbag2
(g3
g4
Ntp2298
Rp2299
(dp2300
g8
g11
sg1276
Nsg1277
(dp2301
sg1279
Nsg26
g29
sg1280
(lp2302
I83
aI2
asg1282
Nsg1283
VSifrei Bamidbar 83:2
p2303
sg1285
(lp2304
sg1287
g48
sg1288
Nsg1289
(lp2305
I83
aI2
asg1291
Nsg1292
g2303
sg1293
(lp2306
sg1295
g1255
sg1296
Nsg1297
Nsg1298
Nsbag2
(g3
g4
Ntp2307
Rp2308
(dp2309
g8
g11
sg1276
Nsg1277
(dp2310
sg1279
Nsg26
g29
sg1280
(lp2311
I83
aI3
asg1282
Nsg1283
VSifrei Bamidbar 83:3
p2312
sg1285
(lp2313
sg1287
g48
sg1288
Nsg1289
(lp2314
I83
aI3
asg1291
Nsg1292
g2312
sg1293
(lp2315
sg1295
g1255
sg1296
Nsg1297
Nsg1298
Nsbag2
(g3
g4
Ntp2316
Rp2317
(dp2318
g8
g11
sg1276
Nsg1277
(dp2319
sg1279
Nsg26
g29
sg1280
(lp2320
I84
aI1
asg1282
Nsg1283
VSifrei Bamidbar 84:1
p2321
sg1285
(lp2322
sg1287
g48
sg1288
Nsg1289
(lp2323
I84
aI1
asg1291
Nsg1292
g2321
sg1293
(lp2324
sg1295
g1255
sg1296
Nsg1297
Nsg1298
Nsbag2
(g3
g4
Ntp2325
Rp2326
(dp2327
g8
g11
sg1276
Nsg1277
(dp2328
sg1279
Nsg26
g29
sg1280
(lp2329
I84
aI2
asg1282
Nsg1283
VSifrei Bamidbar 84:2
p2330
sg1285
(lp2331
sg1287
g48
sg1288
Nsg1289
(lp2332
I84
aI2
asg1291
Nsg1292
g2330
sg1293
(lp2333
sg1295
g1255
sg1296
Nsg1297
Nsg1298
Nsbag2
(g3
g4
Ntp2334
Rp2335
(dp2336
g8
g11
sg1276
Nsg1277
(dp2337
sg1279
Nsg26
g29
sg1280
(lp2338
I84
aI3
asg1282
Nsg1283
VSifrei Bamidbar 84:3
p2339
sg1285
(lp2340
sg1287
g48
sg1288
Nsg1289
(lp2341
I84
aI3
asg1291
Nsg1292
g2339
sg1293
(lp2342
sg1295
g1255
sg1296
Nsg1297
Nsg1298
Nsbag2
(g3
g4
Ntp2343
Rp2344
(dp2345
g8
g11
sg1276
Nsg1277
(dp2346
sg1279
Nsg26
g29
sg1280
(lp2347
I84
aI4
asg1282
Nsg1283
VSifrei Bamidbar 84:4
p2348
sg1285
(lp2349
sg1287
g48
sg1288
Nsg1289
(lp2350
I84
aI4
asg1291
Nsg1292
g2348
sg1293
(lp2351
sg1295
g1255
sg1296
Nsg1297
Nsg1298
Nsbag2
(g3
g4
Ntp2352
Rp2353
(dp2354
g8
g11
sg1276
Nsg1277
(dp2355
sg1279
Nsg26
g29
sg1280
(lp2356
I84
aI5
asg1282
Nsg1283
VSifrei Bamidbar 84:5
p2357
sg1285
(lp2358
sg1287
g48
sg1288
Nsg1289
(lp2359
I84
aI5
asg1291
Nsg1292
g2357
sg1293
(lp2360
sg1295
g1255
sg1296
Nsg1297
Nsg1298
Nsbag2
(g3
g4
Ntp2361
Rp2362
(dp2363
g8
g11
sg1276
Nsg1277
(dp2364
sg1279
Nsg26
g29
sg1280
(lp2365
I85
aI1
asg1282
Nsg1283
VSifrei Bamidbar 85:1
p2366
sg1285
(lp2367
sg1287
g48
sg1288
Nsg1289
(lp2368
I85
aI1
asg1291
Nsg1292
g2366
sg1293
(lp2369
sg1295
g1255
sg1296
Nsg1297
Nsg1298
Nsbag2
(g3
g4
Ntp2370
Rp2371
(dp2372
g8
g11
sg1276
Nsg1277
(dp2373
sg1279
Nsg26
g29
sg1280
(lp2374
I86
aI1
asg1282
Nsg1283
VSifrei Bamidbar 86:1
p2375
sg1285
(lp2376
sg1287
g48
sg1288
Nsg1289
(lp2377
I86
aI1
asg1291
Nsg1292
g2375
sg1293
(lp2378
sg1295
g1255
sg1296
Nsg1297
Nsg1298
Nsbag2
(g3
g4
Ntp2379
Rp2380
(dp2381
g8
g11
sg1276
Nsg1277
(dp2382
sg1279
Nsg26
g29
sg1280
(lp2383
I87
aI1
asg1282
Nsg1283
VSifrei Bamidbar 87:1
p2384
sg1285
(lp2385
sg1287
g48
sg1288
Nsg1289
(lp2386
I87
aI1
asg1291
Nsg1292
g2384
sg1293
(lp2387
sg1295
g1255
sg1296
Nsg1297
Nsg1298
Nsbag2
(g3
g4
Ntp2388
Rp2389
(dp2390
g8
g11
sg1276
Nsg1277
(dp2391
sg1279
Nsg26
g29
sg1280
(lp2392
I88
aI1
asg1282
Nsg1283
VSifrei Bamidbar 88:1
p2393
sg1285
(lp2394
sg1287
g48
sg1288
Nsg1289
(lp2395
I88
aI1
asg1291
Nsg1292
g2393
sg1293
(lp2396
sg1295
g1255
sg1296
Nsg1297
Nsg1298
Nsbag2
(g3
g4
Ntp2397
Rp2398
(dp2399
g8
g11
sg1276
Nsg1277
(dp2400
sg1279
Nsg26
g29
sg1280
(lp2401
I89
aI1
asg1282
Nsg1283
VSifrei Bamidbar 89:1
p2402
sg1285
(lp2403
sg1287
g48
sg1288
Nsg1289
(lp2404
I89
aI1
asg1291
Nsg1292
g2402
sg1293
(lp2405
sg1295
g1255
sg1296
Nsg1297
Nsg1298
Nsbag2
(g3
g4
Ntp2406
Rp2407
(dp2408
g8
g11
sg1276
Nsg1277
(dp2409
sg1279
Nsg26
g29
sg1280
(lp2410
I90
aI1
asg1282
Nsg1283
VSifrei Bamidbar 90:1
p2411
sg1285
(lp2412
sg1287
g48
sg1288
Nsg1289
(lp2413
I90
aI1
asg1291
Nsg1292
g2411
sg1293
(lp2414
sg1295
g1255
sg1296
Nsg1297
Nsg1298
Nsbag2
(g3
g4
Ntp2415
Rp2416
(dp2417
g8
g11
sg1276
Nsg1277
(dp2418
sg1279
Nsg26
g29
sg1280
(lp2419
I91
aI1
asg1282
Nsg1283
VSifrei Bamidbar 91:1
p2420
sg1285
(lp2421
sg1287
g48
sg1288
Nsg1289
(lp2422
I91
aI1
asg1291
Nsg1292
g2420
sg1293
(lp2423
sg1295
g1255
sg1296
Nsg1297
Nsg1298
Nsbag2
(g3
g4
Ntp2424
Rp2425
(dp2426
g8
g11
sg1276
Nsg1277
(dp2427
sg1279
Nsg26
g29
sg1280
(lp2428
I92
aI1
asg1282
Nsg1283
VSifrei Bamidbar 92:1
p2429
sg1285
(lp2430
sg1287
g48
sg1288
Nsg1289
(lp2431
I92
aI1
asg1291
Nsg1292
g2429
sg1293
(lp2432
sg1295
g1255
sg1296
Nsg1297
Nsg1298
Nsbag2
(g3
g4
Ntp2433
Rp2434
(dp2435
g8
g11
sg1276
Nsg1277
(dp2436
sg1279
Nsg26
g29
sg1280
(lp2437
I93
aI1
asg1282
Nsg1283
VSifrei Bamidbar 93:1
p2438
sg1285
(lp2439
sg1287
g48
sg1288
Nsg1289
(lp2440
I93
aI1
asg1291
Nsg1292
g2438
sg1293
(lp2441
sg1295
g1255
sg1296
Nsg1297
Nsg1298
Nsbag2
(g3
g4
Ntp2442
Rp2443
(dp2444
g8
g11
sg1276
Nsg1277
(dp2445
sg1279
Nsg26
g29
sg1280
(lp2446
I94
aI1
asg1282
Nsg1283
VSifrei Bamidbar 94:1
p2447
sg1285
(lp2448
sg1287
g48
sg1288
Nsg1289
(lp2449
I94
aI1
asg1291
Nsg1292
g2447
sg1293
(lp2450
sg1295
g1255
sg1296
Nsg1297
Nsg1298
Nsbag2
(g3
g4
Ntp2451
Rp2452
(dp2453
g8
g11
sg1276
Nsg1277
(dp2454
sg1279
Nsg26
g29
sg1280
(lp2455
I95
aI1
asg1282
Nsg1283
VSifrei Bamidbar 95:1
p2456
sg1285
(lp2457
sg1287
g48
sg1288
Nsg1289
(lp2458
I95
aI1
asg1291
Nsg1292
g2456
sg1293
(lp2459
sg1295
g1255
sg1296
Nsg1297
Nsg1298
Nsbag2
(g3
g4
Ntp2460
Rp2461
(dp2462
g8
g11
sg1276
Nsg1277
(dp2463
sg1279
Nsg26
g29
sg1280
(lp2464
I95
aI2
asg1282
Nsg1283
VSifrei Bamidbar 95:2
p2465
sg1285
(lp2466
sg1287
g48
sg1288
Nsg1289
(lp2467
I95
aI2
asg1291
Nsg1292
g2465
sg1293
(lp2468
sg1295
g1255
sg1296
Nsg1297
Nsg1298
Nsbag2
(g3
g4
Ntp2469
Rp2470
(dp2471
g8
g11
sg1276
Nsg1277
(dp2472
sg1279
Nsg26
g29
sg1280
(lp2473
I96
aI1
asg1282
Nsg1283
VSifrei Bamidbar 96:1
p2474
sg1285
(lp2475
sg1287
g48
sg1288
Nsg1289
(lp2476
I96
aI1
asg1291
Nsg1292
g2474
sg1293
(lp2477
sg1295
g1255
sg1296
Nsg1297
Nsg1298
Nsbag2
(g3
g4
Ntp2478
Rp2479
(dp2480
g8
g11
sg1276
Nsg1277
(dp2481
sg1279
Nsg26
g29
sg1280
(lp2482
I97
aI1
asg1282
Nsg1283
VSifrei Bamidbar 97:1
p2483
sg1285
(lp2484
sg1287
g48
sg1288
Nsg1289
(lp2485
I97
aI1
asg1291
Nsg1292
g2483
sg1293
(lp2486
sg1295
g1255
sg1296
Nsg1297
Nsg1298
Nsbag2
(g3
g4
Ntp2487
Rp2488
(dp2489
g8
g11
sg1276
Nsg1277
(dp2490
sg1279
Nsg26
g29
sg1280
(lp2491
I98
aI1
asg1282
Nsg1283
VSifrei Bamidbar 98:1
p2492
sg1285
(lp2493
sg1287
g48
sg1288
Nsg1289
(lp2494
I98
aI1
asg1291
Nsg1292
g2492
sg1293
(lp2495
sg1295
g1255
sg1296
Nsg1297
Nsg1298
Nsbag2
(g3
g4
Ntp2496
Rp2497
(dp2498
g8
g11
sg1276
Nsg1277
(dp2499
sg1279
Nsg26
g29
sg1280
(lp2500
I99
aI1
asg1282
Nsg1283
VSifrei Bamidbar 99:1
p2501
sg1285
(lp2502
sg1287
g48
sg1288
Nsg1289
(lp2503
I99
aI1
asg1291
Nsg1292
g2501
sg1293
(lp2504
sg1295
g1255
sg1296
Nsg1297
Nsg1298
Nsbag2
(g3
g4
Ntp2505
Rp2506
(dp2507
g8
g11
sg1276
Nsg1277
(dp2508
sg1279
Nsg26
g29
sg1280
(lp2509
I100
aI1
asg1282
Nsg1283
VSifrei Bamidbar 100:1
p2510
sg1285
(lp2511
sg1287
g48
sg1288
Nsg1289
(lp2512
I100
aI1
asg1291
Nsg1292
g2510
sg1293
(lp2513
sg1295
g1255
sg1296
Nsg1297
Nsg1298
Nsbag2
(g3
g4
Ntp2514
Rp2515
(dp2516
g8
g11
sg1276
Nsg1277
(dp2517
sg1279
Nsg26
g29
sg1280
(lp2518
I101
aI1
asg1282
Nsg1283
VSifrei Bamidbar 101:1
p2519
sg1285
(lp2520
sg1287
g48
sg1288
Nsg1289
(lp2521
I101
aI1
asg1291
Nsg1292
g2519
sg1293
(lp2522
sg1295
g1255
sg1296
Nsg1297
Nsg1298
Nsbag2
(g3
g4
Ntp2523
Rp2524
(dp2525
g8
g11
sg1276
Nsg1277
(dp2526
sg1279
Nsg26
g29
sg1280
(lp2527
I102
aI1
asg1282
Nsg1283
VSifrei Bamidbar 102:1
p2528
sg1285
(lp2529
sg1287
g48
sg1288
Nsg1289
(lp2530
I102
aI1
asg1291
Nsg1292
g2528
sg1293
(lp2531
sg1295
g1255
sg1296
Nsg1297
Nsg1298
Nsbag2
(g3
g4
Ntp2532
Rp2533
(dp2534
g8
g11
sg1276
Nsg1277
(dp2535
sg1279
Nsg26
g29
sg1280
(lp2536
I103
aI1
asg1282
Nsg1283
VSifrei Bamidbar 103:1
p2537
sg1285
(lp2538
sg1287
g48
sg1288
Nsg1289
(lp2539
I103
aI1
asg1291
Nsg1292
g2537
sg1293
(lp2540
sg1295
g1255
sg1296
Nsg1297
Nsg1298
Nsbag2
(g3
g4
Ntp2541
Rp2542
(dp2543
g8
g11
sg1276
Nsg1277
(dp2544
sg1279
Nsg26
g29
sg1280
(lp2545
I104
aI1
asg1282
Nsg1283
VSifrei Bamidbar 104:1
p2546
sg1285
(lp2547
sg1287
g48
sg1288
Nsg1289
(lp2548
I104
aI1
asg1291
Nsg1292
g2546
sg1293
(lp2549
sg1295
g1255
sg1296
Nsg1297
Nsg1298
Nsbag2
(g3
g4
Ntp2550
Rp2551
(dp2552
g8
g11
sg1276
Nsg1277
(dp2553
sg1279
Nsg26
g29
sg1280
(lp2554
I105
aI1
asg1282
Nsg1283
VSifrei Bamidbar 105:1
p2555
sg1285
(lp2556
sg1287
g48
sg1288
Nsg1289
(lp2557
I105
aI1
asg1291
Nsg1292
g2555
sg1293
(lp2558
sg1295
g1255
sg1296
Nsg1297
Nsg1298
Nsbag2
(g3
g4
Ntp2559
Rp2560
(dp2561
g8
g11
sg1276
Nsg1277
(dp2562
sg1279
Nsg26
g29
sg1280
(lp2563
I106
aI1
asg1282
Nsg1283
VSifrei Bamidbar 106:1
p2564
sg1285
(lp2565
sg1287
g48
sg1288
Nsg1289
(lp2566
I106
aI1
asg1291
Nsg1292
g2564
sg1293
(lp2567
sg1295
g1255
sg1296
Nsg1297
Nsg1298
Nsbag2
(g3
g4
Ntp2568
Rp2569
(dp2570
g8
g11
sg1276
Nsg1277
(dp2571
sg1279
Nsg26
g29
sg1280
(lp2572
I107
aI1
asg1282
Nsg1283
VSifrei Bamidbar 107:1
p2573
sg1285
(lp2574
sg1287
g48
sg1288
Nsg1289
(lp2575
I107
aI1
asg1291
Nsg1292
g2573
sg1293
(lp2576
sg1295
g1255
sg1296
Nsg1297
Nsg1298
Nsbag2
(g3
g4
Ntp2577
Rp2578
(dp2579
g8
g11
sg1276
Nsg1277
(dp2580
sg1279
Nsg26
g29
sg1280
(lp2581
I107
aI2
asg1282
Nsg1283
VSifrei Bamidbar 107:2
p2582
sg1285
(lp2583
sg1287
g48
sg1288
Nsg1289
(lp2584
I107
aI2
asg1291
Nsg1292
g2582
sg1293
(lp2585
sg1295
g1255
sg1296
Nsg1297
Nsg1298
Nsbag2
(g3
g4
Ntp2586
Rp2587
(dp2588
g8
g11
sg1276
Nsg1277
(dp2589
sg1279
Nsg26
g29
sg1280
(lp2590
I107
aI3
asg1282
Nsg1283
VSifrei Bamidbar 107:3
p2591
sg1285
(lp2592
sg1287
g48
sg1288
Nsg1289
(lp2593
I107
aI3
asg1291
Nsg1292
g2591
sg1293
(lp2594
sg1295
g1255
sg1296
Nsg1297
Nsg1298
Nsbag2
(g3
g4
Ntp2595
Rp2596
(dp2597
g8
g11
sg1276
Nsg1277
(dp2598
sg1279
Nsg26
g29
sg1280
(lp2599
I108
aI1
asg1282
Nsg1283
VSifrei Bamidbar 108:1
p2600
sg1285
(lp2601
sg1287
g48
sg1288
Nsg1289
(lp2602
I108
aI1
asg1291
Nsg1292
g2600
sg1293
(lp2603
sg1295
g1255
sg1296
Nsg1297
Nsg1298
Nsbag2
(g3
g4
Ntp2604
Rp2605
(dp2606
g8
g11
sg1276
Nsg1277
(dp2607
sg1279
Nsg26
g29
sg1280
(lp2608
I109
aI1
asg1282
Nsg1283
VSifrei Bamidbar 109:1
p2609
sg1285
(lp2610
sg1287
g48
sg1288
Nsg1289
(lp2611
I109
aI1
asg1291
Nsg1292
g2609
sg1293
(lp2612
sg1295
g1255
sg1296
Nsg1297
Nsg1298
Nsbag2
(g3
g4
Ntp2613
Rp2614
(dp2615
g8
g11
sg1276
Nsg1277
(dp2616
sg1279
Nsg26
g29
sg1280
(lp2617
I110
aI1
asg1282
Nsg1283
VSifrei Bamidbar 110:1
p2618
sg1285
(lp2619
sg1287
g48
sg1288
Nsg1289
(lp2620
I110
aI1
asg1291
Nsg1292
g2618
sg1293
(lp2621
sg1295
g1255
sg1296
Nsg1297
Nsg1298
Nsbag2
(g3
g4
Ntp2622
Rp2623
(dp2624
g8
g11
sg1276
Nsg1277
(dp2625
sg1279
Nsg26
g29
sg1280
(lp2626
I110
aI2
asg1282
Nsg1283
VSifrei Bamidbar 110:2
p2627
sg1285
(lp2628
sg1287
g48
sg1288
Nsg1289
(lp2629
I110
aI2
asg1291
Nsg1292
g2627
sg1293
(lp2630
sg1295
g1255
sg1296
Nsg1297
Nsg1298
Nsbag2
(g3
g4
Ntp2631
Rp2632
(dp2633
g8
g11
sg1276
Nsg1277
(dp2634
sg1279
Nsg26
g29
sg1280
(lp2635
I111
aI1
asg1282
Nsg1283
VSifrei Bamidbar 111:1
p2636
sg1285
(lp2637
sg1287
g48
sg1288
Nsg1289
(lp2638
I111
aI1
asg1291
Nsg1292
g2636
sg1293
(lp2639
sg1295
g1255
sg1296
Nsg1297
Nsg1298
Nsbag2
(g3
g4
Ntp2640
Rp2641
(dp2642
g8
g11
sg1276
Nsg1277
(dp2643
sg1279
Nsg26
g29
sg1280
(lp2644
I111
aI2
asg1282
Nsg1283
VSifrei Bamidbar 111:2
p2645
sg1285
(lp2646
sg1287
g48
sg1288
Nsg1289
(lp2647
I111
aI2
asg1291
Nsg1292
g2645
sg1293
(lp2648
sg1295
g1255
sg1296
Nsg1297
Nsg1298
Nsbag2
(g3
g4
Ntp2649
Rp2650
(dp2651
g8
g11
sg1276
Nsg1277
(dp2652
sg1279
Nsg26
g29
sg1280
(lp2653
I111
aI3
asg1282
Nsg1283
VSifrei Bamidbar 111:3
p2654
sg1285
(lp2655
sg1287
g48
sg1288
Nsg1289
(lp2656
I111
aI3
asg1291
Nsg1292
g2654
sg1293
(lp2657
sg1295
g1255
sg1296
Nsg1297
Nsg1298
Nsbag2
(g3
g4
Ntp2658
Rp2659
(dp2660
g8
g11
sg1276
Nsg1277
(dp2661
sg1279
Nsg26
g29
sg1280
(lp2662
I112
aI1
asg1282
Nsg1283
VSifrei Bamidbar 112:1
p2663
sg1285
(lp2664
sg1287
g48
sg1288
Nsg1289
(lp2665
I112
aI1
asg1291
Nsg1292
g2663
sg1293
(lp2666
sg1295
g1255
sg1296
Nsg1297
Nsg1298
Nsbag2
(g3
g4
Ntp2667
Rp2668
(dp2669
g8
g11
sg1276
Nsg1277
(dp2670
sg1279
Nsg26
g29
sg1280
(lp2671
I112
aI2
asg1282
Nsg1283
VSifrei Bamidbar 112:2
p2672
sg1285
(lp2673
sg1287
g48
sg1288
Nsg1289
(lp2674
I112
aI2
asg1291
Nsg1292
g2672
sg1293
(lp2675
sg1295
g1255
sg1296
Nsg1297
Nsg1298
Nsbag2
(g3
g4
Ntp2676
Rp2677
(dp2678
g8
g11
sg1276
Nsg1277
(dp2679
sg1279
Nsg26
g29
sg1280
(lp2680
I113
aI1
asg1282
Nsg1283
VSifrei Bamidbar 113:1
p2681
sg1285
(lp2682
sg1287
g48
sg1288
Nsg1289
(lp2683
I113
aI1
asg1291
Nsg1292
g2681
sg1293
(lp2684
sg1295
g1255
sg1296
Nsg1297
Nsg1298
Nsbag2
(g3
g4
Ntp2685
Rp2686
(dp2687
g8
g11
sg1276
Nsg1277
(dp2688
sg1279
Nsg26
g29
sg1280
(lp2689
I114
aI1
asg1282
Nsg1283
VSifrei Bamidbar 114:1
p2690
sg1285
(lp2691
sg1287
g48
sg1288
Nsg1289
(lp2692
I114
aI1
asg1291
Nsg1292
g2690
sg1293
(lp2693
sg1295
g1255
sg1296
Nsg1297
Nsg1298
Nsbag2
(g3
g4
Ntp2694
Rp2695
(dp2696
g8
g11
sg1276
Nsg1277
(dp2697
sg1279
Nsg26
g29
sg1280
(lp2698
I115
aI1
asg1282
Nsg1283
VSifrei Bamidbar 115:1
p2699
sg1285
(lp2700
sg1287
g48
sg1288
Nsg1289
(lp2701
I115
aI1
asg1291
Nsg1292
g2699
sg1293
(lp2702
sg1295
g1255
sg1296
Nsg1297
Nsg1298
Nsbag2
(g3
g4
Ntp2703
Rp2704
(dp2705
g8
g11
sg1276
Nsg1277
(dp2706
sg1279
Nsg26
g29
sg1280
(lp2707
I115
aI2
asg1282
Nsg1283
VSifrei Bamidbar 115:2
p2708
sg1285
(lp2709
sg1287
g48
sg1288
Nsg1289
(lp2710
I115
aI2
asg1291
Nsg1292
g2708
sg1293
(lp2711
sg1295
g1255
sg1296
Nsg1297
Nsg1298
Nsbag2
(g3
g4
Ntp2712
Rp2713
(dp2714
g8
g11
sg1276
Nsg1277
(dp2715
sg1279
Nsg26
g29
sg1280
(lp2716
I116
aI1
asg1282
Nsg1283
VSifrei Bamidbar 116:1
p2717
sg1285
(lp2718
sg1287
g48
sg1288
Nsg1289
(lp2719
I116
aI1
asg1291
Nsg1292
g2717
sg1293
(lp2720
sg1295
g1255
sg1296
Nsg1297
Nsg1298
Nsbag2
(g3
g4
Ntp2721
Rp2722
(dp2723
g8
g11
sg1276
Nsg1277
(dp2724
sg1279
Nsg26
g29
sg1280
(lp2725
I116
aI2
asg1282
Nsg1283
VSifrei Bamidbar 116:2
p2726
sg1285
(lp2727
sg1287
g48
sg1288
Nsg1289
(lp2728
I116
aI2
asg1291
Nsg1292
g2726
sg1293
(lp2729
sg1295
g1255
sg1296
Nsg1297
Nsg1298
Nsbag2
(g3
g4
Ntp2730
Rp2731
(dp2732
g8
g11
sg1276
Nsg1277
(dp2733
sg1279
Nsg26
g29
sg1280
(lp2734
I117
aI1
asg1282
Nsg1283
VSifrei Bamidbar 117:1
p2735
sg1285
(lp2736
sg1287
g48
sg1288
Nsg1289
(lp2737
I117
aI1
asg1291
Nsg1292
g2735
sg1293
(lp2738
sg1295
g1255
sg1296
Nsg1297
Nsg1298
Nsbag2
(g3
g4
Ntp2739
Rp2740
(dp2741
g8
g11
sg1276
Nsg1277
(dp2742
sg1279
Nsg26
g29
sg1280
(lp2743
I117
aI2
asg1282
Nsg1283
VSifrei Bamidbar 117:2
p2744
sg1285
(lp2745
sg1287
g48
sg1288
Nsg1289
(lp2746
I117
aI2
asg1291
Nsg1292
g2744
sg1293
(lp2747
sg1295
g1255
sg1296
Nsg1297
Nsg1298
Nsbag2
(g3
g4
Ntp2748
Rp2749
(dp2750
g8
g11
sg1276
Nsg1277
(dp2751
sg1279
Nsg26
g29
sg1280
(lp2752
I117
aI3
asg1282
Nsg1283
VSifrei Bamidbar 117:3
p2753
sg1285
(lp2754
sg1287
g48
sg1288
Nsg1289
(lp2755
I117
aI3
asg1291
Nsg1292
g2753
sg1293
(lp2756
sg1295
g1255
sg1296
Nsg1297
Nsg1298
Nsbag2
(g3
g4
Ntp2757
Rp2758
(dp2759
g8
g11
sg1276
Nsg1277
(dp2760
sg1279
Nsg26
g29
sg1280
(lp2761
I118
aI1
asg1282
Nsg1283
VSifrei Bamidbar 118:1
p2762
sg1285
(lp2763
sg1287
g48
sg1288
Nsg1289
(lp2764
I118
aI1
asg1291
Nsg1292
g2762
sg1293
(lp2765
sg1295
g1255
sg1296
Nsg1297
Nsg1298
Nsbag2
(g3
g4
Ntp2766
Rp2767
(dp2768
g8
g11
sg1276
Nsg1277
(dp2769
sg1279
Nsg26
g29
sg1280
(lp2770
I119
aI1
asg1282
Nsg1283
VSifrei Bamidbar 119:1
p2771
sg1285
(lp2772
sg1287
g48
sg1288
Nsg1289
(lp2773
I119
aI1
asg1291
Nsg1292
g2771
sg1293
(lp2774
sg1295
g1255
sg1296
Nsg1297
Nsg1298
Nsbag2
(g3
g4
Ntp2775
Rp2776
(dp2777
g8
g11
sg1276
Nsg1277
(dp2778
sg1279
Nsg26
g29
sg1280
(lp2779
I119
aI2
asg1282
Nsg1283
VSifrei Bamidbar 119:2
p2780
sg1285
(lp2781
sg1287
g48
sg1288
Nsg1289
(lp2782
I119
aI2
asg1291
Nsg1292
g2780
sg1293
(lp2783
sg1295
g1255
sg1296
Nsg1297
Nsg1298
Nsbag2
(g3
g4
Ntp2784
Rp2785
(dp2786
g8
g11
sg1276
Nsg1277
(dp2787
sg1279
Nsg26
g29
sg1280
(lp2788
I119
aI3
asg1282
Nsg1283
VSifrei Bamidbar 119:3
p2789
sg1285
(lp2790
sg1287
g48
sg1288
Nsg1289
(lp2791
I119
aI3
asg1291
Nsg1292
g2789
sg1293
(lp2792
sg1295
g1255
sg1296
Nsg1297
Nsg1298
Nsbag2
(g3
g4
Ntp2793
Rp2794
(dp2795
g8
g11
sg1276
Nsg1277
(dp2796
sg1279
Nsg26
g29
sg1280
(lp2797
I119
aI4
asg1282
Nsg1283
VSifrei Bamidbar 119:4
p2798
sg1285
(lp2799
sg1287
g48
sg1288
Nsg1289
(lp2800
I119
aI4
asg1291
Nsg1292
g2798
sg1293
(lp2801
sg1295
g1255
sg1296
Nsg1297
Nsg1298
Nsbag2
(g3
g4
Ntp2802
Rp2803
(dp2804
g8
g11
sg1276
Nsg1277
(dp2805
sg1279
Nsg26
g29
sg1280
(lp2806
I119
aI5
asg1282
Nsg1283
VSifrei Bamidbar 119:5
p2807
sg1285
(lp2808
sg1287
g48
sg1288
Nsg1289
(lp2809
I119
aI5
asg1291
Nsg1292
g2807
sg1293
(lp2810
sg1295
g1255
sg1296
Nsg1297
Nsg1298
Nsbag2
(g3
g4
Ntp2811
Rp2812
(dp2813
g8
g11
sg1276
Nsg1277
(dp2814
sg1279
Nsg26
g29
sg1280
(lp2815
I120
aI1
asg1282
Nsg1283
VSifrei Bamidbar 120:1
p2816
sg1285
(lp2817
sg1287
g48
sg1288
Nsg1289
(lp2818
I120
aI1
asg1291
Nsg1292
g2816
sg1293
(lp2819
sg1295
g1255
sg1296
Nsg1297
Nsg1298
Nsbag2
(g3
g4
Ntp2820
Rp2821
(dp2822
g8
g11
sg1276
Nsg1277
(dp2823
sg1279
Nsg26
g29
sg1280
(lp2824
I121
aI1
asg1282
Nsg1283
VSifrei Bamidbar 121:1
p2825
sg1285
(lp2826
sg1287
g48
sg1288
Nsg1289
(lp2827
I121
aI1
asg1291
Nsg1292
g2825
sg1293
(lp2828
sg1295
g1255
sg1296
Nsg1297
Nsg1298
Nsbag2
(g3
g4
Ntp2829
Rp2830
(dp2831
g8
g11
sg1276
Nsg1277
(dp2832
sg1279
Nsg26
g29
sg1280
(lp2833
I122
aI1
asg1282
Nsg1283
VSifrei Bamidbar 122:1
p2834
sg1285
(lp2835
sg1287
g48
sg1288
Nsg1289
(lp2836
I122
aI1
asg1291
Nsg1292
g2834
sg1293
(lp2837
sg1295
g1255
sg1296
Nsg1297
Nsg1298
Nsbag2
(g3
g4
Ntp2838
Rp2839
(dp2840
g8
g11
sg1276
Nsg1277
(dp2841
sg1279
Nsg26
g29
sg1280
(lp2842
I123
aI1
asg1282
Nsg1283
VSifrei Bamidbar 123:1
p2843
sg1285
(lp2844
sg1287
g48
sg1288
Nsg1289
(lp2845
I123
aI1
asg1291
Nsg1292
g2843
sg1293
(lp2846
sg1295
g1255
sg1296
Nsg1297
Nsg1298
Nsbag2
(g3
g4
Ntp2847
Rp2848
(dp2849
g8
g11
sg1276
Nsg1277
(dp2850
sg1279
Nsg26
g29
sg1280
(lp2851
I123
aI2
asg1282
Nsg1283
VSifrei Bamidbar 123:2
p2852
sg1285
(lp2853
sg1287
g48
sg1288
Nsg1289
(lp2854
I123
aI2
asg1291
Nsg1292
g2852
sg1293
(lp2855
sg1295
g1255
sg1296
Nsg1297
Nsg1298
Nsbag2
(g3
g4
Ntp2856
Rp2857
(dp2858
g8
g11
sg1276
Nsg1277
(dp2859
sg1279
Nsg26
g29
sg1280
(lp2860
I124
aI1
asg1282
Nsg1283
VSifrei Bamidbar 124:1
p2861
sg1285
(lp2862
sg1287
g48
sg1288
Nsg1289
(lp2863
I124
aI1
asg1291
Nsg1292
g2861
sg1293
(lp2864
sg1295
g1255
sg1296
Nsg1297
Nsg1298
Nsbag2
(g3
g4
Ntp2865
Rp2866
(dp2867
g8
g11
sg1276
Nsg1277
(dp2868
sg1279
Nsg26
g29
sg1280
(lp2869
I124
aI2
asg1282
Nsg1283
VSifrei Bamidbar 124:2
p2870
sg1285
(lp2871
sg1287
g48
sg1288
Nsg1289
(lp2872
I124
aI2
asg1291
Nsg1292
g2870
sg1293
(lp2873
sg1295
g1255
sg1296
Nsg1297
Nsg1298
Nsbag2
(g3
g4
Ntp2874
Rp2875
(dp2876
g8
g11
sg1276
Nsg1277
(dp2877
sg1279
Nsg26
g29
sg1280
(lp2878
I125
aI1
asg1282
Nsg1283
VSifrei Bamidbar 125:1
p2879
sg1285
(lp2880
sg1287
g48
sg1288
Nsg1289
(lp2881
I125
aI1
asg1291
Nsg1292
g2879
sg1293
(lp2882
sg1295
g1255
sg1296
Nsg1297
Nsg1298
Nsbag2
(g3
g4
Ntp2883
Rp2884
(dp2885
g8
g11
sg1276
Nsg1277
(dp2886
sg1279
Nsg26
g29
sg1280
(lp2887
I126
aI1
asg1282
Nsg1283
VSifrei Bamidbar 126:1
p2888
sg1285
(lp2889
sg1287
g48
sg1288
Nsg1289
(lp2890
I126
aI1
asg1291
Nsg1292
g2888
sg1293
(lp2891
sg1295
g1255
sg1296
Nsg1297
Nsg1298
Nsbag2
(g3
g4
Ntp2892
Rp2893
(dp2894
g8
g11
sg1276
Nsg1277
(dp2895
sg1279
Nsg26
g29
sg1280
(lp2896
I127
aI1
asg1282
Nsg1283
VSifrei Bamidbar 127:1
p2897
sg1285
(lp2898
sg1287
g48
sg1288
Nsg1289
(lp2899
I127
aI1
asg1291
Nsg1292
g2897
sg1293
(lp2900
sg1295
g1255
sg1296
Nsg1297
Nsg1298
Nsbag2
(g3
g4
Ntp2901
Rp2902
(dp2903
g8
g11
sg1276
Nsg1277
(dp2904
sg1279
Nsg26
g29
sg1280
(lp2905
I127
aI2
asg1282
Nsg1283
VSifrei Bamidbar 127:2
p2906
sg1285
(lp2907
sg1287
g48
sg1288
Nsg1289
(lp2908
I127
aI2
asg1291
Nsg1292
g2906
sg1293
(lp2909
sg1295
g1255
sg1296
Nsg1297
Nsg1298
Nsbag2
(g3
g4
Ntp2910
Rp2911
(dp2912
g8
g11
sg1276
Nsg1277
(dp2913
sg1279
Nsg26
g29
sg1280
(lp2914
I127
aI3
asg1282
Nsg1283
VSifrei Bamidbar 127:3
p2915
sg1285
(lp2916
sg1287
g48
sg1288
Nsg1289
(lp2917
I127
aI3
asg1291
Nsg1292
g2915
sg1293
(lp2918
sg1295
g1255
sg1296
Nsg1297
Nsg1298
Nsbag2
(g3
g4
Ntp2919
Rp2920
(dp2921
g8
g11
sg1276
Nsg1277
(dp2922
sg1279
Nsg26
g29
sg1280
(lp2923
I127
aI4
asg1282
Nsg1283
VSifrei Bamidbar 127:4
p2924
sg1285
(lp2925
sg1287
g48
sg1288
Nsg1289
(lp2926
I127
aI4
asg1291
Nsg1292
g2924
sg1293
(lp2927
sg1295
g1255
sg1296
Nsg1297
Nsg1298
Nsbag2
(g3
g4
Ntp2928
Rp2929
(dp2930
g8
g11
sg1276
Nsg1277
(dp2931
sg1279
Nsg26
g29
sg1280
(lp2932
I127
aI5
asg1282
Nsg1283
VSifrei Bamidbar 127:5
p2933
sg1285
(lp2934
sg1287
g48
sg1288
Nsg1289
(lp2935
I127
aI5
asg1291
Nsg1292
g2933
sg1293
(lp2936
sg1295
g1255
sg1296
Nsg1297
Nsg1298
Nsbag2
(g3
g4
Ntp2937
Rp2938
(dp2939
g8
g11
sg1276
Nsg1277
(dp2940
sg1279
Nsg26
g29
sg1280
(lp2941
I128
aI1
asg1282
Nsg1283
VSifrei Bamidbar 128:1
p2942
sg1285
(lp2943
sg1287
g48
sg1288
Nsg1289
(lp2944
I128
aI1
asg1291
Nsg1292
g2942
sg1293
(lp2945
sg1295
g1255
sg1296
Nsg1297
Nsg1298
Nsbag2
(g3
g4
Ntp2946
Rp2947
(dp2948
g8
g11
sg1276
Nsg1277
(dp2949
sg1279
Nsg26
g29
sg1280
(lp2950
I128
aI2
asg1282
Nsg1283
VSifrei Bamidbar 128:2
p2951
sg1285
(lp2952
sg1287
g48
sg1288
Nsg1289
(lp2953
I128
aI2
asg1291
Nsg1292
g2951
sg1293
(lp2954
sg1295
g1255
sg1296
Nsg1297
Nsg1298
Nsbag2
(g3
g4
Ntp2955
Rp2956
(dp2957
g8
g11
sg1276
Nsg1277
(dp2958
sg1279
Nsg26
g29
sg1280
(lp2959
I129
aI1
asg1282
Nsg1283
VSifrei Bamidbar 129:1
p2960
sg1285
(lp2961
sg1287
g48
sg1288
Nsg1289
(lp2962
I129
aI1
asg1291
Nsg1292
g2960
sg1293
(lp2963
sg1295
g1255
sg1296
Nsg1297
Nsg1298
Nsbag2
(g3
g4
Ntp2964
Rp2965
(dp2966
g8
g11
sg1276
Nsg1277
(dp2967
sg1279
Nsg26
g29
sg1280
(lp2968
I129
aI2
asg1282
Nsg1283
VSifrei Bamidbar 129:2
p2969
sg1285
(lp2970
sg1287
g48
sg1288
Nsg1289
(lp2971
I129
aI2
asg1291
Nsg1292
g2969
sg1293
(lp2972
sg1295
g1255
sg1296
Nsg1297
Nsg1298
Nsbag2
(g3
g4
Ntp2973
Rp2974
(dp2975
g8
g11
sg1276
Nsg1277
(dp2976
sg1279
Nsg26
g29
sg1280
(lp2977
I129
aI3
asg1282
Nsg1283
VSifrei Bamidbar 129:3
p2978
sg1285
(lp2979
sg1287
g48
sg1288
Nsg1289
(lp2980
I129
aI3
asg1291
Nsg1292
g2978
sg1293
(lp2981
sg1295
g1255
sg1296
Nsg1297
Nsg1298
Nsbag2
(g3
g4
Ntp2982
Rp2983
(dp2984
g8
g11
sg1276
Nsg1277
(dp2985
sg1279
Nsg26
g29
sg1280
(lp2986
I129
aI4
asg1282
Nsg1283
VSifrei Bamidbar 129:4
p2987
sg1285
(lp2988
sg1287
g48
sg1288
Nsg1289
(lp2989
I129
aI4
asg1291
Nsg1292
g2987
sg1293
(lp2990
sg1295
g1255
sg1296
Nsg1297
Nsg1298
Nsbag2
(g3
g4
Ntp2991
Rp2992
(dp2993
g8
g11
sg1276
Nsg1277
(dp2994
sg1279
Nsg26
g29
sg1280
(lp2995
I129
aI5
asg1282
Nsg1283
VSifrei Bamidbar 129:5
p2996
sg1285
(lp2997
sg1287
g48
sg1288
Nsg1289
(lp2998
I129
aI5
asg1291
Nsg1292
g2996
sg1293
(lp2999
sg1295
g1255
sg1296
Nsg1297
Nsg1298
Nsbag2
(g3
g4
Ntp3000
Rp3001
(dp3002
g8
g11
sg1276
Nsg1277
(dp3003
sg1279
Nsg26
g29
sg1280
(lp3004
I130
aI1
asg1282
Nsg1283
VSifrei Bamidbar 130:1
p3005
sg1285
(lp3006
sg1287
g48
sg1288
Nsg1289
(lp3007
I130
aI1
asg1291
Nsg1292
g3005
sg1293
(lp3008
sg1295
g1255
sg1296
Nsg1297
Nsg1298
Nsbag2
(g3
g4
Ntp3009
Rp3010
(dp3011
g8
g11
sg1276
Nsg1277
(dp3012
sg1279
Nsg26
g29
sg1280
(lp3013
I131
aI1
asg1282
Nsg1283
VSifrei Bamidbar 131:1
p3014
sg1285
(lp3015
sg1287
g48
sg1288
Nsg1289
(lp3016
I131
aI1
asg1291
Nsg1292
g3014
sg1293
(lp3017
sg1295
g1255
sg1296
Nsg1297
Nsg1298
Nsbag2
(g3
g4
Ntp3018
Rp3019
(dp3020
g8
g11
sg1276
Nsg1277
(dp3021
sg1279
Nsg26
g29
sg1280
(lp3022
I131
aI2
asg1282
Nsg1283
VSifrei Bamidbar 131:2
p3023
sg1285
(lp3024
sg1287
g48
sg1288
Nsg1289
(lp3025
I131
aI2
asg1291
Nsg1292
g3023
sg1293
(lp3026
sg1295
g1255
sg1296
Nsg1297
Nsg1298
Nsbag2
(g3
g4
Ntp3027
Rp3028
(dp3029
g8
g11
sg1276
Nsg1277
(dp3030
sg1279
Nsg26
g29
sg1280
(lp3031
I131
aI3
asg1282
Nsg1283
VSifrei Bamidbar 131:3
p3032
sg1285
(lp3033
sg1287
g48
sg1288
Nsg1289
(lp3034
I131
aI3
asg1291
Nsg1292
g3032
sg1293
(lp3035
sg1295
g1255
sg1296
Nsg1297
Nsg1298
Nsbag2
(g3
g4
Ntp3036
Rp3037
(dp3038
g8
g11
sg1276
Nsg1277
(dp3039
sg1279
Nsg26
g29
sg1280
(lp3040
I131
aI4
asg1282
Nsg1283
VSifrei Bamidbar 131:4
p3041
sg1285
(lp3042
sg1287
g48
sg1288
Nsg1289
(lp3043
I131
aI4
asg1291
Nsg1292
g3041
sg1293
(lp3044
sg1295
g1255
sg1296
Nsg1297
Nsg1298
Nsbag2
(g3
g4
Ntp3045
Rp3046
(dp3047
g8
g11
sg1276
Nsg1277
(dp3048
sg1279
Nsg26
g29
sg1280
(lp3049
I131
aI5
asg1282
Nsg1283
VSifrei Bamidbar 131:5
p3050
sg1285
(lp3051
sg1287
g48
sg1288
Nsg1289
(lp3052
I131
aI5
asg1291
Nsg1292
g3050
sg1293
(lp3053
sg1295
g1255
sg1296
Nsg1297
Nsg1298
Nsbag2
(g3
g4
Ntp3054
Rp3055
(dp3056
g8
g11
sg1276
Nsg1277
(dp3057
sg1279
Nsg26
g29
sg1280
(lp3058
I132
aI1
asg1282
Nsg1283
VSifrei Bamidbar 132:1
p3059
sg1285
(lp3060
sg1287
g48
sg1288
Nsg1289
(lp3061
I132
aI1
asg1291
Nsg1292
g3059
sg1293
(lp3062
sg1295
g1255
sg1296
Nsg1297
Nsg1298
Nsbag2
(g3
g4
Ntp3063
Rp3064
(dp3065
g8
g11
sg1276
Nsg1277
(dp3066
sg1279
Nsg26
g29
sg1280
(lp3067
I132
aI2
asg1282
Nsg1283
VSifrei Bamidbar 132:2
p3068
sg1285
(lp3069
sg1287
g48
sg1288
Nsg1289
(lp3070
I132
aI2
asg1291
Nsg1292
g3068
sg1293
(lp3071
sg1295
g1255
sg1296
Nsg1297
Nsg1298
Nsbag2
(g3
g4
Ntp3072
Rp3073
(dp3074
g8
g11
sg1276
Nsg1277
(dp3075
sg1279
Nsg26
g29
sg1280
(lp3076
I132
aI3
asg1282
Nsg1283
VSifrei Bamidbar 132:3
p3077
sg1285
(lp3078
sg1287
g48
sg1288
Nsg1289
(lp3079
I132
aI3
asg1291
Nsg1292
g3077
sg1293
(lp3080
sg1295
g1255
sg1296
Nsg1297
Nsg1298
Nsbag2
(g3
g4
Ntp3081
Rp3082
(dp3083
g8
g11
sg1276
Nsg1277
(dp3084
sg1279
Nsg26
g29
sg1280
(lp3085
I132
aI4
asg1282
Nsg1283
VSifrei Bamidbar 132:4
p3086
sg1285
(lp3087
sg1287
g48
sg1288
Nsg1289
(lp3088
I132
aI4
asg1291
Nsg1292
g3086
sg1293
(lp3089
sg1295
g1255
sg1296
Nsg1297
Nsg1298
Nsbag2
(g3
g4
Ntp3090
Rp3091
(dp3092
g8
g11
sg1276
Nsg1277
(dp3093
sg1279
Nsg26
g29
sg1280
(lp3094
I133
aI1
asg1282
Nsg1283
VSifrei Bamidbar 133:1
p3095
sg1285
(lp3096
sg1287
g48
sg1288
Nsg1289
(lp3097
I133
aI1
asg1291
Nsg1292
g3095
sg1293
(lp3098
sg1295
g1255
sg1296
Nsg1297
Nsg1298
Nsbag2
(g3
g4
Ntp3099
Rp3100
(dp3101
g8
g11
sg1276
Nsg1277
(dp3102
sg1279
Nsg26
g29
sg1280
(lp3103
I133
aI2
asg1282
Nsg1283
VSifrei Bamidbar 133:2
p3104
sg1285
(lp3105
sg1287
g48
sg1288
Nsg1289
(lp3106
I133
aI2
asg1291
Nsg1292
g3104
sg1293
(lp3107
sg1295
g1255
sg1296
Nsg1297
Nsg1298
Nsbag2
(g3
g4
Ntp3108
Rp3109
(dp3110
g8
g11
sg1276
Nsg1277
(dp3111
sg1279
Nsg26
g29
sg1280
(lp3112
I133
aI3
asg1282
Nsg1283
VSifrei Bamidbar 133:3
p3113
sg1285
(lp3114
sg1287
g48
sg1288
Nsg1289
(lp3115
I133
aI3
asg1291
Nsg1292
g3113
sg1293
(lp3116
sg1295
g1255
sg1296
Nsg1297
Nsg1298
Nsbag2
(g3
g4
Ntp3117
Rp3118
(dp3119
g8
g11
sg1276
Nsg1277
(dp3120
sg1279
Nsg26
g29
sg1280
(lp3121
I133
aI4
asg1282
Nsg1283
VSifrei Bamidbar 133:4
p3122
sg1285
(lp3123
sg1287
g48
sg1288
Nsg1289
(lp3124
I133
aI4
asg1291
Nsg1292
g3122
sg1293
(lp3125
sg1295
g1255
sg1296
Nsg1297
Nsg1298
Nsbag2
(g3
g4
Ntp3126
Rp3127
(dp3128
g8
g11
sg1276
Nsg1277
(dp3129
sg1279
Nsg26
g29
sg1280
(lp3130
I134
aI1
asg1282
Nsg1283
VSifrei Bamidbar 134:1
p3131
sg1285
(lp3132
sg1287
g48
sg1288
Nsg1289
(lp3133
I134
aI1
asg1291
Nsg1292
g3131
sg1293
(lp3134
sg1295
g1255
sg1296
Nsg1297
Nsg1298
Nsbag2
(g3
g4
Ntp3135
Rp3136
(dp3137
g8
g11
sg1276
Nsg1277
(dp3138
sg1279
Nsg26
g29
sg1280
(lp3139
I134
aI2
asg1282
Nsg1283
VSifrei Bamidbar 134:2
p3140
sg1285
(lp3141
sg1287
g48
sg1288
Nsg1289
(lp3142
I134
aI2
asg1291
Nsg1292
g3140
sg1293
(lp3143
sg1295
g1255
sg1296
Nsg1297
Nsg1298
Nsbag2
(g3
g4
Ntp3144
Rp3145
(dp3146
g8
g11
sg1276
Nsg1277
(dp3147
sg1279
Nsg26
g29
sg1280
(lp3148
I134
aI3
asg1282
Nsg1283
VSifrei Bamidbar 134:3
p3149
sg1285
(lp3150
sg1287
g48
sg1288
Nsg1289
(lp3151
I134
aI3
asg1291
Nsg1292
g3149
sg1293
(lp3152
sg1295
g1255
sg1296
Nsg1297
Nsg1298
Nsbag2
(g3
g4
Ntp3153
Rp3154
(dp3155
g8
g11
sg1276
Nsg1277
(dp3156
sg1279
Nsg26
g29
sg1280
(lp3157
I134
aI4
asg1282
Nsg1283
VSifrei Bamidbar 134:4
p3158
sg1285
(lp3159
sg1287
g48
sg1288
Nsg1289
(lp3160
I134
aI4
asg1291
Nsg1292
g3158
sg1293
(lp3161
sg1295
g1255
sg1296
Nsg1297
Nsg1298
Nsbag2
(g3
g4
Ntp3162
Rp3163
(dp3164
g8
g11
sg1276
Nsg1277
(dp3165
sg1279
Nsg26
g29
sg1280
(lp3166
I134
aI5
asg1282
Nsg1283
VSifrei Bamidbar 134:5
p3167
sg1285
(lp3168
sg1287
g48
sg1288
Nsg1289
(lp3169
I134
aI5
asg1291
Nsg1292
g3167
sg1293
(lp3170
sg1295
g1255
sg1296
Nsg1297
Nsg1298
Nsbag2
(g3
g4
Ntp3171
Rp3172
(dp3173
g8
g11
sg1276
Nsg1277
(dp3174
sg1279
Nsg26
g29
sg1280
(lp3175
I135
aI1
asg1282
Nsg1283
VSifrei Bamidbar 135:1
p3176
sg1285
(lp3177
sg1287
g48
sg1288
Nsg1289
(lp3178
I135
aI1
asg1291
Nsg1292
g3176
sg1293
(lp3179
sg1295
g1255
sg1296
Nsg1297
Nsg1298
Nsbag2
(g3
g4
Ntp3180
Rp3181
(dp3182
g8
g11
sg1276
Nsg1277
(dp3183
sg1279
Nsg26
g29
sg1280
(lp3184
I136
aI1
asg1282
Nsg1283
VSifrei Bamidbar 136:1
p3185
sg1285
(lp3186
sg1287
g48
sg1288
Nsg1289
(lp3187
I136
aI1
asg1291
Nsg1292
g3185
sg1293
(lp3188
sg1295
g1255
sg1296
Nsg1297
Nsg1298
Nsbag2
(g3
g4
Ntp3189
Rp3190
(dp3191
g8
g11
sg1276
Nsg1277
(dp3192
sg1279
Nsg26
g29
sg1280
(lp3193
I136
aI2
asg1282
Nsg1283
VSifrei Bamidbar 136:2
p3194
sg1285
(lp3195
sg1287
g48
sg1288
Nsg1289
(lp3196
I136
aI2
asg1291
Nsg1292
g3194
sg1293
(lp3197
sg1295
g1255
sg1296
Nsg1297
Nsg1298
Nsbag2
(g3
g4
Ntp3198
Rp3199
(dp3200
g8
g11
sg1276
Nsg1277
(dp3201
sg1279
Nsg26
g29
sg1280
(lp3202
I136
aI3
asg1282
Nsg1283
VSifrei Bamidbar 136:3
p3203
sg1285
(lp3204
sg1287
g48
sg1288
Nsg1289
(lp3205
I136
aI3
asg1291
Nsg1292
g3203
sg1293
(lp3206
sg1295
g1255
sg1296
Nsg1297
Nsg1298
Nsbag2
(g3
g4
Ntp3207
Rp3208
(dp3209
g8
g11
sg1276
Nsg1277
(dp3210
sg1279
Nsg26
g29
sg1280
(lp3211
I137
aI1
asg1282
Nsg1283
VSifrei Bamidbar 137:1
p3212
sg1285
(lp3213
sg1287
g48
sg1288
Nsg1289
(lp3214
I137
aI1
asg1291
Nsg1292
g3212
sg1293
(lp3215
sg1295
g1255
sg1296
Nsg1297
Nsg1298
Nsbag2
(g3
g4
Ntp3216
Rp3217
(dp3218
g8
g11
sg1276
Nsg1277
(dp3219
sg1279
Nsg26
g29
sg1280
(lp3220
I137
aI2
asg1282
Nsg1283
VSifrei Bamidbar 137:2
p3221
sg1285
(lp3222
sg1287
g48
sg1288
Nsg1289
(lp3223
I137
aI2
asg1291
Nsg1292
g3221
sg1293
(lp3224
sg1295
g1255
sg1296
Nsg1297
Nsg1298
Nsbag2
(g3
g4
Ntp3225
Rp3226
(dp3227
g8
g11
sg1276
Nsg1277
(dp3228
sg1279
Nsg26
g29
sg1280
(lp3229
I138
aI1
asg1282
Nsg1283
VSifrei Bamidbar 138:1
p3230
sg1285
(lp3231
sg1287
g48
sg1288
Nsg1289
(lp3232
I138
aI1
asg1291
Nsg1292
g3230
sg1293
(lp3233
sg1295
g1255
sg1296
Nsg1297
Nsg1298
Nsbag2
(g3
g4
Ntp3234
Rp3235
(dp3236
g8
g11
sg1276
Nsg1277
(dp3237
sg1279
Nsg26
g29
sg1280
(lp3238
I139
aI1
asg1282
Nsg1283
VSifrei Bamidbar 139:1
p3239
sg1285
(lp3240
sg1287
g48
sg1288
Nsg1289
(lp3241
I139
aI1
asg1291
Nsg1292
g3239
sg1293
(lp3242
sg1295
g1255
sg1296
Nsg1297
Nsg1298
Nsbag2
(g3
g4
Ntp3243
Rp3244
(dp3245
g8
g11
sg1276
Nsg1277
(dp3246
sg1279
Nsg26
g29
sg1280
(lp3247
I139
aI2
asg1282
Nsg1283
VSifrei Bamidbar 139:2
p3248
sg1285
(lp3249
sg1287
g48
sg1288
Nsg1289
(lp3250
I139
aI2
asg1291
Nsg1292
g3248
sg1293
(lp3251
sg1295
g1255
sg1296
Nsg1297
Nsg1298
Nsbag2
(g3
g4
Ntp3252
Rp3253
(dp3254
g8
g11
sg1276
Nsg1277
(dp3255
sg1279
Nsg26
g29
sg1280
(lp3256
I140
aI1
asg1282
Nsg1283
VSifrei Bamidbar 140:1
p3257
sg1285
(lp3258
sg1287
g48
sg1288
Nsg1289
(lp3259
I140
aI1
asg1291
Nsg1292
g3257
sg1293
(lp3260
sg1295
g1255
sg1296
Nsg1297
Nsg1298
Nsbag2
(g3
g4
Ntp3261
Rp3262
(dp3263
g8
g11
sg1276
Nsg1277
(dp3264
sg1279
Nsg26
g29
sg1280
(lp3265
I140
aI2
asg1282
Nsg1283
VSifrei Bamidbar 140:2
p3266
sg1285
(lp3267
sg1287
g48
sg1288
Nsg1289
(lp3268
I140
aI2
asg1291
Nsg1292
g3266
sg1293
(lp3269
sg1295
g1255
sg1296
Nsg1297
Nsg1298
Nsbag2
(g3
g4
Ntp3270
Rp3271
(dp3272
g8
g11
sg1276
Nsg1277
(dp3273
sg1279
Nsg26
g29
sg1280
(lp3274
I141
aI1
asg1282
Nsg1283
VSifrei Bamidbar 141:1
p3275
sg1285
(lp3276
sg1287
g48
sg1288
Nsg1289
(lp3277
I141
aI1
asg1291
Nsg1292
g3275
sg1293
(lp3278
sg1295
g1255
sg1296
Nsg1297
Nsg1298
Nsbag2
(g3
g4
Ntp3279
Rp3280
(dp3281
g8
g11
sg1276
Nsg1277
(dp3282
sg1279
Nsg26
g29
sg1280
(lp3283
I141
aI2
asg1282
Nsg1283
VSifrei Bamidbar 141:2
p3284
sg1285
(lp3285
sg1287
g48
sg1288
Nsg1289
(lp3286
I141
aI2
asg1291
Nsg1292
g3284
sg1293
(lp3287
sg1295
g1255
sg1296
Nsg1297
Nsg1298
Nsbag2
(g3
g4
Ntp3288
Rp3289
(dp3290
g8
g11
sg1276
Nsg1277
(dp3291
sg1279
Nsg26
g29
sg1280
(lp3292
I141
aI3
asg1282
Nsg1283
VSifrei Bamidbar 141:3
p3293
sg1285
(lp3294
sg1287
g48
sg1288
Nsg1289
(lp3295
I141
aI3
asg1291
Nsg1292
g3293
sg1293
(lp3296
sg1295
g1255
sg1296
Nsg1297
Nsg1298
Nsbag2
(g3
g4
Ntp3297
Rp3298
(dp3299
g8
g11
sg1276
Nsg1277
(dp3300
sg1279
Nsg26
g29
sg1280
(lp3301
I142
aI1
asg1282
Nsg1283
VSifrei Bamidbar 142:1
p3302
sg1285
(lp3303
sg1287
g48
sg1288
Nsg1289
(lp3304
I142
aI1
asg1291
Nsg1292
g3302
sg1293
(lp3305
sg1295
g1255
sg1296
Nsg1297
Nsg1298
Nsbag2
(g3
g4
Ntp3306
Rp3307
(dp3308
g8
g11
sg1276
Nsg1277
(dp3309
sg1279
Nsg26
g29
sg1280
(lp3310
I142
aI2
asg1282
Nsg1283
VSifrei Bamidbar 142:2
p3311
sg1285
(lp3312
sg1287
g48
sg1288
Nsg1289
(lp3313
I142
aI2
asg1291
Nsg1292
g3311
sg1293
(lp3314
sg1295
g1255
sg1296
Nsg1297
Nsg1298
Nsbag2
(g3
g4
Ntp3315
Rp3316
(dp3317
g8
g11
sg1276
Nsg1277
(dp3318
sg1279
Nsg26
g29
sg1280
(lp3319
I142
aI3
asg1282
Nsg1283
VSifrei Bamidbar 142:3
p3320
sg1285
(lp3321
sg1287
g48
sg1288
Nsg1289
(lp3322
I142
aI3
asg1291
Nsg1292
g3320
sg1293
(lp3323
sg1295
g1255
sg1296
Nsg1297
Nsg1298
Nsbag2
(g3
g4
Ntp3324
Rp3325
(dp3326
g8
g11
sg1276
Nsg1277
(dp3327
sg1279
Nsg26
g29
sg1280
(lp3328
I142
aI4
asg1282
Nsg1283
VSifrei Bamidbar 142:4
p3329
sg1285
(lp3330
sg1287
g48
sg1288
Nsg1289
(lp3331
I142
aI4
asg1291
Nsg1292
g3329
sg1293
(lp3332
sg1295
g1255
sg1296
Nsg1297
Nsg1298
Nsbag2
(g3
g4
Ntp3333
Rp3334
(dp3335
g8
g11
sg1276
Nsg1277
(dp3336
sg1279
Nsg26
g29
sg1280
(lp3337
I142
aI5
asg1282
Nsg1283
VSifrei Bamidbar 142:5
p3338
sg1285
(lp3339
sg1287
g48
sg1288
Nsg1289
(lp3340
I142
aI5
asg1291
Nsg1292
g3338
sg1293
(lp3341
sg1295
g1255
sg1296
Nsg1297
Nsg1298
Nsbag2
(g3
g4
Ntp3342
Rp3343
(dp3344
g8
g11
sg1276
Nsg1277
(dp3345
sg1279
Nsg26
g29
sg1280
(lp3346
I143
aI1
asg1282
Nsg1283
VSifrei Bamidbar 143:1
p3347
sg1285
(lp3348
sg1287
g48
sg1288
Nsg1289
(lp3349
I143
aI1
asg1291
Nsg1292
g3347
sg1293
(lp3350
sg1295
g1255
sg1296
Nsg1297
Nsg1298
Nsbag2
(g3
g4
Ntp3351
Rp3352
(dp3353
g8
g11
sg1276
Nsg1277
(dp3354
sg1279
Nsg26
g29
sg1280
(lp3355
I143
aI2
asg1282
Nsg1283
VSifrei Bamidbar 143:2
p3356
sg1285
(lp3357
sg1287
g48
sg1288
Nsg1289
(lp3358
I143
aI2
asg1291
Nsg1292
g3356
sg1293
(lp3359
sg1295
g1255
sg1296
Nsg1297
Nsg1298
Nsbag2
(g3
g4
Ntp3360
Rp3361
(dp3362
g8
g11
sg1276
Nsg1277
(dp3363
sg1279
Nsg26
g29
sg1280
(lp3364
I143
aI3
asg1282
Nsg1283
VSifrei Bamidbar 143:3
p3365
sg1285
(lp3366
sg1287
g48
sg1288
Nsg1289
(lp3367
I143
aI3
asg1291
Nsg1292
g3365
sg1293
(lp3368
sg1295
g1255
sg1296
Nsg1297
Nsg1298
Nsbag2
(g3
g4
Ntp3369
Rp3370
(dp3371
g8
g11
sg1276
Nsg1277
(dp3372
sg1279
Nsg26
g29
sg1280
(lp3373
I144
aI1
asg1282
Nsg1283
VSifrei Bamidbar 144:1
p3374
sg1285
(lp3375
sg1287
g48
sg1288
Nsg1289
(lp3376
I144
aI1
asg1291
Nsg1292
g3374
sg1293
(lp3377
sg1295
g1255
sg1296
Nsg1297
Nsg1298
Nsbag2
(g3
g4
Ntp3378
Rp3379
(dp3380
g8
g11
sg1276
Nsg1277
(dp3381
sg1279
Nsg26
g29
sg1280
(lp3382
I144
aI2
asg1282
Nsg1283
VSifrei Bamidbar 144:2
p3383
sg1285
(lp3384
sg1287
g48
sg1288
Nsg1289
(lp3385
I144
aI2
asg1291
Nsg1292
g3383
sg1293
(lp3386
sg1295
g1255
sg1296
Nsg1297
Nsg1298
Nsbag2
(g3
g4
Ntp3387
Rp3388
(dp3389
g8
g11
sg1276
Nsg1277
(dp3390
sg1279
Nsg26
g29
sg1280
(lp3391
I145
aI1
asg1282
Nsg1283
VSifrei Bamidbar 145:1
p3392
sg1285
(lp3393
sg1287
g48
sg1288
Nsg1289
(lp3394
I145
aI1
asg1291
Nsg1292
g3392
sg1293
(lp3395
sg1295
g1255
sg1296
Nsg1297
Nsg1298
Nsbag2
(g3
g4
Ntp3396
Rp3397
(dp3398
g8
g11
sg1276
Nsg1277
(dp3399
sg1279
Nsg26
g29
sg1280
(lp3400
I145
aI2
asg1282
Nsg1283
VSifrei Bamidbar 145:2
p3401
sg1285
(lp3402
sg1287
g48
sg1288
Nsg1289
(lp3403
I145
aI2
asg1291
Nsg1292
g3401
sg1293
(lp3404
sg1295
g1255
sg1296
Nsg1297
Nsg1298
Nsbag2
(g3
g4
Ntp3405
Rp3406
(dp3407
g8
g11
sg1276
Nsg1277
(dp3408
sg1279
Nsg26
g29
sg1280
(lp3409
I145
aI3
asg1282
Nsg1283
VSifrei Bamidbar 145:3
p3410
sg1285
(lp3411
sg1287
g48
sg1288
Nsg1289
(lp3412
I145
aI3
asg1291
Nsg1292
g3410
sg1293
(lp3413
sg1295
g1255
sg1296
Nsg1297
Nsg1298
Nsbag2
(g3
g4
Ntp3414
Rp3415
(dp3416
g8
g11
sg1276
Nsg1277
(dp3417
sg1279
Nsg26
g29
sg1280
(lp3418
I146
aI1
asg1282
Nsg1283
VSifrei Bamidbar 146:1
p3419
sg1285
(lp3420
sg1287
g48
sg1288
Nsg1289
(lp3421
I146
aI1
asg1291
Nsg1292
g3419
sg1293
(lp3422
sg1295
g1255
sg1296
Nsg1297
Nsg1298
Nsbag2
(g3
g4
Ntp3423
Rp3424
(dp3425
g8
g11
sg1276
Nsg1277
(dp3426
sg1279
Nsg26
g29
sg1280
(lp3427
I147
aI1
asg1282
Nsg1283
VSifrei Bamidbar 147:1
p3428
sg1285
(lp3429
sg1287
g48
sg1288
Nsg1289
(lp3430
I147
aI1
asg1291
Nsg1292
g3428
sg1293
(lp3431
sg1295
g1255
sg1296
Nsg1297
Nsg1298
Nsbag2
(g3
g4
Ntp3432
Rp3433
(dp3434
g8
g11
sg1276
Nsg1277
(dp3435
sg1279
Nsg26
g29
sg1280
(lp3436
I147
aI2
asg1282
Nsg1283
VSifrei Bamidbar 147:2
p3437
sg1285
(lp3438
sg1287
g48
sg1288
Nsg1289
(lp3439
I147
aI2
asg1291
Nsg1292
g3437
sg1293
(lp3440
sg1295
g1255
sg1296
Nsg1297
Nsg1298
Nsbag2
(g3
g4
Ntp3441
Rp3442
(dp3443
g8
g11
sg1276
Nsg1277
(dp3444
sg1279
Nsg26
g29
sg1280
(lp3445
I148
aI1
asg1282
Nsg1283
VSifrei Bamidbar 148:1
p3446
sg1285
(lp3447
sg1287
g48
sg1288
Nsg1289
(lp3448
I148
aI1
asg1291
Nsg1292
g3446
sg1293
(lp3449
sg1295
g1255
sg1296
Nsg1297
Nsg1298
Nsbag2
(g3
g4
Ntp3450
Rp3451
(dp3452
g8
g11
sg1276
Nsg1277
(dp3453
sg1279
Nsg26
g29
sg1280
(lp3454
I149
aI1
asg1282
Nsg1283
VSifrei Bamidbar 149:1
p3455
sg1285
(lp3456
sg1287
g48
sg1288
Nsg1289
(lp3457
I149
aI1
asg1291
Nsg1292
g3455
sg1293
(lp3458
sg1295
g1255
sg1296
Nsg1297
Nsg1298
Nsbag2
(g3
g4
Ntp3459
Rp3460
(dp3461
g8
g11
sg1276
Nsg1277
(dp3462
sg1279
Nsg26
g29
sg1280
(lp3463
I149
aI2
asg1282
Nsg1283
VSifrei Bamidbar 149:2
p3464
sg1285
(lp3465
sg1287
g48
sg1288
Nsg1289
(lp3466
I149
aI2
asg1291
Nsg1292
g3464
sg1293
(lp3467
sg1295
g1255
sg1296
Nsg1297
Nsg1298
Nsbag2
(g3
g4
Ntp3468
Rp3469
(dp3470
g8
g11
sg1276
Nsg1277
(dp3471
sg1279
Nsg26
g29
sg1280
(lp3472
I150
aI1
asg1282
Nsg1283
VSifrei Bamidbar 150:1
p3473
sg1285
(lp3474
sg1287
g48
sg1288
Nsg1289
(lp3475
I150
aI1
asg1291
Nsg1292
g3473
sg1293
(lp3476
sg1295
g1255
sg1296
Nsg1297
Nsg1298
Nsbag2
(g3
g4
Ntp3477
Rp3478
(dp3479
g8
g11
sg1276
Nsg1277
(dp3480
sg1279
Nsg26
g29
sg1280
(lp3481
I151
aI1
asg1282
Nsg1283
VSifrei Bamidbar 151:1
p3482
sg1285
(lp3483
sg1287
g48
sg1288
Nsg1289
(lp3484
I151
aI1
asg1291
Nsg1292
g3482
sg1293
(lp3485
sg1295
g1255
sg1296
Nsg1297
Nsg1298
Nsbag2
(g3
g4
Ntp3486
Rp3487
(dp3488
g8
g11
sg1276
Nsg1277
(dp3489
sg1279
Nsg26
g29
sg1280
(lp3490
I151
aI2
asg1282
Nsg1283
VSifrei Bamidbar 151:2
p3491
sg1285
(lp3492
sg1287
g48
sg1288
Nsg1289
(lp3493
I151
aI2
asg1291
Nsg1292
g3491
sg1293
(lp3494
sg1295
g1255
sg1296
Nsg1297
Nsg1298
Nsbag2
(g3
g4
Ntp3495
Rp3496
(dp3497
g8
g11
sg1276
Nsg1277
(dp3498
sg1279
Nsg26
g29
sg1280
(lp3499
I152
aI1
asg1282
Nsg1283
VSifrei Bamidbar 152:1
p3500
sg1285
(lp3501
sg1287
g48
sg1288
Nsg1289
(lp3502
I152
aI1
asg1291
Nsg1292
g3500
sg1293
(lp3503
sg1295
g1255
sg1296
Nsg1297
Nsg1298
Nsbag2
(g3
g4
Ntp3504
Rp3505
(dp3506
g8
g11
sg1276
Nsg1277
(dp3507
sg1279
Nsg26
g29
sg1280
(lp3508
I153
aI1
asg1282
Nsg1283
VSifrei Bamidbar 153:1
p3509
sg1285
(lp3510
sg1287
g48
sg1288
Nsg1289
(lp3511
I153
aI1
asg1291
Nsg1292
g3509
sg1293
(lp3512
sg1295
g1255
sg1296
Nsg1297
Nsg1298
Nsbag2
(g3
g4
Ntp3513
Rp3514
(dp3515
g8
g11
sg1276
Nsg1277
(dp3516
sg1279
Nsg26
g29
sg1280
(lp3517
I153
aI2
asg1282
Nsg1283
VSifrei Bamidbar 153:2
p3518
sg1285
(lp3519
sg1287
g48
sg1288
Nsg1289
(lp3520
I153
aI2
asg1291
Nsg1292
g3518
sg1293
(lp3521
sg1295
g1255
sg1296
Nsg1297
Nsg1298
Nsbag2
(g3
g4
Ntp3522
Rp3523
(dp3524
g8
g11
sg1276
Nsg1277
(dp3525
sg1279
Nsg26
g29
sg1280
(lp3526
I153
aI3
asg1282
Nsg1283
VSifrei Bamidbar 153:3
p3527
sg1285
(lp3528
sg1287
g48
sg1288
Nsg1289
(lp3529
I153
aI3
asg1291
Nsg1292
g3527
sg1293
(lp3530
sg1295
g1255
sg1296
Nsg1297
Nsg1298
Nsbag2
(g3
g4
Ntp3531
Rp3532
(dp3533
g8
g11
sg1276
Nsg1277
(dp3534
sg1279
Nsg26
g29
sg1280
(lp3535
I153
aI4
asg1282
Nsg1283
VSifrei Bamidbar 153:4
p3536
sg1285
(lp3537
sg1287
g48
sg1288
Nsg1289
(lp3538
I153
aI4
asg1291
Nsg1292
g3536
sg1293
(lp3539
sg1295
g1255
sg1296
Nsg1297
Nsg1298
Nsbag2
(g3
g4
Ntp3540
Rp3541
(dp3542
g8
g11
sg1276
Nsg1277
(dp3543
sg1279
Nsg26
g29
sg1280
(lp3544
I153
aI5
asg1282
Nsg1283
VSifrei Bamidbar 153:5
p3545
sg1285
(lp3546
sg1287
g48
sg1288
Nsg1289
(lp3547
I153
aI5
asg1291
Nsg1292
g3545
sg1293
(lp3548
sg1295
g1255
sg1296
Nsg1297
Nsg1298
Nsbag2
(g3
g4
Ntp3549
Rp3550
(dp3551
g8
g11
sg1276
Nsg1277
(dp3552
sg1279
Nsg26
g29
sg1280
(lp3553
I153
aI6
asg1282
Nsg1283
VSifrei Bamidbar 153:6
p3554
sg1285
(lp3555
sg1287
g48
sg1288
Nsg1289
(lp3556
I153
aI6
asg1291
Nsg1292
g3554
sg1293
(lp3557
sg1295
g1255
sg1296
Nsg1297
Nsg1298
Nsbag2
(g3
g4
Ntp3558
Rp3559
(dp3560
g8
g11
sg1276
Nsg1277
(dp3561
sg1279
Nsg26
g29
sg1280
(lp3562
I153
aI7
asg1282
Nsg1283
VSifrei Bamidbar 153:7
p3563
sg1285
(lp3564
sg1287
g48
sg1288
Nsg1289
(lp3565
I153
aI7
asg1291
Nsg1292
g3563
sg1293
(lp3566
sg1295
g1255
sg1296
Nsg1297
Nsg1298
Nsbag2
(g3
g4
Ntp3567
Rp3568
(dp3569
g8
g11
sg1276
Nsg1277
(dp3570
sg1279
Nsg26
g29
sg1280
(lp3571
I153
aI8
asg1282
Nsg1283
VSifrei Bamidbar 153:8
p3572
sg1285
(lp3573
sg1287
g48
sg1288
Nsg1289
(lp3574
I153
aI8
asg1291
Nsg1292
g3572
sg1293
(lp3575
sg1295
g1255
sg1296
Nsg1297
Nsg1298
Nsbag2
(g3
g4
Ntp3576
Rp3577
(dp3578
g8
g11
sg1276
Nsg1277
(dp3579
sg1279
Nsg26
g29
sg1280
(lp3580
I153
aI9
asg1282
Nsg1283
VSifrei Bamidbar 153:9
p3581
sg1285
(lp3582
sg1287
g48
sg1288
Nsg1289
(lp3583
I153
aI9
asg1291
Nsg1292
g3581
sg1293
(lp3584
sg1295
g1255
sg1296
Nsg1297
Nsg1298
Nsbag2
(g3
g4
Ntp3585
Rp3586
(dp3587
g8
g11
sg1276
Nsg1277
(dp3588
sg1279
Nsg26
g29
sg1280
(lp3589
I153
aI10
asg1282
Nsg1283
VSifrei Bamidbar 153:10
p3590
sg1285
(lp3591
sg1287
g48
sg1288
Nsg1289
(lp3592
I153
aI10
asg1291
Nsg1292
g3590
sg1293
(lp3593
sg1295
g1255
sg1296
Nsg1297
Nsg1298
Nsbag2
(g3
g4
Ntp3594
Rp3595
(dp3596
g8
g11
sg1276
Nsg1277
(dp3597
sg1279
Nsg26
g29
sg1280
(lp3598
I154
aI1
asg1282
Nsg1283
VSifrei Bamidbar 154:1
p3599
sg1285
(lp3600
sg1287
g48
sg1288
Nsg1289
(lp3601
I154
aI1
asg1291
Nsg1292
g3599
sg1293
(lp3602
sg1295
g1255
sg1296
Nsg1297
Nsg1298
Nsbag2
(g3
g4
Ntp3603
Rp3604
(dp3605
g8
g11
sg1276
Nsg1277
(dp3606
sg1279
Nsg26
g29
sg1280
(lp3607
I154
aI2
asg1282
Nsg1283
VSifrei Bamidbar 154:2
p3608
sg1285
(lp3609
sg1287
g48
sg1288
Nsg1289
(lp3610
I154
aI2
asg1291
Nsg1292
g3608
sg1293
(lp3611
sg1295
g1255
sg1296
Nsg1297
Nsg1298
Nsbag2
(g3
g4
Ntp3612
Rp3613
(dp3614
g8
g11
sg1276
Nsg1277
(dp3615
sg1279
Nsg26
g29
sg1280
(lp3616
I154
aI3
asg1282
Nsg1283
VSifrei Bamidbar 154:3
p3617
sg1285
(lp3618
sg1287
g48
sg1288
Nsg1289
(lp3619
I154
aI3
asg1291
Nsg1292
g3617
sg1293
(lp3620
sg1295
g1255
sg1296
Nsg1297
Nsg1298
Nsbag2
(g3
g4
Ntp3621
Rp3622
(dp3623
g8
g11
sg1276
Nsg1277
(dp3624
sg1279
Nsg26
g29
sg1280
(lp3625
I155
aI1
asg1282
Nsg1283
VSifrei Bamidbar 155:1
p3626
sg1285
(lp3627
sg1287
g48
sg1288
Nsg1289
(lp3628
I155
aI1
asg1291
Nsg1292
g3626
sg1293
(lp3629
sg1295
g1255
sg1296
Nsg1297
Nsg1298
Nsbag2
(g3
g4
Ntp3630
Rp3631
(dp3632
g8
g11
sg1276
Nsg1277
(dp3633
sg1279
Nsg26
g29
sg1280
(lp3634
I156
aI1
asg1282
Nsg1283
VSifrei Bamidbar 156:1
p3635
sg1285
(lp3636
sg1287
g48
sg1288
Nsg1289
(lp3637
I156
aI1
asg1291
Nsg1292
g3635
sg1293
(lp3638
sg1295
g1255
sg1296
Nsg1297
Nsg1298
Nsbag2
(g3
g4
Ntp3639
Rp3640
(dp3641
g8
g11
sg1276
Nsg1277
(dp3642
sg1279
Nsg26
g29
sg1280
(lp3643
I156
aI2
asg1282
Nsg1283
VSifrei Bamidbar 156:2
p3644
sg1285
(lp3645
sg1287
g48
sg1288
Nsg1289
(lp3646
I156
aI2
asg1291
Nsg1292
g3644
sg1293
(lp3647
sg1295
g1255
sg1296
Nsg1297
Nsg1298
Nsbag2
(g3
g4
Ntp3648
Rp3649
(dp3650
g8
g11
sg1276
Nsg1277
(dp3651
sg1279
Nsg26
g29
sg1280
(lp3652
I156
aI3
asg1282
Nsg1283
VSifrei Bamidbar 156:3
p3653
sg1285
(lp3654
sg1287
g48
sg1288
Nsg1289
(lp3655
I156
aI3
asg1291
Nsg1292
g3653
sg1293
(lp3656
sg1295
g1255
sg1296
Nsg1297
Nsg1298
Nsbag2
(g3
g4
Ntp3657
Rp3658
(dp3659
g8
g11
sg1276
Nsg1277
(dp3660
sg1279
Nsg26
g29
sg1280
(lp3661
I157
aI1
asg1282
Nsg1283
VSifrei Bamidbar 157:1
p3662
sg1285
(lp3663
sg1287
g48
sg1288
Nsg1289
(lp3664
I157
aI1
asg1291
Nsg1292
g3662
sg1293
(lp3665
sg1295
g1255
sg1296
Nsg1297
Nsg1298
Nsbag2
(g3
g4
Ntp3666
Rp3667
(dp3668
g8
g11
sg1276
Nsg1277
(dp3669
sg1279
Nsg26
g29
sg1280
(lp3670
I157
aI2
asg1282
Nsg1283
VSifrei Bamidbar 157:2
p3671
sg1285
(lp3672
sg1287
g48
sg1288
Nsg1289
(lp3673
I157
aI2
asg1291
Nsg1292
g3671
sg1293
(lp3674
sg1295
g1255
sg1296
Nsg1297
Nsg1298
Nsbag2
(g3
g4
Ntp3675
Rp3676
(dp3677
g8
g11
sg1276
Nsg1277
(dp3678
sg1279
Nsg26
g29
sg1280
(lp3679
I157
aI3
asg1282
Nsg1283
VSifrei Bamidbar 157:3
p3680
sg1285
(lp3681
sg1287
g48
sg1288
Nsg1289
(lp3682
I157
aI3
asg1291
Nsg1292
g3680
sg1293
(lp3683
sg1295
g1255
sg1296
Nsg1297
Nsg1298
Nsbag2
(g3
g4
Ntp3684
Rp3685
(dp3686
g8
g11
sg1276
Nsg1277
(dp3687
sg1279
Nsg26
g29
sg1280
(lp3688
I157
aI4
asg1282
Nsg1283
VSifrei Bamidbar 157:4
p3689
sg1285
(lp3690
sg1287
g48
sg1288
Nsg1289
(lp3691
I157
aI4
asg1291
Nsg1292
g3689
sg1293
(lp3692
sg1295
g1255
sg1296
Nsg1297
Nsg1298
Nsbag2
(g3
g4
Ntp3693
Rp3694
(dp3695
g8
g11
sg1276
Nsg1277
(dp3696
sg1279
Nsg26
g29
sg1280
(lp3697
I157
aI5
asg1282
Nsg1283
VSifrei Bamidbar 157:5
p3698
sg1285
(lp3699
sg1287
g48
sg1288
Nsg1289
(lp3700
I157
aI5
asg1291
Nsg1292
g3698
sg1293
(lp3701
sg1295
g1255
sg1296
Nsg1297
Nsg1298
Nsbag2
(g3
g4
Ntp3702
Rp3703
(dp3704
g8
g11
sg1276
Nsg1277
(dp3705
sg1279
Nsg26
g29
sg1280
(lp3706
I157
aI6
asg1282
Nsg1283
VSifrei Bamidbar 157:6
p3707
sg1285
(lp3708
sg1287
g48
sg1288
Nsg1289
(lp3709
I157
aI6
asg1291
Nsg1292
g3707
sg1293
(lp3710
sg1295
g1255
sg1296
Nsg1297
Nsg1298
Nsbag2
(g3
g4
Ntp3711
Rp3712
(dp3713
g8
g11
sg1276
Nsg1277
(dp3714
sg1279
Nsg26
g29
sg1280
(lp3715
I157
aI7
asg1282
Nsg1283
VSifrei Bamidbar 157:7
p3716
sg1285
(lp3717
sg1287
g48
sg1288
Nsg1289
(lp3718
I157
aI7
asg1291
Nsg1292
g3716
sg1293
(lp3719
sg1295
g1255
sg1296
Nsg1297
Nsg1298
Nsbag2
(g3
g4
Ntp3720
Rp3721
(dp3722
g8
g11
sg1276
Nsg1277
(dp3723
sg1279
Nsg26
g29
sg1280
(lp3724
I157
aI8
asg1282
Nsg1283
VSifrei Bamidbar 157:8
p3725
sg1285
(lp3726
sg1287
g48
sg1288
Nsg1289
(lp3727
I157
aI8
asg1291
Nsg1292
g3725
sg1293
(lp3728
sg1295
g1255
sg1296
Nsg1297
Nsg1298
Nsbag2
(g3
g4
Ntp3729
Rp3730
(dp3731
g8
g11
sg1276
Nsg1277
(dp3732
sg1279
Nsg26
g29
sg1280
(lp3733
I157
aI9
asg1282
Nsg1283
VSifrei Bamidbar 157:9
p3734
sg1285
(lp3735
sg1287
g48
sg1288
Nsg1289
(lp3736
I157
aI9
asg1291
Nsg1292
g3734
sg1293
(lp3737
sg1295
g1255
sg1296
Nsg1297
Nsg1298
Nsbag2
(g3
g4
Ntp3738
Rp3739
(dp3740
g8
g11
sg1276
Nsg1277
(dp3741
sg1279
Nsg26
g29
sg1280
(lp3742
I158
aI1
asg1282
Nsg1283
VSifrei Bamidbar 158:1
p3743
sg1285
(lp3744
sg1287
g48
sg1288
Nsg1289
(lp3745
I158
aI1
asg1291
Nsg1292
g3743
sg1293
(lp3746
sg1295
g1255
sg1296
Nsg1297
Nsg1298
Nsbag2
(g3
g4
Ntp3747
Rp3748
(dp3749
g8
g11
sg1276
Nsg1277
(dp3750
sg1279
Nsg26
g29
sg1280
(lp3751
I158
aI2
asg1282
Nsg1283
VSifrei Bamidbar 158:2
p3752
sg1285
(lp3753
sg1287
g48
sg1288
Nsg1289
(lp3754
I158
aI2
asg1291
Nsg1292
g3752
sg1293
(lp3755
sg1295
g1255
sg1296
Nsg1297
Nsg1298
Nsbag2
(g3
g4
Ntp3756
Rp3757
(dp3758
g8
g11
sg1276
Nsg1277
(dp3759
sg1279
Nsg26
g29
sg1280
(lp3760
I158
aI3
asg1282
Nsg1283
VSifrei Bamidbar 158:3
p3761
sg1285
(lp3762
sg1287
g48
sg1288
Nsg1289
(lp3763
I158
aI3
asg1291
Nsg1292
g3761
sg1293
(lp3764
sg1295
g1255
sg1296
Nsg1297
Nsg1298
Nsbag2
(g3
g4
Ntp3765
Rp3766
(dp3767
g8
g11
sg1276
Nsg1277
(dp3768
sg1279
Nsg26
g29
sg1280
(lp3769
I158
aI4
asg1282
Nsg1283
VSifrei Bamidbar 158:4
p3770
sg1285
(lp3771
sg1287
g48
sg1288
Nsg1289
(lp3772
I158
aI4
asg1291
Nsg1292
g3770
sg1293
(lp3773
sg1295
g1255
sg1296
Nsg1297
Nsg1298
Nsbag2
(g3
g4
Ntp3774
Rp3775
(dp3776
g8
g11
sg1276
Nsg1277
(dp3777
sg1279
Nsg26
g29
sg1280
(lp3778
I160
aI1
asg1282
Nsg1283
VSifrei Bamidbar 160:1
p3779
sg1285
(lp3780
sg1287
g48
sg1288
Nsg1289
(lp3781
I160
aI1
asg1291
Nsg1292
g3779
sg1293
(lp3782
sg1295
g1255
sg1296
Nsg1297
Nsg1298
Nsbag2
(g3
g4
Ntp3783
Rp3784
(dp3785
g8
g11
sg1276
Nsg1277
(dp3786
sg1279
Nsg26
g29
sg1280
(lp3787
I160
aI2
asg1282
Nsg1283
VSifrei Bamidbar 160:2
p3788
sg1285
(lp3789
sg1287
g48
sg1288
Nsg1289
(lp3790
I160
aI2
asg1291
Nsg1292
g3788
sg1293
(lp3791
sg1295
g1255
sg1296
Nsg1297
Nsg1298
Nsbag2
(g3
g4
Ntp3792
Rp3793
(dp3794
g8
g11
sg1276
Nsg1277
(dp3795
sg1279
Nsg26
g29
sg1280
(lp3796
I160
aI3
asg1282
Nsg1283
VSifrei Bamidbar 160:3
p3797
sg1285
(lp3798
sg1287
g48
sg1288
Nsg1289
(lp3799
I160
aI3
asg1291
Nsg1292
g3797
sg1293
(lp3800
sg1295
g1255
sg1296
Nsg1297
Nsg1298
Nsbag2
(g3
g4
Ntp3801
Rp3802
(dp3803
g8
g11
sg1276
Nsg1277
(dp3804
sg1279
Nsg26
g29
sg1280
(lp3805
I160
aI4
asg1282
Nsg1283
VSifrei Bamidbar 160:4
p3806
sg1285
(lp3807
sg1287
g48
sg1288
Nsg1289
(lp3808
I160
aI4
asg1291
Nsg1292
g3806
sg1293
(lp3809
sg1295
g1255
sg1296
Nsg1297
Nsg1298
Nsbag2
(g3
g4
Ntp3810
Rp3811
(dp3812
g8
g11
sg1276
Nsg1277
(dp3813
sg1279
Nsg26
g29
sg1280
(lp3814
I160
aI5
asg1282
Nsg1283
VSifrei Bamidbar 160:5
p3815
sg1285
(lp3816
sg1287
g48
sg1288
Nsg1289
(lp3817
I160
aI5
asg1291
Nsg1292
g3815
sg1293
(lp3818
sg1295
g1255
sg1296
Nsg1297
Nsg1298
Nsbag2
(g3
g4
Ntp3819
Rp3820
(dp3821
g8
g11
sg1276
Nsg1277
(dp3822
sg1279
Nsg26
g29
sg1280
(lp3823
I160
aI6
asg1282
Nsg1283
VSifrei Bamidbar 160:6
p3824
sg1285
(lp3825
sg1287
g48
sg1288
Nsg1289
(lp3826
I160
aI6
asg1291
Nsg1292
g3824
sg1293
(lp3827
sg1295
g1255
sg1296
Nsg1297
Nsg1298
Nsbag2
(g3
g4
Ntp3828
Rp3829
(dp3830
g8
g11
sg1276
Nsg1277
(dp3831
sg1279
Nsg26
g29
sg1280
(lp3832
I160
aI7
asg1282
Nsg1283
VSifrei Bamidbar 160:7
p3833
sg1285
(lp3834
sg1287
g48
sg1288
Nsg1289
(lp3835
I160
aI7
asg1291
Nsg1292
g3833
sg1293
(lp3836
sg1295
g1255
sg1296
Nsg1297
Nsg1298
Nsbag2
(g3
g4
Ntp3837
Rp3838
(dp3839
g8
g11
sg1276
Nsg1277
(dp3840
sg1279
Nsg26
g29
sg1280
(lp3841
I160
aI8
asg1282
Nsg1283
VSifrei Bamidbar 160:8
p3842
sg1285
(lp3843
sg1287
g48
sg1288
Nsg1289
(lp3844
I160
aI8
asg1291
Nsg1292
g3842
sg1293
(lp3845
sg1295
g1255
sg1296
Nsg1297
Nsg1298
Nsbag2
(g3
g4
Ntp3846
Rp3847
(dp3848
g8
g11
sg1276
Nsg1277
(dp3849
sg1279
Nsg26
g29
sg1280
(lp3850
I160
aI9
asg1282
Nsg1283
VSifrei Bamidbar 160:9
p3851
sg1285
(lp3852
sg1287
g48
sg1288
Nsg1289
(lp3853
I160
aI9
asg1291
Nsg1292
g3851
sg1293
(lp3854
sg1295
g1255
sg1296
Nsg1297
Nsg1298
Nsbag2
(g3
g4
Ntp3855
Rp3856
(dp3857
g8
g11
sg1276
Nsg1277
(dp3858
sg1279
Nsg26
g29
sg1280
(lp3859
I160
aI10
asg1282
Nsg1283
VSifrei Bamidbar 160:10
p3860
sg1285
(lp3861
sg1287
g48
sg1288
Nsg1289
(lp3862
I160
aI10
asg1291
Nsg1292
g3860
sg1293
(lp3863
sg1295
g1255
sg1296
Nsg1297
Nsg1298
Nsbag2
(g3
g4
Ntp3864
Rp3865
(dp3866
g8
g11
sg1276
Nsg1277
(dp3867
sg1279
Nsg26
g29
sg1280
(lp3868
I160
aI11
asg1282
Nsg1283
VSifrei Bamidbar 160:11
p3869
sg1285
(lp3870
sg1287
g48
sg1288
Nsg1289
(lp3871
I160
aI11
asg1291
Nsg1292
g3869
sg1293
(lp3872
sg1295
g1255
sg1296
Nsg1297
Nsg1298
Nsbag2
(g3
g4
Ntp3873
Rp3874
(dp3875
g8
g11
sg1276
Nsg1277
(dp3876
sg1279
Nsg26
g29
sg1280
(lp3877
I160
aI12
asg1282
Nsg1283
VSifrei Bamidbar 160:12
p3878
sg1285
(lp3879
sg1287
g48
sg1288
Nsg1289
(lp3880
I160
aI12
asg1291
Nsg1292
g3878
sg1293
(lp3881
sg1295
g1255
sg1296
Nsg1297
Nsg1298
Nsbag2
(g3
g4
Ntp3882
Rp3883
(dp3884
g8
g11
sg1276
Nsg1277
(dp3885
sg1279
Nsg26
g29
sg1280
(lp3886
I160
aI13
asg1282
Nsg1283
VSifrei Bamidbar 160:13
p3887
sg1285
(lp3888
sg1287
g48
sg1288
Nsg1289
(lp3889
I160
aI13
asg1291
Nsg1292
g3887
sg1293
(lp3890
sg1295
g1255
sg1296
Nsg1297
Nsg1298
Nsbag2
(g3
g4
Ntp3891
Rp3892
(dp3893
g8
g11
sg1276
Nsg1277
(dp3894
sg1279
Nsg26
g29
sg1280
(lp3895
I160
aI14
asg1282
Nsg1283
VSifrei Bamidbar 160:14
p3896
sg1285
(lp3897
sg1287
g48
sg1288
Nsg1289
(lp3898
I160
aI14
asg1291
Nsg1292
g3896
sg1293
(lp3899
sg1295
g1255
sg1296
Nsg1297
Nsg1298
Nsbag2
(g3
g4
Ntp3900
Rp3901
(dp3902
g8
g11
sg1276
Nsg1277
(dp3903
sg1279
Nsg26
g29
sg1280
(lp3904
I160
aI15
asg1282
Nsg1283
VSifrei Bamidbar 160:15
p3905
sg1285
(lp3906
sg1287
g48
sg1288
Nsg1289
(lp3907
I160
aI15
asg1291
Nsg1292
g3905
sg1293
(lp3908
sg1295
g1255
sg1296
Nsg1297
Nsg1298
Nsbatp3909
.