((lp0
I0
aI4
aI11
aI21
aI35
aI44
aI62
aI77
aI93
aI98
aI103
aI110
aI116
aI123
aI130
aI137
aI145
aI151
aI156
aI163
aI176
aI183
aI191
aI196
aI212
aI223
aI240
aI249
aI258
aI268
aI282
aI298
aI307
aI313
aI329
aI339
aI352
aI360
aI379
aI395
aI408
aI417
aI428
aI435
aI447
aI462
aI477
aI488
aI498
aI510
aI518
aI531
aI537
aI553
aI563
aI576
aI588
aI596
aI605
aI619
aI627
aI641
aI662
aI681
aI691
aI699
aI712
aI727
aI739
aI753
aI763
aI768
aI775
aI785
aI795
aI805
aI816
aI826
aI836
aI845
aI851
aI859
aI870
aI881
aI886
aI894
aI910
aI921
aI933
aI940
aI952
aI965
aI976
aI982
aI998
aI1007
aI1013
aI1019
aI1032
aI1041
aI1045
aI1051
aI1066
aI1079
aI1093
aI1104
aI1109
aI1121
aI1138
aI1156
aI1177
aI1189
aI1203
aI1212
aI1226
aI1236
aI1242
a(lp1
ccopy_reg
_reconstructor
p2
(csefaria.model.text
Ref
p3
c__builtin__
object
p4
Ntp5
Rp6
(dp7
S'index_node'
p8
g2
(csefaria.model.schema
JaggedArrayNode
p9
g4
Ntp10
Rp11
(dp12
S'_address'
p13
(lp14
VSong of Songs
p15
asS'_full_titles'
p16
(dp17
sVnodeType
p18
VJaggedArrayNode
p19
sS'parent'
p20
NsVaddressTypes
p21
(lp22
VInteger
p23
aVInteger
p24
asS'default'
p25
I00
sS'index'
p26
g2
(csefaria.model.text
Index
p27
g4
Ntp28
Rp29
(dp30
S'_id'
p31
g2
(cbson.objectid
ObjectId
p32
g4
Ntp33
Rp34
S'NJ\xb8l\xed\xba\xb4X3\x00\x00\x1d'
p35
bsS'pkeys_orig_values'
p36
(dp37
S'title'
p38
VSong of Songs
p39
ssS'pubDate'
p40
V1488
p41
sS'compDate'
p42
V-500
p43
sS'pubPlace'
p44
VSoncino
p45
sS'compPlace'
p46
VJudea/Israel
p47
sS'enDesc'
p48
VShir Hashirim (The Song of Songs), also known as the Song of Solomon is the first of the five Megillot (scrolls) of Ketuvim (Writings) the last section of the Tanakh (Bible). Scripturally, it is unique in its celebration of sexual love. It gives "the voices of two lovers, praising each other, yearning for each other, proffering invitations to enjoy". The two are in harmony, each desiring the other and rejoicing in sexual intimacy; the women (or "daughters") of Jerusalem form a chorus to the lovers, functioning as an audience whose participation in the lovers' erotic encounters facilitates the participation of the reader. Jewish tradition reads it as an allegory of the relationship between God and Israel. The story is read on the prior to Sabbath each week by Sephardim and on Shabbat during Pesah by Ashkenazim.
p49
sS'order'
p50
(lp51
I30
aI4
asS'struct_objs'
p52
(dp53
sS'nodes'
p54
g11
sS'errorMargin'
p55
V400
p56
sS'_title'
p57
g39
sS'categories'
p58
(lp59
VTanakh
p60
aVWritings
p61
asS'schema'
p62
(dp63
g18
g19
sg21
g22
sVlengths
p64
(lp65
I8
aI117
asVdepth
p66
I2
sVtitles
p67
(lp68
(dp69
Vlang
p70
Ven
p71
sVtext
p72
VShir HaShirim
p73
sa(dp74
Vlang
p75
Ven
p76
sVtext
p77
VCanticles
p78
sa(dp79
Vlang
p80
Ven
p81
sVtext
p82
VSong.
p83
sa(dp84
Vlang
p85
Ven
p86
sVtext
p87
VSong
p88
sa(dp89
Vlang
p90
Vhe
p91
sVtext
p92
V\u05e9\u05d9\u05e8 \u05d4\u05e9\u05d9\u05e8\u05d9\u05dd
p93
sVprimary
p94
I01
sa(dp95
Vlang
p96
Vhe
p97
sVtext
p98
V\u05e9\u05d4"\u05e9
p99
sa(dp100
Vlang
p101
Vhe
p102
sVtext
p103
V\u05e9\u05d9\u05e8
p104
sa(dp105
Vlang
p106
Vhe
p107
sVtext
p108
V\u05e9\u05d4\u05f4\u05e9
p109
sa(dp110
Vlang
p111
Ven
p112
sVtext
p113
VSong of Songs
p114
sVprimary
p115
I01
sasVkey
p116
g15
sVsectionNames
p117
(lp118
VChapter
p119
aVVerse
p120
assbsS'_primary_title'
p121
(dp122
sS'title_group'
p123
g2
(csefaria.model.schema
TitleGroup
p124
g4
Ntp125
Rp126
(dp127
g121
(dp128
S'en'
p129
g114
ssS'titles'
p130
g68
sbsS'_addressTypes'
p131
(lp132
g2
(csefaria.model.schema
AddressInteger
p133
g4
Ntp134
Rp135
(dp136
S'length'
p137
I8
sg50
I0
sbag2
(g133
g4
Ntp138
Rp139
(dp140
g137
Nsg50
I1
sbasS'sharedTitle'
p141
Nsg64
g65
sg66
I2
sS'_full_title'
p142
(dp143
g129
g114
ssS'key'
p144
g15
sS'checkFirst'
p145
NsS'_regexes'
p146
(dp147
sS'_leaf_nodes'
p148
(lp149
sg117
g118
sS'children'
p150
(lp151
sbsS'_range_index'
p152
NsS'_context'
p153
(dp154
sS'_padded'
p155
Nsg26
g29
sS'sections'
p156
(lp157
I1
aI1
asS'_first_spanned_ref'
p158
NsS'tref'
p159
VSong of Songs 1:1
p160
sS'_spanned_refs'
p161
(lp162
sS'book'
p163
g114
sS'_range_depth'
p164
NsS'toSections'
p165
(lp166
I1
aI1
asS'_url'
p167
NsS'_normal'
p168
g160
sS'_ranged_refs'
p169
(lp170
sS'type'
p171
g60
sS'_prev'
p172
NsS'_he_normal'
p173
NsS'_next'
p174
Nsbag2
(g3
g4
Ntp175
Rp176
(dp177
g8
g11
sg152
Nsg153
(dp178
sg155
Nsg26
g29
sg156
(lp179
I1
aI2
asg158
Nsg159
VSong of Songs 1:2
p180
sg161
(lp181
sg163
g114
sg164
Nsg165
(lp182
I1
aI2
asg167
Nsg168
g180
sg169
(lp183
sg171
g60
sg172
Nsg173
Nsg174
Nsbag2
(g3
g4
Ntp184
Rp185
(dp186
g8
g11
sg152
Nsg153
(dp187
sg155
Nsg26
g29
sg156
(lp188
I1
aI3
asg158
Nsg159
VSong of Songs 1:3
p189
sg161
(lp190
sg163
g114
sg164
Nsg165
(lp191
I1
aI3
asg167
Nsg168
g189
sg169
(lp192
sg171
g60
sg172
Nsg173
Nsg174
Nsbag2
(g3
g4
Ntp193
Rp194
(dp195
g8
g11
sg152
Nsg153
(dp196
sg155
Nsg26
g29
sg156
(lp197
I1
aI4
asg158
Nsg159
VSong of Songs 1:4
p198
sg161
(lp199
sg163
g114
sg164
Nsg165
(lp200
I1
aI4
asg167
Nsg168
g198
sg169
(lp201
sg171
g60
sg172
Nsg173
Nsg174
Nsbag2
(g3
g4
Ntp202
Rp203
(dp204
g8
g11
sg152
Nsg153
(dp205
sg155
Nsg26
g29
sg156
(lp206
I1
aI5
asg158
Nsg159
VSong of Songs 1:5
p207
sg161
(lp208
sg163
g114
sg164
Nsg165
(lp209
I1
aI5
asg167
Nsg168
g207
sg169
(lp210
sg171
g60
sg172
Nsg173
Nsg174
Nsbag2
(g3
g4
Ntp211
Rp212
(dp213
g8
g11
sg152
Nsg153
(dp214
sg155
Nsg26
g29
sg156
(lp215
I1
aI6
asg158
Nsg159
VSong of Songs 1:6
p216
sg161
(lp217
sg163
g114
sg164
Nsg165
(lp218
I1
aI6
asg167
Nsg168
g216
sg169
(lp219
sg171
g60
sg172
Nsg173
Nsg174
Nsbag2
(g3
g4
Ntp220
Rp221
(dp222
g8
g11
sg152
Nsg153
(dp223
sg155
Nsg26
g29
sg156
(lp224
I1
aI7
asg158
Nsg159
VSong of Songs 1:7
p225
sg161
(lp226
sg163
g114
sg164
Nsg165
(lp227
I1
aI7
asg167
Nsg168
g225
sg169
(lp228
sg171
g60
sg172
Nsg173
Nsg174
Nsbag2
(g3
g4
Ntp229
Rp230
(dp231
g8
g11
sg152
Nsg153
(dp232
sg155
Nsg26
g29
sg156
(lp233
I1
aI8
asg158
Nsg159
VSong of Songs 1:8
p234
sg161
(lp235
sg163
g114
sg164
Nsg165
(lp236
I1
aI8
asg167
Nsg168
g234
sg169
(lp237
sg171
g60
sg172
Nsg173
Nsg174
Nsbag2
(g3
g4
Ntp238
Rp239
(dp240
g8
g11
sg152
Nsg153
(dp241
sg155
Nsg26
g29
sg156
(lp242
I1
aI9
asg158
Nsg159
VSong of Songs 1:9
p243
sg161
(lp244
sg163
g114
sg164
Nsg165
(lp245
I1
aI9
asg167
Nsg168
g243
sg169
(lp246
sg171
g60
sg172
Nsg173
Nsg174
Nsbag2
(g3
g4
Ntp247
Rp248
(dp249
g8
g11
sg152
Nsg153
(dp250
sg155
Nsg26
g29
sg156
(lp251
I1
aI10
asg158
Nsg159
VSong of Songs 1:10
p252
sg161
(lp253
sg163
g114
sg164
Nsg165
(lp254
I1
aI10
asg167
Nsg168
g252
sg169
(lp255
sg171
g60
sg172
Nsg173
Nsg174
Nsbag2
(g3
g4
Ntp256
Rp257
(dp258
g8
g11
sg152
Nsg153
(dp259
sg155
Nsg26
g29
sg156
(lp260
I1
aI11
asg158
Nsg159
VSong of Songs 1:11
p261
sg161
(lp262
sg163
g114
sg164
Nsg165
(lp263
I1
aI11
asg167
Nsg168
g261
sg169
(lp264
sg171
g60
sg172
Nsg173
Nsg174
Nsbag2
(g3
g4
Ntp265
Rp266
(dp267
g8
g11
sg152
Nsg153
(dp268
sg155
Nsg26
g29
sg156
(lp269
I1
aI12
asg158
Nsg159
VSong of Songs 1:12
p270
sg161
(lp271
sg163
g114
sg164
Nsg165
(lp272
I1
aI12
asg167
Nsg168
g270
sg169
(lp273
sg171
g60
sg172
Nsg173
Nsg174
Nsbag2
(g3
g4
Ntp274
Rp275
(dp276
g8
g11
sg152
Nsg153
(dp277
sg155
Nsg26
g29
sg156
(lp278
I1
aI13
asg158
Nsg159
VSong of Songs 1:13
p279
sg161
(lp280
sg163
g114
sg164
Nsg165
(lp281
I1
aI13
asg167
Nsg168
g279
sg169
(lp282
sg171
g60
sg172
Nsg173
Nsg174
Nsbag2
(g3
g4
Ntp283
Rp284
(dp285
g8
g11
sg152
Nsg153
(dp286
sg155
Nsg26
g29
sg156
(lp287
I1
aI14
asg158
Nsg159
VSong of Songs 1:14
p288
sg161
(lp289
sg163
g114
sg164
Nsg165
(lp290
I1
aI14
asg167
Nsg168
g288
sg169
(lp291
sg171
g60
sg172
Nsg173
Nsg174
Nsbag2
(g3
g4
Ntp292
Rp293
(dp294
g8
g11
sg152
Nsg153
(dp295
sg155
Nsg26
g29
sg156
(lp296
I1
aI15
asg158
Nsg159
VSong of Songs 1:15
p297
sg161
(lp298
sg163
g114
sg164
Nsg165
(lp299
I1
aI15
asg167
Nsg168
g297
sg169
(lp300
sg171
g60
sg172
Nsg173
Nsg174
Nsbag2
(g3
g4
Ntp301
Rp302
(dp303
g8
g11
sg152
Nsg153
(dp304
sg155
Nsg26
g29
sg156
(lp305
I1
aI16
asg158
Nsg159
VSong of Songs 1:16
p306
sg161
(lp307
sg163
g114
sg164
Nsg165
(lp308
I1
aI16
asg167
Nsg168
g306
sg169
(lp309
sg171
g60
sg172
Nsg173
Nsg174
Nsbag2
(g3
g4
Ntp310
Rp311
(dp312
g8
g11
sg152
Nsg153
(dp313
sg155
Nsg26
g29
sg156
(lp314
I1
aI17
asg158
Nsg159
VSong of Songs 1:17
p315
sg161
(lp316
sg163
g114
sg164
Nsg165
(lp317
I1
aI17
asg167
Nsg168
g315
sg169
(lp318
sg171
g60
sg172
Nsg173
Nsg174
Nsbag2
(g3
g4
Ntp319
Rp320
(dp321
g8
g11
sg152
Nsg153
(dp322
sg155
Nsg26
g29
sg156
(lp323
I2
aI1
asg158
Nsg159
VSong of Songs 2:1
p324
sg161
(lp325
sg163
g114
sg164
Nsg165
(lp326
I2
aI1
asg167
Nsg168
g324
sg169
(lp327
sg171
g60
sg172
Nsg173
Nsg174
Nsbag2
(g3
g4
Ntp328
Rp329
(dp330
g8
g11
sg152
Nsg153
(dp331
sg155
Nsg26
g29
sg156
(lp332
I2
aI2
asg158
Nsg159
VSong of Songs 2:2
p333
sg161
(lp334
sg163
g114
sg164
Nsg165
(lp335
I2
aI2
asg167
Nsg168
g333
sg169
(lp336
sg171
g60
sg172
Nsg173
Nsg174
Nsbag2
(g3
g4
Ntp337
Rp338
(dp339
g8
g11
sg152
Nsg153
(dp340
sg155
Nsg26
g29
sg156
(lp341
I2
aI3
asg158
Nsg159
VSong of Songs 2:3
p342
sg161
(lp343
sg163
g114
sg164
Nsg165
(lp344
I2
aI3
asg167
Nsg168
g342
sg169
(lp345
sg171
g60
sg172
Nsg173
Nsg174
Nsbag2
(g3
g4
Ntp346
Rp347
(dp348
g8
g11
sg152
Nsg153
(dp349
sg155
Nsg26
g29
sg156
(lp350
I2
aI4
asg158
Nsg159
VSong of Songs 2:4
p351
sg161
(lp352
sg163
g114
sg164
Nsg165
(lp353
I2
aI4
asg167
Nsg168
g351
sg169
(lp354
sg171
g60
sg172
Nsg173
Nsg174
Nsbag2
(g3
g4
Ntp355
Rp356
(dp357
g8
g11
sg152
Nsg153
(dp358
sg155
Nsg26
g29
sg156
(lp359
I2
aI5
asg158
Nsg159
VSong of Songs 2:5
p360
sg161
(lp361
sg163
g114
sg164
Nsg165
(lp362
I2
aI5
asg167
Nsg168
g360
sg169
(lp363
sg171
g60
sg172
Nsg173
Nsg174
Nsbag2
(g3
g4
Ntp364
Rp365
(dp366
g8
g11
sg152
Nsg153
(dp367
sg155
Nsg26
g29
sg156
(lp368
I2
aI6
asg158
Nsg159
VSong of Songs 2:6
p369
sg161
(lp370
sg163
g114
sg164
Nsg165
(lp371
I2
aI6
asg167
Nsg168
g369
sg169
(lp372
sg171
g60
sg172
Nsg173
Nsg174
Nsbag2
(g3
g4
Ntp373
Rp374
(dp375
g8
g11
sg152
Nsg153
(dp376
sg155
Nsg26
g29
sg156
(lp377
I2
aI7
asg158
Nsg159
VSong of Songs 2:7
p378
sg161
(lp379
sg163
g114
sg164
Nsg165
(lp380
I2
aI7
asg167
Nsg168
g378
sg169
(lp381
sg171
g60
sg172
Nsg173
Nsg174
Nsbag2
(g3
g4
Ntp382
Rp383
(dp384
g8
g11
sg152
Nsg153
(dp385
sg155
Nsg26
g29
sg156
(lp386
I2
aI8
asg158
Nsg159
VSong of Songs 2:8
p387
sg161
(lp388
sg163
g114
sg164
Nsg165
(lp389
I2
aI8
asg167
Nsg168
g387
sg169
(lp390
sg171
g60
sg172
Nsg173
Nsg174
Nsbag2
(g3
g4
Ntp391
Rp392
(dp393
g8
g11
sg152
Nsg153
(dp394
sg155
Nsg26
g29
sg156
(lp395
I2
aI9
asg158
Nsg159
VSong of Songs 2:9
p396
sg161
(lp397
sg163
g114
sg164
Nsg165
(lp398
I2
aI9
asg167
Nsg168
g396
sg169
(lp399
sg171
g60
sg172
Nsg173
Nsg174
Nsbag2
(g3
g4
Ntp400
Rp401
(dp402
g8
g11
sg152
Nsg153
(dp403
sg155
Nsg26
g29
sg156
(lp404
I2
aI10
asg158
Nsg159
VSong of Songs 2:10
p405
sg161
(lp406
sg163
g114
sg164
Nsg165
(lp407
I2
aI10
asg167
Nsg168
g405
sg169
(lp408
sg171
g60
sg172
Nsg173
Nsg174
Nsbag2
(g3
g4
Ntp409
Rp410
(dp411
g8
g11
sg152
Nsg153
(dp412
sg155
Nsg26
g29
sg156
(lp413
I2
aI11
asg158
Nsg159
VSong of Songs 2:11
p414
sg161
(lp415
sg163
g114
sg164
Nsg165
(lp416
I2
aI11
asg167
Nsg168
g414
sg169
(lp417
sg171
g60
sg172
Nsg173
Nsg174
Nsbag2
(g3
g4
Ntp418
Rp419
(dp420
g8
g11
sg152
Nsg153
(dp421
sg155
Nsg26
g29
sg156
(lp422
I2
aI12
asg158
Nsg159
VSong of Songs 2:12
p423
sg161
(lp424
sg163
g114
sg164
Nsg165
(lp425
I2
aI12
asg167
Nsg168
g423
sg169
(lp426
sg171
g60
sg172
Nsg173
Nsg174
Nsbag2
(g3
g4
Ntp427
Rp428
(dp429
g8
g11
sg152
Nsg153
(dp430
sg155
Nsg26
g29
sg156
(lp431
I2
aI13
asg158
Nsg159
VSong of Songs 2:13
p432
sg161
(lp433
sg163
g114
sg164
Nsg165
(lp434
I2
aI13
asg167
Nsg168
g432
sg169
(lp435
sg171
g60
sg172
Nsg173
Nsg174
Nsbag2
(g3
g4
Ntp436
Rp437
(dp438
g8
g11
sg152
Nsg153
(dp439
sg155
Nsg26
g29
sg156
(lp440
I2
aI14
asg158
Nsg159
VSong of Songs 2:14
p441
sg161
(lp442
sg163
g114
sg164
Nsg165
(lp443
I2
aI14
asg167
Nsg168
g441
sg169
(lp444
sg171
g60
sg172
Nsg173
Nsg174
Nsbag2
(g3
g4
Ntp445
Rp446
(dp447
g8
g11
sg152
Nsg153
(dp448
sg155
Nsg26
g29
sg156
(lp449
I2
aI15
asg158
Nsg159
VSong of Songs 2:15
p450
sg161
(lp451
sg163
g114
sg164
Nsg165
(lp452
I2
aI15
asg167
Nsg168
g450
sg169
(lp453
sg171
g60
sg172
Nsg173
Nsg174
Nsbag2
(g3
g4
Ntp454
Rp455
(dp456
g8
g11
sg152
Nsg153
(dp457
sg155
Nsg26
g29
sg156
(lp458
I2
aI16
asg158
Nsg159
VSong of Songs 2:16
p459
sg161
(lp460
sg163
g114
sg164
Nsg165
(lp461
I2
aI16
asg167
Nsg168
g459
sg169
(lp462
sg171
g60
sg172
Nsg173
Nsg174
Nsbag2
(g3
g4
Ntp463
Rp464
(dp465
g8
g11
sg152
Nsg153
(dp466
sg155
Nsg26
g29
sg156
(lp467
I2
aI17
asg158
Nsg159
VSong of Songs 2:17
p468
sg161
(lp469
sg163
g114
sg164
Nsg165
(lp470
I2
aI17
asg167
Nsg168
g468
sg169
(lp471
sg171
g60
sg172
Nsg173
Nsg174
Nsbag2
(g3
g4
Ntp472
Rp473
(dp474
g8
g11
sg152
Nsg153
(dp475
sg155
Nsg26
g29
sg156
(lp476
I3
aI1
asg158
Nsg159
VSong of Songs 3:1
p477
sg161
(lp478
sg163
g114
sg164
Nsg165
(lp479
I3
aI1
asg167
Nsg168
g477
sg169
(lp480
sg171
g60
sg172
Nsg173
Nsg174
Nsbag2
(g3
g4
Ntp481
Rp482
(dp483
g8
g11
sg152
Nsg153
(dp484
sg155
Nsg26
g29
sg156
(lp485
I3
aI2
asg158
Nsg159
VSong of Songs 3:2
p486
sg161
(lp487
sg163
g114
sg164
Nsg165
(lp488
I3
aI2
asg167
Nsg168
g486
sg169
(lp489
sg171
g60
sg172
Nsg173
Nsg174
Nsbag2
(g3
g4
Ntp490
Rp491
(dp492
g8
g11
sg152
Nsg153
(dp493
sg155
Nsg26
g29
sg156
(lp494
I3
aI3
asg158
Nsg159
VSong of Songs 3:3
p495
sg161
(lp496
sg163
g114
sg164
Nsg165
(lp497
I3
aI3
asg167
Nsg168
g495
sg169
(lp498
sg171
g60
sg172
Nsg173
Nsg174
Nsbag2
(g3
g4
Ntp499
Rp500
(dp501
g8
g11
sg152
Nsg153
(dp502
sg155
Nsg26
g29
sg156
(lp503
I3
aI4
asg158
Nsg159
VSong of Songs 3:4
p504
sg161
(lp505
sg163
g114
sg164
Nsg165
(lp506
I3
aI4
asg167
Nsg168
g504
sg169
(lp507
sg171
g60
sg172
Nsg173
Nsg174
Nsbag2
(g3
g4
Ntp508
Rp509
(dp510
g8
g11
sg152
Nsg153
(dp511
sg155
Nsg26
g29
sg156
(lp512
I3
aI5
asg158
Nsg159
VSong of Songs 3:5
p513
sg161
(lp514
sg163
g114
sg164
Nsg165
(lp515
I3
aI5
asg167
Nsg168
g513
sg169
(lp516
sg171
g60
sg172
Nsg173
Nsg174
Nsbag2
(g3
g4
Ntp517
Rp518
(dp519
g8
g11
sg152
Nsg153
(dp520
sg155
Nsg26
g29
sg156
(lp521
I3
aI6
asg158
Nsg159
VSong of Songs 3:6
p522
sg161
(lp523
sg163
g114
sg164
Nsg165
(lp524
I3
aI6
asg167
Nsg168
g522
sg169
(lp525
sg171
g60
sg172
Nsg173
Nsg174
Nsbag2
(g3
g4
Ntp526
Rp527
(dp528
g8
g11
sg152
Nsg153
(dp529
sg155
Nsg26
g29
sg156
(lp530
I3
aI7
asg158
Nsg159
VSong of Songs 3:7
p531
sg161
(lp532
sg163
g114
sg164
Nsg165
(lp533
I3
aI7
asg167
Nsg168
g531
sg169
(lp534
sg171
g60
sg172
Nsg173
Nsg174
Nsbag2
(g3
g4
Ntp535
Rp536
(dp537
g8
g11
sg152
Nsg153
(dp538
sg155
Nsg26
g29
sg156
(lp539
I3
aI8
asg158
Nsg159
VSong of Songs 3:8
p540
sg161
(lp541
sg163
g114
sg164
Nsg165
(lp542
I3
aI8
asg167
Nsg168
g540
sg169
(lp543
sg171
g60
sg172
Nsg173
Nsg174
Nsbag2
(g3
g4
Ntp544
Rp545
(dp546
g8
g11
sg152
Nsg153
(dp547
sg155
Nsg26
g29
sg156
(lp548
I3
aI9
asg158
Nsg159
VSong of Songs 3:9
p549
sg161
(lp550
sg163
g114
sg164
Nsg165
(lp551
I3
aI9
asg167
Nsg168
g549
sg169
(lp552
sg171
g60
sg172
Nsg173
Nsg174
Nsbag2
(g3
g4
Ntp553
Rp554
(dp555
g8
g11
sg152
Nsg153
(dp556
sg155
Nsg26
g29
sg156
(lp557
I3
aI10
asg158
Nsg159
VSong of Songs 3:10
p558
sg161
(lp559
sg163
g114
sg164
Nsg165
(lp560
I3
aI10
asg167
Nsg168
g558
sg169
(lp561
sg171
g60
sg172
Nsg173
Nsg174
Nsbag2
(g3
g4
Ntp562
Rp563
(dp564
g8
g11
sg152
Nsg153
(dp565
sg155
Nsg26
g29
sg156
(lp566
I3
aI11
asg158
Nsg159
VSong of Songs 3:11
p567
sg161
(lp568
sg163
g114
sg164
Nsg165
(lp569
I3
aI11
asg167
Nsg168
g567
sg169
(lp570
sg171
g60
sg172
Nsg173
Nsg174
Nsbag2
(g3
g4
Ntp571
Rp572
(dp573
g8
g11
sg152
Nsg153
(dp574
sg155
Nsg26
g29
sg156
(lp575
I4
aI1
asg158
Nsg159
VSong of Songs 4:1
p576
sg161
(lp577
sg163
g114
sg164
Nsg165
(lp578
I4
aI1
asg167
Nsg168
g576
sg169
(lp579
sg171
g60
sg172
Nsg173
Nsg174
Nsbag2
(g3
g4
Ntp580
Rp581
(dp582
g8
g11
sg152
Nsg153
(dp583
sg155
Nsg26
g29
sg156
(lp584
I4
aI2
asg158
Nsg159
VSong of Songs 4:2
p585
sg161
(lp586
sg163
g114
sg164
Nsg165
(lp587
I4
aI2
asg167
Nsg168
g585
sg169
(lp588
sg171
g60
sg172
Nsg173
Nsg174
Nsbag2
(g3
g4
Ntp589
Rp590
(dp591
g8
g11
sg152
Nsg153
(dp592
sg155
Nsg26
g29
sg156
(lp593
I4
aI3
asg158
Nsg159
VSong of Songs 4:3
p594
sg161
(lp595
sg163
g114
sg164
Nsg165
(lp596
I4
aI3
asg167
Nsg168
g594
sg169
(lp597
sg171
g60
sg172
Nsg173
Nsg174
Nsbag2
(g3
g4
Ntp598
Rp599
(dp600
g8
g11
sg152
Nsg153
(dp601
sg155
Nsg26
g29
sg156
(lp602
I4
aI4
asg158
Nsg159
VSong of Songs 4:4
p603
sg161
(lp604
sg163
g114
sg164
Nsg165
(lp605
I4
aI4
asg167
Nsg168
g603
sg169
(lp606
sg171
g60
sg172
Nsg173
Nsg174
Nsbag2
(g3
g4
Ntp607
Rp608
(dp609
g8
g11
sg152
Nsg153
(dp610
sg155
Nsg26
g29
sg156
(lp611
I4
aI5
asg158
Nsg159
VSong of Songs 4:5
p612
sg161
(lp613
sg163
g114
sg164
Nsg165
(lp614
I4
aI5
asg167
Nsg168
g612
sg169
(lp615
sg171
g60
sg172
Nsg173
Nsg174
Nsbag2
(g3
g4
Ntp616
Rp617
(dp618
g8
g11
sg152
Nsg153
(dp619
sg155
Nsg26
g29
sg156
(lp620
I4
aI6
asg158
Nsg159
VSong of Songs 4:6
p621
sg161
(lp622
sg163
g114
sg164
Nsg165
(lp623
I4
aI6
asg167
Nsg168
g621
sg169
(lp624
sg171
g60
sg172
Nsg173
Nsg174
Nsbag2
(g3
g4
Ntp625
Rp626
(dp627
g8
g11
sg152
Nsg153
(dp628
sg155
Nsg26
g29
sg156
(lp629
I4
aI7
asg158
Nsg159
VSong of Songs 4:7
p630
sg161
(lp631
sg163
g114
sg164
Nsg165
(lp632
I4
aI7
asg167
Nsg168
g630
sg169
(lp633
sg171
g60
sg172
Nsg173
Nsg174
Nsbag2
(g3
g4
Ntp634
Rp635
(dp636
g8
g11
sg152
Nsg153
(dp637
sg155
Nsg26
g29
sg156
(lp638
I4
aI8
asg158
Nsg159
VSong of Songs 4:8
p639
sg161
(lp640
sg163
g114
sg164
Nsg165
(lp641
I4
aI8
asg167
Nsg168
g639
sg169
(lp642
sg171
g60
sg172
Nsg173
Nsg174
Nsbag2
(g3
g4
Ntp643
Rp644
(dp645
g8
g11
sg152
Nsg153
(dp646
sg155
Nsg26
g29
sg156
(lp647
I4
aI9
asg158
Nsg159
VSong of Songs 4:9
p648
sg161
(lp649
sg163
g114
sg164
Nsg165
(lp650
I4
aI9
asg167
Nsg168
g648
sg169
(lp651
sg171
g60
sg172
Nsg173
Nsg174
Nsbag2
(g3
g4
Ntp652
Rp653
(dp654
g8
g11
sg152
Nsg153
(dp655
sg155
Nsg26
g29
sg156
(lp656
I4
aI10
asg158
Nsg159
VSong of Songs 4:10
p657
sg161
(lp658
sg163
g114
sg164
Nsg165
(lp659
I4
aI10
asg167
Nsg168
g657
sg169
(lp660
sg171
g60
sg172
Nsg173
Nsg174
Nsbag2
(g3
g4
Ntp661
Rp662
(dp663
g8
g11
sg152
Nsg153
(dp664
sg155
Nsg26
g29
sg156
(lp665
I4
aI11
asg158
Nsg159
VSong of Songs 4:11
p666
sg161
(lp667
sg163
g114
sg164
Nsg165
(lp668
I4
aI11
asg167
Nsg168
g666
sg169
(lp669
sg171
g60
sg172
Nsg173
Nsg174
Nsbag2
(g3
g4
Ntp670
Rp671
(dp672
g8
g11
sg152
Nsg153
(dp673
sg155
Nsg26
g29
sg156
(lp674
I4
aI12
asg158
Nsg159
VSong of Songs 4:12
p675
sg161
(lp676
sg163
g114
sg164
Nsg165
(lp677
I4
aI12
asg167
Nsg168
g675
sg169
(lp678
sg171
g60
sg172
Nsg173
Nsg174
Nsbag2
(g3
g4
Ntp679
Rp680
(dp681
g8
g11
sg152
Nsg153
(dp682
sg155
Nsg26
g29
sg156
(lp683
I4
aI13
asg158
Nsg159
VSong of Songs 4:13
p684
sg161
(lp685
sg163
g114
sg164
Nsg165
(lp686
I4
aI13
asg167
Nsg168
g684
sg169
(lp687
sg171
g60
sg172
Nsg173
Nsg174
Nsbag2
(g3
g4
Ntp688
Rp689
(dp690
g8
g11
sg152
Nsg153
(dp691
sg155
Nsg26
g29
sg156
(lp692
I4
aI14
asg158
Nsg159
VSong of Songs 4:14
p693
sg161
(lp694
sg163
g114
sg164
Nsg165
(lp695
I4
aI14
asg167
Nsg168
g693
sg169
(lp696
sg171
g60
sg172
Nsg173
Nsg174
Nsbag2
(g3
g4
Ntp697
Rp698
(dp699
g8
g11
sg152
Nsg153
(dp700
sg155
Nsg26
g29
sg156
(lp701
I4
aI15
asg158
Nsg159
VSong of Songs 4:15
p702
sg161
(lp703
sg163
g114
sg164
Nsg165
(lp704
I4
aI15
asg167
Nsg168
g702
sg169
(lp705
sg171
g60
sg172
Nsg173
Nsg174
Nsbag2
(g3
g4
Ntp706
Rp707
(dp708
g8
g11
sg152
Nsg153
(dp709
sg155
Nsg26
g29
sg156
(lp710
I4
aI16
asg158
Nsg159
VSong of Songs 4:16
p711
sg161
(lp712
sg163
g114
sg164
Nsg165
(lp713
I4
aI16
asg167
Nsg168
g711
sg169
(lp714
sg171
g60
sg172
Nsg173
Nsg174
Nsbag2
(g3
g4
Ntp715
Rp716
(dp717
g8
g11
sg152
Nsg153
(dp718
sg155
Nsg26
g29
sg156
(lp719
I5
aI1
asg158
Nsg159
VSong of Songs 5:1
p720
sg161
(lp721
sg163
g114
sg164
Nsg165
(lp722
I5
aI1
asg167
Nsg168
g720
sg169
(lp723
sg171
g60
sg172
Nsg173
Nsg174
Nsbag2
(g3
g4
Ntp724
Rp725
(dp726
g8
g11
sg152
Nsg153
(dp727
sg155
Nsg26
g29
sg156
(lp728
I5
aI2
asg158
Nsg159
VSong of Songs 5:2
p729
sg161
(lp730
sg163
g114
sg164
Nsg165
(lp731
I5
aI2
asg167
Nsg168
g729
sg169
(lp732
sg171
g60
sg172
Nsg173
Nsg174
Nsbag2
(g3
g4
Ntp733
Rp734
(dp735
g8
g11
sg152
Nsg153
(dp736
sg155
Nsg26
g29
sg156
(lp737
I5
aI3
asg158
Nsg159
VSong of Songs 5:3
p738
sg161
(lp739
sg163
g114
sg164
Nsg165
(lp740
I5
aI3
asg167
Nsg168
g738
sg169
(lp741
sg171
g60
sg172
Nsg173
Nsg174
Nsbag2
(g3
g4
Ntp742
Rp743
(dp744
g8
g11
sg152
Nsg153
(dp745
sg155
Nsg26
g29
sg156
(lp746
I5
aI4
asg158
Nsg159
VSong of Songs 5:4
p747
sg161
(lp748
sg163
g114
sg164
Nsg165
(lp749
I5
aI4
asg167
Nsg168
g747
sg169
(lp750
sg171
g60
sg172
Nsg173
Nsg174
Nsbag2
(g3
g4
Ntp751
Rp752
(dp753
g8
g11
sg152
Nsg153
(dp754
sg155
Nsg26
g29
sg156
(lp755
I5
aI5
asg158
Nsg159
VSong of Songs 5:5
p756
sg161
(lp757
sg163
g114
sg164
Nsg165
(lp758
I5
aI5
asg167
Nsg168
g756
sg169
(lp759
sg171
g60
sg172
Nsg173
Nsg174
Nsbag2
(g3
g4
Ntp760
Rp761
(dp762
g8
g11
sg152
Nsg153
(dp763
sg155
Nsg26
g29
sg156
(lp764
I5
aI6
asg158
Nsg159
VSong of Songs 5:6
p765
sg161
(lp766
sg163
g114
sg164
Nsg165
(lp767
I5
aI6
asg167
Nsg168
g765
sg169
(lp768
sg171
g60
sg172
Nsg173
Nsg174
Nsbag2
(g3
g4
Ntp769
Rp770
(dp771
g8
g11
sg152
Nsg153
(dp772
sg155
Nsg26
g29
sg156
(lp773
I5
aI7
asg158
Nsg159
VSong of Songs 5:7
p774
sg161
(lp775
sg163
g114
sg164
Nsg165
(lp776
I5
aI7
asg167
Nsg168
g774
sg169
(lp777
sg171
g60
sg172
Nsg173
Nsg174
Nsbag2
(g3
g4
Ntp778
Rp779
(dp780
g8
g11
sg152
Nsg153
(dp781
sg155
Nsg26
g29
sg156
(lp782
I5
aI8
asg158
Nsg159
VSong of Songs 5:8
p783
sg161
(lp784
sg163
g114
sg164
Nsg165
(lp785
I5
aI8
asg167
Nsg168
g783
sg169
(lp786
sg171
g60
sg172
Nsg173
Nsg174
Nsbag2
(g3
g4
Ntp787
Rp788
(dp789
g8
g11
sg152
Nsg153
(dp790
sg155
Nsg26
g29
sg156
(lp791
I5
aI9
asg158
Nsg159
VSong of Songs 5:9
p792
sg161
(lp793
sg163
g114
sg164
Nsg165
(lp794
I5
aI9
asg167
Nsg168
g792
sg169
(lp795
sg171
g60
sg172
Nsg173
Nsg174
Nsbag2
(g3
g4
Ntp796
Rp797
(dp798
g8
g11
sg152
Nsg153
(dp799
sg155
Nsg26
g29
sg156
(lp800
I5
aI10
asg158
Nsg159
VSong of Songs 5:10
p801
sg161
(lp802
sg163
g114
sg164
Nsg165
(lp803
I5
aI10
asg167
Nsg168
g801
sg169
(lp804
sg171
g60
sg172
Nsg173
Nsg174
Nsbag2
(g3
g4
Ntp805
Rp806
(dp807
g8
g11
sg152
Nsg153
(dp808
sg155
Nsg26
g29
sg156
(lp809
I5
aI11
asg158
Nsg159
VSong of Songs 5:11
p810
sg161
(lp811
sg163
g114
sg164
Nsg165
(lp812
I5
aI11
asg167
Nsg168
g810
sg169
(lp813
sg171
g60
sg172
Nsg173
Nsg174
Nsbag2
(g3
g4
Ntp814
Rp815
(dp816
g8
g11
sg152
Nsg153
(dp817
sg155
Nsg26
g29
sg156
(lp818
I5
aI12
asg158
Nsg159
VSong of Songs 5:12
p819
sg161
(lp820
sg163
g114
sg164
Nsg165
(lp821
I5
aI12
asg167
Nsg168
g819
sg169
(lp822
sg171
g60
sg172
Nsg173
Nsg174
Nsbag2
(g3
g4
Ntp823
Rp824
(dp825
g8
g11
sg152
Nsg153
(dp826
sg155
Nsg26
g29
sg156
(lp827
I5
aI13
asg158
Nsg159
VSong of Songs 5:13
p828
sg161
(lp829
sg163
g114
sg164
Nsg165
(lp830
I5
aI13
asg167
Nsg168
g828
sg169
(lp831
sg171
g60
sg172
Nsg173
Nsg174
Nsbag2
(g3
g4
Ntp832
Rp833
(dp834
g8
g11
sg152
Nsg153
(dp835
sg155
Nsg26
g29
sg156
(lp836
I5
aI14
asg158
Nsg159
VSong of Songs 5:14
p837
sg161
(lp838
sg163
g114
sg164
Nsg165
(lp839
I5
aI14
asg167
Nsg168
g837
sg169
(lp840
sg171
g60
sg172
Nsg173
Nsg174
Nsbag2
(g3
g4
Ntp841
Rp842
(dp843
g8
g11
sg152
Nsg153
(dp844
sg155
Nsg26
g29
sg156
(lp845
I5
aI15
asg158
Nsg159
VSong of Songs 5:15
p846
sg161
(lp847
sg163
g114
sg164
Nsg165
(lp848
I5
aI15
asg167
Nsg168
g846
sg169
(lp849
sg171
g60
sg172
Nsg173
Nsg174
Nsbag2
(g3
g4
Ntp850
Rp851
(dp852
g8
g11
sg152
Nsg153
(dp853
sg155
Nsg26
g29
sg156
(lp854
I5
aI16
asg158
Nsg159
VSong of Songs 5:16
p855
sg161
(lp856
sg163
g114
sg164
Nsg165
(lp857
I5
aI16
asg167
Nsg168
g855
sg169
(lp858
sg171
g60
sg172
Nsg173
Nsg174
Nsbag2
(g3
g4
Ntp859
Rp860
(dp861
g8
g11
sg152
Nsg153
(dp862
sg155
Nsg26
g29
sg156
(lp863
I6
aI1
asg158
Nsg159
VSong of Songs 6:1
p864
sg161
(lp865
sg163
g114
sg164
Nsg165
(lp866
I6
aI1
asg167
Nsg168
g864
sg169
(lp867
sg171
g60
sg172
Nsg173
Nsg174
Nsbag2
(g3
g4
Ntp868
Rp869
(dp870
g8
g11
sg152
Nsg153
(dp871
sg155
Nsg26
g29
sg156
(lp872
I6
aI2
asg158
Nsg159
VSong of Songs 6:2
p873
sg161
(lp874
sg163
g114
sg164
Nsg165
(lp875
I6
aI2
asg167
Nsg168
g873
sg169
(lp876
sg171
g60
sg172
Nsg173
Nsg174
Nsbag2
(g3
g4
Ntp877
Rp878
(dp879
g8
g11
sg152
Nsg153
(dp880
sg155
Nsg26
g29
sg156
(lp881
I6
aI3
asg158
Nsg159
VSong of Songs 6:3
p882
sg161
(lp883
sg163
g114
sg164
Nsg165
(lp884
I6
aI3
asg167
Nsg168
g882
sg169
(lp885
sg171
g60
sg172
Nsg173
Nsg174
Nsbag2
(g3
g4
Ntp886
Rp887
(dp888
g8
g11
sg152
Nsg153
(dp889
sg155
Nsg26
g29
sg156
(lp890
I6
aI4
asg158
Nsg159
VSong of Songs 6:4
p891
sg161
(lp892
sg163
g114
sg164
Nsg165
(lp893
I6
aI4
asg167
Nsg168
g891
sg169
(lp894
sg171
g60
sg172
Nsg173
Nsg174
Nsbag2
(g3
g4
Ntp895
Rp896
(dp897
g8
g11
sg152
Nsg153
(dp898
sg155
Nsg26
g29
sg156
(lp899
I6
aI5
asg158
Nsg159
VSong of Songs 6:5
p900
sg161
(lp901
sg163
g114
sg164
Nsg165
(lp902
I6
aI5
asg167
Nsg168
g900
sg169
(lp903
sg171
g60
sg172
Nsg173
Nsg174
Nsbag2
(g3
g4
Ntp904
Rp905
(dp906
g8
g11
sg152
Nsg153
(dp907
sg155
Nsg26
g29
sg156
(lp908
I6
aI6
asg158
Nsg159
VSong of Songs 6:6
p909
sg161
(lp910
sg163
g114
sg164
Nsg165
(lp911
I6
aI6
asg167
Nsg168
g909
sg169
(lp912
sg171
g60
sg172
Nsg173
Nsg174
Nsbag2
(g3
g4
Ntp913
Rp914
(dp915
g8
g11
sg152
Nsg153
(dp916
sg155
Nsg26
g29
sg156
(lp917
I6
aI7
asg158
Nsg159
VSong of Songs 6:7
p918
sg161
(lp919
sg163
g114
sg164
Nsg165
(lp920
I6
aI7
asg167
Nsg168
g918
sg169
(lp921
sg171
g60
sg172
Nsg173
Nsg174
Nsbag2
(g3
g4
Ntp922
Rp923
(dp924
g8
g11
sg152
Nsg153
(dp925
sg155
Nsg26
g29
sg156
(lp926
I6
aI8
asg158
Nsg159
VSong of Songs 6:8
p927
sg161
(lp928
sg163
g114
sg164
Nsg165
(lp929
I6
aI8
asg167
Nsg168
g927
sg169
(lp930
sg171
g60
sg172
Nsg173
Nsg174
Nsbag2
(g3
g4
Ntp931
Rp932
(dp933
g8
g11
sg152
Nsg153
(dp934
sg155
Nsg26
g29
sg156
(lp935
I6
aI9
asg158
Nsg159
VSong of Songs 6:9
p936
sg161
(lp937
sg163
g114
sg164
Nsg165
(lp938
I6
aI9
asg167
Nsg168
g936
sg169
(lp939
sg171
g60
sg172
Nsg173
Nsg174
Nsbag2
(g3
g4
Ntp940
Rp941
(dp942
g8
g11
sg152
Nsg153
(dp943
sg155
Nsg26
g29
sg156
(lp944
I6
aI10
asg158
Nsg159
VSong of Songs 6:10
p945
sg161
(lp946
sg163
g114
sg164
Nsg165
(lp947
I6
aI10
asg167
Nsg168
g945
sg169
(lp948
sg171
g60
sg172
Nsg173
Nsg174
Nsbag2
(g3
g4
Ntp949
Rp950
(dp951
g8
g11
sg152
Nsg153
(dp952
sg155
Nsg26
g29
sg156
(lp953
I6
aI11
asg158
Nsg159
VSong of Songs 6:11
p954
sg161
(lp955
sg163
g114
sg164
Nsg165
(lp956
I6
aI11
asg167
Nsg168
g954
sg169
(lp957
sg171
g60
sg172
Nsg173
Nsg174
Nsbag2
(g3
g4
Ntp958
Rp959
(dp960
g8
g11
sg152
Nsg153
(dp961
sg155
Nsg26
g29
sg156
(lp962
I6
aI12
asg158
Nsg159
VSong of Songs 6:12
p963
sg161
(lp964
sg163
g114
sg164
Nsg165
(lp965
I6
aI12
asg167
Nsg168
g963
sg169
(lp966
sg171
g60
sg172
Nsg173
Nsg174
Nsbag2
(g3
g4
Ntp967
Rp968
(dp969
g8
g11
sg152
Nsg153
(dp970
sg155
Nsg26
g29
sg156
(lp971
I7
aI1
asg158
Nsg159
VSong of Songs 7:1
p972
sg161
(lp973
sg163
g114
sg164
Nsg165
(lp974
I7
aI1
asg167
Nsg168
g972
sg169
(lp975
sg171
g60
sg172
Nsg173
Nsg174
Nsbag2
(g3
g4
Ntp976
Rp977
(dp978
g8
g11
sg152
Nsg153
(dp979
sg155
Nsg26
g29
sg156
(lp980
I7
aI2
asg158
Nsg159
VSong of Songs 7:2
p981
sg161
(lp982
sg163
g114
sg164
Nsg165
(lp983
I7
aI2
asg167
Nsg168
g981
sg169
(lp984
sg171
g60
sg172
Nsg173
Nsg174
Nsbag2
(g3
g4
Ntp985
Rp986
(dp987
g8
g11
sg152
Nsg153
(dp988
sg155
Nsg26
g29
sg156
(lp989
I7
aI3
asg158
Nsg159
VSong of Songs 7:3
p990
sg161
(lp991
sg163
g114
sg164
Nsg165
(lp992
I7
aI3
asg167
Nsg168
g990
sg169
(lp993
sg171
g60
sg172
Nsg173
Nsg174
Nsbag2
(g3
g4
Ntp994
Rp995
(dp996
g8
g11
sg152
Nsg153
(dp997
sg155
Nsg26
g29
sg156
(lp998
I7
aI4
asg158
Nsg159
VSong of Songs 7:4
p999
sg161
(lp1000
sg163
g114
sg164
Nsg165
(lp1001
I7
aI4
asg167
Nsg168
g999
sg169
(lp1002
sg171
g60
sg172
Nsg173
Nsg174
Nsbag2
(g3
g4
Ntp1003
Rp1004
(dp1005
g8
g11
sg152
Nsg153
(dp1006
sg155
Nsg26
g29
sg156
(lp1007
I7
aI5
asg158
Nsg159
VSong of Songs 7:5
p1008
sg161
(lp1009
sg163
g114
sg164
Nsg165
(lp1010
I7
aI5
asg167
Nsg168
g1008
sg169
(lp1011
sg171
g60
sg172
Nsg173
Nsg174
Nsbag2
(g3
g4
Ntp1012
Rp1013
(dp1014
g8
g11
sg152
Nsg153
(dp1015
sg155
Nsg26
g29
sg156
(lp1016
I7
aI6
asg158
Nsg159
VSong of Songs 7:6
p1017
sg161
(lp1018
sg163
g114
sg164
Nsg165
(lp1019
I7
aI6
asg167
Nsg168
g1017
sg169
(lp1020
sg171
g60
sg172
Nsg173
Nsg174
Nsbag2
(g3
g4
Ntp1021
Rp1022
(dp1023
g8
g11
sg152
Nsg153
(dp1024
sg155
Nsg26
g29
sg156
(lp1025
I7
aI7
asg158
Nsg159
VSong of Songs 7:7
p1026
sg161
(lp1027
sg163
g114
sg164
Nsg165
(lp1028
I7
aI7
asg167
Nsg168
g1026
sg169
(lp1029
sg171
g60
sg172
Nsg173
Nsg174
Nsbag2
(g3
g4
Ntp1030
Rp1031
(dp1032
g8
g11
sg152
Nsg153
(dp1033
sg155
Nsg26
g29
sg156
(lp1034
I7
aI8
asg158
Nsg159
VSong of Songs 7:8
p1035
sg161
(lp1036
sg163
g114
sg164
Nsg165
(lp1037
I7
aI8
asg167
Nsg168
g1035
sg169
(lp1038
sg171
g60
sg172
Nsg173
Nsg174
Nsbag2
(g3
g4
Ntp1039
Rp1040
(dp1041
g8
g11
sg152
Nsg153
(dp1042
sg155
Nsg26
g29
sg156
(lp1043
I7
aI9
asg158
Nsg159
VSong of Songs 7:9
p1044
sg161
(lp1045
sg163
g114
sg164
Nsg165
(lp1046
I7
aI9
asg167
Nsg168
g1044
sg169
(lp1047
sg171
g60
sg172
Nsg173
Nsg174
Nsbag2
(g3
g4
Ntp1048
Rp1049
(dp1050
g8
g11
sg152
Nsg153
(dp1051
sg155
Nsg26
g29
sg156
(lp1052
I7
aI10
asg158
Nsg159
VSong of Songs 7:10
p1053
sg161
(lp1054
sg163
g114
sg164
Nsg165
(lp1055
I7
aI10
asg167
Nsg168
g1053
sg169
(lp1056
sg171
g60
sg172
Nsg173
Nsg174
Nsbag2
(g3
g4
Ntp1057
Rp1058
(dp1059
g8
g11
sg152
Nsg153
(dp1060
sg155
Nsg26
g29
sg156
(lp1061
I7
aI11
asg158
Nsg159
VSong of Songs 7:11
p1062
sg161
(lp1063
sg163
g114
sg164
Nsg165
(lp1064
I7
aI11
asg167
Nsg168
g1062
sg169
(lp1065
sg171
g60
sg172
Nsg173
Nsg174
Nsbag2
(g3
g4
Ntp1066
Rp1067
(dp1068
g8
g11
sg152
Nsg153
(dp1069
sg155
Nsg26
g29
sg156
(lp1070
I7
aI12
asg158
Nsg159
VSong of Songs 7:12
p1071
sg161
(lp1072
sg163
g114
sg164
Nsg165
(lp1073
I7
aI12
asg167
Nsg168
g1071
sg169
(lp1074
sg171
g60
sg172
Nsg173
Nsg174
Nsbag2
(g3
g4
Ntp1075
Rp1076
(dp1077
g8
g11
sg152
Nsg153
(dp1078
sg155
Nsg26
g29
sg156
(lp1079
I7
aI13
asg158
Nsg159
VSong of Songs 7:13
p1080
sg161
(lp1081
sg163
g114
sg164
Nsg165
(lp1082
I7
aI13
asg167
Nsg168
g1080
sg169
(lp1083
sg171
g60
sg172
Nsg173
Nsg174
Nsbag2
(g3
g4
Ntp1084
Rp1085
(dp1086
g8
g11
sg152
Nsg153
(dp1087
sg155
Nsg26
g29
sg156
(lp1088
I7
aI14
asg158
Nsg159
VSong of Songs 7:14
p1089
sg161
(lp1090
sg163
g114
sg164
Nsg165
(lp1091
I7
aI14
asg167
Nsg168
g1089
sg169
(lp1092
sg171
g60
sg172
Nsg173
Nsg174
Nsbag2
(g3
g4
Ntp1093
Rp1094
(dp1095
g8
g11
sg152
Nsg153
(dp1096
sg155
Nsg26
g29
sg156
(lp1097
I8
aI1
asg158
Nsg159
VSong of Songs 8:1
p1098
sg161
(lp1099
sg163
g114
sg164
Nsg165
(lp1100
I8
aI1
asg167
Nsg168
g1098
sg169
(lp1101
sg171
g60
sg172
Nsg173
Nsg174
Nsbag2
(g3
g4
Ntp1102
Rp1103
(dp1104
g8
g11
sg152
Nsg153
(dp1105
sg155
Nsg26
g29
sg156
(lp1106
I8
aI2
asg158
Nsg159
VSong of Songs 8:2
p1107
sg161
(lp1108
sg163
g114
sg164
Nsg165
(lp1109
I8
aI2
asg167
Nsg168
g1107
sg169
(lp1110
sg171
g60
sg172
Nsg173
Nsg174
Nsbag2
(g3
g4
Ntp1111
Rp1112
(dp1113
g8
g11
sg152
Nsg153
(dp1114
sg155
Nsg26
g29
sg156
(lp1115
I8
aI3
asg158
Nsg159
VSong of Songs 8:3
p1116
sg161
(lp1117
sg163
g114
sg164
Nsg165
(lp1118
I8
aI3
asg167
Nsg168
g1116
sg169
(lp1119
sg171
g60
sg172
Nsg173
Nsg174
Nsbag2
(g3
g4
Ntp1120
Rp1121
(dp1122
g8
g11
sg152
Nsg153
(dp1123
sg155
Nsg26
g29
sg156
(lp1124
I8
aI4
asg158
Nsg159
VSong of Songs 8:4
p1125
sg161
(lp1126
sg163
g114
sg164
Nsg165
(lp1127
I8
aI4
asg167
Nsg168
g1125
sg169
(lp1128
sg171
g60
sg172
Nsg173
Nsg174
Nsbag2
(g3
g4
Ntp1129
Rp1130
(dp1131
g8
g11
sg152
Nsg153
(dp1132
sg155
Nsg26
g29
sg156
(lp1133
I8
aI5
asg158
Nsg159
VSong of Songs 8:5
p1134
sg161
(lp1135
sg163
g114
sg164
Nsg165
(lp1136
I8
aI5
asg167
Nsg168
g1134
sg169
(lp1137
sg171
g60
sg172
Nsg173
Nsg174
Nsbag2
(g3
g4
Ntp1138
Rp1139
(dp1140
g8
g11
sg152
Nsg153
(dp1141
sg155
Nsg26
g29
sg156
(lp1142
I8
aI6
asg158
Nsg159
VSong of Songs 8:6
p1143
sg161
(lp1144
sg163
g114
sg164
Nsg165
(lp1145
I8
aI6
asg167
Nsg168
g1143
sg169
(lp1146
sg171
g60
sg172
Nsg173
Nsg174
Nsbag2
(g3
g4
Ntp1147
Rp1148
(dp1149
g8
g11
sg152
Nsg153
(dp1150
sg155
Nsg26
g29
sg156
(lp1151
I8
aI7
asg158
Nsg159
VSong of Songs 8:7
p1152
sg161
(lp1153
sg163
g114
sg164
Nsg165
(lp1154
I8
aI7
asg167
Nsg168
g1152
sg169
(lp1155
sg171
g60
sg172
Nsg173
Nsg174
Nsbag2
(g3
g4
Ntp1156
Rp1157
(dp1158
g8
g11
sg152
Nsg153
(dp1159
sg155
Nsg26
g29
sg156
(lp1160
I8
aI8
asg158
Nsg159
VSong of Songs 8:8
p1161
sg161
(lp1162
sg163
g114
sg164
Nsg165
(lp1163
I8
aI8
asg167
Nsg168
g1161
sg169
(lp1164
sg171
g60
sg172
Nsg173
Nsg174
Nsbag2
(g3
g4
Ntp1165
Rp1166
(dp1167
g8
g11
sg152
Nsg153
(dp1168
sg155
Nsg26
g29
sg156
(lp1169
I8
aI9
asg158
Nsg159
VSong of Songs 8:9
p1170
sg161
(lp1171
sg163
g114
sg164
Nsg165
(lp1172
I8
aI9
asg167
Nsg168
g1170
sg169
(lp1173
sg171
g60
sg172
Nsg173
Nsg174
Nsbag2
(g3
g4
Ntp1174
Rp1175
(dp1176
g8
g11
sg152
Nsg153
(dp1177
sg155
Nsg26
g29
sg156
(lp1178
I8
aI10
asg158
Nsg159
VSong of Songs 8:10
p1179
sg161
(lp1180
sg163
g114
sg164
Nsg165
(lp1181
I8
aI10
asg167
Nsg168
g1179
sg169
(lp1182
sg171
g60
sg172
Nsg173
Nsg174
Nsbag2
(g3
g4
Ntp1183
Rp1184
(dp1185
g8
g11
sg152
Nsg153
(dp1186
sg155
Nsg26
g29
sg156
(lp1187
I8
aI11
asg158
Nsg159
VSong of Songs 8:11
p1188
sg161
(lp1189
sg163
g114
sg164
Nsg165
(lp1190
I8
aI11
asg167
Nsg168
g1188
sg169
(lp1191
sg171
g60
sg172
Nsg173
Nsg174
Nsbag2
(g3
g4
Ntp1192
Rp1193
(dp1194
g8
g11
sg152
Nsg153
(dp1195
sg155
Nsg26
g29
sg156
(lp1196
I8
aI12
asg158
Nsg159
VSong of Songs 8:12
p1197
sg161
(lp1198
sg163
g114
sg164
Nsg165
(lp1199
I8
aI12
asg167
Nsg168
g1197
sg169
(lp1200
sg171
g60
sg172
Nsg173
Nsg174
Nsbag2
(g3
g4
Ntp1201
Rp1202
(dp1203
g8
g11
sg152
Nsg153
(dp1204
sg155
Nsg26
g29
sg156
(lp1205
I8
aI13
asg158
Nsg159
VSong of Songs 8:13
p1206
sg161
(lp1207
sg163
g114
sg164
Nsg165
(lp1208
I8
aI13
asg167
Nsg168
g1206
sg169
(lp1209
sg171
g60
sg172
Nsg173
Nsg174
Nsbag2
(g3
g4
Ntp1210
Rp1211
(dp1212
g8
g11
sg152
Nsg153
(dp1213
sg155
Nsg26
g29
sg156
(lp1214
I8
aI14
asg158
Nsg159
VSong of Songs 8:14
p1215
sg161
(lp1216
sg163
g114
sg164
Nsg165
(lp1217
I8
aI14
asg167
Nsg168
g1215
sg169
(lp1218
sg171
g60
sg172
Nsg173
Nsg174
Nsbatp1219
.