((lp0
I0
aI7
aI22
aI40
aI45
aI60
aI67
aI81
aI88
aI91
aI102
aI122
aI134
aI139
aI143
aI154
aI161
aI162
aI166
aI171
aI174
aI175
aI194
aI195
aI223
aI224
aI247
aI256
aI260
aI273
aI274
aI279
aI283
aI285
aI294
aI296
aI297
aI316
aI319
aI321
aI327
aI336
aI356
aI359
aI360
aI365
aI371
aI377
aI378
aI389
aI391
aI402
aI403
aI412
aI416
aI420
aI423
aI428
aI432
aI433
aI441
aI442
aI456
aI461
aI462
aI464
aI465
aI472
aI477
aI485
aI487
aI488
aI505
aI507
aI522
aI553
aI554
aI560
aI573
aI579
aI580
aI583
aI584
aI588
aI592
aI605
aI607
aI609
aI611
aI612
aI621
aI626
aI629
aI641
aI662
aI673
aI683
aI702
aI703
aI713
aI724
aI725
aI729
aI730
aI732
aI739
aI742
aI749
aI757
aI769
aI775
aI783
aI788
aI789
aI817
aI821
aI826
aI831
aI832
aI834
aI835
aI847
aI863
aI887
aI889
aI900
aI910
aI919
aI935
aI947
aI949
aI951
aI954
aI958
aI959
aI965
aI969
aI970
aI976
aI992
aI994
aI995
aI1008
aI1017
aI1025
aI1030
aI1032
aI1035
aI1041
aI1046
aI1056
aI1058
aI1063
aI1070
aI1073
aI1083
aI1085
aI1088
aI1091
aI1105
aI1111
aI1121
aI1125
aI1137
aI1138
aI1149
aI1167
aI1170
aI1179
aI1180
aI1190
aI1202
aI1204
aI1224
aI1226
aI1236
aI1238
aI1241
aI1250
aI1254
aI1264
aI1267
aI1288
aI1290
aI1317
aI1323
aI1325
aI1329
aI1335
aI1339
aI1352
aI1364
aI1368
aI1379
aI1407
aI1408
aI1416
aI1417
aI1425
aI1439
aI1446
aI1456
aI1470
aI1485
aI1486
aI1503
aI1522
aI1543
aI1547
aI1550
aI1555
aI1562
aI1564
aI1575
aI1585
aI1596
aI1600
aI1614
aI1616
aI1618
aI1638
aI1669
aI1674
aI1679
aI1684
aI1685
aI1696
aI1709
aI1710
aI1713
aI1717
aI1722
aI1730
aI1734
aI1737
aI1739
aI1742
aI1746
aI1753
aI1767
aI1777
aI1786
aI1792
aI1796
aI1811
aI1812
aI1818
aI1824
aI1830
aI1843
aI1851
aI1858
aI1873
aI1893
aI1911
aI1929
aI1931
aI1932
aI1939
aI1940
aI1941
aI1953
aI1958
aI1964
aI1966
aI1978
aI1983
aI1995
aI1998
aI2006
aI2009
aI2011
aI2012
aI2019
aI2023
aI2031
aI2035
aI2050
aI2057
aI2060
aI2068
aI2077
aI2080
aI2092
aI2102
aI2112
aI2125
aI2127
aI2128
aI2132
aI2136
aI2137
aI2155
aI2161
aI2172
aI2180
aI2182
aI2193
aI2198
aI2200
aI2213
aI2221
aI2235
aI2236
aI2244
aI2249
aI2258
aI2264
aI2267
aI2270
aI2294
aI2299
aI2301
aI2303
aI2304
aI2310
aI2316
aI2317
aI2327
aI2328
aI2331
aI2335
aI2338
aI2356
aI2374
aI2378
aI2379
aI2385
aI2389
aI2390
aI2393
aI2400
aI2403
aI2404
aI2411
aI2418
aI2438
aI2449
aI2453
aI2455
aI2463
aI2475
aI2479
aI2487
aI2493
aI2504
aI2518
aI2529
aI2550
aI2564
aI2573
aI2582
aI2589
aI2594
aI2599
aI2606
aI2611
aI2617
aI2626
aI2631
aI2636
aI2637
aI2647
aI2653
aI2656
aI2666
aI2678
aI2713
aI2728
aI2735
aI2754
aI2764
aI2784
aI2788
aI2797
aI2802
aI2805
aI2814
aI2825
aI2837
aI2849
aI2854
aI2861
aI2873
aI2879
aI2888
aI2895
aI2911
aI2922
aI2927
aI2936
aI2944
aI2953
aI2965
aI2981
aI2988
aI3011
aI3014
aI3025
aI3035
aI3049
aI3053
aI3060
aI3070
aI3081
aI3095
aI3104
aI3110
aI3113
aI3127
aI3134
aI3137
aI3146
aI3149
aI3167
aI3170
aI3178
aI3181
aI3190
aI3198
aI3200
aI3202
aI3204
aI3211
aI3219
aI3221
aI3226
aI3231
aI3233
aI3236
aI3240
aI3244
aI3246
aI3254
aI3256
aI3261
aI3291
aI3303
aI3318
aI3326
aI3334
aI3338
aI3345
aI3348
aI3356
aI3359
aI3360
aI3365
aI3368
aI3372
aI3381
aI3403
aI3405
aI3406
aI3430
aI3438
aI3439
aI3446
aI3448
aI3451
aI3469
aI3471
aI3476
aI3493
aI3502
aI3508
aI3509
aI3514
aI3515
aI3519
aI3526
aI3527
aI3532
aI3534
aI3539
aI3540
aI3544
aI3556
aI3557
aI3568
aI3574
aI3576
aI3586
aI3599
aI3600
aI3603
aI3604
aI3609
aI3610
aI3613
aI3615
aI3620
aI3621
aI3624
aI3625
aI3629
aI3630
aI3634
aI3635
aI3637
aI3641
aI3644
aI3645
aI3651
aI3652
aI3655
aI3656
aI3667
aI3668
aI3675
aI3676
aI3689
aI3690
aI3694
aI3696
aI3707
aI3708
aI3712
aI3713
aI3715
aI3716
aI3721
aI3722
aI3729
aI3739
aI3740
aI3744
aI3745
aI3751
aI3752
aI3763
aI3764
aI3782
aI3785
aI3790
aI3794
aI3795
aI3808
aI3809
aI3812
aI3817
aI3818
aI3823
aI3824
aI3837
aI3843
aI3857
aI3866
aI3876
aI3876
aI3882
aI3883
aI3888
aI3889
aI3896
aI3898
aI3901
aI3902
aI3906
aI3907
aI3916
aI3919
aI3929
aI3931
aI3933
aI3934
aI3941
aI3942
aI3945
aI3952
aI3959
aI3962
aI3967
aI3970
aI3972
aI3979
aI3993
aI3995
aI4001
aI4007
aI4012
aI4015
aI4018
aI4020
aI4028
aI4033
aI4038
aI4044
aI4046
aI4050
aI4053
aI4054
aI4065
aI4068
aI4076
aI4098
aI4118
aI4129
aI4152
aI4159
aI4163
aI4186
aI4190
aI4205
aI4218
aI4226
aI4230
aI4243
aI4258
aI4266
aI4270
aI4275
aI4284
aI4320
aI4326
aI4333
aI4348
aI4362
aI4368
aI4370
aI4377
aI4380
aI4388
aI4389
aI4395
aI4399
aI4404
aI4408
aI4416
aI4423
aI4440
aI4445
aI4459
aI4475
aI4480
aI4489
aI4497
aI4518
aI4521
aI4538
aI4548
aI4555
aI4563
aI4574
aI4578
aI4589
aI4596
aI4604
aI4613
aI4617
aI4632
aI4635
aI4643
aI4654
aI4659
aI4667
aI4679
aI4685
aI4695
aI4706
aI4716
aI4725
aI4734
aI4743
aI4760
a(lp1
ccopy_reg
_reconstructor
p2
(csefaria.model.text
Ref
p3
c__builtin__
object
p4
Ntp5
Rp6
(dp7
S'index_node'
p8
g2
(csefaria.model.schema
JaggedArrayNode
p9
g4
Ntp10
Rp11
(dp12
S'_address'
p13
(lp14
VTamid
p15
asS'_full_titles'
p16
(dp17
sVnodeType
p18
VJaggedArrayNode
p19
sS'parent'
p20
NsVaddressTypes
p21
(lp22
VTalmud
p23
aVInteger
p24
asS'default'
p25
I00
sS'index'
p26
g2
(csefaria.model.text
Index
p27
g4
Ntp28
Rp29
(dp30
S'schema'
p31
(dp32
g18
g19
sg21
g22
sVlengths
p33
(lp34
I66
aI665
asVdepth
p35
I2
sVtitles
p36
(lp37
(dp38
Vlang
p39
Ven
p40
sVtext
p41
VTractate Tamid
p42
sa(dp43
Vlang
p44
Ven
p45
sVtext
p46
VTalmud Tamid
p47
sa(dp48
Vlang
p49
Ven
p50
sVtext
p51
VMasekhet Tamid
p52
sa(dp53
Vlang
p54
Vhe
p55
sVtext
p56
V\u05ea\u05de\u05d9\u05d3
p57
sVprimary
p58
I01
sa(dp59
Vlang
p60
Ven
p61
sVtext
p62
VTamid
p63
sVprimary
p64
I01
sasVkey
p65
g15
sVcheckFirst
p66
(dp67
Ven
p68
VMishnah Tamid
p69
sVhe
p70
V\u05de\u05e9\u05e0\u05d4 \u05ea\u05de\u05d9\u05d3
p71
ssVsectionNames
p72
(lp73
VDaf
p74
aVLine
p75
assS'_id'
p76
g2
(cbson.objectid
ObjectId
p77
g4
Ntp78
Rp79
S'NJ\xb8\xca\xed\xba\xb4X3\x00\x00\x89'
p80
bsS'pkeys_orig_values'
p81
(dp82
S'title'
p83
VTamid
p84
ssS'alt_structs'
p85
(dp86
VChapters
p87
(dp88
Vnodes
p89
(lp90
(dp91
VnodeType
p92
VArrayMapNode
p93
sVdepth
p94
I0
sVtitles
p95
(lp96
(dp97
Vlang
p98
Ven
p99
sVtext
p100
VChapter 1
p101
sVprimary
p102
I01
sa(dp103
Vlang
p104
Vhe
p105
sVtext
p106
V\u05d1\u05e9\u05dc\u05e9\u05d4 \u05de\u05e7\u05d5\u05de\u05d5\u05ea
p107
sVprimary
p108
I01
sasVwholeRef
p109
VTamid 25b:1-28b:21
p110
sVincludeSections
p111
I01
sa(dp112
VnodeType
p113
VArrayMapNode
p114
sVdepth
p115
I0
sVtitles
p116
(lp117
(dp118
Vlang
p119
Ven
p120
sVtext
p121
VChapter 2
p122
sVprimary
p123
I01
sa(dp124
Vlang
p125
Vhe
p126
sVtext
p127
V\u05e8\u05d0\u05d5\u05d4\u05d5 \u05d0\u05d7\u05d9\u05d5
p128
sVprimary
p129
I01
sasVwholeRef
p130
VTamid 28b:22-30a:12
p131
sVincludeSections
p132
I01
sa(dp133
VnodeType
p134
VArrayMapNode
p135
sVdepth
p136
I0
sVtitles
p137
(lp138
(dp139
Vlang
p140
Ven
p141
sVtext
p142
VChapter 3
p143
sVprimary
p144
I01
sa(dp145
Vlang
p146
Vhe
p147
sVtext
p148
V\u05d0\u05de\u05e8 \u05dc\u05d4\u05dd \u05d4\u05de\u05de\u05d5\u05e0\u05d4 \u05d1\u05d5\u05d0\u05d5
p149
sVprimary
p150
I01
sasVwholeRef
p151
VTamid 30a:13-30b:35
p152
sVincludeSections
p153
I01
sa(dp154
VnodeType
p155
VArrayMapNode
p156
sVdepth
p157
I0
sVtitles
p158
(lp159
(dp160
Vlang
p161
Ven
p162
sVtext
p163
VChapter 4
p164
sVprimary
p165
I01
sa(dp166
Vlang
p167
Vhe
p168
sVtext
p169
V\u05dc\u05d0 \u05d4\u05d9\u05d5 \u05db\u05d5\u05e4\u05ea\u05d9\u05df
p170
sVprimary
p171
I01
sasVwholeRef
p172
VTamid 30b:36-32b:40
p173
sVincludeSections
p174
I01
sa(dp175
VnodeType
p176
VArrayMapNode
p177
sVdepth
p178
I0
sVtitles
p179
(lp180
(dp181
Vlang
p182
Ven
p183
sVtext
p184
VChapter 5
p185
sVprimary
p186
I01
sa(dp187
Vlang
p188
Vhe
p189
sVtext
p190
V\u05d0\u05de\u05e8 \u05dc\u05d4\u05dd \u05d4\u05de\u05de\u05d5\u05e0\u05d4 \u05d1\u05e8\u05db\u05d5
p191
sVprimary
p192
I01
sasVwholeRef
p193
VTamid 32b:41-33a:14
p194
sVincludeSections
p195
I01
sa(dp196
VnodeType
p197
VArrayMapNode
p198
sVdepth
p199
I0
sVtitles
p200
(lp201
(dp202
Vlang
p203
Ven
p204
sVtext
p205
VChapter 6
p206
sVprimary
p207
I01
sa(dp208
Vlang
p209
Vhe
p210
sVtext
p211
V\u05d4\u05d7\u05dc\u05d5 \u05e2\u05d5\u05dc\u05d9\u05dd
p212
sVprimary
p213
I01
sasVwholeRef
p214
VTamid 33a:15-31
p215
sVincludeSections
p216
I01
sa(dp217
VnodeType
p218
VArrayMapNode
p219
sVdepth
p220
I0
sVtitles
p221
(lp222
(dp223
Vlang
p224
Ven
p225
sVtext
p226
VChapter 7
p227
sVprimary
p228
I01
sa(dp229
Vlang
p230
Vhe
p231
sVtext
p232
V\u05d1\u05d6\u05de\u05df \u05e9\u05db\u05d4\u05df \u05d2\u05d3\u05d5\u05dc
p233
sVprimary
p234
I01
sasVwholeRef
p235
VTamid 33b:1-38
p236
sVincludeSections
p237
I01
sasssS'pubDate'
p238
V1523
p239
sS'compDate'
p240
V500
p241
sS'pubPlace'
p242
VVenice
p243
sS'compPlace'
p244
VTalmudic Babylon
p245
sS'enDesc'
p246
VThe Babylonian Talmud ("instruction, learning") is a central text of Rabbinic Judaism. Babylon refers to the geographical location of its composition and not to the empire. The Talmud has two components: the Mishnah (c. 200 CE) and the Gemara (c. 500 CE). The latter is a discussion of the Mishnah. The entire Talmud consists of 63 tractates, further subdivided into chapters and folios. Each folio is double sided and starts on page 2a. It is written in Tannaitic Hebrew and Aramaic, and contains the teachings and opinions of rabbis on a variety of subjects, including Halakha (law), Jewish ethics, philosophy, customs, history, lore and many other topics. The Talmud is the basis for all codes of Jewish law, and is widely quoted in rabbinic literature. It is also traditionally referred to as Shas, a Hebrew abbreviation of shisha sedarim, (six orders). Tamid (Always) belongs to the fifth order, Kodshim (Holy things)  and discusses the procedure of the Tamid (daily sacrifice). It has six or seven chapters.
p247
sS'order'
p248
(lp249
I36
aI9
asS'era'
p250
VA
p251
sS'struct_objs'
p252
(dp253
g87
g2
(csefaria.model.schema
TitledTreeNode
p254
g4
Ntp255
Rp256
(dp257
g16
(dp258
sg20
Nsg25
I00
sS'_primary_title'
p259
(dp260
sS'title_group'
p261
g2
(csefaria.model.schema
TitleGroup
p262
g4
Ntp263
Rp264
(dp265
g259
(dp266
S'en'
p267
g63
ssS'titles'
p268
g37
sbsS'sharedTitle'
p269
NsS'_full_title'
p270
(dp271
sS'_leaf_nodes'
p272
(lp273
sS'children'
p274
(lp275
g2
(csefaria.model.schema
ArrayMapNode
p276
g4
Ntp277
Rp278
(dp279
g16
(dp280
sg92
g93
sg20
g256
sg25
I00
sg259
(dp281
sg261
g2
(g262
g4
Ntp282
Rp283
(dp284
g259
(dp285
g267
g101
ssg268
g96
sbsS'_addressTypes'
p286
(lp287
sg269
Nsg94
I0
sg270
(dp288
sS'_regexes'
p289
(dp290
sg109
g110
sg272
(lp291
sg274
(lp292
sg111
I01
sbag2
(g276
g4
Ntp293
Rp294
(dp295
g16
(dp296
sg113
g114
sg20
g256
sg25
I00
sg259
(dp297
sg261
g2
(g262
g4
Ntp298
Rp299
(dp300
g259
(dp301
g267
g122
ssg268
g117
sbsg286
(lp302
sg269
Nsg115
I0
sg270
(dp303
sg289
(dp304
sg130
g131
sg272
(lp305
sg274
(lp306
sg132
I01
sbag2
(g276
g4
Ntp307
Rp308
(dp309
g16
(dp310
sg134
g135
sg20
g256
sg25
I00
sg259
(dp311
sg261
g2
(g262
g4
Ntp312
Rp313
(dp314
g259
(dp315
g267
g143
ssg268
g138
sbsg286
(lp316
sg269
Nsg136
I0
sg270
(dp317
sg289
(dp318
sg151
g152
sg272
(lp319
sg274
(lp320
sg153
I01
sbag2
(g276
g4
Ntp321
Rp322
(dp323
g16
(dp324
sg155
g156
sg20
g256
sg25
I00
sg259
(dp325
sg261
g2
(g262
g4
Ntp326
Rp327
(dp328
g259
(dp329
g267
g164
ssg268
g159
sbsg286
(lp330
sg269
Nsg157
I0
sg270
(dp331
sg289
(dp332
sg172
g173
sg272
(lp333
sg274
(lp334
sg174
I01
sbag2
(g276
g4
Ntp335
Rp336
(dp337
g16
(dp338
sg176
g177
sg20
g256
sg25
I00
sg259
(dp339
sg261
g2
(g262
g4
Ntp340
Rp341
(dp342
g259
(dp343
g267
g185
ssg268
g180
sbsg286
(lp344
sg269
Nsg178
I0
sg270
(dp345
sg289
(dp346
sg193
g194
sg272
(lp347
sg274
(lp348
sg195
I01
sbag2
(g276
g4
Ntp349
Rp350
(dp351
g16
(dp352
sg197
g198
sg20
g256
sg25
I00
sg259
(dp353
sg261
g2
(g262
g4
Ntp354
Rp355
(dp356
g259
(dp357
g267
g206
ssg268
g201
sbsg286
(lp358
sg269
Nsg199
I0
sg270
(dp359
sg289
(dp360
sg214
g215
sg272
(lp361
sg274
(lp362
sg216
I01
sbag2
(g276
g4
Ntp363
Rp364
(dp365
g16
(dp366
sg218
g219
sg20
g256
sg25
I00
sg259
(dp367
sg261
g2
(g262
g4
Ntp368
Rp369
(dp370
g259
(dp371
g267
g227
ssg268
g222
sbsg286
(lp372
sg269
Nsg220
I0
sg270
(dp373
sg289
(dp374
sg235
g236
sg272
(lp375
sg274
(lp376
sg237
I01
sbasbssS'nodes'
p377
g11
sS'errorMargin'
p378
V50
p379
sS'_title'
p380
g84
sS'categories'
p381
(lp382
VTalmud
p383
aVBavli
p384
aVSeder Kodashim
p385
asS'default_struct'
p386
VChapters
p387
sbsg259
(dp388
sg261
g264
sg286
(lp389
g2
(csefaria.model.schema
AddressTalmud
p390
g4
Ntp391
Rp392
(dp393
S'length'
p394
I66
sg248
I0
sbag2
(csefaria.model.schema
AddressInteger
p395
g4
Ntp396
Rp397
(dp398
g394
Nsg248
I1
sbasg269
Nsg33
g34
sg35
I2
sg270
(dp399
g267
g63
ssS'key'
p400
g15
sS'checkFirst'
p401
g67
sg289
(dp402
sg272
(lp403
sg72
g73
sg274
(lp404
sbsS'_range_index'
p405
NsS'_context'
p406
(dp407
sS'_padded'
p408
Nsg26
g29
sS'sections'
p409
(lp410
I50
aI1
asS'_first_spanned_ref'
p411
NsS'tref'
p412
VTamid 25b:1
p413
sS'_spanned_refs'
p414
(lp415
sS'book'
p416
g63
sS'_range_depth'
p417
NsS'toSections'
p418
(lp419
I50
aI1
asS'_url'
p420
NsS'_normal'
p421
g413
sS'_ranged_refs'
p422
(lp423
sS'type'
p424
g383
sS'_prev'
p425
NsS'_he_normal'
p426
NsS'_next'
p427
Nsbag2
(g3
g4
Ntp428
Rp429
(dp430
g8
g11
sg405
Nsg406
(dp431
sg408
Nsg26
g29
sg409
(lp432
I50
aI2
asg411
Nsg412
VTamid 25b:2
p433
sg414
(lp434
sg416
g63
sg417
Nsg418
(lp435
I50
aI2
asg420
Nsg421
g433
sg422
(lp436
sg424
g383
sg425
Nsg426
Nsg427
Nsbag2
(g3
g4
Ntp437
Rp438
(dp439
g8
g11
sg405
Nsg406
(dp440
sg408
Nsg26
g29
sg409
(lp441
I50
aI3
asg411
Nsg412
VTamid 25b:3
p442
sg414
(lp443
sg416
g63
sg417
Nsg418
(lp444
I50
aI3
asg420
Nsg421
g442
sg422
(lp445
sg424
g383
sg425
Nsg426
Nsg427
Nsbag2
(g3
g4
Ntp446
Rp447
(dp448
g8
g11
sg405
Nsg406
(dp449
sg408
Nsg26
g29
sg409
(lp450
I50
aI4
asg411
Nsg412
VTamid 25b:4
p451
sg414
(lp452
sg416
g63
sg417
Nsg418
(lp453
I50
aI4
asg420
Nsg421
g451
sg422
(lp454
sg424
g383
sg425
Nsg426
Nsg427
Nsbag2
(g3
g4
Ntp455
Rp456
(dp457
g8
g11
sg405
Nsg406
(dp458
sg408
Nsg26
g29
sg409
(lp459
I50
aI5
asg411
Nsg412
VTamid 25b:5
p460
sg414
(lp461
sg416
g63
sg417
Nsg418
(lp462
I50
aI5
asg420
Nsg421
g460
sg422
(lp463
sg424
g383
sg425
Nsg426
Nsg427
Nsbag2
(g3
g4
Ntp464
Rp465
(dp466
g8
g11
sg405
Nsg406
(dp467
sg408
Nsg26
g29
sg409
(lp468
I50
aI6
asg411
Nsg412
VTamid 25b:6
p469
sg414
(lp470
sg416
g63
sg417
Nsg418
(lp471
I50
aI6
asg420
Nsg421
g469
sg422
(lp472
sg424
g383
sg425
Nsg426
Nsg427
Nsbag2
(g3
g4
Ntp473
Rp474
(dp475
g8
g11
sg405
Nsg406
(dp476
sg408
Nsg26
g29
sg409
(lp477
I51
aI1
asg411
Nsg412
VTamid 26a:1
p478
sg414
(lp479
sg416
g63
sg417
Nsg418
(lp480
I51
aI1
asg420
Nsg421
g478
sg422
(lp481
sg424
g383
sg425
Nsg426
Nsg427
Nsbag2
(g3
g4
Ntp482
Rp483
(dp484
g8
g11
sg405
Nsg406
(dp485
sg408
Nsg26
g29
sg409
(lp486
I51
aI2
asg411
Nsg412
VTamid 26a:2
p487
sg414
(lp488
sg416
g63
sg417
Nsg418
(lp489
I51
aI2
asg420
Nsg421
g487
sg422
(lp490
sg424
g383
sg425
Nsg426
Nsg427
Nsbag2
(g3
g4
Ntp491
Rp492
(dp493
g8
g11
sg405
Nsg406
(dp494
sg408
Nsg26
g29
sg409
(lp495
I51
aI3
asg411
Nsg412
VTamid 26a:3
p496
sg414
(lp497
sg416
g63
sg417
Nsg418
(lp498
I51
aI3
asg420
Nsg421
g496
sg422
(lp499
sg424
g383
sg425
Nsg426
Nsg427
Nsbag2
(g3
g4
Ntp500
Rp501
(dp502
g8
g11
sg405
Nsg406
(dp503
sg408
Nsg26
g29
sg409
(lp504
I51
aI4
asg411
Nsg412
VTamid 26a:4
p505
sg414
(lp506
sg416
g63
sg417
Nsg418
(lp507
I51
aI4
asg420
Nsg421
g505
sg422
(lp508
sg424
g383
sg425
Nsg426
Nsg427
Nsbag2
(g3
g4
Ntp509
Rp510
(dp511
g8
g11
sg405
Nsg406
(dp512
sg408
Nsg26
g29
sg409
(lp513
I51
aI5
asg411
Nsg412
VTamid 26a:5
p514
sg414
(lp515
sg416
g63
sg417
Nsg418
(lp516
I51
aI5
asg420
Nsg421
g514
sg422
(lp517
sg424
g383
sg425
Nsg426
Nsg427
Nsbag2
(g3
g4
Ntp518
Rp519
(dp520
g8
g11
sg405
Nsg406
(dp521
sg408
Nsg26
g29
sg409
(lp522
I51
aI6
asg411
Nsg412
VTamid 26a:6
p523
sg414
(lp524
sg416
g63
sg417
Nsg418
(lp525
I51
aI6
asg420
Nsg421
g523
sg422
(lp526
sg424
g383
sg425
Nsg426
Nsg427
Nsbag2
(g3
g4
Ntp527
Rp528
(dp529
g8
g11
sg405
Nsg406
(dp530
sg408
Nsg26
g29
sg409
(lp531
I51
aI7
asg411
Nsg412
VTamid 26a:7
p532
sg414
(lp533
sg416
g63
sg417
Nsg418
(lp534
I51
aI7
asg420
Nsg421
g532
sg422
(lp535
sg424
g383
sg425
Nsg426
Nsg427
Nsbag2
(g3
g4
Ntp536
Rp537
(dp538
g8
g11
sg405
Nsg406
(dp539
sg408
Nsg26
g29
sg409
(lp540
I51
aI8
asg411
Nsg412
VTamid 26a:8
p541
sg414
(lp542
sg416
g63
sg417
Nsg418
(lp543
I51
aI8
asg420
Nsg421
g541
sg422
(lp544
sg424
g383
sg425
Nsg426
Nsg427
Nsbag2
(g3
g4
Ntp545
Rp546
(dp547
g8
g11
sg405
Nsg406
(dp548
sg408
Nsg26
g29
sg409
(lp549
I51
aI9
asg411
Nsg412
VTamid 26a:9
p550
sg414
(lp551
sg416
g63
sg417
Nsg418
(lp552
I51
aI9
asg420
Nsg421
g550
sg422
(lp553
sg424
g383
sg425
Nsg426
Nsg427
Nsbag2
(g3
g4
Ntp554
Rp555
(dp556
g8
g11
sg405
Nsg406
(dp557
sg408
Nsg26
g29
sg409
(lp558
I51
aI10
asg411
Nsg412
VTamid 26a:10
p559
sg414
(lp560
sg416
g63
sg417
Nsg418
(lp561
I51
aI10
asg420
Nsg421
g559
sg422
(lp562
sg424
g383
sg425
Nsg426
Nsg427
Nsbag2
(g3
g4
Ntp563
Rp564
(dp565
g8
g11
sg405
Nsg406
(dp566
sg408
Nsg26
g29
sg409
(lp567
I51
aI11
asg411
Nsg412
VTamid 26a:11
p568
sg414
(lp569
sg416
g63
sg417
Nsg418
(lp570
I51
aI11
asg420
Nsg421
g568
sg422
(lp571
sg424
g383
sg425
Nsg426
Nsg427
Nsbag2
(g3
g4
Ntp572
Rp573
(dp574
g8
g11
sg405
Nsg406
(dp575
sg408
Nsg26
g29
sg409
(lp576
I51
aI12
asg411
Nsg412
VTamid 26a:12
p577
sg414
(lp578
sg416
g63
sg417
Nsg418
(lp579
I51
aI12
asg420
Nsg421
g577
sg422
(lp580
sg424
g383
sg425
Nsg426
Nsg427
Nsbag2
(g3
g4
Ntp581
Rp582
(dp583
g8
g11
sg405
Nsg406
(dp584
sg408
Nsg26
g29
sg409
(lp585
I51
aI13
asg411
Nsg412
VTamid 26a:13
p586
sg414
(lp587
sg416
g63
sg417
Nsg418
(lp588
I51
aI13
asg420
Nsg421
g586
sg422
(lp589
sg424
g383
sg425
Nsg426
Nsg427
Nsbag2
(g3
g4
Ntp590
Rp591
(dp592
g8
g11
sg405
Nsg406
(dp593
sg408
Nsg26
g29
sg409
(lp594
I51
aI14
asg411
Nsg412
VTamid 26a:14
p595
sg414
(lp596
sg416
g63
sg417
Nsg418
(lp597
I51
aI14
asg420
Nsg421
g595
sg422
(lp598
sg424
g383
sg425
Nsg426
Nsg427
Nsbag2
(g3
g4
Ntp599
Rp600
(dp601
g8
g11
sg405
Nsg406
(dp602
sg408
Nsg26
g29
sg409
(lp603
I51
aI15
asg411
Nsg412
VTamid 26a:15
p604
sg414
(lp605
sg416
g63
sg417
Nsg418
(lp606
I51
aI15
asg420
Nsg421
g604
sg422
(lp607
sg424
g383
sg425
Nsg426
Nsg427
Nsbag2
(g3
g4
Ntp608
Rp609
(dp610
g8
g11
sg405
Nsg406
(dp611
sg408
Nsg26
g29
sg409
(lp612
I51
aI16
asg411
Nsg412
VTamid 26a:16
p613
sg414
(lp614
sg416
g63
sg417
Nsg418
(lp615
I51
aI16
asg420
Nsg421
g613
sg422
(lp616
sg424
g383
sg425
Nsg426
Nsg427
Nsbag2
(g3
g4
Ntp617
Rp618
(dp619
g8
g11
sg405
Nsg406
(dp620
sg408
Nsg26
g29
sg409
(lp621
I51
aI17
asg411
Nsg412
VTamid 26a:17
p622
sg414
(lp623
sg416
g63
sg417
Nsg418
(lp624
I51
aI17
asg420
Nsg421
g622
sg422
(lp625
sg424
g383
sg425
Nsg426
Nsg427
Nsbag2
(g3
g4
Ntp626
Rp627
(dp628
g8
g11
sg405
Nsg406
(dp629
sg408
Nsg26
g29
sg409
(lp630
I51
aI18
asg411
Nsg412
VTamid 26a:18
p631
sg414
(lp632
sg416
g63
sg417
Nsg418
(lp633
I51
aI18
asg420
Nsg421
g631
sg422
(lp634
sg424
g383
sg425
Nsg426
Nsg427
Nsbag2
(g3
g4
Ntp635
Rp636
(dp637
g8
g11
sg405
Nsg406
(dp638
sg408
Nsg26
g29
sg409
(lp639
I51
aI19
asg411
Nsg412
VTamid 26a:19
p640
sg414
(lp641
sg416
g63
sg417
Nsg418
(lp642
I51
aI19
asg420
Nsg421
g640
sg422
(lp643
sg424
g383
sg425
Nsg426
Nsg427
Nsbag2
(g3
g4
Ntp644
Rp645
(dp646
g8
g11
sg405
Nsg406
(dp647
sg408
Nsg26
g29
sg409
(lp648
I51
aI20
asg411
Nsg412
VTamid 26a:20
p649
sg414
(lp650
sg416
g63
sg417
Nsg418
(lp651
I51
aI20
asg420
Nsg421
g649
sg422
(lp652
sg424
g383
sg425
Nsg426
Nsg427
Nsbag2
(g3
g4
Ntp653
Rp654
(dp655
g8
g11
sg405
Nsg406
(dp656
sg408
Nsg26
g29
sg409
(lp657
I51
aI21
asg411
Nsg412
VTamid 26a:21
p658
sg414
(lp659
sg416
g63
sg417
Nsg418
(lp660
I51
aI21
asg420
Nsg421
g658
sg422
(lp661
sg424
g383
sg425
Nsg426
Nsg427
Nsbag2
(g3
g4
Ntp662
Rp663
(dp664
g8
g11
sg405
Nsg406
(dp665
sg408
Nsg26
g29
sg409
(lp666
I51
aI22
asg411
Nsg412
VTamid 26a:22
p667
sg414
(lp668
sg416
g63
sg417
Nsg418
(lp669
I51
aI22
asg420
Nsg421
g667
sg422
(lp670
sg424
g383
sg425
Nsg426
Nsg427
Nsbag2
(g3
g4
Ntp671
Rp672
(dp673
g8
g11
sg405
Nsg406
(dp674
sg408
Nsg26
g29
sg409
(lp675
I51
aI23
asg411
Nsg412
VTamid 26a:23
p676
sg414
(lp677
sg416
g63
sg417
Nsg418
(lp678
I51
aI23
asg420
Nsg421
g676
sg422
(lp679
sg424
g383
sg425
Nsg426
Nsg427
Nsbag2
(g3
g4
Ntp680
Rp681
(dp682
g8
g11
sg405
Nsg406
(dp683
sg408
Nsg26
g29
sg409
(lp684
I51
aI24
asg411
Nsg412
VTamid 26a:24
p685
sg414
(lp686
sg416
g63
sg417
Nsg418
(lp687
I51
aI24
asg420
Nsg421
g685
sg422
(lp688
sg424
g383
sg425
Nsg426
Nsg427
Nsbag2
(g3
g4
Ntp689
Rp690
(dp691
g8
g11
sg405
Nsg406
(dp692
sg408
Nsg26
g29
sg409
(lp693
I51
aI25
asg411
Nsg412
VTamid 26a:25
p694
sg414
(lp695
sg416
g63
sg417
Nsg418
(lp696
I51
aI25
asg420
Nsg421
g694
sg422
(lp697
sg424
g383
sg425
Nsg426
Nsg427
Nsbag2
(g3
g4
Ntp698
Rp699
(dp700
g8
g11
sg405
Nsg406
(dp701
sg408
Nsg26
g29
sg409
(lp702
I52
aI1
asg411
Nsg412
VTamid 26b:1
p703
sg414
(lp704
sg416
g63
sg417
Nsg418
(lp705
I52
aI1
asg420
Nsg421
g703
sg422
(lp706
sg424
g383
sg425
Nsg426
Nsg427
Nsbag2
(g3
g4
Ntp707
Rp708
(dp709
g8
g11
sg405
Nsg406
(dp710
sg408
Nsg26
g29
sg409
(lp711
I52
aI2
asg411
Nsg412
VTamid 26b:2
p712
sg414
(lp713
sg416
g63
sg417
Nsg418
(lp714
I52
aI2
asg420
Nsg421
g712
sg422
(lp715
sg424
g383
sg425
Nsg426
Nsg427
Nsbag2
(g3
g4
Ntp716
Rp717
(dp718
g8
g11
sg405
Nsg406
(dp719
sg408
Nsg26
g29
sg409
(lp720
I52
aI3
asg411
Nsg412
VTamid 26b:3
p721
sg414
(lp722
sg416
g63
sg417
Nsg418
(lp723
I52
aI3
asg420
Nsg421
g721
sg422
(lp724
sg424
g383
sg425
Nsg426
Nsg427
Nsbag2
(g3
g4
Ntp725
Rp726
(dp727
g8
g11
sg405
Nsg406
(dp728
sg408
Nsg26
g29
sg409
(lp729
I52
aI4
asg411
Nsg412
VTamid 26b:4
p730
sg414
(lp731
sg416
g63
sg417
Nsg418
(lp732
I52
aI4
asg420
Nsg421
g730
sg422
(lp733
sg424
g383
sg425
Nsg426
Nsg427
Nsbag2
(g3
g4
Ntp734
Rp735
(dp736
g8
g11
sg405
Nsg406
(dp737
sg408
Nsg26
g29
sg409
(lp738
I52
aI5
asg411
Nsg412
VTamid 26b:5
p739
sg414
(lp740
sg416
g63
sg417
Nsg418
(lp741
I52
aI5
asg420
Nsg421
g739
sg422
(lp742
sg424
g383
sg425
Nsg426
Nsg427
Nsbag2
(g3
g4
Ntp743
Rp744
(dp745
g8
g11
sg405
Nsg406
(dp746
sg408
Nsg26
g29
sg409
(lp747
I52
aI6
asg411
Nsg412
VTamid 26b:6
p748
sg414
(lp749
sg416
g63
sg417
Nsg418
(lp750
I52
aI6
asg420
Nsg421
g748
sg422
(lp751
sg424
g383
sg425
Nsg426
Nsg427
Nsbag2
(g3
g4
Ntp752
Rp753
(dp754
g8
g11
sg405
Nsg406
(dp755
sg408
Nsg26
g29
sg409
(lp756
I52
aI7
asg411
Nsg412
VTamid 26b:7
p757
sg414
(lp758
sg416
g63
sg417
Nsg418
(lp759
I52
aI7
asg420
Nsg421
g757
sg422
(lp760
sg424
g383
sg425
Nsg426
Nsg427
Nsbag2
(g3
g4
Ntp761
Rp762
(dp763
g8
g11
sg405
Nsg406
(dp764
sg408
Nsg26
g29
sg409
(lp765
I52
aI8
asg411
Nsg412
VTamid 26b:8
p766
sg414
(lp767
sg416
g63
sg417
Nsg418
(lp768
I52
aI8
asg420
Nsg421
g766
sg422
(lp769
sg424
g383
sg425
Nsg426
Nsg427
Nsbag2
(g3
g4
Ntp770
Rp771
(dp772
g8
g11
sg405
Nsg406
(dp773
sg408
Nsg26
g29
sg409
(lp774
I52
aI9
asg411
Nsg412
VTamid 26b:9
p775
sg414
(lp776
sg416
g63
sg417
Nsg418
(lp777
I52
aI9
asg420
Nsg421
g775
sg422
(lp778
sg424
g383
sg425
Nsg426
Nsg427
Nsbag2
(g3
g4
Ntp779
Rp780
(dp781
g8
g11
sg405
Nsg406
(dp782
sg408
Nsg26
g29
sg409
(lp783
I52
aI10
asg411
Nsg412
VTamid 26b:10
p784
sg414
(lp785
sg416
g63
sg417
Nsg418
(lp786
I52
aI10
asg420
Nsg421
g784
sg422
(lp787
sg424
g383
sg425
Nsg426
Nsg427
Nsbag2
(g3
g4
Ntp788
Rp789
(dp790
g8
g11
sg405
Nsg406
(dp791
sg408
Nsg26
g29
sg409
(lp792
I52
aI11
asg411
Nsg412
VTamid 26b:11
p793
sg414
(lp794
sg416
g63
sg417
Nsg418
(lp795
I52
aI11
asg420
Nsg421
g793
sg422
(lp796
sg424
g383
sg425
Nsg426
Nsg427
Nsbag2
(g3
g4
Ntp797
Rp798
(dp799
g8
g11
sg405
Nsg406
(dp800
sg408
Nsg26
g29
sg409
(lp801
I52
aI12
asg411
Nsg412
VTamid 26b:12
p802
sg414
(lp803
sg416
g63
sg417
Nsg418
(lp804
I52
aI12
asg420
Nsg421
g802
sg422
(lp805
sg424
g383
sg425
Nsg426
Nsg427
Nsbag2
(g3
g4
Ntp806
Rp807
(dp808
g8
g11
sg405
Nsg406
(dp809
sg408
Nsg26
g29
sg409
(lp810
I52
aI13
asg411
Nsg412
VTamid 26b:13
p811
sg414
(lp812
sg416
g63
sg417
Nsg418
(lp813
I52
aI13
asg420
Nsg421
g811
sg422
(lp814
sg424
g383
sg425
Nsg426
Nsg427
Nsbag2
(g3
g4
Ntp815
Rp816
(dp817
g8
g11
sg405
Nsg406
(dp818
sg408
Nsg26
g29
sg409
(lp819
I52
aI14
asg411
Nsg412
VTamid 26b:14
p820
sg414
(lp821
sg416
g63
sg417
Nsg418
(lp822
I52
aI14
asg420
Nsg421
g820
sg422
(lp823
sg424
g383
sg425
Nsg426
Nsg427
Nsbag2
(g3
g4
Ntp824
Rp825
(dp826
g8
g11
sg405
Nsg406
(dp827
sg408
Nsg26
g29
sg409
(lp828
I52
aI15
asg411
Nsg412
VTamid 26b:15
p829
sg414
(lp830
sg416
g63
sg417
Nsg418
(lp831
I52
aI15
asg420
Nsg421
g829
sg422
(lp832
sg424
g383
sg425
Nsg426
Nsg427
Nsbag2
(g3
g4
Ntp833
Rp834
(dp835
g8
g11
sg405
Nsg406
(dp836
sg408
Nsg26
g29
sg409
(lp837
I52
aI16
asg411
Nsg412
VTamid 26b:16
p838
sg414
(lp839
sg416
g63
sg417
Nsg418
(lp840
I52
aI16
asg420
Nsg421
g838
sg422
(lp841
sg424
g383
sg425
Nsg426
Nsg427
Nsbag2
(g3
g4
Ntp842
Rp843
(dp844
g8
g11
sg405
Nsg406
(dp845
sg408
Nsg26
g29
sg409
(lp846
I52
aI17
asg411
Nsg412
VTamid 26b:17
p847
sg414
(lp848
sg416
g63
sg417
Nsg418
(lp849
I52
aI17
asg420
Nsg421
g847
sg422
(lp850
sg424
g383
sg425
Nsg426
Nsg427
Nsbag2
(g3
g4
Ntp851
Rp852
(dp853
g8
g11
sg405
Nsg406
(dp854
sg408
Nsg26
g29
sg409
(lp855
I52
aI18
asg411
Nsg412
VTamid 26b:18
p856
sg414
(lp857
sg416
g63
sg417
Nsg418
(lp858
I52
aI18
asg420
Nsg421
g856
sg422
(lp859
sg424
g383
sg425
Nsg426
Nsg427
Nsbag2
(g3
g4
Ntp860
Rp861
(dp862
g8
g11
sg405
Nsg406
(dp863
sg408
Nsg26
g29
sg409
(lp864
I52
aI19
asg411
Nsg412
VTamid 26b:19
p865
sg414
(lp866
sg416
g63
sg417
Nsg418
(lp867
I52
aI19
asg420
Nsg421
g865
sg422
(lp868
sg424
g383
sg425
Nsg426
Nsg427
Nsbag2
(g3
g4
Ntp869
Rp870
(dp871
g8
g11
sg405
Nsg406
(dp872
sg408
Nsg26
g29
sg409
(lp873
I52
aI20
asg411
Nsg412
VTamid 26b:20
p874
sg414
(lp875
sg416
g63
sg417
Nsg418
(lp876
I52
aI20
asg420
Nsg421
g874
sg422
(lp877
sg424
g383
sg425
Nsg426
Nsg427
Nsbag2
(g3
g4
Ntp878
Rp879
(dp880
g8
g11
sg405
Nsg406
(dp881
sg408
Nsg26
g29
sg409
(lp882
I52
aI21
asg411
Nsg412
VTamid 26b:21
p883
sg414
(lp884
sg416
g63
sg417
Nsg418
(lp885
I52
aI21
asg420
Nsg421
g883
sg422
(lp886
sg424
g383
sg425
Nsg426
Nsg427
Nsbag2
(g3
g4
Ntp887
Rp888
(dp889
g8
g11
sg405
Nsg406
(dp890
sg408
Nsg26
g29
sg409
(lp891
I52
aI22
asg411
Nsg412
VTamid 26b:22
p892
sg414
(lp893
sg416
g63
sg417
Nsg418
(lp894
I52
aI22
asg420
Nsg421
g892
sg422
(lp895
sg424
g383
sg425
Nsg426
Nsg427
Nsbag2
(g3
g4
Ntp896
Rp897
(dp898
g8
g11
sg405
Nsg406
(dp899
sg408
Nsg26
g29
sg409
(lp900
I52
aI23
asg411
Nsg412
VTamid 26b:23
p901
sg414
(lp902
sg416
g63
sg417
Nsg418
(lp903
I52
aI23
asg420
Nsg421
g901
sg422
(lp904
sg424
g383
sg425
Nsg426
Nsg427
Nsbag2
(g3
g4
Ntp905
Rp906
(dp907
g8
g11
sg405
Nsg406
(dp908
sg408
Nsg26
g29
sg409
(lp909
I52
aI24
asg411
Nsg412
VTamid 26b:24
p910
sg414
(lp911
sg416
g63
sg417
Nsg418
(lp912
I52
aI24
asg420
Nsg421
g910
sg422
(lp913
sg424
g383
sg425
Nsg426
Nsg427
Nsbag2
(g3
g4
Ntp914
Rp915
(dp916
g8
g11
sg405
Nsg406
(dp917
sg408
Nsg26
g29
sg409
(lp918
I52
aI25
asg411
Nsg412
VTamid 26b:25
p919
sg414
(lp920
sg416
g63
sg417
Nsg418
(lp921
I52
aI25
asg420
Nsg421
g919
sg422
(lp922
sg424
g383
sg425
Nsg426
Nsg427
Nsbag2
(g3
g4
Ntp923
Rp924
(dp925
g8
g11
sg405
Nsg406
(dp926
sg408
Nsg26
g29
sg409
(lp927
I52
aI26
asg411
Nsg412
VTamid 26b:26
p928
sg414
(lp929
sg416
g63
sg417
Nsg418
(lp930
I52
aI26
asg420
Nsg421
g928
sg422
(lp931
sg424
g383
sg425
Nsg426
Nsg427
Nsbag2
(g3
g4
Ntp932
Rp933
(dp934
g8
g11
sg405
Nsg406
(dp935
sg408
Nsg26
g29
sg409
(lp936
I52
aI27
asg411
Nsg412
VTamid 26b:27
p937
sg414
(lp938
sg416
g63
sg417
Nsg418
(lp939
I52
aI27
asg420
Nsg421
g937
sg422
(lp940
sg424
g383
sg425
Nsg426
Nsg427
Nsbag2
(g3
g4
Ntp941
Rp942
(dp943
g8
g11
sg405
Nsg406
(dp944
sg408
Nsg26
g29
sg409
(lp945
I52
aI28
asg411
Nsg412
VTamid 26b:28
p946
sg414
(lp947
sg416
g63
sg417
Nsg418
(lp948
I52
aI28
asg420
Nsg421
g946
sg422
(lp949
sg424
g383
sg425
Nsg426
Nsg427
Nsbag2
(g3
g4
Ntp950
Rp951
(dp952
g8
g11
sg405
Nsg406
(dp953
sg408
Nsg26
g29
sg409
(lp954
I52
aI29
asg411
Nsg412
VTamid 26b:29
p955
sg414
(lp956
sg416
g63
sg417
Nsg418
(lp957
I52
aI29
asg420
Nsg421
g955
sg422
(lp958
sg424
g383
sg425
Nsg426
Nsg427
Nsbag2
(g3
g4
Ntp959
Rp960
(dp961
g8
g11
sg405
Nsg406
(dp962
sg408
Nsg26
g29
sg409
(lp963
I52
aI30
asg411
Nsg412
VTamid 26b:30
p964
sg414
(lp965
sg416
g63
sg417
Nsg418
(lp966
I52
aI30
asg420
Nsg421
g964
sg422
(lp967
sg424
g383
sg425
Nsg426
Nsg427
Nsbag2
(g3
g4
Ntp968
Rp969
(dp970
g8
g11
sg405
Nsg406
(dp971
sg408
Nsg26
g29
sg409
(lp972
I52
aI31
asg411
Nsg412
VTamid 26b:31
p973
sg414
(lp974
sg416
g63
sg417
Nsg418
(lp975
I52
aI31
asg420
Nsg421
g973
sg422
(lp976
sg424
g383
sg425
Nsg426
Nsg427
Nsbag2
(g3
g4
Ntp977
Rp978
(dp979
g8
g11
sg405
Nsg406
(dp980
sg408
Nsg26
g29
sg409
(lp981
I52
aI32
asg411
Nsg412
VTamid 26b:32
p982
sg414
(lp983
sg416
g63
sg417
Nsg418
(lp984
I52
aI32
asg420
Nsg421
g982
sg422
(lp985
sg424
g383
sg425
Nsg426
Nsg427
Nsbag2
(g3
g4
Ntp986
Rp987
(dp988
g8
g11
sg405
Nsg406
(dp989
sg408
Nsg26
g29
sg409
(lp990
I52
aI33
asg411
Nsg412
VTamid 26b:33
p991
sg414
(lp992
sg416
g63
sg417
Nsg418
(lp993
I52
aI33
asg420
Nsg421
g991
sg422
(lp994
sg424
g383
sg425
Nsg426
Nsg427
Nsbag2
(g3
g4
Ntp995
Rp996
(dp997
g8
g11
sg405
Nsg406
(dp998
sg408
Nsg26
g29
sg409
(lp999
I52
aI34
asg411
Nsg412
VTamid 26b:34
p1000
sg414
(lp1001
sg416
g63
sg417
Nsg418
(lp1002
I52
aI34
asg420
Nsg421
g1000
sg422
(lp1003
sg424
g383
sg425
Nsg426
Nsg427
Nsbag2
(g3
g4
Ntp1004
Rp1005
(dp1006
g8
g11
sg405
Nsg406
(dp1007
sg408
Nsg26
g29
sg409
(lp1008
I52
aI35
asg411
Nsg412
VTamid 26b:35
p1009
sg414
(lp1010
sg416
g63
sg417
Nsg418
(lp1011
I52
aI35
asg420
Nsg421
g1009
sg422
(lp1012
sg424
g383
sg425
Nsg426
Nsg427
Nsbag2
(g3
g4
Ntp1013
Rp1014
(dp1015
g8
g11
sg405
Nsg406
(dp1016
sg408
Nsg26
g29
sg409
(lp1017
I52
aI36
asg411
Nsg412
VTamid 26b:36
p1018
sg414
(lp1019
sg416
g63
sg417
Nsg418
(lp1020
I52
aI36
asg420
Nsg421
g1018
sg422
(lp1021
sg424
g383
sg425
Nsg426
Nsg427
Nsbag2
(g3
g4
Ntp1022
Rp1023
(dp1024
g8
g11
sg405
Nsg406
(dp1025
sg408
Nsg26
g29
sg409
(lp1026
I52
aI37
asg411
Nsg412
VTamid 26b:37
p1027
sg414
(lp1028
sg416
g63
sg417
Nsg418
(lp1029
I52
aI37
asg420
Nsg421
g1027
sg422
(lp1030
sg424
g383
sg425
Nsg426
Nsg427
Nsbag2
(g3
g4
Ntp1031
Rp1032
(dp1033
g8
g11
sg405
Nsg406
(dp1034
sg408
Nsg26
g29
sg409
(lp1035
I52
aI38
asg411
Nsg412
VTamid 26b:38
p1036
sg414
(lp1037
sg416
g63
sg417
Nsg418
(lp1038
I52
aI38
asg420
Nsg421
g1036
sg422
(lp1039
sg424
g383
sg425
Nsg426
Nsg427
Nsbag2
(g3
g4
Ntp1040
Rp1041
(dp1042
g8
g11
sg405
Nsg406
(dp1043
sg408
Nsg26
g29
sg409
(lp1044
I53
aI1
asg411
Nsg412
VTamid 27a:1
p1045
sg414
(lp1046
sg416
g63
sg417
Nsg418
(lp1047
I53
aI1
asg420
Nsg421
g1045
sg422
(lp1048
sg424
g383
sg425
Nsg426
Nsg427
Nsbag2
(g3
g4
Ntp1049
Rp1050
(dp1051
g8
g11
sg405
Nsg406
(dp1052
sg408
Nsg26
g29
sg409
(lp1053
I53
aI2
asg411
Nsg412
VTamid 27a:2
p1054
sg414
(lp1055
sg416
g63
sg417
Nsg418
(lp1056
I53
aI2
asg420
Nsg421
g1054
sg422
(lp1057
sg424
g383
sg425
Nsg426
Nsg427
Nsbag2
(g3
g4
Ntp1058
Rp1059
(dp1060
g8
g11
sg405
Nsg406
(dp1061
sg408
Nsg26
g29
sg409
(lp1062
I53
aI3
asg411
Nsg412
VTamid 27a:3
p1063
sg414
(lp1064
sg416
g63
sg417
Nsg418
(lp1065
I53
aI3
asg420
Nsg421
g1063
sg422
(lp1066
sg424
g383
sg425
Nsg426
Nsg427
Nsbag2
(g3
g4
Ntp1067
Rp1068
(dp1069
g8
g11
sg405
Nsg406
(dp1070
sg408
Nsg26
g29
sg409
(lp1071
I53
aI4
asg411
Nsg412
VTamid 27a:4
p1072
sg414
(lp1073
sg416
g63
sg417
Nsg418
(lp1074
I53
aI4
asg420
Nsg421
g1072
sg422
(lp1075
sg424
g383
sg425
Nsg426
Nsg427
Nsbag2
(g3
g4
Ntp1076
Rp1077
(dp1078
g8
g11
sg405
Nsg406
(dp1079
sg408
Nsg26
g29
sg409
(lp1080
I53
aI5
asg411
Nsg412
VTamid 27a:5
p1081
sg414
(lp1082
sg416
g63
sg417
Nsg418
(lp1083
I53
aI5
asg420
Nsg421
g1081
sg422
(lp1084
sg424
g383
sg425
Nsg426
Nsg427
Nsbag2
(g3
g4
Ntp1085
Rp1086
(dp1087
g8
g11
sg405
Nsg406
(dp1088
sg408
Nsg26
g29
sg409
(lp1089
I53
aI6
asg411
Nsg412
VTamid 27a:6
p1090
sg414
(lp1091
sg416
g63
sg417
Nsg418
(lp1092
I53
aI6
asg420
Nsg421
g1090
sg422
(lp1093
sg424
g383
sg425
Nsg426
Nsg427
Nsbag2
(g3
g4
Ntp1094
Rp1095
(dp1096
g8
g11
sg405
Nsg406
(dp1097
sg408
Nsg26
g29
sg409
(lp1098
I53
aI7
asg411
Nsg412
VTamid 27a:7
p1099
sg414
(lp1100
sg416
g63
sg417
Nsg418
(lp1101
I53
aI7
asg420
Nsg421
g1099
sg422
(lp1102
sg424
g383
sg425
Nsg426
Nsg427
Nsbag2
(g3
g4
Ntp1103
Rp1104
(dp1105
g8
g11
sg405
Nsg406
(dp1106
sg408
Nsg26
g29
sg409
(lp1107
I53
aI8
asg411
Nsg412
VTamid 27a:8
p1108
sg414
(lp1109
sg416
g63
sg417
Nsg418
(lp1110
I53
aI8
asg420
Nsg421
g1108
sg422
(lp1111
sg424
g383
sg425
Nsg426
Nsg427
Nsbag2
(g3
g4
Ntp1112
Rp1113
(dp1114
g8
g11
sg405
Nsg406
(dp1115
sg408
Nsg26
g29
sg409
(lp1116
I53
aI9
asg411
Nsg412
VTamid 27a:9
p1117
sg414
(lp1118
sg416
g63
sg417
Nsg418
(lp1119
I53
aI9
asg420
Nsg421
g1117
sg422
(lp1120
sg424
g383
sg425
Nsg426
Nsg427
Nsbag2
(g3
g4
Ntp1121
Rp1122
(dp1123
g8
g11
sg405
Nsg406
(dp1124
sg408
Nsg26
g29
sg409
(lp1125
I53
aI10
asg411
Nsg412
VTamid 27a:10
p1126
sg414
(lp1127
sg416
g63
sg417
Nsg418
(lp1128
I53
aI10
asg420
Nsg421
g1126
sg422
(lp1129
sg424
g383
sg425
Nsg426
Nsg427
Nsbag2
(g3
g4
Ntp1130
Rp1131
(dp1132
g8
g11
sg405
Nsg406
(dp1133
sg408
Nsg26
g29
sg409
(lp1134
I53
aI11
asg411
Nsg412
VTamid 27a:11
p1135
sg414
(lp1136
sg416
g63
sg417
Nsg418
(lp1137
I53
aI11
asg420
Nsg421
g1135
sg422
(lp1138
sg424
g383
sg425
Nsg426
Nsg427
Nsbag2
(g3
g4
Ntp1139
Rp1140
(dp1141
g8
g11
sg405
Nsg406
(dp1142
sg408
Nsg26
g29
sg409
(lp1143
I53
aI12
asg411
Nsg412
VTamid 27a:12
p1144
sg414
(lp1145
sg416
g63
sg417
Nsg418
(lp1146
I53
aI12
asg420
Nsg421
g1144
sg422
(lp1147
sg424
g383
sg425
Nsg426
Nsg427
Nsbag2
(g3
g4
Ntp1148
Rp1149
(dp1150
g8
g11
sg405
Nsg406
(dp1151
sg408
Nsg26
g29
sg409
(lp1152
I53
aI13
asg411
Nsg412
VTamid 27a:13
p1153
sg414
(lp1154
sg416
g63
sg417
Nsg418
(lp1155
I53
aI13
asg420
Nsg421
g1153
sg422
(lp1156
sg424
g383
sg425
Nsg426
Nsg427
Nsbag2
(g3
g4
Ntp1157
Rp1158
(dp1159
g8
g11
sg405
Nsg406
(dp1160
sg408
Nsg26
g29
sg409
(lp1161
I53
aI14
asg411
Nsg412
VTamid 27a:14
p1162
sg414
(lp1163
sg416
g63
sg417
Nsg418
(lp1164
I53
aI14
asg420
Nsg421
g1162
sg422
(lp1165
sg424
g383
sg425
Nsg426
Nsg427
Nsbag2
(g3
g4
Ntp1166
Rp1167
(dp1168
g8
g11
sg405
Nsg406
(dp1169
sg408
Nsg26
g29
sg409
(lp1170
I53
aI15
asg411
Nsg412
VTamid 27a:15
p1171
sg414
(lp1172
sg416
g63
sg417
Nsg418
(lp1173
I53
aI15
asg420
Nsg421
g1171
sg422
(lp1174
sg424
g383
sg425
Nsg426
Nsg427
Nsbag2
(g3
g4
Ntp1175
Rp1176
(dp1177
g8
g11
sg405
Nsg406
(dp1178
sg408
Nsg26
g29
sg409
(lp1179
I53
aI16
asg411
Nsg412
VTamid 27a:16
p1180
sg414
(lp1181
sg416
g63
sg417
Nsg418
(lp1182
I53
aI16
asg420
Nsg421
g1180
sg422
(lp1183
sg424
g383
sg425
Nsg426
Nsg427
Nsbag2
(g3
g4
Ntp1184
Rp1185
(dp1186
g8
g11
sg405
Nsg406
(dp1187
sg408
Nsg26
g29
sg409
(lp1188
I53
aI17
asg411
Nsg412
VTamid 27a:17
p1189
sg414
(lp1190
sg416
g63
sg417
Nsg418
(lp1191
I53
aI17
asg420
Nsg421
g1189
sg422
(lp1192
sg424
g383
sg425
Nsg426
Nsg427
Nsbag2
(g3
g4
Ntp1193
Rp1194
(dp1195
g8
g11
sg405
Nsg406
(dp1196
sg408
Nsg26
g29
sg409
(lp1197
I53
aI18
asg411
Nsg412
VTamid 27a:18
p1198
sg414
(lp1199
sg416
g63
sg417
Nsg418
(lp1200
I53
aI18
asg420
Nsg421
g1198
sg422
(lp1201
sg424
g383
sg425
Nsg426
Nsg427
Nsbag2
(g3
g4
Ntp1202
Rp1203
(dp1204
g8
g11
sg405
Nsg406
(dp1205
sg408
Nsg26
g29
sg409
(lp1206
I53
aI19
asg411
Nsg412
VTamid 27a:19
p1207
sg414
(lp1208
sg416
g63
sg417
Nsg418
(lp1209
I53
aI19
asg420
Nsg421
g1207
sg422
(lp1210
sg424
g383
sg425
Nsg426
Nsg427
Nsbag2
(g3
g4
Ntp1211
Rp1212
(dp1213
g8
g11
sg405
Nsg406
(dp1214
sg408
Nsg26
g29
sg409
(lp1215
I53
aI20
asg411
Nsg412
VTamid 27a:20
p1216
sg414
(lp1217
sg416
g63
sg417
Nsg418
(lp1218
I53
aI20
asg420
Nsg421
g1216
sg422
(lp1219
sg424
g383
sg425
Nsg426
Nsg427
Nsbag2
(g3
g4
Ntp1220
Rp1221
(dp1222
g8
g11
sg405
Nsg406
(dp1223
sg408
Nsg26
g29
sg409
(lp1224
I53
aI21
asg411
Nsg412
VTamid 27a:21
p1225
sg414
(lp1226
sg416
g63
sg417
Nsg418
(lp1227
I53
aI21
asg420
Nsg421
g1225
sg422
(lp1228
sg424
g383
sg425
Nsg426
Nsg427
Nsbag2
(g3
g4
Ntp1229
Rp1230
(dp1231
g8
g11
sg405
Nsg406
(dp1232
sg408
Nsg26
g29
sg409
(lp1233
I53
aI22
asg411
Nsg412
VTamid 27a:22
p1234
sg414
(lp1235
sg416
g63
sg417
Nsg418
(lp1236
I53
aI22
asg420
Nsg421
g1234
sg422
(lp1237
sg424
g383
sg425
Nsg426
Nsg427
Nsbag2
(g3
g4
Ntp1238
Rp1239
(dp1240
g8
g11
sg405
Nsg406
(dp1241
sg408
Nsg26
g29
sg409
(lp1242
I53
aI23
asg411
Nsg412
VTamid 27a:23
p1243
sg414
(lp1244
sg416
g63
sg417
Nsg418
(lp1245
I53
aI23
asg420
Nsg421
g1243
sg422
(lp1246
sg424
g383
sg425
Nsg426
Nsg427
Nsbag2
(g3
g4
Ntp1247
Rp1248
(dp1249
g8
g11
sg405
Nsg406
(dp1250
sg408
Nsg26
g29
sg409
(lp1251
I53
aI24
asg411
Nsg412
VTamid 27a:24
p1252
sg414
(lp1253
sg416
g63
sg417
Nsg418
(lp1254
I53
aI24
asg420
Nsg421
g1252
sg422
(lp1255
sg424
g383
sg425
Nsg426
Nsg427
Nsbag2
(g3
g4
Ntp1256
Rp1257
(dp1258
g8
g11
sg405
Nsg406
(dp1259
sg408
Nsg26
g29
sg409
(lp1260
I53
aI25
asg411
Nsg412
VTamid 27a:25
p1261
sg414
(lp1262
sg416
g63
sg417
Nsg418
(lp1263
I53
aI25
asg420
Nsg421
g1261
sg422
(lp1264
sg424
g383
sg425
Nsg426
Nsg427
Nsbag2
(g3
g4
Ntp1265
Rp1266
(dp1267
g8
g11
sg405
Nsg406
(dp1268
sg408
Nsg26
g29
sg409
(lp1269
I53
aI26
asg411
Nsg412
VTamid 27a:26
p1270
sg414
(lp1271
sg416
g63
sg417
Nsg418
(lp1272
I53
aI26
asg420
Nsg421
g1270
sg422
(lp1273
sg424
g383
sg425
Nsg426
Nsg427
Nsbag2
(g3
g4
Ntp1274
Rp1275
(dp1276
g8
g11
sg405
Nsg406
(dp1277
sg408
Nsg26
g29
sg409
(lp1278
I53
aI27
asg411
Nsg412
VTamid 27a:27
p1279
sg414
(lp1280
sg416
g63
sg417
Nsg418
(lp1281
I53
aI27
asg420
Nsg421
g1279
sg422
(lp1282
sg424
g383
sg425
Nsg426
Nsg427
Nsbag2
(g3
g4
Ntp1283
Rp1284
(dp1285
g8
g11
sg405
Nsg406
(dp1286
sg408
Nsg26
g29
sg409
(lp1287
I53
aI28
asg411
Nsg412
VTamid 27a:28
p1288
sg414
(lp1289
sg416
g63
sg417
Nsg418
(lp1290
I53
aI28
asg420
Nsg421
g1288
sg422
(lp1291
sg424
g383
sg425
Nsg426
Nsg427
Nsbag2
(g3
g4
Ntp1292
Rp1293
(dp1294
g8
g11
sg405
Nsg406
(dp1295
sg408
Nsg26
g29
sg409
(lp1296
I53
aI29
asg411
Nsg412
VTamid 27a:29
p1297
sg414
(lp1298
sg416
g63
sg417
Nsg418
(lp1299
I53
aI29
asg420
Nsg421
g1297
sg422
(lp1300
sg424
g383
sg425
Nsg426
Nsg427
Nsbag2
(g3
g4
Ntp1301
Rp1302
(dp1303
g8
g11
sg405
Nsg406
(dp1304
sg408
Nsg26
g29
sg409
(lp1305
I53
aI30
asg411
Nsg412
VTamid 27a:30
p1306
sg414
(lp1307
sg416
g63
sg417
Nsg418
(lp1308
I53
aI30
asg420
Nsg421
g1306
sg422
(lp1309
sg424
g383
sg425
Nsg426
Nsg427
Nsbag2
(g3
g4
Ntp1310
Rp1311
(dp1312
g8
g11
sg405
Nsg406
(dp1313
sg408
Nsg26
g29
sg409
(lp1314
I53
aI31
asg411
Nsg412
VTamid 27a:31
p1315
sg414
(lp1316
sg416
g63
sg417
Nsg418
(lp1317
I53
aI31
asg420
Nsg421
g1315
sg422
(lp1318
sg424
g383
sg425
Nsg426
Nsg427
Nsbag2
(g3
g4
Ntp1319
Rp1320
(dp1321
g8
g11
sg405
Nsg406
(dp1322
sg408
Nsg26
g29
sg409
(lp1323
I53
aI32
asg411
Nsg412
VTamid 27a:32
p1324
sg414
(lp1325
sg416
g63
sg417
Nsg418
(lp1326
I53
aI32
asg420
Nsg421
g1324
sg422
(lp1327
sg424
g383
sg425
Nsg426
Nsg427
Nsbag2
(g3
g4
Ntp1328
Rp1329
(dp1330
g8
g11
sg405
Nsg406
(dp1331
sg408
Nsg26
g29
sg409
(lp1332
I53
aI33
asg411
Nsg412
VTamid 27a:33
p1333
sg414
(lp1334
sg416
g63
sg417
Nsg418
(lp1335
I53
aI33
asg420
Nsg421
g1333
sg422
(lp1336
sg424
g383
sg425
Nsg426
Nsg427
Nsbag2
(g3
g4
Ntp1337
Rp1338
(dp1339
g8
g11
sg405
Nsg406
(dp1340
sg408
Nsg26
g29
sg409
(lp1341
I53
aI34
asg411
Nsg412
VTamid 27a:34
p1342
sg414
(lp1343
sg416
g63
sg417
Nsg418
(lp1344
I53
aI34
asg420
Nsg421
g1342
sg422
(lp1345
sg424
g383
sg425
Nsg426
Nsg427
Nsbag2
(g3
g4
Ntp1346
Rp1347
(dp1348
g8
g11
sg405
Nsg406
(dp1349
sg408
Nsg26
g29
sg409
(lp1350
I53
aI35
asg411
Nsg412
VTamid 27a:35
p1351
sg414
(lp1352
sg416
g63
sg417
Nsg418
(lp1353
I53
aI35
asg420
Nsg421
g1351
sg422
(lp1354
sg424
g383
sg425
Nsg426
Nsg427
Nsbag2
(g3
g4
Ntp1355
Rp1356
(dp1357
g8
g11
sg405
Nsg406
(dp1358
sg408
Nsg26
g29
sg409
(lp1359
I53
aI36
asg411
Nsg412
VTamid 27a:36
p1360
sg414
(lp1361
sg416
g63
sg417
Nsg418
(lp1362
I53
aI36
asg420
Nsg421
g1360
sg422
(lp1363
sg424
g383
sg425
Nsg426
Nsg427
Nsbag2
(g3
g4
Ntp1364
Rp1365
(dp1366
g8
g11
sg405
Nsg406
(dp1367
sg408
Nsg26
g29
sg409
(lp1368
I53
aI37
asg411
Nsg412
VTamid 27a:37
p1369
sg414
(lp1370
sg416
g63
sg417
Nsg418
(lp1371
I53
aI37
asg420
Nsg421
g1369
sg422
(lp1372
sg424
g383
sg425
Nsg426
Nsg427
Nsbag2
(g3
g4
Ntp1373
Rp1374
(dp1375
g8
g11
sg405
Nsg406
(dp1376
sg408
Nsg26
g29
sg409
(lp1377
I53
aI38
asg411
Nsg412
VTamid 27a:38
p1378
sg414
(lp1379
sg416
g63
sg417
Nsg418
(lp1380
I53
aI38
asg420
Nsg421
g1378
sg422
(lp1381
sg424
g383
sg425
Nsg426
Nsg427
Nsbag2
(g3
g4
Ntp1382
Rp1383
(dp1384
g8
g11
sg405
Nsg406
(dp1385
sg408
Nsg26
g29
sg409
(lp1386
I53
aI39
asg411
Nsg412
VTamid 27a:39
p1387
sg414
(lp1388
sg416
g63
sg417
Nsg418
(lp1389
I53
aI39
asg420
Nsg421
g1387
sg422
(lp1390
sg424
g383
sg425
Nsg426
Nsg427
Nsbag2
(g3
g4
Ntp1391
Rp1392
(dp1393
g8
g11
sg405
Nsg406
(dp1394
sg408
Nsg26
g29
sg409
(lp1395
I53
aI40
asg411
Nsg412
VTamid 27a:40
p1396
sg414
(lp1397
sg416
g63
sg417
Nsg418
(lp1398
I53
aI40
asg420
Nsg421
g1396
sg422
(lp1399
sg424
g383
sg425
Nsg426
Nsg427
Nsbag2
(g3
g4
Ntp1400
Rp1401
(dp1402
g8
g11
sg405
Nsg406
(dp1403
sg408
Nsg26
g29
sg409
(lp1404
I53
aI41
asg411
Nsg412
VTamid 27a:41
p1405
sg414
(lp1406
sg416
g63
sg417
Nsg418
(lp1407
I53
aI41
asg420
Nsg421
g1405
sg422
(lp1408
sg424
g383
sg425
Nsg426
Nsg427
Nsbag2
(g3
g4
Ntp1409
Rp1410
(dp1411
g8
g11
sg405
Nsg406
(dp1412
sg408
Nsg26
g29
sg409
(lp1413
I53
aI42
asg411
Nsg412
VTamid 27a:42
p1414
sg414
(lp1415
sg416
g63
sg417
Nsg418
(lp1416
I53
aI42
asg420
Nsg421
g1414
sg422
(lp1417
sg424
g383
sg425
Nsg426
Nsg427
Nsbag2
(g3
g4
Ntp1418
Rp1419
(dp1420
g8
g11
sg405
Nsg406
(dp1421
sg408
Nsg26
g29
sg409
(lp1422
I53
aI43
asg411
Nsg412
VTamid 27a:43
p1423
sg414
(lp1424
sg416
g63
sg417
Nsg418
(lp1425
I53
aI43
asg420
Nsg421
g1423
sg422
(lp1426
sg424
g383
sg425
Nsg426
Nsg427
Nsbag2
(g3
g4
Ntp1427
Rp1428
(dp1429
g8
g11
sg405
Nsg406
(dp1430
sg408
Nsg26
g29
sg409
(lp1431
I53
aI44
asg411
Nsg412
VTamid 27a:44
p1432
sg414
(lp1433
sg416
g63
sg417
Nsg418
(lp1434
I53
aI44
asg420
Nsg421
g1432
sg422
(lp1435
sg424
g383
sg425
Nsg426
Nsg427
Nsbag2
(g3
g4
Ntp1436
Rp1437
(dp1438
g8
g11
sg405
Nsg406
(dp1439
sg408
Nsg26
g29
sg409
(lp1440
I53
aI45
asg411
Nsg412
VTamid 27a:45
p1441
sg414
(lp1442
sg416
g63
sg417
Nsg418
(lp1443
I53
aI45
asg420
Nsg421
g1441
sg422
(lp1444
sg424
g383
sg425
Nsg426
Nsg427
Nsbag2
(g3
g4
Ntp1445
Rp1446
(dp1447
g8
g11
sg405
Nsg406
(dp1448
sg408
Nsg26
g29
sg409
(lp1449
I53
aI46
asg411
Nsg412
VTamid 27a:46
p1450
sg414
(lp1451
sg416
g63
sg417
Nsg418
(lp1452
I53
aI46
asg420
Nsg421
g1450
sg422
(lp1453
sg424
g383
sg425
Nsg426
Nsg427
Nsbag2
(g3
g4
Ntp1454
Rp1455
(dp1456
g8
g11
sg405
Nsg406
(dp1457
sg408
Nsg26
g29
sg409
(lp1458
I53
aI47
asg411
Nsg412
VTamid 27a:47
p1459
sg414
(lp1460
sg416
g63
sg417
Nsg418
(lp1461
I53
aI47
asg420
Nsg421
g1459
sg422
(lp1462
sg424
g383
sg425
Nsg426
Nsg427
Nsbag2
(g3
g4
Ntp1463
Rp1464
(dp1465
g8
g11
sg405
Nsg406
(dp1466
sg408
Nsg26
g29
sg409
(lp1467
I53
aI48
asg411
Nsg412
VTamid 27a:48
p1468
sg414
(lp1469
sg416
g63
sg417
Nsg418
(lp1470
I53
aI48
asg420
Nsg421
g1468
sg422
(lp1471
sg424
g383
sg425
Nsg426
Nsg427
Nsbag2
(g3
g4
Ntp1472
Rp1473
(dp1474
g8
g11
sg405
Nsg406
(dp1475
sg408
Nsg26
g29
sg409
(lp1476
I53
aI49
asg411
Nsg412
VTamid 27a:49
p1477
sg414
(lp1478
sg416
g63
sg417
Nsg418
(lp1479
I53
aI49
asg420
Nsg421
g1477
sg422
(lp1480
sg424
g383
sg425
Nsg426
Nsg427
Nsbag2
(g3
g4
Ntp1481
Rp1482
(dp1483
g8
g11
sg405
Nsg406
(dp1484
sg408
Nsg26
g29
sg409
(lp1485
I53
aI50
asg411
Nsg412
VTamid 27a:50
p1486
sg414
(lp1487
sg416
g63
sg417
Nsg418
(lp1488
I53
aI50
asg420
Nsg421
g1486
sg422
(lp1489
sg424
g383
sg425
Nsg426
Nsg427
Nsbag2
(g3
g4
Ntp1490
Rp1491
(dp1492
g8
g11
sg405
Nsg406
(dp1493
sg408
Nsg26
g29
sg409
(lp1494
I53
aI51
asg411
Nsg412
VTamid 27a:51
p1495
sg414
(lp1496
sg416
g63
sg417
Nsg418
(lp1497
I53
aI51
asg420
Nsg421
g1495
sg422
(lp1498
sg424
g383
sg425
Nsg426
Nsg427
Nsbag2
(g3
g4
Ntp1499
Rp1500
(dp1501
g8
g11
sg405
Nsg406
(dp1502
sg408
Nsg26
g29
sg409
(lp1503
I53
aI52
asg411
Nsg412
VTamid 27a:52
p1504
sg414
(lp1505
sg416
g63
sg417
Nsg418
(lp1506
I53
aI52
asg420
Nsg421
g1504
sg422
(lp1507
sg424
g383
sg425
Nsg426
Nsg427
Nsbag2
(g3
g4
Ntp1508
Rp1509
(dp1510
g8
g11
sg405
Nsg406
(dp1511
sg408
Nsg26
g29
sg409
(lp1512
I53
aI53
asg411
Nsg412
VTamid 27a:53
p1513
sg414
(lp1514
sg416
g63
sg417
Nsg418
(lp1515
I53
aI53
asg420
Nsg421
g1513
sg422
(lp1516
sg424
g383
sg425
Nsg426
Nsg427
Nsbag2
(g3
g4
Ntp1517
Rp1518
(dp1519
g8
g11
sg405
Nsg406
(dp1520
sg408
Nsg26
g29
sg409
(lp1521
I54
aI1
asg411
Nsg412
VTamid 27b:1
p1522
sg414
(lp1523
sg416
g63
sg417
Nsg418
(lp1524
I54
aI1
asg420
Nsg421
g1522
sg422
(lp1525
sg424
g383
sg425
Nsg426
Nsg427
Nsbag2
(g3
g4
Ntp1526
Rp1527
(dp1528
g8
g11
sg405
Nsg406
(dp1529
sg408
Nsg26
g29
sg409
(lp1530
I54
aI2
asg411
Nsg412
VTamid 27b:2
p1531
sg414
(lp1532
sg416
g63
sg417
Nsg418
(lp1533
I54
aI2
asg420
Nsg421
g1531
sg422
(lp1534
sg424
g383
sg425
Nsg426
Nsg427
Nsbag2
(g3
g4
Ntp1535
Rp1536
(dp1537
g8
g11
sg405
Nsg406
(dp1538
sg408
Nsg26
g29
sg409
(lp1539
I54
aI3
asg411
Nsg412
VTamid 27b:3
p1540
sg414
(lp1541
sg416
g63
sg417
Nsg418
(lp1542
I54
aI3
asg420
Nsg421
g1540
sg422
(lp1543
sg424
g383
sg425
Nsg426
Nsg427
Nsbag2
(g3
g4
Ntp1544
Rp1545
(dp1546
g8
g11
sg405
Nsg406
(dp1547
sg408
Nsg26
g29
sg409
(lp1548
I54
aI4
asg411
Nsg412
VTamid 27b:4
p1549
sg414
(lp1550
sg416
g63
sg417
Nsg418
(lp1551
I54
aI4
asg420
Nsg421
g1549
sg422
(lp1552
sg424
g383
sg425
Nsg426
Nsg427
Nsbag2
(g3
g4
Ntp1553
Rp1554
(dp1555
g8
g11
sg405
Nsg406
(dp1556
sg408
Nsg26
g29
sg409
(lp1557
I54
aI5
asg411
Nsg412
VTamid 27b:5
p1558
sg414
(lp1559
sg416
g63
sg417
Nsg418
(lp1560
I54
aI5
asg420
Nsg421
g1558
sg422
(lp1561
sg424
g383
sg425
Nsg426
Nsg427
Nsbag2
(g3
g4
Ntp1562
Rp1563
(dp1564
g8
g11
sg405
Nsg406
(dp1565
sg408
Nsg26
g29
sg409
(lp1566
I54
aI6
asg411
Nsg412
VTamid 27b:6
p1567
sg414
(lp1568
sg416
g63
sg417
Nsg418
(lp1569
I54
aI6
asg420
Nsg421
g1567
sg422
(lp1570
sg424
g383
sg425
Nsg426
Nsg427
Nsbag2
(g3
g4
Ntp1571
Rp1572
(dp1573
g8
g11
sg405
Nsg406
(dp1574
sg408
Nsg26
g29
sg409
(lp1575
I54
aI7
asg411
Nsg412
VTamid 27b:7
p1576
sg414
(lp1577
sg416
g63
sg417
Nsg418
(lp1578
I54
aI7
asg420
Nsg421
g1576
sg422
(lp1579
sg424
g383
sg425
Nsg426
Nsg427
Nsbag2
(g3
g4
Ntp1580
Rp1581
(dp1582
g8
g11
sg405
Nsg406
(dp1583
sg408
Nsg26
g29
sg409
(lp1584
I54
aI8
asg411
Nsg412
VTamid 27b:8
p1585
sg414
(lp1586
sg416
g63
sg417
Nsg418
(lp1587
I54
aI8
asg420
Nsg421
g1585
sg422
(lp1588
sg424
g383
sg425
Nsg426
Nsg427
Nsbag2
(g3
g4
Ntp1589
Rp1590
(dp1591
g8
g11
sg405
Nsg406
(dp1592
sg408
Nsg26
g29
sg409
(lp1593
I54
aI9
asg411
Nsg412
VTamid 27b:9
p1594
sg414
(lp1595
sg416
g63
sg417
Nsg418
(lp1596
I54
aI9
asg420
Nsg421
g1594
sg422
(lp1597
sg424
g383
sg425
Nsg426
Nsg427
Nsbag2
(g3
g4
Ntp1598
Rp1599
(dp1600
g8
g11
sg405
Nsg406
(dp1601
sg408
Nsg26
g29
sg409
(lp1602
I54
aI10
asg411
Nsg412
VTamid 27b:10
p1603
sg414
(lp1604
sg416
g63
sg417
Nsg418
(lp1605
I54
aI10
asg420
Nsg421
g1603
sg422
(lp1606
sg424
g383
sg425
Nsg426
Nsg427
Nsbag2
(g3
g4
Ntp1607
Rp1608
(dp1609
g8
g11
sg405
Nsg406
(dp1610
sg408
Nsg26
g29
sg409
(lp1611
I54
aI11
asg411
Nsg412
VTamid 27b:11
p1612
sg414
(lp1613
sg416
g63
sg417
Nsg418
(lp1614
I54
aI11
asg420
Nsg421
g1612
sg422
(lp1615
sg424
g383
sg425
Nsg426
Nsg427
Nsbag2
(g3
g4
Ntp1616
Rp1617
(dp1618
g8
g11
sg405
Nsg406
(dp1619
sg408
Nsg26
g29
sg409
(lp1620
I54
aI12
asg411
Nsg412
VTamid 27b:12
p1621
sg414
(lp1622
sg416
g63
sg417
Nsg418
(lp1623
I54
aI12
asg420
Nsg421
g1621
sg422
(lp1624
sg424
g383
sg425
Nsg426
Nsg427
Nsbag2
(g3
g4
Ntp1625
Rp1626
(dp1627
g8
g11
sg405
Nsg406
(dp1628
sg408
Nsg26
g29
sg409
(lp1629
I54
aI13
asg411
Nsg412
VTamid 27b:13
p1630
sg414
(lp1631
sg416
g63
sg417
Nsg418
(lp1632
I54
aI13
asg420
Nsg421
g1630
sg422
(lp1633
sg424
g383
sg425
Nsg426
Nsg427
Nsbag2
(g3
g4
Ntp1634
Rp1635
(dp1636
g8
g11
sg405
Nsg406
(dp1637
sg408
Nsg26
g29
sg409
(lp1638
I54
aI14
asg411
Nsg412
VTamid 27b:14
p1639
sg414
(lp1640
sg416
g63
sg417
Nsg418
(lp1641
I54
aI14
asg420
Nsg421
g1639
sg422
(lp1642
sg424
g383
sg425
Nsg426
Nsg427
Nsbag2
(g3
g4
Ntp1643
Rp1644
(dp1645
g8
g11
sg405
Nsg406
(dp1646
sg408
Nsg26
g29
sg409
(lp1647
I54
aI15
asg411
Nsg412
VTamid 27b:15
p1648
sg414
(lp1649
sg416
g63
sg417
Nsg418
(lp1650
I54
aI15
asg420
Nsg421
g1648
sg422
(lp1651
sg424
g383
sg425
Nsg426
Nsg427
Nsbag2
(g3
g4
Ntp1652
Rp1653
(dp1654
g8
g11
sg405
Nsg406
(dp1655
sg408
Nsg26
g29
sg409
(lp1656
I54
aI16
asg411
Nsg412
VTamid 27b:16
p1657
sg414
(lp1658
sg416
g63
sg417
Nsg418
(lp1659
I54
aI16
asg420
Nsg421
g1657
sg422
(lp1660
sg424
g383
sg425
Nsg426
Nsg427
Nsbag2
(g3
g4
Ntp1661
Rp1662
(dp1663
g8
g11
sg405
Nsg406
(dp1664
sg408
Nsg26
g29
sg409
(lp1665
I54
aI17
asg411
Nsg412
VTamid 27b:17
p1666
sg414
(lp1667
sg416
g63
sg417
Nsg418
(lp1668
I54
aI17
asg420
Nsg421
g1666
sg422
(lp1669
sg424
g383
sg425
Nsg426
Nsg427
Nsbag2
(g3
g4
Ntp1670
Rp1671
(dp1672
g8
g11
sg405
Nsg406
(dp1673
sg408
Nsg26
g29
sg409
(lp1674
I54
aI18
asg411
Nsg412
VTamid 27b:18
p1675
sg414
(lp1676
sg416
g63
sg417
Nsg418
(lp1677
I54
aI18
asg420
Nsg421
g1675
sg422
(lp1678
sg424
g383
sg425
Nsg426
Nsg427
Nsbag2
(g3
g4
Ntp1679
Rp1680
(dp1681
g8
g11
sg405
Nsg406
(dp1682
sg408
Nsg26
g29
sg409
(lp1683
I54
aI19
asg411
Nsg412
VTamid 27b:19
p1684
sg414
(lp1685
sg416
g63
sg417
Nsg418
(lp1686
I54
aI19
asg420
Nsg421
g1684
sg422
(lp1687
sg424
g383
sg425
Nsg426
Nsg427
Nsbag2
(g3
g4
Ntp1688
Rp1689
(dp1690
g8
g11
sg405
Nsg406
(dp1691
sg408
Nsg26
g29
sg409
(lp1692
I54
aI20
asg411
Nsg412
VTamid 27b:20
p1693
sg414
(lp1694
sg416
g63
sg417
Nsg418
(lp1695
I54
aI20
asg420
Nsg421
g1693
sg422
(lp1696
sg424
g383
sg425
Nsg426
Nsg427
Nsbag2
(g3
g4
Ntp1697
Rp1698
(dp1699
g8
g11
sg405
Nsg406
(dp1700
sg408
Nsg26
g29
sg409
(lp1701
I54
aI21
asg411
Nsg412
VTamid 27b:21
p1702
sg414
(lp1703
sg416
g63
sg417
Nsg418
(lp1704
I54
aI21
asg420
Nsg421
g1702
sg422
(lp1705
sg424
g383
sg425
Nsg426
Nsg427
Nsbag2
(g3
g4
Ntp1706
Rp1707
(dp1708
g8
g11
sg405
Nsg406
(dp1709
sg408
Nsg26
g29
sg409
(lp1710
I54
aI22
asg411
Nsg412
VTamid 27b:22
p1711
sg414
(lp1712
sg416
g63
sg417
Nsg418
(lp1713
I54
aI22
asg420
Nsg421
g1711
sg422
(lp1714
sg424
g383
sg425
Nsg426
Nsg427
Nsbag2
(g3
g4
Ntp1715
Rp1716
(dp1717
g8
g11
sg405
Nsg406
(dp1718
sg408
Nsg26
g29
sg409
(lp1719
I54
aI23
asg411
Nsg412
VTamid 27b:23
p1720
sg414
(lp1721
sg416
g63
sg417
Nsg418
(lp1722
I54
aI23
asg420
Nsg421
g1720
sg422
(lp1723
sg424
g383
sg425
Nsg426
Nsg427
Nsbag2
(g3
g4
Ntp1724
Rp1725
(dp1726
g8
g11
sg405
Nsg406
(dp1727
sg408
Nsg26
g29
sg409
(lp1728
I54
aI24
asg411
Nsg412
VTamid 27b:24
p1729
sg414
(lp1730
sg416
g63
sg417
Nsg418
(lp1731
I54
aI24
asg420
Nsg421
g1729
sg422
(lp1732
sg424
g383
sg425
Nsg426
Nsg427
Nsbag2
(g3
g4
Ntp1733
Rp1734
(dp1735
g8
g11
sg405
Nsg406
(dp1736
sg408
Nsg26
g29
sg409
(lp1737
I54
aI25
asg411
Nsg412
VTamid 27b:25
p1738
sg414
(lp1739
sg416
g63
sg417
Nsg418
(lp1740
I54
aI25
asg420
Nsg421
g1738
sg422
(lp1741
sg424
g383
sg425
Nsg426
Nsg427
Nsbag2
(g3
g4
Ntp1742
Rp1743
(dp1744
g8
g11
sg405
Nsg406
(dp1745
sg408
Nsg26
g29
sg409
(lp1746
I54
aI26
asg411
Nsg412
VTamid 27b:26
p1747
sg414
(lp1748
sg416
g63
sg417
Nsg418
(lp1749
I54
aI26
asg420
Nsg421
g1747
sg422
(lp1750
sg424
g383
sg425
Nsg426
Nsg427
Nsbag2
(g3
g4
Ntp1751
Rp1752
(dp1753
g8
g11
sg405
Nsg406
(dp1754
sg408
Nsg26
g29
sg409
(lp1755
I54
aI27
asg411
Nsg412
VTamid 27b:27
p1756
sg414
(lp1757
sg416
g63
sg417
Nsg418
(lp1758
I54
aI27
asg420
Nsg421
g1756
sg422
(lp1759
sg424
g383
sg425
Nsg426
Nsg427
Nsbag2
(g3
g4
Ntp1760
Rp1761
(dp1762
g8
g11
sg405
Nsg406
(dp1763
sg408
Nsg26
g29
sg409
(lp1764
I54
aI28
asg411
Nsg412
VTamid 27b:28
p1765
sg414
(lp1766
sg416
g63
sg417
Nsg418
(lp1767
I54
aI28
asg420
Nsg421
g1765
sg422
(lp1768
sg424
g383
sg425
Nsg426
Nsg427
Nsbag2
(g3
g4
Ntp1769
Rp1770
(dp1771
g8
g11
sg405
Nsg406
(dp1772
sg408
Nsg26
g29
sg409
(lp1773
I54
aI29
asg411
Nsg412
VTamid 27b:29
p1774
sg414
(lp1775
sg416
g63
sg417
Nsg418
(lp1776
I54
aI29
asg420
Nsg421
g1774
sg422
(lp1777
sg424
g383
sg425
Nsg426
Nsg427
Nsbag2
(g3
g4
Ntp1778
Rp1779
(dp1780
g8
g11
sg405
Nsg406
(dp1781
sg408
Nsg26
g29
sg409
(lp1782
I54
aI30
asg411
Nsg412
VTamid 27b:30
p1783
sg414
(lp1784
sg416
g63
sg417
Nsg418
(lp1785
I54
aI30
asg420
Nsg421
g1783
sg422
(lp1786
sg424
g383
sg425
Nsg426
Nsg427
Nsbag2
(g3
g4
Ntp1787
Rp1788
(dp1789
g8
g11
sg405
Nsg406
(dp1790
sg408
Nsg26
g29
sg409
(lp1791
I54
aI31
asg411
Nsg412
VTamid 27b:31
p1792
sg414
(lp1793
sg416
g63
sg417
Nsg418
(lp1794
I54
aI31
asg420
Nsg421
g1792
sg422
(lp1795
sg424
g383
sg425
Nsg426
Nsg427
Nsbag2
(g3
g4
Ntp1796
Rp1797
(dp1798
g8
g11
sg405
Nsg406
(dp1799
sg408
Nsg26
g29
sg409
(lp1800
I54
aI32
asg411
Nsg412
VTamid 27b:32
p1801
sg414
(lp1802
sg416
g63
sg417
Nsg418
(lp1803
I54
aI32
asg420
Nsg421
g1801
sg422
(lp1804
sg424
g383
sg425
Nsg426
Nsg427
Nsbag2
(g3
g4
Ntp1805
Rp1806
(dp1807
g8
g11
sg405
Nsg406
(dp1808
sg408
Nsg26
g29
sg409
(lp1809
I54
aI33
asg411
Nsg412
VTamid 27b:33
p1810
sg414
(lp1811
sg416
g63
sg417
Nsg418
(lp1812
I54
aI33
asg420
Nsg421
g1810
sg422
(lp1813
sg424
g383
sg425
Nsg426
Nsg427
Nsbag2
(g3
g4
Ntp1814
Rp1815
(dp1816
g8
g11
sg405
Nsg406
(dp1817
sg408
Nsg26
g29
sg409
(lp1818
I54
aI34
asg411
Nsg412
VTamid 27b:34
p1819
sg414
(lp1820
sg416
g63
sg417
Nsg418
(lp1821
I54
aI34
asg420
Nsg421
g1819
sg422
(lp1822
sg424
g383
sg425
Nsg426
Nsg427
Nsbag2
(g3
g4
Ntp1823
Rp1824
(dp1825
g8
g11
sg405
Nsg406
(dp1826
sg408
Nsg26
g29
sg409
(lp1827
I54
aI35
asg411
Nsg412
VTamid 27b:35
p1828
sg414
(lp1829
sg416
g63
sg417
Nsg418
(lp1830
I54
aI35
asg420
Nsg421
g1828
sg422
(lp1831
sg424
g383
sg425
Nsg426
Nsg427
Nsbag2
(g3
g4
Ntp1832
Rp1833
(dp1834
g8
g11
sg405
Nsg406
(dp1835
sg408
Nsg26
g29
sg409
(lp1836
I54
aI36
asg411
Nsg412
VTamid 27b:36
p1837
sg414
(lp1838
sg416
g63
sg417
Nsg418
(lp1839
I54
aI36
asg420
Nsg421
g1837
sg422
(lp1840
sg424
g383
sg425
Nsg426
Nsg427
Nsbag2
(g3
g4
Ntp1841
Rp1842
(dp1843
g8
g11
sg405
Nsg406
(dp1844
sg408
Nsg26
g29
sg409
(lp1845
I54
aI37
asg411
Nsg412
VTamid 27b:37
p1846
sg414
(lp1847
sg416
g63
sg417
Nsg418
(lp1848
I54
aI37
asg420
Nsg421
g1846
sg422
(lp1849
sg424
g383
sg425
Nsg426
Nsg427
Nsbag2
(g3
g4
Ntp1850
Rp1851
(dp1852
g8
g11
sg405
Nsg406
(dp1853
sg408
Nsg26
g29
sg409
(lp1854
I54
aI38
asg411
Nsg412
VTamid 27b:38
p1855
sg414
(lp1856
sg416
g63
sg417
Nsg418
(lp1857
I54
aI38
asg420
Nsg421
g1855
sg422
(lp1858
sg424
g383
sg425
Nsg426
Nsg427
Nsbag2
(g3
g4
Ntp1859
Rp1860
(dp1861
g8
g11
sg405
Nsg406
(dp1862
sg408
Nsg26
g29
sg409
(lp1863
I54
aI39
asg411
Nsg412
VTamid 27b:39
p1864
sg414
(lp1865
sg416
g63
sg417
Nsg418
(lp1866
I54
aI39
asg420
Nsg421
g1864
sg422
(lp1867
sg424
g383
sg425
Nsg426
Nsg427
Nsbag2
(g3
g4
Ntp1868
Rp1869
(dp1870
g8
g11
sg405
Nsg406
(dp1871
sg408
Nsg26
g29
sg409
(lp1872
I54
aI40
asg411
Nsg412
VTamid 27b:40
p1873
sg414
(lp1874
sg416
g63
sg417
Nsg418
(lp1875
I54
aI40
asg420
Nsg421
g1873
sg422
(lp1876
sg424
g383
sg425
Nsg426
Nsg427
Nsbag2
(g3
g4
Ntp1877
Rp1878
(dp1879
g8
g11
sg405
Nsg406
(dp1880
sg408
Nsg26
g29
sg409
(lp1881
I54
aI41
asg411
Nsg412
VTamid 27b:41
p1882
sg414
(lp1883
sg416
g63
sg417
Nsg418
(lp1884
I54
aI41
asg420
Nsg421
g1882
sg422
(lp1885
sg424
g383
sg425
Nsg426
Nsg427
Nsbag2
(g3
g4
Ntp1886
Rp1887
(dp1888
g8
g11
sg405
Nsg406
(dp1889
sg408
Nsg26
g29
sg409
(lp1890
I54
aI42
asg411
Nsg412
VTamid 27b:42
p1891
sg414
(lp1892
sg416
g63
sg417
Nsg418
(lp1893
I54
aI42
asg420
Nsg421
g1891
sg422
(lp1894
sg424
g383
sg425
Nsg426
Nsg427
Nsbag2
(g3
g4
Ntp1895
Rp1896
(dp1897
g8
g11
sg405
Nsg406
(dp1898
sg408
Nsg26
g29
sg409
(lp1899
I54
aI43
asg411
Nsg412
VTamid 27b:43
p1900
sg414
(lp1901
sg416
g63
sg417
Nsg418
(lp1902
I54
aI43
asg420
Nsg421
g1900
sg422
(lp1903
sg424
g383
sg425
Nsg426
Nsg427
Nsbag2
(g3
g4
Ntp1904
Rp1905
(dp1906
g8
g11
sg405
Nsg406
(dp1907
sg408
Nsg26
g29
sg409
(lp1908
I54
aI44
asg411
Nsg412
VTamid 27b:44
p1909
sg414
(lp1910
sg416
g63
sg417
Nsg418
(lp1911
I54
aI44
asg420
Nsg421
g1909
sg422
(lp1912
sg424
g383
sg425
Nsg426
Nsg427
Nsbag2
(g3
g4
Ntp1913
Rp1914
(dp1915
g8
g11
sg405
Nsg406
(dp1916
sg408
Nsg26
g29
sg409
(lp1917
I54
aI45
asg411
Nsg412
VTamid 27b:45
p1918
sg414
(lp1919
sg416
g63
sg417
Nsg418
(lp1920
I54
aI45
asg420
Nsg421
g1918
sg422
(lp1921
sg424
g383
sg425
Nsg426
Nsg427
Nsbag2
(g3
g4
Ntp1922
Rp1923
(dp1924
g8
g11
sg405
Nsg406
(dp1925
sg408
Nsg26
g29
sg409
(lp1926
I54
aI46
asg411
Nsg412
VTamid 27b:46
p1927
sg414
(lp1928
sg416
g63
sg417
Nsg418
(lp1929
I54
aI46
asg420
Nsg421
g1927
sg422
(lp1930
sg424
g383
sg425
Nsg426
Nsg427
Nsbag2
(g3
g4
Ntp1931
Rp1932
(dp1933
g8
g11
sg405
Nsg406
(dp1934
sg408
Nsg26
g29
sg409
(lp1935
I54
aI47
asg411
Nsg412
VTamid 27b:47
p1936
sg414
(lp1937
sg416
g63
sg417
Nsg418
(lp1938
I54
aI47
asg420
Nsg421
g1936
sg422
(lp1939
sg424
g383
sg425
Nsg426
Nsg427
Nsbag2
(g3
g4
Ntp1940
Rp1941
(dp1942
g8
g11
sg405
Nsg406
(dp1943
sg408
Nsg26
g29
sg409
(lp1944
I54
aI48
asg411
Nsg412
VTamid 27b:48
p1945
sg414
(lp1946
sg416
g63
sg417
Nsg418
(lp1947
I54
aI48
asg420
Nsg421
g1945
sg422
(lp1948
sg424
g383
sg425
Nsg426
Nsg427
Nsbag2
(g3
g4
Ntp1949
Rp1950
(dp1951
g8
g11
sg405
Nsg406
(dp1952
sg408
Nsg26
g29
sg409
(lp1953
I54
aI49
asg411
Nsg412
VTamid 27b:49
p1954
sg414
(lp1955
sg416
g63
sg417
Nsg418
(lp1956
I54
aI49
asg420
Nsg421
g1954
sg422
(lp1957
sg424
g383
sg425
Nsg426
Nsg427
Nsbag2
(g3
g4
Ntp1958
Rp1959
(dp1960
g8
g11
sg405
Nsg406
(dp1961
sg408
Nsg26
g29
sg409
(lp1962
I54
aI50
asg411
Nsg412
VTamid 27b:50
p1963
sg414
(lp1964
sg416
g63
sg417
Nsg418
(lp1965
I54
aI50
asg420
Nsg421
g1963
sg422
(lp1966
sg424
g383
sg425
Nsg426
Nsg427
Nsbag2
(g3
g4
Ntp1967
Rp1968
(dp1969
g8
g11
sg405
Nsg406
(dp1970
sg408
Nsg26
g29
sg409
(lp1971
I54
aI51
asg411
Nsg412
VTamid 27b:51
p1972
sg414
(lp1973
sg416
g63
sg417
Nsg418
(lp1974
I54
aI51
asg420
Nsg421
g1972
sg422
(lp1975
sg424
g383
sg425
Nsg426
Nsg427
Nsbag2
(g3
g4
Ntp1976
Rp1977
(dp1978
g8
g11
sg405
Nsg406
(dp1979
sg408
Nsg26
g29
sg409
(lp1980
I55
aI1
asg411
Nsg412
VTamid 28a:1
p1981
sg414
(lp1982
sg416
g63
sg417
Nsg418
(lp1983
I55
aI1
asg420
Nsg421
g1981
sg422
(lp1984
sg424
g383
sg425
Nsg426
Nsg427
Nsbag2
(g3
g4
Ntp1985
Rp1986
(dp1987
g8
g11
sg405
Nsg406
(dp1988
sg408
Nsg26
g29
sg409
(lp1989
I55
aI2
asg411
Nsg412
VTamid 28a:2
p1990
sg414
(lp1991
sg416
g63
sg417
Nsg418
(lp1992
I55
aI2
asg420
Nsg421
g1990
sg422
(lp1993
sg424
g383
sg425
Nsg426
Nsg427
Nsbag2
(g3
g4
Ntp1994
Rp1995
(dp1996
g8
g11
sg405
Nsg406
(dp1997
sg408
Nsg26
g29
sg409
(lp1998
I55
aI3
asg411
Nsg412
VTamid 28a:3
p1999
sg414
(lp2000
sg416
g63
sg417
Nsg418
(lp2001
I55
aI3
asg420
Nsg421
g1999
sg422
(lp2002
sg424
g383
sg425
Nsg426
Nsg427
Nsbag2
(g3
g4
Ntp2003
Rp2004
(dp2005
g8
g11
sg405
Nsg406
(dp2006
sg408
Nsg26
g29
sg409
(lp2007
I55
aI4
asg411
Nsg412
VTamid 28a:4
p2008
sg414
(lp2009
sg416
g63
sg417
Nsg418
(lp2010
I55
aI4
asg420
Nsg421
g2008
sg422
(lp2011
sg424
g383
sg425
Nsg426
Nsg427
Nsbag2
(g3
g4
Ntp2012
Rp2013
(dp2014
g8
g11
sg405
Nsg406
(dp2015
sg408
Nsg26
g29
sg409
(lp2016
I55
aI5
asg411
Nsg412
VTamid 28a:5
p2017
sg414
(lp2018
sg416
g63
sg417
Nsg418
(lp2019
I55
aI5
asg420
Nsg421
g2017
sg422
(lp2020
sg424
g383
sg425
Nsg426
Nsg427
Nsbag2
(g3
g4
Ntp2021
Rp2022
(dp2023
g8
g11
sg405
Nsg406
(dp2024
sg408
Nsg26
g29
sg409
(lp2025
I55
aI6
asg411
Nsg412
VTamid 28a:6
p2026
sg414
(lp2027
sg416
g63
sg417
Nsg418
(lp2028
I55
aI6
asg420
Nsg421
g2026
sg422
(lp2029
sg424
g383
sg425
Nsg426
Nsg427
Nsbag2
(g3
g4
Ntp2030
Rp2031
(dp2032
g8
g11
sg405
Nsg406
(dp2033
sg408
Nsg26
g29
sg409
(lp2034
I55
aI7
asg411
Nsg412
VTamid 28a:7
p2035
sg414
(lp2036
sg416
g63
sg417
Nsg418
(lp2037
I55
aI7
asg420
Nsg421
g2035
sg422
(lp2038
sg424
g383
sg425
Nsg426
Nsg427
Nsbag2
(g3
g4
Ntp2039
Rp2040
(dp2041
g8
g11
sg405
Nsg406
(dp2042
sg408
Nsg26
g29
sg409
(lp2043
I55
aI8
asg411
Nsg412
VTamid 28a:8
p2044
sg414
(lp2045
sg416
g63
sg417
Nsg418
(lp2046
I55
aI8
asg420
Nsg421
g2044
sg422
(lp2047
sg424
g383
sg425
Nsg426
Nsg427
Nsbag2
(g3
g4
Ntp2048
Rp2049
(dp2050
g8
g11
sg405
Nsg406
(dp2051
sg408
Nsg26
g29
sg409
(lp2052
I55
aI9
asg411
Nsg412
VTamid 28a:9
p2053
sg414
(lp2054
sg416
g63
sg417
Nsg418
(lp2055
I55
aI9
asg420
Nsg421
g2053
sg422
(lp2056
sg424
g383
sg425
Nsg426
Nsg427
Nsbag2
(g3
g4
Ntp2057
Rp2058
(dp2059
g8
g11
sg405
Nsg406
(dp2060
sg408
Nsg26
g29
sg409
(lp2061
I55
aI10
asg411
Nsg412
VTamid 28a:10
p2062
sg414
(lp2063
sg416
g63
sg417
Nsg418
(lp2064
I55
aI10
asg420
Nsg421
g2062
sg422
(lp2065
sg424
g383
sg425
Nsg426
Nsg427
Nsbag2
(g3
g4
Ntp2066
Rp2067
(dp2068
g8
g11
sg405
Nsg406
(dp2069
sg408
Nsg26
g29
sg409
(lp2070
I55
aI11
asg411
Nsg412
VTamid 28a:11
p2071
sg414
(lp2072
sg416
g63
sg417
Nsg418
(lp2073
I55
aI11
asg420
Nsg421
g2071
sg422
(lp2074
sg424
g383
sg425
Nsg426
Nsg427
Nsbag2
(g3
g4
Ntp2075
Rp2076
(dp2077
g8
g11
sg405
Nsg406
(dp2078
sg408
Nsg26
g29
sg409
(lp2079
I55
aI12
asg411
Nsg412
VTamid 28a:12
p2080
sg414
(lp2081
sg416
g63
sg417
Nsg418
(lp2082
I55
aI12
asg420
Nsg421
g2080
sg422
(lp2083
sg424
g383
sg425
Nsg426
Nsg427
Nsbag2
(g3
g4
Ntp2084
Rp2085
(dp2086
g8
g11
sg405
Nsg406
(dp2087
sg408
Nsg26
g29
sg409
(lp2088
I55
aI13
asg411
Nsg412
VTamid 28a:13
p2089
sg414
(lp2090
sg416
g63
sg417
Nsg418
(lp2091
I55
aI13
asg420
Nsg421
g2089
sg422
(lp2092
sg424
g383
sg425
Nsg426
Nsg427
Nsbag2
(g3
g4
Ntp2093
Rp2094
(dp2095
g8
g11
sg405
Nsg406
(dp2096
sg408
Nsg26
g29
sg409
(lp2097
I55
aI14
asg411
Nsg412
VTamid 28a:14
p2098
sg414
(lp2099
sg416
g63
sg417
Nsg418
(lp2100
I55
aI14
asg420
Nsg421
g2098
sg422
(lp2101
sg424
g383
sg425
Nsg426
Nsg427
Nsbag2
(g3
g4
Ntp2102
Rp2103
(dp2104
g8
g11
sg405
Nsg406
(dp2105
sg408
Nsg26
g29
sg409
(lp2106
I55
aI15
asg411
Nsg412
VTamid 28a:15
p2107
sg414
(lp2108
sg416
g63
sg417
Nsg418
(lp2109
I55
aI15
asg420
Nsg421
g2107
sg422
(lp2110
sg424
g383
sg425
Nsg426
Nsg427
Nsbag2
(g3
g4
Ntp2111
Rp2112
(dp2113
g8
g11
sg405
Nsg406
(dp2114
sg408
Nsg26
g29
sg409
(lp2115
I55
aI16
asg411
Nsg412
VTamid 28a:16
p2116
sg414
(lp2117
sg416
g63
sg417
Nsg418
(lp2118
I55
aI16
asg420
Nsg421
g2116
sg422
(lp2119
sg424
g383
sg425
Nsg426
Nsg427
Nsbag2
(g3
g4
Ntp2120
Rp2121
(dp2122
g8
g11
sg405
Nsg406
(dp2123
sg408
Nsg26
g29
sg409
(lp2124
I55
aI17
asg411
Nsg412
VTamid 28a:17
p2125
sg414
(lp2126
sg416
g63
sg417
Nsg418
(lp2127
I55
aI17
asg420
Nsg421
g2125
sg422
(lp2128
sg424
g383
sg425
Nsg426
Nsg427
Nsbag2
(g3
g4
Ntp2129
Rp2130
(dp2131
g8
g11
sg405
Nsg406
(dp2132
sg408
Nsg26
g29
sg409
(lp2133
I55
aI18
asg411
Nsg412
VTamid 28a:18
p2134
sg414
(lp2135
sg416
g63
sg417
Nsg418
(lp2136
I55
aI18
asg420
Nsg421
g2134
sg422
(lp2137
sg424
g383
sg425
Nsg426
Nsg427
Nsbag2
(g3
g4
Ntp2138
Rp2139
(dp2140
g8
g11
sg405
Nsg406
(dp2141
sg408
Nsg26
g29
sg409
(lp2142
I55
aI19
asg411
Nsg412
VTamid 28a:19
p2143
sg414
(lp2144
sg416
g63
sg417
Nsg418
(lp2145
I55
aI19
asg420
Nsg421
g2143
sg422
(lp2146
sg424
g383
sg425
Nsg426
Nsg427
Nsbag2
(g3
g4
Ntp2147
Rp2148
(dp2149
g8
g11
sg405
Nsg406
(dp2150
sg408
Nsg26
g29
sg409
(lp2151
I55
aI20
asg411
Nsg412
VTamid 28a:20
p2152
sg414
(lp2153
sg416
g63
sg417
Nsg418
(lp2154
I55
aI20
asg420
Nsg421
g2152
sg422
(lp2155
sg424
g383
sg425
Nsg426
Nsg427
Nsbag2
(g3
g4
Ntp2156
Rp2157
(dp2158
g8
g11
sg405
Nsg406
(dp2159
sg408
Nsg26
g29
sg409
(lp2160
I55
aI21
asg411
Nsg412
VTamid 28a:21
p2161
sg414
(lp2162
sg416
g63
sg417
Nsg418
(lp2163
I55
aI21
asg420
Nsg421
g2161
sg422
(lp2164
sg424
g383
sg425
Nsg426
Nsg427
Nsbag2
(g3
g4
Ntp2165
Rp2166
(dp2167
g8
g11
sg405
Nsg406
(dp2168
sg408
Nsg26
g29
sg409
(lp2169
I55
aI22
asg411
Nsg412
VTamid 28a:22
p2170
sg414
(lp2171
sg416
g63
sg417
Nsg418
(lp2172
I55
aI22
asg420
Nsg421
g2170
sg422
(lp2173
sg424
g383
sg425
Nsg426
Nsg427
Nsbag2
(g3
g4
Ntp2174
Rp2175
(dp2176
g8
g11
sg405
Nsg406
(dp2177
sg408
Nsg26
g29
sg409
(lp2178
I55
aI23
asg411
Nsg412
VTamid 28a:23
p2179
sg414
(lp2180
sg416
g63
sg417
Nsg418
(lp2181
I55
aI23
asg420
Nsg421
g2179
sg422
(lp2182
sg424
g383
sg425
Nsg426
Nsg427
Nsbag2
(g3
g4
Ntp2183
Rp2184
(dp2185
g8
g11
sg405
Nsg406
(dp2186
sg408
Nsg26
g29
sg409
(lp2187
I55
aI24
asg411
Nsg412
VTamid 28a:24
p2188
sg414
(lp2189
sg416
g63
sg417
Nsg418
(lp2190
I55
aI24
asg420
Nsg421
g2188
sg422
(lp2191
sg424
g383
sg425
Nsg426
Nsg427
Nsbag2
(g3
g4
Ntp2192
Rp2193
(dp2194
g8
g11
sg405
Nsg406
(dp2195
sg408
Nsg26
g29
sg409
(lp2196
I55
aI25
asg411
Nsg412
VTamid 28a:25
p2197
sg414
(lp2198
sg416
g63
sg417
Nsg418
(lp2199
I55
aI25
asg420
Nsg421
g2197
sg422
(lp2200
sg424
g383
sg425
Nsg426
Nsg427
Nsbag2
(g3
g4
Ntp2201
Rp2202
(dp2203
g8
g11
sg405
Nsg406
(dp2204
sg408
Nsg26
g29
sg409
(lp2205
I55
aI26
asg411
Nsg412
VTamid 28a:26
p2206
sg414
(lp2207
sg416
g63
sg417
Nsg418
(lp2208
I55
aI26
asg420
Nsg421
g2206
sg422
(lp2209
sg424
g383
sg425
Nsg426
Nsg427
Nsbag2
(g3
g4
Ntp2210
Rp2211
(dp2212
g8
g11
sg405
Nsg406
(dp2213
sg408
Nsg26
g29
sg409
(lp2214
I55
aI27
asg411
Nsg412
VTamid 28a:27
p2215
sg414
(lp2216
sg416
g63
sg417
Nsg418
(lp2217
I55
aI27
asg420
Nsg421
g2215
sg422
(lp2218
sg424
g383
sg425
Nsg426
Nsg427
Nsbag2
(g3
g4
Ntp2219
Rp2220
(dp2221
g8
g11
sg405
Nsg406
(dp2222
sg408
Nsg26
g29
sg409
(lp2223
I55
aI28
asg411
Nsg412
VTamid 28a:28
p2224
sg414
(lp2225
sg416
g63
sg417
Nsg418
(lp2226
I55
aI28
asg420
Nsg421
g2224
sg422
(lp2227
sg424
g383
sg425
Nsg426
Nsg427
Nsbag2
(g3
g4
Ntp2228
Rp2229
(dp2230
g8
g11
sg405
Nsg406
(dp2231
sg408
Nsg26
g29
sg409
(lp2232
I55
aI29
asg411
Nsg412
VTamid 28a:29
p2233
sg414
(lp2234
sg416
g63
sg417
Nsg418
(lp2235
I55
aI29
asg420
Nsg421
g2233
sg422
(lp2236
sg424
g383
sg425
Nsg426
Nsg427
Nsbag2
(g3
g4
Ntp2237
Rp2238
(dp2239
g8
g11
sg405
Nsg406
(dp2240
sg408
Nsg26
g29
sg409
(lp2241
I55
aI30
asg411
Nsg412
VTamid 28a:30
p2242
sg414
(lp2243
sg416
g63
sg417
Nsg418
(lp2244
I55
aI30
asg420
Nsg421
g2242
sg422
(lp2245
sg424
g383
sg425
Nsg426
Nsg427
Nsbag2
(g3
g4
Ntp2246
Rp2247
(dp2248
g8
g11
sg405
Nsg406
(dp2249
sg408
Nsg26
g29
sg409
(lp2250
I55
aI31
asg411
Nsg412
VTamid 28a:31
p2251
sg414
(lp2252
sg416
g63
sg417
Nsg418
(lp2253
I55
aI31
asg420
Nsg421
g2251
sg422
(lp2254
sg424
g383
sg425
Nsg426
Nsg427
Nsbag2
(g3
g4
Ntp2255
Rp2256
(dp2257
g8
g11
sg405
Nsg406
(dp2258
sg408
Nsg26
g29
sg409
(lp2259
I55
aI32
asg411
Nsg412
VTamid 28a:32
p2260
sg414
(lp2261
sg416
g63
sg417
Nsg418
(lp2262
I55
aI32
asg420
Nsg421
g2260
sg422
(lp2263
sg424
g383
sg425
Nsg426
Nsg427
Nsbag2
(g3
g4
Ntp2264
Rp2265
(dp2266
g8
g11
sg405
Nsg406
(dp2267
sg408
Nsg26
g29
sg409
(lp2268
I55
aI33
asg411
Nsg412
VTamid 28a:33
p2269
sg414
(lp2270
sg416
g63
sg417
Nsg418
(lp2271
I55
aI33
asg420
Nsg421
g2269
sg422
(lp2272
sg424
g383
sg425
Nsg426
Nsg427
Nsbag2
(g3
g4
Ntp2273
Rp2274
(dp2275
g8
g11
sg405
Nsg406
(dp2276
sg408
Nsg26
g29
sg409
(lp2277
I55
aI34
asg411
Nsg412
VTamid 28a:34
p2278
sg414
(lp2279
sg416
g63
sg417
Nsg418
(lp2280
I55
aI34
asg420
Nsg421
g2278
sg422
(lp2281
sg424
g383
sg425
Nsg426
Nsg427
Nsbag2
(g3
g4
Ntp2282
Rp2283
(dp2284
g8
g11
sg405
Nsg406
(dp2285
sg408
Nsg26
g29
sg409
(lp2286
I55
aI35
asg411
Nsg412
VTamid 28a:35
p2287
sg414
(lp2288
sg416
g63
sg417
Nsg418
(lp2289
I55
aI35
asg420
Nsg421
g2287
sg422
(lp2290
sg424
g383
sg425
Nsg426
Nsg427
Nsbag2
(g3
g4
Ntp2291
Rp2292
(dp2293
g8
g11
sg405
Nsg406
(dp2294
sg408
Nsg26
g29
sg409
(lp2295
I55
aI36
asg411
Nsg412
VTamid 28a:36
p2296
sg414
(lp2297
sg416
g63
sg417
Nsg418
(lp2298
I55
aI36
asg420
Nsg421
g2296
sg422
(lp2299
sg424
g383
sg425
Nsg426
Nsg427
Nsbag2
(g3
g4
Ntp2300
Rp2301
(dp2302
g8
g11
sg405
Nsg406
(dp2303
sg408
Nsg26
g29
sg409
(lp2304
I55
aI37
asg411
Nsg412
VTamid 28a:37
p2305
sg414
(lp2306
sg416
g63
sg417
Nsg418
(lp2307
I55
aI37
asg420
Nsg421
g2305
sg422
(lp2308
sg424
g383
sg425
Nsg426
Nsg427
Nsbag2
(g3
g4
Ntp2309
Rp2310
(dp2311
g8
g11
sg405
Nsg406
(dp2312
sg408
Nsg26
g29
sg409
(lp2313
I55
aI38
asg411
Nsg412
VTamid 28a:38
p2314
sg414
(lp2315
sg416
g63
sg417
Nsg418
(lp2316
I55
aI38
asg420
Nsg421
g2314
sg422
(lp2317
sg424
g383
sg425
Nsg426
Nsg427
Nsbag2
(g3
g4
Ntp2318
Rp2319
(dp2320
g8
g11
sg405
Nsg406
(dp2321
sg408
Nsg26
g29
sg409
(lp2322
I55
aI39
asg411
Nsg412
VTamid 28a:39
p2323
sg414
(lp2324
sg416
g63
sg417
Nsg418
(lp2325
I55
aI39
asg420
Nsg421
g2323
sg422
(lp2326
sg424
g383
sg425
Nsg426
Nsg427
Nsbag2
(g3
g4
Ntp2327
Rp2328
(dp2329
g8
g11
sg405
Nsg406
(dp2330
sg408
Nsg26
g29
sg409
(lp2331
I55
aI40
asg411
Nsg412
VTamid 28a:40
p2332
sg414
(lp2333
sg416
g63
sg417
Nsg418
(lp2334
I55
aI40
asg420
Nsg421
g2332
sg422
(lp2335
sg424
g383
sg425
Nsg426
Nsg427
Nsbag2
(g3
g4
Ntp2336
Rp2337
(dp2338
g8
g11
sg405
Nsg406
(dp2339
sg408
Nsg26
g29
sg409
(lp2340
I55
aI41
asg411
Nsg412
VTamid 28a:41
p2341
sg414
(lp2342
sg416
g63
sg417
Nsg418
(lp2343
I55
aI41
asg420
Nsg421
g2341
sg422
(lp2344
sg424
g383
sg425
Nsg426
Nsg427
Nsbag2
(g3
g4
Ntp2345
Rp2346
(dp2347
g8
g11
sg405
Nsg406
(dp2348
sg408
Nsg26
g29
sg409
(lp2349
I55
aI42
asg411
Nsg412
VTamid 28a:42
p2350
sg414
(lp2351
sg416
g63
sg417
Nsg418
(lp2352
I55
aI42
asg420
Nsg421
g2350
sg422
(lp2353
sg424
g383
sg425
Nsg426
Nsg427
Nsbag2
(g3
g4
Ntp2354
Rp2355
(dp2356
g8
g11
sg405
Nsg406
(dp2357
sg408
Nsg26
g29
sg409
(lp2358
I55
aI43
asg411
Nsg412
VTamid 28a:43
p2359
sg414
(lp2360
sg416
g63
sg417
Nsg418
(lp2361
I55
aI43
asg420
Nsg421
g2359
sg422
(lp2362
sg424
g383
sg425
Nsg426
Nsg427
Nsbag2
(g3
g4
Ntp2363
Rp2364
(dp2365
g8
g11
sg405
Nsg406
(dp2366
sg408
Nsg26
g29
sg409
(lp2367
I56
aI1
asg411
Nsg412
VTamid 28b:1
p2368
sg414
(lp2369
sg416
g63
sg417
Nsg418
(lp2370
I56
aI1
asg420
Nsg421
g2368
sg422
(lp2371
sg424
g383
sg425
Nsg426
Nsg427
Nsbag2
(g3
g4
Ntp2372
Rp2373
(dp2374
g8
g11
sg405
Nsg406
(dp2375
sg408
Nsg26
g29
sg409
(lp2376
I56
aI2
asg411
Nsg412
VTamid 28b:2
p2377
sg414
(lp2378
sg416
g63
sg417
Nsg418
(lp2379
I56
aI2
asg420
Nsg421
g2377
sg422
(lp2380
sg424
g383
sg425
Nsg426
Nsg427
Nsbag2
(g3
g4
Ntp2381
Rp2382
(dp2383
g8
g11
sg405
Nsg406
(dp2384
sg408
Nsg26
g29
sg409
(lp2385
I56
aI3
asg411
Nsg412
VTamid 28b:3
p2386
sg414
(lp2387
sg416
g63
sg417
Nsg418
(lp2388
I56
aI3
asg420
Nsg421
g2386
sg422
(lp2389
sg424
g383
sg425
Nsg426
Nsg427
Nsbag2
(g3
g4
Ntp2390
Rp2391
(dp2392
g8
g11
sg405
Nsg406
(dp2393
sg408
Nsg26
g29
sg409
(lp2394
I56
aI4
asg411
Nsg412
VTamid 28b:4
p2395
sg414
(lp2396
sg416
g63
sg417
Nsg418
(lp2397
I56
aI4
asg420
Nsg421
g2395
sg422
(lp2398
sg424
g383
sg425
Nsg426
Nsg427
Nsbag2
(g3
g4
Ntp2399
Rp2400
(dp2401
g8
g11
sg405
Nsg406
(dp2402
sg408
Nsg26
g29
sg409
(lp2403
I56
aI5
asg411
Nsg412
VTamid 28b:5
p2404
sg414
(lp2405
sg416
g63
sg417
Nsg418
(lp2406
I56
aI5
asg420
Nsg421
g2404
sg422
(lp2407
sg424
g383
sg425
Nsg426
Nsg427
Nsbag2
(g3
g4
Ntp2408
Rp2409
(dp2410
g8
g11
sg405
Nsg406
(dp2411
sg408
Nsg26
g29
sg409
(lp2412
I56
aI6
asg411
Nsg412
VTamid 28b:6
p2413
sg414
(lp2414
sg416
g63
sg417
Nsg418
(lp2415
I56
aI6
asg420
Nsg421
g2413
sg422
(lp2416
sg424
g383
sg425
Nsg426
Nsg427
Nsbag2
(g3
g4
Ntp2417
Rp2418
(dp2419
g8
g11
sg405
Nsg406
(dp2420
sg408
Nsg26
g29
sg409
(lp2421
I56
aI7
asg411
Nsg412
VTamid 28b:7
p2422
sg414
(lp2423
sg416
g63
sg417
Nsg418
(lp2424
I56
aI7
asg420
Nsg421
g2422
sg422
(lp2425
sg424
g383
sg425
Nsg426
Nsg427
Nsbag2
(g3
g4
Ntp2426
Rp2427
(dp2428
g8
g11
sg405
Nsg406
(dp2429
sg408
Nsg26
g29
sg409
(lp2430
I56
aI8
asg411
Nsg412
VTamid 28b:8
p2431
sg414
(lp2432
sg416
g63
sg417
Nsg418
(lp2433
I56
aI8
asg420
Nsg421
g2431
sg422
(lp2434
sg424
g383
sg425
Nsg426
Nsg427
Nsbag2
(g3
g4
Ntp2435
Rp2436
(dp2437
g8
g11
sg405
Nsg406
(dp2438
sg408
Nsg26
g29
sg409
(lp2439
I56
aI9
asg411
Nsg412
VTamid 28b:9
p2440
sg414
(lp2441
sg416
g63
sg417
Nsg418
(lp2442
I56
aI9
asg420
Nsg421
g2440
sg422
(lp2443
sg424
g383
sg425
Nsg426
Nsg427
Nsbag2
(g3
g4
Ntp2444
Rp2445
(dp2446
g8
g11
sg405
Nsg406
(dp2447
sg408
Nsg26
g29
sg409
(lp2448
I56
aI10
asg411
Nsg412
VTamid 28b:10
p2449
sg414
(lp2450
sg416
g63
sg417
Nsg418
(lp2451
I56
aI10
asg420
Nsg421
g2449
sg422
(lp2452
sg424
g383
sg425
Nsg426
Nsg427
Nsbag2
(g3
g4
Ntp2453
Rp2454
(dp2455
g8
g11
sg405
Nsg406
(dp2456
sg408
Nsg26
g29
sg409
(lp2457
I56
aI11
asg411
Nsg412
VTamid 28b:11
p2458
sg414
(lp2459
sg416
g63
sg417
Nsg418
(lp2460
I56
aI11
asg420
Nsg421
g2458
sg422
(lp2461
sg424
g383
sg425
Nsg426
Nsg427
Nsbag2
(g3
g4
Ntp2462
Rp2463
(dp2464
g8
g11
sg405
Nsg406
(dp2465
sg408
Nsg26
g29
sg409
(lp2466
I56
aI12
asg411
Nsg412
VTamid 28b:12
p2467
sg414
(lp2468
sg416
g63
sg417
Nsg418
(lp2469
I56
aI12
asg420
Nsg421
g2467
sg422
(lp2470
sg424
g383
sg425
Nsg426
Nsg427
Nsbag2
(g3
g4
Ntp2471
Rp2472
(dp2473
g8
g11
sg405
Nsg406
(dp2474
sg408
Nsg26
g29
sg409
(lp2475
I56
aI13
asg411
Nsg412
VTamid 28b:13
p2476
sg414
(lp2477
sg416
g63
sg417
Nsg418
(lp2478
I56
aI13
asg420
Nsg421
g2476
sg422
(lp2479
sg424
g383
sg425
Nsg426
Nsg427
Nsbag2
(g3
g4
Ntp2480
Rp2481
(dp2482
g8
g11
sg405
Nsg406
(dp2483
sg408
Nsg26
g29
sg409
(lp2484
I56
aI14
asg411
Nsg412
VTamid 28b:14
p2485
sg414
(lp2486
sg416
g63
sg417
Nsg418
(lp2487
I56
aI14
asg420
Nsg421
g2485
sg422
(lp2488
sg424
g383
sg425
Nsg426
Nsg427
Nsbag2
(g3
g4
Ntp2489
Rp2490
(dp2491
g8
g11
sg405
Nsg406
(dp2492
sg408
Nsg26
g29
sg409
(lp2493
I56
aI15
asg411
Nsg412
VTamid 28b:15
p2494
sg414
(lp2495
sg416
g63
sg417
Nsg418
(lp2496
I56
aI15
asg420
Nsg421
g2494
sg422
(lp2497
sg424
g383
sg425
Nsg426
Nsg427
Nsbag2
(g3
g4
Ntp2498
Rp2499
(dp2500
g8
g11
sg405
Nsg406
(dp2501
sg408
Nsg26
g29
sg409
(lp2502
I56
aI16
asg411
Nsg412
VTamid 28b:16
p2503
sg414
(lp2504
sg416
g63
sg417
Nsg418
(lp2505
I56
aI16
asg420
Nsg421
g2503
sg422
(lp2506
sg424
g383
sg425
Nsg426
Nsg427
Nsbag2
(g3
g4
Ntp2507
Rp2508
(dp2509
g8
g11
sg405
Nsg406
(dp2510
sg408
Nsg26
g29
sg409
(lp2511
I56
aI17
asg411
Nsg412
VTamid 28b:17
p2512
sg414
(lp2513
sg416
g63
sg417
Nsg418
(lp2514
I56
aI17
asg420
Nsg421
g2512
sg422
(lp2515
sg424
g383
sg425
Nsg426
Nsg427
Nsbag2
(g3
g4
Ntp2516
Rp2517
(dp2518
g8
g11
sg405
Nsg406
(dp2519
sg408
Nsg26
g29
sg409
(lp2520
I56
aI18
asg411
Nsg412
VTamid 28b:18
p2521
sg414
(lp2522
sg416
g63
sg417
Nsg418
(lp2523
I56
aI18
asg420
Nsg421
g2521
sg422
(lp2524
sg424
g383
sg425
Nsg426
Nsg427
Nsbag2
(g3
g4
Ntp2525
Rp2526
(dp2527
g8
g11
sg405
Nsg406
(dp2528
sg408
Nsg26
g29
sg409
(lp2529
I56
aI19
asg411
Nsg412
VTamid 28b:19
p2530
sg414
(lp2531
sg416
g63
sg417
Nsg418
(lp2532
I56
aI19
asg420
Nsg421
g2530
sg422
(lp2533
sg424
g383
sg425
Nsg426
Nsg427
Nsbag2
(g3
g4
Ntp2534
Rp2535
(dp2536
g8
g11
sg405
Nsg406
(dp2537
sg408
Nsg26
g29
sg409
(lp2538
I56
aI20
asg411
Nsg412
VTamid 28b:20
p2539
sg414
(lp2540
sg416
g63
sg417
Nsg418
(lp2541
I56
aI20
asg420
Nsg421
g2539
sg422
(lp2542
sg424
g383
sg425
Nsg426
Nsg427
Nsbag2
(g3
g4
Ntp2543
Rp2544
(dp2545
g8
g11
sg405
Nsg406
(dp2546
sg408
Nsg26
g29
sg409
(lp2547
I56
aI21
asg411
Nsg412
VTamid 28b:21
p2548
sg414
(lp2549
sg416
g63
sg417
Nsg418
(lp2550
I56
aI21
asg420
Nsg421
g2548
sg422
(lp2551
sg424
g383
sg425
Nsg426
Nsg427
Nsbag2
(g3
g4
Ntp2552
Rp2553
(dp2554
g8
g11
sg405
Nsg406
(dp2555
sg408
Nsg26
g29
sg409
(lp2556
I56
aI22
asg411
Nsg412
VTamid 28b:22
p2557
sg414
(lp2558
sg416
g63
sg417
Nsg418
(lp2559
I56
aI22
asg420
Nsg421
g2557
sg422
(lp2560
sg424
g383
sg425
Nsg426
Nsg427
Nsbag2
(g3
g4
Ntp2561
Rp2562
(dp2563
g8
g11
sg405
Nsg406
(dp2564
sg408
Nsg26
g29
sg409
(lp2565
I56
aI23
asg411
Nsg412
VTamid 28b:23
p2566
sg414
(lp2567
sg416
g63
sg417
Nsg418
(lp2568
I56
aI23
asg420
Nsg421
g2566
sg422
(lp2569
sg424
g383
sg425
Nsg426
Nsg427
Nsbag2
(g3
g4
Ntp2570
Rp2571
(dp2572
g8
g11
sg405
Nsg406
(dp2573
sg408
Nsg26
g29
sg409
(lp2574
I56
aI24
asg411
Nsg412
VTamid 28b:24
p2575
sg414
(lp2576
sg416
g63
sg417
Nsg418
(lp2577
I56
aI24
asg420
Nsg421
g2575
sg422
(lp2578
sg424
g383
sg425
Nsg426
Nsg427
Nsbag2
(g3
g4
Ntp2579
Rp2580
(dp2581
g8
g11
sg405
Nsg406
(dp2582
sg408
Nsg26
g29
sg409
(lp2583
I56
aI25
asg411
Nsg412
VTamid 28b:25
p2584
sg414
(lp2585
sg416
g63
sg417
Nsg418
(lp2586
I56
aI25
asg420
Nsg421
g2584
sg422
(lp2587
sg424
g383
sg425
Nsg426
Nsg427
Nsbag2
(g3
g4
Ntp2588
Rp2589
(dp2590
g8
g11
sg405
Nsg406
(dp2591
sg408
Nsg26
g29
sg409
(lp2592
I56
aI26
asg411
Nsg412
VTamid 28b:26
p2593
sg414
(lp2594
sg416
g63
sg417
Nsg418
(lp2595
I56
aI26
asg420
Nsg421
g2593
sg422
(lp2596
sg424
g383
sg425
Nsg426
Nsg427
Nsbag2
(g3
g4
Ntp2597
Rp2598
(dp2599
g8
g11
sg405
Nsg406
(dp2600
sg408
Nsg26
g29
sg409
(lp2601
I56
aI27
asg411
Nsg412
VTamid 28b:27
p2602
sg414
(lp2603
sg416
g63
sg417
Nsg418
(lp2604
I56
aI27
asg420
Nsg421
g2602
sg422
(lp2605
sg424
g383
sg425
Nsg426
Nsg427
Nsbag2
(g3
g4
Ntp2606
Rp2607
(dp2608
g8
g11
sg405
Nsg406
(dp2609
sg408
Nsg26
g29
sg409
(lp2610
I56
aI28
asg411
Nsg412
VTamid 28b:28
p2611
sg414
(lp2612
sg416
g63
sg417
Nsg418
(lp2613
I56
aI28
asg420
Nsg421
g2611
sg422
(lp2614
sg424
g383
sg425
Nsg426
Nsg427
Nsbag2
(g3
g4
Ntp2615
Rp2616
(dp2617
g8
g11
sg405
Nsg406
(dp2618
sg408
Nsg26
g29
sg409
(lp2619
I56
aI29
asg411
Nsg412
VTamid 28b:29
p2620
sg414
(lp2621
sg416
g63
sg417
Nsg418
(lp2622
I56
aI29
asg420
Nsg421
g2620
sg422
(lp2623
sg424
g383
sg425
Nsg426
Nsg427
Nsbag2
(g3
g4
Ntp2624
Rp2625
(dp2626
g8
g11
sg405
Nsg406
(dp2627
sg408
Nsg26
g29
sg409
(lp2628
I57
aI1
asg411
Nsg412
VTamid 29a:1
p2629
sg414
(lp2630
sg416
g63
sg417
Nsg418
(lp2631
I57
aI1
asg420
Nsg421
g2629
sg422
(lp2632
sg424
g383
sg425
Nsg426
Nsg427
Nsbag2
(g3
g4
Ntp2633
Rp2634
(dp2635
g8
g11
sg405
Nsg406
(dp2636
sg408
Nsg26
g29
sg409
(lp2637
I57
aI2
asg411
Nsg412
VTamid 29a:2
p2638
sg414
(lp2639
sg416
g63
sg417
Nsg418
(lp2640
I57
aI2
asg420
Nsg421
g2638
sg422
(lp2641
sg424
g383
sg425
Nsg426
Nsg427
Nsbag2
(g3
g4
Ntp2642
Rp2643
(dp2644
g8
g11
sg405
Nsg406
(dp2645
sg408
Nsg26
g29
sg409
(lp2646
I57
aI3
asg411
Nsg412
VTamid 29a:3
p2647
sg414
(lp2648
sg416
g63
sg417
Nsg418
(lp2649
I57
aI3
asg420
Nsg421
g2647
sg422
(lp2650
sg424
g383
sg425
Nsg426
Nsg427
Nsbag2
(g3
g4
Ntp2651
Rp2652
(dp2653
g8
g11
sg405
Nsg406
(dp2654
sg408
Nsg26
g29
sg409
(lp2655
I57
aI4
asg411
Nsg412
VTamid 29a:4
p2656
sg414
(lp2657
sg416
g63
sg417
Nsg418
(lp2658
I57
aI4
asg420
Nsg421
g2656
sg422
(lp2659
sg424
g383
sg425
Nsg426
Nsg427
Nsbag2
(g3
g4
Ntp2660
Rp2661
(dp2662
g8
g11
sg405
Nsg406
(dp2663
sg408
Nsg26
g29
sg409
(lp2664
I57
aI5
asg411
Nsg412
VTamid 29a:5
p2665
sg414
(lp2666
sg416
g63
sg417
Nsg418
(lp2667
I57
aI5
asg420
Nsg421
g2665
sg422
(lp2668
sg424
g383
sg425
Nsg426
Nsg427
Nsbag2
(g3
g4
Ntp2669
Rp2670
(dp2671
g8
g11
sg405
Nsg406
(dp2672
sg408
Nsg26
g29
sg409
(lp2673
I57
aI6
asg411
Nsg412
VTamid 29a:6
p2674
sg414
(lp2675
sg416
g63
sg417
Nsg418
(lp2676
I57
aI6
asg420
Nsg421
g2674
sg422
(lp2677
sg424
g383
sg425
Nsg426
Nsg427
Nsbag2
(g3
g4
Ntp2678
Rp2679
(dp2680
g8
g11
sg405
Nsg406
(dp2681
sg408
Nsg26
g29
sg409
(lp2682
I57
aI7
asg411
Nsg412
VTamid 29a:7
p2683
sg414
(lp2684
sg416
g63
sg417
Nsg418
(lp2685
I57
aI7
asg420
Nsg421
g2683
sg422
(lp2686
sg424
g383
sg425
Nsg426
Nsg427
Nsbag2
(g3
g4
Ntp2687
Rp2688
(dp2689
g8
g11
sg405
Nsg406
(dp2690
sg408
Nsg26
g29
sg409
(lp2691
I57
aI8
asg411
Nsg412
VTamid 29a:8
p2692
sg414
(lp2693
sg416
g63
sg417
Nsg418
(lp2694
I57
aI8
asg420
Nsg421
g2692
sg422
(lp2695
sg424
g383
sg425
Nsg426
Nsg427
Nsbag2
(g3
g4
Ntp2696
Rp2697
(dp2698
g8
g11
sg405
Nsg406
(dp2699
sg408
Nsg26
g29
sg409
(lp2700
I57
aI9
asg411
Nsg412
VTamid 29a:9
p2701
sg414
(lp2702
sg416
g63
sg417
Nsg418
(lp2703
I57
aI9
asg420
Nsg421
g2701
sg422
(lp2704
sg424
g383
sg425
Nsg426
Nsg427
Nsbag2
(g3
g4
Ntp2705
Rp2706
(dp2707
g8
g11
sg405
Nsg406
(dp2708
sg408
Nsg26
g29
sg409
(lp2709
I57
aI10
asg411
Nsg412
VTamid 29a:10
p2710
sg414
(lp2711
sg416
g63
sg417
Nsg418
(lp2712
I57
aI10
asg420
Nsg421
g2710
sg422
(lp2713
sg424
g383
sg425
Nsg426
Nsg427
Nsbag2
(g3
g4
Ntp2714
Rp2715
(dp2716
g8
g11
sg405
Nsg406
(dp2717
sg408
Nsg26
g29
sg409
(lp2718
I57
aI11
asg411
Nsg412
VTamid 29a:11
p2719
sg414
(lp2720
sg416
g63
sg417
Nsg418
(lp2721
I57
aI11
asg420
Nsg421
g2719
sg422
(lp2722
sg424
g383
sg425
Nsg426
Nsg427
Nsbag2
(g3
g4
Ntp2723
Rp2724
(dp2725
g8
g11
sg405
Nsg406
(dp2726
sg408
Nsg26
g29
sg409
(lp2727
I57
aI12
asg411
Nsg412
VTamid 29a:12
p2728
sg414
(lp2729
sg416
g63
sg417
Nsg418
(lp2730
I57
aI12
asg420
Nsg421
g2728
sg422
(lp2731
sg424
g383
sg425
Nsg426
Nsg427
Nsbag2
(g3
g4
Ntp2732
Rp2733
(dp2734
g8
g11
sg405
Nsg406
(dp2735
sg408
Nsg26
g29
sg409
(lp2736
I57
aI13
asg411
Nsg412
VTamid 29a:13
p2737
sg414
(lp2738
sg416
g63
sg417
Nsg418
(lp2739
I57
aI13
asg420
Nsg421
g2737
sg422
(lp2740
sg424
g383
sg425
Nsg426
Nsg427
Nsbag2
(g3
g4
Ntp2741
Rp2742
(dp2743
g8
g11
sg405
Nsg406
(dp2744
sg408
Nsg26
g29
sg409
(lp2745
I57
aI14
asg411
Nsg412
VTamid 29a:14
p2746
sg414
(lp2747
sg416
g63
sg417
Nsg418
(lp2748
I57
aI14
asg420
Nsg421
g2746
sg422
(lp2749
sg424
g383
sg425
Nsg426
Nsg427
Nsbag2
(g3
g4
Ntp2750
Rp2751
(dp2752
g8
g11
sg405
Nsg406
(dp2753
sg408
Nsg26
g29
sg409
(lp2754
I57
aI15
asg411
Nsg412
VTamid 29a:15
p2755
sg414
(lp2756
sg416
g63
sg417
Nsg418
(lp2757
I57
aI15
asg420
Nsg421
g2755
sg422
(lp2758
sg424
g383
sg425
Nsg426
Nsg427
Nsbag2
(g3
g4
Ntp2759
Rp2760
(dp2761
g8
g11
sg405
Nsg406
(dp2762
sg408
Nsg26
g29
sg409
(lp2763
I57
aI16
asg411
Nsg412
VTamid 29a:16
p2764
sg414
(lp2765
sg416
g63
sg417
Nsg418
(lp2766
I57
aI16
asg420
Nsg421
g2764
sg422
(lp2767
sg424
g383
sg425
Nsg426
Nsg427
Nsbag2
(g3
g4
Ntp2768
Rp2769
(dp2770
g8
g11
sg405
Nsg406
(dp2771
sg408
Nsg26
g29
sg409
(lp2772
I57
aI17
asg411
Nsg412
VTamid 29a:17
p2773
sg414
(lp2774
sg416
g63
sg417
Nsg418
(lp2775
I57
aI17
asg420
Nsg421
g2773
sg422
(lp2776
sg424
g383
sg425
Nsg426
Nsg427
Nsbag2
(g3
g4
Ntp2777
Rp2778
(dp2779
g8
g11
sg405
Nsg406
(dp2780
sg408
Nsg26
g29
sg409
(lp2781
I57
aI18
asg411
Nsg412
VTamid 29a:18
p2782
sg414
(lp2783
sg416
g63
sg417
Nsg418
(lp2784
I57
aI18
asg420
Nsg421
g2782
sg422
(lp2785
sg424
g383
sg425
Nsg426
Nsg427
Nsbag2
(g3
g4
Ntp2786
Rp2787
(dp2788
g8
g11
sg405
Nsg406
(dp2789
sg408
Nsg26
g29
sg409
(lp2790
I57
aI19
asg411
Nsg412
VTamid 29a:19
p2791
sg414
(lp2792
sg416
g63
sg417
Nsg418
(lp2793
I57
aI19
asg420
Nsg421
g2791
sg422
(lp2794
sg424
g383
sg425
Nsg426
Nsg427
Nsbag2
(g3
g4
Ntp2795
Rp2796
(dp2797
g8
g11
sg405
Nsg406
(dp2798
sg408
Nsg26
g29
sg409
(lp2799
I57
aI20
asg411
Nsg412
VTamid 29a:20
p2800
sg414
(lp2801
sg416
g63
sg417
Nsg418
(lp2802
I57
aI20
asg420
Nsg421
g2800
sg422
(lp2803
sg424
g383
sg425
Nsg426
Nsg427
Nsbag2
(g3
g4
Ntp2804
Rp2805
(dp2806
g8
g11
sg405
Nsg406
(dp2807
sg408
Nsg26
g29
sg409
(lp2808
I57
aI21
asg411
Nsg412
VTamid 29a:21
p2809
sg414
(lp2810
sg416
g63
sg417
Nsg418
(lp2811
I57
aI21
asg420
Nsg421
g2809
sg422
(lp2812
sg424
g383
sg425
Nsg426
Nsg427
Nsbag2
(g3
g4
Ntp2813
Rp2814
(dp2815
g8
g11
sg405
Nsg406
(dp2816
sg408
Nsg26
g29
sg409
(lp2817
I57
aI22
asg411
Nsg412
VTamid 29a:22
p2818
sg414
(lp2819
sg416
g63
sg417
Nsg418
(lp2820
I57
aI22
asg420
Nsg421
g2818
sg422
(lp2821
sg424
g383
sg425
Nsg426
Nsg427
Nsbag2
(g3
g4
Ntp2822
Rp2823
(dp2824
g8
g11
sg405
Nsg406
(dp2825
sg408
Nsg26
g29
sg409
(lp2826
I57
aI23
asg411
Nsg412
VTamid 29a:23
p2827
sg414
(lp2828
sg416
g63
sg417
Nsg418
(lp2829
I57
aI23
asg420
Nsg421
g2827
sg422
(lp2830
sg424
g383
sg425
Nsg426
Nsg427
Nsbag2
(g3
g4
Ntp2831
Rp2832
(dp2833
g8
g11
sg405
Nsg406
(dp2834
sg408
Nsg26
g29
sg409
(lp2835
I57
aI24
asg411
Nsg412
VTamid 29a:24
p2836
sg414
(lp2837
sg416
g63
sg417
Nsg418
(lp2838
I57
aI24
asg420
Nsg421
g2836
sg422
(lp2839
sg424
g383
sg425
Nsg426
Nsg427
Nsbag2
(g3
g4
Ntp2840
Rp2841
(dp2842
g8
g11
sg405
Nsg406
(dp2843
sg408
Nsg26
g29
sg409
(lp2844
I57
aI25
asg411
Nsg412
VTamid 29a:25
p2845
sg414
(lp2846
sg416
g63
sg417
Nsg418
(lp2847
I57
aI25
asg420
Nsg421
g2845
sg422
(lp2848
sg424
g383
sg425
Nsg426
Nsg427
Nsbag2
(g3
g4
Ntp2849
Rp2850
(dp2851
g8
g11
sg405
Nsg406
(dp2852
sg408
Nsg26
g29
sg409
(lp2853
I57
aI26
asg411
Nsg412
VTamid 29a:26
p2854
sg414
(lp2855
sg416
g63
sg417
Nsg418
(lp2856
I57
aI26
asg420
Nsg421
g2854
sg422
(lp2857
sg424
g383
sg425
Nsg426
Nsg427
Nsbag2
(g3
g4
Ntp2858
Rp2859
(dp2860
g8
g11
sg405
Nsg406
(dp2861
sg408
Nsg26
g29
sg409
(lp2862
I57
aI27
asg411
Nsg412
VTamid 29a:27
p2863
sg414
(lp2864
sg416
g63
sg417
Nsg418
(lp2865
I57
aI27
asg420
Nsg421
g2863
sg422
(lp2866
sg424
g383
sg425
Nsg426
Nsg427
Nsbag2
(g3
g4
Ntp2867
Rp2868
(dp2869
g8
g11
sg405
Nsg406
(dp2870
sg408
Nsg26
g29
sg409
(lp2871
I57
aI28
asg411
Nsg412
VTamid 29a:28
p2872
sg414
(lp2873
sg416
g63
sg417
Nsg418
(lp2874
I57
aI28
asg420
Nsg421
g2872
sg422
(lp2875
sg424
g383
sg425
Nsg426
Nsg427
Nsbag2
(g3
g4
Ntp2876
Rp2877
(dp2878
g8
g11
sg405
Nsg406
(dp2879
sg408
Nsg26
g29
sg409
(lp2880
I57
aI29
asg411
Nsg412
VTamid 29a:29
p2881
sg414
(lp2882
sg416
g63
sg417
Nsg418
(lp2883
I57
aI29
asg420
Nsg421
g2881
sg422
(lp2884
sg424
g383
sg425
Nsg426
Nsg427
Nsbag2
(g3
g4
Ntp2885
Rp2886
(dp2887
g8
g11
sg405
Nsg406
(dp2888
sg408
Nsg26
g29
sg409
(lp2889
I57
aI30
asg411
Nsg412
VTamid 29a:30
p2890
sg414
(lp2891
sg416
g63
sg417
Nsg418
(lp2892
I57
aI30
asg420
Nsg421
g2890
sg422
(lp2893
sg424
g383
sg425
Nsg426
Nsg427
Nsbag2
(g3
g4
Ntp2894
Rp2895
(dp2896
g8
g11
sg405
Nsg406
(dp2897
sg408
Nsg26
g29
sg409
(lp2898
I57
aI31
asg411
Nsg412
VTamid 29a:31
p2899
sg414
(lp2900
sg416
g63
sg417
Nsg418
(lp2901
I57
aI31
asg420
Nsg421
g2899
sg422
(lp2902
sg424
g383
sg425
Nsg426
Nsg427
Nsbag2
(g3
g4
Ntp2903
Rp2904
(dp2905
g8
g11
sg405
Nsg406
(dp2906
sg408
Nsg26
g29
sg409
(lp2907
I57
aI32
asg411
Nsg412
VTamid 29a:32
p2908
sg414
(lp2909
sg416
g63
sg417
Nsg418
(lp2910
I57
aI32
asg420
Nsg421
g2908
sg422
(lp2911
sg424
g383
sg425
Nsg426
Nsg427
Nsbag2
(g3
g4
Ntp2912
Rp2913
(dp2914
g8
g11
sg405
Nsg406
(dp2915
sg408
Nsg26
g29
sg409
(lp2916
I58
aI1
asg411
Nsg412
VTamid 29b:1
p2917
sg414
(lp2918
sg416
g63
sg417
Nsg418
(lp2919
I58
aI1
asg420
Nsg421
g2917
sg422
(lp2920
sg424
g383
sg425
Nsg426
Nsg427
Nsbag2
(g3
g4
Ntp2921
Rp2922
(dp2923
g8
g11
sg405
Nsg406
(dp2924
sg408
Nsg26
g29
sg409
(lp2925
I58
aI2
asg411
Nsg412
VTamid 29b:2
p2926
sg414
(lp2927
sg416
g63
sg417
Nsg418
(lp2928
I58
aI2
asg420
Nsg421
g2926
sg422
(lp2929
sg424
g383
sg425
Nsg426
Nsg427
Nsbag2
(g3
g4
Ntp2930
Rp2931
(dp2932
g8
g11
sg405
Nsg406
(dp2933
sg408
Nsg26
g29
sg409
(lp2934
I58
aI3
asg411
Nsg412
VTamid 29b:3
p2935
sg414
(lp2936
sg416
g63
sg417
Nsg418
(lp2937
I58
aI3
asg420
Nsg421
g2935
sg422
(lp2938
sg424
g383
sg425
Nsg426
Nsg427
Nsbag2
(g3
g4
Ntp2939
Rp2940
(dp2941
g8
g11
sg405
Nsg406
(dp2942
sg408
Nsg26
g29
sg409
(lp2943
I58
aI4
asg411
Nsg412
VTamid 29b:4
p2944
sg414
(lp2945
sg416
g63
sg417
Nsg418
(lp2946
I58
aI4
asg420
Nsg421
g2944
sg422
(lp2947
sg424
g383
sg425
Nsg426
Nsg427
Nsbag2
(g3
g4
Ntp2948
Rp2949
(dp2950
g8
g11
sg405
Nsg406
(dp2951
sg408
Nsg26
g29
sg409
(lp2952
I58
aI5
asg411
Nsg412
VTamid 29b:5
p2953
sg414
(lp2954
sg416
g63
sg417
Nsg418
(lp2955
I58
aI5
asg420
Nsg421
g2953
sg422
(lp2956
sg424
g383
sg425
Nsg426
Nsg427
Nsbag2
(g3
g4
Ntp2957
Rp2958
(dp2959
g8
g11
sg405
Nsg406
(dp2960
sg408
Nsg26
g29
sg409
(lp2961
I58
aI6
asg411
Nsg412
VTamid 29b:6
p2962
sg414
(lp2963
sg416
g63
sg417
Nsg418
(lp2964
I58
aI6
asg420
Nsg421
g2962
sg422
(lp2965
sg424
g383
sg425
Nsg426
Nsg427
Nsbag2
(g3
g4
Ntp2966
Rp2967
(dp2968
g8
g11
sg405
Nsg406
(dp2969
sg408
Nsg26
g29
sg409
(lp2970
I58
aI7
asg411
Nsg412
VTamid 29b:7
p2971
sg414
(lp2972
sg416
g63
sg417
Nsg418
(lp2973
I58
aI7
asg420
Nsg421
g2971
sg422
(lp2974
sg424
g383
sg425
Nsg426
Nsg427
Nsbag2
(g3
g4
Ntp2975
Rp2976
(dp2977
g8
g11
sg405
Nsg406
(dp2978
sg408
Nsg26
g29
sg409
(lp2979
I58
aI8
asg411
Nsg412
VTamid 29b:8
p2980
sg414
(lp2981
sg416
g63
sg417
Nsg418
(lp2982
I58
aI8
asg420
Nsg421
g2980
sg422
(lp2983
sg424
g383
sg425
Nsg426
Nsg427
Nsbag2
(g3
g4
Ntp2984
Rp2985
(dp2986
g8
g11
sg405
Nsg406
(dp2987
sg408
Nsg26
g29
sg409
(lp2988
I58
aI9
asg411
Nsg412
VTamid 29b:9
p2989
sg414
(lp2990
sg416
g63
sg417
Nsg418
(lp2991
I58
aI9
asg420
Nsg421
g2989
sg422
(lp2992
sg424
g383
sg425
Nsg426
Nsg427
Nsbag2
(g3
g4
Ntp2993
Rp2994
(dp2995
g8
g11
sg405
Nsg406
(dp2996
sg408
Nsg26
g29
sg409
(lp2997
I58
aI10
asg411
Nsg412
VTamid 29b:10
p2998
sg414
(lp2999
sg416
g63
sg417
Nsg418
(lp3000
I58
aI10
asg420
Nsg421
g2998
sg422
(lp3001
sg424
g383
sg425
Nsg426
Nsg427
Nsbag2
(g3
g4
Ntp3002
Rp3003
(dp3004
g8
g11
sg405
Nsg406
(dp3005
sg408
Nsg26
g29
sg409
(lp3006
I58
aI11
asg411
Nsg412
VTamid 29b:11
p3007
sg414
(lp3008
sg416
g63
sg417
Nsg418
(lp3009
I58
aI11
asg420
Nsg421
g3007
sg422
(lp3010
sg424
g383
sg425
Nsg426
Nsg427
Nsbag2
(g3
g4
Ntp3011
Rp3012
(dp3013
g8
g11
sg405
Nsg406
(dp3014
sg408
Nsg26
g29
sg409
(lp3015
I58
aI12
asg411
Nsg412
VTamid 29b:12
p3016
sg414
(lp3017
sg416
g63
sg417
Nsg418
(lp3018
I58
aI12
asg420
Nsg421
g3016
sg422
(lp3019
sg424
g383
sg425
Nsg426
Nsg427
Nsbag2
(g3
g4
Ntp3020
Rp3021
(dp3022
g8
g11
sg405
Nsg406
(dp3023
sg408
Nsg26
g29
sg409
(lp3024
I58
aI13
asg411
Nsg412
VTamid 29b:13
p3025
sg414
(lp3026
sg416
g63
sg417
Nsg418
(lp3027
I58
aI13
asg420
Nsg421
g3025
sg422
(lp3028
sg424
g383
sg425
Nsg426
Nsg427
Nsbag2
(g3
g4
Ntp3029
Rp3030
(dp3031
g8
g11
sg405
Nsg406
(dp3032
sg408
Nsg26
g29
sg409
(lp3033
I58
aI14
asg411
Nsg412
VTamid 29b:14
p3034
sg414
(lp3035
sg416
g63
sg417
Nsg418
(lp3036
I58
aI14
asg420
Nsg421
g3034
sg422
(lp3037
sg424
g383
sg425
Nsg426
Nsg427
Nsbag2
(g3
g4
Ntp3038
Rp3039
(dp3040
g8
g11
sg405
Nsg406
(dp3041
sg408
Nsg26
g29
sg409
(lp3042
I58
aI15
asg411
Nsg412
VTamid 29b:15
p3043
sg414
(lp3044
sg416
g63
sg417
Nsg418
(lp3045
I58
aI15
asg420
Nsg421
g3043
sg422
(lp3046
sg424
g383
sg425
Nsg426
Nsg427
Nsbag2
(g3
g4
Ntp3047
Rp3048
(dp3049
g8
g11
sg405
Nsg406
(dp3050
sg408
Nsg26
g29
sg409
(lp3051
I58
aI16
asg411
Nsg412
VTamid 29b:16
p3052
sg414
(lp3053
sg416
g63
sg417
Nsg418
(lp3054
I58
aI16
asg420
Nsg421
g3052
sg422
(lp3055
sg424
g383
sg425
Nsg426
Nsg427
Nsbag2
(g3
g4
Ntp3056
Rp3057
(dp3058
g8
g11
sg405
Nsg406
(dp3059
sg408
Nsg26
g29
sg409
(lp3060
I58
aI17
asg411
Nsg412
VTamid 29b:17
p3061
sg414
(lp3062
sg416
g63
sg417
Nsg418
(lp3063
I58
aI17
asg420
Nsg421
g3061
sg422
(lp3064
sg424
g383
sg425
Nsg426
Nsg427
Nsbag2
(g3
g4
Ntp3065
Rp3066
(dp3067
g8
g11
sg405
Nsg406
(dp3068
sg408
Nsg26
g29
sg409
(lp3069
I58
aI18
asg411
Nsg412
VTamid 29b:18
p3070
sg414
(lp3071
sg416
g63
sg417
Nsg418
(lp3072
I58
aI18
asg420
Nsg421
g3070
sg422
(lp3073
sg424
g383
sg425
Nsg426
Nsg427
Nsbag2
(g3
g4
Ntp3074
Rp3075
(dp3076
g8
g11
sg405
Nsg406
(dp3077
sg408
Nsg26
g29
sg409
(lp3078
I58
aI19
asg411
Nsg412
VTamid 29b:19
p3079
sg414
(lp3080
sg416
g63
sg417
Nsg418
(lp3081
I58
aI19
asg420
Nsg421
g3079
sg422
(lp3082
sg424
g383
sg425
Nsg426
Nsg427
Nsbag2
(g3
g4
Ntp3083
Rp3084
(dp3085
g8
g11
sg405
Nsg406
(dp3086
sg408
Nsg26
g29
sg409
(lp3087
I58
aI20
asg411
Nsg412
VTamid 29b:20
p3088
sg414
(lp3089
sg416
g63
sg417
Nsg418
(lp3090
I58
aI20
asg420
Nsg421
g3088
sg422
(lp3091
sg424
g383
sg425
Nsg426
Nsg427
Nsbag2
(g3
g4
Ntp3092
Rp3093
(dp3094
g8
g11
sg405
Nsg406
(dp3095
sg408
Nsg26
g29
sg409
(lp3096
I58
aI21
asg411
Nsg412
VTamid 29b:21
p3097
sg414
(lp3098
sg416
g63
sg417
Nsg418
(lp3099
I58
aI21
asg420
Nsg421
g3097
sg422
(lp3100
sg424
g383
sg425
Nsg426
Nsg427
Nsbag2
(g3
g4
Ntp3101
Rp3102
(dp3103
g8
g11
sg405
Nsg406
(dp3104
sg408
Nsg26
g29
sg409
(lp3105
I58
aI22
asg411
Nsg412
VTamid 29b:22
p3106
sg414
(lp3107
sg416
g63
sg417
Nsg418
(lp3108
I58
aI22
asg420
Nsg421
g3106
sg422
(lp3109
sg424
g383
sg425
Nsg426
Nsg427
Nsbag2
(g3
g4
Ntp3110
Rp3111
(dp3112
g8
g11
sg405
Nsg406
(dp3113
sg408
Nsg26
g29
sg409
(lp3114
I58
aI23
asg411
Nsg412
VTamid 29b:23
p3115
sg414
(lp3116
sg416
g63
sg417
Nsg418
(lp3117
I58
aI23
asg420
Nsg421
g3115
sg422
(lp3118
sg424
g383
sg425
Nsg426
Nsg427
Nsbag2
(g3
g4
Ntp3119
Rp3120
(dp3121
g8
g11
sg405
Nsg406
(dp3122
sg408
Nsg26
g29
sg409
(lp3123
I58
aI24
asg411
Nsg412
VTamid 29b:24
p3124
sg414
(lp3125
sg416
g63
sg417
Nsg418
(lp3126
I58
aI24
asg420
Nsg421
g3124
sg422
(lp3127
sg424
g383
sg425
Nsg426
Nsg427
Nsbag2
(g3
g4
Ntp3128
Rp3129
(dp3130
g8
g11
sg405
Nsg406
(dp3131
sg408
Nsg26
g29
sg409
(lp3132
I58
aI25
asg411
Nsg412
VTamid 29b:25
p3133
sg414
(lp3134
sg416
g63
sg417
Nsg418
(lp3135
I58
aI25
asg420
Nsg421
g3133
sg422
(lp3136
sg424
g383
sg425
Nsg426
Nsg427
Nsbag2
(g3
g4
Ntp3137
Rp3138
(dp3139
g8
g11
sg405
Nsg406
(dp3140
sg408
Nsg26
g29
sg409
(lp3141
I58
aI26
asg411
Nsg412
VTamid 29b:26
p3142
sg414
(lp3143
sg416
g63
sg417
Nsg418
(lp3144
I58
aI26
asg420
Nsg421
g3142
sg422
(lp3145
sg424
g383
sg425
Nsg426
Nsg427
Nsbag2
(g3
g4
Ntp3146
Rp3147
(dp3148
g8
g11
sg405
Nsg406
(dp3149
sg408
Nsg26
g29
sg409
(lp3150
I58
aI27
asg411
Nsg412
VTamid 29b:27
p3151
sg414
(lp3152
sg416
g63
sg417
Nsg418
(lp3153
I58
aI27
asg420
Nsg421
g3151
sg422
(lp3154
sg424
g383
sg425
Nsg426
Nsg427
Nsbag2
(g3
g4
Ntp3155
Rp3156
(dp3157
g8
g11
sg405
Nsg406
(dp3158
sg408
Nsg26
g29
sg409
(lp3159
I58
aI28
asg411
Nsg412
VTamid 29b:28
p3160
sg414
(lp3161
sg416
g63
sg417
Nsg418
(lp3162
I58
aI28
asg420
Nsg421
g3160
sg422
(lp3163
sg424
g383
sg425
Nsg426
Nsg427
Nsbag2
(g3
g4
Ntp3164
Rp3165
(dp3166
g8
g11
sg405
Nsg406
(dp3167
sg408
Nsg26
g29
sg409
(lp3168
I58
aI29
asg411
Nsg412
VTamid 29b:29
p3169
sg414
(lp3170
sg416
g63
sg417
Nsg418
(lp3171
I58
aI29
asg420
Nsg421
g3169
sg422
(lp3172
sg424
g383
sg425
Nsg426
Nsg427
Nsbag2
(g3
g4
Ntp3173
Rp3174
(dp3175
g8
g11
sg405
Nsg406
(dp3176
sg408
Nsg26
g29
sg409
(lp3177
I58
aI30
asg411
Nsg412
VTamid 29b:30
p3178
sg414
(lp3179
sg416
g63
sg417
Nsg418
(lp3180
I58
aI30
asg420
Nsg421
g3178
sg422
(lp3181
sg424
g383
sg425
Nsg426
Nsg427
Nsbag2
(g3
g4
Ntp3182
Rp3183
(dp3184
g8
g11
sg405
Nsg406
(dp3185
sg408
Nsg26
g29
sg409
(lp3186
I58
aI31
asg411
Nsg412
VTamid 29b:31
p3187
sg414
(lp3188
sg416
g63
sg417
Nsg418
(lp3189
I58
aI31
asg420
Nsg421
g3187
sg422
(lp3190
sg424
g383
sg425
Nsg426
Nsg427
Nsbag2
(g3
g4
Ntp3191
Rp3192
(dp3193
g8
g11
sg405
Nsg406
(dp3194
sg408
Nsg26
g29
sg409
(lp3195
I58
aI32
asg411
Nsg412
VTamid 29b:32
p3196
sg414
(lp3197
sg416
g63
sg417
Nsg418
(lp3198
I58
aI32
asg420
Nsg421
g3196
sg422
(lp3199
sg424
g383
sg425
Nsg426
Nsg427
Nsbag2
(g3
g4
Ntp3200
Rp3201
(dp3202
g8
g11
sg405
Nsg406
(dp3203
sg408
Nsg26
g29
sg409
(lp3204
I59
aI1
asg411
Nsg412
VTamid 30a:1
p3205
sg414
(lp3206
sg416
g63
sg417
Nsg418
(lp3207
I59
aI1
asg420
Nsg421
g3205
sg422
(lp3208
sg424
g383
sg425
Nsg426
Nsg427
Nsbag2
(g3
g4
Ntp3209
Rp3210
(dp3211
g8
g11
sg405
Nsg406
(dp3212
sg408
Nsg26
g29
sg409
(lp3213
I59
aI2
asg411
Nsg412
VTamid 30a:2
p3214
sg414
(lp3215
sg416
g63
sg417
Nsg418
(lp3216
I59
aI2
asg420
Nsg421
g3214
sg422
(lp3217
sg424
g383
sg425
Nsg426
Nsg427
Nsbag2
(g3
g4
Ntp3218
Rp3219
(dp3220
g8
g11
sg405
Nsg406
(dp3221
sg408
Nsg26
g29
sg409
(lp3222
I59
aI3
asg411
Nsg412
VTamid 30a:3
p3223
sg414
(lp3224
sg416
g63
sg417
Nsg418
(lp3225
I59
aI3
asg420
Nsg421
g3223
sg422
(lp3226
sg424
g383
sg425
Nsg426
Nsg427
Nsbag2
(g3
g4
Ntp3227
Rp3228
(dp3229
g8
g11
sg405
Nsg406
(dp3230
sg408
Nsg26
g29
sg409
(lp3231
I59
aI4
asg411
Nsg412
VTamid 30a:4
p3232
sg414
(lp3233
sg416
g63
sg417
Nsg418
(lp3234
I59
aI4
asg420
Nsg421
g3232
sg422
(lp3235
sg424
g383
sg425
Nsg426
Nsg427
Nsbag2
(g3
g4
Ntp3236
Rp3237
(dp3238
g8
g11
sg405
Nsg406
(dp3239
sg408
Nsg26
g29
sg409
(lp3240
I59
aI5
asg411
Nsg412
VTamid 30a:5
p3241
sg414
(lp3242
sg416
g63
sg417
Nsg418
(lp3243
I59
aI5
asg420
Nsg421
g3241
sg422
(lp3244
sg424
g383
sg425
Nsg426
Nsg427
Nsbag2
(g3
g4
Ntp3245
Rp3246
(dp3247
g8
g11
sg405
Nsg406
(dp3248
sg408
Nsg26
g29
sg409
(lp3249
I59
aI6
asg411
Nsg412
VTamid 30a:6
p3250
sg414
(lp3251
sg416
g63
sg417
Nsg418
(lp3252
I59
aI6
asg420
Nsg421
g3250
sg422
(lp3253
sg424
g383
sg425
Nsg426
Nsg427
Nsbag2
(g3
g4
Ntp3254
Rp3255
(dp3256
g8
g11
sg405
Nsg406
(dp3257
sg408
Nsg26
g29
sg409
(lp3258
I59
aI7
asg411
Nsg412
VTamid 30a:7
p3259
sg414
(lp3260
sg416
g63
sg417
Nsg418
(lp3261
I59
aI7
asg420
Nsg421
g3259
sg422
(lp3262
sg424
g383
sg425
Nsg426
Nsg427
Nsbag2
(g3
g4
Ntp3263
Rp3264
(dp3265
g8
g11
sg405
Nsg406
(dp3266
sg408
Nsg26
g29
sg409
(lp3267
I59
aI8
asg411
Nsg412
VTamid 30a:8
p3268
sg414
(lp3269
sg416
g63
sg417
Nsg418
(lp3270
I59
aI8
asg420
Nsg421
g3268
sg422
(lp3271
sg424
g383
sg425
Nsg426
Nsg427
Nsbag2
(g3
g4
Ntp3272
Rp3273
(dp3274
g8
g11
sg405
Nsg406
(dp3275
sg408
Nsg26
g29
sg409
(lp3276
I59
aI9
asg411
Nsg412
VTamid 30a:9
p3277
sg414
(lp3278
sg416
g63
sg417
Nsg418
(lp3279
I59
aI9
asg420
Nsg421
g3277
sg422
(lp3280
sg424
g383
sg425
Nsg426
Nsg427
Nsbag2
(g3
g4
Ntp3281
Rp3282
(dp3283
g8
g11
sg405
Nsg406
(dp3284
sg408
Nsg26
g29
sg409
(lp3285
I59
aI10
asg411
Nsg412
VTamid 30a:10
p3286
sg414
(lp3287
sg416
g63
sg417
Nsg418
(lp3288
I59
aI10
asg420
Nsg421
g3286
sg422
(lp3289
sg424
g383
sg425
Nsg426
Nsg427
Nsbag2
(g3
g4
Ntp3290
Rp3291
(dp3292
g8
g11
sg405
Nsg406
(dp3293
sg408
Nsg26
g29
sg409
(lp3294
I59
aI11
asg411
Nsg412
VTamid 30a:11
p3295
sg414
(lp3296
sg416
g63
sg417
Nsg418
(lp3297
I59
aI11
asg420
Nsg421
g3295
sg422
(lp3298
sg424
g383
sg425
Nsg426
Nsg427
Nsbag2
(g3
g4
Ntp3299
Rp3300
(dp3301
g8
g11
sg405
Nsg406
(dp3302
sg408
Nsg26
g29
sg409
(lp3303
I59
aI12
asg411
Nsg412
VTamid 30a:12
p3304
sg414
(lp3305
sg416
g63
sg417
Nsg418
(lp3306
I59
aI12
asg420
Nsg421
g3304
sg422
(lp3307
sg424
g383
sg425
Nsg426
Nsg427
Nsbag2
(g3
g4
Ntp3308
Rp3309
(dp3310
g8
g11
sg405
Nsg406
(dp3311
sg408
Nsg26
g29
sg409
(lp3312
I59
aI13
asg411
Nsg412
VTamid 30a:13
p3313
sg414
(lp3314
sg416
g63
sg417
Nsg418
(lp3315
I59
aI13
asg420
Nsg421
g3313
sg422
(lp3316
sg424
g383
sg425
Nsg426
Nsg427
Nsbag2
(g3
g4
Ntp3317
Rp3318
(dp3319
g8
g11
sg405
Nsg406
(dp3320
sg408
Nsg26
g29
sg409
(lp3321
I59
aI14
asg411
Nsg412
VTamid 30a:14
p3322
sg414
(lp3323
sg416
g63
sg417
Nsg418
(lp3324
I59
aI14
asg420
Nsg421
g3322
sg422
(lp3325
sg424
g383
sg425
Nsg426
Nsg427
Nsbag2
(g3
g4
Ntp3326
Rp3327
(dp3328
g8
g11
sg405
Nsg406
(dp3329
sg408
Nsg26
g29
sg409
(lp3330
I59
aI15
asg411
Nsg412
VTamid 30a:15
p3331
sg414
(lp3332
sg416
g63
sg417
Nsg418
(lp3333
I59
aI15
asg420
Nsg421
g3331
sg422
(lp3334
sg424
g383
sg425
Nsg426
Nsg427
Nsbag2
(g3
g4
Ntp3335
Rp3336
(dp3337
g8
g11
sg405
Nsg406
(dp3338
sg408
Nsg26
g29
sg409
(lp3339
I59
aI16
asg411
Nsg412
VTamid 30a:16
p3340
sg414
(lp3341
sg416
g63
sg417
Nsg418
(lp3342
I59
aI16
asg420
Nsg421
g3340
sg422
(lp3343
sg424
g383
sg425
Nsg426
Nsg427
Nsbag2
(g3
g4
Ntp3344
Rp3345
(dp3346
g8
g11
sg405
Nsg406
(dp3347
sg408
Nsg26
g29
sg409
(lp3348
I59
aI17
asg411
Nsg412
VTamid 30a:17
p3349
sg414
(lp3350
sg416
g63
sg417
Nsg418
(lp3351
I59
aI17
asg420
Nsg421
g3349
sg422
(lp3352
sg424
g383
sg425
Nsg426
Nsg427
Nsbag2
(g3
g4
Ntp3353
Rp3354
(dp3355
g8
g11
sg405
Nsg406
(dp3356
sg408
Nsg26
g29
sg409
(lp3357
I59
aI18
asg411
Nsg412
VTamid 30a:18
p3358
sg414
(lp3359
sg416
g63
sg417
Nsg418
(lp3360
I59
aI18
asg420
Nsg421
g3358
sg422
(lp3361
sg424
g383
sg425
Nsg426
Nsg427
Nsbag2
(g3
g4
Ntp3362
Rp3363
(dp3364
g8
g11
sg405
Nsg406
(dp3365
sg408
Nsg26
g29
sg409
(lp3366
I59
aI19
asg411
Nsg412
VTamid 30a:19
p3367
sg414
(lp3368
sg416
g63
sg417
Nsg418
(lp3369
I59
aI19
asg420
Nsg421
g3367
sg422
(lp3370
sg424
g383
sg425
Nsg426
Nsg427
Nsbag2
(g3
g4
Ntp3371
Rp3372
(dp3373
g8
g11
sg405
Nsg406
(dp3374
sg408
Nsg26
g29
sg409
(lp3375
I59
aI20
asg411
Nsg412
VTamid 30a:20
p3376
sg414
(lp3377
sg416
g63
sg417
Nsg418
(lp3378
I59
aI20
asg420
Nsg421
g3376
sg422
(lp3379
sg424
g383
sg425
Nsg426
Nsg427
Nsbag2
(g3
g4
Ntp3380
Rp3381
(dp3382
g8
g11
sg405
Nsg406
(dp3383
sg408
Nsg26
g29
sg409
(lp3384
I59
aI21
asg411
Nsg412
VTamid 30a:21
p3385
sg414
(lp3386
sg416
g63
sg417
Nsg418
(lp3387
I59
aI21
asg420
Nsg421
g3385
sg422
(lp3388
sg424
g383
sg425
Nsg426
Nsg427
Nsbag2
(g3
g4
Ntp3389
Rp3390
(dp3391
g8
g11
sg405
Nsg406
(dp3392
sg408
Nsg26
g29
sg409
(lp3393
I59
aI22
asg411
Nsg412
VTamid 30a:22
p3394
sg414
(lp3395
sg416
g63
sg417
Nsg418
(lp3396
I59
aI22
asg420
Nsg421
g3394
sg422
(lp3397
sg424
g383
sg425
Nsg426
Nsg427
Nsbag2
(g3
g4
Ntp3398
Rp3399
(dp3400
g8
g11
sg405
Nsg406
(dp3401
sg408
Nsg26
g29
sg409
(lp3402
I59
aI23
asg411
Nsg412
VTamid 30a:23
p3403
sg414
(lp3404
sg416
g63
sg417
Nsg418
(lp3405
I59
aI23
asg420
Nsg421
g3403
sg422
(lp3406
sg424
g383
sg425
Nsg426
Nsg427
Nsbag2
(g3
g4
Ntp3407
Rp3408
(dp3409
g8
g11
sg405
Nsg406
(dp3410
sg408
Nsg26
g29
sg409
(lp3411
I59
aI24
asg411
Nsg412
VTamid 30a:24
p3412
sg414
(lp3413
sg416
g63
sg417
Nsg418
(lp3414
I59
aI24
asg420
Nsg421
g3412
sg422
(lp3415
sg424
g383
sg425
Nsg426
Nsg427
Nsbag2
(g3
g4
Ntp3416
Rp3417
(dp3418
g8
g11
sg405
Nsg406
(dp3419
sg408
Nsg26
g29
sg409
(lp3420
I59
aI25
asg411
Nsg412
VTamid 30a:25
p3421
sg414
(lp3422
sg416
g63
sg417
Nsg418
(lp3423
I59
aI25
asg420
Nsg421
g3421
sg422
(lp3424
sg424
g383
sg425
Nsg426
Nsg427
Nsbag2
(g3
g4
Ntp3425
Rp3426
(dp3427
g8
g11
sg405
Nsg406
(dp3428
sg408
Nsg26
g29
sg409
(lp3429
I59
aI26
asg411
Nsg412
VTamid 30a:26
p3430
sg414
(lp3431
sg416
g63
sg417
Nsg418
(lp3432
I59
aI26
asg420
Nsg421
g3430
sg422
(lp3433
sg424
g383
sg425
Nsg426
Nsg427
Nsbag2
(g3
g4
Ntp3434
Rp3435
(dp3436
g8
g11
sg405
Nsg406
(dp3437
sg408
Nsg26
g29
sg409
(lp3438
I59
aI27
asg411
Nsg412
VTamid 30a:27
p3439
sg414
(lp3440
sg416
g63
sg417
Nsg418
(lp3441
I59
aI27
asg420
Nsg421
g3439
sg422
(lp3442
sg424
g383
sg425
Nsg426
Nsg427
Nsbag2
(g3
g4
Ntp3443
Rp3444
(dp3445
g8
g11
sg405
Nsg406
(dp3446
sg408
Nsg26
g29
sg409
(lp3447
I59
aI28
asg411
Nsg412
VTamid 30a:28
p3448
sg414
(lp3449
sg416
g63
sg417
Nsg418
(lp3450
I59
aI28
asg420
Nsg421
g3448
sg422
(lp3451
sg424
g383
sg425
Nsg426
Nsg427
Nsbag2
(g3
g4
Ntp3452
Rp3453
(dp3454
g8
g11
sg405
Nsg406
(dp3455
sg408
Nsg26
g29
sg409
(lp3456
I59
aI29
asg411
Nsg412
VTamid 30a:29
p3457
sg414
(lp3458
sg416
g63
sg417
Nsg418
(lp3459
I59
aI29
asg420
Nsg421
g3457
sg422
(lp3460
sg424
g383
sg425
Nsg426
Nsg427
Nsbag2
(g3
g4
Ntp3461
Rp3462
(dp3463
g8
g11
sg405
Nsg406
(dp3464
sg408
Nsg26
g29
sg409
(lp3465
I60
aI1
asg411
Nsg412
VTamid 30b:1
p3466
sg414
(lp3467
sg416
g63
sg417
Nsg418
(lp3468
I60
aI1
asg420
Nsg421
g3466
sg422
(lp3469
sg424
g383
sg425
Nsg426
Nsg427
Nsbag2
(g3
g4
Ntp3470
Rp3471
(dp3472
g8
g11
sg405
Nsg406
(dp3473
sg408
Nsg26
g29
sg409
(lp3474
I60
aI2
asg411
Nsg412
VTamid 30b:2
p3475
sg414
(lp3476
sg416
g63
sg417
Nsg418
(lp3477
I60
aI2
asg420
Nsg421
g3475
sg422
(lp3478
sg424
g383
sg425
Nsg426
Nsg427
Nsbag2
(g3
g4
Ntp3479
Rp3480
(dp3481
g8
g11
sg405
Nsg406
(dp3482
sg408
Nsg26
g29
sg409
(lp3483
I60
aI3
asg411
Nsg412
VTamid 30b:3
p3484
sg414
(lp3485
sg416
g63
sg417
Nsg418
(lp3486
I60
aI3
asg420
Nsg421
g3484
sg422
(lp3487
sg424
g383
sg425
Nsg426
Nsg427
Nsbag2
(g3
g4
Ntp3488
Rp3489
(dp3490
g8
g11
sg405
Nsg406
(dp3491
sg408
Nsg26
g29
sg409
(lp3492
I60
aI4
asg411
Nsg412
VTamid 30b:4
p3493
sg414
(lp3494
sg416
g63
sg417
Nsg418
(lp3495
I60
aI4
asg420
Nsg421
g3493
sg422
(lp3496
sg424
g383
sg425
Nsg426
Nsg427
Nsbag2
(g3
g4
Ntp3497
Rp3498
(dp3499
g8
g11
sg405
Nsg406
(dp3500
sg408
Nsg26
g29
sg409
(lp3501
I60
aI5
asg411
Nsg412
VTamid 30b:5
p3502
sg414
(lp3503
sg416
g63
sg417
Nsg418
(lp3504
I60
aI5
asg420
Nsg421
g3502
sg422
(lp3505
sg424
g383
sg425
Nsg426
Nsg427
Nsbag2
(g3
g4
Ntp3506
Rp3507
(dp3508
g8
g11
sg405
Nsg406
(dp3509
sg408
Nsg26
g29
sg409
(lp3510
I60
aI6
asg411
Nsg412
VTamid 30b:6
p3511
sg414
(lp3512
sg416
g63
sg417
Nsg418
(lp3513
I60
aI6
asg420
Nsg421
g3511
sg422
(lp3514
sg424
g383
sg425
Nsg426
Nsg427
Nsbag2
(g3
g4
Ntp3515
Rp3516
(dp3517
g8
g11
sg405
Nsg406
(dp3518
sg408
Nsg26
g29
sg409
(lp3519
I60
aI7
asg411
Nsg412
VTamid 30b:7
p3520
sg414
(lp3521
sg416
g63
sg417
Nsg418
(lp3522
I60
aI7
asg420
Nsg421
g3520
sg422
(lp3523
sg424
g383
sg425
Nsg426
Nsg427
Nsbag2
(g3
g4
Ntp3524
Rp3525
(dp3526
g8
g11
sg405
Nsg406
(dp3527
sg408
Nsg26
g29
sg409
(lp3528
I60
aI8
asg411
Nsg412
VTamid 30b:8
p3529
sg414
(lp3530
sg416
g63
sg417
Nsg418
(lp3531
I60
aI8
asg420
Nsg421
g3529
sg422
(lp3532
sg424
g383
sg425
Nsg426
Nsg427
Nsbag2
(g3
g4
Ntp3533
Rp3534
(dp3535
g8
g11
sg405
Nsg406
(dp3536
sg408
Nsg26
g29
sg409
(lp3537
I60
aI9
asg411
Nsg412
VTamid 30b:9
p3538
sg414
(lp3539
sg416
g63
sg417
Nsg418
(lp3540
I60
aI9
asg420
Nsg421
g3538
sg422
(lp3541
sg424
g383
sg425
Nsg426
Nsg427
Nsbag2
(g3
g4
Ntp3542
Rp3543
(dp3544
g8
g11
sg405
Nsg406
(dp3545
sg408
Nsg26
g29
sg409
(lp3546
I60
aI10
asg411
Nsg412
VTamid 30b:10
p3547
sg414
(lp3548
sg416
g63
sg417
Nsg418
(lp3549
I60
aI10
asg420
Nsg421
g3547
sg422
(lp3550
sg424
g383
sg425
Nsg426
Nsg427
Nsbag2
(g3
g4
Ntp3551
Rp3552
(dp3553
g8
g11
sg405
Nsg406
(dp3554
sg408
Nsg26
g29
sg409
(lp3555
I60
aI11
asg411
Nsg412
VTamid 30b:11
p3556
sg414
(lp3557
sg416
g63
sg417
Nsg418
(lp3558
I60
aI11
asg420
Nsg421
g3556
sg422
(lp3559
sg424
g383
sg425
Nsg426
Nsg427
Nsbag2
(g3
g4
Ntp3560
Rp3561
(dp3562
g8
g11
sg405
Nsg406
(dp3563
sg408
Nsg26
g29
sg409
(lp3564
I60
aI12
asg411
Nsg412
VTamid 30b:12
p3565
sg414
(lp3566
sg416
g63
sg417
Nsg418
(lp3567
I60
aI12
asg420
Nsg421
g3565
sg422
(lp3568
sg424
g383
sg425
Nsg426
Nsg427
Nsbag2
(g3
g4
Ntp3569
Rp3570
(dp3571
g8
g11
sg405
Nsg406
(dp3572
sg408
Nsg26
g29
sg409
(lp3573
I60
aI13
asg411
Nsg412
VTamid 30b:13
p3574
sg414
(lp3575
sg416
g63
sg417
Nsg418
(lp3576
I60
aI13
asg420
Nsg421
g3574
sg422
(lp3577
sg424
g383
sg425
Nsg426
Nsg427
Nsbag2
(g3
g4
Ntp3578
Rp3579
(dp3580
g8
g11
sg405
Nsg406
(dp3581
sg408
Nsg26
g29
sg409
(lp3582
I60
aI14
asg411
Nsg412
VTamid 30b:14
p3583
sg414
(lp3584
sg416
g63
sg417
Nsg418
(lp3585
I60
aI14
asg420
Nsg421
g3583
sg422
(lp3586
sg424
g383
sg425
Nsg426
Nsg427
Nsbag2
(g3
g4
Ntp3587
Rp3588
(dp3589
g8
g11
sg405
Nsg406
(dp3590
sg408
Nsg26
g29
sg409
(lp3591
I60
aI15
asg411
Nsg412
VTamid 30b:15
p3592
sg414
(lp3593
sg416
g63
sg417
Nsg418
(lp3594
I60
aI15
asg420
Nsg421
g3592
sg422
(lp3595
sg424
g383
sg425
Nsg426
Nsg427
Nsbag2
(g3
g4
Ntp3596
Rp3597
(dp3598
g8
g11
sg405
Nsg406
(dp3599
sg408
Nsg26
g29
sg409
(lp3600
I60
aI16
asg411
Nsg412
VTamid 30b:16
p3601
sg414
(lp3602
sg416
g63
sg417
Nsg418
(lp3603
I60
aI16
asg420
Nsg421
g3601
sg422
(lp3604
sg424
g383
sg425
Nsg426
Nsg427
Nsbag2
(g3
g4
Ntp3605
Rp3606
(dp3607
g8
g11
sg405
Nsg406
(dp3608
sg408
Nsg26
g29
sg409
(lp3609
I60
aI17
asg411
Nsg412
VTamid 30b:17
p3610
sg414
(lp3611
sg416
g63
sg417
Nsg418
(lp3612
I60
aI17
asg420
Nsg421
g3610
sg422
(lp3613
sg424
g383
sg425
Nsg426
Nsg427
Nsbag2
(g3
g4
Ntp3614
Rp3615
(dp3616
g8
g11
sg405
Nsg406
(dp3617
sg408
Nsg26
g29
sg409
(lp3618
I60
aI18
asg411
Nsg412
VTamid 30b:18
p3619
sg414
(lp3620
sg416
g63
sg417
Nsg418
(lp3621
I60
aI18
asg420
Nsg421
g3619
sg422
(lp3622
sg424
g383
sg425
Nsg426
Nsg427
Nsbag2
(g3
g4
Ntp3623
Rp3624
(dp3625
g8
g11
sg405
Nsg406
(dp3626
sg408
Nsg26
g29
sg409
(lp3627
I60
aI19
asg411
Nsg412
VTamid 30b:19
p3628
sg414
(lp3629
sg416
g63
sg417
Nsg418
(lp3630
I60
aI19
asg420
Nsg421
g3628
sg422
(lp3631
sg424
g383
sg425
Nsg426
Nsg427
Nsbag2
(g3
g4
Ntp3632
Rp3633
(dp3634
g8
g11
sg405
Nsg406
(dp3635
sg408
Nsg26
g29
sg409
(lp3636
I60
aI20
asg411
Nsg412
VTamid 30b:20
p3637
sg414
(lp3638
sg416
g63
sg417
Nsg418
(lp3639
I60
aI20
asg420
Nsg421
g3637
sg422
(lp3640
sg424
g383
sg425
Nsg426
Nsg427
Nsbag2
(g3
g4
Ntp3641
Rp3642
(dp3643
g8
g11
sg405
Nsg406
(dp3644
sg408
Nsg26
g29
sg409
(lp3645
I60
aI21
asg411
Nsg412
VTamid 30b:21
p3646
sg414
(lp3647
sg416
g63
sg417
Nsg418
(lp3648
I60
aI21
asg420
Nsg421
g3646
sg422
(lp3649
sg424
g383
sg425
Nsg426
Nsg427
Nsbag2
(g3
g4
Ntp3650
Rp3651
(dp3652
g8
g11
sg405
Nsg406
(dp3653
sg408
Nsg26
g29
sg409
(lp3654
I60
aI22
asg411
Nsg412
VTamid 30b:22
p3655
sg414
(lp3656
sg416
g63
sg417
Nsg418
(lp3657
I60
aI22
asg420
Nsg421
g3655
sg422
(lp3658
sg424
g383
sg425
Nsg426
Nsg427
Nsbag2
(g3
g4
Ntp3659
Rp3660
(dp3661
g8
g11
sg405
Nsg406
(dp3662
sg408
Nsg26
g29
sg409
(lp3663
I60
aI23
asg411
Nsg412
VTamid 30b:23
p3664
sg414
(lp3665
sg416
g63
sg417
Nsg418
(lp3666
I60
aI23
asg420
Nsg421
g3664
sg422
(lp3667
sg424
g383
sg425
Nsg426
Nsg427
Nsbag2
(g3
g4
Ntp3668
Rp3669
(dp3670
g8
g11
sg405
Nsg406
(dp3671
sg408
Nsg26
g29
sg409
(lp3672
I60
aI24
asg411
Nsg412
VTamid 30b:24
p3673
sg414
(lp3674
sg416
g63
sg417
Nsg418
(lp3675
I60
aI24
asg420
Nsg421
g3673
sg422
(lp3676
sg424
g383
sg425
Nsg426
Nsg427
Nsbag2
(g3
g4
Ntp3677
Rp3678
(dp3679
g8
g11
sg405
Nsg406
(dp3680
sg408
Nsg26
g29
sg409
(lp3681
I60
aI25
asg411
Nsg412
VTamid 30b:25
p3682
sg414
(lp3683
sg416
g63
sg417
Nsg418
(lp3684
I60
aI25
asg420
Nsg421
g3682
sg422
(lp3685
sg424
g383
sg425
Nsg426
Nsg427
Nsbag2
(g3
g4
Ntp3686
Rp3687
(dp3688
g8
g11
sg405
Nsg406
(dp3689
sg408
Nsg26
g29
sg409
(lp3690
I60
aI26
asg411
Nsg412
VTamid 30b:26
p3691
sg414
(lp3692
sg416
g63
sg417
Nsg418
(lp3693
I60
aI26
asg420
Nsg421
g3691
sg422
(lp3694
sg424
g383
sg425
Nsg426
Nsg427
Nsbag2
(g3
g4
Ntp3695
Rp3696
(dp3697
g8
g11
sg405
Nsg406
(dp3698
sg408
Nsg26
g29
sg409
(lp3699
I60
aI27
asg411
Nsg412
VTamid 30b:27
p3700
sg414
(lp3701
sg416
g63
sg417
Nsg418
(lp3702
I60
aI27
asg420
Nsg421
g3700
sg422
(lp3703
sg424
g383
sg425
Nsg426
Nsg427
Nsbag2
(g3
g4
Ntp3704
Rp3705
(dp3706
g8
g11
sg405
Nsg406
(dp3707
sg408
Nsg26
g29
sg409
(lp3708
I60
aI28
asg411
Nsg412
VTamid 30b:28
p3709
sg414
(lp3710
sg416
g63
sg417
Nsg418
(lp3711
I60
aI28
asg420
Nsg421
g3709
sg422
(lp3712
sg424
g383
sg425
Nsg426
Nsg427
Nsbag2
(g3
g4
Ntp3713
Rp3714
(dp3715
g8
g11
sg405
Nsg406
(dp3716
sg408
Nsg26
g29
sg409
(lp3717
I60
aI29
asg411
Nsg412
VTamid 30b:29
p3718
sg414
(lp3719
sg416
g63
sg417
Nsg418
(lp3720
I60
aI29
asg420
Nsg421
g3718
sg422
(lp3721
sg424
g383
sg425
Nsg426
Nsg427
Nsbag2
(g3
g4
Ntp3722
Rp3723
(dp3724
g8
g11
sg405
Nsg406
(dp3725
sg408
Nsg26
g29
sg409
(lp3726
I60
aI30
asg411
Nsg412
VTamid 30b:30
p3727
sg414
(lp3728
sg416
g63
sg417
Nsg418
(lp3729
I60
aI30
asg420
Nsg421
g3727
sg422
(lp3730
sg424
g383
sg425
Nsg426
Nsg427
Nsbag2
(g3
g4
Ntp3731
Rp3732
(dp3733
g8
g11
sg405
Nsg406
(dp3734
sg408
Nsg26
g29
sg409
(lp3735
I60
aI31
asg411
Nsg412
VTamid 30b:31
p3736
sg414
(lp3737
sg416
g63
sg417
Nsg418
(lp3738
I60
aI31
asg420
Nsg421
g3736
sg422
(lp3739
sg424
g383
sg425
Nsg426
Nsg427
Nsbag2
(g3
g4
Ntp3740
Rp3741
(dp3742
g8
g11
sg405
Nsg406
(dp3743
sg408
Nsg26
g29
sg409
(lp3744
I60
aI32
asg411
Nsg412
VTamid 30b:32
p3745
sg414
(lp3746
sg416
g63
sg417
Nsg418
(lp3747
I60
aI32
asg420
Nsg421
g3745
sg422
(lp3748
sg424
g383
sg425
Nsg426
Nsg427
Nsbag2
(g3
g4
Ntp3749
Rp3750
(dp3751
g8
g11
sg405
Nsg406
(dp3752
sg408
Nsg26
g29
sg409
(lp3753
I60
aI33
asg411
Nsg412
VTamid 30b:33
p3754
sg414
(lp3755
sg416
g63
sg417
Nsg418
(lp3756
I60
aI33
asg420
Nsg421
g3754
sg422
(lp3757
sg424
g383
sg425
Nsg426
Nsg427
Nsbag2
(g3
g4
Ntp3758
Rp3759
(dp3760
g8
g11
sg405
Nsg406
(dp3761
sg408
Nsg26
g29
sg409
(lp3762
I60
aI34
asg411
Nsg412
VTamid 30b:34
p3763
sg414
(lp3764
sg416
g63
sg417
Nsg418
(lp3765
I60
aI34
asg420
Nsg421
g3763
sg422
(lp3766
sg424
g383
sg425
Nsg426
Nsg427
Nsbag2
(g3
g4
Ntp3767
Rp3768
(dp3769
g8
g11
sg405
Nsg406
(dp3770
sg408
Nsg26
g29
sg409
(lp3771
I60
aI35
asg411
Nsg412
VTamid 30b:35
p3772
sg414
(lp3773
sg416
g63
sg417
Nsg418
(lp3774
I60
aI35
asg420
Nsg421
g3772
sg422
(lp3775
sg424
g383
sg425
Nsg426
Nsg427
Nsbag2
(g3
g4
Ntp3776
Rp3777
(dp3778
g8
g11
sg405
Nsg406
(dp3779
sg408
Nsg26
g29
sg409
(lp3780
I60
aI36
asg411
Nsg412
VTamid 30b:36
p3781
sg414
(lp3782
sg416
g63
sg417
Nsg418
(lp3783
I60
aI36
asg420
Nsg421
g3781
sg422
(lp3784
sg424
g383
sg425
Nsg426
Nsg427
Nsbag2
(g3
g4
Ntp3785
Rp3786
(dp3787
g8
g11
sg405
Nsg406
(dp3788
sg408
Nsg26
g29
sg409
(lp3789
I60
aI37
asg411
Nsg412
VTamid 30b:37
p3790
sg414
(lp3791
sg416
g63
sg417
Nsg418
(lp3792
I60
aI37
asg420
Nsg421
g3790
sg422
(lp3793
sg424
g383
sg425
Nsg426
Nsg427
Nsbag2
(g3
g4
Ntp3794
Rp3795
(dp3796
g8
g11
sg405
Nsg406
(dp3797
sg408
Nsg26
g29
sg409
(lp3798
I60
aI38
asg411
Nsg412
VTamid 30b:38
p3799
sg414
(lp3800
sg416
g63
sg417
Nsg418
(lp3801
I60
aI38
asg420
Nsg421
g3799
sg422
(lp3802
sg424
g383
sg425
Nsg426
Nsg427
Nsbag2
(g3
g4
Ntp3803
Rp3804
(dp3805
g8
g11
sg405
Nsg406
(dp3806
sg408
Nsg26
g29
sg409
(lp3807
I60
aI39
asg411
Nsg412
VTamid 30b:39
p3808
sg414
(lp3809
sg416
g63
sg417
Nsg418
(lp3810
I60
aI39
asg420
Nsg421
g3808
sg422
(lp3811
sg424
g383
sg425
Nsg426
Nsg427
Nsbag2
(g3
g4
Ntp3812
Rp3813
(dp3814
g8
g11
sg405
Nsg406
(dp3815
sg408
Nsg26
g29
sg409
(lp3816
I60
aI40
asg411
Nsg412
VTamid 30b:40
p3817
sg414
(lp3818
sg416
g63
sg417
Nsg418
(lp3819
I60
aI40
asg420
Nsg421
g3817
sg422
(lp3820
sg424
g383
sg425
Nsg426
Nsg427
Nsbag2
(g3
g4
Ntp3821
Rp3822
(dp3823
g8
g11
sg405
Nsg406
(dp3824
sg408
Nsg26
g29
sg409
(lp3825
I60
aI41
asg411
Nsg412
VTamid 30b:41
p3826
sg414
(lp3827
sg416
g63
sg417
Nsg418
(lp3828
I60
aI41
asg420
Nsg421
g3826
sg422
(lp3829
sg424
g383
sg425
Nsg426
Nsg427
Nsbag2
(g3
g4
Ntp3830
Rp3831
(dp3832
g8
g11
sg405
Nsg406
(dp3833
sg408
Nsg26
g29
sg409
(lp3834
I60
aI42
asg411
Nsg412
VTamid 30b:42
p3835
sg414
(lp3836
sg416
g63
sg417
Nsg418
(lp3837
I60
aI42
asg420
Nsg421
g3835
sg422
(lp3838
sg424
g383
sg425
Nsg426
Nsg427
Nsbag2
(g3
g4
Ntp3839
Rp3840
(dp3841
g8
g11
sg405
Nsg406
(dp3842
sg408
Nsg26
g29
sg409
(lp3843
I60
aI43
asg411
Nsg412
VTamid 30b:43
p3844
sg414
(lp3845
sg416
g63
sg417
Nsg418
(lp3846
I60
aI43
asg420
Nsg421
g3844
sg422
(lp3847
sg424
g383
sg425
Nsg426
Nsg427
Nsbag2
(g3
g4
Ntp3848
Rp3849
(dp3850
g8
g11
sg405
Nsg406
(dp3851
sg408
Nsg26
g29
sg409
(lp3852
I60
aI44
asg411
Nsg412
VTamid 30b:44
p3853
sg414
(lp3854
sg416
g63
sg417
Nsg418
(lp3855
I60
aI44
asg420
Nsg421
g3853
sg422
(lp3856
sg424
g383
sg425
Nsg426
Nsg427
Nsbag2
(g3
g4
Ntp3857
Rp3858
(dp3859
g8
g11
sg405
Nsg406
(dp3860
sg408
Nsg26
g29
sg409
(lp3861
I61
aI1
asg411
Nsg412
VTamid 31a:1
p3862
sg414
(lp3863
sg416
g63
sg417
Nsg418
(lp3864
I61
aI1
asg420
Nsg421
g3862
sg422
(lp3865
sg424
g383
sg425
Nsg426
Nsg427
Nsbag2
(g3
g4
Ntp3866
Rp3867
(dp3868
g8
g11
sg405
Nsg406
(dp3869
sg408
Nsg26
g29
sg409
(lp3870
I61
aI2
asg411
Nsg412
VTamid 31a:2
p3871
sg414
(lp3872
sg416
g63
sg417
Nsg418
(lp3873
I61
aI2
asg420
Nsg421
g3871
sg422
(lp3874
sg424
g383
sg425
Nsg426
Nsg427
Nsbag2
(g3
g4
Ntp3875
Rp3876
(dp3877
g8
g11
sg405
Nsg406
(dp3878
sg408
Nsg26
g29
sg409
(lp3879
I61
aI3
asg411
Nsg412
VTamid 31a:3
p3880
sg414
(lp3881
sg416
g63
sg417
Nsg418
(lp3882
I61
aI3
asg420
Nsg421
g3880
sg422
(lp3883
sg424
g383
sg425
Nsg426
Nsg427
Nsbag2
(g3
g4
Ntp3884
Rp3885
(dp3886
g8
g11
sg405
Nsg406
(dp3887
sg408
Nsg26
g29
sg409
(lp3888
I61
aI4
asg411
Nsg412
VTamid 31a:4
p3889
sg414
(lp3890
sg416
g63
sg417
Nsg418
(lp3891
I61
aI4
asg420
Nsg421
g3889
sg422
(lp3892
sg424
g383
sg425
Nsg426
Nsg427
Nsbag2
(g3
g4
Ntp3893
Rp3894
(dp3895
g8
g11
sg405
Nsg406
(dp3896
sg408
Nsg26
g29
sg409
(lp3897
I61
aI5
asg411
Nsg412
VTamid 31a:5
p3898
sg414
(lp3899
sg416
g63
sg417
Nsg418
(lp3900
I61
aI5
asg420
Nsg421
g3898
sg422
(lp3901
sg424
g383
sg425
Nsg426
Nsg427
Nsbag2
(g3
g4
Ntp3902
Rp3903
(dp3904
g8
g11
sg405
Nsg406
(dp3905
sg408
Nsg26
g29
sg409
(lp3906
I61
aI6
asg411
Nsg412
VTamid 31a:6
p3907
sg414
(lp3908
sg416
g63
sg417
Nsg418
(lp3909
I61
aI6
asg420
Nsg421
g3907
sg422
(lp3910
sg424
g383
sg425
Nsg426
Nsg427
Nsbag2
(g3
g4
Ntp3911
Rp3912
(dp3913
g8
g11
sg405
Nsg406
(dp3914
sg408
Nsg26
g29
sg409
(lp3915
I61
aI7
asg411
Nsg412
VTamid 31a:7
p3916
sg414
(lp3917
sg416
g63
sg417
Nsg418
(lp3918
I61
aI7
asg420
Nsg421
g3916
sg422
(lp3919
sg424
g383
sg425
Nsg426
Nsg427
Nsbag2
(g3
g4
Ntp3920
Rp3921
(dp3922
g8
g11
sg405
Nsg406
(dp3923
sg408
Nsg26
g29
sg409
(lp3924
I61
aI8
asg411
Nsg412
VTamid 31a:8
p3925
sg414
(lp3926
sg416
g63
sg417
Nsg418
(lp3927
I61
aI8
asg420
Nsg421
g3925
sg422
(lp3928
sg424
g383
sg425
Nsg426
Nsg427
Nsbag2
(g3
g4
Ntp3929
Rp3930
(dp3931
g8
g11
sg405
Nsg406
(dp3932
sg408
Nsg26
g29
sg409
(lp3933
I61
aI9
asg411
Nsg412
VTamid 31a:9
p3934
sg414
(lp3935
sg416
g63
sg417
Nsg418
(lp3936
I61
aI9
asg420
Nsg421
g3934
sg422
(lp3937
sg424
g383
sg425
Nsg426
Nsg427
Nsbag2
(g3
g4
Ntp3938
Rp3939
(dp3940
g8
g11
sg405
Nsg406
(dp3941
sg408
Nsg26
g29
sg409
(lp3942
I61
aI10
asg411
Nsg412
VTamid 31a:10
p3943
sg414
(lp3944
sg416
g63
sg417
Nsg418
(lp3945
I61
aI10
asg420
Nsg421
g3943
sg422
(lp3946
sg424
g383
sg425
Nsg426
Nsg427
Nsbag2
(g3
g4
Ntp3947
Rp3948
(dp3949
g8
g11
sg405
Nsg406
(dp3950
sg408
Nsg26
g29
sg409
(lp3951
I61
aI11
asg411
Nsg412
VTamid 31a:11
p3952
sg414
(lp3953
sg416
g63
sg417
Nsg418
(lp3954
I61
aI11
asg420
Nsg421
g3952
sg422
(lp3955
sg424
g383
sg425
Nsg426
Nsg427
Nsbag2
(g3
g4
Ntp3956
Rp3957
(dp3958
g8
g11
sg405
Nsg406
(dp3959
sg408
Nsg26
g29
sg409
(lp3960
I61
aI12
asg411
Nsg412
VTamid 31a:12
p3961
sg414
(lp3962
sg416
g63
sg417
Nsg418
(lp3963
I61
aI12
asg420
Nsg421
g3961
sg422
(lp3964
sg424
g383
sg425
Nsg426
Nsg427
Nsbag2
(g3
g4
Ntp3965
Rp3966
(dp3967
g8
g11
sg405
Nsg406
(dp3968
sg408
Nsg26
g29
sg409
(lp3969
I61
aI13
asg411
Nsg412
VTamid 31a:13
p3970
sg414
(lp3971
sg416
g63
sg417
Nsg418
(lp3972
I61
aI13
asg420
Nsg421
g3970
sg422
(lp3973
sg424
g383
sg425
Nsg426
Nsg427
Nsbag2
(g3
g4
Ntp3974
Rp3975
(dp3976
g8
g11
sg405
Nsg406
(dp3977
sg408
Nsg26
g29
sg409
(lp3978
I61
aI14
asg411
Nsg412
VTamid 31a:14
p3979
sg414
(lp3980
sg416
g63
sg417
Nsg418
(lp3981
I61
aI14
asg420
Nsg421
g3979
sg422
(lp3982
sg424
g383
sg425
Nsg426
Nsg427
Nsbag2
(g3
g4
Ntp3983
Rp3984
(dp3985
g8
g11
sg405
Nsg406
(dp3986
sg408
Nsg26
g29
sg409
(lp3987
I61
aI15
asg411
Nsg412
VTamid 31a:15
p3988
sg414
(lp3989
sg416
g63
sg417
Nsg418
(lp3990
I61
aI15
asg420
Nsg421
g3988
sg422
(lp3991
sg424
g383
sg425
Nsg426
Nsg427
Nsbag2
(g3
g4
Ntp3992
Rp3993
(dp3994
g8
g11
sg405
Nsg406
(dp3995
sg408
Nsg26
g29
sg409
(lp3996
I61
aI16
asg411
Nsg412
VTamid 31a:16
p3997
sg414
(lp3998
sg416
g63
sg417
Nsg418
(lp3999
I61
aI16
asg420
Nsg421
g3997
sg422
(lp4000
sg424
g383
sg425
Nsg426
Nsg427
Nsbag2
(g3
g4
Ntp4001
Rp4002
(dp4003
g8
g11
sg405
Nsg406
(dp4004
sg408
Nsg26
g29
sg409
(lp4005
I61
aI17
asg411
Nsg412
VTamid 31a:17
p4006
sg414
(lp4007
sg416
g63
sg417
Nsg418
(lp4008
I61
aI17
asg420
Nsg421
g4006
sg422
(lp4009
sg424
g383
sg425
Nsg426
Nsg427
Nsbag2
(g3
g4
Ntp4010
Rp4011
(dp4012
g8
g11
sg405
Nsg406
(dp4013
sg408
Nsg26
g29
sg409
(lp4014
I61
aI18
asg411
Nsg412
VTamid 31a:18
p4015
sg414
(lp4016
sg416
g63
sg417
Nsg418
(lp4017
I61
aI18
asg420
Nsg421
g4015
sg422
(lp4018
sg424
g383
sg425
Nsg426
Nsg427
Nsbag2
(g3
g4
Ntp4019
Rp4020
(dp4021
g8
g11
sg405
Nsg406
(dp4022
sg408
Nsg26
g29
sg409
(lp4023
I61
aI19
asg411
Nsg412
VTamid 31a:19
p4024
sg414
(lp4025
sg416
g63
sg417
Nsg418
(lp4026
I61
aI19
asg420
Nsg421
g4024
sg422
(lp4027
sg424
g383
sg425
Nsg426
Nsg427
Nsbag2
(g3
g4
Ntp4028
Rp4029
(dp4030
g8
g11
sg405
Nsg406
(dp4031
sg408
Nsg26
g29
sg409
(lp4032
I61
aI20
asg411
Nsg412
VTamid 31a:20
p4033
sg414
(lp4034
sg416
g63
sg417
Nsg418
(lp4035
I61
aI20
asg420
Nsg421
g4033
sg422
(lp4036
sg424
g383
sg425
Nsg426
Nsg427
Nsbag2
(g3
g4
Ntp4037
Rp4038
(dp4039
g8
g11
sg405
Nsg406
(dp4040
sg408
Nsg26
g29
sg409
(lp4041
I61
aI21
asg411
Nsg412
VTamid 31a:21
p4042
sg414
(lp4043
sg416
g63
sg417
Nsg418
(lp4044
I61
aI21
asg420
Nsg421
g4042
sg422
(lp4045
sg424
g383
sg425
Nsg426
Nsg427
Nsbag2
(g3
g4
Ntp4046
Rp4047
(dp4048
g8
g11
sg405
Nsg406
(dp4049
sg408
Nsg26
g29
sg409
(lp4050
I61
aI22
asg411
Nsg412
VTamid 31a:22
p4051
sg414
(lp4052
sg416
g63
sg417
Nsg418
(lp4053
I61
aI22
asg420
Nsg421
g4051
sg422
(lp4054
sg424
g383
sg425
Nsg426
Nsg427
Nsbag2
(g3
g4
Ntp4055
Rp4056
(dp4057
g8
g11
sg405
Nsg406
(dp4058
sg408
Nsg26
g29
sg409
(lp4059
I61
aI23
asg411
Nsg412
VTamid 31a:23
p4060
sg414
(lp4061
sg416
g63
sg417
Nsg418
(lp4062
I61
aI23
asg420
Nsg421
g4060
sg422
(lp4063
sg424
g383
sg425
Nsg426
Nsg427
Nsbag2
(g3
g4
Ntp4064
Rp4065
(dp4066
g8
g11
sg405
Nsg406
(dp4067
sg408
Nsg26
g29
sg409
(lp4068
I61
aI24
asg411
Nsg412
VTamid 31a:24
p4069
sg414
(lp4070
sg416
g63
sg417
Nsg418
(lp4071
I61
aI24
asg420
Nsg421
g4069
sg422
(lp4072
sg424
g383
sg425
Nsg426
Nsg427
Nsbag2
(g3
g4
Ntp4073
Rp4074
(dp4075
g8
g11
sg405
Nsg406
(dp4076
sg408
Nsg26
g29
sg409
(lp4077
I61
aI25
asg411
Nsg412
VTamid 31a:25
p4078
sg414
(lp4079
sg416
g63
sg417
Nsg418
(lp4080
I61
aI25
asg420
Nsg421
g4078
sg422
(lp4081
sg424
g383
sg425
Nsg426
Nsg427
Nsbag2
(g3
g4
Ntp4082
Rp4083
(dp4084
g8
g11
sg405
Nsg406
(dp4085
sg408
Nsg26
g29
sg409
(lp4086
I62
aI1
asg411
Nsg412
VTamid 31b:1
p4087
sg414
(lp4088
sg416
g63
sg417
Nsg418
(lp4089
I62
aI1
asg420
Nsg421
g4087
sg422
(lp4090
sg424
g383
sg425
Nsg426
Nsg427
Nsbag2
(g3
g4
Ntp4091
Rp4092
(dp4093
g8
g11
sg405
Nsg406
(dp4094
sg408
Nsg26
g29
sg409
(lp4095
I62
aI2
asg411
Nsg412
VTamid 31b:2
p4096
sg414
(lp4097
sg416
g63
sg417
Nsg418
(lp4098
I62
aI2
asg420
Nsg421
g4096
sg422
(lp4099
sg424
g383
sg425
Nsg426
Nsg427
Nsbag2
(g3
g4
Ntp4100
Rp4101
(dp4102
g8
g11
sg405
Nsg406
(dp4103
sg408
Nsg26
g29
sg409
(lp4104
I62
aI3
asg411
Nsg412
VTamid 31b:3
p4105
sg414
(lp4106
sg416
g63
sg417
Nsg418
(lp4107
I62
aI3
asg420
Nsg421
g4105
sg422
(lp4108
sg424
g383
sg425
Nsg426
Nsg427
Nsbag2
(g3
g4
Ntp4109
Rp4110
(dp4111
g8
g11
sg405
Nsg406
(dp4112
sg408
Nsg26
g29
sg409
(lp4113
I62
aI4
asg411
Nsg412
VTamid 31b:4
p4114
sg414
(lp4115
sg416
g63
sg417
Nsg418
(lp4116
I62
aI4
asg420
Nsg421
g4114
sg422
(lp4117
sg424
g383
sg425
Nsg426
Nsg427
Nsbag2
(g3
g4
Ntp4118
Rp4119
(dp4120
g8
g11
sg405
Nsg406
(dp4121
sg408
Nsg26
g29
sg409
(lp4122
I62
aI5
asg411
Nsg412
VTamid 31b:5
p4123
sg414
(lp4124
sg416
g63
sg417
Nsg418
(lp4125
I62
aI5
asg420
Nsg421
g4123
sg422
(lp4126
sg424
g383
sg425
Nsg426
Nsg427
Nsbag2
(g3
g4
Ntp4127
Rp4128
(dp4129
g8
g11
sg405
Nsg406
(dp4130
sg408
Nsg26
g29
sg409
(lp4131
I62
aI6
asg411
Nsg412
VTamid 31b:6
p4132
sg414
(lp4133
sg416
g63
sg417
Nsg418
(lp4134
I62
aI6
asg420
Nsg421
g4132
sg422
(lp4135
sg424
g383
sg425
Nsg426
Nsg427
Nsbag2
(g3
g4
Ntp4136
Rp4137
(dp4138
g8
g11
sg405
Nsg406
(dp4139
sg408
Nsg26
g29
sg409
(lp4140
I62
aI7
asg411
Nsg412
VTamid 31b:7
p4141
sg414
(lp4142
sg416
g63
sg417
Nsg418
(lp4143
I62
aI7
asg420
Nsg421
g4141
sg422
(lp4144
sg424
g383
sg425
Nsg426
Nsg427
Nsbag2
(g3
g4
Ntp4145
Rp4146
(dp4147
g8
g11
sg405
Nsg406
(dp4148
sg408
Nsg26
g29
sg409
(lp4149
I62
aI8
asg411
Nsg412
VTamid 31b:8
p4150
sg414
(lp4151
sg416
g63
sg417
Nsg418
(lp4152
I62
aI8
asg420
Nsg421
g4150
sg422
(lp4153
sg424
g383
sg425
Nsg426
Nsg427
Nsbag2
(g3
g4
Ntp4154
Rp4155
(dp4156
g8
g11
sg405
Nsg406
(dp4157
sg408
Nsg26
g29
sg409
(lp4158
I62
aI9
asg411
Nsg412
VTamid 31b:9
p4159
sg414
(lp4160
sg416
g63
sg417
Nsg418
(lp4161
I62
aI9
asg420
Nsg421
g4159
sg422
(lp4162
sg424
g383
sg425
Nsg426
Nsg427
Nsbag2
(g3
g4
Ntp4163
Rp4164
(dp4165
g8
g11
sg405
Nsg406
(dp4166
sg408
Nsg26
g29
sg409
(lp4167
I62
aI10
asg411
Nsg412
VTamid 31b:10
p4168
sg414
(lp4169
sg416
g63
sg417
Nsg418
(lp4170
I62
aI10
asg420
Nsg421
g4168
sg422
(lp4171
sg424
g383
sg425
Nsg426
Nsg427
Nsbag2
(g3
g4
Ntp4172
Rp4173
(dp4174
g8
g11
sg405
Nsg406
(dp4175
sg408
Nsg26
g29
sg409
(lp4176
I62
aI11
asg411
Nsg412
VTamid 31b:11
p4177
sg414
(lp4178
sg416
g63
sg417
Nsg418
(lp4179
I62
aI11
asg420
Nsg421
g4177
sg422
(lp4180
sg424
g383
sg425
Nsg426
Nsg427
Nsbag2
(g3
g4
Ntp4181
Rp4182
(dp4183
g8
g11
sg405
Nsg406
(dp4184
sg408
Nsg26
g29
sg409
(lp4185
I62
aI12
asg411
Nsg412
VTamid 31b:12
p4186
sg414
(lp4187
sg416
g63
sg417
Nsg418
(lp4188
I62
aI12
asg420
Nsg421
g4186
sg422
(lp4189
sg424
g383
sg425
Nsg426
Nsg427
Nsbag2
(g3
g4
Ntp4190
Rp4191
(dp4192
g8
g11
sg405
Nsg406
(dp4193
sg408
Nsg26
g29
sg409
(lp4194
I62
aI13
asg411
Nsg412
VTamid 31b:13
p4195
sg414
(lp4196
sg416
g63
sg417
Nsg418
(lp4197
I62
aI13
asg420
Nsg421
g4195
sg422
(lp4198
sg424
g383
sg425
Nsg426
Nsg427
Nsbag2
(g3
g4
Ntp4199
Rp4200
(dp4201
g8
g11
sg405
Nsg406
(dp4202
sg408
Nsg26
g29
sg409
(lp4203
I62
aI14
asg411
Nsg412
VTamid 31b:14
p4204
sg414
(lp4205
sg416
g63
sg417
Nsg418
(lp4206
I62
aI14
asg420
Nsg421
g4204
sg422
(lp4207
sg424
g383
sg425
Nsg426
Nsg427
Nsbag2
(g3
g4
Ntp4208
Rp4209
(dp4210
g8
g11
sg405
Nsg406
(dp4211
sg408
Nsg26
g29
sg409
(lp4212
I62
aI15
asg411
Nsg412
VTamid 31b:15
p4213
sg414
(lp4214
sg416
g63
sg417
Nsg418
(lp4215
I62
aI15
asg420
Nsg421
g4213
sg422
(lp4216
sg424
g383
sg425
Nsg426
Nsg427
Nsbag2
(g3
g4
Ntp4217
Rp4218
(dp4219
g8
g11
sg405
Nsg406
(dp4220
sg408
Nsg26
g29
sg409
(lp4221
I62
aI16
asg411
Nsg412
VTamid 31b:16
p4222
sg414
(lp4223
sg416
g63
sg417
Nsg418
(lp4224
I62
aI16
asg420
Nsg421
g4222
sg422
(lp4225
sg424
g383
sg425
Nsg426
Nsg427
Nsbag2
(g3
g4
Ntp4226
Rp4227
(dp4228
g8
g11
sg405
Nsg406
(dp4229
sg408
Nsg26
g29
sg409
(lp4230
I62
aI17
asg411
Nsg412
VTamid 31b:17
p4231
sg414
(lp4232
sg416
g63
sg417
Nsg418
(lp4233
I62
aI17
asg420
Nsg421
g4231
sg422
(lp4234
sg424
g383
sg425
Nsg426
Nsg427
Nsbag2
(g3
g4
Ntp4235
Rp4236
(dp4237
g8
g11
sg405
Nsg406
(dp4238
sg408
Nsg26
g29
sg409
(lp4239
I62
aI18
asg411
Nsg412
VTamid 31b:18
p4240
sg414
(lp4241
sg416
g63
sg417
Nsg418
(lp4242
I62
aI18
asg420
Nsg421
g4240
sg422
(lp4243
sg424
g383
sg425
Nsg426
Nsg427
Nsbag2
(g3
g4
Ntp4244
Rp4245
(dp4246
g8
g11
sg405
Nsg406
(dp4247
sg408
Nsg26
g29
sg409
(lp4248
I62
aI19
asg411
Nsg412
VTamid 31b:19
p4249
sg414
(lp4250
sg416
g63
sg417
Nsg418
(lp4251
I62
aI19
asg420
Nsg421
g4249
sg422
(lp4252
sg424
g383
sg425
Nsg426
Nsg427
Nsbag2
(g3
g4
Ntp4253
Rp4254
(dp4255
g8
g11
sg405
Nsg406
(dp4256
sg408
Nsg26
g29
sg409
(lp4257
I62
aI20
asg411
Nsg412
VTamid 31b:20
p4258
sg414
(lp4259
sg416
g63
sg417
Nsg418
(lp4260
I62
aI20
asg420
Nsg421
g4258
sg422
(lp4261
sg424
g383
sg425
Nsg426
Nsg427
Nsbag2
(g3
g4
Ntp4262
Rp4263
(dp4264
g8
g11
sg405
Nsg406
(dp4265
sg408
Nsg26
g29
sg409
(lp4266
I62
aI21
asg411
Nsg412
VTamid 31b:21
p4267
sg414
(lp4268
sg416
g63
sg417
Nsg418
(lp4269
I62
aI21
asg420
Nsg421
g4267
sg422
(lp4270
sg424
g383
sg425
Nsg426
Nsg427
Nsbag2
(g3
g4
Ntp4271
Rp4272
(dp4273
g8
g11
sg405
Nsg406
(dp4274
sg408
Nsg26
g29
sg409
(lp4275
I62
aI22
asg411
Nsg412
VTamid 31b:22
p4276
sg414
(lp4277
sg416
g63
sg417
Nsg418
(lp4278
I62
aI22
asg420
Nsg421
g4276
sg422
(lp4279
sg424
g383
sg425
Nsg426
Nsg427
Nsbag2
(g3
g4
Ntp4280
Rp4281
(dp4282
g8
g11
sg405
Nsg406
(dp4283
sg408
Nsg26
g29
sg409
(lp4284
I62
aI23
asg411
Nsg412
VTamid 31b:23
p4285
sg414
(lp4286
sg416
g63
sg417
Nsg418
(lp4287
I62
aI23
asg420
Nsg421
g4285
sg422
(lp4288
sg424
g383
sg425
Nsg426
Nsg427
Nsbag2
(g3
g4
Ntp4289
Rp4290
(dp4291
g8
g11
sg405
Nsg406
(dp4292
sg408
Nsg26
g29
sg409
(lp4293
I62
aI24
asg411
Nsg412
VTamid 31b:24
p4294
sg414
(lp4295
sg416
g63
sg417
Nsg418
(lp4296
I62
aI24
asg420
Nsg421
g4294
sg422
(lp4297
sg424
g383
sg425
Nsg426
Nsg427
Nsbag2
(g3
g4
Ntp4298
Rp4299
(dp4300
g8
g11
sg405
Nsg406
(dp4301
sg408
Nsg26
g29
sg409
(lp4302
I62
aI25
asg411
Nsg412
VTamid 31b:25
p4303
sg414
(lp4304
sg416
g63
sg417
Nsg418
(lp4305
I62
aI25
asg420
Nsg421
g4303
sg422
(lp4306
sg424
g383
sg425
Nsg426
Nsg427
Nsbag2
(g3
g4
Ntp4307
Rp4308
(dp4309
g8
g11
sg405
Nsg406
(dp4310
sg408
Nsg26
g29
sg409
(lp4311
I62
aI26
asg411
Nsg412
VTamid 31b:26
p4312
sg414
(lp4313
sg416
g63
sg417
Nsg418
(lp4314
I62
aI26
asg420
Nsg421
g4312
sg422
(lp4315
sg424
g383
sg425
Nsg426
Nsg427
Nsbag2
(g3
g4
Ntp4316
Rp4317
(dp4318
g8
g11
sg405
Nsg406
(dp4319
sg408
Nsg26
g29
sg409
(lp4320
I62
aI27
asg411
Nsg412
VTamid 31b:27
p4321
sg414
(lp4322
sg416
g63
sg417
Nsg418
(lp4323
I62
aI27
asg420
Nsg421
g4321
sg422
(lp4324
sg424
g383
sg425
Nsg426
Nsg427
Nsbag2
(g3
g4
Ntp4325
Rp4326
(dp4327
g8
g11
sg405
Nsg406
(dp4328
sg408
Nsg26
g29
sg409
(lp4329
I62
aI28
asg411
Nsg412
VTamid 31b:28
p4330
sg414
(lp4331
sg416
g63
sg417
Nsg418
(lp4332
I62
aI28
asg420
Nsg421
g4330
sg422
(lp4333
sg424
g383
sg425
Nsg426
Nsg427
Nsbag2
(g3
g4
Ntp4334
Rp4335
(dp4336
g8
g11
sg405
Nsg406
(dp4337
sg408
Nsg26
g29
sg409
(lp4338
I62
aI29
asg411
Nsg412
VTamid 31b:29
p4339
sg414
(lp4340
sg416
g63
sg417
Nsg418
(lp4341
I62
aI29
asg420
Nsg421
g4339
sg422
(lp4342
sg424
g383
sg425
Nsg426
Nsg427
Nsbag2
(g3
g4
Ntp4343
Rp4344
(dp4345
g8
g11
sg405
Nsg406
(dp4346
sg408
Nsg26
g29
sg409
(lp4347
I62
aI30
asg411
Nsg412
VTamid 31b:30
p4348
sg414
(lp4349
sg416
g63
sg417
Nsg418
(lp4350
I62
aI30
asg420
Nsg421
g4348
sg422
(lp4351
sg424
g383
sg425
Nsg426
Nsg427
Nsbag2
(g3
g4
Ntp4352
Rp4353
(dp4354
g8
g11
sg405
Nsg406
(dp4355
sg408
Nsg26
g29
sg409
(lp4356
I62
aI31
asg411
Nsg412
VTamid 31b:31
p4357
sg414
(lp4358
sg416
g63
sg417
Nsg418
(lp4359
I62
aI31
asg420
Nsg421
g4357
sg422
(lp4360
sg424
g383
sg425
Nsg426
Nsg427
Nsbag2
(g3
g4
Ntp4361
Rp4362
(dp4363
g8
g11
sg405
Nsg406
(dp4364
sg408
Nsg26
g29
sg409
(lp4365
I62
aI32
asg411
Nsg412
VTamid 31b:32
p4366
sg414
(lp4367
sg416
g63
sg417
Nsg418
(lp4368
I62
aI32
asg420
Nsg421
g4366
sg422
(lp4369
sg424
g383
sg425
Nsg426
Nsg427
Nsbag2
(g3
g4
Ntp4370
Rp4371
(dp4372
g8
g11
sg405
Nsg406
(dp4373
sg408
Nsg26
g29
sg409
(lp4374
I62
aI33
asg411
Nsg412
VTamid 31b:33
p4375
sg414
(lp4376
sg416
g63
sg417
Nsg418
(lp4377
I62
aI33
asg420
Nsg421
g4375
sg422
(lp4378
sg424
g383
sg425
Nsg426
Nsg427
Nsbag2
(g3
g4
Ntp4379
Rp4380
(dp4381
g8
g11
sg405
Nsg406
(dp4382
sg408
Nsg26
g29
sg409
(lp4383
I62
aI34
asg411
Nsg412
VTamid 31b:34
p4384
sg414
(lp4385
sg416
g63
sg417
Nsg418
(lp4386
I62
aI34
asg420
Nsg421
g4384
sg422
(lp4387
sg424
g383
sg425
Nsg426
Nsg427
Nsbag2
(g3
g4
Ntp4388
Rp4389
(dp4390
g8
g11
sg405
Nsg406
(dp4391
sg408
Nsg26
g29
sg409
(lp4392
I62
aI35
asg411
Nsg412
VTamid 31b:35
p4393
sg414
(lp4394
sg416
g63
sg417
Nsg418
(lp4395
I62
aI35
asg420
Nsg421
g4393
sg422
(lp4396
sg424
g383
sg425
Nsg426
Nsg427
Nsbag2
(g3
g4
Ntp4397
Rp4398
(dp4399
g8
g11
sg405
Nsg406
(dp4400
sg408
Nsg26
g29
sg409
(lp4401
I62
aI36
asg411
Nsg412
VTamid 31b:36
p4402
sg414
(lp4403
sg416
g63
sg417
Nsg418
(lp4404
I62
aI36
asg420
Nsg421
g4402
sg422
(lp4405
sg424
g383
sg425
Nsg426
Nsg427
Nsbag2
(g3
g4
Ntp4406
Rp4407
(dp4408
g8
g11
sg405
Nsg406
(dp4409
sg408
Nsg26
g29
sg409
(lp4410
I62
aI37
asg411
Nsg412
VTamid 31b:37
p4411
sg414
(lp4412
sg416
g63
sg417
Nsg418
(lp4413
I62
aI37
asg420
Nsg421
g4411
sg422
(lp4414
sg424
g383
sg425
Nsg426
Nsg427
Nsbag2
(g3
g4
Ntp4415
Rp4416
(dp4417
g8
g11
sg405
Nsg406
(dp4418
sg408
Nsg26
g29
sg409
(lp4419
I62
aI38
asg411
Nsg412
VTamid 31b:38
p4420
sg414
(lp4421
sg416
g63
sg417
Nsg418
(lp4422
I62
aI38
asg420
Nsg421
g4420
sg422
(lp4423
sg424
g383
sg425
Nsg426
Nsg427
Nsbag2
(g3
g4
Ntp4424
Rp4425
(dp4426
g8
g11
sg405
Nsg406
(dp4427
sg408
Nsg26
g29
sg409
(lp4428
I62
aI39
asg411
Nsg412
VTamid 31b:39
p4429
sg414
(lp4430
sg416
g63
sg417
Nsg418
(lp4431
I62
aI39
asg420
Nsg421
g4429
sg422
(lp4432
sg424
g383
sg425
Nsg426
Nsg427
Nsbag2
(g3
g4
Ntp4433
Rp4434
(dp4435
g8
g11
sg405
Nsg406
(dp4436
sg408
Nsg26
g29
sg409
(lp4437
I62
aI40
asg411
Nsg412
VTamid 31b:40
p4438
sg414
(lp4439
sg416
g63
sg417
Nsg418
(lp4440
I62
aI40
asg420
Nsg421
g4438
sg422
(lp4441
sg424
g383
sg425
Nsg426
Nsg427
Nsbag2
(g3
g4
Ntp4442
Rp4443
(dp4444
g8
g11
sg405
Nsg406
(dp4445
sg408
Nsg26
g29
sg409
(lp4446
I62
aI41
asg411
Nsg412
VTamid 31b:41
p4447
sg414
(lp4448
sg416
g63
sg417
Nsg418
(lp4449
I62
aI41
asg420
Nsg421
g4447
sg422
(lp4450
sg424
g383
sg425
Nsg426
Nsg427
Nsbag2
(g3
g4
Ntp4451
Rp4452
(dp4453
g8
g11
sg405
Nsg406
(dp4454
sg408
Nsg26
g29
sg409
(lp4455
I62
aI42
asg411
Nsg412
VTamid 31b:42
p4456
sg414
(lp4457
sg416
g63
sg417
Nsg418
(lp4458
I62
aI42
asg420
Nsg421
g4456
sg422
(lp4459
sg424
g383
sg425
Nsg426
Nsg427
Nsbag2
(g3
g4
Ntp4460
Rp4461
(dp4462
g8
g11
sg405
Nsg406
(dp4463
sg408
Nsg26
g29
sg409
(lp4464
I62
aI43
asg411
Nsg412
VTamid 31b:43
p4465
sg414
(lp4466
sg416
g63
sg417
Nsg418
(lp4467
I62
aI43
asg420
Nsg421
g4465
sg422
(lp4468
sg424
g383
sg425
Nsg426
Nsg427
Nsbag2
(g3
g4
Ntp4469
Rp4470
(dp4471
g8
g11
sg405
Nsg406
(dp4472
sg408
Nsg26
g29
sg409
(lp4473
I62
aI44
asg411
Nsg412
VTamid 31b:44
p4474
sg414
(lp4475
sg416
g63
sg417
Nsg418
(lp4476
I62
aI44
asg420
Nsg421
g4474
sg422
(lp4477
sg424
g383
sg425
Nsg426
Nsg427
Nsbag2
(g3
g4
Ntp4478
Rp4479
(dp4480
g8
g11
sg405
Nsg406
(dp4481
sg408
Nsg26
g29
sg409
(lp4482
I62
aI45
asg411
Nsg412
VTamid 31b:45
p4483
sg414
(lp4484
sg416
g63
sg417
Nsg418
(lp4485
I62
aI45
asg420
Nsg421
g4483
sg422
(lp4486
sg424
g383
sg425
Nsg426
Nsg427
Nsbag2
(g3
g4
Ntp4487
Rp4488
(dp4489
g8
g11
sg405
Nsg406
(dp4490
sg408
Nsg26
g29
sg409
(lp4491
I62
aI46
asg411
Nsg412
VTamid 31b:46
p4492
sg414
(lp4493
sg416
g63
sg417
Nsg418
(lp4494
I62
aI46
asg420
Nsg421
g4492
sg422
(lp4495
sg424
g383
sg425
Nsg426
Nsg427
Nsbag2
(g3
g4
Ntp4496
Rp4497
(dp4498
g8
g11
sg405
Nsg406
(dp4499
sg408
Nsg26
g29
sg409
(lp4500
I62
aI47
asg411
Nsg412
VTamid 31b:47
p4501
sg414
(lp4502
sg416
g63
sg417
Nsg418
(lp4503
I62
aI47
asg420
Nsg421
g4501
sg422
(lp4504
sg424
g383
sg425
Nsg426
Nsg427
Nsbag2
(g3
g4
Ntp4505
Rp4506
(dp4507
g8
g11
sg405
Nsg406
(dp4508
sg408
Nsg26
g29
sg409
(lp4509
I62
aI48
asg411
Nsg412
VTamid 31b:48
p4510
sg414
(lp4511
sg416
g63
sg417
Nsg418
(lp4512
I62
aI48
asg420
Nsg421
g4510
sg422
(lp4513
sg424
g383
sg425
Nsg426
Nsg427
Nsbag2
(g3
g4
Ntp4514
Rp4515
(dp4516
g8
g11
sg405
Nsg406
(dp4517
sg408
Nsg26
g29
sg409
(lp4518
I62
aI49
asg411
Nsg412
VTamid 31b:49
p4519
sg414
(lp4520
sg416
g63
sg417
Nsg418
(lp4521
I62
aI49
asg420
Nsg421
g4519
sg422
(lp4522
sg424
g383
sg425
Nsg426
Nsg427
Nsbag2
(g3
g4
Ntp4523
Rp4524
(dp4525
g8
g11
sg405
Nsg406
(dp4526
sg408
Nsg26
g29
sg409
(lp4527
I63
aI1
asg411
Nsg412
VTamid 32a:1
p4528
sg414
(lp4529
sg416
g63
sg417
Nsg418
(lp4530
I63
aI1
asg420
Nsg421
g4528
sg422
(lp4531
sg424
g383
sg425
Nsg426
Nsg427
Nsbag2
(g3
g4
Ntp4532
Rp4533
(dp4534
g8
g11
sg405
Nsg406
(dp4535
sg408
Nsg26
g29
sg409
(lp4536
I63
aI2
asg411
Nsg412
VTamid 32a:2
p4537
sg414
(lp4538
sg416
g63
sg417
Nsg418
(lp4539
I63
aI2
asg420
Nsg421
g4537
sg422
(lp4540
sg424
g383
sg425
Nsg426
Nsg427
Nsbag2
(g3
g4
Ntp4541
Rp4542
(dp4543
g8
g11
sg405
Nsg406
(dp4544
sg408
Nsg26
g29
sg409
(lp4545
I63
aI3
asg411
Nsg412
VTamid 32a:3
p4546
sg414
(lp4547
sg416
g63
sg417
Nsg418
(lp4548
I63
aI3
asg420
Nsg421
g4546
sg422
(lp4549
sg424
g383
sg425
Nsg426
Nsg427
Nsbag2
(g3
g4
Ntp4550
Rp4551
(dp4552
g8
g11
sg405
Nsg406
(dp4553
sg408
Nsg26
g29
sg409
(lp4554
I63
aI4
asg411
Nsg412
VTamid 32a:4
p4555
sg414
(lp4556
sg416
g63
sg417
Nsg418
(lp4557
I63
aI4
asg420
Nsg421
g4555
sg422
(lp4558
sg424
g383
sg425
Nsg426
Nsg427
Nsbag2
(g3
g4
Ntp4559
Rp4560
(dp4561
g8
g11
sg405
Nsg406
(dp4562
sg408
Nsg26
g29
sg409
(lp4563
I63
aI5
asg411
Nsg412
VTamid 32a:5
p4564
sg414
(lp4565
sg416
g63
sg417
Nsg418
(lp4566
I63
aI5
asg420
Nsg421
g4564
sg422
(lp4567
sg424
g383
sg425
Nsg426
Nsg427
Nsbag2
(g3
g4
Ntp4568
Rp4569
(dp4570
g8
g11
sg405
Nsg406
(dp4571
sg408
Nsg26
g29
sg409
(lp4572
I63
aI6
asg411
Nsg412
VTamid 32a:6
p4573
sg414
(lp4574
sg416
g63
sg417
Nsg418
(lp4575
I63
aI6
asg420
Nsg421
g4573
sg422
(lp4576
sg424
g383
sg425
Nsg426
Nsg427
Nsbag2
(g3
g4
Ntp4577
Rp4578
(dp4579
g8
g11
sg405
Nsg406
(dp4580
sg408
Nsg26
g29
sg409
(lp4581
I63
aI7
asg411
Nsg412
VTamid 32a:7
p4582
sg414
(lp4583
sg416
g63
sg417
Nsg418
(lp4584
I63
aI7
asg420
Nsg421
g4582
sg422
(lp4585
sg424
g383
sg425
Nsg426
Nsg427
Nsbag2
(g3
g4
Ntp4586
Rp4587
(dp4588
g8
g11
sg405
Nsg406
(dp4589
sg408
Nsg26
g29
sg409
(lp4590
I63
aI8
asg411
Nsg412
VTamid 32a:8
p4591
sg414
(lp4592
sg416
g63
sg417
Nsg418
(lp4593
I63
aI8
asg420
Nsg421
g4591
sg422
(lp4594
sg424
g383
sg425
Nsg426
Nsg427
Nsbag2
(g3
g4
Ntp4595
Rp4596
(dp4597
g8
g11
sg405
Nsg406
(dp4598
sg408
Nsg26
g29
sg409
(lp4599
I63
aI9
asg411
Nsg412
VTamid 32a:9
p4600
sg414
(lp4601
sg416
g63
sg417
Nsg418
(lp4602
I63
aI9
asg420
Nsg421
g4600
sg422
(lp4603
sg424
g383
sg425
Nsg426
Nsg427
Nsbag2
(g3
g4
Ntp4604
Rp4605
(dp4606
g8
g11
sg405
Nsg406
(dp4607
sg408
Nsg26
g29
sg409
(lp4608
I63
aI10
asg411
Nsg412
VTamid 32a:10
p4609
sg414
(lp4610
sg416
g63
sg417
Nsg418
(lp4611
I63
aI10
asg420
Nsg421
g4609
sg422
(lp4612
sg424
g383
sg425
Nsg426
Nsg427
Nsbag2
(g3
g4
Ntp4613
Rp4614
(dp4615
g8
g11
sg405
Nsg406
(dp4616
sg408
Nsg26
g29
sg409
(lp4617
I63
aI11
asg411
Nsg412
VTamid 32a:11
p4618
sg414
(lp4619
sg416
g63
sg417
Nsg418
(lp4620
I63
aI11
asg420
Nsg421
g4618
sg422
(lp4621
sg424
g383
sg425
Nsg426
Nsg427
Nsbag2
(g3
g4
Ntp4622
Rp4623
(dp4624
g8
g11
sg405
Nsg406
(dp4625
sg408
Nsg26
g29
sg409
(lp4626
I63
aI12
asg411
Nsg412
VTamid 32a:12
p4627
sg414
(lp4628
sg416
g63
sg417
Nsg418
(lp4629
I63
aI12
asg420
Nsg421
g4627
sg422
(lp4630
sg424
g383
sg425
Nsg426
Nsg427
Nsbag2
(g3
g4
Ntp4631
Rp4632
(dp4633
g8
g11
sg405
Nsg406
(dp4634
sg408
Nsg26
g29
sg409
(lp4635
I63
aI13
asg411
Nsg412
VTamid 32a:13
p4636
sg414
(lp4637
sg416
g63
sg417
Nsg418
(lp4638
I63
aI13
asg420
Nsg421
g4636
sg422
(lp4639
sg424
g383
sg425
Nsg426
Nsg427
Nsbag2
(g3
g4
Ntp4640
Rp4641
(dp4642
g8
g11
sg405
Nsg406
(dp4643
sg408
Nsg26
g29
sg409
(lp4644
I63
aI14
asg411
Nsg412
VTamid 32a:14
p4645
sg414
(lp4646
sg416
g63
sg417
Nsg418
(lp4647
I63
aI14
asg420
Nsg421
g4645
sg422
(lp4648
sg424
g383
sg425
Nsg426
Nsg427
Nsbag2
(g3
g4
Ntp4649
Rp4650
(dp4651
g8
g11
sg405
Nsg406
(dp4652
sg408
Nsg26
g29
sg409
(lp4653
I63
aI15
asg411
Nsg412
VTamid 32a:15
p4654
sg414
(lp4655
sg416
g63
sg417
Nsg418
(lp4656
I63
aI15
asg420
Nsg421
g4654
sg422
(lp4657
sg424
g383
sg425
Nsg426
Nsg427
Nsbag2
(g3
g4
Ntp4658
Rp4659
(dp4660
g8
g11
sg405
Nsg406
(dp4661
sg408
Nsg26
g29
sg409
(lp4662
I63
aI16
asg411
Nsg412
VTamid 32a:16
p4663
sg414
(lp4664
sg416
g63
sg417
Nsg418
(lp4665
I63
aI16
asg420
Nsg421
g4663
sg422
(lp4666
sg424
g383
sg425
Nsg426
Nsg427
Nsbag2
(g3
g4
Ntp4667
Rp4668
(dp4669
g8
g11
sg405
Nsg406
(dp4670
sg408
Nsg26
g29
sg409
(lp4671
I63
aI17
asg411
Nsg412
VTamid 32a:17
p4672
sg414
(lp4673
sg416
g63
sg417
Nsg418
(lp4674
I63
aI17
asg420
Nsg421
g4672
sg422
(lp4675
sg424
g383
sg425
Nsg426
Nsg427
Nsbag2
(g3
g4
Ntp4676
Rp4677
(dp4678
g8
g11
sg405
Nsg406
(dp4679
sg408
Nsg26
g29
sg409
(lp4680
I63
aI18
asg411
Nsg412
VTamid 32a:18
p4681
sg414
(lp4682
sg416
g63
sg417
Nsg418
(lp4683
I63
aI18
asg420
Nsg421
g4681
sg422
(lp4684
sg424
g383
sg425
Nsg426
Nsg427
Nsbag2
(g3
g4
Ntp4685
Rp4686
(dp4687
g8
g11
sg405
Nsg406
(dp4688
sg408
Nsg26
g29
sg409
(lp4689
I63
aI19
asg411
Nsg412
VTamid 32a:19
p4690
sg414
(lp4691
sg416
g63
sg417
Nsg418
(lp4692
I63
aI19
asg420
Nsg421
g4690
sg422
(lp4693
sg424
g383
sg425
Nsg426
Nsg427
Nsbag2
(g3
g4
Ntp4694
Rp4695
(dp4696
g8
g11
sg405
Nsg406
(dp4697
sg408
Nsg26
g29
sg409
(lp4698
I63
aI20
asg411
Nsg412
VTamid 32a:20
p4699
sg414
(lp4700
sg416
g63
sg417
Nsg418
(lp4701
I63
aI20
asg420
Nsg421
g4699
sg422
(lp4702
sg424
g383
sg425
Nsg426
Nsg427
Nsbag2
(g3
g4
Ntp4703
Rp4704
(dp4705
g8
g11
sg405
Nsg406
(dp4706
sg408
Nsg26
g29
sg409
(lp4707
I63
aI21
asg411
Nsg412
VTamid 32a:21
p4708
sg414
(lp4709
sg416
g63
sg417
Nsg418
(lp4710
I63
aI21
asg420
Nsg421
g4708
sg422
(lp4711
sg424
g383
sg425
Nsg426
Nsg427
Nsbag2
(g3
g4
Ntp4712
Rp4713
(dp4714
g8
g11
sg405
Nsg406
(dp4715
sg408
Nsg26
g29
sg409
(lp4716
I63
aI22
asg411
Nsg412
VTamid 32a:22
p4717
sg414
(lp4718
sg416
g63
sg417
Nsg418
(lp4719
I63
aI22
asg420
Nsg421
g4717
sg422
(lp4720
sg424
g383
sg425
Nsg426
Nsg427
Nsbag2
(g3
g4
Ntp4721
Rp4722
(dp4723
g8
g11
sg405
Nsg406
(dp4724
sg408
Nsg26
g29
sg409
(lp4725
I63
aI23
asg411
Nsg412
VTamid 32a:23
p4726
sg414
(lp4727
sg416
g63
sg417
Nsg418
(lp4728
I63
aI23
asg420
Nsg421
g4726
sg422
(lp4729
sg424
g383
sg425
Nsg426
Nsg427
Nsbag2
(g3
g4
Ntp4730
Rp4731
(dp4732
g8
g11
sg405
Nsg406
(dp4733
sg408
Nsg26
g29
sg409
(lp4734
I63
aI24
asg411
Nsg412
VTamid 32a:24
p4735
sg414
(lp4736
sg416
g63
sg417
Nsg418
(lp4737
I63
aI24
asg420
Nsg421
g4735
sg422
(lp4738
sg424
g383
sg425
Nsg426
Nsg427
Nsbag2
(g3
g4
Ntp4739
Rp4740
(dp4741
g8
g11
sg405
Nsg406
(dp4742
sg408
Nsg26
g29
sg409
(lp4743
I63
aI25
asg411
Nsg412
VTamid 32a:25
p4744
sg414
(lp4745
sg416
g63
sg417
Nsg418
(lp4746
I63
aI25
asg420
Nsg421
g4744
sg422
(lp4747
sg424
g383
sg425
Nsg426
Nsg427
Nsbag2
(g3
g4
Ntp4748
Rp4749
(dp4750
g8
g11
sg405
Nsg406
(dp4751
sg408
Nsg26
g29
sg409
(lp4752
I63
aI26
asg411
Nsg412
VTamid 32a:26
p4753
sg414
(lp4754
sg416
g63
sg417
Nsg418
(lp4755
I63
aI26
asg420
Nsg421
g4753
sg422
(lp4756
sg424
g383
sg425
Nsg426
Nsg427
Nsbag2
(g3
g4
Ntp4757
Rp4758
(dp4759
g8
g11
sg405
Nsg406
(dp4760
sg408
Nsg26
g29
sg409
(lp4761
I63
aI27
asg411
Nsg412
VTamid 32a:27
p4762
sg414
(lp4763
sg416
g63
sg417
Nsg418
(lp4764
I63
aI27
asg420
Nsg421
g4762
sg422
(lp4765
sg424
g383
sg425
Nsg426
Nsg427
Nsbag2
(g3
g4
Ntp4766
Rp4767
(dp4768
g8
g11
sg405
Nsg406
(dp4769
sg408
Nsg26
g29
sg409
(lp4770
I63
aI28
asg411
Nsg412
VTamid 32a:28
p4771
sg414
(lp4772
sg416
g63
sg417
Nsg418
(lp4773
I63
aI28
asg420
Nsg421
g4771
sg422
(lp4774
sg424
g383
sg425
Nsg426
Nsg427
Nsbag2
(g3
g4
Ntp4775
Rp4776
(dp4777
g8
g11
sg405
Nsg406
(dp4778
sg408
Nsg26
g29
sg409
(lp4779
I63
aI29
asg411
Nsg412
VTamid 32a:29
p4780
sg414
(lp4781
sg416
g63
sg417
Nsg418
(lp4782
I63
aI29
asg420
Nsg421
g4780
sg422
(lp4783
sg424
g383
sg425
Nsg426
Nsg427
Nsbag2
(g3
g4
Ntp4784
Rp4785
(dp4786
g8
g11
sg405
Nsg406
(dp4787
sg408
Nsg26
g29
sg409
(lp4788
I63
aI30
asg411
Nsg412
VTamid 32a:30
p4789
sg414
(lp4790
sg416
g63
sg417
Nsg418
(lp4791
I63
aI30
asg420
Nsg421
g4789
sg422
(lp4792
sg424
g383
sg425
Nsg426
Nsg427
Nsbag2
(g3
g4
Ntp4793
Rp4794
(dp4795
g8
g11
sg405
Nsg406
(dp4796
sg408
Nsg26
g29
sg409
(lp4797
I63
aI31
asg411
Nsg412
VTamid 32a:31
p4798
sg414
(lp4799
sg416
g63
sg417
Nsg418
(lp4800
I63
aI31
asg420
Nsg421
g4798
sg422
(lp4801
sg424
g383
sg425
Nsg426
Nsg427
Nsbag2
(g3
g4
Ntp4802
Rp4803
(dp4804
g8
g11
sg405
Nsg406
(dp4805
sg408
Nsg26
g29
sg409
(lp4806
I63
aI32
asg411
Nsg412
VTamid 32a:32
p4807
sg414
(lp4808
sg416
g63
sg417
Nsg418
(lp4809
I63
aI32
asg420
Nsg421
g4807
sg422
(lp4810
sg424
g383
sg425
Nsg426
Nsg427
Nsbag2
(g3
g4
Ntp4811
Rp4812
(dp4813
g8
g11
sg405
Nsg406
(dp4814
sg408
Nsg26
g29
sg409
(lp4815
I63
aI33
asg411
Nsg412
VTamid 32a:33
p4816
sg414
(lp4817
sg416
g63
sg417
Nsg418
(lp4818
I63
aI33
asg420
Nsg421
g4816
sg422
(lp4819
sg424
g383
sg425
Nsg426
Nsg427
Nsbag2
(g3
g4
Ntp4820
Rp4821
(dp4822
g8
g11
sg405
Nsg406
(dp4823
sg408
Nsg26
g29
sg409
(lp4824
I63
aI34
asg411
Nsg412
VTamid 32a:34
p4825
sg414
(lp4826
sg416
g63
sg417
Nsg418
(lp4827
I63
aI34
asg420
Nsg421
g4825
sg422
(lp4828
sg424
g383
sg425
Nsg426
Nsg427
Nsbag2
(g3
g4
Ntp4829
Rp4830
(dp4831
g8
g11
sg405
Nsg406
(dp4832
sg408
Nsg26
g29
sg409
(lp4833
I63
aI35
asg411
Nsg412
VTamid 32a:35
p4834
sg414
(lp4835
sg416
g63
sg417
Nsg418
(lp4836
I63
aI35
asg420
Nsg421
g4834
sg422
(lp4837
sg424
g383
sg425
Nsg426
Nsg427
Nsbag2
(g3
g4
Ntp4838
Rp4839
(dp4840
g8
g11
sg405
Nsg406
(dp4841
sg408
Nsg26
g29
sg409
(lp4842
I63
aI36
asg411
Nsg412
VTamid 32a:36
p4843
sg414
(lp4844
sg416
g63
sg417
Nsg418
(lp4845
I63
aI36
asg420
Nsg421
g4843
sg422
(lp4846
sg424
g383
sg425
Nsg426
Nsg427
Nsbag2
(g3
g4
Ntp4847
Rp4848
(dp4849
g8
g11
sg405
Nsg406
(dp4850
sg408
Nsg26
g29
sg409
(lp4851
I63
aI37
asg411
Nsg412
VTamid 32a:37
p4852
sg414
(lp4853
sg416
g63
sg417
Nsg418
(lp4854
I63
aI37
asg420
Nsg421
g4852
sg422
(lp4855
sg424
g383
sg425
Nsg426
Nsg427
Nsbag2
(g3
g4
Ntp4856
Rp4857
(dp4858
g8
g11
sg405
Nsg406
(dp4859
sg408
Nsg26
g29
sg409
(lp4860
I63
aI38
asg411
Nsg412
VTamid 32a:38
p4861
sg414
(lp4862
sg416
g63
sg417
Nsg418
(lp4863
I63
aI38
asg420
Nsg421
g4861
sg422
(lp4864
sg424
g383
sg425
Nsg426
Nsg427
Nsbag2
(g3
g4
Ntp4865
Rp4866
(dp4867
g8
g11
sg405
Nsg406
(dp4868
sg408
Nsg26
g29
sg409
(lp4869
I63
aI39
asg411
Nsg412
VTamid 32a:39
p4870
sg414
(lp4871
sg416
g63
sg417
Nsg418
(lp4872
I63
aI39
asg420
Nsg421
g4870
sg422
(lp4873
sg424
g383
sg425
Nsg426
Nsg427
Nsbag2
(g3
g4
Ntp4874
Rp4875
(dp4876
g8
g11
sg405
Nsg406
(dp4877
sg408
Nsg26
g29
sg409
(lp4878
I63
aI40
asg411
Nsg412
VTamid 32a:40
p4879
sg414
(lp4880
sg416
g63
sg417
Nsg418
(lp4881
I63
aI40
asg420
Nsg421
g4879
sg422
(lp4882
sg424
g383
sg425
Nsg426
Nsg427
Nsbag2
(g3
g4
Ntp4883
Rp4884
(dp4885
g8
g11
sg405
Nsg406
(dp4886
sg408
Nsg26
g29
sg409
(lp4887
I63
aI41
asg411
Nsg412
VTamid 32a:41
p4888
sg414
(lp4889
sg416
g63
sg417
Nsg418
(lp4890
I63
aI41
asg420
Nsg421
g4888
sg422
(lp4891
sg424
g383
sg425
Nsg426
Nsg427
Nsbag2
(g3
g4
Ntp4892
Rp4893
(dp4894
g8
g11
sg405
Nsg406
(dp4895
sg408
Nsg26
g29
sg409
(lp4896
I63
aI42
asg411
Nsg412
VTamid 32a:42
p4897
sg414
(lp4898
sg416
g63
sg417
Nsg418
(lp4899
I63
aI42
asg420
Nsg421
g4897
sg422
(lp4900
sg424
g383
sg425
Nsg426
Nsg427
Nsbag2
(g3
g4
Ntp4901
Rp4902
(dp4903
g8
g11
sg405
Nsg406
(dp4904
sg408
Nsg26
g29
sg409
(lp4905
I63
aI43
asg411
Nsg412
VTamid 32a:43
p4906
sg414
(lp4907
sg416
g63
sg417
Nsg418
(lp4908
I63
aI43
asg420
Nsg421
g4906
sg422
(lp4909
sg424
g383
sg425
Nsg426
Nsg427
Nsbag2
(g3
g4
Ntp4910
Rp4911
(dp4912
g8
g11
sg405
Nsg406
(dp4913
sg408
Nsg26
g29
sg409
(lp4914
I63
aI44
asg411
Nsg412
VTamid 32a:44
p4915
sg414
(lp4916
sg416
g63
sg417
Nsg418
(lp4917
I63
aI44
asg420
Nsg421
g4915
sg422
(lp4918
sg424
g383
sg425
Nsg426
Nsg427
Nsbag2
(g3
g4
Ntp4919
Rp4920
(dp4921
g8
g11
sg405
Nsg406
(dp4922
sg408
Nsg26
g29
sg409
(lp4923
I63
aI45
asg411
Nsg412
VTamid 32a:45
p4924
sg414
(lp4925
sg416
g63
sg417
Nsg418
(lp4926
I63
aI45
asg420
Nsg421
g4924
sg422
(lp4927
sg424
g383
sg425
Nsg426
Nsg427
Nsbag2
(g3
g4
Ntp4928
Rp4929
(dp4930
g8
g11
sg405
Nsg406
(dp4931
sg408
Nsg26
g29
sg409
(lp4932
I63
aI46
asg411
Nsg412
VTamid 32a:46
p4933
sg414
(lp4934
sg416
g63
sg417
Nsg418
(lp4935
I63
aI46
asg420
Nsg421
g4933
sg422
(lp4936
sg424
g383
sg425
Nsg426
Nsg427
Nsbag2
(g3
g4
Ntp4937
Rp4938
(dp4939
g8
g11
sg405
Nsg406
(dp4940
sg408
Nsg26
g29
sg409
(lp4941
I63
aI47
asg411
Nsg412
VTamid 32a:47
p4942
sg414
(lp4943
sg416
g63
sg417
Nsg418
(lp4944
I63
aI47
asg420
Nsg421
g4942
sg422
(lp4945
sg424
g383
sg425
Nsg426
Nsg427
Nsbag2
(g3
g4
Ntp4946
Rp4947
(dp4948
g8
g11
sg405
Nsg406
(dp4949
sg408
Nsg26
g29
sg409
(lp4950
I63
aI48
asg411
Nsg412
VTamid 32a:48
p4951
sg414
(lp4952
sg416
g63
sg417
Nsg418
(lp4953
I63
aI48
asg420
Nsg421
g4951
sg422
(lp4954
sg424
g383
sg425
Nsg426
Nsg427
Nsbag2
(g3
g4
Ntp4955
Rp4956
(dp4957
g8
g11
sg405
Nsg406
(dp4958
sg408
Nsg26
g29
sg409
(lp4959
I63
aI49
asg411
Nsg412
VTamid 32a:49
p4960
sg414
(lp4961
sg416
g63
sg417
Nsg418
(lp4962
I63
aI49
asg420
Nsg421
g4960
sg422
(lp4963
sg424
g383
sg425
Nsg426
Nsg427
Nsbag2
(g3
g4
Ntp4964
Rp4965
(dp4966
g8
g11
sg405
Nsg406
(dp4967
sg408
Nsg26
g29
sg409
(lp4968
I63
aI50
asg411
Nsg412
VTamid 32a:50
p4969
sg414
(lp4970
sg416
g63
sg417
Nsg418
(lp4971
I63
aI50
asg420
Nsg421
g4969
sg422
(lp4972
sg424
g383
sg425
Nsg426
Nsg427
Nsbag2
(g3
g4
Ntp4973
Rp4974
(dp4975
g8
g11
sg405
Nsg406
(dp4976
sg408
Nsg26
g29
sg409
(lp4977
I63
aI51
asg411
Nsg412
VTamid 32a:51
p4978
sg414
(lp4979
sg416
g63
sg417
Nsg418
(lp4980
I63
aI51
asg420
Nsg421
g4978
sg422
(lp4981
sg424
g383
sg425
Nsg426
Nsg427
Nsbag2
(g3
g4
Ntp4982
Rp4983
(dp4984
g8
g11
sg405
Nsg406
(dp4985
sg408
Nsg26
g29
sg409
(lp4986
I63
aI52
asg411
Nsg412
VTamid 32a:52
p4987
sg414
(lp4988
sg416
g63
sg417
Nsg418
(lp4989
I63
aI52
asg420
Nsg421
g4987
sg422
(lp4990
sg424
g383
sg425
Nsg426
Nsg427
Nsbag2
(g3
g4
Ntp4991
Rp4992
(dp4993
g8
g11
sg405
Nsg406
(dp4994
sg408
Nsg26
g29
sg409
(lp4995
I63
aI53
asg411
Nsg412
VTamid 32a:53
p4996
sg414
(lp4997
sg416
g63
sg417
Nsg418
(lp4998
I63
aI53
asg420
Nsg421
g4996
sg422
(lp4999
sg424
g383
sg425
Nsg426
Nsg427
Nsbag2
(g3
g4
Ntp5000
Rp5001
(dp5002
g8
g11
sg405
Nsg406
(dp5003
sg408
Nsg26
g29
sg409
(lp5004
I63
aI54
asg411
Nsg412
VTamid 32a:54
p5005
sg414
(lp5006
sg416
g63
sg417
Nsg418
(lp5007
I63
aI54
asg420
Nsg421
g5005
sg422
(lp5008
sg424
g383
sg425
Nsg426
Nsg427
Nsbag2
(g3
g4
Ntp5009
Rp5010
(dp5011
g8
g11
sg405
Nsg406
(dp5012
sg408
Nsg26
g29
sg409
(lp5013
I63
aI55
asg411
Nsg412
VTamid 32a:55
p5014
sg414
(lp5015
sg416
g63
sg417
Nsg418
(lp5016
I63
aI55
asg420
Nsg421
g5014
sg422
(lp5017
sg424
g383
sg425
Nsg426
Nsg427
Nsbag2
(g3
g4
Ntp5018
Rp5019
(dp5020
g8
g11
sg405
Nsg406
(dp5021
sg408
Nsg26
g29
sg409
(lp5022
I63
aI56
asg411
Nsg412
VTamid 32a:56
p5023
sg414
(lp5024
sg416
g63
sg417
Nsg418
(lp5025
I63
aI56
asg420
Nsg421
g5023
sg422
(lp5026
sg424
g383
sg425
Nsg426
Nsg427
Nsbag2
(g3
g4
Ntp5027
Rp5028
(dp5029
g8
g11
sg405
Nsg406
(dp5030
sg408
Nsg26
g29
sg409
(lp5031
I63
aI57
asg411
Nsg412
VTamid 32a:57
p5032
sg414
(lp5033
sg416
g63
sg417
Nsg418
(lp5034
I63
aI57
asg420
Nsg421
g5032
sg422
(lp5035
sg424
g383
sg425
Nsg426
Nsg427
Nsbag2
(g3
g4
Ntp5036
Rp5037
(dp5038
g8
g11
sg405
Nsg406
(dp5039
sg408
Nsg26
g29
sg409
(lp5040
I63
aI58
asg411
Nsg412
VTamid 32a:58
p5041
sg414
(lp5042
sg416
g63
sg417
Nsg418
(lp5043
I63
aI58
asg420
Nsg421
g5041
sg422
(lp5044
sg424
g383
sg425
Nsg426
Nsg427
Nsbag2
(g3
g4
Ntp5045
Rp5046
(dp5047
g8
g11
sg405
Nsg406
(dp5048
sg408
Nsg26
g29
sg409
(lp5049
I63
aI59
asg411
Nsg412
VTamid 32a:59
p5050
sg414
(lp5051
sg416
g63
sg417
Nsg418
(lp5052
I63
aI59
asg420
Nsg421
g5050
sg422
(lp5053
sg424
g383
sg425
Nsg426
Nsg427
Nsbag2
(g3
g4
Ntp5054
Rp5055
(dp5056
g8
g11
sg405
Nsg406
(dp5057
sg408
Nsg26
g29
sg409
(lp5058
I63
aI60
asg411
Nsg412
VTamid 32a:60
p5059
sg414
(lp5060
sg416
g63
sg417
Nsg418
(lp5061
I63
aI60
asg420
Nsg421
g5059
sg422
(lp5062
sg424
g383
sg425
Nsg426
Nsg427
Nsbag2
(g3
g4
Ntp5063
Rp5064
(dp5065
g8
g11
sg405
Nsg406
(dp5066
sg408
Nsg26
g29
sg409
(lp5067
I63
aI61
asg411
Nsg412
VTamid 32a:61
p5068
sg414
(lp5069
sg416
g63
sg417
Nsg418
(lp5070
I63
aI61
asg420
Nsg421
g5068
sg422
(lp5071
sg424
g383
sg425
Nsg426
Nsg427
Nsbag2
(g3
g4
Ntp5072
Rp5073
(dp5074
g8
g11
sg405
Nsg406
(dp5075
sg408
Nsg26
g29
sg409
(lp5076
I63
aI62
asg411
Nsg412
VTamid 32a:62
p5077
sg414
(lp5078
sg416
g63
sg417
Nsg418
(lp5079
I63
aI62
asg420
Nsg421
g5077
sg422
(lp5080
sg424
g383
sg425
Nsg426
Nsg427
Nsbag2
(g3
g4
Ntp5081
Rp5082
(dp5083
g8
g11
sg405
Nsg406
(dp5084
sg408
Nsg26
g29
sg409
(lp5085
I63
aI63
asg411
Nsg412
VTamid 32a:63
p5086
sg414
(lp5087
sg416
g63
sg417
Nsg418
(lp5088
I63
aI63
asg420
Nsg421
g5086
sg422
(lp5089
sg424
g383
sg425
Nsg426
Nsg427
Nsbag2
(g3
g4
Ntp5090
Rp5091
(dp5092
g8
g11
sg405
Nsg406
(dp5093
sg408
Nsg26
g29
sg409
(lp5094
I63
aI64
asg411
Nsg412
VTamid 32a:64
p5095
sg414
(lp5096
sg416
g63
sg417
Nsg418
(lp5097
I63
aI64
asg420
Nsg421
g5095
sg422
(lp5098
sg424
g383
sg425
Nsg426
Nsg427
Nsbag2
(g3
g4
Ntp5099
Rp5100
(dp5101
g8
g11
sg405
Nsg406
(dp5102
sg408
Nsg26
g29
sg409
(lp5103
I63
aI65
asg411
Nsg412
VTamid 32a:65
p5104
sg414
(lp5105
sg416
g63
sg417
Nsg418
(lp5106
I63
aI65
asg420
Nsg421
g5104
sg422
(lp5107
sg424
g383
sg425
Nsg426
Nsg427
Nsbag2
(g3
g4
Ntp5108
Rp5109
(dp5110
g8
g11
sg405
Nsg406
(dp5111
sg408
Nsg26
g29
sg409
(lp5112
I63
aI66
asg411
Nsg412
VTamid 32a:66
p5113
sg414
(lp5114
sg416
g63
sg417
Nsg418
(lp5115
I63
aI66
asg420
Nsg421
g5113
sg422
(lp5116
sg424
g383
sg425
Nsg426
Nsg427
Nsbag2
(g3
g4
Ntp5117
Rp5118
(dp5119
g8
g11
sg405
Nsg406
(dp5120
sg408
Nsg26
g29
sg409
(lp5121
I63
aI67
asg411
Nsg412
VTamid 32a:67
p5122
sg414
(lp5123
sg416
g63
sg417
Nsg418
(lp5124
I63
aI67
asg420
Nsg421
g5122
sg422
(lp5125
sg424
g383
sg425
Nsg426
Nsg427
Nsbag2
(g3
g4
Ntp5126
Rp5127
(dp5128
g8
g11
sg405
Nsg406
(dp5129
sg408
Nsg26
g29
sg409
(lp5130
I63
aI68
asg411
Nsg412
VTamid 32a:68
p5131
sg414
(lp5132
sg416
g63
sg417
Nsg418
(lp5133
I63
aI68
asg420
Nsg421
g5131
sg422
(lp5134
sg424
g383
sg425
Nsg426
Nsg427
Nsbag2
(g3
g4
Ntp5135
Rp5136
(dp5137
g8
g11
sg405
Nsg406
(dp5138
sg408
Nsg26
g29
sg409
(lp5139
I63
aI69
asg411
Nsg412
VTamid 32a:69
p5140
sg414
(lp5141
sg416
g63
sg417
Nsg418
(lp5142
I63
aI69
asg420
Nsg421
g5140
sg422
(lp5143
sg424
g383
sg425
Nsg426
Nsg427
Nsbag2
(g3
g4
Ntp5144
Rp5145
(dp5146
g8
g11
sg405
Nsg406
(dp5147
sg408
Nsg26
g29
sg409
(lp5148
I63
aI70
asg411
Nsg412
VTamid 32a:70
p5149
sg414
(lp5150
sg416
g63
sg417
Nsg418
(lp5151
I63
aI70
asg420
Nsg421
g5149
sg422
(lp5152
sg424
g383
sg425
Nsg426
Nsg427
Nsbag2
(g3
g4
Ntp5153
Rp5154
(dp5155
g8
g11
sg405
Nsg406
(dp5156
sg408
Nsg26
g29
sg409
(lp5157
I63
aI71
asg411
Nsg412
VTamid 32a:71
p5158
sg414
(lp5159
sg416
g63
sg417
Nsg418
(lp5160
I63
aI71
asg420
Nsg421
g5158
sg422
(lp5161
sg424
g383
sg425
Nsg426
Nsg427
Nsbag2
(g3
g4
Ntp5162
Rp5163
(dp5164
g8
g11
sg405
Nsg406
(dp5165
sg408
Nsg26
g29
sg409
(lp5166
I63
aI72
asg411
Nsg412
VTamid 32a:72
p5167
sg414
(lp5168
sg416
g63
sg417
Nsg418
(lp5169
I63
aI72
asg420
Nsg421
g5167
sg422
(lp5170
sg424
g383
sg425
Nsg426
Nsg427
Nsbag2
(g3
g4
Ntp5171
Rp5172
(dp5173
g8
g11
sg405
Nsg406
(dp5174
sg408
Nsg26
g29
sg409
(lp5175
I63
aI73
asg411
Nsg412
VTamid 32a:73
p5176
sg414
(lp5177
sg416
g63
sg417
Nsg418
(lp5178
I63
aI73
asg420
Nsg421
g5176
sg422
(lp5179
sg424
g383
sg425
Nsg426
Nsg427
Nsbag2
(g3
g4
Ntp5180
Rp5181
(dp5182
g8
g11
sg405
Nsg406
(dp5183
sg408
Nsg26
g29
sg409
(lp5184
I63
aI74
asg411
Nsg412
VTamid 32a:74
p5185
sg414
(lp5186
sg416
g63
sg417
Nsg418
(lp5187
I63
aI74
asg420
Nsg421
g5185
sg422
(lp5188
sg424
g383
sg425
Nsg426
Nsg427
Nsbag2
(g3
g4
Ntp5189
Rp5190
(dp5191
g8
g11
sg405
Nsg406
(dp5192
sg408
Nsg26
g29
sg409
(lp5193
I63
aI75
asg411
Nsg412
VTamid 32a:75
p5194
sg414
(lp5195
sg416
g63
sg417
Nsg418
(lp5196
I63
aI75
asg420
Nsg421
g5194
sg422
(lp5197
sg424
g383
sg425
Nsg426
Nsg427
Nsbag2
(g3
g4
Ntp5198
Rp5199
(dp5200
g8
g11
sg405
Nsg406
(dp5201
sg408
Nsg26
g29
sg409
(lp5202
I63
aI76
asg411
Nsg412
VTamid 32a:76
p5203
sg414
(lp5204
sg416
g63
sg417
Nsg418
(lp5205
I63
aI76
asg420
Nsg421
g5203
sg422
(lp5206
sg424
g383
sg425
Nsg426
Nsg427
Nsbag2
(g3
g4
Ntp5207
Rp5208
(dp5209
g8
g11
sg405
Nsg406
(dp5210
sg408
Nsg26
g29
sg409
(lp5211
I63
aI77
asg411
Nsg412
VTamid 32a:77
p5212
sg414
(lp5213
sg416
g63
sg417
Nsg418
(lp5214
I63
aI77
asg420
Nsg421
g5212
sg422
(lp5215
sg424
g383
sg425
Nsg426
Nsg427
Nsbag2
(g3
g4
Ntp5216
Rp5217
(dp5218
g8
g11
sg405
Nsg406
(dp5219
sg408
Nsg26
g29
sg409
(lp5220
I63
aI78
asg411
Nsg412
VTamid 32a:78
p5221
sg414
(lp5222
sg416
g63
sg417
Nsg418
(lp5223
I63
aI78
asg420
Nsg421
g5221
sg422
(lp5224
sg424
g383
sg425
Nsg426
Nsg427
Nsbag2
(g3
g4
Ntp5225
Rp5226
(dp5227
g8
g11
sg405
Nsg406
(dp5228
sg408
Nsg26
g29
sg409
(lp5229
I63
aI79
asg411
Nsg412
VTamid 32a:79
p5230
sg414
(lp5231
sg416
g63
sg417
Nsg418
(lp5232
I63
aI79
asg420
Nsg421
g5230
sg422
(lp5233
sg424
g383
sg425
Nsg426
Nsg427
Nsbag2
(g3
g4
Ntp5234
Rp5235
(dp5236
g8
g11
sg405
Nsg406
(dp5237
sg408
Nsg26
g29
sg409
(lp5238
I63
aI80
asg411
Nsg412
VTamid 32a:80
p5239
sg414
(lp5240
sg416
g63
sg417
Nsg418
(lp5241
I63
aI80
asg420
Nsg421
g5239
sg422
(lp5242
sg424
g383
sg425
Nsg426
Nsg427
Nsbag2
(g3
g4
Ntp5243
Rp5244
(dp5245
g8
g11
sg405
Nsg406
(dp5246
sg408
Nsg26
g29
sg409
(lp5247
I63
aI81
asg411
Nsg412
VTamid 32a:81
p5248
sg414
(lp5249
sg416
g63
sg417
Nsg418
(lp5250
I63
aI81
asg420
Nsg421
g5248
sg422
(lp5251
sg424
g383
sg425
Nsg426
Nsg427
Nsbag2
(g3
g4
Ntp5252
Rp5253
(dp5254
g8
g11
sg405
Nsg406
(dp5255
sg408
Nsg26
g29
sg409
(lp5256
I63
aI82
asg411
Nsg412
VTamid 32a:82
p5257
sg414
(lp5258
sg416
g63
sg417
Nsg418
(lp5259
I63
aI82
asg420
Nsg421
g5257
sg422
(lp5260
sg424
g383
sg425
Nsg426
Nsg427
Nsbag2
(g3
g4
Ntp5261
Rp5262
(dp5263
g8
g11
sg405
Nsg406
(dp5264
sg408
Nsg26
g29
sg409
(lp5265
I63
aI83
asg411
Nsg412
VTamid 32a:83
p5266
sg414
(lp5267
sg416
g63
sg417
Nsg418
(lp5268
I63
aI83
asg420
Nsg421
g5266
sg422
(lp5269
sg424
g383
sg425
Nsg426
Nsg427
Nsbag2
(g3
g4
Ntp5270
Rp5271
(dp5272
g8
g11
sg405
Nsg406
(dp5273
sg408
Nsg26
g29
sg409
(lp5274
I63
aI84
asg411
Nsg412
VTamid 32a:84
p5275
sg414
(lp5276
sg416
g63
sg417
Nsg418
(lp5277
I63
aI84
asg420
Nsg421
g5275
sg422
(lp5278
sg424
g383
sg425
Nsg426
Nsg427
Nsbag2
(g3
g4
Ntp5279
Rp5280
(dp5281
g8
g11
sg405
Nsg406
(dp5282
sg408
Nsg26
g29
sg409
(lp5283
I64
aI1
asg411
Nsg412
VTamid 32b:1
p5284
sg414
(lp5285
sg416
g63
sg417
Nsg418
(lp5286
I64
aI1
asg420
Nsg421
g5284
sg422
(lp5287
sg424
g383
sg425
Nsg426
Nsg427
Nsbag2
(g3
g4
Ntp5288
Rp5289
(dp5290
g8
g11
sg405
Nsg406
(dp5291
sg408
Nsg26
g29
sg409
(lp5292
I64
aI2
asg411
Nsg412
VTamid 32b:2
p5293
sg414
(lp5294
sg416
g63
sg417
Nsg418
(lp5295
I64
aI2
asg420
Nsg421
g5293
sg422
(lp5296
sg424
g383
sg425
Nsg426
Nsg427
Nsbag2
(g3
g4
Ntp5297
Rp5298
(dp5299
g8
g11
sg405
Nsg406
(dp5300
sg408
Nsg26
g29
sg409
(lp5301
I64
aI3
asg411
Nsg412
VTamid 32b:3
p5302
sg414
(lp5303
sg416
g63
sg417
Nsg418
(lp5304
I64
aI3
asg420
Nsg421
g5302
sg422
(lp5305
sg424
g383
sg425
Nsg426
Nsg427
Nsbag2
(g3
g4
Ntp5306
Rp5307
(dp5308
g8
g11
sg405
Nsg406
(dp5309
sg408
Nsg26
g29
sg409
(lp5310
I64
aI4
asg411
Nsg412
VTamid 32b:4
p5311
sg414
(lp5312
sg416
g63
sg417
Nsg418
(lp5313
I64
aI4
asg420
Nsg421
g5311
sg422
(lp5314
sg424
g383
sg425
Nsg426
Nsg427
Nsbag2
(g3
g4
Ntp5315
Rp5316
(dp5317
g8
g11
sg405
Nsg406
(dp5318
sg408
Nsg26
g29
sg409
(lp5319
I64
aI5
asg411
Nsg412
VTamid 32b:5
p5320
sg414
(lp5321
sg416
g63
sg417
Nsg418
(lp5322
I64
aI5
asg420
Nsg421
g5320
sg422
(lp5323
sg424
g383
sg425
Nsg426
Nsg427
Nsbag2
(g3
g4
Ntp5324
Rp5325
(dp5326
g8
g11
sg405
Nsg406
(dp5327
sg408
Nsg26
g29
sg409
(lp5328
I64
aI6
asg411
Nsg412
VTamid 32b:6
p5329
sg414
(lp5330
sg416
g63
sg417
Nsg418
(lp5331
I64
aI6
asg420
Nsg421
g5329
sg422
(lp5332
sg424
g383
sg425
Nsg426
Nsg427
Nsbag2
(g3
g4
Ntp5333
Rp5334
(dp5335
g8
g11
sg405
Nsg406
(dp5336
sg408
Nsg26
g29
sg409
(lp5337
I64
aI7
asg411
Nsg412
VTamid 32b:7
p5338
sg414
(lp5339
sg416
g63
sg417
Nsg418
(lp5340
I64
aI7
asg420
Nsg421
g5338
sg422
(lp5341
sg424
g383
sg425
Nsg426
Nsg427
Nsbag2
(g3
g4
Ntp5342
Rp5343
(dp5344
g8
g11
sg405
Nsg406
(dp5345
sg408
Nsg26
g29
sg409
(lp5346
I64
aI8
asg411
Nsg412
VTamid 32b:8
p5347
sg414
(lp5348
sg416
g63
sg417
Nsg418
(lp5349
I64
aI8
asg420
Nsg421
g5347
sg422
(lp5350
sg424
g383
sg425
Nsg426
Nsg427
Nsbag2
(g3
g4
Ntp5351
Rp5352
(dp5353
g8
g11
sg405
Nsg406
(dp5354
sg408
Nsg26
g29
sg409
(lp5355
I64
aI9
asg411
Nsg412
VTamid 32b:9
p5356
sg414
(lp5357
sg416
g63
sg417
Nsg418
(lp5358
I64
aI9
asg420
Nsg421
g5356
sg422
(lp5359
sg424
g383
sg425
Nsg426
Nsg427
Nsbag2
(g3
g4
Ntp5360
Rp5361
(dp5362
g8
g11
sg405
Nsg406
(dp5363
sg408
Nsg26
g29
sg409
(lp5364
I64
aI10
asg411
Nsg412
VTamid 32b:10
p5365
sg414
(lp5366
sg416
g63
sg417
Nsg418
(lp5367
I64
aI10
asg420
Nsg421
g5365
sg422
(lp5368
sg424
g383
sg425
Nsg426
Nsg427
Nsbag2
(g3
g4
Ntp5369
Rp5370
(dp5371
g8
g11
sg405
Nsg406
(dp5372
sg408
Nsg26
g29
sg409
(lp5373
I64
aI11
asg411
Nsg412
VTamid 32b:11
p5374
sg414
(lp5375
sg416
g63
sg417
Nsg418
(lp5376
I64
aI11
asg420
Nsg421
g5374
sg422
(lp5377
sg424
g383
sg425
Nsg426
Nsg427
Nsbag2
(g3
g4
Ntp5378
Rp5379
(dp5380
g8
g11
sg405
Nsg406
(dp5381
sg408
Nsg26
g29
sg409
(lp5382
I64
aI12
asg411
Nsg412
VTamid 32b:12
p5383
sg414
(lp5384
sg416
g63
sg417
Nsg418
(lp5385
I64
aI12
asg420
Nsg421
g5383
sg422
(lp5386
sg424
g383
sg425
Nsg426
Nsg427
Nsbag2
(g3
g4
Ntp5387
Rp5388
(dp5389
g8
g11
sg405
Nsg406
(dp5390
sg408
Nsg26
g29
sg409
(lp5391
I64
aI13
asg411
Nsg412
VTamid 32b:13
p5392
sg414
(lp5393
sg416
g63
sg417
Nsg418
(lp5394
I64
aI13
asg420
Nsg421
g5392
sg422
(lp5395
sg424
g383
sg425
Nsg426
Nsg427
Nsbag2
(g3
g4
Ntp5396
Rp5397
(dp5398
g8
g11
sg405
Nsg406
(dp5399
sg408
Nsg26
g29
sg409
(lp5400
I64
aI14
asg411
Nsg412
VTamid 32b:14
p5401
sg414
(lp5402
sg416
g63
sg417
Nsg418
(lp5403
I64
aI14
asg420
Nsg421
g5401
sg422
(lp5404
sg424
g383
sg425
Nsg426
Nsg427
Nsbag2
(g3
g4
Ntp5405
Rp5406
(dp5407
g8
g11
sg405
Nsg406
(dp5408
sg408
Nsg26
g29
sg409
(lp5409
I64
aI15
asg411
Nsg412
VTamid 32b:15
p5410
sg414
(lp5411
sg416
g63
sg417
Nsg418
(lp5412
I64
aI15
asg420
Nsg421
g5410
sg422
(lp5413
sg424
g383
sg425
Nsg426
Nsg427
Nsbag2
(g3
g4
Ntp5414
Rp5415
(dp5416
g8
g11
sg405
Nsg406
(dp5417
sg408
Nsg26
g29
sg409
(lp5418
I64
aI16
asg411
Nsg412
VTamid 32b:16
p5419
sg414
(lp5420
sg416
g63
sg417
Nsg418
(lp5421
I64
aI16
asg420
Nsg421
g5419
sg422
(lp5422
sg424
g383
sg425
Nsg426
Nsg427
Nsbag2
(g3
g4
Ntp5423
Rp5424
(dp5425
g8
g11
sg405
Nsg406
(dp5426
sg408
Nsg26
g29
sg409
(lp5427
I64
aI17
asg411
Nsg412
VTamid 32b:17
p5428
sg414
(lp5429
sg416
g63
sg417
Nsg418
(lp5430
I64
aI17
asg420
Nsg421
g5428
sg422
(lp5431
sg424
g383
sg425
Nsg426
Nsg427
Nsbag2
(g3
g4
Ntp5432
Rp5433
(dp5434
g8
g11
sg405
Nsg406
(dp5435
sg408
Nsg26
g29
sg409
(lp5436
I64
aI18
asg411
Nsg412
VTamid 32b:18
p5437
sg414
(lp5438
sg416
g63
sg417
Nsg418
(lp5439
I64
aI18
asg420
Nsg421
g5437
sg422
(lp5440
sg424
g383
sg425
Nsg426
Nsg427
Nsbag2
(g3
g4
Ntp5441
Rp5442
(dp5443
g8
g11
sg405
Nsg406
(dp5444
sg408
Nsg26
g29
sg409
(lp5445
I64
aI19
asg411
Nsg412
VTamid 32b:19
p5446
sg414
(lp5447
sg416
g63
sg417
Nsg418
(lp5448
I64
aI19
asg420
Nsg421
g5446
sg422
(lp5449
sg424
g383
sg425
Nsg426
Nsg427
Nsbag2
(g3
g4
Ntp5450
Rp5451
(dp5452
g8
g11
sg405
Nsg406
(dp5453
sg408
Nsg26
g29
sg409
(lp5454
I64
aI20
asg411
Nsg412
VTamid 32b:20
p5455
sg414
(lp5456
sg416
g63
sg417
Nsg418
(lp5457
I64
aI20
asg420
Nsg421
g5455
sg422
(lp5458
sg424
g383
sg425
Nsg426
Nsg427
Nsbag2
(g3
g4
Ntp5459
Rp5460
(dp5461
g8
g11
sg405
Nsg406
(dp5462
sg408
Nsg26
g29
sg409
(lp5463
I64
aI21
asg411
Nsg412
VTamid 32b:21
p5464
sg414
(lp5465
sg416
g63
sg417
Nsg418
(lp5466
I64
aI21
asg420
Nsg421
g5464
sg422
(lp5467
sg424
g383
sg425
Nsg426
Nsg427
Nsbag2
(g3
g4
Ntp5468
Rp5469
(dp5470
g8
g11
sg405
Nsg406
(dp5471
sg408
Nsg26
g29
sg409
(lp5472
I64
aI22
asg411
Nsg412
VTamid 32b:22
p5473
sg414
(lp5474
sg416
g63
sg417
Nsg418
(lp5475
I64
aI22
asg420
Nsg421
g5473
sg422
(lp5476
sg424
g383
sg425
Nsg426
Nsg427
Nsbag2
(g3
g4
Ntp5477
Rp5478
(dp5479
g8
g11
sg405
Nsg406
(dp5480
sg408
Nsg26
g29
sg409
(lp5481
I64
aI23
asg411
Nsg412
VTamid 32b:23
p5482
sg414
(lp5483
sg416
g63
sg417
Nsg418
(lp5484
I64
aI23
asg420
Nsg421
g5482
sg422
(lp5485
sg424
g383
sg425
Nsg426
Nsg427
Nsbag2
(g3
g4
Ntp5486
Rp5487
(dp5488
g8
g11
sg405
Nsg406
(dp5489
sg408
Nsg26
g29
sg409
(lp5490
I64
aI24
asg411
Nsg412
VTamid 32b:24
p5491
sg414
(lp5492
sg416
g63
sg417
Nsg418
(lp5493
I64
aI24
asg420
Nsg421
g5491
sg422
(lp5494
sg424
g383
sg425
Nsg426
Nsg427
Nsbag2
(g3
g4
Ntp5495
Rp5496
(dp5497
g8
g11
sg405
Nsg406
(dp5498
sg408
Nsg26
g29
sg409
(lp5499
I64
aI25
asg411
Nsg412
VTamid 32b:25
p5500
sg414
(lp5501
sg416
g63
sg417
Nsg418
(lp5502
I64
aI25
asg420
Nsg421
g5500
sg422
(lp5503
sg424
g383
sg425
Nsg426
Nsg427
Nsbag2
(g3
g4
Ntp5504
Rp5505
(dp5506
g8
g11
sg405
Nsg406
(dp5507
sg408
Nsg26
g29
sg409
(lp5508
I64
aI26
asg411
Nsg412
VTamid 32b:26
p5509
sg414
(lp5510
sg416
g63
sg417
Nsg418
(lp5511
I64
aI26
asg420
Nsg421
g5509
sg422
(lp5512
sg424
g383
sg425
Nsg426
Nsg427
Nsbag2
(g3
g4
Ntp5513
Rp5514
(dp5515
g8
g11
sg405
Nsg406
(dp5516
sg408
Nsg26
g29
sg409
(lp5517
I64
aI27
asg411
Nsg412
VTamid 32b:27
p5518
sg414
(lp5519
sg416
g63
sg417
Nsg418
(lp5520
I64
aI27
asg420
Nsg421
g5518
sg422
(lp5521
sg424
g383
sg425
Nsg426
Nsg427
Nsbag2
(g3
g4
Ntp5522
Rp5523
(dp5524
g8
g11
sg405
Nsg406
(dp5525
sg408
Nsg26
g29
sg409
(lp5526
I64
aI28
asg411
Nsg412
VTamid 32b:28
p5527
sg414
(lp5528
sg416
g63
sg417
Nsg418
(lp5529
I64
aI28
asg420
Nsg421
g5527
sg422
(lp5530
sg424
g383
sg425
Nsg426
Nsg427
Nsbag2
(g3
g4
Ntp5531
Rp5532
(dp5533
g8
g11
sg405
Nsg406
(dp5534
sg408
Nsg26
g29
sg409
(lp5535
I64
aI29
asg411
Nsg412
VTamid 32b:29
p5536
sg414
(lp5537
sg416
g63
sg417
Nsg418
(lp5538
I64
aI29
asg420
Nsg421
g5536
sg422
(lp5539
sg424
g383
sg425
Nsg426
Nsg427
Nsbag2
(g3
g4
Ntp5540
Rp5541
(dp5542
g8
g11
sg405
Nsg406
(dp5543
sg408
Nsg26
g29
sg409
(lp5544
I64
aI30
asg411
Nsg412
VTamid 32b:30
p5545
sg414
(lp5546
sg416
g63
sg417
Nsg418
(lp5547
I64
aI30
asg420
Nsg421
g5545
sg422
(lp5548
sg424
g383
sg425
Nsg426
Nsg427
Nsbag2
(g3
g4
Ntp5549
Rp5550
(dp5551
g8
g11
sg405
Nsg406
(dp5552
sg408
Nsg26
g29
sg409
(lp5553
I64
aI31
asg411
Nsg412
VTamid 32b:31
p5554
sg414
(lp5555
sg416
g63
sg417
Nsg418
(lp5556
I64
aI31
asg420
Nsg421
g5554
sg422
(lp5557
sg424
g383
sg425
Nsg426
Nsg427
Nsbag2
(g3
g4
Ntp5558
Rp5559
(dp5560
g8
g11
sg405
Nsg406
(dp5561
sg408
Nsg26
g29
sg409
(lp5562
I64
aI32
asg411
Nsg412
VTamid 32b:32
p5563
sg414
(lp5564
sg416
g63
sg417
Nsg418
(lp5565
I64
aI32
asg420
Nsg421
g5563
sg422
(lp5566
sg424
g383
sg425
Nsg426
Nsg427
Nsbag2
(g3
g4
Ntp5567
Rp5568
(dp5569
g8
g11
sg405
Nsg406
(dp5570
sg408
Nsg26
g29
sg409
(lp5571
I64
aI33
asg411
Nsg412
VTamid 32b:33
p5572
sg414
(lp5573
sg416
g63
sg417
Nsg418
(lp5574
I64
aI33
asg420
Nsg421
g5572
sg422
(lp5575
sg424
g383
sg425
Nsg426
Nsg427
Nsbag2
(g3
g4
Ntp5576
Rp5577
(dp5578
g8
g11
sg405
Nsg406
(dp5579
sg408
Nsg26
g29
sg409
(lp5580
I64
aI34
asg411
Nsg412
VTamid 32b:34
p5581
sg414
(lp5582
sg416
g63
sg417
Nsg418
(lp5583
I64
aI34
asg420
Nsg421
g5581
sg422
(lp5584
sg424
g383
sg425
Nsg426
Nsg427
Nsbag2
(g3
g4
Ntp5585
Rp5586
(dp5587
g8
g11
sg405
Nsg406
(dp5588
sg408
Nsg26
g29
sg409
(lp5589
I64
aI35
asg411
Nsg412
VTamid 32b:35
p5590
sg414
(lp5591
sg416
g63
sg417
Nsg418
(lp5592
I64
aI35
asg420
Nsg421
g5590
sg422
(lp5593
sg424
g383
sg425
Nsg426
Nsg427
Nsbag2
(g3
g4
Ntp5594
Rp5595
(dp5596
g8
g11
sg405
Nsg406
(dp5597
sg408
Nsg26
g29
sg409
(lp5598
I64
aI36
asg411
Nsg412
VTamid 32b:36
p5599
sg414
(lp5600
sg416
g63
sg417
Nsg418
(lp5601
I64
aI36
asg420
Nsg421
g5599
sg422
(lp5602
sg424
g383
sg425
Nsg426
Nsg427
Nsbag2
(g3
g4
Ntp5603
Rp5604
(dp5605
g8
g11
sg405
Nsg406
(dp5606
sg408
Nsg26
g29
sg409
(lp5607
I64
aI37
asg411
Nsg412
VTamid 32b:37
p5608
sg414
(lp5609
sg416
g63
sg417
Nsg418
(lp5610
I64
aI37
asg420
Nsg421
g5608
sg422
(lp5611
sg424
g383
sg425
Nsg426
Nsg427
Nsbag2
(g3
g4
Ntp5612
Rp5613
(dp5614
g8
g11
sg405
Nsg406
(dp5615
sg408
Nsg26
g29
sg409
(lp5616
I64
aI38
asg411
Nsg412
VTamid 32b:38
p5617
sg414
(lp5618
sg416
g63
sg417
Nsg418
(lp5619
I64
aI38
asg420
Nsg421
g5617
sg422
(lp5620
sg424
g383
sg425
Nsg426
Nsg427
Nsbag2
(g3
g4
Ntp5621
Rp5622
(dp5623
g8
g11
sg405
Nsg406
(dp5624
sg408
Nsg26
g29
sg409
(lp5625
I64
aI39
asg411
Nsg412
VTamid 32b:39
p5626
sg414
(lp5627
sg416
g63
sg417
Nsg418
(lp5628
I64
aI39
asg420
Nsg421
g5626
sg422
(lp5629
sg424
g383
sg425
Nsg426
Nsg427
Nsbag2
(g3
g4
Ntp5630
Rp5631
(dp5632
g8
g11
sg405
Nsg406
(dp5633
sg408
Nsg26
g29
sg409
(lp5634
I64
aI40
asg411
Nsg412
VTamid 32b:40
p5635
sg414
(lp5636
sg416
g63
sg417
Nsg418
(lp5637
I64
aI40
asg420
Nsg421
g5635
sg422
(lp5638
sg424
g383
sg425
Nsg426
Nsg427
Nsbag2
(g3
g4
Ntp5639
Rp5640
(dp5641
g8
g11
sg405
Nsg406
(dp5642
sg408
Nsg26
g29
sg409
(lp5643
I64
aI41
asg411
Nsg412
VTamid 32b:41
p5644
sg414
(lp5645
sg416
g63
sg417
Nsg418
(lp5646
I64
aI41
asg420
Nsg421
g5644
sg422
(lp5647
sg424
g383
sg425
Nsg426
Nsg427
Nsbag2
(g3
g4
Ntp5648
Rp5649
(dp5650
g8
g11
sg405
Nsg406
(dp5651
sg408
Nsg26
g29
sg409
(lp5652
I64
aI42
asg411
Nsg412
VTamid 32b:42
p5653
sg414
(lp5654
sg416
g63
sg417
Nsg418
(lp5655
I64
aI42
asg420
Nsg421
g5653
sg422
(lp5656
sg424
g383
sg425
Nsg426
Nsg427
Nsbag2
(g3
g4
Ntp5657
Rp5658
(dp5659
g8
g11
sg405
Nsg406
(dp5660
sg408
Nsg26
g29
sg409
(lp5661
I64
aI43
asg411
Nsg412
VTamid 32b:43
p5662
sg414
(lp5663
sg416
g63
sg417
Nsg418
(lp5664
I64
aI43
asg420
Nsg421
g5662
sg422
(lp5665
sg424
g383
sg425
Nsg426
Nsg427
Nsbag2
(g3
g4
Ntp5666
Rp5667
(dp5668
g8
g11
sg405
Nsg406
(dp5669
sg408
Nsg26
g29
sg409
(lp5670
I64
aI44
asg411
Nsg412
VTamid 32b:44
p5671
sg414
(lp5672
sg416
g63
sg417
Nsg418
(lp5673
I64
aI44
asg420
Nsg421
g5671
sg422
(lp5674
sg424
g383
sg425
Nsg426
Nsg427
Nsbag2
(g3
g4
Ntp5675
Rp5676
(dp5677
g8
g11
sg405
Nsg406
(dp5678
sg408
Nsg26
g29
sg409
(lp5679
I64
aI45
asg411
Nsg412
VTamid 32b:45
p5680
sg414
(lp5681
sg416
g63
sg417
Nsg418
(lp5682
I64
aI45
asg420
Nsg421
g5680
sg422
(lp5683
sg424
g383
sg425
Nsg426
Nsg427
Nsbag2
(g3
g4
Ntp5684
Rp5685
(dp5686
g8
g11
sg405
Nsg406
(dp5687
sg408
Nsg26
g29
sg409
(lp5688
I64
aI46
asg411
Nsg412
VTamid 32b:46
p5689
sg414
(lp5690
sg416
g63
sg417
Nsg418
(lp5691
I64
aI46
asg420
Nsg421
g5689
sg422
(lp5692
sg424
g383
sg425
Nsg426
Nsg427
Nsbag2
(g3
g4
Ntp5693
Rp5694
(dp5695
g8
g11
sg405
Nsg406
(dp5696
sg408
Nsg26
g29
sg409
(lp5697
I64
aI47
asg411
Nsg412
VTamid 32b:47
p5698
sg414
(lp5699
sg416
g63
sg417
Nsg418
(lp5700
I64
aI47
asg420
Nsg421
g5698
sg422
(lp5701
sg424
g383
sg425
Nsg426
Nsg427
Nsbag2
(g3
g4
Ntp5702
Rp5703
(dp5704
g8
g11
sg405
Nsg406
(dp5705
sg408
Nsg26
g29
sg409
(lp5706
I64
aI48
asg411
Nsg412
VTamid 32b:48
p5707
sg414
(lp5708
sg416
g63
sg417
Nsg418
(lp5709
I64
aI48
asg420
Nsg421
g5707
sg422
(lp5710
sg424
g383
sg425
Nsg426
Nsg427
Nsbag2
(g3
g4
Ntp5711
Rp5712
(dp5713
g8
g11
sg405
Nsg406
(dp5714
sg408
Nsg26
g29
sg409
(lp5715
I64
aI49
asg411
Nsg412
VTamid 32b:49
p5716
sg414
(lp5717
sg416
g63
sg417
Nsg418
(lp5718
I64
aI49
asg420
Nsg421
g5716
sg422
(lp5719
sg424
g383
sg425
Nsg426
Nsg427
Nsbag2
(g3
g4
Ntp5720
Rp5721
(dp5722
g8
g11
sg405
Nsg406
(dp5723
sg408
Nsg26
g29
sg409
(lp5724
I64
aI50
asg411
Nsg412
VTamid 32b:50
p5725
sg414
(lp5726
sg416
g63
sg417
Nsg418
(lp5727
I64
aI50
asg420
Nsg421
g5725
sg422
(lp5728
sg424
g383
sg425
Nsg426
Nsg427
Nsbag2
(g3
g4
Ntp5729
Rp5730
(dp5731
g8
g11
sg405
Nsg406
(dp5732
sg408
Nsg26
g29
sg409
(lp5733
I64
aI51
asg411
Nsg412
VTamid 32b:51
p5734
sg414
(lp5735
sg416
g63
sg417
Nsg418
(lp5736
I64
aI51
asg420
Nsg421
g5734
sg422
(lp5737
sg424
g383
sg425
Nsg426
Nsg427
Nsbag2
(g3
g4
Ntp5738
Rp5739
(dp5740
g8
g11
sg405
Nsg406
(dp5741
sg408
Nsg26
g29
sg409
(lp5742
I64
aI52
asg411
Nsg412
VTamid 32b:52
p5743
sg414
(lp5744
sg416
g63
sg417
Nsg418
(lp5745
I64
aI52
asg420
Nsg421
g5743
sg422
(lp5746
sg424
g383
sg425
Nsg426
Nsg427
Nsbag2
(g3
g4
Ntp5747
Rp5748
(dp5749
g8
g11
sg405
Nsg406
(dp5750
sg408
Nsg26
g29
sg409
(lp5751
I64
aI53
asg411
Nsg412
VTamid 32b:53
p5752
sg414
(lp5753
sg416
g63
sg417
Nsg418
(lp5754
I64
aI53
asg420
Nsg421
g5752
sg422
(lp5755
sg424
g383
sg425
Nsg426
Nsg427
Nsbag2
(g3
g4
Ntp5756
Rp5757
(dp5758
g8
g11
sg405
Nsg406
(dp5759
sg408
Nsg26
g29
sg409
(lp5760
I64
aI54
asg411
Nsg412
VTamid 32b:54
p5761
sg414
(lp5762
sg416
g63
sg417
Nsg418
(lp5763
I64
aI54
asg420
Nsg421
g5761
sg422
(lp5764
sg424
g383
sg425
Nsg426
Nsg427
Nsbag2
(g3
g4
Ntp5765
Rp5766
(dp5767
g8
g11
sg405
Nsg406
(dp5768
sg408
Nsg26
g29
sg409
(lp5769
I64
aI55
asg411
Nsg412
VTamid 32b:55
p5770
sg414
(lp5771
sg416
g63
sg417
Nsg418
(lp5772
I64
aI55
asg420
Nsg421
g5770
sg422
(lp5773
sg424
g383
sg425
Nsg426
Nsg427
Nsbag2
(g3
g4
Ntp5774
Rp5775
(dp5776
g8
g11
sg405
Nsg406
(dp5777
sg408
Nsg26
g29
sg409
(lp5778
I64
aI56
asg411
Nsg412
VTamid 32b:56
p5779
sg414
(lp5780
sg416
g63
sg417
Nsg418
(lp5781
I64
aI56
asg420
Nsg421
g5779
sg422
(lp5782
sg424
g383
sg425
Nsg426
Nsg427
Nsbag2
(g3
g4
Ntp5783
Rp5784
(dp5785
g8
g11
sg405
Nsg406
(dp5786
sg408
Nsg26
g29
sg409
(lp5787
I65
aI1
asg411
Nsg412
VTamid 33a:1
p5788
sg414
(lp5789
sg416
g63
sg417
Nsg418
(lp5790
I65
aI1
asg420
Nsg421
g5788
sg422
(lp5791
sg424
g383
sg425
Nsg426
Nsg427
Nsbag2
(g3
g4
Ntp5792
Rp5793
(dp5794
g8
g11
sg405
Nsg406
(dp5795
sg408
Nsg26
g29
sg409
(lp5796
I65
aI2
asg411
Nsg412
VTamid 33a:2
p5797
sg414
(lp5798
sg416
g63
sg417
Nsg418
(lp5799
I65
aI2
asg420
Nsg421
g5797
sg422
(lp5800
sg424
g383
sg425
Nsg426
Nsg427
Nsbag2
(g3
g4
Ntp5801
Rp5802
(dp5803
g8
g11
sg405
Nsg406
(dp5804
sg408
Nsg26
g29
sg409
(lp5805
I65
aI3
asg411
Nsg412
VTamid 33a:3
p5806
sg414
(lp5807
sg416
g63
sg417
Nsg418
(lp5808
I65
aI3
asg420
Nsg421
g5806
sg422
(lp5809
sg424
g383
sg425
Nsg426
Nsg427
Nsbag2
(g3
g4
Ntp5810
Rp5811
(dp5812
g8
g11
sg405
Nsg406
(dp5813
sg408
Nsg26
g29
sg409
(lp5814
I65
aI4
asg411
Nsg412
VTamid 33a:4
p5815
sg414
(lp5816
sg416
g63
sg417
Nsg418
(lp5817
I65
aI4
asg420
Nsg421
g5815
sg422
(lp5818
sg424
g383
sg425
Nsg426
Nsg427
Nsbag2
(g3
g4
Ntp5819
Rp5820
(dp5821
g8
g11
sg405
Nsg406
(dp5822
sg408
Nsg26
g29
sg409
(lp5823
I65
aI5
asg411
Nsg412
VTamid 33a:5
p5824
sg414
(lp5825
sg416
g63
sg417
Nsg418
(lp5826
I65
aI5
asg420
Nsg421
g5824
sg422
(lp5827
sg424
g383
sg425
Nsg426
Nsg427
Nsbag2
(g3
g4
Ntp5828
Rp5829
(dp5830
g8
g11
sg405
Nsg406
(dp5831
sg408
Nsg26
g29
sg409
(lp5832
I65
aI6
asg411
Nsg412
VTamid 33a:6
p5833
sg414
(lp5834
sg416
g63
sg417
Nsg418
(lp5835
I65
aI6
asg420
Nsg421
g5833
sg422
(lp5836
sg424
g383
sg425
Nsg426
Nsg427
Nsbag2
(g3
g4
Ntp5837
Rp5838
(dp5839
g8
g11
sg405
Nsg406
(dp5840
sg408
Nsg26
g29
sg409
(lp5841
I65
aI7
asg411
Nsg412
VTamid 33a:7
p5842
sg414
(lp5843
sg416
g63
sg417
Nsg418
(lp5844
I65
aI7
asg420
Nsg421
g5842
sg422
(lp5845
sg424
g383
sg425
Nsg426
Nsg427
Nsbag2
(g3
g4
Ntp5846
Rp5847
(dp5848
g8
g11
sg405
Nsg406
(dp5849
sg408
Nsg26
g29
sg409
(lp5850
I65
aI8
asg411
Nsg412
VTamid 33a:8
p5851
sg414
(lp5852
sg416
g63
sg417
Nsg418
(lp5853
I65
aI8
asg420
Nsg421
g5851
sg422
(lp5854
sg424
g383
sg425
Nsg426
Nsg427
Nsbag2
(g3
g4
Ntp5855
Rp5856
(dp5857
g8
g11
sg405
Nsg406
(dp5858
sg408
Nsg26
g29
sg409
(lp5859
I65
aI9
asg411
Nsg412
VTamid 33a:9
p5860
sg414
(lp5861
sg416
g63
sg417
Nsg418
(lp5862
I65
aI9
asg420
Nsg421
g5860
sg422
(lp5863
sg424
g383
sg425
Nsg426
Nsg427
Nsbag2
(g3
g4
Ntp5864
Rp5865
(dp5866
g8
g11
sg405
Nsg406
(dp5867
sg408
Nsg26
g29
sg409
(lp5868
I65
aI10
asg411
Nsg412
VTamid 33a:10
p5869
sg414
(lp5870
sg416
g63
sg417
Nsg418
(lp5871
I65
aI10
asg420
Nsg421
g5869
sg422
(lp5872
sg424
g383
sg425
Nsg426
Nsg427
Nsbag2
(g3
g4
Ntp5873
Rp5874
(dp5875
g8
g11
sg405
Nsg406
(dp5876
sg408
Nsg26
g29
sg409
(lp5877
I65
aI11
asg411
Nsg412
VTamid 33a:11
p5878
sg414
(lp5879
sg416
g63
sg417
Nsg418
(lp5880
I65
aI11
asg420
Nsg421
g5878
sg422
(lp5881
sg424
g383
sg425
Nsg426
Nsg427
Nsbag2
(g3
g4
Ntp5882
Rp5883
(dp5884
g8
g11
sg405
Nsg406
(dp5885
sg408
Nsg26
g29
sg409
(lp5886
I65
aI12
asg411
Nsg412
VTamid 33a:12
p5887
sg414
(lp5888
sg416
g63
sg417
Nsg418
(lp5889
I65
aI12
asg420
Nsg421
g5887
sg422
(lp5890
sg424
g383
sg425
Nsg426
Nsg427
Nsbag2
(g3
g4
Ntp5891
Rp5892
(dp5893
g8
g11
sg405
Nsg406
(dp5894
sg408
Nsg26
g29
sg409
(lp5895
I65
aI13
asg411
Nsg412
VTamid 33a:13
p5896
sg414
(lp5897
sg416
g63
sg417
Nsg418
(lp5898
I65
aI13
asg420
Nsg421
g5896
sg422
(lp5899
sg424
g383
sg425
Nsg426
Nsg427
Nsbag2
(g3
g4
Ntp5900
Rp5901
(dp5902
g8
g11
sg405
Nsg406
(dp5903
sg408
Nsg26
g29
sg409
(lp5904
I65
aI14
asg411
Nsg412
VTamid 33a:14
p5905
sg414
(lp5906
sg416
g63
sg417
Nsg418
(lp5907
I65
aI14
asg420
Nsg421
g5905
sg422
(lp5908
sg424
g383
sg425
Nsg426
Nsg427
Nsbag2
(g3
g4
Ntp5909
Rp5910
(dp5911
g8
g11
sg405
Nsg406
(dp5912
sg408
Nsg26
g29
sg409
(lp5913
I65
aI15
asg411
Nsg412
VTamid 33a:15
p5914
sg414
(lp5915
sg416
g63
sg417
Nsg418
(lp5916
I65
aI15
asg420
Nsg421
g5914
sg422
(lp5917
sg424
g383
sg425
Nsg426
Nsg427
Nsbag2
(g3
g4
Ntp5918
Rp5919
(dp5920
g8
g11
sg405
Nsg406
(dp5921
sg408
Nsg26
g29
sg409
(lp5922
I65
aI16
asg411
Nsg412
VTamid 33a:16
p5923
sg414
(lp5924
sg416
g63
sg417
Nsg418
(lp5925
I65
aI16
asg420
Nsg421
g5923
sg422
(lp5926
sg424
g383
sg425
Nsg426
Nsg427
Nsbag2
(g3
g4
Ntp5927
Rp5928
(dp5929
g8
g11
sg405
Nsg406
(dp5930
sg408
Nsg26
g29
sg409
(lp5931
I65
aI17
asg411
Nsg412
VTamid 33a:17
p5932
sg414
(lp5933
sg416
g63
sg417
Nsg418
(lp5934
I65
aI17
asg420
Nsg421
g5932
sg422
(lp5935
sg424
g383
sg425
Nsg426
Nsg427
Nsbag2
(g3
g4
Ntp5936
Rp5937
(dp5938
g8
g11
sg405
Nsg406
(dp5939
sg408
Nsg26
g29
sg409
(lp5940
I65
aI18
asg411
Nsg412
VTamid 33a:18
p5941
sg414
(lp5942
sg416
g63
sg417
Nsg418
(lp5943
I65
aI18
asg420
Nsg421
g5941
sg422
(lp5944
sg424
g383
sg425
Nsg426
Nsg427
Nsbag2
(g3
g4
Ntp5945
Rp5946
(dp5947
g8
g11
sg405
Nsg406
(dp5948
sg408
Nsg26
g29
sg409
(lp5949
I65
aI19
asg411
Nsg412
VTamid 33a:19
p5950
sg414
(lp5951
sg416
g63
sg417
Nsg418
(lp5952
I65
aI19
asg420
Nsg421
g5950
sg422
(lp5953
sg424
g383
sg425
Nsg426
Nsg427
Nsbag2
(g3
g4
Ntp5954
Rp5955
(dp5956
g8
g11
sg405
Nsg406
(dp5957
sg408
Nsg26
g29
sg409
(lp5958
I65
aI20
asg411
Nsg412
VTamid 33a:20
p5959
sg414
(lp5960
sg416
g63
sg417
Nsg418
(lp5961
I65
aI20
asg420
Nsg421
g5959
sg422
(lp5962
sg424
g383
sg425
Nsg426
Nsg427
Nsbag2
(g3
g4
Ntp5963
Rp5964
(dp5965
g8
g11
sg405
Nsg406
(dp5966
sg408
Nsg26
g29
sg409
(lp5967
I65
aI21
asg411
Nsg412
VTamid 33a:21
p5968
sg414
(lp5969
sg416
g63
sg417
Nsg418
(lp5970
I65
aI21
asg420
Nsg421
g5968
sg422
(lp5971
sg424
g383
sg425
Nsg426
Nsg427
Nsbag2
(g3
g4
Ntp5972
Rp5973
(dp5974
g8
g11
sg405
Nsg406
(dp5975
sg408
Nsg26
g29
sg409
(lp5976
I65
aI22
asg411
Nsg412
VTamid 33a:22
p5977
sg414
(lp5978
sg416
g63
sg417
Nsg418
(lp5979
I65
aI22
asg420
Nsg421
g5977
sg422
(lp5980
sg424
g383
sg425
Nsg426
Nsg427
Nsbag2
(g3
g4
Ntp5981
Rp5982
(dp5983
g8
g11
sg405
Nsg406
(dp5984
sg408
Nsg26
g29
sg409
(lp5985
I65
aI23
asg411
Nsg412
VTamid 33a:23
p5986
sg414
(lp5987
sg416
g63
sg417
Nsg418
(lp5988
I65
aI23
asg420
Nsg421
g5986
sg422
(lp5989
sg424
g383
sg425
Nsg426
Nsg427
Nsbag2
(g3
g4
Ntp5990
Rp5991
(dp5992
g8
g11
sg405
Nsg406
(dp5993
sg408
Nsg26
g29
sg409
(lp5994
I65
aI24
asg411
Nsg412
VTamid 33a:24
p5995
sg414
(lp5996
sg416
g63
sg417
Nsg418
(lp5997
I65
aI24
asg420
Nsg421
g5995
sg422
(lp5998
sg424
g383
sg425
Nsg426
Nsg427
Nsbag2
(g3
g4
Ntp5999
Rp6000
(dp6001
g8
g11
sg405
Nsg406
(dp6002
sg408
Nsg26
g29
sg409
(lp6003
I65
aI25
asg411
Nsg412
VTamid 33a:25
p6004
sg414
(lp6005
sg416
g63
sg417
Nsg418
(lp6006
I65
aI25
asg420
Nsg421
g6004
sg422
(lp6007
sg424
g383
sg425
Nsg426
Nsg427
Nsbag2
(g3
g4
Ntp6008
Rp6009
(dp6010
g8
g11
sg405
Nsg406
(dp6011
sg408
Nsg26
g29
sg409
(lp6012
I65
aI26
asg411
Nsg412
VTamid 33a:26
p6013
sg414
(lp6014
sg416
g63
sg417
Nsg418
(lp6015
I65
aI26
asg420
Nsg421
g6013
sg422
(lp6016
sg424
g383
sg425
Nsg426
Nsg427
Nsbag2
(g3
g4
Ntp6017
Rp6018
(dp6019
g8
g11
sg405
Nsg406
(dp6020
sg408
Nsg26
g29
sg409
(lp6021
I65
aI27
asg411
Nsg412
VTamid 33a:27
p6022
sg414
(lp6023
sg416
g63
sg417
Nsg418
(lp6024
I65
aI27
asg420
Nsg421
g6022
sg422
(lp6025
sg424
g383
sg425
Nsg426
Nsg427
Nsbag2
(g3
g4
Ntp6026
Rp6027
(dp6028
g8
g11
sg405
Nsg406
(dp6029
sg408
Nsg26
g29
sg409
(lp6030
I65
aI28
asg411
Nsg412
VTamid 33a:28
p6031
sg414
(lp6032
sg416
g63
sg417
Nsg418
(lp6033
I65
aI28
asg420
Nsg421
g6031
sg422
(lp6034
sg424
g383
sg425
Nsg426
Nsg427
Nsbag2
(g3
g4
Ntp6035
Rp6036
(dp6037
g8
g11
sg405
Nsg406
(dp6038
sg408
Nsg26
g29
sg409
(lp6039
I65
aI29
asg411
Nsg412
VTamid 33a:29
p6040
sg414
(lp6041
sg416
g63
sg417
Nsg418
(lp6042
I65
aI29
asg420
Nsg421
g6040
sg422
(lp6043
sg424
g383
sg425
Nsg426
Nsg427
Nsbag2
(g3
g4
Ntp6044
Rp6045
(dp6046
g8
g11
sg405
Nsg406
(dp6047
sg408
Nsg26
g29
sg409
(lp6048
I65
aI30
asg411
Nsg412
VTamid 33a:30
p6049
sg414
(lp6050
sg416
g63
sg417
Nsg418
(lp6051
I65
aI30
asg420
Nsg421
g6049
sg422
(lp6052
sg424
g383
sg425
Nsg426
Nsg427
Nsbag2
(g3
g4
Ntp6053
Rp6054
(dp6055
g8
g11
sg405
Nsg406
(dp6056
sg408
Nsg26
g29
sg409
(lp6057
I65
aI31
asg411
Nsg412
VTamid 33a:31
p6058
sg414
(lp6059
sg416
g63
sg417
Nsg418
(lp6060
I65
aI31
asg420
Nsg421
g6058
sg422
(lp6061
sg424
g383
sg425
Nsg426
Nsg427
Nsbag2
(g3
g4
Ntp6062
Rp6063
(dp6064
g8
g11
sg405
Nsg406
(dp6065
sg408
Nsg26
g29
sg409
(lp6066
I66
aI1
asg411
Nsg412
VTamid 33b:1
p6067
sg414
(lp6068
sg416
g63
sg417
Nsg418
(lp6069
I66
aI1
asg420
Nsg421
g6067
sg422
(lp6070
sg424
g383
sg425
Nsg426
Nsg427
Nsbag2
(g3
g4
Ntp6071
Rp6072
(dp6073
g8
g11
sg405
Nsg406
(dp6074
sg408
Nsg26
g29
sg409
(lp6075
I66
aI2
asg411
Nsg412
VTamid 33b:2
p6076
sg414
(lp6077
sg416
g63
sg417
Nsg418
(lp6078
I66
aI2
asg420
Nsg421
g6076
sg422
(lp6079
sg424
g383
sg425
Nsg426
Nsg427
Nsbag2
(g3
g4
Ntp6080
Rp6081
(dp6082
g8
g11
sg405
Nsg406
(dp6083
sg408
Nsg26
g29
sg409
(lp6084
I66
aI3
asg411
Nsg412
VTamid 33b:3
p6085
sg414
(lp6086
sg416
g63
sg417
Nsg418
(lp6087
I66
aI3
asg420
Nsg421
g6085
sg422
(lp6088
sg424
g383
sg425
Nsg426
Nsg427
Nsbag2
(g3
g4
Ntp6089
Rp6090
(dp6091
g8
g11
sg405
Nsg406
(dp6092
sg408
Nsg26
g29
sg409
(lp6093
I66
aI4
asg411
Nsg412
VTamid 33b:4
p6094
sg414
(lp6095
sg416
g63
sg417
Nsg418
(lp6096
I66
aI4
asg420
Nsg421
g6094
sg422
(lp6097
sg424
g383
sg425
Nsg426
Nsg427
Nsbag2
(g3
g4
Ntp6098
Rp6099
(dp6100
g8
g11
sg405
Nsg406
(dp6101
sg408
Nsg26
g29
sg409
(lp6102
I66
aI5
asg411
Nsg412
VTamid 33b:5
p6103
sg414
(lp6104
sg416
g63
sg417
Nsg418
(lp6105
I66
aI5
asg420
Nsg421
g6103
sg422
(lp6106
sg424
g383
sg425
Nsg426
Nsg427
Nsbag2
(g3
g4
Ntp6107
Rp6108
(dp6109
g8
g11
sg405
Nsg406
(dp6110
sg408
Nsg26
g29
sg409
(lp6111
I66
aI6
asg411
Nsg412
VTamid 33b:6
p6112
sg414
(lp6113
sg416
g63
sg417
Nsg418
(lp6114
I66
aI6
asg420
Nsg421
g6112
sg422
(lp6115
sg424
g383
sg425
Nsg426
Nsg427
Nsbag2
(g3
g4
Ntp6116
Rp6117
(dp6118
g8
g11
sg405
Nsg406
(dp6119
sg408
Nsg26
g29
sg409
(lp6120
I66
aI7
asg411
Nsg412
VTamid 33b:7
p6121
sg414
(lp6122
sg416
g63
sg417
Nsg418
(lp6123
I66
aI7
asg420
Nsg421
g6121
sg422
(lp6124
sg424
g383
sg425
Nsg426
Nsg427
Nsbag2
(g3
g4
Ntp6125
Rp6126
(dp6127
g8
g11
sg405
Nsg406
(dp6128
sg408
Nsg26
g29
sg409
(lp6129
I66
aI8
asg411
Nsg412
VTamid 33b:8
p6130
sg414
(lp6131
sg416
g63
sg417
Nsg418
(lp6132
I66
aI8
asg420
Nsg421
g6130
sg422
(lp6133
sg424
g383
sg425
Nsg426
Nsg427
Nsbag2
(g3
g4
Ntp6134
Rp6135
(dp6136
g8
g11
sg405
Nsg406
(dp6137
sg408
Nsg26
g29
sg409
(lp6138
I66
aI9
asg411
Nsg412
VTamid 33b:9
p6139
sg414
(lp6140
sg416
g63
sg417
Nsg418
(lp6141
I66
aI9
asg420
Nsg421
g6139
sg422
(lp6142
sg424
g383
sg425
Nsg426
Nsg427
Nsbag2
(g3
g4
Ntp6143
Rp6144
(dp6145
g8
g11
sg405
Nsg406
(dp6146
sg408
Nsg26
g29
sg409
(lp6147
I66
aI10
asg411
Nsg412
VTamid 33b:10
p6148
sg414
(lp6149
sg416
g63
sg417
Nsg418
(lp6150
I66
aI10
asg420
Nsg421
g6148
sg422
(lp6151
sg424
g383
sg425
Nsg426
Nsg427
Nsbag2
(g3
g4
Ntp6152
Rp6153
(dp6154
g8
g11
sg405
Nsg406
(dp6155
sg408
Nsg26
g29
sg409
(lp6156
I66
aI11
asg411
Nsg412
VTamid 33b:11
p6157
sg414
(lp6158
sg416
g63
sg417
Nsg418
(lp6159
I66
aI11
asg420
Nsg421
g6157
sg422
(lp6160
sg424
g383
sg425
Nsg426
Nsg427
Nsbag2
(g3
g4
Ntp6161
Rp6162
(dp6163
g8
g11
sg405
Nsg406
(dp6164
sg408
Nsg26
g29
sg409
(lp6165
I66
aI12
asg411
Nsg412
VTamid 33b:12
p6166
sg414
(lp6167
sg416
g63
sg417
Nsg418
(lp6168
I66
aI12
asg420
Nsg421
g6166
sg422
(lp6169
sg424
g383
sg425
Nsg426
Nsg427
Nsbag2
(g3
g4
Ntp6170
Rp6171
(dp6172
g8
g11
sg405
Nsg406
(dp6173
sg408
Nsg26
g29
sg409
(lp6174
I66
aI13
asg411
Nsg412
VTamid 33b:13
p6175
sg414
(lp6176
sg416
g63
sg417
Nsg418
(lp6177
I66
aI13
asg420
Nsg421
g6175
sg422
(lp6178
sg424
g383
sg425
Nsg426
Nsg427
Nsbag2
(g3
g4
Ntp6179
Rp6180
(dp6181
g8
g11
sg405
Nsg406
(dp6182
sg408
Nsg26
g29
sg409
(lp6183
I66
aI14
asg411
Nsg412
VTamid 33b:14
p6184
sg414
(lp6185
sg416
g63
sg417
Nsg418
(lp6186
I66
aI14
asg420
Nsg421
g6184
sg422
(lp6187
sg424
g383
sg425
Nsg426
Nsg427
Nsbag2
(g3
g4
Ntp6188
Rp6189
(dp6190
g8
g11
sg405
Nsg406
(dp6191
sg408
Nsg26
g29
sg409
(lp6192
I66
aI15
asg411
Nsg412
VTamid 33b:15
p6193
sg414
(lp6194
sg416
g63
sg417
Nsg418
(lp6195
I66
aI15
asg420
Nsg421
g6193
sg422
(lp6196
sg424
g383
sg425
Nsg426
Nsg427
Nsbag2
(g3
g4
Ntp6197
Rp6198
(dp6199
g8
g11
sg405
Nsg406
(dp6200
sg408
Nsg26
g29
sg409
(lp6201
I66
aI16
asg411
Nsg412
VTamid 33b:16
p6202
sg414
(lp6203
sg416
g63
sg417
Nsg418
(lp6204
I66
aI16
asg420
Nsg421
g6202
sg422
(lp6205
sg424
g383
sg425
Nsg426
Nsg427
Nsbag2
(g3
g4
Ntp6206
Rp6207
(dp6208
g8
g11
sg405
Nsg406
(dp6209
sg408
Nsg26
g29
sg409
(lp6210
I66
aI17
asg411
Nsg412
VTamid 33b:17
p6211
sg414
(lp6212
sg416
g63
sg417
Nsg418
(lp6213
I66
aI17
asg420
Nsg421
g6211
sg422
(lp6214
sg424
g383
sg425
Nsg426
Nsg427
Nsbag2
(g3
g4
Ntp6215
Rp6216
(dp6217
g8
g11
sg405
Nsg406
(dp6218
sg408
Nsg26
g29
sg409
(lp6219
I66
aI18
asg411
Nsg412
VTamid 33b:18
p6220
sg414
(lp6221
sg416
g63
sg417
Nsg418
(lp6222
I66
aI18
asg420
Nsg421
g6220
sg422
(lp6223
sg424
g383
sg425
Nsg426
Nsg427
Nsbag2
(g3
g4
Ntp6224
Rp6225
(dp6226
g8
g11
sg405
Nsg406
(dp6227
sg408
Nsg26
g29
sg409
(lp6228
I66
aI19
asg411
Nsg412
VTamid 33b:19
p6229
sg414
(lp6230
sg416
g63
sg417
Nsg418
(lp6231
I66
aI19
asg420
Nsg421
g6229
sg422
(lp6232
sg424
g383
sg425
Nsg426
Nsg427
Nsbag2
(g3
g4
Ntp6233
Rp6234
(dp6235
g8
g11
sg405
Nsg406
(dp6236
sg408
Nsg26
g29
sg409
(lp6237
I66
aI20
asg411
Nsg412
VTamid 33b:20
p6238
sg414
(lp6239
sg416
g63
sg417
Nsg418
(lp6240
I66
aI20
asg420
Nsg421
g6238
sg422
(lp6241
sg424
g383
sg425
Nsg426
Nsg427
Nsbag2
(g3
g4
Ntp6242
Rp6243
(dp6244
g8
g11
sg405
Nsg406
(dp6245
sg408
Nsg26
g29
sg409
(lp6246
I66
aI21
asg411
Nsg412
VTamid 33b:21
p6247
sg414
(lp6248
sg416
g63
sg417
Nsg418
(lp6249
I66
aI21
asg420
Nsg421
g6247
sg422
(lp6250
sg424
g383
sg425
Nsg426
Nsg427
Nsbag2
(g3
g4
Ntp6251
Rp6252
(dp6253
g8
g11
sg405
Nsg406
(dp6254
sg408
Nsg26
g29
sg409
(lp6255
I66
aI22
asg411
Nsg412
VTamid 33b:22
p6256
sg414
(lp6257
sg416
g63
sg417
Nsg418
(lp6258
I66
aI22
asg420
Nsg421
g6256
sg422
(lp6259
sg424
g383
sg425
Nsg426
Nsg427
Nsbag2
(g3
g4
Ntp6260
Rp6261
(dp6262
g8
g11
sg405
Nsg406
(dp6263
sg408
Nsg26
g29
sg409
(lp6264
I66
aI23
asg411
Nsg412
VTamid 33b:23
p6265
sg414
(lp6266
sg416
g63
sg417
Nsg418
(lp6267
I66
aI23
asg420
Nsg421
g6265
sg422
(lp6268
sg424
g383
sg425
Nsg426
Nsg427
Nsbag2
(g3
g4
Ntp6269
Rp6270
(dp6271
g8
g11
sg405
Nsg406
(dp6272
sg408
Nsg26
g29
sg409
(lp6273
I66
aI24
asg411
Nsg412
VTamid 33b:24
p6274
sg414
(lp6275
sg416
g63
sg417
Nsg418
(lp6276
I66
aI24
asg420
Nsg421
g6274
sg422
(lp6277
sg424
g383
sg425
Nsg426
Nsg427
Nsbag2
(g3
g4
Ntp6278
Rp6279
(dp6280
g8
g11
sg405
Nsg406
(dp6281
sg408
Nsg26
g29
sg409
(lp6282
I66
aI25
asg411
Nsg412
VTamid 33b:25
p6283
sg414
(lp6284
sg416
g63
sg417
Nsg418
(lp6285
I66
aI25
asg420
Nsg421
g6283
sg422
(lp6286
sg424
g383
sg425
Nsg426
Nsg427
Nsbag2
(g3
g4
Ntp6287
Rp6288
(dp6289
g8
g11
sg405
Nsg406
(dp6290
sg408
Nsg26
g29
sg409
(lp6291
I66
aI26
asg411
Nsg412
VTamid 33b:26
p6292
sg414
(lp6293
sg416
g63
sg417
Nsg418
(lp6294
I66
aI26
asg420
Nsg421
g6292
sg422
(lp6295
sg424
g383
sg425
Nsg426
Nsg427
Nsbag2
(g3
g4
Ntp6296
Rp6297
(dp6298
g8
g11
sg405
Nsg406
(dp6299
sg408
Nsg26
g29
sg409
(lp6300
I66
aI27
asg411
Nsg412
VTamid 33b:27
p6301
sg414
(lp6302
sg416
g63
sg417
Nsg418
(lp6303
I66
aI27
asg420
Nsg421
g6301
sg422
(lp6304
sg424
g383
sg425
Nsg426
Nsg427
Nsbag2
(g3
g4
Ntp6305
Rp6306
(dp6307
g8
g11
sg405
Nsg406
(dp6308
sg408
Nsg26
g29
sg409
(lp6309
I66
aI28
asg411
Nsg412
VTamid 33b:28
p6310
sg414
(lp6311
sg416
g63
sg417
Nsg418
(lp6312
I66
aI28
asg420
Nsg421
g6310
sg422
(lp6313
sg424
g383
sg425
Nsg426
Nsg427
Nsbag2
(g3
g4
Ntp6314
Rp6315
(dp6316
g8
g11
sg405
Nsg406
(dp6317
sg408
Nsg26
g29
sg409
(lp6318
I66
aI29
asg411
Nsg412
VTamid 33b:29
p6319
sg414
(lp6320
sg416
g63
sg417
Nsg418
(lp6321
I66
aI29
asg420
Nsg421
g6319
sg422
(lp6322
sg424
g383
sg425
Nsg426
Nsg427
Nsbag2
(g3
g4
Ntp6323
Rp6324
(dp6325
g8
g11
sg405
Nsg406
(dp6326
sg408
Nsg26
g29
sg409
(lp6327
I66
aI30
asg411
Nsg412
VTamid 33b:30
p6328
sg414
(lp6329
sg416
g63
sg417
Nsg418
(lp6330
I66
aI30
asg420
Nsg421
g6328
sg422
(lp6331
sg424
g383
sg425
Nsg426
Nsg427
Nsbag2
(g3
g4
Ntp6332
Rp6333
(dp6334
g8
g11
sg405
Nsg406
(dp6335
sg408
Nsg26
g29
sg409
(lp6336
I66
aI31
asg411
Nsg412
VTamid 33b:31
p6337
sg414
(lp6338
sg416
g63
sg417
Nsg418
(lp6339
I66
aI31
asg420
Nsg421
g6337
sg422
(lp6340
sg424
g383
sg425
Nsg426
Nsg427
Nsbag2
(g3
g4
Ntp6341
Rp6342
(dp6343
g8
g11
sg405
Nsg406
(dp6344
sg408
Nsg26
g29
sg409
(lp6345
I66
aI32
asg411
Nsg412
VTamid 33b:32
p6346
sg414
(lp6347
sg416
g63
sg417
Nsg418
(lp6348
I66
aI32
asg420
Nsg421
g6346
sg422
(lp6349
sg424
g383
sg425
Nsg426
Nsg427
Nsbag2
(g3
g4
Ntp6350
Rp6351
(dp6352
g8
g11
sg405
Nsg406
(dp6353
sg408
Nsg26
g29
sg409
(lp6354
I66
aI33
asg411
Nsg412
VTamid 33b:33
p6355
sg414
(lp6356
sg416
g63
sg417
Nsg418
(lp6357
I66
aI33
asg420
Nsg421
g6355
sg422
(lp6358
sg424
g383
sg425
Nsg426
Nsg427
Nsbag2
(g3
g4
Ntp6359
Rp6360
(dp6361
g8
g11
sg405
Nsg406
(dp6362
sg408
Nsg26
g29
sg409
(lp6363
I66
aI34
asg411
Nsg412
VTamid 33b:34
p6364
sg414
(lp6365
sg416
g63
sg417
Nsg418
(lp6366
I66
aI34
asg420
Nsg421
g6364
sg422
(lp6367
sg424
g383
sg425
Nsg426
Nsg427
Nsbag2
(g3
g4
Ntp6368
Rp6369
(dp6370
g8
g11
sg405
Nsg406
(dp6371
sg408
Nsg26
g29
sg409
(lp6372
I66
aI35
asg411
Nsg412
VTamid 33b:35
p6373
sg414
(lp6374
sg416
g63
sg417
Nsg418
(lp6375
I66
aI35
asg420
Nsg421
g6373
sg422
(lp6376
sg424
g383
sg425
Nsg426
Nsg427
Nsbag2
(g3
g4
Ntp6377
Rp6378
(dp6379
g8
g11
sg405
Nsg406
(dp6380
sg408
Nsg26
g29
sg409
(lp6381
I66
aI36
asg411
Nsg412
VTamid 33b:36
p6382
sg414
(lp6383
sg416
g63
sg417
Nsg418
(lp6384
I66
aI36
asg420
Nsg421
g6382
sg422
(lp6385
sg424
g383
sg425
Nsg426
Nsg427
Nsbag2
(g3
g4
Ntp6386
Rp6387
(dp6388
g8
g11
sg405
Nsg406
(dp6389
sg408
Nsg26
g29
sg409
(lp6390
I66
aI37
asg411
Nsg412
VTamid 33b:37
p6391
sg414
(lp6392
sg416
g63
sg417
Nsg418
(lp6393
I66
aI37
asg420
Nsg421
g6391
sg422
(lp6394
sg424
g383
sg425
Nsg426
Nsg427
Nsbag2
(g3
g4
Ntp6395
Rp6396
(dp6397
g8
g11
sg405
Nsg406
(dp6398
sg408
Nsg26
g29
sg409
(lp6399
I66
aI38
asg411
Nsg412
VTamid 33b:38
p6400
sg414
(lp6401
sg416
g63
sg417
Nsg418
(lp6402
I66
aI38
asg420
Nsg421
g6400
sg422
(lp6403
sg424
g383
sg425
Nsg426
Nsg427
Nsbatp6404
.