((lp0
I0
aI1638
aI2947
aI3920
aI4942
aI5282
aI5839
aI6141
aI6965
aI8267
aI8870
aI9371
aI10042
aI10563
aI11176
aI11829
aI11941
aI11945
aI12032
aI12113
aI12234
aI12889
aI13337
aI13625
aI14160
aI15610
aI15970
aI16155
aI16461
aI16565
aI16864
aI16963
aI17110
aI17156
aI17223
aI17272
aI17333
aI17361
aI17437
aI17461
aI17486
aI17526
aI17560
aI17579
aI17622
aI17653
aI17675
aI17701
aI17737
aI18164
aI18285
aI18351
aI18742
aI19023
aI19259
aI19436
aI19847
aI19851
aI19882
aI19919
aI19973
aI20032
aI20047
aI20102
aI20115
aI20191
aI20577
aI20696
aI20995
aI22009
aI22531
aI22690
aI22707
aI22881
aI22960
aI23018
aI23020
aI23114
aI23192
aI23263
aI23370
aI23593
aI24132
aI24205
aI24359
aI24723
aI24727
aI24780
aI24839
aI24931
aI25032
aI25075
aI25143
aI25198
aI28063
aI29518
aI29590
aI30582
aI31831
aI32955
aI33789
aI34732
aI35485
aI35487
aI35489
aI36255
aI36257
aI36789
aI36791
aI37105
aI37294
aI37374
a(lp1
ccopy_reg
_reconstructor
p2
(csefaria.model.text
Ref
p3
c__builtin__
object
p4
Ntp5
Rp6
(dp7
S'index_node'
p8
g2
(csefaria.model.schema
JaggedArrayNode
p9
g4
Ntp10
Rp11
(dp12
S'_address'
p13
(lp14
VTanna debei Eliyahu Zuta
p15
aVseder
p16
aVdefault
p17
asS'_full_titles'
p18
(dp19
sVnodeType
p20
VJaggedArrayNode
p21
sS'parent'
p22
g2
(csefaria.model.schema
SchemaNode
p23
g4
Ntp24
Rp25
(dp26
g13
(lp27
g15
ag16
asg18
(dp28
sg22
g2
(g23
g4
Ntp29
Rp30
(dp31
g13
(lp32
g15
asg18
(dp33
sg22
NsS'index'
p34
g2
(csefaria.model.text
Index
p35
g4
Ntp36
Rp37
(dp38
S'struct_objs'
p39
(dp40
sS'_id'
p41
g2
(cbson.objectid
ObjectId
p42
g4
Ntp43
Rp44
S"U\xe4g\n\xfb\xfb\xa2'\xc7\x7f\xf4\xde"
p45
bsS'pkeys_orig_values'
p46
(dp47
S'title'
p48
VTanna debei Eliyahu Zuta
p49
ssS'pubDate'
p50
V1904
p51
sS'compDate'
p52
V976
p53
sS'pubPlace'
p54
VVenice
p55
sS'compPlace'
p56
VTalmudic Babylon/Italy/Israel
p57
sS'enDesc'
p58
VTanna Deve Eliyahu (Teachings of the School of Elijah) is the composite name of a midrash, consisting of two parts, whose final redaction took place at the end of the 10th century CE. The first part is called Seder Eliyahu Rabbah (31 chapters); the second, Seder Eliyahu Zu\u1e6da (15 chapters). The underlying theme of the Tanna debe Eliyahu, which, with many interruptions, runs through the whole work, is the evolution of the world-system. The midrash calls the single periods of the history of man "shi\u1e6d\u1e6dot" (series). The first series, which deals with the beginning of the world and extends to the moment when man was driven out of Eden, consists of two subsections, (a) Ma'aseh Merkabah and (b) Ma'aseh Bereshit. The second series embraces the period from the expulsion of man from Eden to the Flood.  The six series of the world-system, found in the first part of the book was conceived prior to the creation of mankind. In the second part of the book mankind\u2019s immorality seem it sink lower and lower until finally its destruction became necessary.
p59
sS'era'
p60
VGN
p61
sS'authors'
p62
(lp63
sS'nodes'
p64
g30
sS'errorMargin'
p65
V8
p66
sS'_title'
p67
g49
sS'categories'
p68
(lp69
VMidrash
p70
aVAggadic Midrash
p71
asS'schema'
p72
(dp73
Vnodes
p74
(lp75
(dp76
Vnodes
p77
(lp78
(dp79
g20
g21
sVaddressTypes
p80
(lp81
VInteger
p82
aVInteger
p83
asVlengths
p84
(lp85
I15
asVdefault
p86
I01
sVdepth
p87
I2
sVkey
p88
g17
sVsectionNames
p89
(lp90
VChapter
p91
aVParagraph
p92
asasVtitles
p93
(lp94
(dp95
Vlang
p96
Ven
p97
sVtext
p98
VSeder Eliyahu Zuta
p99
sVprimary
p100
I01
sa(dp101
Vlang
p102
Vhe
p103
sVtext
p104
V\u05e1\u05d3\u05e8 \u05d0\u05dc\u05d9\u05d4\u05d5 \u05d6\u05d5\u05d8\u05d0
p105
sVprimary
p106
I01
sasVkey
p107
g16
sa(dp108
Vnodes
p109
(lp110
(dp111
VnodeType
p112
VJaggedArrayNode
p113
sVaddressTypes
p114
(lp115
VInteger
p116
asVdepth
p117
I1
sVtitles
p118
(lp119
(dp120
Vlang
p121
Vhe
p122
sVtext
p123
V\u05d4\u05e7\u05d3\u05de\u05d4
p124
sVprimary
p125
I01
sa(dp126
Vlang
p127
Ven
p128
sVtext
p129
VHakdamah
p130
sVprimary
p131
I01
sasVkey
p132
Vintro
p133
sVsectionNames
p134
(lp135
VParagraph
p136
asa(dp137
VnodeType
p138
VJaggedArrayNode
p139
sVaddressTypes
p140
(lp141
VInteger
p142
asVdepth
p143
I1
sVtitles
p144
(lp145
(dp146
Vlang
p147
Ven
p148
sVtext
p149
VMavo
p150
sVprimary
p151
I01
sa(dp152
Vlang
p153
Vhe
p154
sVtext
p155
V\u05de\u05d1\u05d5\u05d0
p156
sVprimary
p157
I01
sasVkey
p158
Vmavo
p159
sVsectionNames
p160
(lp161
VParagraph
p162
asa(dp163
VnodeType
p164
VJaggedArrayNode
p165
sVaddressTypes
p166
(lp167
VInteger
p168
asVdepth
p169
I1
sVtitles
p170
(lp171
(dp172
Vlang
p173
Ven
p174
sVtext
p175
VPirkei Derech Eretz
p176
sVprimary
p177
I01
sa(dp178
Vlang
p179
Vhe
p180
sVtext
p181
V\u05e4\u05e8\u05e7\u05d9 \u05d3\u05e8\u05da \u05d0\u05e8\u05e5
p182
sVprimary
p183
I01
sasVkey
p184
Vp1
p185
sVsectionNames
p186
(lp187
VParagraph
p188
asa(dp189
VnodeType
p190
VJaggedArrayNode
p191
sVaddressTypes
p192
(lp193
VInteger
p194
asVdepth
p195
I1
sVtitles
p196
(lp197
(dp198
Vlang
p199
Ven
p200
sVtext
p201
VPirkei DeRabbi Eliezer
p202
sVprimary
p203
I01
sa(dp204
Vlang
p205
Vhe
p206
sVtext
p207
V\u05e4\u05e8\u05e7\u05d9 \u05d3\u05e8' \u05d0\u05dc\u05d9\u05e2\u05d6\u05e8
p208
sVprimary
p209
I01
sasVkey
p210
Vp2
p211
sVsectionNames
p212
(lp213
VParagraph
p214
asa(dp215
VnodeType
p216
VJaggedArrayNode
p217
sVaddressTypes
p218
(lp219
VInteger
p220
asVdepth
p221
I1
sVtitles
p222
(lp223
(dp224
Vlang
p225
Ven
p226
sVtext
p227
VPirkei HaYeridot
p228
sVprimary
p229
I01
sa(dp230
Vlang
p231
Vhe
p232
sVtext
p233
V\u05d4\u05d9\u05e8\u05d9\u05d3\u05d5\u05ea
p234
sVprimary
p235
I01
sasVkey
p236
Vp3
p237
sVsectionNames
p238
(lp239
VParagraph
p240
asasVtitles
p241
(lp242
(dp243
Vlang
p244
Vhe
p245
sVtext
p246
V\u05e0\u05e1\u05e4\u05d7\u05d9\u05dd \u05dc\u05e1\u05d3\u05e8 \u05d0\u05dc\u05d9\u05d4\u05d5 \u05d6\u05d5\u05d8\u05d0
p247
sVprimary
p248
I01
sa(dp249
Vlang
p250
Ven
p251
sVtext
p252
VAdditions to Seder Eliyahu Zuta
p253
sVprimary
p254
I01
sasVkey
p255
Vaddition
p256
sasVtitles
p257
(lp258
(dp259
Vlang
p260
Vhe
p261
sVtext
p262
V\u05ea\u05e0\u05d0 \u05d3\u05d1\u05d9 \u05d0\u05dc\u05d9\u05d4\u05d5 \u05d6\u05d5\u05d8\u05d0
p263
sVprimary
p264
I01
sa(dp265
Vlang
p266
Ven
p267
sVtext
p268
VTanna debei Eliyahu Zuta
p269
sVprimary
p270
I01
sasVkey
p271
g15
ssbsS'default'
p272
I00
sS'_primary_title'
p273
(dp274
sS'title_group'
p275
g2
(csefaria.model.schema
TitleGroup
p276
g4
Ntp277
Rp278
(dp279
g273
(dp280
S'en'
p281
g269
ssS'titles'
p282
g258
sbsS'sharedTitle'
p283
NsS'_full_title'
p284
(dp285
g281
g269
ssS'key'
p286
g15
sS'checkFirst'
p287
NsS'_leaf_nodes'
p288
(lp289
sS'children'
p290
(lp291
g25
ag2
(g23
g4
Ntp292
Rp293
(dp294
g13
(lp295
g15
ag256
asg18
(dp296
sg22
g30
sg34
g37
sg272
I00
sg273
(dp297
sg275
g2
(g276
g4
Ntp298
Rp299
(dp300
g273
(dp301
g281
g253
ssg282
g242
sbsg283
Nsg284
(dp302
g281
VTanna debei Eliyahu Zuta, Additions to Seder Eliyahu Zuta
p303
ssg286
g256
sg287
Nsg288
(lp304
sg290
(lp305
g2
(g9
g4
Ntp306
Rp307
(dp308
g13
(lp309
g15
ag256
ag133
asg18
(dp310
sg112
g113
sg22
g293
sg114
g115
sg272
I00
sg34
g37
sg273
(dp311
sg275
g2
(g276
g4
Ntp312
Rp313
(dp314
g273
(dp315
g281
g130
ssg282
g119
sbsS'_addressTypes'
p316
(lp317
g2
(csefaria.model.schema
AddressInteger
p318
g4
Ntp319
Rp320
(dp321
S'length'
p322
NsS'order'
p323
I0
sbasg283
Nsg117
I1
sg284
(dp324
g281
VTanna debei Eliyahu Zuta, Additions to Seder Eliyahu Zuta, Hakdamah
p325
ssg286
g133
sg287
NsS'_regexes'
p326
(dp327
sg288
(lp328
sg134
g135
sg290
(lp329
sbag2
(g9
g4
Ntp330
Rp331
(dp332
g13
(lp333
g15
ag256
ag159
asg18
(dp334
sg138
g139
sg22
g293
sg140
g141
sg272
I00
sg34
g37
sg273
(dp335
sg275
g2
(g276
g4
Ntp336
Rp337
(dp338
g273
(dp339
g281
g150
ssg282
g145
sbsg316
(lp340
g2
(g318
g4
Ntp341
Rp342
(dp343
g322
Nsg323
I0
sbasg283
Nsg143
I1
sg284
(dp344
g281
VTanna debei Eliyahu Zuta, Additions to Seder Eliyahu Zuta, Mavo
p345
ssg286
g159
sg287
Nsg326
(dp346
sg288
(lp347
sg160
g161
sg290
(lp348
sbag2
(g9
g4
Ntp349
Rp350
(dp351
g13
(lp352
g15
ag256
ag185
asg18
(dp353
sg164
g165
sg22
g293
sg166
g167
sg272
I00
sg34
g37
sg273
(dp354
sg275
g2
(g276
g4
Ntp355
Rp356
(dp357
g273
(dp358
g281
g176
ssg282
g171
sbsg316
(lp359
g2
(g318
g4
Ntp360
Rp361
(dp362
g322
Nsg323
I0
sbasg283
Nsg169
I1
sg284
(dp363
g281
VTanna debei Eliyahu Zuta, Additions to Seder Eliyahu Zuta, Pirkei Derech Eretz
p364
ssg286
g185
sg287
Nsg326
(dp365
sg288
(lp366
sg186
g187
sg290
(lp367
sbag2
(g9
g4
Ntp368
Rp369
(dp370
g13
(lp371
g15
ag256
ag211
asg18
(dp372
sg190
g191
sg22
g293
sg192
g193
sg272
I00
sg34
g37
sg273
(dp373
sg275
g2
(g276
g4
Ntp374
Rp375
(dp376
g273
(dp377
g281
g202
ssg282
g197
sbsg316
(lp378
g2
(g318
g4
Ntp379
Rp380
(dp381
g322
Nsg323
I0
sbasg283
Nsg195
I1
sg284
(dp382
g281
VTanna debei Eliyahu Zuta, Additions to Seder Eliyahu Zuta, Pirkei DeRabbi Eliezer
p383
ssg286
g211
sg287
Nsg326
(dp384
sg288
(lp385
sg212
g213
sg290
(lp386
sbag2
(g9
g4
Ntp387
Rp388
(dp389
g13
(lp390
g15
ag256
ag237
asg18
(dp391
sg216
g217
sg22
g293
sg218
g219
sg272
I00
sg34
g37
sg273
(dp392
sg275
g2
(g276
g4
Ntp393
Rp394
(dp395
g273
(dp396
g281
g228
ssg282
g223
sbsg316
(lp397
g2
(g318
g4
Ntp398
Rp399
(dp400
g322
Nsg323
I0
sbasg283
Nsg221
I1
sg284
(dp401
g281
VTanna debei Eliyahu Zuta, Additions to Seder Eliyahu Zuta, Pirkei HaYeridot
p402
ssg286
g237
sg287
Nsg326
(dp403
sg288
(lp404
sg238
g239
sg290
(lp405
sbasbasbsg34
g37
sg272
I00
sg273
(dp406
sg275
g2
(g276
g4
Ntp407
Rp408
(dp409
g273
(dp410
g281
g99
ssg282
g94
sbsg283
Nsg284
(dp411
g281
VTanna debei Eliyahu Zuta, Seder Eliyahu Zuta
p412
ssg286
g16
sg287
Nsg288
(lp413
sg290
(lp414
g11
asbsg80
g81
sg272
I01
sg34
g37
sg273
(dp415
sg275
g2
(g276
g4
Ntp416
Rp417
(dp418
g273
(dp419
g281
S''
p420
ssg282
(lp421
sbsg316
(lp422
g2
(g318
g4
Ntp423
Rp424
(dp425
g322
I15
sg323
I0
sbag2
(g318
g4
Ntp426
Rp427
(dp428
g322
Nsg323
I1
sbasg283
Nsg84
g85
sg87
I2
sg284
(dp429
g281
g412
ssg286
g17
sg287
Nsg326
(dp430
sg288
(lp431
sg89
g90
sg290
(lp432
sbsS'_range_index'
p433
NsS'_context'
p434
(dp435
sS'_padded'
p436
Nsg34
g37
sS'sections'
p437
(lp438
I1
aI1
asS'_first_spanned_ref'
p439
NsS'tref'
p440
VTanna debei Eliyahu Zuta, Seder Eliyahu Zuta 1:1
p441
sS'_spanned_refs'
p442
(lp443
sS'book'
p444
g412
sS'_range_depth'
p445
NsS'toSections'
p446
(lp447
I1
aI1
asS'_url'
p448
NsS'_normal'
p449
g441
sS'_ranged_refs'
p450
(lp451
sS'type'
p452
g70
sS'_prev'
p453
NsS'_he_normal'
p454
NsS'_next'
p455
Nsbag2
(g3
g4
Ntp456
Rp457
(dp458
g8
g11
sg433
Nsg434
(dp459
sg436
Nsg34
g37
sg437
(lp460
I2
aI1
asg439
Nsg440
VTanna debei Eliyahu Zuta, Seder Eliyahu Zuta 2:1
p461
sg442
(lp462
sg444
g412
sg445
Nsg446
(lp463
I2
aI1
asg448
Nsg449
g461
sg450
(lp464
sg452
g70
sg453
Nsg454
Nsg455
Nsbag2
(g3
g4
Ntp465
Rp466
(dp467
g8
g11
sg433
Nsg434
(dp468
sg436
Nsg34
g37
sg437
(lp469
I3
aI1
asg439
Nsg440
VTanna debei Eliyahu Zuta, Seder Eliyahu Zuta 3:1
p470
sg442
(lp471
sg444
g412
sg445
Nsg446
(lp472
I3
aI1
asg448
Nsg449
g470
sg450
(lp473
sg452
g70
sg453
Nsg454
Nsg455
Nsbag2
(g3
g4
Ntp474
Rp475
(dp476
g8
g11
sg433
Nsg434
(dp477
sg436
Nsg34
g37
sg437
(lp478
I4
aI1
asg439
Nsg440
VTanna debei Eliyahu Zuta, Seder Eliyahu Zuta 4:1
p479
sg442
(lp480
sg444
g412
sg445
Nsg446
(lp481
I4
aI1
asg448
Nsg449
g479
sg450
(lp482
sg452
g70
sg453
Nsg454
Nsg455
Nsbag2
(g3
g4
Ntp483
Rp484
(dp485
g8
g11
sg433
Nsg434
(dp486
sg436
Nsg34
g37
sg437
(lp487
I5
aI1
asg439
Nsg440
VTanna debei Eliyahu Zuta, Seder Eliyahu Zuta 5:1
p488
sg442
(lp489
sg444
g412
sg445
Nsg446
(lp490
I5
aI1
asg448
Nsg449
g488
sg450
(lp491
sg452
g70
sg453
Nsg454
Nsg455
Nsbag2
(g3
g4
Ntp492
Rp493
(dp494
g8
g11
sg433
Nsg434
(dp495
sg436
Nsg34
g37
sg437
(lp496
I6
aI1
asg439
Nsg440
VTanna debei Eliyahu Zuta, Seder Eliyahu Zuta 6:1
p497
sg442
(lp498
sg444
g412
sg445
Nsg446
(lp499
I6
aI1
asg448
Nsg449
g497
sg450
(lp500
sg452
g70
sg453
Nsg454
Nsg455
Nsbag2
(g3
g4
Ntp501
Rp502
(dp503
g8
g11
sg433
Nsg434
(dp504
sg436
Nsg34
g37
sg437
(lp505
I7
aI1
asg439
Nsg440
VTanna debei Eliyahu Zuta, Seder Eliyahu Zuta 7:1
p506
sg442
(lp507
sg444
g412
sg445
Nsg446
(lp508
I7
aI1
asg448
Nsg449
g506
sg450
(lp509
sg452
g70
sg453
Nsg454
Nsg455
Nsbag2
(g3
g4
Ntp510
Rp511
(dp512
g8
g11
sg433
Nsg434
(dp513
sg436
Nsg34
g37
sg437
(lp514
I8
aI1
asg439
Nsg440
VTanna debei Eliyahu Zuta, Seder Eliyahu Zuta 8:1
p515
sg442
(lp516
sg444
g412
sg445
Nsg446
(lp517
I8
aI1
asg448
Nsg449
g515
sg450
(lp518
sg452
g70
sg453
Nsg454
Nsg455
Nsbag2
(g3
g4
Ntp519
Rp520
(dp521
g8
g11
sg433
Nsg434
(dp522
sg436
Nsg34
g37
sg437
(lp523
I9
aI1
asg439
Nsg440
VTanna debei Eliyahu Zuta, Seder Eliyahu Zuta 9:1
p524
sg442
(lp525
sg444
g412
sg445
Nsg446
(lp526
I9
aI1
asg448
Nsg449
g524
sg450
(lp527
sg452
g70
sg453
Nsg454
Nsg455
Nsbag2
(g3
g4
Ntp528
Rp529
(dp530
g8
g11
sg433
Nsg434
(dp531
sg436
Nsg34
g37
sg437
(lp532
I10
aI1
asg439
Nsg440
VTanna debei Eliyahu Zuta, Seder Eliyahu Zuta 10:1
p533
sg442
(lp534
sg444
g412
sg445
Nsg446
(lp535
I10
aI1
asg448
Nsg449
g533
sg450
(lp536
sg452
g70
sg453
Nsg454
Nsg455
Nsbag2
(g3
g4
Ntp537
Rp538
(dp539
g8
g11
sg433
Nsg434
(dp540
sg436
Nsg34
g37
sg437
(lp541
I11
aI1
asg439
Nsg440
VTanna debei Eliyahu Zuta, Seder Eliyahu Zuta 11:1
p542
sg442
(lp543
sg444
g412
sg445
Nsg446
(lp544
I11
aI1
asg448
Nsg449
g542
sg450
(lp545
sg452
g70
sg453
Nsg454
Nsg455
Nsbag2
(g3
g4
Ntp546
Rp547
(dp548
g8
g11
sg433
Nsg434
(dp549
sg436
Nsg34
g37
sg437
(lp550
I12
aI1
asg439
Nsg440
VTanna debei Eliyahu Zuta, Seder Eliyahu Zuta 12:1
p551
sg442
(lp552
sg444
g412
sg445
Nsg446
(lp553
I12
aI1
asg448
Nsg449
g551
sg450
(lp554
sg452
g70
sg453
Nsg454
Nsg455
Nsbag2
(g3
g4
Ntp555
Rp556
(dp557
g8
g11
sg433
Nsg434
(dp558
sg436
Nsg34
g37
sg437
(lp559
I13
aI1
asg439
Nsg440
VTanna debei Eliyahu Zuta, Seder Eliyahu Zuta 13:1
p560
sg442
(lp561
sg444
g412
sg445
Nsg446
(lp562
I13
aI1
asg448
Nsg449
g560
sg450
(lp563
sg452
g70
sg453
Nsg454
Nsg455
Nsbag2
(g3
g4
Ntp564
Rp565
(dp566
g8
g11
sg433
Nsg434
(dp567
sg436
Nsg34
g37
sg437
(lp568
I14
aI1
asg439
Nsg440
VTanna debei Eliyahu Zuta, Seder Eliyahu Zuta 14:1
p569
sg442
(lp570
sg444
g412
sg445
Nsg446
(lp571
I14
aI1
asg448
Nsg449
g569
sg450
(lp572
sg452
g70
sg453
Nsg454
Nsg455
Nsbag2
(g3
g4
Ntp573
Rp574
(dp575
g8
g11
sg433
Nsg434
(dp576
sg436
Nsg34
g37
sg437
(lp577
I15
aI1
asg439
Nsg440
VTanna debei Eliyahu Zuta, Seder Eliyahu Zuta 15:1
p578
sg442
(lp579
sg444
g412
sg445
Nsg446
(lp580
I15
aI1
asg448
Nsg449
g578
sg450
(lp581
sg452
g70
sg453
Nsg454
Nsg455
Nsbag2
(g3
g4
Ntp582
Rp583
(dp584
g8
g307
sg433
Nsg434
(dp585
sg436
Nsg34
g37
sg437
(lp586
I1
asg439
Nsg440
VTanna debei Eliyahu Zuta, Additions to Seder Eliyahu Zuta, Hakdamah 1
p587
sg442
(lp588
sg444
g325
sg445
Nsg446
(lp589
I1
asg448
Nsg449
g587
sg450
(lp590
sg452
g70
sg453
Nsg454
Nsg455
Nsbag2
(g3
g4
Ntp591
Rp592
(dp593
g8
g307
sg433
Nsg434
(dp594
sg436
Nsg34
g37
sg437
(lp595
I2
asg439
Nsg440
VTanna debei Eliyahu Zuta, Additions to Seder Eliyahu Zuta, Hakdamah 2
p596
sg442
(lp597
sg444
g325
sg445
Nsg446
(lp598
I2
asg448
Nsg449
g596
sg450
(lp599
sg452
g70
sg453
Nsg454
Nsg455
Nsbag2
(g3
g4
Ntp600
Rp601
(dp602
g8
g331
sg433
Nsg434
(dp603
sg436
Nsg34
g37
sg437
(lp604
I1
asg439
Nsg440
VTanna debei Eliyahu Zuta, Additions to Seder Eliyahu Zuta, Mavo 1
p605
sg442
(lp606
sg444
g345
sg445
Nsg446
(lp607
I1
asg448
Nsg449
g605
sg450
(lp608
sg452
g70
sg453
Nsg454
Nsg455
Nsbag2
(g3
g4
Ntp609
Rp610
(dp611
g8
g331
sg433
Nsg434
(dp612
sg436
Nsg34
g37
sg437
(lp613
I2
asg439
Nsg440
VTanna debei Eliyahu Zuta, Additions to Seder Eliyahu Zuta, Mavo 2
p614
sg442
(lp615
sg444
g345
sg445
Nsg446
(lp616
I2
asg448
Nsg449
g614
sg450
(lp617
sg452
g70
sg453
Nsg454
Nsg455
Nsbag2
(g3
g4
Ntp618
Rp619
(dp620
g8
g331
sg433
Nsg434
(dp621
sg436
Nsg34
g37
sg437
(lp622
I3
asg439
Nsg440
VTanna debei Eliyahu Zuta, Additions to Seder Eliyahu Zuta, Mavo 3
p623
sg442
(lp624
sg444
g345
sg445
Nsg446
(lp625
I3
asg448
Nsg449
g623
sg450
(lp626
sg452
g70
sg453
Nsg454
Nsg455
Nsbag2
(g3
g4
Ntp627
Rp628
(dp629
g8
g331
sg433
Nsg434
(dp630
sg436
Nsg34
g37
sg437
(lp631
I4
asg439
Nsg440
VTanna debei Eliyahu Zuta, Additions to Seder Eliyahu Zuta, Mavo 4
p632
sg442
(lp633
sg444
g345
sg445
Nsg446
(lp634
I4
asg448
Nsg449
g632
sg450
(lp635
sg452
g70
sg453
Nsg454
Nsg455
Nsbag2
(g3
g4
Ntp636
Rp637
(dp638
g8
g331
sg433
Nsg434
(dp639
sg436
Nsg34
g37
sg437
(lp640
I5
asg439
Nsg440
VTanna debei Eliyahu Zuta, Additions to Seder Eliyahu Zuta, Mavo 5
p641
sg442
(lp642
sg444
g345
sg445
Nsg446
(lp643
I5
asg448
Nsg449
g641
sg450
(lp644
sg452
g70
sg453
Nsg454
Nsg455
Nsbag2
(g3
g4
Ntp645
Rp646
(dp647
g8
g331
sg433
Nsg434
(dp648
sg436
Nsg34
g37
sg437
(lp649
I6
asg439
Nsg440
VTanna debei Eliyahu Zuta, Additions to Seder Eliyahu Zuta, Mavo 6
p650
sg442
(lp651
sg444
g345
sg445
Nsg446
(lp652
I6
asg448
Nsg449
g650
sg450
(lp653
sg452
g70
sg453
Nsg454
Nsg455
Nsbag2
(g3
g4
Ntp654
Rp655
(dp656
g8
g331
sg433
Nsg434
(dp657
sg436
Nsg34
g37
sg437
(lp658
I7
asg439
Nsg440
VTanna debei Eliyahu Zuta, Additions to Seder Eliyahu Zuta, Mavo 7
p659
sg442
(lp660
sg444
g345
sg445
Nsg446
(lp661
I7
asg448
Nsg449
g659
sg450
(lp662
sg452
g70
sg453
Nsg454
Nsg455
Nsbag2
(g3
g4
Ntp663
Rp664
(dp665
g8
g331
sg433
Nsg434
(dp666
sg436
Nsg34
g37
sg437
(lp667
I8
asg439
Nsg440
VTanna debei Eliyahu Zuta, Additions to Seder Eliyahu Zuta, Mavo 8
p668
sg442
(lp669
sg444
g345
sg445
Nsg446
(lp670
I8
asg448
Nsg449
g668
sg450
(lp671
sg452
g70
sg453
Nsg454
Nsg455
Nsbag2
(g3
g4
Ntp672
Rp673
(dp674
g8
g331
sg433
Nsg434
(dp675
sg436
Nsg34
g37
sg437
(lp676
I9
asg439
Nsg440
VTanna debei Eliyahu Zuta, Additions to Seder Eliyahu Zuta, Mavo 9
p677
sg442
(lp678
sg444
g345
sg445
Nsg446
(lp679
I9
asg448
Nsg449
g677
sg450
(lp680
sg452
g70
sg453
Nsg454
Nsg455
Nsbag2
(g3
g4
Ntp681
Rp682
(dp683
g8
g331
sg433
Nsg434
(dp684
sg436
Nsg34
g37
sg437
(lp685
I10
asg439
Nsg440
VTanna debei Eliyahu Zuta, Additions to Seder Eliyahu Zuta, Mavo 10
p686
sg442
(lp687
sg444
g345
sg445
Nsg446
(lp688
I10
asg448
Nsg449
g686
sg450
(lp689
sg452
g70
sg453
Nsg454
Nsg455
Nsbag2
(g3
g4
Ntp690
Rp691
(dp692
g8
g331
sg433
Nsg434
(dp693
sg436
Nsg34
g37
sg437
(lp694
I11
asg439
Nsg440
VTanna debei Eliyahu Zuta, Additions to Seder Eliyahu Zuta, Mavo 11
p695
sg442
(lp696
sg444
g345
sg445
Nsg446
(lp697
I11
asg448
Nsg449
g695
sg450
(lp698
sg452
g70
sg453
Nsg454
Nsg455
Nsbag2
(g3
g4
Ntp699
Rp700
(dp701
g8
g331
sg433
Nsg434
(dp702
sg436
Nsg34
g37
sg437
(lp703
I12
asg439
Nsg440
VTanna debei Eliyahu Zuta, Additions to Seder Eliyahu Zuta, Mavo 12
p704
sg442
(lp705
sg444
g345
sg445
Nsg446
(lp706
I12
asg448
Nsg449
g704
sg450
(lp707
sg452
g70
sg453
Nsg454
Nsg455
Nsbag2
(g3
g4
Ntp708
Rp709
(dp710
g8
g331
sg433
Nsg434
(dp711
sg436
Nsg34
g37
sg437
(lp712
I13
asg439
Nsg440
VTanna debei Eliyahu Zuta, Additions to Seder Eliyahu Zuta, Mavo 13
p713
sg442
(lp714
sg444
g345
sg445
Nsg446
(lp715
I13
asg448
Nsg449
g713
sg450
(lp716
sg452
g70
sg453
Nsg454
Nsg455
Nsbag2
(g3
g4
Ntp717
Rp718
(dp719
g8
g331
sg433
Nsg434
(dp720
sg436
Nsg34
g37
sg437
(lp721
I14
asg439
Nsg440
VTanna debei Eliyahu Zuta, Additions to Seder Eliyahu Zuta, Mavo 14
p722
sg442
(lp723
sg444
g345
sg445
Nsg446
(lp724
I14
asg448
Nsg449
g722
sg450
(lp725
sg452
g70
sg453
Nsg454
Nsg455
Nsbag2
(g3
g4
Ntp726
Rp727
(dp728
g8
g331
sg433
Nsg434
(dp729
sg436
Nsg34
g37
sg437
(lp730
I15
asg439
Nsg440
VTanna debei Eliyahu Zuta, Additions to Seder Eliyahu Zuta, Mavo 15
p731
sg442
(lp732
sg444
g345
sg445
Nsg446
(lp733
I15
asg448
Nsg449
g731
sg450
(lp734
sg452
g70
sg453
Nsg454
Nsg455
Nsbag2
(g3
g4
Ntp735
Rp736
(dp737
g8
g331
sg433
Nsg434
(dp738
sg436
Nsg34
g37
sg437
(lp739
I16
asg439
Nsg440
VTanna debei Eliyahu Zuta, Additions to Seder Eliyahu Zuta, Mavo 16
p740
sg442
(lp741
sg444
g345
sg445
Nsg446
(lp742
I16
asg448
Nsg449
g740
sg450
(lp743
sg452
g70
sg453
Nsg454
Nsg455
Nsbag2
(g3
g4
Ntp744
Rp745
(dp746
g8
g331
sg433
Nsg434
(dp747
sg436
Nsg34
g37
sg437
(lp748
I17
asg439
Nsg440
VTanna debei Eliyahu Zuta, Additions to Seder Eliyahu Zuta, Mavo 17
p749
sg442
(lp750
sg444
g345
sg445
Nsg446
(lp751
I17
asg448
Nsg449
g749
sg450
(lp752
sg452
g70
sg453
Nsg454
Nsg455
Nsbag2
(g3
g4
Ntp753
Rp754
(dp755
g8
g331
sg433
Nsg434
(dp756
sg436
Nsg34
g37
sg437
(lp757
I18
asg439
Nsg440
VTanna debei Eliyahu Zuta, Additions to Seder Eliyahu Zuta, Mavo 18
p758
sg442
(lp759
sg444
g345
sg445
Nsg446
(lp760
I18
asg448
Nsg449
g758
sg450
(lp761
sg452
g70
sg453
Nsg454
Nsg455
Nsbag2
(g3
g4
Ntp762
Rp763
(dp764
g8
g331
sg433
Nsg434
(dp765
sg436
Nsg34
g37
sg437
(lp766
I19
asg439
Nsg440
VTanna debei Eliyahu Zuta, Additions to Seder Eliyahu Zuta, Mavo 19
p767
sg442
(lp768
sg444
g345
sg445
Nsg446
(lp769
I19
asg448
Nsg449
g767
sg450
(lp770
sg452
g70
sg453
Nsg454
Nsg455
Nsbag2
(g3
g4
Ntp771
Rp772
(dp773
g8
g331
sg433
Nsg434
(dp774
sg436
Nsg34
g37
sg437
(lp775
I20
asg439
Nsg440
VTanna debei Eliyahu Zuta, Additions to Seder Eliyahu Zuta, Mavo 20
p776
sg442
(lp777
sg444
g345
sg445
Nsg446
(lp778
I20
asg448
Nsg449
g776
sg450
(lp779
sg452
g70
sg453
Nsg454
Nsg455
Nsbag2
(g3
g4
Ntp780
Rp781
(dp782
g8
g331
sg433
Nsg434
(dp783
sg436
Nsg34
g37
sg437
(lp784
I21
asg439
Nsg440
VTanna debei Eliyahu Zuta, Additions to Seder Eliyahu Zuta, Mavo 21
p785
sg442
(lp786
sg444
g345
sg445
Nsg446
(lp787
I21
asg448
Nsg449
g785
sg450
(lp788
sg452
g70
sg453
Nsg454
Nsg455
Nsbag2
(g3
g4
Ntp789
Rp790
(dp791
g8
g331
sg433
Nsg434
(dp792
sg436
Nsg34
g37
sg437
(lp793
I22
asg439
Nsg440
VTanna debei Eliyahu Zuta, Additions to Seder Eliyahu Zuta, Mavo 22
p794
sg442
(lp795
sg444
g345
sg445
Nsg446
(lp796
I22
asg448
Nsg449
g794
sg450
(lp797
sg452
g70
sg453
Nsg454
Nsg455
Nsbag2
(g3
g4
Ntp798
Rp799
(dp800
g8
g331
sg433
Nsg434
(dp801
sg436
Nsg34
g37
sg437
(lp802
I23
asg439
Nsg440
VTanna debei Eliyahu Zuta, Additions to Seder Eliyahu Zuta, Mavo 23
p803
sg442
(lp804
sg444
g345
sg445
Nsg446
(lp805
I23
asg448
Nsg449
g803
sg450
(lp806
sg452
g70
sg453
Nsg454
Nsg455
Nsbag2
(g3
g4
Ntp807
Rp808
(dp809
g8
g331
sg433
Nsg434
(dp810
sg436
Nsg34
g37
sg437
(lp811
I24
asg439
Nsg440
VTanna debei Eliyahu Zuta, Additions to Seder Eliyahu Zuta, Mavo 24
p812
sg442
(lp813
sg444
g345
sg445
Nsg446
(lp814
I24
asg448
Nsg449
g812
sg450
(lp815
sg452
g70
sg453
Nsg454
Nsg455
Nsbag2
(g3
g4
Ntp816
Rp817
(dp818
g8
g331
sg433
Nsg434
(dp819
sg436
Nsg34
g37
sg437
(lp820
I25
asg439
Nsg440
VTanna debei Eliyahu Zuta, Additions to Seder Eliyahu Zuta, Mavo 25
p821
sg442
(lp822
sg444
g345
sg445
Nsg446
(lp823
I25
asg448
Nsg449
g821
sg450
(lp824
sg452
g70
sg453
Nsg454
Nsg455
Nsbag2
(g3
g4
Ntp825
Rp826
(dp827
g8
g331
sg433
Nsg434
(dp828
sg436
Nsg34
g37
sg437
(lp829
I26
asg439
Nsg440
VTanna debei Eliyahu Zuta, Additions to Seder Eliyahu Zuta, Mavo 26
p830
sg442
(lp831
sg444
g345
sg445
Nsg446
(lp832
I26
asg448
Nsg449
g830
sg450
(lp833
sg452
g70
sg453
Nsg454
Nsg455
Nsbag2
(g3
g4
Ntp834
Rp835
(dp836
g8
g331
sg433
Nsg434
(dp837
sg436
Nsg34
g37
sg437
(lp838
I27
asg439
Nsg440
VTanna debei Eliyahu Zuta, Additions to Seder Eliyahu Zuta, Mavo 27
p839
sg442
(lp840
sg444
g345
sg445
Nsg446
(lp841
I27
asg448
Nsg449
g839
sg450
(lp842
sg452
g70
sg453
Nsg454
Nsg455
Nsbag2
(g3
g4
Ntp843
Rp844
(dp845
g8
g331
sg433
Nsg434
(dp846
sg436
Nsg34
g37
sg437
(lp847
I28
asg439
Nsg440
VTanna debei Eliyahu Zuta, Additions to Seder Eliyahu Zuta, Mavo 28
p848
sg442
(lp849
sg444
g345
sg445
Nsg446
(lp850
I28
asg448
Nsg449
g848
sg450
(lp851
sg452
g70
sg453
Nsg454
Nsg455
Nsbag2
(g3
g4
Ntp852
Rp853
(dp854
g8
g331
sg433
Nsg434
(dp855
sg436
Nsg34
g37
sg437
(lp856
I29
asg439
Nsg440
VTanna debei Eliyahu Zuta, Additions to Seder Eliyahu Zuta, Mavo 29
p857
sg442
(lp858
sg444
g345
sg445
Nsg446
(lp859
I29
asg448
Nsg449
g857
sg450
(lp860
sg452
g70
sg453
Nsg454
Nsg455
Nsbag2
(g3
g4
Ntp861
Rp862
(dp863
g8
g331
sg433
Nsg434
(dp864
sg436
Nsg34
g37
sg437
(lp865
I30
asg439
Nsg440
VTanna debei Eliyahu Zuta, Additions to Seder Eliyahu Zuta, Mavo 30
p866
sg442
(lp867
sg444
g345
sg445
Nsg446
(lp868
I30
asg448
Nsg449
g866
sg450
(lp869
sg452
g70
sg453
Nsg454
Nsg455
Nsbag2
(g3
g4
Ntp870
Rp871
(dp872
g8
g331
sg433
Nsg434
(dp873
sg436
Nsg34
g37
sg437
(lp874
I31
asg439
Nsg440
VTanna debei Eliyahu Zuta, Additions to Seder Eliyahu Zuta, Mavo 31
p875
sg442
(lp876
sg444
g345
sg445
Nsg446
(lp877
I31
asg448
Nsg449
g875
sg450
(lp878
sg452
g70
sg453
Nsg454
Nsg455
Nsbag2
(g3
g4
Ntp879
Rp880
(dp881
g8
g331
sg433
Nsg434
(dp882
sg436
Nsg34
g37
sg437
(lp883
I32
asg439
Nsg440
VTanna debei Eliyahu Zuta, Additions to Seder Eliyahu Zuta, Mavo 32
p884
sg442
(lp885
sg444
g345
sg445
Nsg446
(lp886
I32
asg448
Nsg449
g884
sg450
(lp887
sg452
g70
sg453
Nsg454
Nsg455
Nsbag2
(g3
g4
Ntp888
Rp889
(dp890
g8
g331
sg433
Nsg434
(dp891
sg436
Nsg34
g37
sg437
(lp892
I33
asg439
Nsg440
VTanna debei Eliyahu Zuta, Additions to Seder Eliyahu Zuta, Mavo 33
p893
sg442
(lp894
sg444
g345
sg445
Nsg446
(lp895
I33
asg448
Nsg449
g893
sg450
(lp896
sg452
g70
sg453
Nsg454
Nsg455
Nsbag2
(g3
g4
Ntp897
Rp898
(dp899
g8
g331
sg433
Nsg434
(dp900
sg436
Nsg34
g37
sg437
(lp901
I34
asg439
Nsg440
VTanna debei Eliyahu Zuta, Additions to Seder Eliyahu Zuta, Mavo 34
p902
sg442
(lp903
sg444
g345
sg445
Nsg446
(lp904
I34
asg448
Nsg449
g902
sg450
(lp905
sg452
g70
sg453
Nsg454
Nsg455
Nsbag2
(g3
g4
Ntp906
Rp907
(dp908
g8
g331
sg433
Nsg434
(dp909
sg436
Nsg34
g37
sg437
(lp910
I35
asg439
Nsg440
VTanna debei Eliyahu Zuta, Additions to Seder Eliyahu Zuta, Mavo 35
p911
sg442
(lp912
sg444
g345
sg445
Nsg446
(lp913
I35
asg448
Nsg449
g911
sg450
(lp914
sg452
g70
sg453
Nsg454
Nsg455
Nsbag2
(g3
g4
Ntp915
Rp916
(dp917
g8
g331
sg433
Nsg434
(dp918
sg436
Nsg34
g37
sg437
(lp919
I36
asg439
Nsg440
VTanna debei Eliyahu Zuta, Additions to Seder Eliyahu Zuta, Mavo 36
p920
sg442
(lp921
sg444
g345
sg445
Nsg446
(lp922
I36
asg448
Nsg449
g920
sg450
(lp923
sg452
g70
sg453
Nsg454
Nsg455
Nsbag2
(g3
g4
Ntp924
Rp925
(dp926
g8
g331
sg433
Nsg434
(dp927
sg436
Nsg34
g37
sg437
(lp928
I37
asg439
Nsg440
VTanna debei Eliyahu Zuta, Additions to Seder Eliyahu Zuta, Mavo 37
p929
sg442
(lp930
sg444
g345
sg445
Nsg446
(lp931
I37
asg448
Nsg449
g929
sg450
(lp932
sg452
g70
sg453
Nsg454
Nsg455
Nsbag2
(g3
g4
Ntp933
Rp934
(dp935
g8
g331
sg433
Nsg434
(dp936
sg436
Nsg34
g37
sg437
(lp937
I38
asg439
Nsg440
VTanna debei Eliyahu Zuta, Additions to Seder Eliyahu Zuta, Mavo 38
p938
sg442
(lp939
sg444
g345
sg445
Nsg446
(lp940
I38
asg448
Nsg449
g938
sg450
(lp941
sg452
g70
sg453
Nsg454
Nsg455
Nsbag2
(g3
g4
Ntp942
Rp943
(dp944
g8
g331
sg433
Nsg434
(dp945
sg436
Nsg34
g37
sg437
(lp946
I39
asg439
Nsg440
VTanna debei Eliyahu Zuta, Additions to Seder Eliyahu Zuta, Mavo 39
p947
sg442
(lp948
sg444
g345
sg445
Nsg446
(lp949
I39
asg448
Nsg449
g947
sg450
(lp950
sg452
g70
sg453
Nsg454
Nsg455
Nsbag2
(g3
g4
Ntp951
Rp952
(dp953
g8
g331
sg433
Nsg434
(dp954
sg436
Nsg34
g37
sg437
(lp955
I40
asg439
Nsg440
VTanna debei Eliyahu Zuta, Additions to Seder Eliyahu Zuta, Mavo 40
p956
sg442
(lp957
sg444
g345
sg445
Nsg446
(lp958
I40
asg448
Nsg449
g956
sg450
(lp959
sg452
g70
sg453
Nsg454
Nsg455
Nsbag2
(g3
g4
Ntp960
Rp961
(dp962
g8
g331
sg433
Nsg434
(dp963
sg436
Nsg34
g37
sg437
(lp964
I41
asg439
Nsg440
VTanna debei Eliyahu Zuta, Additions to Seder Eliyahu Zuta, Mavo 41
p965
sg442
(lp966
sg444
g345
sg445
Nsg446
(lp967
I41
asg448
Nsg449
g965
sg450
(lp968
sg452
g70
sg453
Nsg454
Nsg455
Nsbag2
(g3
g4
Ntp969
Rp970
(dp971
g8
g331
sg433
Nsg434
(dp972
sg436
Nsg34
g37
sg437
(lp973
I42
asg439
Nsg440
VTanna debei Eliyahu Zuta, Additions to Seder Eliyahu Zuta, Mavo 42
p974
sg442
(lp975
sg444
g345
sg445
Nsg446
(lp976
I42
asg448
Nsg449
g974
sg450
(lp977
sg452
g70
sg453
Nsg454
Nsg455
Nsbag2
(g3
g4
Ntp978
Rp979
(dp980
g8
g331
sg433
Nsg434
(dp981
sg436
Nsg34
g37
sg437
(lp982
I43
asg439
Nsg440
VTanna debei Eliyahu Zuta, Additions to Seder Eliyahu Zuta, Mavo 43
p983
sg442
(lp984
sg444
g345
sg445
Nsg446
(lp985
I43
asg448
Nsg449
g983
sg450
(lp986
sg452
g70
sg453
Nsg454
Nsg455
Nsbag2
(g3
g4
Ntp987
Rp988
(dp989
g8
g331
sg433
Nsg434
(dp990
sg436
Nsg34
g37
sg437
(lp991
I44
asg439
Nsg440
VTanna debei Eliyahu Zuta, Additions to Seder Eliyahu Zuta, Mavo 44
p992
sg442
(lp993
sg444
g345
sg445
Nsg446
(lp994
I44
asg448
Nsg449
g992
sg450
(lp995
sg452
g70
sg453
Nsg454
Nsg455
Nsbag2
(g3
g4
Ntp996
Rp997
(dp998
g8
g331
sg433
Nsg434
(dp999
sg436
Nsg34
g37
sg437
(lp1000
I45
asg439
Nsg440
VTanna debei Eliyahu Zuta, Additions to Seder Eliyahu Zuta, Mavo 45
p1001
sg442
(lp1002
sg444
g345
sg445
Nsg446
(lp1003
I45
asg448
Nsg449
g1001
sg450
(lp1004
sg452
g70
sg453
Nsg454
Nsg455
Nsbag2
(g3
g4
Ntp1005
Rp1006
(dp1007
g8
g331
sg433
Nsg434
(dp1008
sg436
Nsg34
g37
sg437
(lp1009
I46
asg439
Nsg440
VTanna debei Eliyahu Zuta, Additions to Seder Eliyahu Zuta, Mavo 46
p1010
sg442
(lp1011
sg444
g345
sg445
Nsg446
(lp1012
I46
asg448
Nsg449
g1010
sg450
(lp1013
sg452
g70
sg453
Nsg454
Nsg455
Nsbag2
(g3
g4
Ntp1014
Rp1015
(dp1016
g8
g331
sg433
Nsg434
(dp1017
sg436
Nsg34
g37
sg437
(lp1018
I47
asg439
Nsg440
VTanna debei Eliyahu Zuta, Additions to Seder Eliyahu Zuta, Mavo 47
p1019
sg442
(lp1020
sg444
g345
sg445
Nsg446
(lp1021
I47
asg448
Nsg449
g1019
sg450
(lp1022
sg452
g70
sg453
Nsg454
Nsg455
Nsbag2
(g3
g4
Ntp1023
Rp1024
(dp1025
g8
g331
sg433
Nsg434
(dp1026
sg436
Nsg34
g37
sg437
(lp1027
I48
asg439
Nsg440
VTanna debei Eliyahu Zuta, Additions to Seder Eliyahu Zuta, Mavo 48
p1028
sg442
(lp1029
sg444
g345
sg445
Nsg446
(lp1030
I48
asg448
Nsg449
g1028
sg450
(lp1031
sg452
g70
sg453
Nsg454
Nsg455
Nsbag2
(g3
g4
Ntp1032
Rp1033
(dp1034
g8
g331
sg433
Nsg434
(dp1035
sg436
Nsg34
g37
sg437
(lp1036
I49
asg439
Nsg440
VTanna debei Eliyahu Zuta, Additions to Seder Eliyahu Zuta, Mavo 49
p1037
sg442
(lp1038
sg444
g345
sg445
Nsg446
(lp1039
I49
asg448
Nsg449
g1037
sg450
(lp1040
sg452
g70
sg453
Nsg454
Nsg455
Nsbag2
(g3
g4
Ntp1041
Rp1042
(dp1043
g8
g331
sg433
Nsg434
(dp1044
sg436
Nsg34
g37
sg437
(lp1045
I50
asg439
Nsg440
VTanna debei Eliyahu Zuta, Additions to Seder Eliyahu Zuta, Mavo 50
p1046
sg442
(lp1047
sg444
g345
sg445
Nsg446
(lp1048
I50
asg448
Nsg449
g1046
sg450
(lp1049
sg452
g70
sg453
Nsg454
Nsg455
Nsbag2
(g3
g4
Ntp1050
Rp1051
(dp1052
g8
g331
sg433
Nsg434
(dp1053
sg436
Nsg34
g37
sg437
(lp1054
I51
asg439
Nsg440
VTanna debei Eliyahu Zuta, Additions to Seder Eliyahu Zuta, Mavo 51
p1055
sg442
(lp1056
sg444
g345
sg445
Nsg446
(lp1057
I51
asg448
Nsg449
g1055
sg450
(lp1058
sg452
g70
sg453
Nsg454
Nsg455
Nsbag2
(g3
g4
Ntp1059
Rp1060
(dp1061
g8
g331
sg433
Nsg434
(dp1062
sg436
Nsg34
g37
sg437
(lp1063
I52
asg439
Nsg440
VTanna debei Eliyahu Zuta, Additions to Seder Eliyahu Zuta, Mavo 52
p1064
sg442
(lp1065
sg444
g345
sg445
Nsg446
(lp1066
I52
asg448
Nsg449
g1064
sg450
(lp1067
sg452
g70
sg453
Nsg454
Nsg455
Nsbag2
(g3
g4
Ntp1068
Rp1069
(dp1070
g8
g331
sg433
Nsg434
(dp1071
sg436
Nsg34
g37
sg437
(lp1072
I53
asg439
Nsg440
VTanna debei Eliyahu Zuta, Additions to Seder Eliyahu Zuta, Mavo 53
p1073
sg442
(lp1074
sg444
g345
sg445
Nsg446
(lp1075
I53
asg448
Nsg449
g1073
sg450
(lp1076
sg452
g70
sg453
Nsg454
Nsg455
Nsbag2
(g3
g4
Ntp1077
Rp1078
(dp1079
g8
g331
sg433
Nsg434
(dp1080
sg436
Nsg34
g37
sg437
(lp1081
I54
asg439
Nsg440
VTanna debei Eliyahu Zuta, Additions to Seder Eliyahu Zuta, Mavo 54
p1082
sg442
(lp1083
sg444
g345
sg445
Nsg446
(lp1084
I54
asg448
Nsg449
g1082
sg450
(lp1085
sg452
g70
sg453
Nsg454
Nsg455
Nsbag2
(g3
g4
Ntp1086
Rp1087
(dp1088
g8
g331
sg433
Nsg434
(dp1089
sg436
Nsg34
g37
sg437
(lp1090
I55
asg439
Nsg440
VTanna debei Eliyahu Zuta, Additions to Seder Eliyahu Zuta, Mavo 55
p1091
sg442
(lp1092
sg444
g345
sg445
Nsg446
(lp1093
I55
asg448
Nsg449
g1091
sg450
(lp1094
sg452
g70
sg453
Nsg454
Nsg455
Nsbag2
(g3
g4
Ntp1095
Rp1096
(dp1097
g8
g331
sg433
Nsg434
(dp1098
sg436
Nsg34
g37
sg437
(lp1099
I56
asg439
Nsg440
VTanna debei Eliyahu Zuta, Additions to Seder Eliyahu Zuta, Mavo 56
p1100
sg442
(lp1101
sg444
g345
sg445
Nsg446
(lp1102
I56
asg448
Nsg449
g1100
sg450
(lp1103
sg452
g70
sg453
Nsg454
Nsg455
Nsbag2
(g3
g4
Ntp1104
Rp1105
(dp1106
g8
g331
sg433
Nsg434
(dp1107
sg436
Nsg34
g37
sg437
(lp1108
I57
asg439
Nsg440
VTanna debei Eliyahu Zuta, Additions to Seder Eliyahu Zuta, Mavo 57
p1109
sg442
(lp1110
sg444
g345
sg445
Nsg446
(lp1111
I57
asg448
Nsg449
g1109
sg450
(lp1112
sg452
g70
sg453
Nsg454
Nsg455
Nsbag2
(g3
g4
Ntp1113
Rp1114
(dp1115
g8
g331
sg433
Nsg434
(dp1116
sg436
Nsg34
g37
sg437
(lp1117
I58
asg439
Nsg440
VTanna debei Eliyahu Zuta, Additions to Seder Eliyahu Zuta, Mavo 58
p1118
sg442
(lp1119
sg444
g345
sg445
Nsg446
(lp1120
I58
asg448
Nsg449
g1118
sg450
(lp1121
sg452
g70
sg453
Nsg454
Nsg455
Nsbag2
(g3
g4
Ntp1122
Rp1123
(dp1124
g8
g331
sg433
Nsg434
(dp1125
sg436
Nsg34
g37
sg437
(lp1126
I59
asg439
Nsg440
VTanna debei Eliyahu Zuta, Additions to Seder Eliyahu Zuta, Mavo 59
p1127
sg442
(lp1128
sg444
g345
sg445
Nsg446
(lp1129
I59
asg448
Nsg449
g1127
sg450
(lp1130
sg452
g70
sg453
Nsg454
Nsg455
Nsbag2
(g3
g4
Ntp1131
Rp1132
(dp1133
g8
g331
sg433
Nsg434
(dp1134
sg436
Nsg34
g37
sg437
(lp1135
I60
asg439
Nsg440
VTanna debei Eliyahu Zuta, Additions to Seder Eliyahu Zuta, Mavo 60
p1136
sg442
(lp1137
sg444
g345
sg445
Nsg446
(lp1138
I60
asg448
Nsg449
g1136
sg450
(lp1139
sg452
g70
sg453
Nsg454
Nsg455
Nsbag2
(g3
g4
Ntp1140
Rp1141
(dp1142
g8
g331
sg433
Nsg434
(dp1143
sg436
Nsg34
g37
sg437
(lp1144
I61
asg439
Nsg440
VTanna debei Eliyahu Zuta, Additions to Seder Eliyahu Zuta, Mavo 61
p1145
sg442
(lp1146
sg444
g345
sg445
Nsg446
(lp1147
I61
asg448
Nsg449
g1145
sg450
(lp1148
sg452
g70
sg453
Nsg454
Nsg455
Nsbag2
(g3
g4
Ntp1149
Rp1150
(dp1151
g8
g331
sg433
Nsg434
(dp1152
sg436
Nsg34
g37
sg437
(lp1153
I62
asg439
Nsg440
VTanna debei Eliyahu Zuta, Additions to Seder Eliyahu Zuta, Mavo 62
p1154
sg442
(lp1155
sg444
g345
sg445
Nsg446
(lp1156
I62
asg448
Nsg449
g1154
sg450
(lp1157
sg452
g70
sg453
Nsg454
Nsg455
Nsbag2
(g3
g4
Ntp1158
Rp1159
(dp1160
g8
g331
sg433
Nsg434
(dp1161
sg436
Nsg34
g37
sg437
(lp1162
I63
asg439
Nsg440
VTanna debei Eliyahu Zuta, Additions to Seder Eliyahu Zuta, Mavo 63
p1163
sg442
(lp1164
sg444
g345
sg445
Nsg446
(lp1165
I63
asg448
Nsg449
g1163
sg450
(lp1166
sg452
g70
sg453
Nsg454
Nsg455
Nsbag2
(g3
g4
Ntp1167
Rp1168
(dp1169
g8
g331
sg433
Nsg434
(dp1170
sg436
Nsg34
g37
sg437
(lp1171
I64
asg439
Nsg440
VTanna debei Eliyahu Zuta, Additions to Seder Eliyahu Zuta, Mavo 64
p1172
sg442
(lp1173
sg444
g345
sg445
Nsg446
(lp1174
I64
asg448
Nsg449
g1172
sg450
(lp1175
sg452
g70
sg453
Nsg454
Nsg455
Nsbag2
(g3
g4
Ntp1176
Rp1177
(dp1178
g8
g331
sg433
Nsg434
(dp1179
sg436
Nsg34
g37
sg437
(lp1180
I65
asg439
Nsg440
VTanna debei Eliyahu Zuta, Additions to Seder Eliyahu Zuta, Mavo 65
p1181
sg442
(lp1182
sg444
g345
sg445
Nsg446
(lp1183
I65
asg448
Nsg449
g1181
sg450
(lp1184
sg452
g70
sg453
Nsg454
Nsg455
Nsbag2
(g3
g4
Ntp1185
Rp1186
(dp1187
g8
g331
sg433
Nsg434
(dp1188
sg436
Nsg34
g37
sg437
(lp1189
I66
asg439
Nsg440
VTanna debei Eliyahu Zuta, Additions to Seder Eliyahu Zuta, Mavo 66
p1190
sg442
(lp1191
sg444
g345
sg445
Nsg446
(lp1192
I66
asg448
Nsg449
g1190
sg450
(lp1193
sg452
g70
sg453
Nsg454
Nsg455
Nsbag2
(g3
g4
Ntp1194
Rp1195
(dp1196
g8
g331
sg433
Nsg434
(dp1197
sg436
Nsg34
g37
sg437
(lp1198
I67
asg439
Nsg440
VTanna debei Eliyahu Zuta, Additions to Seder Eliyahu Zuta, Mavo 67
p1199
sg442
(lp1200
sg444
g345
sg445
Nsg446
(lp1201
I67
asg448
Nsg449
g1199
sg450
(lp1202
sg452
g70
sg453
Nsg454
Nsg455
Nsbag2
(g3
g4
Ntp1203
Rp1204
(dp1205
g8
g331
sg433
Nsg434
(dp1206
sg436
Nsg34
g37
sg437
(lp1207
I68
asg439
Nsg440
VTanna debei Eliyahu Zuta, Additions to Seder Eliyahu Zuta, Mavo 68
p1208
sg442
(lp1209
sg444
g345
sg445
Nsg446
(lp1210
I68
asg448
Nsg449
g1208
sg450
(lp1211
sg452
g70
sg453
Nsg454
Nsg455
Nsbag2
(g3
g4
Ntp1212
Rp1213
(dp1214
g8
g331
sg433
Nsg434
(dp1215
sg436
Nsg34
g37
sg437
(lp1216
I69
asg439
Nsg440
VTanna debei Eliyahu Zuta, Additions to Seder Eliyahu Zuta, Mavo 69
p1217
sg442
(lp1218
sg444
g345
sg445
Nsg446
(lp1219
I69
asg448
Nsg449
g1217
sg450
(lp1220
sg452
g70
sg453
Nsg454
Nsg455
Nsbag2
(g3
g4
Ntp1221
Rp1222
(dp1223
g8
g331
sg433
Nsg434
(dp1224
sg436
Nsg34
g37
sg437
(lp1225
I70
asg439
Nsg440
VTanna debei Eliyahu Zuta, Additions to Seder Eliyahu Zuta, Mavo 70
p1226
sg442
(lp1227
sg444
g345
sg445
Nsg446
(lp1228
I70
asg448
Nsg449
g1226
sg450
(lp1229
sg452
g70
sg453
Nsg454
Nsg455
Nsbag2
(g3
g4
Ntp1230
Rp1231
(dp1232
g8
g331
sg433
Nsg434
(dp1233
sg436
Nsg34
g37
sg437
(lp1234
I71
asg439
Nsg440
VTanna debei Eliyahu Zuta, Additions to Seder Eliyahu Zuta, Mavo 71
p1235
sg442
(lp1236
sg444
g345
sg445
Nsg446
(lp1237
I71
asg448
Nsg449
g1235
sg450
(lp1238
sg452
g70
sg453
Nsg454
Nsg455
Nsbag2
(g3
g4
Ntp1239
Rp1240
(dp1241
g8
g331
sg433
Nsg434
(dp1242
sg436
Nsg34
g37
sg437
(lp1243
I72
asg439
Nsg440
VTanna debei Eliyahu Zuta, Additions to Seder Eliyahu Zuta, Mavo 72
p1244
sg442
(lp1245
sg444
g345
sg445
Nsg446
(lp1246
I72
asg448
Nsg449
g1244
sg450
(lp1247
sg452
g70
sg453
Nsg454
Nsg455
Nsbag2
(g3
g4
Ntp1248
Rp1249
(dp1250
g8
g331
sg433
Nsg434
(dp1251
sg436
Nsg34
g37
sg437
(lp1252
I73
asg439
Nsg440
VTanna debei Eliyahu Zuta, Additions to Seder Eliyahu Zuta, Mavo 73
p1253
sg442
(lp1254
sg444
g345
sg445
Nsg446
(lp1255
I73
asg448
Nsg449
g1253
sg450
(lp1256
sg452
g70
sg453
Nsg454
Nsg455
Nsbag2
(g3
g4
Ntp1257
Rp1258
(dp1259
g8
g331
sg433
Nsg434
(dp1260
sg436
Nsg34
g37
sg437
(lp1261
I74
asg439
Nsg440
VTanna debei Eliyahu Zuta, Additions to Seder Eliyahu Zuta, Mavo 74
p1262
sg442
(lp1263
sg444
g345
sg445
Nsg446
(lp1264
I74
asg448
Nsg449
g1262
sg450
(lp1265
sg452
g70
sg453
Nsg454
Nsg455
Nsbag2
(g3
g4
Ntp1266
Rp1267
(dp1268
g8
g331
sg433
Nsg434
(dp1269
sg436
Nsg34
g37
sg437
(lp1270
I75
asg439
Nsg440
VTanna debei Eliyahu Zuta, Additions to Seder Eliyahu Zuta, Mavo 75
p1271
sg442
(lp1272
sg444
g345
sg445
Nsg446
(lp1273
I75
asg448
Nsg449
g1271
sg450
(lp1274
sg452
g70
sg453
Nsg454
Nsg455
Nsbag2
(g3
g4
Ntp1275
Rp1276
(dp1277
g8
g331
sg433
Nsg434
(dp1278
sg436
Nsg34
g37
sg437
(lp1279
I76
asg439
Nsg440
VTanna debei Eliyahu Zuta, Additions to Seder Eliyahu Zuta, Mavo 76
p1280
sg442
(lp1281
sg444
g345
sg445
Nsg446
(lp1282
I76
asg448
Nsg449
g1280
sg450
(lp1283
sg452
g70
sg453
Nsg454
Nsg455
Nsbag2
(g3
g4
Ntp1284
Rp1285
(dp1286
g8
g350
sg433
Nsg434
(dp1287
sg436
Nsg34
g37
sg437
(lp1288
I1
asg439
Nsg440
VTanna debei Eliyahu Zuta, Additions to Seder Eliyahu Zuta, Pirkei Derech Eretz 1
p1289
sg442
(lp1290
sg444
g364
sg445
Nsg446
(lp1291
I1
asg448
Nsg449
g1289
sg450
(lp1292
sg452
g70
sg453
Nsg454
Nsg455
Nsbag2
(g3
g4
Ntp1293
Rp1294
(dp1295
g8
g350
sg433
Nsg434
(dp1296
sg436
Nsg34
g37
sg437
(lp1297
I2
asg439
Nsg440
VTanna debei Eliyahu Zuta, Additions to Seder Eliyahu Zuta, Pirkei Derech Eretz 2
p1298
sg442
(lp1299
sg444
g364
sg445
Nsg446
(lp1300
I2
asg448
Nsg449
g1298
sg450
(lp1301
sg452
g70
sg453
Nsg454
Nsg455
Nsbag2
(g3
g4
Ntp1302
Rp1303
(dp1304
g8
g350
sg433
Nsg434
(dp1305
sg436
Nsg34
g37
sg437
(lp1306
I3
asg439
Nsg440
VTanna debei Eliyahu Zuta, Additions to Seder Eliyahu Zuta, Pirkei Derech Eretz 3
p1307
sg442
(lp1308
sg444
g364
sg445
Nsg446
(lp1309
I3
asg448
Nsg449
g1307
sg450
(lp1310
sg452
g70
sg453
Nsg454
Nsg455
Nsbag2
(g3
g4
Ntp1311
Rp1312
(dp1313
g8
g369
sg433
Nsg434
(dp1314
sg436
Nsg34
g37
sg437
(lp1315
I1
asg439
Nsg440
VTanna debei Eliyahu Zuta, Additions to Seder Eliyahu Zuta, Pirkei DeRabbi Eliezer 1
p1316
sg442
(lp1317
sg444
g383
sg445
Nsg446
(lp1318
I1
asg448
Nsg449
g1316
sg450
(lp1319
sg452
g70
sg453
Nsg454
Nsg455
Nsbag2
(g3
g4
Ntp1320
Rp1321
(dp1322
g8
g369
sg433
Nsg434
(dp1323
sg436
Nsg34
g37
sg437
(lp1324
I2
asg439
Nsg440
VTanna debei Eliyahu Zuta, Additions to Seder Eliyahu Zuta, Pirkei DeRabbi Eliezer 2
p1325
sg442
(lp1326
sg444
g383
sg445
Nsg446
(lp1327
I2
asg448
Nsg449
g1325
sg450
(lp1328
sg452
g70
sg453
Nsg454
Nsg455
Nsbag2
(g3
g4
Ntp1329
Rp1330
(dp1331
g8
g369
sg433
Nsg434
(dp1332
sg436
Nsg34
g37
sg437
(lp1333
I3
asg439
Nsg440
VTanna debei Eliyahu Zuta, Additions to Seder Eliyahu Zuta, Pirkei DeRabbi Eliezer 3
p1334
sg442
(lp1335
sg444
g383
sg445
Nsg446
(lp1336
I3
asg448
Nsg449
g1334
sg450
(lp1337
sg452
g70
sg453
Nsg454
Nsg455
Nsbag2
(g3
g4
Ntp1338
Rp1339
(dp1340
g8
g369
sg433
Nsg434
(dp1341
sg436
Nsg34
g37
sg437
(lp1342
I4
asg439
Nsg440
VTanna debei Eliyahu Zuta, Additions to Seder Eliyahu Zuta, Pirkei DeRabbi Eliezer 4
p1343
sg442
(lp1344
sg444
g383
sg445
Nsg446
(lp1345
I4
asg448
Nsg449
g1343
sg450
(lp1346
sg452
g70
sg453
Nsg454
Nsg455
Nsbag2
(g3
g4
Ntp1347
Rp1348
(dp1349
g8
g369
sg433
Nsg434
(dp1350
sg436
Nsg34
g37
sg437
(lp1351
I5
asg439
Nsg440
VTanna debei Eliyahu Zuta, Additions to Seder Eliyahu Zuta, Pirkei DeRabbi Eliezer 5
p1352
sg442
(lp1353
sg444
g383
sg445
Nsg446
(lp1354
I5
asg448
Nsg449
g1352
sg450
(lp1355
sg452
g70
sg453
Nsg454
Nsg455
Nsbag2
(g3
g4
Ntp1356
Rp1357
(dp1358
g8
g369
sg433
Nsg434
(dp1359
sg436
Nsg34
g37
sg437
(lp1360
I6
asg439
Nsg440
VTanna debei Eliyahu Zuta, Additions to Seder Eliyahu Zuta, Pirkei DeRabbi Eliezer 6
p1361
sg442
(lp1362
sg444
g383
sg445
Nsg446
(lp1363
I6
asg448
Nsg449
g1361
sg450
(lp1364
sg452
g70
sg453
Nsg454
Nsg455
Nsbag2
(g3
g4
Ntp1365
Rp1366
(dp1367
g8
g388
sg433
Nsg434
(dp1368
sg436
Nsg34
g37
sg437
(lp1369
I1
asg439
Nsg440
VTanna debei Eliyahu Zuta, Additions to Seder Eliyahu Zuta, Pirkei HaYeridot 1
p1370
sg442
(lp1371
sg444
g402
sg445
Nsg446
(lp1372
I1
asg448
Nsg449
g1370
sg450
(lp1373
sg452
g70
sg453
Nsg454
Nsg455
Nsbag2
(g3
g4
Ntp1374
Rp1375
(dp1376
g8
g388
sg433
Nsg434
(dp1377
sg436
Nsg34
g37
sg437
(lp1378
I2
asg439
Nsg440
VTanna debei Eliyahu Zuta, Additions to Seder Eliyahu Zuta, Pirkei HaYeridot 2
p1379
sg442
(lp1380
sg444
g402
sg445
Nsg446
(lp1381
I2
asg448
Nsg449
g1379
sg450
(lp1382
sg452
g70
sg453
Nsg454
Nsg455
Nsbag2
(g3
g4
Ntp1383
Rp1384
(dp1385
g8
g388
sg433
Nsg434
(dp1386
sg436
Nsg34
g37
sg437
(lp1387
I3
asg439
Nsg440
VTanna debei Eliyahu Zuta, Additions to Seder Eliyahu Zuta, Pirkei HaYeridot 3
p1388
sg442
(lp1389
sg444
g402
sg445
Nsg446
(lp1390
I3
asg448
Nsg449
g1388
sg450
(lp1391
sg452
g70
sg453
Nsg454
Nsg455
Nsbag2
(g3
g4
Ntp1392
Rp1393
(dp1394
g8
g388
sg433
Nsg434
(dp1395
sg436
Nsg34
g37
sg437
(lp1396
I4
asg439
Nsg440
VTanna debei Eliyahu Zuta, Additions to Seder Eliyahu Zuta, Pirkei HaYeridot 4
p1397
sg442
(lp1398
sg444
g402
sg445
Nsg446
(lp1399
I4
asg448
Nsg449
g1397
sg450
(lp1400
sg452
g70
sg453
Nsg454
Nsg455
Nsbag2
(g3
g4
Ntp1401
Rp1402
(dp1403
g8
g388
sg433
Nsg434
(dp1404
sg436
Nsg34
g37
sg437
(lp1405
I5
asg439
Nsg440
VTanna debei Eliyahu Zuta, Additions to Seder Eliyahu Zuta, Pirkei HaYeridot 5
p1406
sg442
(lp1407
sg444
g402
sg445
Nsg446
(lp1408
I5
asg448
Nsg449
g1406
sg450
(lp1409
sg452
g70
sg453
Nsg454
Nsg455
Nsbag2
(g3
g4
Ntp1410
Rp1411
(dp1412
g8
g388
sg433
Nsg434
(dp1413
sg436
Nsg34
g37
sg437
(lp1414
I6
asg439
Nsg440
VTanna debei Eliyahu Zuta, Additions to Seder Eliyahu Zuta, Pirkei HaYeridot 6
p1415
sg442
(lp1416
sg444
g402
sg445
Nsg446
(lp1417
I6
asg448
Nsg449
g1415
sg450
(lp1418
sg452
g70
sg453
Nsg454
Nsg455
Nsbag2
(g3
g4
Ntp1419
Rp1420
(dp1421
g8
g388
sg433
Nsg434
(dp1422
sg436
Nsg34
g37
sg437
(lp1423
I7
asg439
Nsg440
VTanna debei Eliyahu Zuta, Additions to Seder Eliyahu Zuta, Pirkei HaYeridot 7
p1424
sg442
(lp1425
sg444
g402
sg445
Nsg446
(lp1426
I7
asg448
Nsg449
g1424
sg450
(lp1427
sg452
g70
sg453
Nsg454
Nsg455
Nsbag2
(g3
g4
Ntp1428
Rp1429
(dp1430
g8
g388
sg433
Nsg434
(dp1431
sg436
Nsg34
g37
sg437
(lp1432
I8
asg439
Nsg440
VTanna debei Eliyahu Zuta, Additions to Seder Eliyahu Zuta, Pirkei HaYeridot 8
p1433
sg442
(lp1434
sg444
g402
sg445
Nsg446
(lp1435
I8
asg448
Nsg449
g1433
sg450
(lp1436
sg452
g70
sg453
Nsg454
Nsg455
Nsbag2
(g3
g4
Ntp1437
Rp1438
(dp1439
g8
g388
sg433
Nsg434
(dp1440
sg436
Nsg34
g37
sg437
(lp1441
I9
asg439
Nsg440
VTanna debei Eliyahu Zuta, Additions to Seder Eliyahu Zuta, Pirkei HaYeridot 9
p1442
sg442
(lp1443
sg444
g402
sg445
Nsg446
(lp1444
I9
asg448
Nsg449
g1442
sg450
(lp1445
sg452
g70
sg453
Nsg454
Nsg455
Nsbag2
(g3
g4
Ntp1446
Rp1447
(dp1448
g8
g388
sg433
Nsg434
(dp1449
sg436
Nsg34
g37
sg437
(lp1450
I10
asg439
Nsg440
VTanna debei Eliyahu Zuta, Additions to Seder Eliyahu Zuta, Pirkei HaYeridot 10
p1451
sg442
(lp1452
sg444
g402
sg445
Nsg446
(lp1453
I10
asg448
Nsg449
g1451
sg450
(lp1454
sg452
g70
sg453
Nsg454
Nsg455
Nsbatp1455
.