((lp0
I0
aI54
aI445
aI1149
aI3388
aI4609
aI6076
aI8826
aI11506
aI14134
aI15094
aI16646
aI17167
aI17503
aI19296
aI20051
aI22168
aI22734
aI23536
aI24678
aI26074
aI27205
aI29461
aI30243
aI31433
aI32351
aI32699
aI33310
aI33676
aI34229
aI35787
aI36384
aI38192
aI39992
aI40563
aI40969
aI41713
aI42270
aI43094
aI43955
aI44269
aI45465
aI46459
aI48225
aI48836
aI49443
aI50510
aI51957
aI52755
aI53703
aI54197
aI55015
aI55922
aI56788
aI57136
aI58673
aI59630
a(lp1
ccopy_reg
_reconstructor
p2
(csefaria.model.text
Ref
p3
c__builtin__
object
p4
Ntp5
Rp6
(dp7
S'index_node'
p8
g2
(csefaria.model.schema
JaggedArrayNode
p9
g4
Ntp10
Rp11
(dp12
S'_address'
p13
(lp14
VTanna Debei Eliyahu Rabbah
p15
asS'_full_titles'
p16
(dp17
sVnodeType
p18
VJaggedArrayNode
p19
sS'parent'
p20
NsVaddressTypes
p21
(lp22
VInteger
p23
aVInteger
p24
asS'default'
p25
I00
sS'index'
p26
g2
(csefaria.model.text
Index
p27
g4
Ntp28
Rp29
(dp30
S'_id'
p31
g2
(cbson.objectid
ObjectId
p32
g4
Ntp33
Rp34
S'S\xfd0\xea\xfb\xfb\xa2\x14$\xf3\xd2t'
p35
bsS'pkeys_orig_values'
p36
(dp37
S'title'
p38
VTanna Debei Eliyahu Rabbah
p39
ssS'pubDate'
p40
V1598
p41
sS'compDate'
p42
V976
p43
sS'pubPlace'
p44
VVenice
p45
sS'compPlace'
p46
VTalmudic Babylon/Italy/Israel
p47
sS'enDesc'
p48
VTanna Deve Eliyahu (Teachings of the School of Elijah) is the composite name of a midrash, consisting of two parts, whose final redaction took place at the end of the 10th century CE. The first part is called Seder Eliyahu Rabbah (31 chapters); the second, Seder Eliyahu Zu\u1e6da (15 chapters). The underlying theme of the Tanna debe Eliyahu, which, with many interruptions, runs through the whole work, is the evolution of the world-system. The midrash calls the single periods of the history of man "shi\u1e6d\u1e6dot" (series). The first series, which deals with the beginning of the world and extends to the moment when man was driven out of Eden, consists of two subsections, (a) Ma'aseh Merkabah and (b) Ma'aseh Bereshit. The second series embraces the period from the expulsion of man from Eden to the Flood.  The six series of the world-system, found in the first part of the book was conceived prior to the creation of mankind. In the second part of the book mankind\u2019s immorality seem it sink lower and lower until finally its destruction became necessary.
p49
sS'era'
p50
VGN
p51
sS'struct_objs'
p52
(dp53
sS'nodes'
p54
g11
sS'errorMargin'
p55
V8
p56
sS'_title'
p57
g39
sS'categories'
p58
(lp59
VMidrash
p60
aVAggadic Midrash
p61
asS'schema'
p62
(dp63
g18
g19
sg21
g22
sVdepth
p64
I2
sVtitles
p65
(lp66
(dp67
Vlang
p68
Ven
p69
sVtext
p70
VTanna Debei Eliyahu Rabah
p71
sa(dp72
Vlang
p73
Vhe
p74
sVtext
p75
V\u05ea\u05e0\u05d0 \u05d3\u05d1\u05d9 \u05d0\u05dc\u05d9\u05d4\u05d5 \u05e8\u05d1\u05d4
p76
sVprimary
p77
I01
sa(dp78
Vlang
p79
Vhe
p80
sVtext
p81
V\u05ea\u05e0\u05d3\u05d1\u05d0"\u05e8
p82
sa(dp83
Vlang
p84
Vhe
p85
sVtext
p86
V\u05ea\u05d3\u05d1\u05d0"\u05e8
p87
sa(dp88
Vlang
p89
Vhe
p90
sVtext
p91
V\u05ea\u05d3\u05d1"\u05d0 \u05e8\u05d1\u05d4
p92
sa(dp93
Vlang
p94
Vhe
p95
sVtext
p96
V\u05ea\u05d3\u05d1"\u05d0 \u05e8\u05d1\u05d0
p97
sa(dp98
Vlang
p99
Vhe
p100
sVtext
p101
V\u05ea\u05e0\u05d0 \u05d3\u05d1\u05d9 \u05d0\u05dc\u05d9\u05d4\u05d5 \u05e8\u05d1\u05d0
p102
sa(dp103
Vlang
p104
Ven
p105
sVtext
p106
VTanna Debei Eliyahu Rabbah
p107
sVprimary
p108
I01
sasVkey
p109
g15
sVsectionNames
p110
(lp111
VPerek
p112
aVParagraph
p113
assbsS'_primary_title'
p114
(dp115
sS'title_group'
p116
g2
(csefaria.model.schema
TitleGroup
p117
g4
Ntp118
Rp119
(dp120
g114
(dp121
S'en'
p122
g107
ssS'titles'
p123
g66
sbsS'_addressTypes'
p124
(lp125
g2
(csefaria.model.schema
AddressInteger
p126
g4
Ntp127
Rp128
(dp129
S'length'
p130
NsS'order'
p131
I0
sbag2
(g126
g4
Ntp132
Rp133
(dp134
g130
Nsg131
I1
sbasS'sharedTitle'
p135
Nsg64
I2
sS'_full_title'
p136
(dp137
g122
g107
ssS'key'
p138
g15
sS'checkFirst'
p139
NsS'_regexes'
p140
(dp141
sS'_leaf_nodes'
p142
(lp143
sg110
g111
sS'children'
p144
(lp145
sbsS'_range_index'
p146
NsS'_context'
p147
(dp148
sS'_padded'
p149
Nsg26
g29
sS'sections'
p150
(lp151
I1
aI1
asS'_first_spanned_ref'
p152
NsS'tref'
p153
VTanna Debei Eliyahu Rabbah 1:1
p154
sS'_spanned_refs'
p155
(lp156
sS'book'
p157
g107
sS'_range_depth'
p158
NsS'toSections'
p159
(lp160
I1
aI1
asS'_url'
p161
NsS'_normal'
p162
g154
sS'_ranged_refs'
p163
(lp164
sS'type'
p165
g60
sS'_prev'
p166
NsS'_he_normal'
p167
NsS'_next'
p168
Nsbag2
(g3
g4
Ntp169
Rp170
(dp171
g8
g11
sg146
Nsg147
(dp172
sg149
Nsg26
g29
sg150
(lp173
I1
aI2
asg152
Nsg153
VTanna Debei Eliyahu Rabbah 1:2
p174
sg155
(lp175
sg157
g107
sg158
Nsg159
(lp176
I1
aI2
asg161
Nsg162
g174
sg163
(lp177
sg165
g60
sg166
Nsg167
Nsg168
Nsbag2
(g3
g4
Ntp178
Rp179
(dp180
g8
g11
sg146
Nsg147
(dp181
sg149
Nsg26
g29
sg150
(lp182
I1
aI3
asg152
Nsg153
VTanna Debei Eliyahu Rabbah 1:3
p183
sg155
(lp184
sg157
g107
sg158
Nsg159
(lp185
I1
aI3
asg161
Nsg162
g183
sg163
(lp186
sg165
g60
sg166
Nsg167
Nsg168
Nsbag2
(g3
g4
Ntp187
Rp188
(dp189
g8
g11
sg146
Nsg147
(dp190
sg149
Nsg26
g29
sg150
(lp191
I2
aI1
asg152
Nsg153
VTanna Debei Eliyahu Rabbah 2:1
p192
sg155
(lp193
sg157
g107
sg158
Nsg159
(lp194
I2
aI1
asg161
Nsg162
g192
sg163
(lp195
sg165
g60
sg166
Nsg167
Nsg168
Nsbag2
(g3
g4
Ntp196
Rp197
(dp198
g8
g11
sg146
Nsg147
(dp199
sg149
Nsg26
g29
sg150
(lp200
I3
aI1
asg152
Nsg153
VTanna Debei Eliyahu Rabbah 3:1
p201
sg155
(lp202
sg157
g107
sg158
Nsg159
(lp203
I3
aI1
asg161
Nsg162
g201
sg163
(lp204
sg165
g60
sg166
Nsg167
Nsg168
Nsbag2
(g3
g4
Ntp205
Rp206
(dp207
g8
g11
sg146
Nsg147
(dp208
sg149
Nsg26
g29
sg150
(lp209
I4
aI1
asg152
Nsg153
VTanna Debei Eliyahu Rabbah 4:1
p210
sg155
(lp211
sg157
g107
sg158
Nsg159
(lp212
I4
aI1
asg161
Nsg162
g210
sg163
(lp213
sg165
g60
sg166
Nsg167
Nsg168
Nsbag2
(g3
g4
Ntp214
Rp215
(dp216
g8
g11
sg146
Nsg147
(dp217
sg149
Nsg26
g29
sg150
(lp218
I5
aI1
asg152
Nsg153
VTanna Debei Eliyahu Rabbah 5:1
p219
sg155
(lp220
sg157
g107
sg158
Nsg159
(lp221
I5
aI1
asg161
Nsg162
g219
sg163
(lp222
sg165
g60
sg166
Nsg167
Nsg168
Nsbag2
(g3
g4
Ntp223
Rp224
(dp225
g8
g11
sg146
Nsg147
(dp226
sg149
Nsg26
g29
sg150
(lp227
I6
aI1
asg152
Nsg153
VTanna Debei Eliyahu Rabbah 6:1
p228
sg155
(lp229
sg157
g107
sg158
Nsg159
(lp230
I6
aI1
asg161
Nsg162
g228
sg163
(lp231
sg165
g60
sg166
Nsg167
Nsg168
Nsbag2
(g3
g4
Ntp232
Rp233
(dp234
g8
g11
sg146
Nsg147
(dp235
sg149
Nsg26
g29
sg150
(lp236
I7
aI1
asg152
Nsg153
VTanna Debei Eliyahu Rabbah 7:1
p237
sg155
(lp238
sg157
g107
sg158
Nsg159
(lp239
I7
aI1
asg161
Nsg162
g237
sg163
(lp240
sg165
g60
sg166
Nsg167
Nsg168
Nsbag2
(g3
g4
Ntp241
Rp242
(dp243
g8
g11
sg146
Nsg147
(dp244
sg149
Nsg26
g29
sg150
(lp245
I8
aI1
asg152
Nsg153
VTanna Debei Eliyahu Rabbah 8:1
p246
sg155
(lp247
sg157
g107
sg158
Nsg159
(lp248
I8
aI1
asg161
Nsg162
g246
sg163
(lp249
sg165
g60
sg166
Nsg167
Nsg168
Nsbag2
(g3
g4
Ntp250
Rp251
(dp252
g8
g11
sg146
Nsg147
(dp253
sg149
Nsg26
g29
sg150
(lp254
I9
aI1
asg152
Nsg153
VTanna Debei Eliyahu Rabbah 9:1
p255
sg155
(lp256
sg157
g107
sg158
Nsg159
(lp257
I9
aI1
asg161
Nsg162
g255
sg163
(lp258
sg165
g60
sg166
Nsg167
Nsg168
Nsbag2
(g3
g4
Ntp259
Rp260
(dp261
g8
g11
sg146
Nsg147
(dp262
sg149
Nsg26
g29
sg150
(lp263
I10
aI1
asg152
Nsg153
VTanna Debei Eliyahu Rabbah 10:1
p264
sg155
(lp265
sg157
g107
sg158
Nsg159
(lp266
I10
aI1
asg161
Nsg162
g264
sg163
(lp267
sg165
g60
sg166
Nsg167
Nsg168
Nsbag2
(g3
g4
Ntp268
Rp269
(dp270
g8
g11
sg146
Nsg147
(dp271
sg149
Nsg26
g29
sg150
(lp272
I10
aI2
asg152
Nsg153
VTanna Debei Eliyahu Rabbah 10:2
p273
sg155
(lp274
sg157
g107
sg158
Nsg159
(lp275
I10
aI2
asg161
Nsg162
g273
sg163
(lp276
sg165
g60
sg166
Nsg167
Nsg168
Nsbag2
(g3
g4
Ntp277
Rp278
(dp279
g8
g11
sg146
Nsg147
(dp280
sg149
Nsg26
g29
sg150
(lp281
I11
aI1
asg152
Nsg153
VTanna Debei Eliyahu Rabbah 11:1
p282
sg155
(lp283
sg157
g107
sg158
Nsg159
(lp284
I11
aI1
asg161
Nsg162
g282
sg163
(lp285
sg165
g60
sg166
Nsg167
Nsg168
Nsbag2
(g3
g4
Ntp286
Rp287
(dp288
g8
g11
sg146
Nsg147
(dp289
sg149
Nsg26
g29
sg150
(lp290
I12
aI1
asg152
Nsg153
VTanna Debei Eliyahu Rabbah 12:1
p291
sg155
(lp292
sg157
g107
sg158
Nsg159
(lp293
I12
aI1
asg161
Nsg162
g291
sg163
(lp294
sg165
g60
sg166
Nsg167
Nsg168
Nsbag2
(g3
g4
Ntp295
Rp296
(dp297
g8
g11
sg146
Nsg147
(dp298
sg149
Nsg26
g29
sg150
(lp299
I13
aI1
asg152
Nsg153
VTanna Debei Eliyahu Rabbah 13:1
p300
sg155
(lp301
sg157
g107
sg158
Nsg159
(lp302
I13
aI1
asg161
Nsg162
g300
sg163
(lp303
sg165
g60
sg166
Nsg167
Nsg168
Nsbag2
(g3
g4
Ntp304
Rp305
(dp306
g8
g11
sg146
Nsg147
(dp307
sg149
Nsg26
g29
sg150
(lp308
I14
aI1
asg152
Nsg153
VTanna Debei Eliyahu Rabbah 14:1
p309
sg155
(lp310
sg157
g107
sg158
Nsg159
(lp311
I14
aI1
asg161
Nsg162
g309
sg163
(lp312
sg165
g60
sg166
Nsg167
Nsg168
Nsbag2
(g3
g4
Ntp313
Rp314
(dp315
g8
g11
sg146
Nsg147
(dp316
sg149
Nsg26
g29
sg150
(lp317
I14
aI2
asg152
Nsg153
VTanna Debei Eliyahu Rabbah 14:2
p318
sg155
(lp319
sg157
g107
sg158
Nsg159
(lp320
I14
aI2
asg161
Nsg162
g318
sg163
(lp321
sg165
g60
sg166
Nsg167
Nsg168
Nsbag2
(g3
g4
Ntp322
Rp323
(dp324
g8
g11
sg146
Nsg147
(dp325
sg149
Nsg26
g29
sg150
(lp326
I15
aI1
asg152
Nsg153
VTanna Debei Eliyahu Rabbah 15:1
p327
sg155
(lp328
sg157
g107
sg158
Nsg159
(lp329
I15
aI1
asg161
Nsg162
g327
sg163
(lp330
sg165
g60
sg166
Nsg167
Nsg168
Nsbag2
(g3
g4
Ntp331
Rp332
(dp333
g8
g11
sg146
Nsg147
(dp334
sg149
Nsg26
g29
sg150
(lp335
I15
aI2
asg152
Nsg153
VTanna Debei Eliyahu Rabbah 15:2
p336
sg155
(lp337
sg157
g107
sg158
Nsg159
(lp338
I15
aI2
asg161
Nsg162
g336
sg163
(lp339
sg165
g60
sg166
Nsg167
Nsg168
Nsbag2
(g3
g4
Ntp340
Rp341
(dp342
g8
g11
sg146
Nsg147
(dp343
sg149
Nsg26
g29
sg150
(lp344
I16
aI1
asg152
Nsg153
VTanna Debei Eliyahu Rabbah 16:1
p345
sg155
(lp346
sg157
g107
sg158
Nsg159
(lp347
I16
aI1
asg161
Nsg162
g345
sg163
(lp348
sg165
g60
sg166
Nsg167
Nsg168
Nsbag2
(g3
g4
Ntp349
Rp350
(dp351
g8
g11
sg146
Nsg147
(dp352
sg149
Nsg26
g29
sg150
(lp353
I17
aI1
asg152
Nsg153
VTanna Debei Eliyahu Rabbah 17:1
p354
sg155
(lp355
sg157
g107
sg158
Nsg159
(lp356
I17
aI1
asg161
Nsg162
g354
sg163
(lp357
sg165
g60
sg166
Nsg167
Nsg168
Nsbag2
(g3
g4
Ntp358
Rp359
(dp360
g8
g11
sg146
Nsg147
(dp361
sg149
Nsg26
g29
sg150
(lp362
I18
aI1
asg152
Nsg153
VTanna Debei Eliyahu Rabbah 18:1
p363
sg155
(lp364
sg157
g107
sg158
Nsg159
(lp365
I18
aI1
asg161
Nsg162
g363
sg163
(lp366
sg165
g60
sg166
Nsg167
Nsg168
Nsbag2
(g3
g4
Ntp367
Rp368
(dp369
g8
g11
sg146
Nsg147
(dp370
sg149
Nsg26
g29
sg150
(lp371
I18
aI2
asg152
Nsg153
VTanna Debei Eliyahu Rabbah 18:2
p372
sg155
(lp373
sg157
g107
sg158
Nsg159
(lp374
I18
aI2
asg161
Nsg162
g372
sg163
(lp375
sg165
g60
sg166
Nsg167
Nsg168
Nsbag2
(g3
g4
Ntp376
Rp377
(dp378
g8
g11
sg146
Nsg147
(dp379
sg149
Nsg26
g29
sg150
(lp380
I18
aI3
asg152
Nsg153
VTanna Debei Eliyahu Rabbah 18:3
p381
sg155
(lp382
sg157
g107
sg158
Nsg159
(lp383
I18
aI3
asg161
Nsg162
g381
sg163
(lp384
sg165
g60
sg166
Nsg167
Nsg168
Nsbag2
(g3
g4
Ntp385
Rp386
(dp387
g8
g11
sg146
Nsg147
(dp388
sg149
Nsg26
g29
sg150
(lp389
I18
aI4
asg152
Nsg153
VTanna Debei Eliyahu Rabbah 18:4
p390
sg155
(lp391
sg157
g107
sg158
Nsg159
(lp392
I18
aI4
asg161
Nsg162
g390
sg163
(lp393
sg165
g60
sg166
Nsg167
Nsg168
Nsbag2
(g3
g4
Ntp394
Rp395
(dp396
g8
g11
sg146
Nsg147
(dp397
sg149
Nsg26
g29
sg150
(lp398
I18
aI5
asg152
Nsg153
VTanna Debei Eliyahu Rabbah 18:5
p399
sg155
(lp400
sg157
g107
sg158
Nsg159
(lp401
I18
aI5
asg161
Nsg162
g399
sg163
(lp402
sg165
g60
sg166
Nsg167
Nsg168
Nsbag2
(g3
g4
Ntp403
Rp404
(dp405
g8
g11
sg146
Nsg147
(dp406
sg149
Nsg26
g29
sg150
(lp407
I18
aI6
asg152
Nsg153
VTanna Debei Eliyahu Rabbah 18:6
p408
sg155
(lp409
sg157
g107
sg158
Nsg159
(lp410
I18
aI6
asg161
Nsg162
g408
sg163
(lp411
sg165
g60
sg166
Nsg167
Nsg168
Nsbag2
(g3
g4
Ntp412
Rp413
(dp414
g8
g11
sg146
Nsg147
(dp415
sg149
Nsg26
g29
sg150
(lp416
I18
aI7
asg152
Nsg153
VTanna Debei Eliyahu Rabbah 18:7
p417
sg155
(lp418
sg157
g107
sg158
Nsg159
(lp419
I18
aI7
asg161
Nsg162
g417
sg163
(lp420
sg165
g60
sg166
Nsg167
Nsg168
Nsbag2
(g3
g4
Ntp421
Rp422
(dp423
g8
g11
sg146
Nsg147
(dp424
sg149
Nsg26
g29
sg150
(lp425
I18
aI8
asg152
Nsg153
VTanna Debei Eliyahu Rabbah 18:8
p426
sg155
(lp427
sg157
g107
sg158
Nsg159
(lp428
I18
aI8
asg161
Nsg162
g426
sg163
(lp429
sg165
g60
sg166
Nsg167
Nsg168
Nsbag2
(g3
g4
Ntp430
Rp431
(dp432
g8
g11
sg146
Nsg147
(dp433
sg149
Nsg26
g29
sg150
(lp434
I18
aI9
asg152
Nsg153
VTanna Debei Eliyahu Rabbah 18:9
p435
sg155
(lp436
sg157
g107
sg158
Nsg159
(lp437
I18
aI9
asg161
Nsg162
g435
sg163
(lp438
sg165
g60
sg166
Nsg167
Nsg168
Nsbag2
(g3
g4
Ntp439
Rp440
(dp441
g8
g11
sg146
Nsg147
(dp442
sg149
Nsg26
g29
sg150
(lp443
I18
aI10
asg152
Nsg153
VTanna Debei Eliyahu Rabbah 18:10
p444
sg155
(lp445
sg157
g107
sg158
Nsg159
(lp446
I18
aI10
asg161
Nsg162
g444
sg163
(lp447
sg165
g60
sg166
Nsg167
Nsg168
Nsbag2
(g3
g4
Ntp448
Rp449
(dp450
g8
g11
sg146
Nsg147
(dp451
sg149
Nsg26
g29
sg150
(lp452
I19
aI1
asg152
Nsg153
VTanna Debei Eliyahu Rabbah 19:1
p453
sg155
(lp454
sg157
g107
sg158
Nsg159
(lp455
I19
aI1
asg161
Nsg162
g453
sg163
(lp456
sg165
g60
sg166
Nsg167
Nsg168
Nsbag2
(g3
g4
Ntp457
Rp458
(dp459
g8
g11
sg146
Nsg147
(dp460
sg149
Nsg26
g29
sg150
(lp461
I20
aI1
asg152
Nsg153
VTanna Debei Eliyahu Rabbah 20:1
p462
sg155
(lp463
sg157
g107
sg158
Nsg159
(lp464
I20
aI1
asg161
Nsg162
g462
sg163
(lp465
sg165
g60
sg166
Nsg167
Nsg168
Nsbag2
(g3
g4
Ntp466
Rp467
(dp468
g8
g11
sg146
Nsg147
(dp469
sg149
Nsg26
g29
sg150
(lp470
I20
aI2
asg152
Nsg153
VTanna Debei Eliyahu Rabbah 20:2
p471
sg155
(lp472
sg157
g107
sg158
Nsg159
(lp473
I20
aI2
asg161
Nsg162
g471
sg163
(lp474
sg165
g60
sg166
Nsg167
Nsg168
Nsbag2
(g3
g4
Ntp475
Rp476
(dp477
g8
g11
sg146
Nsg147
(dp478
sg149
Nsg26
g29
sg150
(lp479
I21
aI1
asg152
Nsg153
VTanna Debei Eliyahu Rabbah 21:1
p480
sg155
(lp481
sg157
g107
sg158
Nsg159
(lp482
I21
aI1
asg161
Nsg162
g480
sg163
(lp483
sg165
g60
sg166
Nsg167
Nsg168
Nsbag2
(g3
g4
Ntp484
Rp485
(dp486
g8
g11
sg146
Nsg147
(dp487
sg149
Nsg26
g29
sg150
(lp488
I21
aI2
asg152
Nsg153
VTanna Debei Eliyahu Rabbah 21:2
p489
sg155
(lp490
sg157
g107
sg158
Nsg159
(lp491
I21
aI2
asg161
Nsg162
g489
sg163
(lp492
sg165
g60
sg166
Nsg167
Nsg168
Nsbag2
(g3
g4
Ntp493
Rp494
(dp495
g8
g11
sg146
Nsg147
(dp496
sg149
Nsg26
g29
sg150
(lp497
I22
aI1
asg152
Nsg153
VTanna Debei Eliyahu Rabbah 22:1
p498
sg155
(lp499
sg157
g107
sg158
Nsg159
(lp500
I22
aI1
asg161
Nsg162
g498
sg163
(lp501
sg165
g60
sg166
Nsg167
Nsg168
Nsbag2
(g3
g4
Ntp502
Rp503
(dp504
g8
g11
sg146
Nsg147
(dp505
sg149
Nsg26
g29
sg150
(lp506
I23
aI1
asg152
Nsg153
VTanna Debei Eliyahu Rabbah 23:1
p507
sg155
(lp508
sg157
g107
sg158
Nsg159
(lp509
I23
aI1
asg161
Nsg162
g507
sg163
(lp510
sg165
g60
sg166
Nsg167
Nsg168
Nsbag2
(g3
g4
Ntp511
Rp512
(dp513
g8
g11
sg146
Nsg147
(dp514
sg149
Nsg26
g29
sg150
(lp515
I23
aI2
asg152
Nsg153
VTanna Debei Eliyahu Rabbah 23:2
p516
sg155
(lp517
sg157
g107
sg158
Nsg159
(lp518
I23
aI2
asg161
Nsg162
g516
sg163
(lp519
sg165
g60
sg166
Nsg167
Nsg168
Nsbag2
(g3
g4
Ntp520
Rp521
(dp522
g8
g11
sg146
Nsg147
(dp523
sg149
Nsg26
g29
sg150
(lp524
I24
aI1
asg152
Nsg153
VTanna Debei Eliyahu Rabbah 24:1
p525
sg155
(lp526
sg157
g107
sg158
Nsg159
(lp527
I24
aI1
asg161
Nsg162
g525
sg163
(lp528
sg165
g60
sg166
Nsg167
Nsg168
Nsbag2
(g3
g4
Ntp529
Rp530
(dp531
g8
g11
sg146
Nsg147
(dp532
sg149
Nsg26
g29
sg150
(lp533
I25
aI1
asg152
Nsg153
VTanna Debei Eliyahu Rabbah 25:1
p534
sg155
(lp535
sg157
g107
sg158
Nsg159
(lp536
I25
aI1
asg161
Nsg162
g534
sg163
(lp537
sg165
g60
sg166
Nsg167
Nsg168
Nsbag2
(g3
g4
Ntp538
Rp539
(dp540
g8
g11
sg146
Nsg147
(dp541
sg149
Nsg26
g29
sg150
(lp542
I26
aI1
asg152
Nsg153
VTanna Debei Eliyahu Rabbah 26:1
p543
sg155
(lp544
sg157
g107
sg158
Nsg159
(lp545
I26
aI1
asg161
Nsg162
g543
sg163
(lp546
sg165
g60
sg166
Nsg167
Nsg168
Nsbag2
(g3
g4
Ntp547
Rp548
(dp549
g8
g11
sg146
Nsg147
(dp550
sg149
Nsg26
g29
sg150
(lp551
I26
aI2
asg152
Nsg153
VTanna Debei Eliyahu Rabbah 26:2
p552
sg155
(lp553
sg157
g107
sg158
Nsg159
(lp554
I26
aI2
asg161
Nsg162
g552
sg163
(lp555
sg165
g60
sg166
Nsg167
Nsg168
Nsbag2
(g3
g4
Ntp556
Rp557
(dp558
g8
g11
sg146
Nsg147
(dp559
sg149
Nsg26
g29
sg150
(lp560
I27
aI1
asg152
Nsg153
VTanna Debei Eliyahu Rabbah 27:1
p561
sg155
(lp562
sg157
g107
sg158
Nsg159
(lp563
I27
aI1
asg161
Nsg162
g561
sg163
(lp564
sg165
g60
sg166
Nsg167
Nsg168
Nsbag2
(g3
g4
Ntp565
Rp566
(dp567
g8
g11
sg146
Nsg147
(dp568
sg149
Nsg26
g29
sg150
(lp569
I27
aI2
asg152
Nsg153
VTanna Debei Eliyahu Rabbah 27:2
p570
sg155
(lp571
sg157
g107
sg158
Nsg159
(lp572
I27
aI2
asg161
Nsg162
g570
sg163
(lp573
sg165
g60
sg166
Nsg167
Nsg168
Nsbag2
(g3
g4
Ntp574
Rp575
(dp576
g8
g11
sg146
Nsg147
(dp577
sg149
Nsg26
g29
sg150
(lp578
I28
aI1
asg152
Nsg153
VTanna Debei Eliyahu Rabbah 28:1
p579
sg155
(lp580
sg157
g107
sg158
Nsg159
(lp581
I28
aI1
asg161
Nsg162
g579
sg163
(lp582
sg165
g60
sg166
Nsg167
Nsg168
Nsbag2
(g3
g4
Ntp583
Rp584
(dp585
g8
g11
sg146
Nsg147
(dp586
sg149
Nsg26
g29
sg150
(lp587
I29
aI1
asg152
Nsg153
VTanna Debei Eliyahu Rabbah 29:1
p588
sg155
(lp589
sg157
g107
sg158
Nsg159
(lp590
I29
aI1
asg161
Nsg162
g588
sg163
(lp591
sg165
g60
sg166
Nsg167
Nsg168
Nsbag2
(g3
g4
Ntp592
Rp593
(dp594
g8
g11
sg146
Nsg147
(dp595
sg149
Nsg26
g29
sg150
(lp596
I29
aI2
asg152
Nsg153
VTanna Debei Eliyahu Rabbah 29:2
p597
sg155
(lp598
sg157
g107
sg158
Nsg159
(lp599
I29
aI2
asg161
Nsg162
g597
sg163
(lp600
sg165
g60
sg166
Nsg167
Nsg168
Nsbag2
(g3
g4
Ntp601
Rp602
(dp603
g8
g11
sg146
Nsg147
(dp604
sg149
Nsg26
g29
sg150
(lp605
I30
aI1
asg152
Nsg153
VTanna Debei Eliyahu Rabbah 30:1
p606
sg155
(lp607
sg157
g107
sg158
Nsg159
(lp608
I30
aI1
asg161
Nsg162
g606
sg163
(lp609
sg165
g60
sg166
Nsg167
Nsg168
Nsbag2
(g3
g4
Ntp610
Rp611
(dp612
g8
g11
sg146
Nsg147
(dp613
sg149
Nsg26
g29
sg150
(lp614
I30
aI2
asg152
Nsg153
VTanna Debei Eliyahu Rabbah 30:2
p615
sg155
(lp616
sg157
g107
sg158
Nsg159
(lp617
I30
aI2
asg161
Nsg162
g615
sg163
(lp618
sg165
g60
sg166
Nsg167
Nsg168
Nsbag2
(g3
g4
Ntp619
Rp620
(dp621
g8
g11
sg146
Nsg147
(dp622
sg149
Nsg26
g29
sg150
(lp623
I30
aI3
asg152
Nsg153
VTanna Debei Eliyahu Rabbah 30:3
p624
sg155
(lp625
sg157
g107
sg158
Nsg159
(lp626
I30
aI3
asg161
Nsg162
g624
sg163
(lp627
sg165
g60
sg166
Nsg167
Nsg168
Nsbag2
(g3
g4
Ntp628
Rp629
(dp630
g8
g11
sg146
Nsg147
(dp631
sg149
Nsg26
g29
sg150
(lp632
I30
aI4
asg152
Nsg153
VTanna Debei Eliyahu Rabbah 30:4
p633
sg155
(lp634
sg157
g107
sg158
Nsg159
(lp635
I30
aI4
asg161
Nsg162
g633
sg163
(lp636
sg165
g60
sg166
Nsg167
Nsg168
Nsbag2
(g3
g4
Ntp637
Rp638
(dp639
g8
g11
sg146
Nsg147
(dp640
sg149
Nsg26
g29
sg150
(lp641
I30
aI5
asg152
Nsg153
VTanna Debei Eliyahu Rabbah 30:5
p642
sg155
(lp643
sg157
g107
sg158
Nsg159
(lp644
I30
aI5
asg161
Nsg162
g642
sg163
(lp645
sg165
g60
sg166
Nsg167
Nsg168
Nsbag2
(g3
g4
Ntp646
Rp647
(dp648
g8
g11
sg146
Nsg147
(dp649
sg149
Nsg26
g29
sg150
(lp650
I31
aI1
asg152
Nsg153
VTanna Debei Eliyahu Rabbah 31:1
p651
sg155
(lp652
sg157
g107
sg158
Nsg159
(lp653
I31
aI1
asg161
Nsg162
g651
sg163
(lp654
sg165
g60
sg166
Nsg167
Nsg168
Nsbag2
(g3
g4
Ntp655
Rp656
(dp657
g8
g11
sg146
Nsg147
(dp658
sg149
Nsg26
g29
sg150
(lp659
I31
aI2
asg152
Nsg153
VTanna Debei Eliyahu Rabbah 31:2
p660
sg155
(lp661
sg157
g107
sg158
Nsg159
(lp662
I31
aI2
asg161
Nsg162
g660
sg163
(lp663
sg165
g60
sg166
Nsg167
Nsg168
Nsbag2
(g3
g4
Ntp664
Rp665
(dp666
g8
g11
sg146
Nsg147
(dp667
sg149
Nsg26
g29
sg150
(lp668
I31
aI3
asg152
Nsg153
VTanna Debei Eliyahu Rabbah 31:3
p669
sg155
(lp670
sg157
g107
sg158
Nsg159
(lp671
I31
aI3
asg161
Nsg162
g669
sg163
(lp672
sg165
g60
sg166
Nsg167
Nsg168
Nsbatp673
.