((lp0
I0
aI45
aI59
aI85
aI123
aI171
aI208
aI255
aI308
aI357
aI472
aI511
aI540
aI571
aI588
aI614
aI632
aI646
aI711
aI729
aI788
aI807
aI829
aI845
aI869
aI924
aI948
aI966
aI1000
aI1142
aI1177
aI1245
aI1305
aI1329
aI1448
aI1485
aI1567
aI1591
aI1661
aI1692
aI1736
aI1764
aI1786
aI1804
aI1834
aI1870
aI1911
aI1951
aI1969
aI2019
aI2048
aI2072
aI2179
aI2208
aI2266
aI2284
aI2321
aI2342
aI2392
aI2436
aI2453
aI2470
aI2512
aI2545
aI2584
aI2650
aI2671
aI2799
aI2874
aI2899
aI2932
aI2956
aI3058
aI3128
aI3151
aI3192
aI3211
aI3227
aI3244
aI3293
aI3332
aI3348
aI3381
aI3398
aI3440
aI3464
aI3514
aI3566
aI3605
aI3678
aI3780
aI3829
aI3869
aI3910
aI3946
aI4001
aI4038
aI4086
aI4103
aI4140
aI4185
aI4216
aI4301
aI4317
aI4397
aI4521
aI4558
aI4636
aI4647
aI4668
aI4705
aI4725
aI4739
aI4779
aI4867
aI4895
aI4918
aI4970
aI5048
aI5157
aI5197
aI5237
aI5268
aI5294
aI5387
aI5419
aI5447
aI5471
aI5516
aI5560
aI5601
aI5664
aI5701
aI5736
aI5760
aI5790
aI5822
aI5870
aI5962
aI5989
aI6041
aI6102
aI6115
aI6182
aI6200
aI6212
aI6236
aI6325
aI6398
aI6521
aI6626
a(lp1
ccopy_reg
_reconstructor
p2
(csefaria.model.text
Ref
p3
c__builtin__
object
p4
Ntp5
Rp6
(dp7
S'index_node'
p8
g2
(csefaria.model.schema
JaggedArrayNode
p9
g4
Ntp10
Rp11
(dp12
S'_address'
p13
(lp14
VTosefta Demai
p15
asS'_full_titles'
p16
(dp17
sVnodeType
p18
VJaggedArrayNode
p19
sS'parent'
p20
NsVaddressTypes
p21
(lp22
VInteger
p23
aVInteger
p24
asS'default'
p25
I00
sS'index'
p26
g2
(csefaria.model.text
Index
p27
g4
Ntp28
Rp29
(dp30
S'struct_objs'
p31
(dp32
sS'_id'
p33
g2
(cbson.objectid
ObjectId
p34
g4
Ntp35
Rp36
S'Q\xd1\x8f\xb8\xed\xba\xb4C\xa0\xc1\x1e\xfa'
p37
bsS'pkeys_orig_values'
p38
(dp39
S'title'
p40
VTosefta Demai
p41
ssS'pubDate'
p42
V1521
p43
sS'transliteratedTitle'
p44
VTosefta Demai
p45
sS'pubPlace'
p46
VVenice
p47
sS'compPlace'
p48
VTalmudic Israel
p49
sS'enDesc'
p50
VThe Tosefta (Supplement, addition") is a compilation of the Jewish oral law. Opinions differ widely as to when the Tosefta was redacted and how it relates to the Mishnah. However it closely corresponds to the Mishnah in structure and style, with the same divisions for sedarim ("orders") and masekhot ("tractates"). In many ways, the Tosefta acts as a supplement to the Mishnah. It is mainly written in Mishnaic Hebrew, with some Aramaic. Demai (Doubtful Produce) belongs to the first order, Zera'im (seeds) and discusses various cases in which it is not certain whether the priestly donations have been taken from produce. It consists of eight chapters.
p51
sS'order'
p52
(lp53
I3
asS'era'
p54
VT
p55
sS'compDate'
p56
V210
p57
sS'nodes'
p58
g11
sS'errorMargin'
p59
V20
p60
sS'_title'
p61
g41
sS'categories'
p62
(lp63
VTosefta
p64
aVSeder Zeraim
p65
asS'schema'
p66
(dp67
g18
g19
sg21
g22
sVlengths
p68
(lp69
I8
asVdepth
p70
I2
sVtitles
p71
(lp72
(dp73
Vlang
p74
Ven
p75
sVtext
p76
VTosefta Dmai
p77
sa(dp78
Vlang
p79
Ven
p80
sVtext
p81
VT. Demai
p82
sa(dp83
Vlang
p84
Ven
p85
sVtext
p86
VTos. Demai
p87
sa(dp88
Vlang
p89
Ven
p90
sVtext
p91
VTos. Dmai
p92
sa(dp93
Vlang
p94
Vhe
p95
sVtext
p96
V\u05ea\u05d5\u05e1\u05e4\u05ea\u05d0 \u05d3\u05de\u05d0\u05d9
p97
sVprimary
p98
I01
sa(dp99
Vlang
p100
Ven
p101
sVtext
p102
VTosefta Demai
p103
sVprimary
p104
I01
sasVkey
p105
g15
sVsectionNames
p106
(lp107
VChapter
p108
aVTosefta
p109
assbsS'_primary_title'
p110
(dp111
sS'title_group'
p112
g2
(csefaria.model.schema
TitleGroup
p113
g4
Ntp114
Rp115
(dp116
g110
(dp117
S'en'
p118
g103
ssS'titles'
p119
g72
sbsS'_addressTypes'
p120
(lp121
g2
(csefaria.model.schema
AddressInteger
p122
g4
Ntp123
Rp124
(dp125
S'length'
p126
I8
sg52
I0
sbag2
(g122
g4
Ntp127
Rp128
(dp129
g126
Nsg52
I1
sbasS'sharedTitle'
p130
Nsg68
g69
sg70
I2
sS'_full_title'
p131
(dp132
g118
g103
ssS'key'
p133
g15
sS'checkFirst'
p134
NsS'_regexes'
p135
(dp136
sS'_leaf_nodes'
p137
(lp138
sg106
g107
sS'children'
p139
(lp140
sbsS'_range_index'
p141
NsS'_context'
p142
(dp143
sS'_padded'
p144
Nsg26
g29
sS'sections'
p145
(lp146
I1
aI1
asS'_first_spanned_ref'
p147
NsS'tref'
p148
VTosefta Demai 1:1
p149
sS'_spanned_refs'
p150
(lp151
sS'book'
p152
g103
sS'_range_depth'
p153
NsS'toSections'
p154
(lp155
I1
aI1
asS'_url'
p156
NsS'_normal'
p157
g149
sS'_ranged_refs'
p158
(lp159
sS'type'
p160
g64
sS'_prev'
p161
NsS'_he_normal'
p162
NsS'_next'
p163
Nsbag2
(g3
g4
Ntp164
Rp165
(dp166
g8
g11
sg141
Nsg142
(dp167
sg144
Nsg26
g29
sg145
(lp168
I1
aI2
asg147
Nsg148
VTosefta Demai 1:2
p169
sg150
(lp170
sg152
g103
sg153
Nsg154
(lp171
I1
aI2
asg156
Nsg157
g169
sg158
(lp172
sg160
g64
sg161
Nsg162
Nsg163
Nsbag2
(g3
g4
Ntp173
Rp174
(dp175
g8
g11
sg141
Nsg142
(dp176
sg144
Nsg26
g29
sg145
(lp177
I1
aI3
asg147
Nsg148
VTosefta Demai 1:3
p178
sg150
(lp179
sg152
g103
sg153
Nsg154
(lp180
I1
aI3
asg156
Nsg157
g178
sg158
(lp181
sg160
g64
sg161
Nsg162
Nsg163
Nsbag2
(g3
g4
Ntp182
Rp183
(dp184
g8
g11
sg141
Nsg142
(dp185
sg144
Nsg26
g29
sg145
(lp186
I1
aI4
asg147
Nsg148
VTosefta Demai 1:4
p187
sg150
(lp188
sg152
g103
sg153
Nsg154
(lp189
I1
aI4
asg156
Nsg157
g187
sg158
(lp190
sg160
g64
sg161
Nsg162
Nsg163
Nsbag2
(g3
g4
Ntp191
Rp192
(dp193
g8
g11
sg141
Nsg142
(dp194
sg144
Nsg26
g29
sg145
(lp195
I1
aI5
asg147
Nsg148
VTosefta Demai 1:5
p196
sg150
(lp197
sg152
g103
sg153
Nsg154
(lp198
I1
aI5
asg156
Nsg157
g196
sg158
(lp199
sg160
g64
sg161
Nsg162
Nsg163
Nsbag2
(g3
g4
Ntp200
Rp201
(dp202
g8
g11
sg141
Nsg142
(dp203
sg144
Nsg26
g29
sg145
(lp204
I1
aI6
asg147
Nsg148
VTosefta Demai 1:6
p205
sg150
(lp206
sg152
g103
sg153
Nsg154
(lp207
I1
aI6
asg156
Nsg157
g205
sg158
(lp208
sg160
g64
sg161
Nsg162
Nsg163
Nsbag2
(g3
g4
Ntp209
Rp210
(dp211
g8
g11
sg141
Nsg142
(dp212
sg144
Nsg26
g29
sg145
(lp213
I1
aI7
asg147
Nsg148
VTosefta Demai 1:7
p214
sg150
(lp215
sg152
g103
sg153
Nsg154
(lp216
I1
aI7
asg156
Nsg157
g214
sg158
(lp217
sg160
g64
sg161
Nsg162
Nsg163
Nsbag2
(g3
g4
Ntp218
Rp219
(dp220
g8
g11
sg141
Nsg142
(dp221
sg144
Nsg26
g29
sg145
(lp222
I1
aI8
asg147
Nsg148
VTosefta Demai 1:8
p223
sg150
(lp224
sg152
g103
sg153
Nsg154
(lp225
I1
aI8
asg156
Nsg157
g223
sg158
(lp226
sg160
g64
sg161
Nsg162
Nsg163
Nsbag2
(g3
g4
Ntp227
Rp228
(dp229
g8
g11
sg141
Nsg142
(dp230
sg144
Nsg26
g29
sg145
(lp231
I1
aI9
asg147
Nsg148
VTosefta Demai 1:9
p232
sg150
(lp233
sg152
g103
sg153
Nsg154
(lp234
I1
aI9
asg156
Nsg157
g232
sg158
(lp235
sg160
g64
sg161
Nsg162
Nsg163
Nsbag2
(g3
g4
Ntp236
Rp237
(dp238
g8
g11
sg141
Nsg142
(dp239
sg144
Nsg26
g29
sg145
(lp240
I1
aI10
asg147
Nsg148
VTosefta Demai 1:10
p241
sg150
(lp242
sg152
g103
sg153
Nsg154
(lp243
I1
aI10
asg156
Nsg157
g241
sg158
(lp244
sg160
g64
sg161
Nsg162
Nsg163
Nsbag2
(g3
g4
Ntp245
Rp246
(dp247
g8
g11
sg141
Nsg142
(dp248
sg144
Nsg26
g29
sg145
(lp249
I1
aI11
asg147
Nsg148
VTosefta Demai 1:11
p250
sg150
(lp251
sg152
g103
sg153
Nsg154
(lp252
I1
aI11
asg156
Nsg157
g250
sg158
(lp253
sg160
g64
sg161
Nsg162
Nsg163
Nsbag2
(g3
g4
Ntp254
Rp255
(dp256
g8
g11
sg141
Nsg142
(dp257
sg144
Nsg26
g29
sg145
(lp258
I1
aI12
asg147
Nsg148
VTosefta Demai 1:12
p259
sg150
(lp260
sg152
g103
sg153
Nsg154
(lp261
I1
aI12
asg156
Nsg157
g259
sg158
(lp262
sg160
g64
sg161
Nsg162
Nsg163
Nsbag2
(g3
g4
Ntp263
Rp264
(dp265
g8
g11
sg141
Nsg142
(dp266
sg144
Nsg26
g29
sg145
(lp267
I1
aI13
asg147
Nsg148
VTosefta Demai 1:13
p268
sg150
(lp269
sg152
g103
sg153
Nsg154
(lp270
I1
aI13
asg156
Nsg157
g268
sg158
(lp271
sg160
g64
sg161
Nsg162
Nsg163
Nsbag2
(g3
g4
Ntp272
Rp273
(dp274
g8
g11
sg141
Nsg142
(dp275
sg144
Nsg26
g29
sg145
(lp276
I1
aI14
asg147
Nsg148
VTosefta Demai 1:14
p277
sg150
(lp278
sg152
g103
sg153
Nsg154
(lp279
I1
aI14
asg156
Nsg157
g277
sg158
(lp280
sg160
g64
sg161
Nsg162
Nsg163
Nsbag2
(g3
g4
Ntp281
Rp282
(dp283
g8
g11
sg141
Nsg142
(dp284
sg144
Nsg26
g29
sg145
(lp285
I1
aI15
asg147
Nsg148
VTosefta Demai 1:15
p286
sg150
(lp287
sg152
g103
sg153
Nsg154
(lp288
I1
aI15
asg156
Nsg157
g286
sg158
(lp289
sg160
g64
sg161
Nsg162
Nsg163
Nsbag2
(g3
g4
Ntp290
Rp291
(dp292
g8
g11
sg141
Nsg142
(dp293
sg144
Nsg26
g29
sg145
(lp294
I1
aI16
asg147
Nsg148
VTosefta Demai 1:16
p295
sg150
(lp296
sg152
g103
sg153
Nsg154
(lp297
I1
aI16
asg156
Nsg157
g295
sg158
(lp298
sg160
g64
sg161
Nsg162
Nsg163
Nsbag2
(g3
g4
Ntp299
Rp300
(dp301
g8
g11
sg141
Nsg142
(dp302
sg144
Nsg26
g29
sg145
(lp303
I1
aI17
asg147
Nsg148
VTosefta Demai 1:17
p304
sg150
(lp305
sg152
g103
sg153
Nsg154
(lp306
I1
aI17
asg156
Nsg157
g304
sg158
(lp307
sg160
g64
sg161
Nsg162
Nsg163
Nsbag2
(g3
g4
Ntp308
Rp309
(dp310
g8
g11
sg141
Nsg142
(dp311
sg144
Nsg26
g29
sg145
(lp312
I1
aI18
asg147
Nsg148
VTosefta Demai 1:18
p313
sg150
(lp314
sg152
g103
sg153
Nsg154
(lp315
I1
aI18
asg156
Nsg157
g313
sg158
(lp316
sg160
g64
sg161
Nsg162
Nsg163
Nsbag2
(g3
g4
Ntp317
Rp318
(dp319
g8
g11
sg141
Nsg142
(dp320
sg144
Nsg26
g29
sg145
(lp321
I1
aI19
asg147
Nsg148
VTosefta Demai 1:19
p322
sg150
(lp323
sg152
g103
sg153
Nsg154
(lp324
I1
aI19
asg156
Nsg157
g322
sg158
(lp325
sg160
g64
sg161
Nsg162
Nsg163
Nsbag2
(g3
g4
Ntp326
Rp327
(dp328
g8
g11
sg141
Nsg142
(dp329
sg144
Nsg26
g29
sg145
(lp330
I1
aI20
asg147
Nsg148
VTosefta Demai 1:20
p331
sg150
(lp332
sg152
g103
sg153
Nsg154
(lp333
I1
aI20
asg156
Nsg157
g331
sg158
(lp334
sg160
g64
sg161
Nsg162
Nsg163
Nsbag2
(g3
g4
Ntp335
Rp336
(dp337
g8
g11
sg141
Nsg142
(dp338
sg144
Nsg26
g29
sg145
(lp339
I1
aI21
asg147
Nsg148
VTosefta Demai 1:21
p340
sg150
(lp341
sg152
g103
sg153
Nsg154
(lp342
I1
aI21
asg156
Nsg157
g340
sg158
(lp343
sg160
g64
sg161
Nsg162
Nsg163
Nsbag2
(g3
g4
Ntp344
Rp345
(dp346
g8
g11
sg141
Nsg142
(dp347
sg144
Nsg26
g29
sg145
(lp348
I1
aI22
asg147
Nsg148
VTosefta Demai 1:22
p349
sg150
(lp350
sg152
g103
sg153
Nsg154
(lp351
I1
aI22
asg156
Nsg157
g349
sg158
(lp352
sg160
g64
sg161
Nsg162
Nsg163
Nsbag2
(g3
g4
Ntp353
Rp354
(dp355
g8
g11
sg141
Nsg142
(dp356
sg144
Nsg26
g29
sg145
(lp357
I2
aI1
asg147
Nsg148
VTosefta Demai 2:1
p358
sg150
(lp359
sg152
g103
sg153
Nsg154
(lp360
I2
aI1
asg156
Nsg157
g358
sg158
(lp361
sg160
g64
sg161
Nsg162
Nsg163
Nsbag2
(g3
g4
Ntp362
Rp363
(dp364
g8
g11
sg141
Nsg142
(dp365
sg144
Nsg26
g29
sg145
(lp366
I2
aI2
asg147
Nsg148
VTosefta Demai 2:2
p367
sg150
(lp368
sg152
g103
sg153
Nsg154
(lp369
I2
aI2
asg156
Nsg157
g367
sg158
(lp370
sg160
g64
sg161
Nsg162
Nsg163
Nsbag2
(g3
g4
Ntp371
Rp372
(dp373
g8
g11
sg141
Nsg142
(dp374
sg144
Nsg26
g29
sg145
(lp375
I2
aI3
asg147
Nsg148
VTosefta Demai 2:3
p376
sg150
(lp377
sg152
g103
sg153
Nsg154
(lp378
I2
aI3
asg156
Nsg157
g376
sg158
(lp379
sg160
g64
sg161
Nsg162
Nsg163
Nsbag2
(g3
g4
Ntp380
Rp381
(dp382
g8
g11
sg141
Nsg142
(dp383
sg144
Nsg26
g29
sg145
(lp384
I2
aI4
asg147
Nsg148
VTosefta Demai 2:4
p385
sg150
(lp386
sg152
g103
sg153
Nsg154
(lp387
I2
aI4
asg156
Nsg157
g385
sg158
(lp388
sg160
g64
sg161
Nsg162
Nsg163
Nsbag2
(g3
g4
Ntp389
Rp390
(dp391
g8
g11
sg141
Nsg142
(dp392
sg144
Nsg26
g29
sg145
(lp393
I2
aI5
asg147
Nsg148
VTosefta Demai 2:5
p394
sg150
(lp395
sg152
g103
sg153
Nsg154
(lp396
I2
aI5
asg156
Nsg157
g394
sg158
(lp397
sg160
g64
sg161
Nsg162
Nsg163
Nsbag2
(g3
g4
Ntp398
Rp399
(dp400
g8
g11
sg141
Nsg142
(dp401
sg144
Nsg26
g29
sg145
(lp402
I2
aI6
asg147
Nsg148
VTosefta Demai 2:6
p403
sg150
(lp404
sg152
g103
sg153
Nsg154
(lp405
I2
aI6
asg156
Nsg157
g403
sg158
(lp406
sg160
g64
sg161
Nsg162
Nsg163
Nsbag2
(g3
g4
Ntp407
Rp408
(dp409
g8
g11
sg141
Nsg142
(dp410
sg144
Nsg26
g29
sg145
(lp411
I2
aI7
asg147
Nsg148
VTosefta Demai 2:7
p412
sg150
(lp413
sg152
g103
sg153
Nsg154
(lp414
I2
aI7
asg156
Nsg157
g412
sg158
(lp415
sg160
g64
sg161
Nsg162
Nsg163
Nsbag2
(g3
g4
Ntp416
Rp417
(dp418
g8
g11
sg141
Nsg142
(dp419
sg144
Nsg26
g29
sg145
(lp420
I2
aI8
asg147
Nsg148
VTosefta Demai 2:8
p421
sg150
(lp422
sg152
g103
sg153
Nsg154
(lp423
I2
aI8
asg156
Nsg157
g421
sg158
(lp424
sg160
g64
sg161
Nsg162
Nsg163
Nsbag2
(g3
g4
Ntp425
Rp426
(dp427
g8
g11
sg141
Nsg142
(dp428
sg144
Nsg26
g29
sg145
(lp429
I2
aI9
asg147
Nsg148
VTosefta Demai 2:9
p430
sg150
(lp431
sg152
g103
sg153
Nsg154
(lp432
I2
aI9
asg156
Nsg157
g430
sg158
(lp433
sg160
g64
sg161
Nsg162
Nsg163
Nsbag2
(g3
g4
Ntp434
Rp435
(dp436
g8
g11
sg141
Nsg142
(dp437
sg144
Nsg26
g29
sg145
(lp438
I2
aI10
asg147
Nsg148
VTosefta Demai 2:10
p439
sg150
(lp440
sg152
g103
sg153
Nsg154
(lp441
I2
aI10
asg156
Nsg157
g439
sg158
(lp442
sg160
g64
sg161
Nsg162
Nsg163
Nsbag2
(g3
g4
Ntp443
Rp444
(dp445
g8
g11
sg141
Nsg142
(dp446
sg144
Nsg26
g29
sg145
(lp447
I2
aI11
asg147
Nsg148
VTosefta Demai 2:11
p448
sg150
(lp449
sg152
g103
sg153
Nsg154
(lp450
I2
aI11
asg156
Nsg157
g448
sg158
(lp451
sg160
g64
sg161
Nsg162
Nsg163
Nsbag2
(g3
g4
Ntp452
Rp453
(dp454
g8
g11
sg141
Nsg142
(dp455
sg144
Nsg26
g29
sg145
(lp456
I2
aI12
asg147
Nsg148
VTosefta Demai 2:12
p457
sg150
(lp458
sg152
g103
sg153
Nsg154
(lp459
I2
aI12
asg156
Nsg157
g457
sg158
(lp460
sg160
g64
sg161
Nsg162
Nsg163
Nsbag2
(g3
g4
Ntp461
Rp462
(dp463
g8
g11
sg141
Nsg142
(dp464
sg144
Nsg26
g29
sg145
(lp465
I2
aI13
asg147
Nsg148
VTosefta Demai 2:13
p466
sg150
(lp467
sg152
g103
sg153
Nsg154
(lp468
I2
aI13
asg156
Nsg157
g466
sg158
(lp469
sg160
g64
sg161
Nsg162
Nsg163
Nsbag2
(g3
g4
Ntp470
Rp471
(dp472
g8
g11
sg141
Nsg142
(dp473
sg144
Nsg26
g29
sg145
(lp474
I2
aI14
asg147
Nsg148
VTosefta Demai 2:14
p475
sg150
(lp476
sg152
g103
sg153
Nsg154
(lp477
I2
aI14
asg156
Nsg157
g475
sg158
(lp478
sg160
g64
sg161
Nsg162
Nsg163
Nsbag2
(g3
g4
Ntp479
Rp480
(dp481
g8
g11
sg141
Nsg142
(dp482
sg144
Nsg26
g29
sg145
(lp483
I2
aI15
asg147
Nsg148
VTosefta Demai 2:15
p484
sg150
(lp485
sg152
g103
sg153
Nsg154
(lp486
I2
aI15
asg156
Nsg157
g484
sg158
(lp487
sg160
g64
sg161
Nsg162
Nsg163
Nsbag2
(g3
g4
Ntp488
Rp489
(dp490
g8
g11
sg141
Nsg142
(dp491
sg144
Nsg26
g29
sg145
(lp492
I3
aI1
asg147
Nsg148
VTosefta Demai 3:1
p493
sg150
(lp494
sg152
g103
sg153
Nsg154
(lp495
I3
aI1
asg156
Nsg157
g493
sg158
(lp496
sg160
g64
sg161
Nsg162
Nsg163
Nsbag2
(g3
g4
Ntp497
Rp498
(dp499
g8
g11
sg141
Nsg142
(dp500
sg144
Nsg26
g29
sg145
(lp501
I3
aI2
asg147
Nsg148
VTosefta Demai 3:2
p502
sg150
(lp503
sg152
g103
sg153
Nsg154
(lp504
I3
aI2
asg156
Nsg157
g502
sg158
(lp505
sg160
g64
sg161
Nsg162
Nsg163
Nsbag2
(g3
g4
Ntp506
Rp507
(dp508
g8
g11
sg141
Nsg142
(dp509
sg144
Nsg26
g29
sg145
(lp510
I3
aI3
asg147
Nsg148
VTosefta Demai 3:3
p511
sg150
(lp512
sg152
g103
sg153
Nsg154
(lp513
I3
aI3
asg156
Nsg157
g511
sg158
(lp514
sg160
g64
sg161
Nsg162
Nsg163
Nsbag2
(g3
g4
Ntp515
Rp516
(dp517
g8
g11
sg141
Nsg142
(dp518
sg144
Nsg26
g29
sg145
(lp519
I3
aI4
asg147
Nsg148
VTosefta Demai 3:4
p520
sg150
(lp521
sg152
g103
sg153
Nsg154
(lp522
I3
aI4
asg156
Nsg157
g520
sg158
(lp523
sg160
g64
sg161
Nsg162
Nsg163
Nsbag2
(g3
g4
Ntp524
Rp525
(dp526
g8
g11
sg141
Nsg142
(dp527
sg144
Nsg26
g29
sg145
(lp528
I3
aI5
asg147
Nsg148
VTosefta Demai 3:5
p529
sg150
(lp530
sg152
g103
sg153
Nsg154
(lp531
I3
aI5
asg156
Nsg157
g529
sg158
(lp532
sg160
g64
sg161
Nsg162
Nsg163
Nsbag2
(g3
g4
Ntp533
Rp534
(dp535
g8
g11
sg141
Nsg142
(dp536
sg144
Nsg26
g29
sg145
(lp537
I3
aI6
asg147
Nsg148
VTosefta Demai 3:6
p538
sg150
(lp539
sg152
g103
sg153
Nsg154
(lp540
I3
aI6
asg156
Nsg157
g538
sg158
(lp541
sg160
g64
sg161
Nsg162
Nsg163
Nsbag2
(g3
g4
Ntp542
Rp543
(dp544
g8
g11
sg141
Nsg142
(dp545
sg144
Nsg26
g29
sg145
(lp546
I3
aI7
asg147
Nsg148
VTosefta Demai 3:7
p547
sg150
(lp548
sg152
g103
sg153
Nsg154
(lp549
I3
aI7
asg156
Nsg157
g547
sg158
(lp550
sg160
g64
sg161
Nsg162
Nsg163
Nsbag2
(g3
g4
Ntp551
Rp552
(dp553
g8
g11
sg141
Nsg142
(dp554
sg144
Nsg26
g29
sg145
(lp555
I3
aI8
asg147
Nsg148
VTosefta Demai 3:8
p556
sg150
(lp557
sg152
g103
sg153
Nsg154
(lp558
I3
aI8
asg156
Nsg157
g556
sg158
(lp559
sg160
g64
sg161
Nsg162
Nsg163
Nsbag2
(g3
g4
Ntp560
Rp561
(dp562
g8
g11
sg141
Nsg142
(dp563
sg144
Nsg26
g29
sg145
(lp564
I3
aI9
asg147
Nsg148
VTosefta Demai 3:9
p565
sg150
(lp566
sg152
g103
sg153
Nsg154
(lp567
I3
aI9
asg156
Nsg157
g565
sg158
(lp568
sg160
g64
sg161
Nsg162
Nsg163
Nsbag2
(g3
g4
Ntp569
Rp570
(dp571
g8
g11
sg141
Nsg142
(dp572
sg144
Nsg26
g29
sg145
(lp573
I3
aI10
asg147
Nsg148
VTosefta Demai 3:10
p574
sg150
(lp575
sg152
g103
sg153
Nsg154
(lp576
I3
aI10
asg156
Nsg157
g574
sg158
(lp577
sg160
g64
sg161
Nsg162
Nsg163
Nsbag2
(g3
g4
Ntp578
Rp579
(dp580
g8
g11
sg141
Nsg142
(dp581
sg144
Nsg26
g29
sg145
(lp582
I3
aI11
asg147
Nsg148
VTosefta Demai 3:11
p583
sg150
(lp584
sg152
g103
sg153
Nsg154
(lp585
I3
aI11
asg156
Nsg157
g583
sg158
(lp586
sg160
g64
sg161
Nsg162
Nsg163
Nsbag2
(g3
g4
Ntp587
Rp588
(dp589
g8
g11
sg141
Nsg142
(dp590
sg144
Nsg26
g29
sg145
(lp591
I3
aI12
asg147
Nsg148
VTosefta Demai 3:12
p592
sg150
(lp593
sg152
g103
sg153
Nsg154
(lp594
I3
aI12
asg156
Nsg157
g592
sg158
(lp595
sg160
g64
sg161
Nsg162
Nsg163
Nsbag2
(g3
g4
Ntp596
Rp597
(dp598
g8
g11
sg141
Nsg142
(dp599
sg144
Nsg26
g29
sg145
(lp600
I3
aI13
asg147
Nsg148
VTosefta Demai 3:13
p601
sg150
(lp602
sg152
g103
sg153
Nsg154
(lp603
I3
aI13
asg156
Nsg157
g601
sg158
(lp604
sg160
g64
sg161
Nsg162
Nsg163
Nsbag2
(g3
g4
Ntp605
Rp606
(dp607
g8
g11
sg141
Nsg142
(dp608
sg144
Nsg26
g29
sg145
(lp609
I3
aI14
asg147
Nsg148
VTosefta Demai 3:14
p610
sg150
(lp611
sg152
g103
sg153
Nsg154
(lp612
I3
aI14
asg156
Nsg157
g610
sg158
(lp613
sg160
g64
sg161
Nsg162
Nsg163
Nsbag2
(g3
g4
Ntp614
Rp615
(dp616
g8
g11
sg141
Nsg142
(dp617
sg144
Nsg26
g29
sg145
(lp618
I3
aI15
asg147
Nsg148
VTosefta Demai 3:15
p619
sg150
(lp620
sg152
g103
sg153
Nsg154
(lp621
I3
aI15
asg156
Nsg157
g619
sg158
(lp622
sg160
g64
sg161
Nsg162
Nsg163
Nsbag2
(g3
g4
Ntp623
Rp624
(dp625
g8
g11
sg141
Nsg142
(dp626
sg144
Nsg26
g29
sg145
(lp627
I3
aI16
asg147
Nsg148
VTosefta Demai 3:16
p628
sg150
(lp629
sg152
g103
sg153
Nsg154
(lp630
I3
aI16
asg156
Nsg157
g628
sg158
(lp631
sg160
g64
sg161
Nsg162
Nsg163
Nsbag2
(g3
g4
Ntp632
Rp633
(dp634
g8
g11
sg141
Nsg142
(dp635
sg144
Nsg26
g29
sg145
(lp636
I3
aI17
asg147
Nsg148
VTosefta Demai 3:17
p637
sg150
(lp638
sg152
g103
sg153
Nsg154
(lp639
I3
aI17
asg156
Nsg157
g637
sg158
(lp640
sg160
g64
sg161
Nsg162
Nsg163
Nsbag2
(g3
g4
Ntp641
Rp642
(dp643
g8
g11
sg141
Nsg142
(dp644
sg144
Nsg26
g29
sg145
(lp645
I3
aI18
asg147
Nsg148
VTosefta Demai 3:18
p646
sg150
(lp647
sg152
g103
sg153
Nsg154
(lp648
I3
aI18
asg156
Nsg157
g646
sg158
(lp649
sg160
g64
sg161
Nsg162
Nsg163
Nsbag2
(g3
g4
Ntp650
Rp651
(dp652
g8
g11
sg141
Nsg142
(dp653
sg144
Nsg26
g29
sg145
(lp654
I3
aI19
asg147
Nsg148
VTosefta Demai 3:19
p655
sg150
(lp656
sg152
g103
sg153
Nsg154
(lp657
I3
aI19
asg156
Nsg157
g655
sg158
(lp658
sg160
g64
sg161
Nsg162
Nsg163
Nsbag2
(g3
g4
Ntp659
Rp660
(dp661
g8
g11
sg141
Nsg142
(dp662
sg144
Nsg26
g29
sg145
(lp663
I3
aI20
asg147
Nsg148
VTosefta Demai 3:20
p664
sg150
(lp665
sg152
g103
sg153
Nsg154
(lp666
I3
aI20
asg156
Nsg157
g664
sg158
(lp667
sg160
g64
sg161
Nsg162
Nsg163
Nsbag2
(g3
g4
Ntp668
Rp669
(dp670
g8
g11
sg141
Nsg142
(dp671
sg144
Nsg26
g29
sg145
(lp672
I3
aI21
asg147
Nsg148
VTosefta Demai 3:21
p673
sg150
(lp674
sg152
g103
sg153
Nsg154
(lp675
I3
aI21
asg156
Nsg157
g673
sg158
(lp676
sg160
g64
sg161
Nsg162
Nsg163
Nsbag2
(g3
g4
Ntp677
Rp678
(dp679
g8
g11
sg141
Nsg142
(dp680
sg144
Nsg26
g29
sg145
(lp681
I4
aI1
asg147
Nsg148
VTosefta Demai 4:1
p682
sg150
(lp683
sg152
g103
sg153
Nsg154
(lp684
I4
aI1
asg156
Nsg157
g682
sg158
(lp685
sg160
g64
sg161
Nsg162
Nsg163
Nsbag2
(g3
g4
Ntp686
Rp687
(dp688
g8
g11
sg141
Nsg142
(dp689
sg144
Nsg26
g29
sg145
(lp690
I4
aI2
asg147
Nsg148
VTosefta Demai 4:2
p691
sg150
(lp692
sg152
g103
sg153
Nsg154
(lp693
I4
aI2
asg156
Nsg157
g691
sg158
(lp694
sg160
g64
sg161
Nsg162
Nsg163
Nsbag2
(g3
g4
Ntp695
Rp696
(dp697
g8
g11
sg141
Nsg142
(dp698
sg144
Nsg26
g29
sg145
(lp699
I4
aI3
asg147
Nsg148
VTosefta Demai 4:3
p700
sg150
(lp701
sg152
g103
sg153
Nsg154
(lp702
I4
aI3
asg156
Nsg157
g700
sg158
(lp703
sg160
g64
sg161
Nsg162
Nsg163
Nsbag2
(g3
g4
Ntp704
Rp705
(dp706
g8
g11
sg141
Nsg142
(dp707
sg144
Nsg26
g29
sg145
(lp708
I4
aI4
asg147
Nsg148
VTosefta Demai 4:4
p709
sg150
(lp710
sg152
g103
sg153
Nsg154
(lp711
I4
aI4
asg156
Nsg157
g709
sg158
(lp712
sg160
g64
sg161
Nsg162
Nsg163
Nsbag2
(g3
g4
Ntp713
Rp714
(dp715
g8
g11
sg141
Nsg142
(dp716
sg144
Nsg26
g29
sg145
(lp717
I4
aI5
asg147
Nsg148
VTosefta Demai 4:5
p718
sg150
(lp719
sg152
g103
sg153
Nsg154
(lp720
I4
aI5
asg156
Nsg157
g718
sg158
(lp721
sg160
g64
sg161
Nsg162
Nsg163
Nsbag2
(g3
g4
Ntp722
Rp723
(dp724
g8
g11
sg141
Nsg142
(dp725
sg144
Nsg26
g29
sg145
(lp726
I4
aI6
asg147
Nsg148
VTosefta Demai 4:6
p727
sg150
(lp728
sg152
g103
sg153
Nsg154
(lp729
I4
aI6
asg156
Nsg157
g727
sg158
(lp730
sg160
g64
sg161
Nsg162
Nsg163
Nsbag2
(g3
g4
Ntp731
Rp732
(dp733
g8
g11
sg141
Nsg142
(dp734
sg144
Nsg26
g29
sg145
(lp735
I4
aI7
asg147
Nsg148
VTosefta Demai 4:7
p736
sg150
(lp737
sg152
g103
sg153
Nsg154
(lp738
I4
aI7
asg156
Nsg157
g736
sg158
(lp739
sg160
g64
sg161
Nsg162
Nsg163
Nsbag2
(g3
g4
Ntp740
Rp741
(dp742
g8
g11
sg141
Nsg142
(dp743
sg144
Nsg26
g29
sg145
(lp744
I4
aI8
asg147
Nsg148
VTosefta Demai 4:8
p745
sg150
(lp746
sg152
g103
sg153
Nsg154
(lp747
I4
aI8
asg156
Nsg157
g745
sg158
(lp748
sg160
g64
sg161
Nsg162
Nsg163
Nsbag2
(g3
g4
Ntp749
Rp750
(dp751
g8
g11
sg141
Nsg142
(dp752
sg144
Nsg26
g29
sg145
(lp753
I4
aI9
asg147
Nsg148
VTosefta Demai 4:9
p754
sg150
(lp755
sg152
g103
sg153
Nsg154
(lp756
I4
aI9
asg156
Nsg157
g754
sg158
(lp757
sg160
g64
sg161
Nsg162
Nsg163
Nsbag2
(g3
g4
Ntp758
Rp759
(dp760
g8
g11
sg141
Nsg142
(dp761
sg144
Nsg26
g29
sg145
(lp762
I4
aI10
asg147
Nsg148
VTosefta Demai 4:10
p763
sg150
(lp764
sg152
g103
sg153
Nsg154
(lp765
I4
aI10
asg156
Nsg157
g763
sg158
(lp766
sg160
g64
sg161
Nsg162
Nsg163
Nsbag2
(g3
g4
Ntp767
Rp768
(dp769
g8
g11
sg141
Nsg142
(dp770
sg144
Nsg26
g29
sg145
(lp771
I4
aI11
asg147
Nsg148
VTosefta Demai 4:11
p772
sg150
(lp773
sg152
g103
sg153
Nsg154
(lp774
I4
aI11
asg156
Nsg157
g772
sg158
(lp775
sg160
g64
sg161
Nsg162
Nsg163
Nsbag2
(g3
g4
Ntp776
Rp777
(dp778
g8
g11
sg141
Nsg142
(dp779
sg144
Nsg26
g29
sg145
(lp780
I4
aI12
asg147
Nsg148
VTosefta Demai 4:12
p781
sg150
(lp782
sg152
g103
sg153
Nsg154
(lp783
I4
aI12
asg156
Nsg157
g781
sg158
(lp784
sg160
g64
sg161
Nsg162
Nsg163
Nsbag2
(g3
g4
Ntp785
Rp786
(dp787
g8
g11
sg141
Nsg142
(dp788
sg144
Nsg26
g29
sg145
(lp789
I4
aI13
asg147
Nsg148
VTosefta Demai 4:13
p790
sg150
(lp791
sg152
g103
sg153
Nsg154
(lp792
I4
aI13
asg156
Nsg157
g790
sg158
(lp793
sg160
g64
sg161
Nsg162
Nsg163
Nsbag2
(g3
g4
Ntp794
Rp795
(dp796
g8
g11
sg141
Nsg142
(dp797
sg144
Nsg26
g29
sg145
(lp798
I4
aI14
asg147
Nsg148
VTosefta Demai 4:14
p799
sg150
(lp800
sg152
g103
sg153
Nsg154
(lp801
I4
aI14
asg156
Nsg157
g799
sg158
(lp802
sg160
g64
sg161
Nsg162
Nsg163
Nsbag2
(g3
g4
Ntp803
Rp804
(dp805
g8
g11
sg141
Nsg142
(dp806
sg144
Nsg26
g29
sg145
(lp807
I4
aI15
asg147
Nsg148
VTosefta Demai 4:15
p808
sg150
(lp809
sg152
g103
sg153
Nsg154
(lp810
I4
aI15
asg156
Nsg157
g808
sg158
(lp811
sg160
g64
sg161
Nsg162
Nsg163
Nsbag2
(g3
g4
Ntp812
Rp813
(dp814
g8
g11
sg141
Nsg142
(dp815
sg144
Nsg26
g29
sg145
(lp816
I4
aI16
asg147
Nsg148
VTosefta Demai 4:16
p817
sg150
(lp818
sg152
g103
sg153
Nsg154
(lp819
I4
aI16
asg156
Nsg157
g817
sg158
(lp820
sg160
g64
sg161
Nsg162
Nsg163
Nsbag2
(g3
g4
Ntp821
Rp822
(dp823
g8
g11
sg141
Nsg142
(dp824
sg144
Nsg26
g29
sg145
(lp825
I4
aI17
asg147
Nsg148
VTosefta Demai 4:17
p826
sg150
(lp827
sg152
g103
sg153
Nsg154
(lp828
I4
aI17
asg156
Nsg157
g826
sg158
(lp829
sg160
g64
sg161
Nsg162
Nsg163
Nsbag2
(g3
g4
Ntp830
Rp831
(dp832
g8
g11
sg141
Nsg142
(dp833
sg144
Nsg26
g29
sg145
(lp834
I4
aI18
asg147
Nsg148
VTosefta Demai 4:18
p835
sg150
(lp836
sg152
g103
sg153
Nsg154
(lp837
I4
aI18
asg156
Nsg157
g835
sg158
(lp838
sg160
g64
sg161
Nsg162
Nsg163
Nsbag2
(g3
g4
Ntp839
Rp840
(dp841
g8
g11
sg141
Nsg142
(dp842
sg144
Nsg26
g29
sg145
(lp843
I4
aI19
asg147
Nsg148
VTosefta Demai 4:19
p844
sg150
(lp845
sg152
g103
sg153
Nsg154
(lp846
I4
aI19
asg156
Nsg157
g844
sg158
(lp847
sg160
g64
sg161
Nsg162
Nsg163
Nsbag2
(g3
g4
Ntp848
Rp849
(dp850
g8
g11
sg141
Nsg142
(dp851
sg144
Nsg26
g29
sg145
(lp852
I4
aI20
asg147
Nsg148
VTosefta Demai 4:20
p853
sg150
(lp854
sg152
g103
sg153
Nsg154
(lp855
I4
aI20
asg156
Nsg157
g853
sg158
(lp856
sg160
g64
sg161
Nsg162
Nsg163
Nsbag2
(g3
g4
Ntp857
Rp858
(dp859
g8
g11
sg141
Nsg142
(dp860
sg144
Nsg26
g29
sg145
(lp861
I4
aI21
asg147
Nsg148
VTosefta Demai 4:21
p862
sg150
(lp863
sg152
g103
sg153
Nsg154
(lp864
I4
aI21
asg156
Nsg157
g862
sg158
(lp865
sg160
g64
sg161
Nsg162
Nsg163
Nsbag2
(g3
g4
Ntp866
Rp867
(dp868
g8
g11
sg141
Nsg142
(dp869
sg144
Nsg26
g29
sg145
(lp870
I4
aI22
asg147
Nsg148
VTosefta Demai 4:22
p871
sg150
(lp872
sg152
g103
sg153
Nsg154
(lp873
I4
aI22
asg156
Nsg157
g871
sg158
(lp874
sg160
g64
sg161
Nsg162
Nsg163
Nsbag2
(g3
g4
Ntp875
Rp876
(dp877
g8
g11
sg141
Nsg142
(dp878
sg144
Nsg26
g29
sg145
(lp879
I4
aI23
asg147
Nsg148
VTosefta Demai 4:23
p880
sg150
(lp881
sg152
g103
sg153
Nsg154
(lp882
I4
aI23
asg156
Nsg157
g880
sg158
(lp883
sg160
g64
sg161
Nsg162
Nsg163
Nsbag2
(g3
g4
Ntp884
Rp885
(dp886
g8
g11
sg141
Nsg142
(dp887
sg144
Nsg26
g29
sg145
(lp888
I5
aI1
asg147
Nsg148
VTosefta Demai 5:1
p889
sg150
(lp890
sg152
g103
sg153
Nsg154
(lp891
I5
aI1
asg156
Nsg157
g889
sg158
(lp892
sg160
g64
sg161
Nsg162
Nsg163
Nsbag2
(g3
g4
Ntp893
Rp894
(dp895
g8
g11
sg141
Nsg142
(dp896
sg144
Nsg26
g29
sg145
(lp897
I5
aI2
asg147
Nsg148
VTosefta Demai 5:2
p898
sg150
(lp899
sg152
g103
sg153
Nsg154
(lp900
I5
aI2
asg156
Nsg157
g898
sg158
(lp901
sg160
g64
sg161
Nsg162
Nsg163
Nsbag2
(g3
g4
Ntp902
Rp903
(dp904
g8
g11
sg141
Nsg142
(dp905
sg144
Nsg26
g29
sg145
(lp906
I5
aI3
asg147
Nsg148
VTosefta Demai 5:3
p907
sg150
(lp908
sg152
g103
sg153
Nsg154
(lp909
I5
aI3
asg156
Nsg157
g907
sg158
(lp910
sg160
g64
sg161
Nsg162
Nsg163
Nsbag2
(g3
g4
Ntp911
Rp912
(dp913
g8
g11
sg141
Nsg142
(dp914
sg144
Nsg26
g29
sg145
(lp915
I5
aI4
asg147
Nsg148
VTosefta Demai 5:4
p916
sg150
(lp917
sg152
g103
sg153
Nsg154
(lp918
I5
aI4
asg156
Nsg157
g916
sg158
(lp919
sg160
g64
sg161
Nsg162
Nsg163
Nsbag2
(g3
g4
Ntp920
Rp921
(dp922
g8
g11
sg141
Nsg142
(dp923
sg144
Nsg26
g29
sg145
(lp924
I5
aI5
asg147
Nsg148
VTosefta Demai 5:5
p925
sg150
(lp926
sg152
g103
sg153
Nsg154
(lp927
I5
aI5
asg156
Nsg157
g925
sg158
(lp928
sg160
g64
sg161
Nsg162
Nsg163
Nsbag2
(g3
g4
Ntp929
Rp930
(dp931
g8
g11
sg141
Nsg142
(dp932
sg144
Nsg26
g29
sg145
(lp933
I5
aI6
asg147
Nsg148
VTosefta Demai 5:6
p934
sg150
(lp935
sg152
g103
sg153
Nsg154
(lp936
I5
aI6
asg156
Nsg157
g934
sg158
(lp937
sg160
g64
sg161
Nsg162
Nsg163
Nsbag2
(g3
g4
Ntp938
Rp939
(dp940
g8
g11
sg141
Nsg142
(dp941
sg144
Nsg26
g29
sg145
(lp942
I5
aI7
asg147
Nsg148
VTosefta Demai 5:7
p943
sg150
(lp944
sg152
g103
sg153
Nsg154
(lp945
I5
aI7
asg156
Nsg157
g943
sg158
(lp946
sg160
g64
sg161
Nsg162
Nsg163
Nsbag2
(g3
g4
Ntp947
Rp948
(dp949
g8
g11
sg141
Nsg142
(dp950
sg144
Nsg26
g29
sg145
(lp951
I5
aI8
asg147
Nsg148
VTosefta Demai 5:8
p952
sg150
(lp953
sg152
g103
sg153
Nsg154
(lp954
I5
aI8
asg156
Nsg157
g952
sg158
(lp955
sg160
g64
sg161
Nsg162
Nsg163
Nsbag2
(g3
g4
Ntp956
Rp957
(dp958
g8
g11
sg141
Nsg142
(dp959
sg144
Nsg26
g29
sg145
(lp960
I5
aI9
asg147
Nsg148
VTosefta Demai 5:9
p961
sg150
(lp962
sg152
g103
sg153
Nsg154
(lp963
I5
aI9
asg156
Nsg157
g961
sg158
(lp964
sg160
g64
sg161
Nsg162
Nsg163
Nsbag2
(g3
g4
Ntp965
Rp966
(dp967
g8
g11
sg141
Nsg142
(dp968
sg144
Nsg26
g29
sg145
(lp969
I5
aI10
asg147
Nsg148
VTosefta Demai 5:10
p970
sg150
(lp971
sg152
g103
sg153
Nsg154
(lp972
I5
aI10
asg156
Nsg157
g970
sg158
(lp973
sg160
g64
sg161
Nsg162
Nsg163
Nsbag2
(g3
g4
Ntp974
Rp975
(dp976
g8
g11
sg141
Nsg142
(dp977
sg144
Nsg26
g29
sg145
(lp978
I5
aI11
asg147
Nsg148
VTosefta Demai 5:11
p979
sg150
(lp980
sg152
g103
sg153
Nsg154
(lp981
I5
aI11
asg156
Nsg157
g979
sg158
(lp982
sg160
g64
sg161
Nsg162
Nsg163
Nsbag2
(g3
g4
Ntp983
Rp984
(dp985
g8
g11
sg141
Nsg142
(dp986
sg144
Nsg26
g29
sg145
(lp987
I5
aI12
asg147
Nsg148
VTosefta Demai 5:12
p988
sg150
(lp989
sg152
g103
sg153
Nsg154
(lp990
I5
aI12
asg156
Nsg157
g988
sg158
(lp991
sg160
g64
sg161
Nsg162
Nsg163
Nsbag2
(g3
g4
Ntp992
Rp993
(dp994
g8
g11
sg141
Nsg142
(dp995
sg144
Nsg26
g29
sg145
(lp996
I5
aI13
asg147
Nsg148
VTosefta Demai 5:13
p997
sg150
(lp998
sg152
g103
sg153
Nsg154
(lp999
I5
aI13
asg156
Nsg157
g997
sg158
(lp1000
sg160
g64
sg161
Nsg162
Nsg163
Nsbag2
(g3
g4
Ntp1001
Rp1002
(dp1003
g8
g11
sg141
Nsg142
(dp1004
sg144
Nsg26
g29
sg145
(lp1005
I5
aI14
asg147
Nsg148
VTosefta Demai 5:14
p1006
sg150
(lp1007
sg152
g103
sg153
Nsg154
(lp1008
I5
aI14
asg156
Nsg157
g1006
sg158
(lp1009
sg160
g64
sg161
Nsg162
Nsg163
Nsbag2
(g3
g4
Ntp1010
Rp1011
(dp1012
g8
g11
sg141
Nsg142
(dp1013
sg144
Nsg26
g29
sg145
(lp1014
I5
aI15
asg147
Nsg148
VTosefta Demai 5:15
p1015
sg150
(lp1016
sg152
g103
sg153
Nsg154
(lp1017
I5
aI15
asg156
Nsg157
g1015
sg158
(lp1018
sg160
g64
sg161
Nsg162
Nsg163
Nsbag2
(g3
g4
Ntp1019
Rp1020
(dp1021
g8
g11
sg141
Nsg142
(dp1022
sg144
Nsg26
g29
sg145
(lp1023
I5
aI16
asg147
Nsg148
VTosefta Demai 5:16
p1024
sg150
(lp1025
sg152
g103
sg153
Nsg154
(lp1026
I5
aI16
asg156
Nsg157
g1024
sg158
(lp1027
sg160
g64
sg161
Nsg162
Nsg163
Nsbag2
(g3
g4
Ntp1028
Rp1029
(dp1030
g8
g11
sg141
Nsg142
(dp1031
sg144
Nsg26
g29
sg145
(lp1032
I5
aI17
asg147
Nsg148
VTosefta Demai 5:17
p1033
sg150
(lp1034
sg152
g103
sg153
Nsg154
(lp1035
I5
aI17
asg156
Nsg157
g1033
sg158
(lp1036
sg160
g64
sg161
Nsg162
Nsg163
Nsbag2
(g3
g4
Ntp1037
Rp1038
(dp1039
g8
g11
sg141
Nsg142
(dp1040
sg144
Nsg26
g29
sg145
(lp1041
I5
aI18
asg147
Nsg148
VTosefta Demai 5:18
p1042
sg150
(lp1043
sg152
g103
sg153
Nsg154
(lp1044
I5
aI18
asg156
Nsg157
g1042
sg158
(lp1045
sg160
g64
sg161
Nsg162
Nsg163
Nsbag2
(g3
g4
Ntp1046
Rp1047
(dp1048
g8
g11
sg141
Nsg142
(dp1049
sg144
Nsg26
g29
sg145
(lp1050
I5
aI19
asg147
Nsg148
VTosefta Demai 5:19
p1051
sg150
(lp1052
sg152
g103
sg153
Nsg154
(lp1053
I5
aI19
asg156
Nsg157
g1051
sg158
(lp1054
sg160
g64
sg161
Nsg162
Nsg163
Nsbag2
(g3
g4
Ntp1055
Rp1056
(dp1057
g8
g11
sg141
Nsg142
(dp1058
sg144
Nsg26
g29
sg145
(lp1059
I5
aI20
asg147
Nsg148
VTosefta Demai 5:20
p1060
sg150
(lp1061
sg152
g103
sg153
Nsg154
(lp1062
I5
aI20
asg156
Nsg157
g1060
sg158
(lp1063
sg160
g64
sg161
Nsg162
Nsg163
Nsbag2
(g3
g4
Ntp1064
Rp1065
(dp1066
g8
g11
sg141
Nsg142
(dp1067
sg144
Nsg26
g29
sg145
(lp1068
I5
aI21
asg147
Nsg148
VTosefta Demai 5:21
p1069
sg150
(lp1070
sg152
g103
sg153
Nsg154
(lp1071
I5
aI21
asg156
Nsg157
g1069
sg158
(lp1072
sg160
g64
sg161
Nsg162
Nsg163
Nsbag2
(g3
g4
Ntp1073
Rp1074
(dp1075
g8
g11
sg141
Nsg142
(dp1076
sg144
Nsg26
g29
sg145
(lp1077
I5
aI22
asg147
Nsg148
VTosefta Demai 5:22
p1078
sg150
(lp1079
sg152
g103
sg153
Nsg154
(lp1080
I5
aI22
asg156
Nsg157
g1078
sg158
(lp1081
sg160
g64
sg161
Nsg162
Nsg163
Nsbag2
(g3
g4
Ntp1082
Rp1083
(dp1084
g8
g11
sg141
Nsg142
(dp1085
sg144
Nsg26
g29
sg145
(lp1086
I5
aI23
asg147
Nsg148
VTosefta Demai 5:23
p1087
sg150
(lp1088
sg152
g103
sg153
Nsg154
(lp1089
I5
aI23
asg156
Nsg157
g1087
sg158
(lp1090
sg160
g64
sg161
Nsg162
Nsg163
Nsbag2
(g3
g4
Ntp1091
Rp1092
(dp1093
g8
g11
sg141
Nsg142
(dp1094
sg144
Nsg26
g29
sg145
(lp1095
I5
aI24
asg147
Nsg148
VTosefta Demai 5:24
p1096
sg150
(lp1097
sg152
g103
sg153
Nsg154
(lp1098
I5
aI24
asg156
Nsg157
g1096
sg158
(lp1099
sg160
g64
sg161
Nsg162
Nsg163
Nsbag2
(g3
g4
Ntp1100
Rp1101
(dp1102
g8
g11
sg141
Nsg142
(dp1103
sg144
Nsg26
g29
sg145
(lp1104
I5
aI25
asg147
Nsg148
VTosefta Demai 5:25
p1105
sg150
(lp1106
sg152
g103
sg153
Nsg154
(lp1107
I5
aI25
asg156
Nsg157
g1105
sg158
(lp1108
sg160
g64
sg161
Nsg162
Nsg163
Nsbag2
(g3
g4
Ntp1109
Rp1110
(dp1111
g8
g11
sg141
Nsg142
(dp1112
sg144
Nsg26
g29
sg145
(lp1113
I5
aI26
asg147
Nsg148
VTosefta Demai 5:26
p1114
sg150
(lp1115
sg152
g103
sg153
Nsg154
(lp1116
I5
aI26
asg156
Nsg157
g1114
sg158
(lp1117
sg160
g64
sg161
Nsg162
Nsg163
Nsbag2
(g3
g4
Ntp1118
Rp1119
(dp1120
g8
g11
sg141
Nsg142
(dp1121
sg144
Nsg26
g29
sg145
(lp1122
I5
aI27
asg147
Nsg148
VTosefta Demai 5:27
p1123
sg150
(lp1124
sg152
g103
sg153
Nsg154
(lp1125
I5
aI27
asg156
Nsg157
g1123
sg158
(lp1126
sg160
g64
sg161
Nsg162
Nsg163
Nsbag2
(g3
g4
Ntp1127
Rp1128
(dp1129
g8
g11
sg141
Nsg142
(dp1130
sg144
Nsg26
g29
sg145
(lp1131
I6
aI1
asg147
Nsg148
VTosefta Demai 6:1
p1132
sg150
(lp1133
sg152
g103
sg153
Nsg154
(lp1134
I6
aI1
asg156
Nsg157
g1132
sg158
(lp1135
sg160
g64
sg161
Nsg162
Nsg163
Nsbag2
(g3
g4
Ntp1136
Rp1137
(dp1138
g8
g11
sg141
Nsg142
(dp1139
sg144
Nsg26
g29
sg145
(lp1140
I6
aI2
asg147
Nsg148
VTosefta Demai 6:2
p1141
sg150
(lp1142
sg152
g103
sg153
Nsg154
(lp1143
I6
aI2
asg156
Nsg157
g1141
sg158
(lp1144
sg160
g64
sg161
Nsg162
Nsg163
Nsbag2
(g3
g4
Ntp1145
Rp1146
(dp1147
g8
g11
sg141
Nsg142
(dp1148
sg144
Nsg26
g29
sg145
(lp1149
I6
aI3
asg147
Nsg148
VTosefta Demai 6:3
p1150
sg150
(lp1151
sg152
g103
sg153
Nsg154
(lp1152
I6
aI3
asg156
Nsg157
g1150
sg158
(lp1153
sg160
g64
sg161
Nsg162
Nsg163
Nsbag2
(g3
g4
Ntp1154
Rp1155
(dp1156
g8
g11
sg141
Nsg142
(dp1157
sg144
Nsg26
g29
sg145
(lp1158
I6
aI4
asg147
Nsg148
VTosefta Demai 6:4
p1159
sg150
(lp1160
sg152
g103
sg153
Nsg154
(lp1161
I6
aI4
asg156
Nsg157
g1159
sg158
(lp1162
sg160
g64
sg161
Nsg162
Nsg163
Nsbag2
(g3
g4
Ntp1163
Rp1164
(dp1165
g8
g11
sg141
Nsg142
(dp1166
sg144
Nsg26
g29
sg145
(lp1167
I6
aI5
asg147
Nsg148
VTosefta Demai 6:5
p1168
sg150
(lp1169
sg152
g103
sg153
Nsg154
(lp1170
I6
aI5
asg156
Nsg157
g1168
sg158
(lp1171
sg160
g64
sg161
Nsg162
Nsg163
Nsbag2
(g3
g4
Ntp1172
Rp1173
(dp1174
g8
g11
sg141
Nsg142
(dp1175
sg144
Nsg26
g29
sg145
(lp1176
I6
aI6
asg147
Nsg148
VTosefta Demai 6:6
p1177
sg150
(lp1178
sg152
g103
sg153
Nsg154
(lp1179
I6
aI6
asg156
Nsg157
g1177
sg158
(lp1180
sg160
g64
sg161
Nsg162
Nsg163
Nsbag2
(g3
g4
Ntp1181
Rp1182
(dp1183
g8
g11
sg141
Nsg142
(dp1184
sg144
Nsg26
g29
sg145
(lp1185
I6
aI7
asg147
Nsg148
VTosefta Demai 6:7
p1186
sg150
(lp1187
sg152
g103
sg153
Nsg154
(lp1188
I6
aI7
asg156
Nsg157
g1186
sg158
(lp1189
sg160
g64
sg161
Nsg162
Nsg163
Nsbag2
(g3
g4
Ntp1190
Rp1191
(dp1192
g8
g11
sg141
Nsg142
(dp1193
sg144
Nsg26
g29
sg145
(lp1194
I6
aI8
asg147
Nsg148
VTosefta Demai 6:8
p1195
sg150
(lp1196
sg152
g103
sg153
Nsg154
(lp1197
I6
aI8
asg156
Nsg157
g1195
sg158
(lp1198
sg160
g64
sg161
Nsg162
Nsg163
Nsbag2
(g3
g4
Ntp1199
Rp1200
(dp1201
g8
g11
sg141
Nsg142
(dp1202
sg144
Nsg26
g29
sg145
(lp1203
I6
aI9
asg147
Nsg148
VTosefta Demai 6:9
p1204
sg150
(lp1205
sg152
g103
sg153
Nsg154
(lp1206
I6
aI9
asg156
Nsg157
g1204
sg158
(lp1207
sg160
g64
sg161
Nsg162
Nsg163
Nsbag2
(g3
g4
Ntp1208
Rp1209
(dp1210
g8
g11
sg141
Nsg142
(dp1211
sg144
Nsg26
g29
sg145
(lp1212
I6
aI10
asg147
Nsg148
VTosefta Demai 6:10
p1213
sg150
(lp1214
sg152
g103
sg153
Nsg154
(lp1215
I6
aI10
asg156
Nsg157
g1213
sg158
(lp1216
sg160
g64
sg161
Nsg162
Nsg163
Nsbag2
(g3
g4
Ntp1217
Rp1218
(dp1219
g8
g11
sg141
Nsg142
(dp1220
sg144
Nsg26
g29
sg145
(lp1221
I6
aI11
asg147
Nsg148
VTosefta Demai 6:11
p1222
sg150
(lp1223
sg152
g103
sg153
Nsg154
(lp1224
I6
aI11
asg156
Nsg157
g1222
sg158
(lp1225
sg160
g64
sg161
Nsg162
Nsg163
Nsbag2
(g3
g4
Ntp1226
Rp1227
(dp1228
g8
g11
sg141
Nsg142
(dp1229
sg144
Nsg26
g29
sg145
(lp1230
I6
aI12
asg147
Nsg148
VTosefta Demai 6:12
p1231
sg150
(lp1232
sg152
g103
sg153
Nsg154
(lp1233
I6
aI12
asg156
Nsg157
g1231
sg158
(lp1234
sg160
g64
sg161
Nsg162
Nsg163
Nsbag2
(g3
g4
Ntp1235
Rp1236
(dp1237
g8
g11
sg141
Nsg142
(dp1238
sg144
Nsg26
g29
sg145
(lp1239
I6
aI13
asg147
Nsg148
VTosefta Demai 6:13
p1240
sg150
(lp1241
sg152
g103
sg153
Nsg154
(lp1242
I6
aI13
asg156
Nsg157
g1240
sg158
(lp1243
sg160
g64
sg161
Nsg162
Nsg163
Nsbag2
(g3
g4
Ntp1244
Rp1245
(dp1246
g8
g11
sg141
Nsg142
(dp1247
sg144
Nsg26
g29
sg145
(lp1248
I6
aI14
asg147
Nsg148
VTosefta Demai 6:14
p1249
sg150
(lp1250
sg152
g103
sg153
Nsg154
(lp1251
I6
aI14
asg156
Nsg157
g1249
sg158
(lp1252
sg160
g64
sg161
Nsg162
Nsg163
Nsbag2
(g3
g4
Ntp1253
Rp1254
(dp1255
g8
g11
sg141
Nsg142
(dp1256
sg144
Nsg26
g29
sg145
(lp1257
I7
aI1
asg147
Nsg148
VTosefta Demai 7:1
p1258
sg150
(lp1259
sg152
g103
sg153
Nsg154
(lp1260
I7
aI1
asg156
Nsg157
g1258
sg158
(lp1261
sg160
g64
sg161
Nsg162
Nsg163
Nsbag2
(g3
g4
Ntp1262
Rp1263
(dp1264
g8
g11
sg141
Nsg142
(dp1265
sg144
Nsg26
g29
sg145
(lp1266
I7
aI2
asg147
Nsg148
VTosefta Demai 7:2
p1267
sg150
(lp1268
sg152
g103
sg153
Nsg154
(lp1269
I7
aI2
asg156
Nsg157
g1267
sg158
(lp1270
sg160
g64
sg161
Nsg162
Nsg163
Nsbag2
(g3
g4
Ntp1271
Rp1272
(dp1273
g8
g11
sg141
Nsg142
(dp1274
sg144
Nsg26
g29
sg145
(lp1275
I7
aI3
asg147
Nsg148
VTosefta Demai 7:3
p1276
sg150
(lp1277
sg152
g103
sg153
Nsg154
(lp1278
I7
aI3
asg156
Nsg157
g1276
sg158
(lp1279
sg160
g64
sg161
Nsg162
Nsg163
Nsbag2
(g3
g4
Ntp1280
Rp1281
(dp1282
g8
g11
sg141
Nsg142
(dp1283
sg144
Nsg26
g29
sg145
(lp1284
I7
aI4
asg147
Nsg148
VTosefta Demai 7:4
p1285
sg150
(lp1286
sg152
g103
sg153
Nsg154
(lp1287
I7
aI4
asg156
Nsg157
g1285
sg158
(lp1288
sg160
g64
sg161
Nsg162
Nsg163
Nsbag2
(g3
g4
Ntp1289
Rp1290
(dp1291
g8
g11
sg141
Nsg142
(dp1292
sg144
Nsg26
g29
sg145
(lp1293
I7
aI5
asg147
Nsg148
VTosefta Demai 7:5
p1294
sg150
(lp1295
sg152
g103
sg153
Nsg154
(lp1296
I7
aI5
asg156
Nsg157
g1294
sg158
(lp1297
sg160
g64
sg161
Nsg162
Nsg163
Nsbag2
(g3
g4
Ntp1298
Rp1299
(dp1300
g8
g11
sg141
Nsg142
(dp1301
sg144
Nsg26
g29
sg145
(lp1302
I7
aI6
asg147
Nsg148
VTosefta Demai 7:6
p1303
sg150
(lp1304
sg152
g103
sg153
Nsg154
(lp1305
I7
aI6
asg156
Nsg157
g1303
sg158
(lp1306
sg160
g64
sg161
Nsg162
Nsg163
Nsbag2
(g3
g4
Ntp1307
Rp1308
(dp1309
g8
g11
sg141
Nsg142
(dp1310
sg144
Nsg26
g29
sg145
(lp1311
I7
aI7
asg147
Nsg148
VTosefta Demai 7:7
p1312
sg150
(lp1313
sg152
g103
sg153
Nsg154
(lp1314
I7
aI7
asg156
Nsg157
g1312
sg158
(lp1315
sg160
g64
sg161
Nsg162
Nsg163
Nsbag2
(g3
g4
Ntp1316
Rp1317
(dp1318
g8
g11
sg141
Nsg142
(dp1319
sg144
Nsg26
g29
sg145
(lp1320
I7
aI8
asg147
Nsg148
VTosefta Demai 7:8
p1321
sg150
(lp1322
sg152
g103
sg153
Nsg154
(lp1323
I7
aI8
asg156
Nsg157
g1321
sg158
(lp1324
sg160
g64
sg161
Nsg162
Nsg163
Nsbag2
(g3
g4
Ntp1325
Rp1326
(dp1327
g8
g11
sg141
Nsg142
(dp1328
sg144
Nsg26
g29
sg145
(lp1329
I7
aI9
asg147
Nsg148
VTosefta Demai 7:9
p1330
sg150
(lp1331
sg152
g103
sg153
Nsg154
(lp1332
I7
aI9
asg156
Nsg157
g1330
sg158
(lp1333
sg160
g64
sg161
Nsg162
Nsg163
Nsbag2
(g3
g4
Ntp1334
Rp1335
(dp1336
g8
g11
sg141
Nsg142
(dp1337
sg144
Nsg26
g29
sg145
(lp1338
I7
aI10
asg147
Nsg148
VTosefta Demai 7:10
p1339
sg150
(lp1340
sg152
g103
sg153
Nsg154
(lp1341
I7
aI10
asg156
Nsg157
g1339
sg158
(lp1342
sg160
g64
sg161
Nsg162
Nsg163
Nsbag2
(g3
g4
Ntp1343
Rp1344
(dp1345
g8
g11
sg141
Nsg142
(dp1346
sg144
Nsg26
g29
sg145
(lp1347
I7
aI11
asg147
Nsg148
VTosefta Demai 7:11
p1348
sg150
(lp1349
sg152
g103
sg153
Nsg154
(lp1350
I7
aI11
asg156
Nsg157
g1348
sg158
(lp1351
sg160
g64
sg161
Nsg162
Nsg163
Nsbag2
(g3
g4
Ntp1352
Rp1353
(dp1354
g8
g11
sg141
Nsg142
(dp1355
sg144
Nsg26
g29
sg145
(lp1356
I7
aI12
asg147
Nsg148
VTosefta Demai 7:12
p1357
sg150
(lp1358
sg152
g103
sg153
Nsg154
(lp1359
I7
aI12
asg156
Nsg157
g1357
sg158
(lp1360
sg160
g64
sg161
Nsg162
Nsg163
Nsbag2
(g3
g4
Ntp1361
Rp1362
(dp1363
g8
g11
sg141
Nsg142
(dp1364
sg144
Nsg26
g29
sg145
(lp1365
I7
aI13
asg147
Nsg148
VTosefta Demai 7:13
p1366
sg150
(lp1367
sg152
g103
sg153
Nsg154
(lp1368
I7
aI13
asg156
Nsg157
g1366
sg158
(lp1369
sg160
g64
sg161
Nsg162
Nsg163
Nsbag2
(g3
g4
Ntp1370
Rp1371
(dp1372
g8
g11
sg141
Nsg142
(dp1373
sg144
Nsg26
g29
sg145
(lp1374
I8
aI1
asg147
Nsg148
VTosefta Demai 8:1
p1375
sg150
(lp1376
sg152
g103
sg153
Nsg154
(lp1377
I8
aI1
asg156
Nsg157
g1375
sg158
(lp1378
sg160
g64
sg161
Nsg162
Nsg163
Nsbag2
(g3
g4
Ntp1379
Rp1380
(dp1381
g8
g11
sg141
Nsg142
(dp1382
sg144
Nsg26
g29
sg145
(lp1383
I8
aI2
asg147
Nsg148
VTosefta Demai 8:2
p1384
sg150
(lp1385
sg152
g103
sg153
Nsg154
(lp1386
I8
aI2
asg156
Nsg157
g1384
sg158
(lp1387
sg160
g64
sg161
Nsg162
Nsg163
Nsbag2
(g3
g4
Ntp1388
Rp1389
(dp1390
g8
g11
sg141
Nsg142
(dp1391
sg144
Nsg26
g29
sg145
(lp1392
I8
aI3
asg147
Nsg148
VTosefta Demai 8:3
p1393
sg150
(lp1394
sg152
g103
sg153
Nsg154
(lp1395
I8
aI3
asg156
Nsg157
g1393
sg158
(lp1396
sg160
g64
sg161
Nsg162
Nsg163
Nsbag2
(g3
g4
Ntp1397
Rp1398
(dp1399
g8
g11
sg141
Nsg142
(dp1400
sg144
Nsg26
g29
sg145
(lp1401
I8
aI4
asg147
Nsg148
VTosefta Demai 8:4
p1402
sg150
(lp1403
sg152
g103
sg153
Nsg154
(lp1404
I8
aI4
asg156
Nsg157
g1402
sg158
(lp1405
sg160
g64
sg161
Nsg162
Nsg163
Nsbag2
(g3
g4
Ntp1406
Rp1407
(dp1408
g8
g11
sg141
Nsg142
(dp1409
sg144
Nsg26
g29
sg145
(lp1410
I8
aI5
asg147
Nsg148
VTosefta Demai 8:5
p1411
sg150
(lp1412
sg152
g103
sg153
Nsg154
(lp1413
I8
aI5
asg156
Nsg157
g1411
sg158
(lp1414
sg160
g64
sg161
Nsg162
Nsg163
Nsbag2
(g3
g4
Ntp1415
Rp1416
(dp1417
g8
g11
sg141
Nsg142
(dp1418
sg144
Nsg26
g29
sg145
(lp1419
I8
aI6
asg147
Nsg148
VTosefta Demai 8:6
p1420
sg150
(lp1421
sg152
g103
sg153
Nsg154
(lp1422
I8
aI6
asg156
Nsg157
g1420
sg158
(lp1423
sg160
g64
sg161
Nsg162
Nsg163
Nsbag2
(g3
g4
Ntp1424
Rp1425
(dp1426
g8
g11
sg141
Nsg142
(dp1427
sg144
Nsg26
g29
sg145
(lp1428
I8
aI7
asg147
Nsg148
VTosefta Demai 8:7
p1429
sg150
(lp1430
sg152
g103
sg153
Nsg154
(lp1431
I8
aI7
asg156
Nsg157
g1429
sg158
(lp1432
sg160
g64
sg161
Nsg162
Nsg163
Nsbag2
(g3
g4
Ntp1433
Rp1434
(dp1435
g8
g11
sg141
Nsg142
(dp1436
sg144
Nsg26
g29
sg145
(lp1437
I8
aI8
asg147
Nsg148
VTosefta Demai 8:8
p1438
sg150
(lp1439
sg152
g103
sg153
Nsg154
(lp1440
I8
aI8
asg156
Nsg157
g1438
sg158
(lp1441
sg160
g64
sg161
Nsg162
Nsg163
Nsbag2
(g3
g4
Ntp1442
Rp1443
(dp1444
g8
g11
sg141
Nsg142
(dp1445
sg144
Nsg26
g29
sg145
(lp1446
I8
aI9
asg147
Nsg148
VTosefta Demai 8:9
p1447
sg150
(lp1448
sg152
g103
sg153
Nsg154
(lp1449
I8
aI9
asg156
Nsg157
g1447
sg158
(lp1450
sg160
g64
sg161
Nsg162
Nsg163
Nsbag2
(g3
g4
Ntp1451
Rp1452
(dp1453
g8
g11
sg141
Nsg142
(dp1454
sg144
Nsg26
g29
sg145
(lp1455
I8
aI10
asg147
Nsg148
VTosefta Demai 8:10
p1456
sg150
(lp1457
sg152
g103
sg153
Nsg154
(lp1458
I8
aI10
asg156
Nsg157
g1456
sg158
(lp1459
sg160
g64
sg161
Nsg162
Nsg163
Nsbag2
(g3
g4
Ntp1460
Rp1461
(dp1462
g8
g11
sg141
Nsg142
(dp1463
sg144
Nsg26
g29
sg145
(lp1464
I8
aI11
asg147
Nsg148
VTosefta Demai 8:11
p1465
sg150
(lp1466
sg152
g103
sg153
Nsg154
(lp1467
I8
aI11
asg156
Nsg157
g1465
sg158
(lp1468
sg160
g64
sg161
Nsg162
Nsg163
Nsbag2
(g3
g4
Ntp1469
Rp1470
(dp1471
g8
g11
sg141
Nsg142
(dp1472
sg144
Nsg26
g29
sg145
(lp1473
I8
aI12
asg147
Nsg148
VTosefta Demai 8:12
p1474
sg150
(lp1475
sg152
g103
sg153
Nsg154
(lp1476
I8
aI12
asg156
Nsg157
g1474
sg158
(lp1477
sg160
g64
sg161
Nsg162
Nsg163
Nsbag2
(g3
g4
Ntp1478
Rp1479
(dp1480
g8
g11
sg141
Nsg142
(dp1481
sg144
Nsg26
g29
sg145
(lp1482
I8
aI13
asg147
Nsg148
VTosefta Demai 8:13
p1483
sg150
(lp1484
sg152
g103
sg153
Nsg154
(lp1485
I8
aI13
asg156
Nsg157
g1483
sg158
(lp1486
sg160
g64
sg161
Nsg162
Nsg163
Nsbag2
(g3
g4
Ntp1487
Rp1488
(dp1489
g8
g11
sg141
Nsg142
(dp1490
sg144
Nsg26
g29
sg145
(lp1491
I8
aI14
asg147
Nsg148
VTosefta Demai 8:14
p1492
sg150
(lp1493
sg152
g103
sg153
Nsg154
(lp1494
I8
aI14
asg156
Nsg157
g1492
sg158
(lp1495
sg160
g64
sg161
Nsg162
Nsg163
Nsbag2
(g3
g4
Ntp1496
Rp1497
(dp1498
g8
g11
sg141
Nsg142
(dp1499
sg144
Nsg26
g29
sg145
(lp1500
I8
aI15
asg147
Nsg148
VTosefta Demai 8:15
p1501
sg150
(lp1502
sg152
g103
sg153
Nsg154
(lp1503
I8
aI15
asg156
Nsg157
g1501
sg158
(lp1504
sg160
g64
sg161
Nsg162
Nsg163
Nsbag2
(g3
g4
Ntp1505
Rp1506
(dp1507
g8
g11
sg141
Nsg142
(dp1508
sg144
Nsg26
g29
sg145
(lp1509
I8
aI16
asg147
Nsg148
VTosefta Demai 8:16
p1510
sg150
(lp1511
sg152
g103
sg153
Nsg154
(lp1512
I8
aI16
asg156
Nsg157
g1510
sg158
(lp1513
sg160
g64
sg161
Nsg162
Nsg163
Nsbatp1514
.