((lp0
I0
aI134
aI324
aI495
aI597
aI774
aI860
aI903
aI1111
aI1258
aI1400
aI1537
aI1671
aI1803
aI1918
aI2031
aI2213
aI2358
aI2522
aI2621
aI2757
aI2879
aI2979
aI3078
aI3159
aI3193
aI3282
aI3484
aI3585
a(lp1
ccopy_reg
_reconstructor
p2
(csefaria.model.text
Ref
p3
c__builtin__
object
p4
Ntp5
Rp6
(dp7
S'index_node'
p8
g2
(csefaria.model.schema
JaggedArrayNode
p9
g4
Ntp10
Rp11
(dp12
S'_address'
p13
(lp14
VTosefta Keilim Batra
p15
asS'_full_titles'
p16
(dp17
sVnodeType
p18
VJaggedArrayNode
p19
sS'parent'
p20
NsVaddressTypes
p21
(lp22
VInteger
p23
aVInteger
p24
asS'default'
p25
I00
sS'index'
p26
g2
(csefaria.model.text
Index
p27
g4
Ntp28
Rp29
(dp30
S'_id'
p31
g2
(cbson.objectid
ObjectId
p32
g4
Ntp33
Rp34
S'S3\x17\xfb\xfb\xfb\xa2db\x83\xda4'
p35
bsS'pkeys_orig_values'
p36
(dp37
S'title'
p38
VTosefta Keilim Batra
p39
ssS'pubDate'
p40
V1521
p41
sS'compDate'
p42
V210
p43
sS'pubPlace'
p44
VVenice
p45
sS'compPlace'
p46
VTalmudic Israel
p47
sS'enDesc'
p48
VThe Tosefta (Supplement, addition") is a compilation of the Jewish oral law. Opinions differ widely as to when the Tosefta was redacted and how it relates to the Mishnah. However it closely corresponds to the Mishnah in structure and style, with the same divisions for sedarim ("orders") and masekhot ("tractates"). In many ways, the Tosefta acts as a supplement to the Mishnah. It is mainly written in Mishnaic Hebrew, with some Aramaic. Kelim Batra (Vessels) belongs to the sixth order, Tahorot (Purities) and discusses a large array of various utensils and how they fare in terms of purity. It has seven chapters. It is the largest order of the Mishnah.
p49
sS'order'
p50
(lp51
I3
asS'era'
p52
VT
p53
sS'struct_objs'
p54
(dp55
sS'nodes'
p56
g11
sS'errorMargin'
p57
V20
p58
sS'_title'
p59
g39
sS'categories'
p60
(lp61
VTosefta
p62
aVSeder Toharot
p63
asS'schema'
p64
(dp65
g18
g19
sg21
g22
sVlengths
p66
(lp67
I7
asVdepth
p68
I2
sVtitles
p69
(lp70
(dp71
Vlang
p72
Ven
p73
sVtext
p74
VTosefta Keilim Basra
p75
sa(dp76
Vlang
p77
Ven
p78
sVtext
p79
VTos. Keilim Batra
p80
sa(dp81
Vlang
p82
Ven
p83
sVtext
p84
VT. Keilim Batra
p85
sa(dp86
Vlang
p87
Ven
p88
sVtext
p89
VTos. Keilim Basra
p90
sa(dp91
Vlang
p92
Vhe
p93
sVtext
p94
V\u05ea\u05d5\u05e1\u05e4\u05ea\u05d0 \u05db\u05dc\u05d9\u05dd \u05d1\u05ea\u05e8\u05d0
p95
sVprimary
p96
I01
sa(dp97
Vlang
p98
Ven
p99
sVtext
p100
VTosefta Keilim Batra
p101
sVprimary
p102
I01
sasVkey
p103
g15
sVsectionNames
p104
(lp105
VChapter
p106
aVTosefta
p107
assbsS'_primary_title'
p108
(dp109
sS'title_group'
p110
g2
(csefaria.model.schema
TitleGroup
p111
g4
Ntp112
Rp113
(dp114
g108
(dp115
S'en'
p116
g101
ssS'titles'
p117
g70
sbsS'_addressTypes'
p118
(lp119
g2
(csefaria.model.schema
AddressInteger
p120
g4
Ntp121
Rp122
(dp123
S'length'
p124
I7
sg50
I0
sbag2
(g120
g4
Ntp125
Rp126
(dp127
g124
Nsg50
I1
sbasS'sharedTitle'
p128
Nsg66
g67
sg68
I2
sS'_full_title'
p129
(dp130
g116
g101
ssS'key'
p131
g15
sS'checkFirst'
p132
NsS'_regexes'
p133
(dp134
sS'_leaf_nodes'
p135
(lp136
sg104
g105
sS'children'
p137
(lp138
sbsS'_range_index'
p139
NsS'_context'
p140
(dp141
sS'_padded'
p142
Nsg26
g29
sS'sections'
p143
(lp144
I1
aI1
asS'_first_spanned_ref'
p145
NsS'tref'
p146
VTosefta Keilim Batra 1:1
p147
sS'_spanned_refs'
p148
(lp149
sS'book'
p150
g101
sS'_range_depth'
p151
NsS'toSections'
p152
(lp153
I1
aI1
asS'_url'
p154
NsS'_normal'
p155
g147
sS'_ranged_refs'
p156
(lp157
sS'type'
p158
g62
sS'_prev'
p159
NsS'_he_normal'
p160
NsS'_next'
p161
Nsbag2
(g3
g4
Ntp162
Rp163
(dp164
g8
g11
sg139
Nsg140
(dp165
sg142
Nsg26
g29
sg143
(lp166
I1
aI2
asg145
Nsg146
VTosefta Keilim Batra 1:2
p167
sg148
(lp168
sg150
g101
sg151
Nsg152
(lp169
I1
aI2
asg154
Nsg155
g167
sg156
(lp170
sg158
g62
sg159
Nsg160
Nsg161
Nsbag2
(g3
g4
Ntp171
Rp172
(dp173
g8
g11
sg139
Nsg140
(dp174
sg142
Nsg26
g29
sg143
(lp175
I1
aI3
asg145
Nsg146
VTosefta Keilim Batra 1:3
p176
sg148
(lp177
sg150
g101
sg151
Nsg152
(lp178
I1
aI3
asg154
Nsg155
g176
sg156
(lp179
sg158
g62
sg159
Nsg160
Nsg161
Nsbag2
(g3
g4
Ntp180
Rp181
(dp182
g8
g11
sg139
Nsg140
(dp183
sg142
Nsg26
g29
sg143
(lp184
I1
aI4
asg145
Nsg146
VTosefta Keilim Batra 1:4
p185
sg148
(lp186
sg150
g101
sg151
Nsg152
(lp187
I1
aI4
asg154
Nsg155
g185
sg156
(lp188
sg158
g62
sg159
Nsg160
Nsg161
Nsbag2
(g3
g4
Ntp189
Rp190
(dp191
g8
g11
sg139
Nsg140
(dp192
sg142
Nsg26
g29
sg143
(lp193
I2
aI1
asg145
Nsg146
VTosefta Keilim Batra 2:1
p194
sg148
(lp195
sg150
g101
sg151
Nsg152
(lp196
I2
aI1
asg154
Nsg155
g194
sg156
(lp197
sg158
g62
sg159
Nsg160
Nsg161
Nsbag2
(g3
g4
Ntp198
Rp199
(dp200
g8
g11
sg139
Nsg140
(dp201
sg142
Nsg26
g29
sg143
(lp202
I2
aI2
asg145
Nsg146
VTosefta Keilim Batra 2:2
p203
sg148
(lp204
sg150
g101
sg151
Nsg152
(lp205
I2
aI2
asg154
Nsg155
g203
sg156
(lp206
sg158
g62
sg159
Nsg160
Nsg161
Nsbag2
(g3
g4
Ntp207
Rp208
(dp209
g8
g11
sg139
Nsg140
(dp210
sg142
Nsg26
g29
sg143
(lp211
I2
aI3
asg145
Nsg146
VTosefta Keilim Batra 2:3
p212
sg148
(lp213
sg150
g101
sg151
Nsg152
(lp214
I2
aI3
asg154
Nsg155
g212
sg156
(lp215
sg158
g62
sg159
Nsg160
Nsg161
Nsbag2
(g3
g4
Ntp216
Rp217
(dp218
g8
g11
sg139
Nsg140
(dp219
sg142
Nsg26
g29
sg143
(lp220
I2
aI4
asg145
Nsg146
VTosefta Keilim Batra 2:4
p221
sg148
(lp222
sg150
g101
sg151
Nsg152
(lp223
I2
aI4
asg154
Nsg155
g221
sg156
(lp224
sg158
g62
sg159
Nsg160
Nsg161
Nsbag2
(g3
g4
Ntp225
Rp226
(dp227
g8
g11
sg139
Nsg140
(dp228
sg142
Nsg26
g29
sg143
(lp229
I3
aI1
asg145
Nsg146
VTosefta Keilim Batra 3:1
p230
sg148
(lp231
sg150
g101
sg151
Nsg152
(lp232
I3
aI1
asg154
Nsg155
g230
sg156
(lp233
sg158
g62
sg159
Nsg160
Nsg161
Nsbag2
(g3
g4
Ntp234
Rp235
(dp236
g8
g11
sg139
Nsg140
(dp237
sg142
Nsg26
g29
sg143
(lp238
I3
aI2
asg145
Nsg146
VTosefta Keilim Batra 3:2
p239
sg148
(lp240
sg150
g101
sg151
Nsg152
(lp241
I3
aI2
asg154
Nsg155
g239
sg156
(lp242
sg158
g62
sg159
Nsg160
Nsg161
Nsbag2
(g3
g4
Ntp243
Rp244
(dp245
g8
g11
sg139
Nsg140
(dp246
sg142
Nsg26
g29
sg143
(lp247
I3
aI3
asg145
Nsg146
VTosefta Keilim Batra 3:3
p248
sg148
(lp249
sg150
g101
sg151
Nsg152
(lp250
I3
aI3
asg154
Nsg155
g248
sg156
(lp251
sg158
g62
sg159
Nsg160
Nsg161
Nsbag2
(g3
g4
Ntp252
Rp253
(dp254
g8
g11
sg139
Nsg140
(dp255
sg142
Nsg26
g29
sg143
(lp256
I3
aI4
asg145
Nsg146
VTosefta Keilim Batra 3:4
p257
sg148
(lp258
sg150
g101
sg151
Nsg152
(lp259
I3
aI4
asg154
Nsg155
g257
sg156
(lp260
sg158
g62
sg159
Nsg160
Nsg161
Nsbag2
(g3
g4
Ntp261
Rp262
(dp263
g8
g11
sg139
Nsg140
(dp264
sg142
Nsg26
g29
sg143
(lp265
I4
aI1
asg145
Nsg146
VTosefta Keilim Batra 4:1
p266
sg148
(lp267
sg150
g101
sg151
Nsg152
(lp268
I4
aI1
asg154
Nsg155
g266
sg156
(lp269
sg158
g62
sg159
Nsg160
Nsg161
Nsbag2
(g3
g4
Ntp270
Rp271
(dp272
g8
g11
sg139
Nsg140
(dp273
sg142
Nsg26
g29
sg143
(lp274
I4
aI2
asg145
Nsg146
VTosefta Keilim Batra 4:2
p275
sg148
(lp276
sg150
g101
sg151
Nsg152
(lp277
I4
aI2
asg154
Nsg155
g275
sg156
(lp278
sg158
g62
sg159
Nsg160
Nsg161
Nsbag2
(g3
g4
Ntp279
Rp280
(dp281
g8
g11
sg139
Nsg140
(dp282
sg142
Nsg26
g29
sg143
(lp283
I4
aI3
asg145
Nsg146
VTosefta Keilim Batra 4:3
p284
sg148
(lp285
sg150
g101
sg151
Nsg152
(lp286
I4
aI3
asg154
Nsg155
g284
sg156
(lp287
sg158
g62
sg159
Nsg160
Nsg161
Nsbag2
(g3
g4
Ntp288
Rp289
(dp290
g8
g11
sg139
Nsg140
(dp291
sg142
Nsg26
g29
sg143
(lp292
I4
aI4
asg145
Nsg146
VTosefta Keilim Batra 4:4
p293
sg148
(lp294
sg150
g101
sg151
Nsg152
(lp295
I4
aI4
asg154
Nsg155
g293
sg156
(lp296
sg158
g62
sg159
Nsg160
Nsg161
Nsbag2
(g3
g4
Ntp297
Rp298
(dp299
g8
g11
sg139
Nsg140
(dp300
sg142
Nsg26
g29
sg143
(lp301
I5
aI1
asg145
Nsg146
VTosefta Keilim Batra 5:1
p302
sg148
(lp303
sg150
g101
sg151
Nsg152
(lp304
I5
aI1
asg154
Nsg155
g302
sg156
(lp305
sg158
g62
sg159
Nsg160
Nsg161
Nsbag2
(g3
g4
Ntp306
Rp307
(dp308
g8
g11
sg139
Nsg140
(dp309
sg142
Nsg26
g29
sg143
(lp310
I5
aI2
asg145
Nsg146
VTosefta Keilim Batra 5:2
p311
sg148
(lp312
sg150
g101
sg151
Nsg152
(lp313
I5
aI2
asg154
Nsg155
g311
sg156
(lp314
sg158
g62
sg159
Nsg160
Nsg161
Nsbag2
(g3
g4
Ntp315
Rp316
(dp317
g8
g11
sg139
Nsg140
(dp318
sg142
Nsg26
g29
sg143
(lp319
I5
aI3
asg145
Nsg146
VTosefta Keilim Batra 5:3
p320
sg148
(lp321
sg150
g101
sg151
Nsg152
(lp322
I5
aI3
asg154
Nsg155
g320
sg156
(lp323
sg158
g62
sg159
Nsg160
Nsg161
Nsbag2
(g3
g4
Ntp324
Rp325
(dp326
g8
g11
sg139
Nsg140
(dp327
sg142
Nsg26
g29
sg143
(lp328
I5
aI4
asg145
Nsg146
VTosefta Keilim Batra 5:4
p329
sg148
(lp330
sg150
g101
sg151
Nsg152
(lp331
I5
aI4
asg154
Nsg155
g329
sg156
(lp332
sg158
g62
sg159
Nsg160
Nsg161
Nsbag2
(g3
g4
Ntp333
Rp334
(dp335
g8
g11
sg139
Nsg140
(dp336
sg142
Nsg26
g29
sg143
(lp337
I6
aI1
asg145
Nsg146
VTosefta Keilim Batra 6:1
p338
sg148
(lp339
sg150
g101
sg151
Nsg152
(lp340
I6
aI1
asg154
Nsg155
g338
sg156
(lp341
sg158
g62
sg159
Nsg160
Nsg161
Nsbag2
(g3
g4
Ntp342
Rp343
(dp344
g8
g11
sg139
Nsg140
(dp345
sg142
Nsg26
g29
sg143
(lp346
I6
aI2
asg145
Nsg146
VTosefta Keilim Batra 6:2
p347
sg148
(lp348
sg150
g101
sg151
Nsg152
(lp349
I6
aI2
asg154
Nsg155
g347
sg156
(lp350
sg158
g62
sg159
Nsg160
Nsg161
Nsbag2
(g3
g4
Ntp351
Rp352
(dp353
g8
g11
sg139
Nsg140
(dp354
sg142
Nsg26
g29
sg143
(lp355
I6
aI3
asg145
Nsg146
VTosefta Keilim Batra 6:3
p356
sg148
(lp357
sg150
g101
sg151
Nsg152
(lp358
I6
aI3
asg154
Nsg155
g356
sg156
(lp359
sg158
g62
sg159
Nsg160
Nsg161
Nsbag2
(g3
g4
Ntp360
Rp361
(dp362
g8
g11
sg139
Nsg140
(dp363
sg142
Nsg26
g29
sg143
(lp364
I6
aI4
asg145
Nsg146
VTosefta Keilim Batra 6:4
p365
sg148
(lp366
sg150
g101
sg151
Nsg152
(lp367
I6
aI4
asg154
Nsg155
g365
sg156
(lp368
sg158
g62
sg159
Nsg160
Nsg161
Nsbag2
(g3
g4
Ntp369
Rp370
(dp371
g8
g11
sg139
Nsg140
(dp372
sg142
Nsg26
g29
sg143
(lp373
I6
aI5
asg145
Nsg146
VTosefta Keilim Batra 6:5
p374
sg148
(lp375
sg150
g101
sg151
Nsg152
(lp376
I6
aI5
asg154
Nsg155
g374
sg156
(lp377
sg158
g62
sg159
Nsg160
Nsg161
Nsbag2
(g3
g4
Ntp378
Rp379
(dp380
g8
g11
sg139
Nsg140
(dp381
sg142
Nsg26
g29
sg143
(lp382
I7
aI1
asg145
Nsg146
VTosefta Keilim Batra 7:1
p383
sg148
(lp384
sg150
g101
sg151
Nsg152
(lp385
I7
aI1
asg154
Nsg155
g383
sg156
(lp386
sg158
g62
sg159
Nsg160
Nsg161
Nsbag2
(g3
g4
Ntp387
Rp388
(dp389
g8
g11
sg139
Nsg140
(dp390
sg142
Nsg26
g29
sg143
(lp391
I7
aI2
asg145
Nsg146
VTosefta Keilim Batra 7:2
p392
sg148
(lp393
sg150
g101
sg151
Nsg152
(lp394
I7
aI2
asg154
Nsg155
g392
sg156
(lp395
sg158
g62
sg159
Nsg160
Nsg161
Nsbag2
(g3
g4
Ntp396
Rp397
(dp398
g8
g11
sg139
Nsg140
(dp399
sg142
Nsg26
g29
sg143
(lp400
I7
aI3
asg145
Nsg146
VTosefta Keilim Batra 7:3
p401
sg148
(lp402
sg150
g101
sg151
Nsg152
(lp403
I7
aI3
asg154
Nsg155
g401
sg156
(lp404
sg158
g62
sg159
Nsg160
Nsg161
Nsbag2
(g3
g4
Ntp405
Rp406
(dp407
g8
g11
sg139
Nsg140
(dp408
sg142
Nsg26
g29
sg143
(lp409
I7
aI4
asg145
Nsg146
VTosefta Keilim Batra 7:4
p410
sg148
(lp411
sg150
g101
sg151
Nsg152
(lp412
I7
aI4
asg154
Nsg155
g410
sg156
(lp413
sg158
g62
sg159
Nsg160
Nsg161
Nsbatp414
.