((lp0
I0
aI35
aI111
aI228
aI300
aI407
aI481
aI568
aI633
aI705
aI744
aI782
aI808
aI887
aI929
aI952
aI1029
aI1059
aI1106
aI1214
aI1256
a(lp1
ccopy_reg
_reconstructor
p2
(csefaria.model.text
Ref
p3
c__builtin__
object
p4
Ntp5
Rp6
(dp7
S'index_node'
p8
g2
(csefaria.model.schema
JaggedArrayNode
p9
g4
Ntp10
Rp11
(dp12
S'_address'
p13
(lp14
VTosefta Uktsin
p15
asS'_full_titles'
p16
(dp17
sVnodeType
p18
VJaggedArrayNode
p19
sS'parent'
p20
NsVaddressTypes
p21
(lp22
VInteger
p23
aVInteger
p24
asS'default'
p25
I00
sS'index'
p26
g2
(csefaria.model.text
Index
p27
g4
Ntp28
Rp29
(dp30
S'struct_objs'
p31
(dp32
sS'_id'
p33
g2
(cbson.objectid
ObjectId
p34
g4
Ntp35
Rp36
S'S7\xb7\x01\xfb\xfb\xa2 \xb6\t\xd3>'
p37
bsS'pkeys_orig_values'
p38
(dp39
S'title'
p40
VTosefta Uktsin
p41
ssS'pubDate'
p42
V1521
p43
sS'transliteratedTitle'
p44
VTosefta Oktsin
p45
sS'pubPlace'
p46
VVenice
p47
sS'compPlace'
p48
VTalmudic Israel
p49
sS'enDesc'
p50
VThe Tosefta (Supplement, addition") is a compilation of the Jewish oral law. Opinions differ widely as to when the Tosefta was redacted and how it relates to the Mishnah. However it closely corresponds to the Mishnah in structure and style, with the same divisions for sedarim ("orders") and masekhot ("tractates"). In many ways, the Tosefta acts as a supplement to the Mishnah. It is mainly written in Mishnaic Hebrew, with some Aramaic. Ukzim (Stems) belongs to the sixth order, Tahorot (Purities) and discusses the impurity of the stalks of fruit. It has three chapters.
p51
sS'order'
p52
(lp53
I14
asS'era'
p54
VT
p55
sS'compDate'
p56
V210
p57
sS'nodes'
p58
g11
sS'errorMargin'
p59
V20
p60
sS'_title'
p61
g41
sS'categories'
p62
(lp63
VTosefta
p64
aVSeder Toharot
p65
asS'schema'
p66
(dp67
g18
g19
sg21
g22
sVlengths
p68
(lp69
I3
asVdepth
p70
I2
sVtitles
p71
(lp72
(dp73
Vlang
p74
Ven
p75
sVtext
p76
VTosefta Oktsin
p77
sa(dp78
Vlang
p79
Ven
p80
sVtext
p81
VTos. Oktzin
p82
sa(dp83
Vlang
p84
Ven
p85
sVtext
p86
VT. Oktsin
p87
sa(dp88
Vlang
p89
Ven
p90
sVtext
p91
VTos. Uktsin
p92
sa(dp93
Vlang
p94
Ven
p95
sVtext
p96
VT. Uktsin
p97
sa(dp98
Vlang
p99
Ven
p100
sVtext
p101
VTos. Uktzin
p102
sa(dp103
Vlang
p104
Ven
p105
sVtext
p106
VTosefta Uktzin
p107
sa(dp108
Vlang
p109
Ven
p110
sVtext
p111
VT. Uktzin
p112
sa(dp113
Vlang
p114
Vhe
p115
sVtext
p116
V\u05ea\u05d5\u05e1\u05e4\u05ea\u05d0 \u05e2\u05d5\u05e7\u05e6\u05d9\u05df
p117
sVprimary
p118
I01
sa(dp119
Vlang
p120
Ven
p121
sVtext
p122
VTosefta Uktsin
p123
sVprimary
p124
I01
sasVkey
p125
g15
sVsectionNames
p126
(lp127
VChapter
p128
aVTosefta
p129
assbsS'_primary_title'
p130
(dp131
sS'title_group'
p132
g2
(csefaria.model.schema
TitleGroup
p133
g4
Ntp134
Rp135
(dp136
g130
(dp137
S'en'
p138
g123
ssS'titles'
p139
g72
sbsS'_addressTypes'
p140
(lp141
g2
(csefaria.model.schema
AddressInteger
p142
g4
Ntp143
Rp144
(dp145
S'length'
p146
I3
sg52
I0
sbag2
(g142
g4
Ntp147
Rp148
(dp149
g146
Nsg52
I1
sbasS'sharedTitle'
p150
Nsg68
g69
sg70
I2
sS'_full_title'
p151
(dp152
g138
g123
ssS'key'
p153
g15
sS'checkFirst'
p154
NsS'_regexes'
p155
(dp156
sS'_leaf_nodes'
p157
(lp158
sg126
g127
sS'children'
p159
(lp160
sbsS'_range_index'
p161
NsS'_context'
p162
(dp163
sS'_padded'
p164
Nsg26
g29
sS'sections'
p165
(lp166
I1
aI1
asS'_first_spanned_ref'
p167
NsS'tref'
p168
VTosefta Uktsin 1:1
p169
sS'_spanned_refs'
p170
(lp171
sS'book'
p172
g123
sS'_range_depth'
p173
NsS'toSections'
p174
(lp175
I1
aI1
asS'_url'
p176
NsS'_normal'
p177
g169
sS'_ranged_refs'
p178
(lp179
sS'type'
p180
g64
sS'_prev'
p181
NsS'_he_normal'
p182
NsS'_next'
p183
Nsbag2
(g3
g4
Ntp184
Rp185
(dp186
g8
g11
sg161
Nsg162
(dp187
sg164
Nsg26
g29
sg165
(lp188
I1
aI2
asg167
Nsg168
VTosefta Uktsin 1:2
p189
sg170
(lp190
sg172
g123
sg173
Nsg174
(lp191
I1
aI2
asg176
Nsg177
g189
sg178
(lp192
sg180
g64
sg181
Nsg182
Nsg183
Nsbag2
(g3
g4
Ntp193
Rp194
(dp195
g8
g11
sg161
Nsg162
(dp196
sg164
Nsg26
g29
sg165
(lp197
I1
aI3
asg167
Nsg168
VTosefta Uktsin 1:3
p198
sg170
(lp199
sg172
g123
sg173
Nsg174
(lp200
I1
aI3
asg176
Nsg177
g198
sg178
(lp201
sg180
g64
sg181
Nsg182
Nsg183
Nsbag2
(g3
g4
Ntp202
Rp203
(dp204
g8
g11
sg161
Nsg162
(dp205
sg164
Nsg26
g29
sg165
(lp206
I1
aI4
asg167
Nsg168
VTosefta Uktsin 1:4
p207
sg170
(lp208
sg172
g123
sg173
Nsg174
(lp209
I1
aI4
asg176
Nsg177
g207
sg178
(lp210
sg180
g64
sg181
Nsg182
Nsg183
Nsbag2
(g3
g4
Ntp211
Rp212
(dp213
g8
g11
sg161
Nsg162
(dp214
sg164
Nsg26
g29
sg165
(lp215
I2
aI1
asg167
Nsg168
VTosefta Uktsin 2:1
p216
sg170
(lp217
sg172
g123
sg173
Nsg174
(lp218
I2
aI1
asg176
Nsg177
g216
sg178
(lp219
sg180
g64
sg181
Nsg182
Nsg183
Nsbag2
(g3
g4
Ntp220
Rp221
(dp222
g8
g11
sg161
Nsg162
(dp223
sg164
Nsg26
g29
sg165
(lp224
I2
aI2
asg167
Nsg168
VTosefta Uktsin 2:2
p225
sg170
(lp226
sg172
g123
sg173
Nsg174
(lp227
I2
aI2
asg176
Nsg177
g225
sg178
(lp228
sg180
g64
sg181
Nsg182
Nsg183
Nsbag2
(g3
g4
Ntp229
Rp230
(dp231
g8
g11
sg161
Nsg162
(dp232
sg164
Nsg26
g29
sg165
(lp233
I2
aI3
asg167
Nsg168
VTosefta Uktsin 2:3
p234
sg170
(lp235
sg172
g123
sg173
Nsg174
(lp236
I2
aI3
asg176
Nsg177
g234
sg178
(lp237
sg180
g64
sg181
Nsg182
Nsg183
Nsbag2
(g3
g4
Ntp238
Rp239
(dp240
g8
g11
sg161
Nsg162
(dp241
sg164
Nsg26
g29
sg165
(lp242
I2
aI4
asg167
Nsg168
VTosefta Uktsin 2:4
p243
sg170
(lp244
sg172
g123
sg173
Nsg174
(lp245
I2
aI4
asg176
Nsg177
g243
sg178
(lp246
sg180
g64
sg181
Nsg182
Nsg183
Nsbag2
(g3
g4
Ntp247
Rp248
(dp249
g8
g11
sg161
Nsg162
(dp250
sg164
Nsg26
g29
sg165
(lp251
I2
aI5
asg167
Nsg168
VTosefta Uktsin 2:5
p252
sg170
(lp253
sg172
g123
sg173
Nsg174
(lp254
I2
aI5
asg176
Nsg177
g252
sg178
(lp255
sg180
g64
sg181
Nsg182
Nsg183
Nsbag2
(g3
g4
Ntp256
Rp257
(dp258
g8
g11
sg161
Nsg162
(dp259
sg164
Nsg26
g29
sg165
(lp260
I2
aI6
asg167
Nsg168
VTosefta Uktsin 2:6
p261
sg170
(lp262
sg172
g123
sg173
Nsg174
(lp263
I2
aI6
asg176
Nsg177
g261
sg178
(lp264
sg180
g64
sg181
Nsg182
Nsg183
Nsbag2
(g3
g4
Ntp265
Rp266
(dp267
g8
g11
sg161
Nsg162
(dp268
sg164
Nsg26
g29
sg165
(lp269
I2
aI7
asg167
Nsg168
VTosefta Uktsin 2:7
p270
sg170
(lp271
sg172
g123
sg173
Nsg174
(lp272
I2
aI7
asg176
Nsg177
g270
sg178
(lp273
sg180
g64
sg181
Nsg182
Nsg183
Nsbag2
(g3
g4
Ntp274
Rp275
(dp276
g8
g11
sg161
Nsg162
(dp277
sg164
Nsg26
g29
sg165
(lp278
I2
aI8
asg167
Nsg168
VTosefta Uktsin 2:8
p279
sg170
(lp280
sg172
g123
sg173
Nsg174
(lp281
I2
aI8
asg176
Nsg177
g279
sg178
(lp282
sg180
g64
sg181
Nsg182
Nsg183
Nsbag2
(g3
g4
Ntp283
Rp284
(dp285
g8
g11
sg161
Nsg162
(dp286
sg164
Nsg26
g29
sg165
(lp287
I3
aI1
asg167
Nsg168
VTosefta Uktsin 3:1
p288
sg170
(lp289
sg172
g123
sg173
Nsg174
(lp290
I3
aI1
asg176
Nsg177
g288
sg178
(lp291
sg180
g64
sg181
Nsg182
Nsg183
Nsbag2
(g3
g4
Ntp292
Rp293
(dp294
g8
g11
sg161
Nsg162
(dp295
sg164
Nsg26
g29
sg165
(lp296
I3
aI2
asg167
Nsg168
VTosefta Uktsin 3:2
p297
sg170
(lp298
sg172
g123
sg173
Nsg174
(lp299
I3
aI2
asg176
Nsg177
g297
sg178
(lp300
sg180
g64
sg181
Nsg182
Nsg183
Nsbag2
(g3
g4
Ntp301
Rp302
(dp303
g8
g11
sg161
Nsg162
(dp304
sg164
Nsg26
g29
sg165
(lp305
I3
aI3
asg167
Nsg168
VTosefta Uktsin 3:3
p306
sg170
(lp307
sg172
g123
sg173
Nsg174
(lp308
I3
aI3
asg176
Nsg177
g306
sg178
(lp309
sg180
g64
sg181
Nsg182
Nsg183
Nsbag2
(g3
g4
Ntp310
Rp311
(dp312
g8
g11
sg161
Nsg162
(dp313
sg164
Nsg26
g29
sg165
(lp314
I3
aI4
asg167
Nsg168
VTosefta Uktsin 3:4
p315
sg170
(lp316
sg172
g123
sg173
Nsg174
(lp317
I3
aI4
asg176
Nsg177
g315
sg178
(lp318
sg180
g64
sg181
Nsg182
Nsg183
Nsbag2
(g3
g4
Ntp319
Rp320
(dp321
g8
g11
sg161
Nsg162
(dp322
sg164
Nsg26
g29
sg165
(lp323
I3
aI5
asg167
Nsg168
VTosefta Uktsin 3:5
p324
sg170
(lp325
sg172
g123
sg173
Nsg174
(lp326
I3
aI5
asg176
Nsg177
g324
sg178
(lp327
sg180
g64
sg181
Nsg182
Nsg183
Nsbag2
(g3
g4
Ntp328
Rp329
(dp330
g8
g11
sg161
Nsg162
(dp331
sg164
Nsg26
g29
sg165
(lp332
I3
aI6
asg167
Nsg168
VTosefta Uktsin 3:6
p333
sg170
(lp334
sg172
g123
sg173
Nsg174
(lp335
I3
aI6
asg176
Nsg177
g333
sg178
(lp336
sg180
g64
sg181
Nsg182
Nsg183
Nsbag2
(g3
g4
Ntp337
Rp338
(dp339
g8
g11
sg161
Nsg162
(dp340
sg164
Nsg26
g29
sg165
(lp341
I3
aI7
asg167
Nsg168
VTosefta Uktsin 3:7
p342
sg170
(lp343
sg172
g123
sg173
Nsg174
(lp344
I3
aI7
asg176
Nsg177
g342
sg178
(lp345
sg180
g64
sg181
Nsg182
Nsg183
Nsbag2
(g3
g4
Ntp346
Rp347
(dp348
g8
g11
sg161
Nsg162
(dp349
sg164
Nsg26
g29
sg165
(lp350
I3
aI8
asg167
Nsg168
VTosefta Uktsin 3:8
p351
sg170
(lp352
sg172
g123
sg173
Nsg174
(lp353
I3
aI8
asg176
Nsg177
g351
sg178
(lp354
sg180
g64
sg181
Nsg182
Nsg183
Nsbag2
(g3
g4
Ntp355
Rp356
(dp357
g8
g11
sg161
Nsg162
(dp358
sg164
Nsg26
g29
sg165
(lp359
I3
aI9
asg167
Nsg168
VTosefta Uktsin 3:9
p360
sg170
(lp361
sg172
g123
sg173
Nsg174
(lp362
I3
aI9
asg176
Nsg177
g360
sg178
(lp363
sg180
g64
sg181
Nsg182
Nsg183
Nsbatp364
.