((lp0
I0
aI47
aI118
aI137
aI158
aI188
aI232
aI296
aI372
aI401
aI456
aI512
aI561
aI576
aI671
aI711
aI844
aI972
aI1035
aI1083
aI1148
aI1230
aI1327
aI1355
aI1419
aI1459
aI1537
aI1599
aI1824
aI1911
aI2003
a(lp1
ccopy_reg
_reconstructor
p2
(csefaria.model.text
Ref
p3
c__builtin__
object
p4
Ntp5
Rp6
(dp7
S'index_node'
p8
g2
(csefaria.model.schema
JaggedArrayNode
p9
g4
Ntp10
Rp11
(dp12
S'_address'
p13
(lp14
VTosefta Rosh HaShanah
p15
asS'_full_titles'
p16
(dp17
sVnodeType
p18
VJaggedArrayNode
p19
sS'parent'
p20
NsVaddressTypes
p21
(lp22
VInteger
p23
aVInteger
p24
asS'default'
p25
I00
sS'index'
p26
g2
(csefaria.model.text
Index
p27
g4
Ntp28
Rp29
(dp30
S'struct_objs'
p31
(dp32
sS'_id'
p33
g2
(cbson.objectid
ObjectId
p34
g4
Ntp35
Rp36
S'S*\xe9\x05\xfb\xfb\xa2M\x19\x8eQ\x18'
p37
bsS'pkeys_orig_values'
p38
(dp39
S'title'
p40
VTosefta Rosh HaShanah
p41
ssS'pubDate'
p42
V1521
p43
sS'transliteratedTitle'
p44
VTosefta Rosh HaShanah
p45
sS'pubPlace'
p46
VVenice
p47
sS'compPlace'
p48
VTalmudic Israel
p49
sS'enDesc'
p50
VThe Tosefta (Supplement, addition") is a compilation of the Jewish oral law. Opinions differ widely as to when the Tosefta was redacted and how it relates to the Mishnah. However it closely corresponds to the Mishnah in structure and style, with the same divisions for sedarim ("orders") and masekhot ("tractates"). In many ways, the Tosefta acts as a supplement to the Mishnah. It is mainly written in Mishnaic Hebrew, with some Aramaic. Rosh Hashanah (New Year) belongs to the second order, Moed (Festivals) and discusses the regulation of the calendar by the new moon, and with the services of the festival of Rosh Hashanah. It has two chapters.
p51
sS'order'
p52
(lp53
I8
asS'era'
p54
VT
p55
sS'compDate'
p56
V210
p57
sS'nodes'
p58
g11
sS'errorMargin'
p59
V20
p60
sS'_title'
p61
g41
sS'categories'
p62
(lp63
VTosefta
p64
aVSeder Moed
p65
asS'schema'
p66
(dp67
g18
g19
sg21
g22
sVlengths
p68
(lp69
I2
asVdepth
p70
I2
sVtitles
p71
(lp72
(dp73
Vlang
p74
Ven
p75
sVtext
p76
VTos. Rosh Hashanah
p77
sa(dp78
Vlang
p79
Ven
p80
sVtext
p81
VT. Rosh Hashanah
p82
sa(dp83
Vlang
p84
Ven
p85
sVtext
p86
VTosefta Rosh HaShannah
p87
sa(dp88
Vlang
p89
Vhe
p90
sVtext
p91
V\u05ea\u05d5\u05e1\u05e4\u05ea\u05d0 \u05e8\u05d0\u05e9 \u05d4\u05e9\u05e0\u05d4
p92
sVprimary
p93
I01
sa(dp94
Vlang
p95
Ven
p96
sVtext
p97
VTosefta Rosh HaShanah
p98
sVprimary
p99
I01
sasVkey
p100
g15
sVsectionNames
p101
(lp102
VChapter
p103
aVTosefta
p104
assbsS'_primary_title'
p105
(dp106
sS'title_group'
p107
g2
(csefaria.model.schema
TitleGroup
p108
g4
Ntp109
Rp110
(dp111
g105
(dp112
S'en'
p113
g98
ssS'titles'
p114
g72
sbsS'_addressTypes'
p115
(lp116
g2
(csefaria.model.schema
AddressInteger
p117
g4
Ntp118
Rp119
(dp120
S'length'
p121
I2
sg52
I0
sbag2
(g117
g4
Ntp122
Rp123
(dp124
g121
Nsg52
I1
sbasS'sharedTitle'
p125
Nsg68
g69
sg70
I2
sS'_full_title'
p126
(dp127
g113
g98
ssS'key'
p128
g15
sS'checkFirst'
p129
NsS'_regexes'
p130
(dp131
sS'_leaf_nodes'
p132
(lp133
sg101
g102
sS'children'
p134
(lp135
sbsS'_range_index'
p136
NsS'_context'
p137
(dp138
sS'_padded'
p139
Nsg26
g29
sS'sections'
p140
(lp141
I1
aI1
asS'_first_spanned_ref'
p142
NsS'tref'
p143
VTosefta Rosh HaShanah 1:1
p144
sS'_spanned_refs'
p145
(lp146
sS'book'
p147
g98
sS'_range_depth'
p148
NsS'toSections'
p149
(lp150
I1
aI1
asS'_url'
p151
NsS'_normal'
p152
g144
sS'_ranged_refs'
p153
(lp154
sS'type'
p155
g64
sS'_prev'
p156
NsS'_he_normal'
p157
NsS'_next'
p158
Nsbag2
(g3
g4
Ntp159
Rp160
(dp161
g8
g11
sg136
Nsg137
(dp162
sg139
Nsg26
g29
sg140
(lp163
I1
aI2
asg142
Nsg143
VTosefta Rosh HaShanah 1:2
p164
sg145
(lp165
sg147
g98
sg148
Nsg149
(lp166
I1
aI2
asg151
Nsg152
g164
sg153
(lp167
sg155
g64
sg156
Nsg157
Nsg158
Nsbag2
(g3
g4
Ntp168
Rp169
(dp170
g8
g11
sg136
Nsg137
(dp171
sg139
Nsg26
g29
sg140
(lp172
I1
aI3
asg142
Nsg143
VTosefta Rosh HaShanah 1:3
p173
sg145
(lp174
sg147
g98
sg148
Nsg149
(lp175
I1
aI3
asg151
Nsg152
g173
sg153
(lp176
sg155
g64
sg156
Nsg157
Nsg158
Nsbag2
(g3
g4
Ntp177
Rp178
(dp179
g8
g11
sg136
Nsg137
(dp180
sg139
Nsg26
g29
sg140
(lp181
I1
aI4
asg142
Nsg143
VTosefta Rosh HaShanah 1:4
p182
sg145
(lp183
sg147
g98
sg148
Nsg149
(lp184
I1
aI4
asg151
Nsg152
g182
sg153
(lp185
sg155
g64
sg156
Nsg157
Nsg158
Nsbag2
(g3
g4
Ntp186
Rp187
(dp188
g8
g11
sg136
Nsg137
(dp189
sg139
Nsg26
g29
sg140
(lp190
I1
aI5
asg142
Nsg143
VTosefta Rosh HaShanah 1:5
p191
sg145
(lp192
sg147
g98
sg148
Nsg149
(lp193
I1
aI5
asg151
Nsg152
g191
sg153
(lp194
sg155
g64
sg156
Nsg157
Nsg158
Nsbag2
(g3
g4
Ntp195
Rp196
(dp197
g8
g11
sg136
Nsg137
(dp198
sg139
Nsg26
g29
sg140
(lp199
I1
aI6
asg142
Nsg143
VTosefta Rosh HaShanah 1:6
p200
sg145
(lp201
sg147
g98
sg148
Nsg149
(lp202
I1
aI6
asg151
Nsg152
g200
sg153
(lp203
sg155
g64
sg156
Nsg157
Nsg158
Nsbag2
(g3
g4
Ntp204
Rp205
(dp206
g8
g11
sg136
Nsg137
(dp207
sg139
Nsg26
g29
sg140
(lp208
I1
aI7
asg142
Nsg143
VTosefta Rosh HaShanah 1:7
p209
sg145
(lp210
sg147
g98
sg148
Nsg149
(lp211
I1
aI7
asg151
Nsg152
g209
sg153
(lp212
sg155
g64
sg156
Nsg157
Nsg158
Nsbag2
(g3
g4
Ntp213
Rp214
(dp215
g8
g11
sg136
Nsg137
(dp216
sg139
Nsg26
g29
sg140
(lp217
I1
aI8
asg142
Nsg143
VTosefta Rosh HaShanah 1:8
p218
sg145
(lp219
sg147
g98
sg148
Nsg149
(lp220
I1
aI8
asg151
Nsg152
g218
sg153
(lp221
sg155
g64
sg156
Nsg157
Nsg158
Nsbag2
(g3
g4
Ntp222
Rp223
(dp224
g8
g11
sg136
Nsg137
(dp225
sg139
Nsg26
g29
sg140
(lp226
I1
aI9
asg142
Nsg143
VTosefta Rosh HaShanah 1:9
p227
sg145
(lp228
sg147
g98
sg148
Nsg149
(lp229
I1
aI9
asg151
Nsg152
g227
sg153
(lp230
sg155
g64
sg156
Nsg157
Nsg158
Nsbag2
(g3
g4
Ntp231
Rp232
(dp233
g8
g11
sg136
Nsg137
(dp234
sg139
Nsg26
g29
sg140
(lp235
I1
aI10
asg142
Nsg143
VTosefta Rosh HaShanah 1:10
p236
sg145
(lp237
sg147
g98
sg148
Nsg149
(lp238
I1
aI10
asg151
Nsg152
g236
sg153
(lp239
sg155
g64
sg156
Nsg157
Nsg158
Nsbag2
(g3
g4
Ntp240
Rp241
(dp242
g8
g11
sg136
Nsg137
(dp243
sg139
Nsg26
g29
sg140
(lp244
I1
aI11
asg142
Nsg143
VTosefta Rosh HaShanah 1:11
p245
sg145
(lp246
sg147
g98
sg148
Nsg149
(lp247
I1
aI11
asg151
Nsg152
g245
sg153
(lp248
sg155
g64
sg156
Nsg157
Nsg158
Nsbag2
(g3
g4
Ntp249
Rp250
(dp251
g8
g11
sg136
Nsg137
(dp252
sg139
Nsg26
g29
sg140
(lp253
I1
aI12
asg142
Nsg143
VTosefta Rosh HaShanah 1:12
p254
sg145
(lp255
sg147
g98
sg148
Nsg149
(lp256
I1
aI12
asg151
Nsg152
g254
sg153
(lp257
sg155
g64
sg156
Nsg157
Nsg158
Nsbag2
(g3
g4
Ntp258
Rp259
(dp260
g8
g11
sg136
Nsg137
(dp261
sg139
Nsg26
g29
sg140
(lp262
I1
aI13
asg142
Nsg143
VTosefta Rosh HaShanah 1:13
p263
sg145
(lp264
sg147
g98
sg148
Nsg149
(lp265
I1
aI13
asg151
Nsg152
g263
sg153
(lp266
sg155
g64
sg156
Nsg157
Nsg158
Nsbag2
(g3
g4
Ntp267
Rp268
(dp269
g8
g11
sg136
Nsg137
(dp270
sg139
Nsg26
g29
sg140
(lp271
I1
aI14
asg142
Nsg143
VTosefta Rosh HaShanah 1:14
p272
sg145
(lp273
sg147
g98
sg148
Nsg149
(lp274
I1
aI14
asg151
Nsg152
g272
sg153
(lp275
sg155
g64
sg156
Nsg157
Nsg158
Nsbag2
(g3
g4
Ntp276
Rp277
(dp278
g8
g11
sg136
Nsg137
(dp279
sg139
Nsg26
g29
sg140
(lp280
I1
aI15
asg142
Nsg143
VTosefta Rosh HaShanah 1:15
p281
sg145
(lp282
sg147
g98
sg148
Nsg149
(lp283
I1
aI15
asg151
Nsg152
g281
sg153
(lp284
sg155
g64
sg156
Nsg157
Nsg158
Nsbag2
(g3
g4
Ntp285
Rp286
(dp287
g8
g11
sg136
Nsg137
(dp288
sg139
Nsg26
g29
sg140
(lp289
I1
aI16
asg142
Nsg143
VTosefta Rosh HaShanah 1:16
p290
sg145
(lp291
sg147
g98
sg148
Nsg149
(lp292
I1
aI16
asg151
Nsg152
g290
sg153
(lp293
sg155
g64
sg156
Nsg157
Nsg158
Nsbag2
(g3
g4
Ntp294
Rp295
(dp296
g8
g11
sg136
Nsg137
(dp297
sg139
Nsg26
g29
sg140
(lp298
I1
aI17
asg142
Nsg143
VTosefta Rosh HaShanah 1:17
p299
sg145
(lp300
sg147
g98
sg148
Nsg149
(lp301
I1
aI17
asg151
Nsg152
g299
sg153
(lp302
sg155
g64
sg156
Nsg157
Nsg158
Nsbag2
(g3
g4
Ntp303
Rp304
(dp305
g8
g11
sg136
Nsg137
(dp306
sg139
Nsg26
g29
sg140
(lp307
I2
aI1
asg142
Nsg143
VTosefta Rosh HaShanah 2:1
p308
sg145
(lp309
sg147
g98
sg148
Nsg149
(lp310
I2
aI1
asg151
Nsg152
g308
sg153
(lp311
sg155
g64
sg156
Nsg157
Nsg158
Nsbag2
(g3
g4
Ntp312
Rp313
(dp314
g8
g11
sg136
Nsg137
(dp315
sg139
Nsg26
g29
sg140
(lp316
I2
aI2
asg142
Nsg143
VTosefta Rosh HaShanah 2:2
p317
sg145
(lp318
sg147
g98
sg148
Nsg149
(lp319
I2
aI2
asg151
Nsg152
g317
sg153
(lp320
sg155
g64
sg156
Nsg157
Nsg158
Nsbag2
(g3
g4
Ntp321
Rp322
(dp323
g8
g11
sg136
Nsg137
(dp324
sg139
Nsg26
g29
sg140
(lp325
I2
aI3
asg142
Nsg143
VTosefta Rosh HaShanah 2:3
p326
sg145
(lp327
sg147
g98
sg148
Nsg149
(lp328
I2
aI3
asg151
Nsg152
g326
sg153
(lp329
sg155
g64
sg156
Nsg157
Nsg158
Nsbag2
(g3
g4
Ntp330
Rp331
(dp332
g8
g11
sg136
Nsg137
(dp333
sg139
Nsg26
g29
sg140
(lp334
I2
aI4
asg142
Nsg143
VTosefta Rosh HaShanah 2:4
p335
sg145
(lp336
sg147
g98
sg148
Nsg149
(lp337
I2
aI4
asg151
Nsg152
g335
sg153
(lp338
sg155
g64
sg156
Nsg157
Nsg158
Nsbag2
(g3
g4
Ntp339
Rp340
(dp341
g8
g11
sg136
Nsg137
(dp342
sg139
Nsg26
g29
sg140
(lp343
I2
aI5
asg142
Nsg143
VTosefta Rosh HaShanah 2:5
p344
sg145
(lp345
sg147
g98
sg148
Nsg149
(lp346
I2
aI5
asg151
Nsg152
g344
sg153
(lp347
sg155
g64
sg156
Nsg157
Nsg158
Nsbag2
(g3
g4
Ntp348
Rp349
(dp350
g8
g11
sg136
Nsg137
(dp351
sg139
Nsg26
g29
sg140
(lp352
I2
aI6
asg142
Nsg143
VTosefta Rosh HaShanah 2:6
p353
sg145
(lp354
sg147
g98
sg148
Nsg149
(lp355
I2
aI6
asg151
Nsg152
g353
sg153
(lp356
sg155
g64
sg156
Nsg157
Nsg158
Nsbag2
(g3
g4
Ntp357
Rp358
(dp359
g8
g11
sg136
Nsg137
(dp360
sg139
Nsg26
g29
sg140
(lp361
I2
aI7
asg142
Nsg143
VTosefta Rosh HaShanah 2:7
p362
sg145
(lp363
sg147
g98
sg148
Nsg149
(lp364
I2
aI7
asg151
Nsg152
g362
sg153
(lp365
sg155
g64
sg156
Nsg157
Nsg158
Nsbag2
(g3
g4
Ntp366
Rp367
(dp368
g8
g11
sg136
Nsg137
(dp369
sg139
Nsg26
g29
sg140
(lp370
I2
aI8
asg142
Nsg143
VTosefta Rosh HaShanah 2:8
p371
sg145
(lp372
sg147
g98
sg148
Nsg149
(lp373
I2
aI8
asg151
Nsg152
g371
sg153
(lp374
sg155
g64
sg156
Nsg157
Nsg158
Nsbag2
(g3
g4
Ntp375
Rp376
(dp377
g8
g11
sg136
Nsg137
(dp378
sg139
Nsg26
g29
sg140
(lp379
I2
aI9
asg142
Nsg143
VTosefta Rosh HaShanah 2:9
p380
sg145
(lp381
sg147
g98
sg148
Nsg149
(lp382
I2
aI9
asg151
Nsg152
g380
sg153
(lp383
sg155
g64
sg156
Nsg157
Nsg158
Nsbag2
(g3
g4
Ntp384
Rp385
(dp386
g8
g11
sg136
Nsg137
(dp387
sg139
Nsg26
g29
sg140
(lp388
I2
aI10
asg142
Nsg143
VTosefta Rosh HaShanah 2:10
p389
sg145
(lp390
sg147
g98
sg148
Nsg149
(lp391
I2
aI10
asg151
Nsg152
g389
sg153
(lp392
sg155
g64
sg156
Nsg157
Nsg158
Nsbag2
(g3
g4
Ntp393
Rp394
(dp395
g8
g11
sg136
Nsg137
(dp396
sg139
Nsg26
g29
sg140
(lp397
I2
aI11
asg142
Nsg143
VTosefta Rosh HaShanah 2:11
p398
sg145
(lp399
sg147
g98
sg148
Nsg149
(lp400
I2
aI11
asg151
Nsg152
g398
sg153
(lp401
sg155
g64
sg156
Nsg157
Nsg158
Nsbag2
(g3
g4
Ntp402
Rp403
(dp404
g8
g11
sg136
Nsg137
(dp405
sg139
Nsg26
g29
sg140
(lp406
I2
aI12
asg142
Nsg143
VTosefta Rosh HaShanah 2:12
p407
sg145
(lp408
sg147
g98
sg148
Nsg149
(lp409
I2
aI12
asg151
Nsg152
g407
sg153
(lp410
sg155
g64
sg156
Nsg157
Nsg158
Nsbag2
(g3
g4
Ntp411
Rp412
(dp413
g8
g11
sg136
Nsg137
(dp414
sg139
Nsg26
g29
sg140
(lp415
I2
aI13
asg142
Nsg143
VTosefta Rosh HaShanah 2:13
p416
sg145
(lp417
sg147
g98
sg148
Nsg149
(lp418
I2
aI13
asg151
Nsg152
g416
sg153
(lp419
sg155
g64
sg156
Nsg157
Nsg158
Nsbag2
(g3
g4
Ntp420
Rp421
(dp422
g8
g11
sg136
Nsg137
(dp423
sg139
Nsg26
g29
sg140
(lp424
I2
aI14
asg142
Nsg143
VTosefta Rosh HaShanah 2:14
p425
sg145
(lp426
sg147
g98
sg148
Nsg149
(lp427
I2
aI14
asg151
Nsg152
g425
sg153
(lp428
sg155
g64
sg156
Nsg157
Nsg158
Nsbatp429
.