((lp0
I0
aI40
aI58
aI101
aI132
aI177
aI195
aI223
a(lp1
ccopy_reg
_reconstructor
p2
(csefaria.model.text
Ref
p3
c__builtin__
object
p4
Ntp5
Rp6
(dp7
S'index_node'
p8
g2
(csefaria.model.schema
JaggedArrayNode
p9
g4
Ntp10
Rp11
(dp12
S'_address'
p13
(lp14
VTosefta Orlah
p15
asS'_full_titles'
p16
(dp17
sVnodeType
p18
VJaggedArrayNode
p19
sS'parent'
p20
NsVaddressTypes
p21
(lp22
VInteger
p23
aVInteger
p24
asS'default'
p25
I00
sS'index'
p26
g2
(csefaria.model.text
Index
p27
g4
Ntp28
Rp29
(dp30
S'struct_objs'
p31
(dp32
sS'_id'
p33
g2
(cbson.objectid
ObjectId
p34
g4
Ntp35
Rp36
S'Q\xdb\x83\xb7\xed\xba\xb4R<\xea.\xcb'
p37
bsS'pkeys_orig_values'
p38
(dp39
S'title'
p40
VTosefta Orlah
p41
ssS'pubDate'
p42
V1521
p43
sS'transliteratedTitle'
p44
VTosefta Orlah
p45
sS'pubPlace'
p46
VVenice
p47
sS'compPlace'
p48
VTalmudic Israel
p49
sS'enDesc'
p50
VThe Tosefta (Supplement, addition") is a compilation of the Jewish oral law. Opinions differ widely as to when the Tosefta was redacted and how it relates to the Mishnah. However it closely corresponds to the Mishnah in structure and style, with the same divisions for sedarim ("orders") and masekhot ("tractates"). In many ways, the Tosefta acts as a supplement to the Mishnah. It is mainly written in Mishnaic Hebrew, with some Aramaic. Orlah (Blockage [of Trees]) belongs to the first order, Zera'im (seeds) and discusses the first-fruit gifts to the Kohanim and Temple, as stated in Exodus 23:19; Deuteronomy 26:1. It consists of three to one chapters.
p51
sS'order'
p52
(lp53
I9
asS'era'
p54
VT
p55
sS'compDate'
p56
V210
p57
sS'nodes'
p58
g11
sS'errorMargin'
p59
V20
p60
sS'_title'
p61
g41
sS'categories'
p62
(lp63
VTosefta
p64
aVSeder Zeraim
p65
asS'schema'
p66
(dp67
g18
g19
sg21
g22
sVlengths
p68
(lp69
I1
asVdepth
p70
I2
sVtitles
p71
(lp72
(dp73
Vlang
p74
Ven
p75
sVtext
p76
VT. Orlah
p77
sa(dp78
Vlang
p79
Ven
p80
sVtext
p81
VTos. Orlah
p82
sa(dp83
Vlang
p84
Vhe
p85
sVtext
p86
V\u05ea\u05d5\u05e1\u05e4\u05ea\u05d0 \u05e2\u05e8\u05dc\u05d4
p87
sVprimary
p88
I01
sa(dp89
Vlang
p90
Ven
p91
sVtext
p92
VTosefta Orlah
p93
sVprimary
p94
I01
sasVkey
p95
g15
sVsectionNames
p96
(lp97
VChapter
p98
aVTosefta
p99
assbsS'_primary_title'
p100
(dp101
sS'title_group'
p102
g2
(csefaria.model.schema
TitleGroup
p103
g4
Ntp104
Rp105
(dp106
g100
(dp107
S'en'
p108
g93
ssS'titles'
p109
g72
sbsS'_addressTypes'
p110
(lp111
g2
(csefaria.model.schema
AddressInteger
p112
g4
Ntp113
Rp114
(dp115
S'length'
p116
I1
sg52
I0
sbag2
(g112
g4
Ntp117
Rp118
(dp119
g116
Nsg52
I1
sbasS'sharedTitle'
p120
Nsg68
g69
sg70
I2
sS'_full_title'
p121
(dp122
g108
g93
ssS'key'
p123
g15
sS'checkFirst'
p124
NsS'_regexes'
p125
(dp126
sS'_leaf_nodes'
p127
(lp128
sg96
g97
sS'children'
p129
(lp130
sbsS'_range_index'
p131
NsS'_context'
p132
(dp133
sS'_padded'
p134
Nsg26
g29
sS'sections'
p135
(lp136
I1
aI1
asS'_first_spanned_ref'
p137
NsS'tref'
p138
VTosefta Orlah 1:1
p139
sS'_spanned_refs'
p140
(lp141
sS'book'
p142
g93
sS'_range_depth'
p143
NsS'toSections'
p144
(lp145
I1
aI1
asS'_url'
p146
NsS'_normal'
p147
g139
sS'_ranged_refs'
p148
(lp149
sS'type'
p150
g64
sS'_prev'
p151
NsS'_he_normal'
p152
NsS'_next'
p153
Nsbag2
(g3
g4
Ntp154
Rp155
(dp156
g8
g11
sg131
Nsg132
(dp157
sg134
Nsg26
g29
sg135
(lp158
I1
aI2
asg137
Nsg138
VTosefta Orlah 1:2
p159
sg140
(lp160
sg142
g93
sg143
Nsg144
(lp161
I1
aI2
asg146
Nsg147
g159
sg148
(lp162
sg150
g64
sg151
Nsg152
Nsg153
Nsbag2
(g3
g4
Ntp163
Rp164
(dp165
g8
g11
sg131
Nsg132
(dp166
sg134
Nsg26
g29
sg135
(lp167
I1
aI3
asg137
Nsg138
VTosefta Orlah 1:3
p168
sg140
(lp169
sg142
g93
sg143
Nsg144
(lp170
I1
aI3
asg146
Nsg147
g168
sg148
(lp171
sg150
g64
sg151
Nsg152
Nsg153
Nsbag2
(g3
g4
Ntp172
Rp173
(dp174
g8
g11
sg131
Nsg132
(dp175
sg134
Nsg26
g29
sg135
(lp176
I1
aI4
asg137
Nsg138
VTosefta Orlah 1:4
p177
sg140
(lp178
sg142
g93
sg143
Nsg144
(lp179
I1
aI4
asg146
Nsg147
g177
sg148
(lp180
sg150
g64
sg151
Nsg152
Nsg153
Nsbag2
(g3
g4
Ntp181
Rp182
(dp183
g8
g11
sg131
Nsg132
(dp184
sg134
Nsg26
g29
sg135
(lp185
I1
aI5
asg137
Nsg138
VTosefta Orlah 1:5
p186
sg140
(lp187
sg142
g93
sg143
Nsg144
(lp188
I1
aI5
asg146
Nsg147
g186
sg148
(lp189
sg150
g64
sg151
Nsg152
Nsg153
Nsbag2
(g3
g4
Ntp190
Rp191
(dp192
g8
g11
sg131
Nsg132
(dp193
sg134
Nsg26
g29
sg135
(lp194
I1
aI6
asg137
Nsg138
VTosefta Orlah 1:6
p195
sg140
(lp196
sg142
g93
sg143
Nsg144
(lp197
I1
aI6
asg146
Nsg147
g195
sg148
(lp198
sg150
g64
sg151
Nsg152
Nsg153
Nsbag2
(g3
g4
Ntp199
Rp200
(dp201
g8
g11
sg131
Nsg132
(dp202
sg134
Nsg26
g29
sg135
(lp203
I1
aI7
asg137
Nsg138
VTosefta Orlah 1:7
p204
sg140
(lp205
sg142
g93
sg143
Nsg144
(lp206
I1
aI7
asg146
Nsg147
g204
sg148
(lp207
sg150
g64
sg151
Nsg152
Nsg153
Nsbag2
(g3
g4
Ntp208
Rp209
(dp210
g8
g11
sg131
Nsg132
(dp211
sg134
Nsg26
g29
sg135
(lp212
I1
aI8
asg137
Nsg138
VTosefta Orlah 1:8
p213
sg140
(lp214
sg142
g93
sg143
Nsg144
(lp215
I1
aI8
asg146
Nsg147
g213
sg148
(lp216
sg150
g64
sg151
Nsg152
Nsg153
Nsbatp217
.