((lp0
I0
aI105
aI184
aI293
aI321
aI369
aI409
aI489
aI592
aI650
aI707
aI796
aI814
aI893
aI937
aI1029
aI1258
aI1396
aI1609
aI1786
aI1830
aI1908
aI2395
aI2507
aI2745
aI3033
aI3184
aI3222
aI3308
aI3340
aI3399
aI3583
aI3642
aI3779
aI3885
aI3952
aI4257
aI4485
aI4751
aI4783
aI4942
aI5110
aI5268
aI5286
aI5388
aI5408
aI5458
aI5570
aI5717
aI5844
aI5977
aI6040
aI6074
aI6171
aI6318
aI6430
aI6523
aI6603
aI6702
aI6849
aI6872
aI6945
aI7080
aI7374
aI7432
aI7452
aI7483
aI7496
aI7956
aI8238
aI8316
aI8473
aI8535
aI8739
aI8852
aI8933
aI8994
aI9095
aI9256
aI9312
aI9418
aI9498
aI9564
aI9642
aI9686
aI9898
aI9934
aI10081
aI10118
aI10172
aI10279
aI10323
aI10495
aI10550
aI10613
aI10687
aI10993
aI11120
aI11295
aI11377
aI11502
a(lp1
ccopy_reg
_reconstructor
p2
(csefaria.model.text
Ref
p3
c__builtin__
object
p4
Ntp5
Rp6
(dp7
S'index_node'
p8
g2
(csefaria.model.schema
JaggedArrayNode
p9
g4
Ntp10
Rp11
(dp12
S'_address'
p13
(lp14
VTosefta Sotah
p15
asS'_full_titles'
p16
(dp17
sVnodeType
p18
VJaggedArrayNode
p19
sS'parent'
p20
NsVaddressTypes
p21
(lp22
VInteger
p23
aVInteger
p24
asS'default'
p25
I00
sS'index'
p26
g2
(csefaria.model.text
Index
p27
g4
Ntp28
Rp29
(dp30
S'struct_objs'
p31
(dp32
sS'_id'
p33
g2
(cbson.objectid
ObjectId
p34
g4
Ntp35
Rp36
S'S-\xe9h\xfb\xfb\xa2\x0eR\x907\x93'
p37
bsS'pkeys_orig_values'
p38
(dp39
S'title'
p40
VTosefta Sotah
p41
ssS'pubDate'
p42
V1521
p43
sS'transliteratedTitle'
p44
VTosefta Sotah
p45
sS'pubPlace'
p46
VVenice
p47
sS'compPlace'
p48
VTalmudic Israel
p49
sS'enDesc'
p50
VThe Tosefta (Supplement, addition") is a compilation of the Jewish oral law. Opinions differ widely as to when the Tosefta was redacted and how it relates to the Mishnah. However it closely corresponds to the Mishnah in structure and style, with the same divisions for sedarim ("orders") and masekhot ("tractates"). In many ways, the Tosefta acts as a supplement to the Mishnah. It is mainly written in Mishnaic Hebrew, with some Aramaic. Sotah (Wayward Wife) belongs to the third order, Nashim (Women) and discusses the ritual of the Sotah \u2013 the woman suspected of adultery (Num 5) as well as other rituals involving a spoken formula (such as breaking the heifer's neck, the King's septa-annual public Torah reading, the Blessings and Curses of Mount Gerizim and Mount Ebal, etc...). It has fifteen chapters.
p51
sS'order'
p52
(lp53
I5
asS'era'
p54
VT
p55
sS'compDate'
p56
V210
p57
sS'nodes'
p58
g11
sS'errorMargin'
p59
V20
p60
sS'_title'
p61
g41
sS'categories'
p62
(lp63
VTosefta
p64
aVSeder Nashim
p65
asS'schema'
p66
(dp67
g18
g19
sg21
g22
sVlengths
p68
(lp69
I15
asVdepth
p70
I2
sVtitles
p71
(lp72
(dp73
Vlang
p74
Ven
p75
sVtext
p76
VT. Sotah
p77
sa(dp78
Vlang
p79
Ven
p80
sVtext
p81
VTos. Sotah
p82
sa(dp83
Vlang
p84
Ven
p85
sVtext
p86
VTosefta Sota
p87
sa(dp88
Vlang
p89
Vhe
p90
sVtext
p91
V\u05ea\u05d5\u05e1\u05e4\u05ea\u05d0 \u05e1\u05d5\u05d8\u05d4
p92
sVprimary
p93
I01
sa(dp94
Vlang
p95
Ven
p96
sVtext
p97
VTosefta Sotah
p98
sVprimary
p99
I01
sasVkey
p100
g15
sVsectionNames
p101
(lp102
VChapter
p103
aVTosefta
p104
assbsS'_primary_title'
p105
(dp106
sS'title_group'
p107
g2
(csefaria.model.schema
TitleGroup
p108
g4
Ntp109
Rp110
(dp111
g105
(dp112
S'en'
p113
g98
ssS'titles'
p114
g72
sbsS'_addressTypes'
p115
(lp116
g2
(csefaria.model.schema
AddressInteger
p117
g4
Ntp118
Rp119
(dp120
S'length'
p121
I15
sg52
I0
sbag2
(g117
g4
Ntp122
Rp123
(dp124
g121
Nsg52
I1
sbasS'sharedTitle'
p125
Nsg68
g69
sg70
I2
sS'_full_title'
p126
(dp127
g113
g98
ssS'key'
p128
g15
sS'checkFirst'
p129
NsS'_regexes'
p130
(dp131
sS'_leaf_nodes'
p132
(lp133
sg101
g102
sS'children'
p134
(lp135
sbsS'_range_index'
p136
NsS'_context'
p137
(dp138
sS'_padded'
p139
Nsg26
g29
sS'sections'
p140
(lp141
I1
aI1
asS'_first_spanned_ref'
p142
NsS'tref'
p143
VTosefta Sotah 1:1
p144
sS'_spanned_refs'
p145
(lp146
sS'book'
p147
g98
sS'_range_depth'
p148
NsS'toSections'
p149
(lp150
I1
aI1
asS'_url'
p151
NsS'_normal'
p152
g144
sS'_ranged_refs'
p153
(lp154
sS'type'
p155
g64
sS'_prev'
p156
NsS'_he_normal'
p157
NsS'_next'
p158
Nsbag2
(g3
g4
Ntp159
Rp160
(dp161
g8
g11
sg136
Nsg137
(dp162
sg139
Nsg26
g29
sg140
(lp163
I1
aI2
asg142
Nsg143
VTosefta Sotah 1:2
p164
sg145
(lp165
sg147
g98
sg148
Nsg149
(lp166
I1
aI2
asg151
Nsg152
g164
sg153
(lp167
sg155
g64
sg156
Nsg157
Nsg158
Nsbag2
(g3
g4
Ntp168
Rp169
(dp170
g8
g11
sg136
Nsg137
(dp171
sg139
Nsg26
g29
sg140
(lp172
I1
aI3
asg142
Nsg143
VTosefta Sotah 1:3
p173
sg145
(lp174
sg147
g98
sg148
Nsg149
(lp175
I1
aI3
asg151
Nsg152
g173
sg153
(lp176
sg155
g64
sg156
Nsg157
Nsg158
Nsbag2
(g3
g4
Ntp177
Rp178
(dp179
g8
g11
sg136
Nsg137
(dp180
sg139
Nsg26
g29
sg140
(lp181
I1
aI4
asg142
Nsg143
VTosefta Sotah 1:4
p182
sg145
(lp183
sg147
g98
sg148
Nsg149
(lp184
I1
aI4
asg151
Nsg152
g182
sg153
(lp185
sg155
g64
sg156
Nsg157
Nsg158
Nsbag2
(g3
g4
Ntp186
Rp187
(dp188
g8
g11
sg136
Nsg137
(dp189
sg139
Nsg26
g29
sg140
(lp190
I1
aI5
asg142
Nsg143
VTosefta Sotah 1:5
p191
sg145
(lp192
sg147
g98
sg148
Nsg149
(lp193
I1
aI5
asg151
Nsg152
g191
sg153
(lp194
sg155
g64
sg156
Nsg157
Nsg158
Nsbag2
(g3
g4
Ntp195
Rp196
(dp197
g8
g11
sg136
Nsg137
(dp198
sg139
Nsg26
g29
sg140
(lp199
I1
aI6
asg142
Nsg143
VTosefta Sotah 1:6
p200
sg145
(lp201
sg147
g98
sg148
Nsg149
(lp202
I1
aI6
asg151
Nsg152
g200
sg153
(lp203
sg155
g64
sg156
Nsg157
Nsg158
Nsbag2
(g3
g4
Ntp204
Rp205
(dp206
g8
g11
sg136
Nsg137
(dp207
sg139
Nsg26
g29
sg140
(lp208
I1
aI7
asg142
Nsg143
VTosefta Sotah 1:7
p209
sg145
(lp210
sg147
g98
sg148
Nsg149
(lp211
I1
aI7
asg151
Nsg152
g209
sg153
(lp212
sg155
g64
sg156
Nsg157
Nsg158
Nsbag2
(g3
g4
Ntp213
Rp214
(dp215
g8
g11
sg136
Nsg137
(dp216
sg139
Nsg26
g29
sg140
(lp217
I2
aI1
asg142
Nsg143
VTosefta Sotah 2:1
p218
sg145
(lp219
sg147
g98
sg148
Nsg149
(lp220
I2
aI1
asg151
Nsg152
g218
sg153
(lp221
sg155
g64
sg156
Nsg157
Nsg158
Nsbag2
(g3
g4
Ntp222
Rp223
(dp224
g8
g11
sg136
Nsg137
(dp225
sg139
Nsg26
g29
sg140
(lp226
I2
aI2
asg142
Nsg143
VTosefta Sotah 2:2
p227
sg145
(lp228
sg147
g98
sg148
Nsg149
(lp229
I2
aI2
asg151
Nsg152
g227
sg153
(lp230
sg155
g64
sg156
Nsg157
Nsg158
Nsbag2
(g3
g4
Ntp231
Rp232
(dp233
g8
g11
sg136
Nsg137
(dp234
sg139
Nsg26
g29
sg140
(lp235
I2
aI3
asg142
Nsg143
VTosefta Sotah 2:3
p236
sg145
(lp237
sg147
g98
sg148
Nsg149
(lp238
I2
aI3
asg151
Nsg152
g236
sg153
(lp239
sg155
g64
sg156
Nsg157
Nsg158
Nsbag2
(g3
g4
Ntp240
Rp241
(dp242
g8
g11
sg136
Nsg137
(dp243
sg139
Nsg26
g29
sg140
(lp244
I2
aI4
asg142
Nsg143
VTosefta Sotah 2:4
p245
sg145
(lp246
sg147
g98
sg148
Nsg149
(lp247
I2
aI4
asg151
Nsg152
g245
sg153
(lp248
sg155
g64
sg156
Nsg157
Nsg158
Nsbag2
(g3
g4
Ntp249
Rp250
(dp251
g8
g11
sg136
Nsg137
(dp252
sg139
Nsg26
g29
sg140
(lp253
I2
aI5
asg142
Nsg143
VTosefta Sotah 2:5
p254
sg145
(lp255
sg147
g98
sg148
Nsg149
(lp256
I2
aI5
asg151
Nsg152
g254
sg153
(lp257
sg155
g64
sg156
Nsg157
Nsg158
Nsbag2
(g3
g4
Ntp258
Rp259
(dp260
g8
g11
sg136
Nsg137
(dp261
sg139
Nsg26
g29
sg140
(lp262
I2
aI6
asg142
Nsg143
VTosefta Sotah 2:6
p263
sg145
(lp264
sg147
g98
sg148
Nsg149
(lp265
I2
aI6
asg151
Nsg152
g263
sg153
(lp266
sg155
g64
sg156
Nsg157
Nsg158
Nsbag2
(g3
g4
Ntp267
Rp268
(dp269
g8
g11
sg136
Nsg137
(dp270
sg139
Nsg26
g29
sg140
(lp271
I2
aI7
asg142
Nsg143
VTosefta Sotah 2:7
p272
sg145
(lp273
sg147
g98
sg148
Nsg149
(lp274
I2
aI7
asg151
Nsg152
g272
sg153
(lp275
sg155
g64
sg156
Nsg157
Nsg158
Nsbag2
(g3
g4
Ntp276
Rp277
(dp278
g8
g11
sg136
Nsg137
(dp279
sg139
Nsg26
g29
sg140
(lp280
I2
aI8
asg142
Nsg143
VTosefta Sotah 2:8
p281
sg145
(lp282
sg147
g98
sg148
Nsg149
(lp283
I2
aI8
asg151
Nsg152
g281
sg153
(lp284
sg155
g64
sg156
Nsg157
Nsg158
Nsbag2
(g3
g4
Ntp285
Rp286
(dp287
g8
g11
sg136
Nsg137
(dp288
sg139
Nsg26
g29
sg140
(lp289
I3
aI1
asg142
Nsg143
VTosefta Sotah 3:1
p290
sg145
(lp291
sg147
g98
sg148
Nsg149
(lp292
I3
aI1
asg151
Nsg152
g290
sg153
(lp293
sg155
g64
sg156
Nsg157
Nsg158
Nsbag2
(g3
g4
Ntp294
Rp295
(dp296
g8
g11
sg136
Nsg137
(dp297
sg139
Nsg26
g29
sg140
(lp298
I3
aI2
asg142
Nsg143
VTosefta Sotah 3:2
p299
sg145
(lp300
sg147
g98
sg148
Nsg149
(lp301
I3
aI2
asg151
Nsg152
g299
sg153
(lp302
sg155
g64
sg156
Nsg157
Nsg158
Nsbag2
(g3
g4
Ntp303
Rp304
(dp305
g8
g11
sg136
Nsg137
(dp306
sg139
Nsg26
g29
sg140
(lp307
I3
aI3
asg142
Nsg143
VTosefta Sotah 3:3
p308
sg145
(lp309
sg147
g98
sg148
Nsg149
(lp310
I3
aI3
asg151
Nsg152
g308
sg153
(lp311
sg155
g64
sg156
Nsg157
Nsg158
Nsbag2
(g3
g4
Ntp312
Rp313
(dp314
g8
g11
sg136
Nsg137
(dp315
sg139
Nsg26
g29
sg140
(lp316
I3
aI4
asg142
Nsg143
VTosefta Sotah 3:4
p317
sg145
(lp318
sg147
g98
sg148
Nsg149
(lp319
I3
aI4
asg151
Nsg152
g317
sg153
(lp320
sg155
g64
sg156
Nsg157
Nsg158
Nsbag2
(g3
g4
Ntp321
Rp322
(dp323
g8
g11
sg136
Nsg137
(dp324
sg139
Nsg26
g29
sg140
(lp325
I3
aI5
asg142
Nsg143
VTosefta Sotah 3:5
p326
sg145
(lp327
sg147
g98
sg148
Nsg149
(lp328
I3
aI5
asg151
Nsg152
g326
sg153
(lp329
sg155
g64
sg156
Nsg157
Nsg158
Nsbag2
(g3
g4
Ntp330
Rp331
(dp332
g8
g11
sg136
Nsg137
(dp333
sg139
Nsg26
g29
sg140
(lp334
I3
aI6
asg142
Nsg143
VTosefta Sotah 3:6
p335
sg145
(lp336
sg147
g98
sg148
Nsg149
(lp337
I3
aI6
asg151
Nsg152
g335
sg153
(lp338
sg155
g64
sg156
Nsg157
Nsg158
Nsbag2
(g3
g4
Ntp339
Rp340
(dp341
g8
g11
sg136
Nsg137
(dp342
sg139
Nsg26
g29
sg140
(lp343
I4
aI1
asg142
Nsg143
VTosefta Sotah 4:1
p344
sg145
(lp345
sg147
g98
sg148
Nsg149
(lp346
I4
aI1
asg151
Nsg152
g344
sg153
(lp347
sg155
g64
sg156
Nsg157
Nsg158
Nsbag2
(g3
g4
Ntp348
Rp349
(dp350
g8
g11
sg136
Nsg137
(dp351
sg139
Nsg26
g29
sg140
(lp352
I4
aI2
asg142
Nsg143
VTosefta Sotah 4:2
p353
sg145
(lp354
sg147
g98
sg148
Nsg149
(lp355
I4
aI2
asg151
Nsg152
g353
sg153
(lp356
sg155
g64
sg156
Nsg157
Nsg158
Nsbag2
(g3
g4
Ntp357
Rp358
(dp359
g8
g11
sg136
Nsg137
(dp360
sg139
Nsg26
g29
sg140
(lp361
I4
aI3
asg142
Nsg143
VTosefta Sotah 4:3
p362
sg145
(lp363
sg147
g98
sg148
Nsg149
(lp364
I4
aI3
asg151
Nsg152
g362
sg153
(lp365
sg155
g64
sg156
Nsg157
Nsg158
Nsbag2
(g3
g4
Ntp366
Rp367
(dp368
g8
g11
sg136
Nsg137
(dp369
sg139
Nsg26
g29
sg140
(lp370
I4
aI4
asg142
Nsg143
VTosefta Sotah 4:4
p371
sg145
(lp372
sg147
g98
sg148
Nsg149
(lp373
I4
aI4
asg151
Nsg152
g371
sg153
(lp374
sg155
g64
sg156
Nsg157
Nsg158
Nsbag2
(g3
g4
Ntp375
Rp376
(dp377
g8
g11
sg136
Nsg137
(dp378
sg139
Nsg26
g29
sg140
(lp379
I4
aI5
asg142
Nsg143
VTosefta Sotah 4:5
p380
sg145
(lp381
sg147
g98
sg148
Nsg149
(lp382
I4
aI5
asg151
Nsg152
g380
sg153
(lp383
sg155
g64
sg156
Nsg157
Nsg158
Nsbag2
(g3
g4
Ntp384
Rp385
(dp386
g8
g11
sg136
Nsg137
(dp387
sg139
Nsg26
g29
sg140
(lp388
I5
aI1
asg142
Nsg143
VTosefta Sotah 5:1
p389
sg145
(lp390
sg147
g98
sg148
Nsg149
(lp391
I5
aI1
asg151
Nsg152
g389
sg153
(lp392
sg155
g64
sg156
Nsg157
Nsg158
Nsbag2
(g3
g4
Ntp393
Rp394
(dp395
g8
g11
sg136
Nsg137
(dp396
sg139
Nsg26
g29
sg140
(lp397
I5
aI2
asg142
Nsg143
VTosefta Sotah 5:2
p398
sg145
(lp399
sg147
g98
sg148
Nsg149
(lp400
I5
aI2
asg151
Nsg152
g398
sg153
(lp401
sg155
g64
sg156
Nsg157
Nsg158
Nsbag2
(g3
g4
Ntp402
Rp403
(dp404
g8
g11
sg136
Nsg137
(dp405
sg139
Nsg26
g29
sg140
(lp406
I5
aI3
asg142
Nsg143
VTosefta Sotah 5:3
p407
sg145
(lp408
sg147
g98
sg148
Nsg149
(lp409
I5
aI3
asg151
Nsg152
g407
sg153
(lp410
sg155
g64
sg156
Nsg157
Nsg158
Nsbag2
(g3
g4
Ntp411
Rp412
(dp413
g8
g11
sg136
Nsg137
(dp414
sg139
Nsg26
g29
sg140
(lp415
I5
aI4
asg142
Nsg143
VTosefta Sotah 5:4
p416
sg145
(lp417
sg147
g98
sg148
Nsg149
(lp418
I5
aI4
asg151
Nsg152
g416
sg153
(lp419
sg155
g64
sg156
Nsg157
Nsg158
Nsbag2
(g3
g4
Ntp420
Rp421
(dp422
g8
g11
sg136
Nsg137
(dp423
sg139
Nsg26
g29
sg140
(lp424
I5
aI5
asg142
Nsg143
VTosefta Sotah 5:5
p425
sg145
(lp426
sg147
g98
sg148
Nsg149
(lp427
I5
aI5
asg151
Nsg152
g425
sg153
(lp428
sg155
g64
sg156
Nsg157
Nsg158
Nsbag2
(g3
g4
Ntp429
Rp430
(dp431
g8
g11
sg136
Nsg137
(dp432
sg139
Nsg26
g29
sg140
(lp433
I5
aI6
asg142
Nsg143
VTosefta Sotah 5:6
p434
sg145
(lp435
sg147
g98
sg148
Nsg149
(lp436
I5
aI6
asg151
Nsg152
g434
sg153
(lp437
sg155
g64
sg156
Nsg157
Nsg158
Nsbag2
(g3
g4
Ntp438
Rp439
(dp440
g8
g11
sg136
Nsg137
(dp441
sg139
Nsg26
g29
sg140
(lp442
I5
aI7
asg142
Nsg143
VTosefta Sotah 5:7
p443
sg145
(lp444
sg147
g98
sg148
Nsg149
(lp445
I5
aI7
asg151
Nsg152
g443
sg153
(lp446
sg155
g64
sg156
Nsg157
Nsg158
Nsbag2
(g3
g4
Ntp447
Rp448
(dp449
g8
g11
sg136
Nsg137
(dp450
sg139
Nsg26
g29
sg140
(lp451
I5
aI8
asg142
Nsg143
VTosefta Sotah 5:8
p452
sg145
(lp453
sg147
g98
sg148
Nsg149
(lp454
I5
aI8
asg151
Nsg152
g452
sg153
(lp455
sg155
g64
sg156
Nsg157
Nsg158
Nsbag2
(g3
g4
Ntp456
Rp457
(dp458
g8
g11
sg136
Nsg137
(dp459
sg139
Nsg26
g29
sg140
(lp460
I6
aI1
asg142
Nsg143
VTosefta Sotah 6:1
p461
sg145
(lp462
sg147
g98
sg148
Nsg149
(lp463
I6
aI1
asg151
Nsg152
g461
sg153
(lp464
sg155
g64
sg156
Nsg157
Nsg158
Nsbag2
(g3
g4
Ntp465
Rp466
(dp467
g8
g11
sg136
Nsg137
(dp468
sg139
Nsg26
g29
sg140
(lp469
I6
aI2
asg142
Nsg143
VTosefta Sotah 6:2
p470
sg145
(lp471
sg147
g98
sg148
Nsg149
(lp472
I6
aI2
asg151
Nsg152
g470
sg153
(lp473
sg155
g64
sg156
Nsg157
Nsg158
Nsbag2
(g3
g4
Ntp474
Rp475
(dp476
g8
g11
sg136
Nsg137
(dp477
sg139
Nsg26
g29
sg140
(lp478
I6
aI3
asg142
Nsg143
VTosefta Sotah 6:3
p479
sg145
(lp480
sg147
g98
sg148
Nsg149
(lp481
I6
aI3
asg151
Nsg152
g479
sg153
(lp482
sg155
g64
sg156
Nsg157
Nsg158
Nsbag2
(g3
g4
Ntp483
Rp484
(dp485
g8
g11
sg136
Nsg137
(dp486
sg139
Nsg26
g29
sg140
(lp487
I6
aI4
asg142
Nsg143
VTosefta Sotah 6:4
p488
sg145
(lp489
sg147
g98
sg148
Nsg149
(lp490
I6
aI4
asg151
Nsg152
g488
sg153
(lp491
sg155
g64
sg156
Nsg157
Nsg158
Nsbag2
(g3
g4
Ntp492
Rp493
(dp494
g8
g11
sg136
Nsg137
(dp495
sg139
Nsg26
g29
sg140
(lp496
I6
aI5
asg142
Nsg143
VTosefta Sotah 6:5
p497
sg145
(lp498
sg147
g98
sg148
Nsg149
(lp499
I6
aI5
asg151
Nsg152
g497
sg153
(lp500
sg155
g64
sg156
Nsg157
Nsg158
Nsbag2
(g3
g4
Ntp501
Rp502
(dp503
g8
g11
sg136
Nsg137
(dp504
sg139
Nsg26
g29
sg140
(lp505
I6
aI6
asg142
Nsg143
VTosefta Sotah 6:6
p506
sg145
(lp507
sg147
g98
sg148
Nsg149
(lp508
I6
aI6
asg151
Nsg152
g506
sg153
(lp509
sg155
g64
sg156
Nsg157
Nsg158
Nsbag2
(g3
g4
Ntp510
Rp511
(dp512
g8
g11
sg136
Nsg137
(dp513
sg139
Nsg26
g29
sg140
(lp514
I6
aI7
asg142
Nsg143
VTosefta Sotah 6:7
p515
sg145
(lp516
sg147
g98
sg148
Nsg149
(lp517
I6
aI7
asg151
Nsg152
g515
sg153
(lp518
sg155
g64
sg156
Nsg157
Nsg158
Nsbag2
(g3
g4
Ntp519
Rp520
(dp521
g8
g11
sg136
Nsg137
(dp522
sg139
Nsg26
g29
sg140
(lp523
I7
aI1
asg142
Nsg143
VTosefta Sotah 7:1
p524
sg145
(lp525
sg147
g98
sg148
Nsg149
(lp526
I7
aI1
asg151
Nsg152
g524
sg153
(lp527
sg155
g64
sg156
Nsg157
Nsg158
Nsbag2
(g3
g4
Ntp528
Rp529
(dp530
g8
g11
sg136
Nsg137
(dp531
sg139
Nsg26
g29
sg140
(lp532
I7
aI2
asg142
Nsg143
VTosefta Sotah 7:2
p533
sg145
(lp534
sg147
g98
sg148
Nsg149
(lp535
I7
aI2
asg151
Nsg152
g533
sg153
(lp536
sg155
g64
sg156
Nsg157
Nsg158
Nsbag2
(g3
g4
Ntp537
Rp538
(dp539
g8
g11
sg136
Nsg137
(dp540
sg139
Nsg26
g29
sg140
(lp541
I7
aI3
asg142
Nsg143
VTosefta Sotah 7:3
p542
sg145
(lp543
sg147
g98
sg148
Nsg149
(lp544
I7
aI3
asg151
Nsg152
g542
sg153
(lp545
sg155
g64
sg156
Nsg157
Nsg158
Nsbag2
(g3
g4
Ntp546
Rp547
(dp548
g8
g11
sg136
Nsg137
(dp549
sg139
Nsg26
g29
sg140
(lp550
I7
aI4
asg142
Nsg143
VTosefta Sotah 7:4
p551
sg145
(lp552
sg147
g98
sg148
Nsg149
(lp553
I7
aI4
asg151
Nsg152
g551
sg153
(lp554
sg155
g64
sg156
Nsg157
Nsg158
Nsbag2
(g3
g4
Ntp555
Rp556
(dp557
g8
g11
sg136
Nsg137
(dp558
sg139
Nsg26
g29
sg140
(lp559
I7
aI5
asg142
Nsg143
VTosefta Sotah 7:5
p560
sg145
(lp561
sg147
g98
sg148
Nsg149
(lp562
I7
aI5
asg151
Nsg152
g560
sg153
(lp563
sg155
g64
sg156
Nsg157
Nsg158
Nsbag2
(g3
g4
Ntp564
Rp565
(dp566
g8
g11
sg136
Nsg137
(dp567
sg139
Nsg26
g29
sg140
(lp568
I7
aI6
asg142
Nsg143
VTosefta Sotah 7:6
p569
sg145
(lp570
sg147
g98
sg148
Nsg149
(lp571
I7
aI6
asg151
Nsg152
g569
sg153
(lp572
sg155
g64
sg156
Nsg157
Nsg158
Nsbag2
(g3
g4
Ntp573
Rp574
(dp575
g8
g11
sg136
Nsg137
(dp576
sg139
Nsg26
g29
sg140
(lp577
I7
aI7
asg142
Nsg143
VTosefta Sotah 7:7
p578
sg145
(lp579
sg147
g98
sg148
Nsg149
(lp580
I7
aI7
asg151
Nsg152
g578
sg153
(lp581
sg155
g64
sg156
Nsg157
Nsg158
Nsbag2
(g3
g4
Ntp582
Rp583
(dp584
g8
g11
sg136
Nsg137
(dp585
sg139
Nsg26
g29
sg140
(lp586
I7
aI8
asg142
Nsg143
VTosefta Sotah 7:8
p587
sg145
(lp588
sg147
g98
sg148
Nsg149
(lp589
I7
aI8
asg151
Nsg152
g587
sg153
(lp590
sg155
g64
sg156
Nsg157
Nsg158
Nsbag2
(g3
g4
Ntp591
Rp592
(dp593
g8
g11
sg136
Nsg137
(dp594
sg139
Nsg26
g29
sg140
(lp595
I7
aI9
asg142
Nsg143
VTosefta Sotah 7:9
p596
sg145
(lp597
sg147
g98
sg148
Nsg149
(lp598
I7
aI9
asg151
Nsg152
g596
sg153
(lp599
sg155
g64
sg156
Nsg157
Nsg158
Nsbag2
(g3
g4
Ntp600
Rp601
(dp602
g8
g11
sg136
Nsg137
(dp603
sg139
Nsg26
g29
sg140
(lp604
I7
aI10
asg142
Nsg143
VTosefta Sotah 7:10
p605
sg145
(lp606
sg147
g98
sg148
Nsg149
(lp607
I7
aI10
asg151
Nsg152
g605
sg153
(lp608
sg155
g64
sg156
Nsg157
Nsg158
Nsbag2
(g3
g4
Ntp609
Rp610
(dp611
g8
g11
sg136
Nsg137
(dp612
sg139
Nsg26
g29
sg140
(lp613
I7
aI11
asg142
Nsg143
VTosefta Sotah 7:11
p614
sg145
(lp615
sg147
g98
sg148
Nsg149
(lp616
I7
aI11
asg151
Nsg152
g614
sg153
(lp617
sg155
g64
sg156
Nsg157
Nsg158
Nsbag2
(g3
g4
Ntp618
Rp619
(dp620
g8
g11
sg136
Nsg137
(dp621
sg139
Nsg26
g29
sg140
(lp622
I7
aI12
asg142
Nsg143
VTosefta Sotah 7:12
p623
sg145
(lp624
sg147
g98
sg148
Nsg149
(lp625
I7
aI12
asg151
Nsg152
g623
sg153
(lp626
sg155
g64
sg156
Nsg157
Nsg158
Nsbag2
(g3
g4
Ntp627
Rp628
(dp629
g8
g11
sg136
Nsg137
(dp630
sg139
Nsg26
g29
sg140
(lp631
I7
aI13
asg142
Nsg143
VTosefta Sotah 7:13
p632
sg145
(lp633
sg147
g98
sg148
Nsg149
(lp634
I7
aI13
asg151
Nsg152
g632
sg153
(lp635
sg155
g64
sg156
Nsg157
Nsg158
Nsbag2
(g3
g4
Ntp636
Rp637
(dp638
g8
g11
sg136
Nsg137
(dp639
sg139
Nsg26
g29
sg140
(lp640
I7
aI14
asg142
Nsg143
VTosefta Sotah 7:14
p641
sg145
(lp642
sg147
g98
sg148
Nsg149
(lp643
I7
aI14
asg151
Nsg152
g641
sg153
(lp644
sg155
g64
sg156
Nsg157
Nsg158
Nsbag2
(g3
g4
Ntp645
Rp646
(dp647
g8
g11
sg136
Nsg137
(dp648
sg139
Nsg26
g29
sg140
(lp649
I7
aI15
asg142
Nsg143
VTosefta Sotah 7:15
p650
sg145
(lp651
sg147
g98
sg148
Nsg149
(lp652
I7
aI15
asg151
Nsg152
g650
sg153
(lp653
sg155
g64
sg156
Nsg157
Nsg158
Nsbag2
(g3
g4
Ntp654
Rp655
(dp656
g8
g11
sg136
Nsg137
(dp657
sg139
Nsg26
g29
sg140
(lp658
I8
aI1
asg142
Nsg143
VTosefta Sotah 8:1
p659
sg145
(lp660
sg147
g98
sg148
Nsg149
(lp661
I8
aI1
asg151
Nsg152
g659
sg153
(lp662
sg155
g64
sg156
Nsg157
Nsg158
Nsbag2
(g3
g4
Ntp663
Rp664
(dp665
g8
g11
sg136
Nsg137
(dp666
sg139
Nsg26
g29
sg140
(lp667
I8
aI2
asg142
Nsg143
VTosefta Sotah 8:2
p668
sg145
(lp669
sg147
g98
sg148
Nsg149
(lp670
I8
aI2
asg151
Nsg152
g668
sg153
(lp671
sg155
g64
sg156
Nsg157
Nsg158
Nsbag2
(g3
g4
Ntp672
Rp673
(dp674
g8
g11
sg136
Nsg137
(dp675
sg139
Nsg26
g29
sg140
(lp676
I8
aI3
asg142
Nsg143
VTosefta Sotah 8:3
p677
sg145
(lp678
sg147
g98
sg148
Nsg149
(lp679
I8
aI3
asg151
Nsg152
g677
sg153
(lp680
sg155
g64
sg156
Nsg157
Nsg158
Nsbag2
(g3
g4
Ntp681
Rp682
(dp683
g8
g11
sg136
Nsg137
(dp684
sg139
Nsg26
g29
sg140
(lp685
I8
aI4
asg142
Nsg143
VTosefta Sotah 8:4
p686
sg145
(lp687
sg147
g98
sg148
Nsg149
(lp688
I8
aI4
asg151
Nsg152
g686
sg153
(lp689
sg155
g64
sg156
Nsg157
Nsg158
Nsbag2
(g3
g4
Ntp690
Rp691
(dp692
g8
g11
sg136
Nsg137
(dp693
sg139
Nsg26
g29
sg140
(lp694
I8
aI5
asg142
Nsg143
VTosefta Sotah 8:5
p695
sg145
(lp696
sg147
g98
sg148
Nsg149
(lp697
I8
aI5
asg151
Nsg152
g695
sg153
(lp698
sg155
g64
sg156
Nsg157
Nsg158
Nsbag2
(g3
g4
Ntp699
Rp700
(dp701
g8
g11
sg136
Nsg137
(dp702
sg139
Nsg26
g29
sg140
(lp703
I8
aI6
asg142
Nsg143
VTosefta Sotah 8:6
p704
sg145
(lp705
sg147
g98
sg148
Nsg149
(lp706
I8
aI6
asg151
Nsg152
g704
sg153
(lp707
sg155
g64
sg156
Nsg157
Nsg158
Nsbag2
(g3
g4
Ntp708
Rp709
(dp710
g8
g11
sg136
Nsg137
(dp711
sg139
Nsg26
g29
sg140
(lp712
I8
aI7
asg142
Nsg143
VTosefta Sotah 8:7
p713
sg145
(lp714
sg147
g98
sg148
Nsg149
(lp715
I8
aI7
asg151
Nsg152
g713
sg153
(lp716
sg155
g64
sg156
Nsg157
Nsg158
Nsbag2
(g3
g4
Ntp717
Rp718
(dp719
g8
g11
sg136
Nsg137
(dp720
sg139
Nsg26
g29
sg140
(lp721
I9
aI1
asg142
Nsg143
VTosefta Sotah 9:1
p722
sg145
(lp723
sg147
g98
sg148
Nsg149
(lp724
I9
aI1
asg151
Nsg152
g722
sg153
(lp725
sg155
g64
sg156
Nsg157
Nsg158
Nsbag2
(g3
g4
Ntp726
Rp727
(dp728
g8
g11
sg136
Nsg137
(dp729
sg139
Nsg26
g29
sg140
(lp730
I9
aI2
asg142
Nsg143
VTosefta Sotah 9:2
p731
sg145
(lp732
sg147
g98
sg148
Nsg149
(lp733
I9
aI2
asg151
Nsg152
g731
sg153
(lp734
sg155
g64
sg156
Nsg157
Nsg158
Nsbag2
(g3
g4
Ntp735
Rp736
(dp737
g8
g11
sg136
Nsg137
(dp738
sg139
Nsg26
g29
sg140
(lp739
I9
aI3
asg142
Nsg143
VTosefta Sotah 9:3
p740
sg145
(lp741
sg147
g98
sg148
Nsg149
(lp742
I9
aI3
asg151
Nsg152
g740
sg153
(lp743
sg155
g64
sg156
Nsg157
Nsg158
Nsbag2
(g3
g4
Ntp744
Rp745
(dp746
g8
g11
sg136
Nsg137
(dp747
sg139
Nsg26
g29
sg140
(lp748
I9
aI4
asg142
Nsg143
VTosefta Sotah 9:4
p749
sg145
(lp750
sg147
g98
sg148
Nsg149
(lp751
I9
aI4
asg151
Nsg152
g749
sg153
(lp752
sg155
g64
sg156
Nsg157
Nsg158
Nsbag2
(g3
g4
Ntp753
Rp754
(dp755
g8
g11
sg136
Nsg137
(dp756
sg139
Nsg26
g29
sg140
(lp757
I9
aI5
asg142
Nsg143
VTosefta Sotah 9:5
p758
sg145
(lp759
sg147
g98
sg148
Nsg149
(lp760
I9
aI5
asg151
Nsg152
g758
sg153
(lp761
sg155
g64
sg156
Nsg157
Nsg158
Nsbag2
(g3
g4
Ntp762
Rp763
(dp764
g8
g11
sg136
Nsg137
(dp765
sg139
Nsg26
g29
sg140
(lp766
I10
aI1
asg142
Nsg143
VTosefta Sotah 10:1
p767
sg145
(lp768
sg147
g98
sg148
Nsg149
(lp769
I10
aI1
asg151
Nsg152
g767
sg153
(lp770
sg155
g64
sg156
Nsg157
Nsg158
Nsbag2
(g3
g4
Ntp771
Rp772
(dp773
g8
g11
sg136
Nsg137
(dp774
sg139
Nsg26
g29
sg140
(lp775
I10
aI2
asg142
Nsg143
VTosefta Sotah 10:2
p776
sg145
(lp777
sg147
g98
sg148
Nsg149
(lp778
I10
aI2
asg151
Nsg152
g776
sg153
(lp779
sg155
g64
sg156
Nsg157
Nsg158
Nsbag2
(g3
g4
Ntp780
Rp781
(dp782
g8
g11
sg136
Nsg137
(dp783
sg139
Nsg26
g29
sg140
(lp784
I10
aI3
asg142
Nsg143
VTosefta Sotah 10:3
p785
sg145
(lp786
sg147
g98
sg148
Nsg149
(lp787
I10
aI3
asg151
Nsg152
g785
sg153
(lp788
sg155
g64
sg156
Nsg157
Nsg158
Nsbag2
(g3
g4
Ntp789
Rp790
(dp791
g8
g11
sg136
Nsg137
(dp792
sg139
Nsg26
g29
sg140
(lp793
I11
aI1
asg142
Nsg143
VTosefta Sotah 11:1
p794
sg145
(lp795
sg147
g98
sg148
Nsg149
(lp796
I11
aI1
asg151
Nsg152
g794
sg153
(lp797
sg155
g64
sg156
Nsg157
Nsg158
Nsbag2
(g3
g4
Ntp798
Rp799
(dp800
g8
g11
sg136
Nsg137
(dp801
sg139
Nsg26
g29
sg140
(lp802
I11
aI2
asg142
Nsg143
VTosefta Sotah 11:2
p803
sg145
(lp804
sg147
g98
sg148
Nsg149
(lp805
I11
aI2
asg151
Nsg152
g803
sg153
(lp806
sg155
g64
sg156
Nsg157
Nsg158
Nsbag2
(g3
g4
Ntp807
Rp808
(dp809
g8
g11
sg136
Nsg137
(dp810
sg139
Nsg26
g29
sg140
(lp811
I11
aI3
asg142
Nsg143
VTosefta Sotah 11:3
p812
sg145
(lp813
sg147
g98
sg148
Nsg149
(lp814
I11
aI3
asg151
Nsg152
g812
sg153
(lp815
sg155
g64
sg156
Nsg157
Nsg158
Nsbag2
(g3
g4
Ntp816
Rp817
(dp818
g8
g11
sg136
Nsg137
(dp819
sg139
Nsg26
g29
sg140
(lp820
I11
aI4
asg142
Nsg143
VTosefta Sotah 11:4
p821
sg145
(lp822
sg147
g98
sg148
Nsg149
(lp823
I11
aI4
asg151
Nsg152
g821
sg153
(lp824
sg155
g64
sg156
Nsg157
Nsg158
Nsbag2
(g3
g4
Ntp825
Rp826
(dp827
g8
g11
sg136
Nsg137
(dp828
sg139
Nsg26
g29
sg140
(lp829
I11
aI5
asg142
Nsg143
VTosefta Sotah 11:5
p830
sg145
(lp831
sg147
g98
sg148
Nsg149
(lp832
I11
aI5
asg151
Nsg152
g830
sg153
(lp833
sg155
g64
sg156
Nsg157
Nsg158
Nsbag2
(g3
g4
Ntp834
Rp835
(dp836
g8
g11
sg136
Nsg137
(dp837
sg139
Nsg26
g29
sg140
(lp838
I11
aI6
asg142
Nsg143
VTosefta Sotah 11:6
p839
sg145
(lp840
sg147
g98
sg148
Nsg149
(lp841
I11
aI6
asg151
Nsg152
g839
sg153
(lp842
sg155
g64
sg156
Nsg157
Nsg158
Nsbag2
(g3
g4
Ntp843
Rp844
(dp845
g8
g11
sg136
Nsg137
(dp846
sg139
Nsg26
g29
sg140
(lp847
I11
aI7
asg142
Nsg143
VTosefta Sotah 11:7
p848
sg145
(lp849
sg147
g98
sg148
Nsg149
(lp850
I11
aI7
asg151
Nsg152
g848
sg153
(lp851
sg155
g64
sg156
Nsg157
Nsg158
Nsbag2
(g3
g4
Ntp852
Rp853
(dp854
g8
g11
sg136
Nsg137
(dp855
sg139
Nsg26
g29
sg140
(lp856
I11
aI8
asg142
Nsg143
VTosefta Sotah 11:8
p857
sg145
(lp858
sg147
g98
sg148
Nsg149
(lp859
I11
aI8
asg151
Nsg152
g857
sg153
(lp860
sg155
g64
sg156
Nsg157
Nsg158
Nsbag2
(g3
g4
Ntp861
Rp862
(dp863
g8
g11
sg136
Nsg137
(dp864
sg139
Nsg26
g29
sg140
(lp865
I11
aI9
asg142
Nsg143
VTosefta Sotah 11:9
p866
sg145
(lp867
sg147
g98
sg148
Nsg149
(lp868
I11
aI9
asg151
Nsg152
g866
sg153
(lp869
sg155
g64
sg156
Nsg157
Nsg158
Nsbag2
(g3
g4
Ntp870
Rp871
(dp872
g8
g11
sg136
Nsg137
(dp873
sg139
Nsg26
g29
sg140
(lp874
I12
aI1
asg142
Nsg143
VTosefta Sotah 12:1
p875
sg145
(lp876
sg147
g98
sg148
Nsg149
(lp877
I12
aI1
asg151
Nsg152
g875
sg153
(lp878
sg155
g64
sg156
Nsg157
Nsg158
Nsbag2
(g3
g4
Ntp879
Rp880
(dp881
g8
g11
sg136
Nsg137
(dp882
sg139
Nsg26
g29
sg140
(lp883
I12
aI2
asg142
Nsg143
VTosefta Sotah 12:2
p884
sg145
(lp885
sg147
g98
sg148
Nsg149
(lp886
I12
aI2
asg151
Nsg152
g884
sg153
(lp887
sg155
g64
sg156
Nsg157
Nsg158
Nsbag2
(g3
g4
Ntp888
Rp889
(dp890
g8
g11
sg136
Nsg137
(dp891
sg139
Nsg26
g29
sg140
(lp892
I12
aI3
asg142
Nsg143
VTosefta Sotah 12:3
p893
sg145
(lp894
sg147
g98
sg148
Nsg149
(lp895
I12
aI3
asg151
Nsg152
g893
sg153
(lp896
sg155
g64
sg156
Nsg157
Nsg158
Nsbag2
(g3
g4
Ntp897
Rp898
(dp899
g8
g11
sg136
Nsg137
(dp900
sg139
Nsg26
g29
sg140
(lp901
I12
aI4
asg142
Nsg143
VTosefta Sotah 12:4
p902
sg145
(lp903
sg147
g98
sg148
Nsg149
(lp904
I12
aI4
asg151
Nsg152
g902
sg153
(lp905
sg155
g64
sg156
Nsg157
Nsg158
Nsbag2
(g3
g4
Ntp906
Rp907
(dp908
g8
g11
sg136
Nsg137
(dp909
sg139
Nsg26
g29
sg140
(lp910
I12
aI5
asg142
Nsg143
VTosefta Sotah 12:5
p911
sg145
(lp912
sg147
g98
sg148
Nsg149
(lp913
I12
aI5
asg151
Nsg152
g911
sg153
(lp914
sg155
g64
sg156
Nsg157
Nsg158
Nsbag2
(g3
g4
Ntp915
Rp916
(dp917
g8
g11
sg136
Nsg137
(dp918
sg139
Nsg26
g29
sg140
(lp919
I13
aI1
asg142
Nsg143
VTosefta Sotah 13:1
p920
sg145
(lp921
sg147
g98
sg148
Nsg149
(lp922
I13
aI1
asg151
Nsg152
g920
sg153
(lp923
sg155
g64
sg156
Nsg157
Nsg158
Nsbag2
(g3
g4
Ntp924
Rp925
(dp926
g8
g11
sg136
Nsg137
(dp927
sg139
Nsg26
g29
sg140
(lp928
I13
aI2
asg142
Nsg143
VTosefta Sotah 13:2
p929
sg145
(lp930
sg147
g98
sg148
Nsg149
(lp931
I13
aI2
asg151
Nsg152
g929
sg153
(lp932
sg155
g64
sg156
Nsg157
Nsg158
Nsbag2
(g3
g4
Ntp933
Rp934
(dp935
g8
g11
sg136
Nsg137
(dp936
sg139
Nsg26
g29
sg140
(lp937
I13
aI3
asg142
Nsg143
VTosefta Sotah 13:3
p938
sg145
(lp939
sg147
g98
sg148
Nsg149
(lp940
I13
aI3
asg151
Nsg152
g938
sg153
(lp941
sg155
g64
sg156
Nsg157
Nsg158
Nsbag2
(g3
g4
Ntp942
Rp943
(dp944
g8
g11
sg136
Nsg137
(dp945
sg139
Nsg26
g29
sg140
(lp946
I13
aI4
asg142
Nsg143
VTosefta Sotah 13:4
p947
sg145
(lp948
sg147
g98
sg148
Nsg149
(lp949
I13
aI4
asg151
Nsg152
g947
sg153
(lp950
sg155
g64
sg156
Nsg157
Nsg158
Nsbag2
(g3
g4
Ntp951
Rp952
(dp953
g8
g11
sg136
Nsg137
(dp954
sg139
Nsg26
g29
sg140
(lp955
I13
aI5
asg142
Nsg143
VTosefta Sotah 13:5
p956
sg145
(lp957
sg147
g98
sg148
Nsg149
(lp958
I13
aI5
asg151
Nsg152
g956
sg153
(lp959
sg155
g64
sg156
Nsg157
Nsg158
Nsbag2
(g3
g4
Ntp960
Rp961
(dp962
g8
g11
sg136
Nsg137
(dp963
sg139
Nsg26
g29
sg140
(lp964
I13
aI6
asg142
Nsg143
VTosefta Sotah 13:6
p965
sg145
(lp966
sg147
g98
sg148
Nsg149
(lp967
I13
aI6
asg151
Nsg152
g965
sg153
(lp968
sg155
g64
sg156
Nsg157
Nsg158
Nsbag2
(g3
g4
Ntp969
Rp970
(dp971
g8
g11
sg136
Nsg137
(dp972
sg139
Nsg26
g29
sg140
(lp973
I13
aI7
asg142
Nsg143
VTosefta Sotah 13:7
p974
sg145
(lp975
sg147
g98
sg148
Nsg149
(lp976
I13
aI7
asg151
Nsg152
g974
sg153
(lp977
sg155
g64
sg156
Nsg157
Nsg158
Nsbag2
(g3
g4
Ntp978
Rp979
(dp980
g8
g11
sg136
Nsg137
(dp981
sg139
Nsg26
g29
sg140
(lp982
I13
aI8
asg142
Nsg143
VTosefta Sotah 13:8
p983
sg145
(lp984
sg147
g98
sg148
Nsg149
(lp985
I13
aI8
asg151
Nsg152
g983
sg153
(lp986
sg155
g64
sg156
Nsg157
Nsg158
Nsbag2
(g3
g4
Ntp987
Rp988
(dp989
g8
g11
sg136
Nsg137
(dp990
sg139
Nsg26
g29
sg140
(lp991
I13
aI9
asg142
Nsg143
VTosefta Sotah 13:9
p992
sg145
(lp993
sg147
g98
sg148
Nsg149
(lp994
I13
aI9
asg151
Nsg152
g992
sg153
(lp995
sg155
g64
sg156
Nsg157
Nsg158
Nsbag2
(g3
g4
Ntp996
Rp997
(dp998
g8
g11
sg136
Nsg137
(dp999
sg139
Nsg26
g29
sg140
(lp1000
I13
aI10
asg142
Nsg143
VTosefta Sotah 13:10
p1001
sg145
(lp1002
sg147
g98
sg148
Nsg149
(lp1003
I13
aI10
asg151
Nsg152
g1001
sg153
(lp1004
sg155
g64
sg156
Nsg157
Nsg158
Nsbag2
(g3
g4
Ntp1005
Rp1006
(dp1007
g8
g11
sg136
Nsg137
(dp1008
sg139
Nsg26
g29
sg140
(lp1009
I14
aI1
asg142
Nsg143
VTosefta Sotah 14:1
p1010
sg145
(lp1011
sg147
g98
sg148
Nsg149
(lp1012
I14
aI1
asg151
Nsg152
g1010
sg153
(lp1013
sg155
g64
sg156
Nsg157
Nsg158
Nsbag2
(g3
g4
Ntp1014
Rp1015
(dp1016
g8
g11
sg136
Nsg137
(dp1017
sg139
Nsg26
g29
sg140
(lp1018
I15
aI1
asg142
Nsg143
VTosefta Sotah 15:1
p1019
sg145
(lp1020
sg147
g98
sg148
Nsg149
(lp1021
I15
aI1
asg151
Nsg152
g1019
sg153
(lp1022
sg155
g64
sg156
Nsg157
Nsg158
Nsbag2
(g3
g4
Ntp1023
Rp1024
(dp1025
g8
g11
sg136
Nsg137
(dp1026
sg139
Nsg26
g29
sg140
(lp1027
I15
aI2
asg142
Nsg143
VTosefta Sotah 15:2
p1028
sg145
(lp1029
sg147
g98
sg148
Nsg149
(lp1030
I15
aI2
asg151
Nsg152
g1028
sg153
(lp1031
sg155
g64
sg156
Nsg157
Nsg158
Nsbag2
(g3
g4
Ntp1032
Rp1033
(dp1034
g8
g11
sg136
Nsg137
(dp1035
sg139
Nsg26
g29
sg140
(lp1036
I15
aI3
asg142
Nsg143
VTosefta Sotah 15:3
p1037
sg145
(lp1038
sg147
g98
sg148
Nsg149
(lp1039
I15
aI3
asg151
Nsg152
g1037
sg153
(lp1040
sg155
g64
sg156
Nsg157
Nsg158
Nsbag2
(g3
g4
Ntp1041
Rp1042
(dp1043
g8
g11
sg136
Nsg137
(dp1044
sg139
Nsg26
g29
sg140
(lp1045
I15
aI4
asg142
Nsg143
VTosefta Sotah 15:4
p1046
sg145
(lp1047
sg147
g98
sg148
Nsg149
(lp1048
I15
aI4
asg151
Nsg152
g1046
sg153
(lp1049
sg155
g64
sg156
Nsg157
Nsg158
Nsbag2
(g3
g4
Ntp1050
Rp1051
(dp1052
g8
g11
sg136
Nsg137
(dp1053
sg139
Nsg26
g29
sg140
(lp1054
I15
aI5
asg142
Nsg143
VTosefta Sotah 15:5
p1055
sg145
(lp1056
sg147
g98
sg148
Nsg149
(lp1057
I15
aI5
asg151
Nsg152
g1055
sg153
(lp1058
sg155
g64
sg156
Nsg157
Nsg158
Nsbatp1059
.