((lp0
I0
aI207
aI279
aI307
aI436
aI579
aI731
aI834
aI987
aI1137
aI1451
aI1719
aI1920
aI2009
aI2094
aI2241
aI2364
aI2542
aI2688
aI2971
aI3142
aI3373
aI3468
aI3555
aI3674
aI3747
aI3850
aI3933
aI4006
aI4088
aI4184
aI4276
aI4351
aI4444
aI4563
aI4625
aI4693
aI4755
aI4887
aI5015
aI5202
aI5459
aI5521
aI5622
aI5759
aI5862
aI5967
aI6034
aI6144
aI6250
aI6292
aI6358
aI6464
aI6516
aI6637
aI6687
aI6766
aI6824
aI6914
aI6991
aI7044
aI7089
aI7139
aI7255
aI7307
aI7407
aI7504
aI7616
aI7760
aI7804
aI7858
aI7907
aI7951
aI8144
aI8258
aI8453
aI8521
aI8568
aI8681
aI8755
aI8805
aI8936
aI9036
aI9161
aI9195
aI9320
aI9357
aI9411
aI9517
aI9716
aI9843
aI9887
aI9943
aI10030
a(lp1
ccopy_reg
_reconstructor
p2
(csefaria.model.text
Ref
p3
c__builtin__
object
p4
Ntp5
Rp6
(dp7
S'index_node'
p8
g2
(csefaria.model.schema
JaggedArrayNode
p9
g4
Ntp10
Rp11
(dp12
S'_address'
p13
(lp14
VTosefta Zevahim
p15
asS'_full_titles'
p16
(dp17
sVnodeType
p18
VJaggedArrayNode
p19
sS'parent'
p20
NsVaddressTypes
p21
(lp22
VInteger
p23
aVInteger
p24
asS'default'
p25
I00
sS'index'
p26
g2
(csefaria.model.text
Index
p27
g4
Ntp28
Rp29
(dp30
S'struct_objs'
p31
(dp32
sS'_id'
p33
g2
(cbson.objectid
ObjectId
p34
g4
Ntp35
Rp36
S'S0nG\xfb\xfb\xa2!\x8f\x99\xf4\x8b'
p37
bsS'pkeys_orig_values'
p38
(dp39
S'title'
p40
VTosefta Zevahim
p41
ssS'pubDate'
p42
V1521
p43
sS'transliteratedTitle'
p44
VTosefta Zevachim
p45
sS'pubPlace'
p46
VVenice
p47
sS'compPlace'
p48
VTalmudic Israel
p49
sS'enDesc'
p50
VThe Tosefta (Supplement, addition") is a compilation of the Jewish oral law. Opinions differ widely as to when the Tosefta was redacted and how it relates to the Mishnah. However it closely corresponds to the Mishnah in structure and style, with the same divisions for sedarim ("orders") and masekhot ("tractates"). In many ways, the Tosefta acts as a supplement to the Mishnah. It is mainly written in Mishnaic Hebrew, with some Aramaic. Zevahim (Sacrifices) belongs to the fifth order, Kodshim (Holy things) and discusses the procedure of animal and bird offerings. It has thirteen chapters.
p51
sS'order'
p52
(lp53
I1
asS'era'
p54
VT
p55
sS'compDate'
p56
V210
p57
sS'nodes'
p58
g11
sS'errorMargin'
p59
V20
p60
sS'_title'
p61
g41
sS'categories'
p62
(lp63
VTosefta
p64
aVSeder Kodashim
p65
asS'schema'
p66
(dp67
g18
g19
sg21
g22
sVlengths
p68
(lp69
I13
asVdepth
p70
I2
sVtitles
p71
(lp72
(dp73
Vlang
p74
Ven
p75
sVtext
p76
VTos. Zevachim
p77
sa(dp78
Vlang
p79
Ven
p80
sVtext
p81
VTos. Zvachim
p82
sa(dp83
Vlang
p84
Ven
p85
sVtext
p86
VT. Zevachim
p87
sa(dp88
Vlang
p89
Ven
p90
sVtext
p91
VT. Zevahim
p92
sa(dp93
Vlang
p94
Ven
p95
sVtext
p96
VTosefta Zevachim
p97
sa(dp98
Vlang
p99
Ven
p100
sVtext
p101
VTosefta Zvachim
p102
sa(dp103
Vlang
p104
Ven
p105
sVtext
p106
VTos. Zevahim
p107
sa(dp108
Vlang
p109
Vhe
p110
sVtext
p111
V\u05ea\u05d5\u05e1\u05e4\u05ea\u05d0 \u05d6\u05d1\u05d7\u05d9\u05dd
p112
sVprimary
p113
I01
sa(dp114
Vlang
p115
Ven
p116
sVtext
p117
VTosefta Zevahim
p118
sVprimary
p119
I01
sasVkey
p120
g15
sVsectionNames
p121
(lp122
VChapter
p123
aVTosefta
p124
assbsS'_primary_title'
p125
(dp126
sS'title_group'
p127
g2
(csefaria.model.schema
TitleGroup
p128
g4
Ntp129
Rp130
(dp131
g125
(dp132
S'en'
p133
g118
ssS'titles'
p134
g72
sbsS'_addressTypes'
p135
(lp136
g2
(csefaria.model.schema
AddressInteger
p137
g4
Ntp138
Rp139
(dp140
S'length'
p141
I13
sg52
I0
sbag2
(g137
g4
Ntp142
Rp143
(dp144
g141
Nsg52
I1
sbasS'sharedTitle'
p145
Nsg68
g69
sg70
I2
sS'_full_title'
p146
(dp147
g133
g118
ssS'key'
p148
g15
sS'checkFirst'
p149
NsS'_regexes'
p150
(dp151
sS'_leaf_nodes'
p152
(lp153
sg121
g122
sS'children'
p154
(lp155
sbsS'_range_index'
p156
NsS'_context'
p157
(dp158
sS'_padded'
p159
Nsg26
g29
sS'sections'
p160
(lp161
I1
aI1
asS'_first_spanned_ref'
p162
NsS'tref'
p163
VTosefta Zevahim 1:1
p164
sS'_spanned_refs'
p165
(lp166
sS'book'
p167
g118
sS'_range_depth'
p168
NsS'toSections'
p169
(lp170
I1
aI1
asS'_url'
p171
NsS'_normal'
p172
g164
sS'_ranged_refs'
p173
(lp174
sS'type'
p175
g64
sS'_prev'
p176
NsS'_he_normal'
p177
NsS'_next'
p178
Nsbag2
(g3
g4
Ntp179
Rp180
(dp181
g8
g11
sg156
Nsg157
(dp182
sg159
Nsg26
g29
sg160
(lp183
I1
aI2
asg162
Nsg163
VTosefta Zevahim 1:2
p184
sg165
(lp185
sg167
g118
sg168
Nsg169
(lp186
I1
aI2
asg171
Nsg172
g184
sg173
(lp187
sg175
g64
sg176
Nsg177
Nsg178
Nsbag2
(g3
g4
Ntp188
Rp189
(dp190
g8
g11
sg156
Nsg157
(dp191
sg159
Nsg26
g29
sg160
(lp192
I1
aI3
asg162
Nsg163
VTosefta Zevahim 1:3
p193
sg165
(lp194
sg167
g118
sg168
Nsg169
(lp195
I1
aI3
asg171
Nsg172
g193
sg173
(lp196
sg175
g64
sg176
Nsg177
Nsg178
Nsbag2
(g3
g4
Ntp197
Rp198
(dp199
g8
g11
sg156
Nsg157
(dp200
sg159
Nsg26
g29
sg160
(lp201
I1
aI4
asg162
Nsg163
VTosefta Zevahim 1:4
p202
sg165
(lp203
sg167
g118
sg168
Nsg169
(lp204
I1
aI4
asg171
Nsg172
g202
sg173
(lp205
sg175
g64
sg176
Nsg177
Nsg178
Nsbag2
(g3
g4
Ntp206
Rp207
(dp208
g8
g11
sg156
Nsg157
(dp209
sg159
Nsg26
g29
sg160
(lp210
I1
aI5
asg162
Nsg163
VTosefta Zevahim 1:5
p211
sg165
(lp212
sg167
g118
sg168
Nsg169
(lp213
I1
aI5
asg171
Nsg172
g211
sg173
(lp214
sg175
g64
sg176
Nsg177
Nsg178
Nsbag2
(g3
g4
Ntp215
Rp216
(dp217
g8
g11
sg156
Nsg157
(dp218
sg159
Nsg26
g29
sg160
(lp219
I1
aI6
asg162
Nsg163
VTosefta Zevahim 1:6
p220
sg165
(lp221
sg167
g118
sg168
Nsg169
(lp222
I1
aI6
asg171
Nsg172
g220
sg173
(lp223
sg175
g64
sg176
Nsg177
Nsg178
Nsbag2
(g3
g4
Ntp224
Rp225
(dp226
g8
g11
sg156
Nsg157
(dp227
sg159
Nsg26
g29
sg160
(lp228
I1
aI7
asg162
Nsg163
VTosefta Zevahim 1:7
p229
sg165
(lp230
sg167
g118
sg168
Nsg169
(lp231
I1
aI7
asg171
Nsg172
g229
sg173
(lp232
sg175
g64
sg176
Nsg177
Nsg178
Nsbag2
(g3
g4
Ntp233
Rp234
(dp235
g8
g11
sg156
Nsg157
(dp236
sg159
Nsg26
g29
sg160
(lp237
I1
aI8
asg162
Nsg163
VTosefta Zevahim 1:8
p238
sg165
(lp239
sg167
g118
sg168
Nsg169
(lp240
I1
aI8
asg171
Nsg172
g238
sg173
(lp241
sg175
g64
sg176
Nsg177
Nsg178
Nsbag2
(g3
g4
Ntp242
Rp243
(dp244
g8
g11
sg156
Nsg157
(dp245
sg159
Nsg26
g29
sg160
(lp246
I2
aI1
asg162
Nsg163
VTosefta Zevahim 2:1
p247
sg165
(lp248
sg167
g118
sg168
Nsg169
(lp249
I2
aI1
asg171
Nsg172
g247
sg173
(lp250
sg175
g64
sg176
Nsg177
Nsg178
Nsbag2
(g3
g4
Ntp251
Rp252
(dp253
g8
g11
sg156
Nsg157
(dp254
sg159
Nsg26
g29
sg160
(lp255
I2
aI2
asg162
Nsg163
VTosefta Zevahim 2:2
p256
sg165
(lp257
sg167
g118
sg168
Nsg169
(lp258
I2
aI2
asg171
Nsg172
g256
sg173
(lp259
sg175
g64
sg176
Nsg177
Nsg178
Nsbag2
(g3
g4
Ntp260
Rp261
(dp262
g8
g11
sg156
Nsg157
(dp263
sg159
Nsg26
g29
sg160
(lp264
I2
aI3
asg162
Nsg163
VTosefta Zevahim 2:3
p265
sg165
(lp266
sg167
g118
sg168
Nsg169
(lp267
I2
aI3
asg171
Nsg172
g265
sg173
(lp268
sg175
g64
sg176
Nsg177
Nsg178
Nsbag2
(g3
g4
Ntp269
Rp270
(dp271
g8
g11
sg156
Nsg157
(dp272
sg159
Nsg26
g29
sg160
(lp273
I2
aI4
asg162
Nsg163
VTosefta Zevahim 2:4
p274
sg165
(lp275
sg167
g118
sg168
Nsg169
(lp276
I2
aI4
asg171
Nsg172
g274
sg173
(lp277
sg175
g64
sg176
Nsg177
Nsg178
Nsbag2
(g3
g4
Ntp278
Rp279
(dp280
g8
g11
sg156
Nsg157
(dp281
sg159
Nsg26
g29
sg160
(lp282
I3
aI1
asg162
Nsg163
VTosefta Zevahim 3:1
p283
sg165
(lp284
sg167
g118
sg168
Nsg169
(lp285
I3
aI1
asg171
Nsg172
g283
sg173
(lp286
sg175
g64
sg176
Nsg177
Nsg178
Nsbag2
(g3
g4
Ntp287
Rp288
(dp289
g8
g11
sg156
Nsg157
(dp290
sg159
Nsg26
g29
sg160
(lp291
I3
aI2
asg162
Nsg163
VTosefta Zevahim 3:2
p292
sg165
(lp293
sg167
g118
sg168
Nsg169
(lp294
I3
aI2
asg171
Nsg172
g292
sg173
(lp295
sg175
g64
sg176
Nsg177
Nsg178
Nsbag2
(g3
g4
Ntp296
Rp297
(dp298
g8
g11
sg156
Nsg157
(dp299
sg159
Nsg26
g29
sg160
(lp300
I3
aI3
asg162
Nsg163
VTosefta Zevahim 3:3
p301
sg165
(lp302
sg167
g118
sg168
Nsg169
(lp303
I3
aI3
asg171
Nsg172
g301
sg173
(lp304
sg175
g64
sg176
Nsg177
Nsg178
Nsbag2
(g3
g4
Ntp305
Rp306
(dp307
g8
g11
sg156
Nsg157
(dp308
sg159
Nsg26
g29
sg160
(lp309
I3
aI4
asg162
Nsg163
VTosefta Zevahim 3:4
p310
sg165
(lp311
sg167
g118
sg168
Nsg169
(lp312
I3
aI4
asg171
Nsg172
g310
sg173
(lp313
sg175
g64
sg176
Nsg177
Nsg178
Nsbag2
(g3
g4
Ntp314
Rp315
(dp316
g8
g11
sg156
Nsg157
(dp317
sg159
Nsg26
g29
sg160
(lp318
I3
aI5
asg162
Nsg163
VTosefta Zevahim 3:5
p319
sg165
(lp320
sg167
g118
sg168
Nsg169
(lp321
I3
aI5
asg171
Nsg172
g319
sg173
(lp322
sg175
g64
sg176
Nsg177
Nsg178
Nsbag2
(g3
g4
Ntp323
Rp324
(dp325
g8
g11
sg156
Nsg157
(dp326
sg159
Nsg26
g29
sg160
(lp327
I4
aI1
asg162
Nsg163
VTosefta Zevahim 4:1
p328
sg165
(lp329
sg167
g118
sg168
Nsg169
(lp330
I4
aI1
asg171
Nsg172
g328
sg173
(lp331
sg175
g64
sg176
Nsg177
Nsg178
Nsbag2
(g3
g4
Ntp332
Rp333
(dp334
g8
g11
sg156
Nsg157
(dp335
sg159
Nsg26
g29
sg160
(lp336
I4
aI2
asg162
Nsg163
VTosefta Zevahim 4:2
p337
sg165
(lp338
sg167
g118
sg168
Nsg169
(lp339
I4
aI2
asg171
Nsg172
g337
sg173
(lp340
sg175
g64
sg176
Nsg177
Nsg178
Nsbag2
(g3
g4
Ntp341
Rp342
(dp343
g8
g11
sg156
Nsg157
(dp344
sg159
Nsg26
g29
sg160
(lp345
I4
aI3
asg162
Nsg163
VTosefta Zevahim 4:3
p346
sg165
(lp347
sg167
g118
sg168
Nsg169
(lp348
I4
aI3
asg171
Nsg172
g346
sg173
(lp349
sg175
g64
sg176
Nsg177
Nsg178
Nsbag2
(g3
g4
Ntp350
Rp351
(dp352
g8
g11
sg156
Nsg157
(dp353
sg159
Nsg26
g29
sg160
(lp354
I4
aI4
asg162
Nsg163
VTosefta Zevahim 4:4
p355
sg165
(lp356
sg167
g118
sg168
Nsg169
(lp357
I4
aI4
asg171
Nsg172
g355
sg173
(lp358
sg175
g64
sg176
Nsg177
Nsg178
Nsbag2
(g3
g4
Ntp359
Rp360
(dp361
g8
g11
sg156
Nsg157
(dp362
sg159
Nsg26
g29
sg160
(lp363
I5
aI1
asg162
Nsg163
VTosefta Zevahim 5:1
p364
sg165
(lp365
sg167
g118
sg168
Nsg169
(lp366
I5
aI1
asg171
Nsg172
g364
sg173
(lp367
sg175
g64
sg176
Nsg177
Nsg178
Nsbag2
(g3
g4
Ntp368
Rp369
(dp370
g8
g11
sg156
Nsg157
(dp371
sg159
Nsg26
g29
sg160
(lp372
I5
aI2
asg162
Nsg163
VTosefta Zevahim 5:2
p373
sg165
(lp374
sg167
g118
sg168
Nsg169
(lp375
I5
aI2
asg171
Nsg172
g373
sg173
(lp376
sg175
g64
sg176
Nsg177
Nsg178
Nsbag2
(g3
g4
Ntp377
Rp378
(dp379
g8
g11
sg156
Nsg157
(dp380
sg159
Nsg26
g29
sg160
(lp381
I5
aI3
asg162
Nsg163
VTosefta Zevahim 5:3
p382
sg165
(lp383
sg167
g118
sg168
Nsg169
(lp384
I5
aI3
asg171
Nsg172
g382
sg173
(lp385
sg175
g64
sg176
Nsg177
Nsg178
Nsbag2
(g3
g4
Ntp386
Rp387
(dp388
g8
g11
sg156
Nsg157
(dp389
sg159
Nsg26
g29
sg160
(lp390
I5
aI4
asg162
Nsg163
VTosefta Zevahim 5:4
p391
sg165
(lp392
sg167
g118
sg168
Nsg169
(lp393
I5
aI4
asg171
Nsg172
g391
sg173
(lp394
sg175
g64
sg176
Nsg177
Nsg178
Nsbag2
(g3
g4
Ntp395
Rp396
(dp397
g8
g11
sg156
Nsg157
(dp398
sg159
Nsg26
g29
sg160
(lp399
I5
aI5
asg162
Nsg163
VTosefta Zevahim 5:5
p400
sg165
(lp401
sg167
g118
sg168
Nsg169
(lp402
I5
aI5
asg171
Nsg172
g400
sg173
(lp403
sg175
g64
sg176
Nsg177
Nsg178
Nsbag2
(g3
g4
Ntp404
Rp405
(dp406
g8
g11
sg156
Nsg157
(dp407
sg159
Nsg26
g29
sg160
(lp408
I5
aI6
asg162
Nsg163
VTosefta Zevahim 5:6
p409
sg165
(lp410
sg167
g118
sg168
Nsg169
(lp411
I5
aI6
asg171
Nsg172
g409
sg173
(lp412
sg175
g64
sg176
Nsg177
Nsg178
Nsbag2
(g3
g4
Ntp413
Rp414
(dp415
g8
g11
sg156
Nsg157
(dp416
sg159
Nsg26
g29
sg160
(lp417
I5
aI7
asg162
Nsg163
VTosefta Zevahim 5:7
p418
sg165
(lp419
sg167
g118
sg168
Nsg169
(lp420
I5
aI7
asg171
Nsg172
g418
sg173
(lp421
sg175
g64
sg176
Nsg177
Nsg178
Nsbag2
(g3
g4
Ntp422
Rp423
(dp424
g8
g11
sg156
Nsg157
(dp425
sg159
Nsg26
g29
sg160
(lp426
I6
aI1
asg162
Nsg163
VTosefta Zevahim 6:1
p427
sg165
(lp428
sg167
g118
sg168
Nsg169
(lp429
I6
aI1
asg171
Nsg172
g427
sg173
(lp430
sg175
g64
sg176
Nsg177
Nsg178
Nsbag2
(g3
g4
Ntp431
Rp432
(dp433
g8
g11
sg156
Nsg157
(dp434
sg159
Nsg26
g29
sg160
(lp435
I6
aI2
asg162
Nsg163
VTosefta Zevahim 6:2
p436
sg165
(lp437
sg167
g118
sg168
Nsg169
(lp438
I6
aI2
asg171
Nsg172
g436
sg173
(lp439
sg175
g64
sg176
Nsg177
Nsg178
Nsbag2
(g3
g4
Ntp440
Rp441
(dp442
g8
g11
sg156
Nsg157
(dp443
sg159
Nsg26
g29
sg160
(lp444
I6
aI3
asg162
Nsg163
VTosefta Zevahim 6:3
p445
sg165
(lp446
sg167
g118
sg168
Nsg169
(lp447
I6
aI3
asg171
Nsg172
g445
sg173
(lp448
sg175
g64
sg176
Nsg177
Nsg178
Nsbag2
(g3
g4
Ntp449
Rp450
(dp451
g8
g11
sg156
Nsg157
(dp452
sg159
Nsg26
g29
sg160
(lp453
I6
aI4
asg162
Nsg163
VTosefta Zevahim 6:4
p454
sg165
(lp455
sg167
g118
sg168
Nsg169
(lp456
I6
aI4
asg171
Nsg172
g454
sg173
(lp457
sg175
g64
sg176
Nsg177
Nsg178
Nsbag2
(g3
g4
Ntp458
Rp459
(dp460
g8
g11
sg156
Nsg157
(dp461
sg159
Nsg26
g29
sg160
(lp462
I6
aI5
asg162
Nsg163
VTosefta Zevahim 6:5
p463
sg165
(lp464
sg167
g118
sg168
Nsg169
(lp465
I6
aI5
asg171
Nsg172
g463
sg173
(lp466
sg175
g64
sg176
Nsg177
Nsg178
Nsbag2
(g3
g4
Ntp467
Rp468
(dp469
g8
g11
sg156
Nsg157
(dp470
sg159
Nsg26
g29
sg160
(lp471
I6
aI6
asg162
Nsg163
VTosefta Zevahim 6:6
p472
sg165
(lp473
sg167
g118
sg168
Nsg169
(lp474
I6
aI6
asg171
Nsg172
g472
sg173
(lp475
sg175
g64
sg176
Nsg177
Nsg178
Nsbag2
(g3
g4
Ntp476
Rp477
(dp478
g8
g11
sg156
Nsg157
(dp479
sg159
Nsg26
g29
sg160
(lp480
I6
aI7
asg162
Nsg163
VTosefta Zevahim 6:7
p481
sg165
(lp482
sg167
g118
sg168
Nsg169
(lp483
I6
aI7
asg171
Nsg172
g481
sg173
(lp484
sg175
g64
sg176
Nsg177
Nsg178
Nsbag2
(g3
g4
Ntp485
Rp486
(dp487
g8
g11
sg156
Nsg157
(dp488
sg159
Nsg26
g29
sg160
(lp489
I6
aI8
asg162
Nsg163
VTosefta Zevahim 6:8
p490
sg165
(lp491
sg167
g118
sg168
Nsg169
(lp492
I6
aI8
asg171
Nsg172
g490
sg173
(lp493
sg175
g64
sg176
Nsg177
Nsg178
Nsbag2
(g3
g4
Ntp494
Rp495
(dp496
g8
g11
sg156
Nsg157
(dp497
sg159
Nsg26
g29
sg160
(lp498
I7
aI1
asg162
Nsg163
VTosefta Zevahim 7:1
p499
sg165
(lp500
sg167
g118
sg168
Nsg169
(lp501
I7
aI1
asg171
Nsg172
g499
sg173
(lp502
sg175
g64
sg176
Nsg177
Nsg178
Nsbag2
(g3
g4
Ntp503
Rp504
(dp505
g8
g11
sg156
Nsg157
(dp506
sg159
Nsg26
g29
sg160
(lp507
I7
aI2
asg162
Nsg163
VTosefta Zevahim 7:2
p508
sg165
(lp509
sg167
g118
sg168
Nsg169
(lp510
I7
aI2
asg171
Nsg172
g508
sg173
(lp511
sg175
g64
sg176
Nsg177
Nsg178
Nsbag2
(g3
g4
Ntp512
Rp513
(dp514
g8
g11
sg156
Nsg157
(dp515
sg159
Nsg26
g29
sg160
(lp516
I7
aI3
asg162
Nsg163
VTosefta Zevahim 7:3
p517
sg165
(lp518
sg167
g118
sg168
Nsg169
(lp519
I7
aI3
asg171
Nsg172
g517
sg173
(lp520
sg175
g64
sg176
Nsg177
Nsg178
Nsbag2
(g3
g4
Ntp521
Rp522
(dp523
g8
g11
sg156
Nsg157
(dp524
sg159
Nsg26
g29
sg160
(lp525
I7
aI4
asg162
Nsg163
VTosefta Zevahim 7:4
p526
sg165
(lp527
sg167
g118
sg168
Nsg169
(lp528
I7
aI4
asg171
Nsg172
g526
sg173
(lp529
sg175
g64
sg176
Nsg177
Nsg178
Nsbag2
(g3
g4
Ntp530
Rp531
(dp532
g8
g11
sg156
Nsg157
(dp533
sg159
Nsg26
g29
sg160
(lp534
I7
aI5
asg162
Nsg163
VTosefta Zevahim 7:5
p535
sg165
(lp536
sg167
g118
sg168
Nsg169
(lp537
I7
aI5
asg171
Nsg172
g535
sg173
(lp538
sg175
g64
sg176
Nsg177
Nsg178
Nsbag2
(g3
g4
Ntp539
Rp540
(dp541
g8
g11
sg156
Nsg157
(dp542
sg159
Nsg26
g29
sg160
(lp543
I7
aI6
asg162
Nsg163
VTosefta Zevahim 7:6
p544
sg165
(lp545
sg167
g118
sg168
Nsg169
(lp546
I7
aI6
asg171
Nsg172
g544
sg173
(lp547
sg175
g64
sg176
Nsg177
Nsg178
Nsbag2
(g3
g4
Ntp548
Rp549
(dp550
g8
g11
sg156
Nsg157
(dp551
sg159
Nsg26
g29
sg160
(lp552
I8
aI1
asg162
Nsg163
VTosefta Zevahim 8:1
p553
sg165
(lp554
sg167
g118
sg168
Nsg169
(lp555
I8
aI1
asg171
Nsg172
g553
sg173
(lp556
sg175
g64
sg176
Nsg177
Nsg178
Nsbag2
(g3
g4
Ntp557
Rp558
(dp559
g8
g11
sg156
Nsg157
(dp560
sg159
Nsg26
g29
sg160
(lp561
I8
aI2
asg162
Nsg163
VTosefta Zevahim 8:2
p562
sg165
(lp563
sg167
g118
sg168
Nsg169
(lp564
I8
aI2
asg171
Nsg172
g562
sg173
(lp565
sg175
g64
sg176
Nsg177
Nsg178
Nsbag2
(g3
g4
Ntp566
Rp567
(dp568
g8
g11
sg156
Nsg157
(dp569
sg159
Nsg26
g29
sg160
(lp570
I8
aI3
asg162
Nsg163
VTosefta Zevahim 8:3
p571
sg165
(lp572
sg167
g118
sg168
Nsg169
(lp573
I8
aI3
asg171
Nsg172
g571
sg173
(lp574
sg175
g64
sg176
Nsg177
Nsg178
Nsbag2
(g3
g4
Ntp575
Rp576
(dp577
g8
g11
sg156
Nsg157
(dp578
sg159
Nsg26
g29
sg160
(lp579
I8
aI4
asg162
Nsg163
VTosefta Zevahim 8:4
p580
sg165
(lp581
sg167
g118
sg168
Nsg169
(lp582
I8
aI4
asg171
Nsg172
g580
sg173
(lp583
sg175
g64
sg176
Nsg177
Nsg178
Nsbag2
(g3
g4
Ntp584
Rp585
(dp586
g8
g11
sg156
Nsg157
(dp587
sg159
Nsg26
g29
sg160
(lp588
I8
aI5
asg162
Nsg163
VTosefta Zevahim 8:5
p589
sg165
(lp590
sg167
g118
sg168
Nsg169
(lp591
I8
aI5
asg171
Nsg172
g589
sg173
(lp592
sg175
g64
sg176
Nsg177
Nsg178
Nsbag2
(g3
g4
Ntp593
Rp594
(dp595
g8
g11
sg156
Nsg157
(dp596
sg159
Nsg26
g29
sg160
(lp597
I8
aI6
asg162
Nsg163
VTosefta Zevahim 8:6
p598
sg165
(lp599
sg167
g118
sg168
Nsg169
(lp600
I8
aI6
asg171
Nsg172
g598
sg173
(lp601
sg175
g64
sg176
Nsg177
Nsg178
Nsbag2
(g3
g4
Ntp602
Rp603
(dp604
g8
g11
sg156
Nsg157
(dp605
sg159
Nsg26
g29
sg160
(lp606
I8
aI7
asg162
Nsg163
VTosefta Zevahim 8:7
p607
sg165
(lp608
sg167
g118
sg168
Nsg169
(lp609
I8
aI7
asg171
Nsg172
g607
sg173
(lp610
sg175
g64
sg176
Nsg177
Nsg178
Nsbag2
(g3
g4
Ntp611
Rp612
(dp613
g8
g11
sg156
Nsg157
(dp614
sg159
Nsg26
g29
sg160
(lp615
I8
aI8
asg162
Nsg163
VTosefta Zevahim 8:8
p616
sg165
(lp617
sg167
g118
sg168
Nsg169
(lp618
I8
aI8
asg171
Nsg172
g616
sg173
(lp619
sg175
g64
sg176
Nsg177
Nsg178
Nsbag2
(g3
g4
Ntp620
Rp621
(dp622
g8
g11
sg156
Nsg157
(dp623
sg159
Nsg26
g29
sg160
(lp624
I8
aI9
asg162
Nsg163
VTosefta Zevahim 8:9
p625
sg165
(lp626
sg167
g118
sg168
Nsg169
(lp627
I8
aI9
asg171
Nsg172
g625
sg173
(lp628
sg175
g64
sg176
Nsg177
Nsg178
Nsbag2
(g3
g4
Ntp629
Rp630
(dp631
g8
g11
sg156
Nsg157
(dp632
sg159
Nsg26
g29
sg160
(lp633
I8
aI10
asg162
Nsg163
VTosefta Zevahim 8:10
p634
sg165
(lp635
sg167
g118
sg168
Nsg169
(lp636
I8
aI10
asg171
Nsg172
g634
sg173
(lp637
sg175
g64
sg176
Nsg177
Nsg178
Nsbag2
(g3
g4
Ntp638
Rp639
(dp640
g8
g11
sg156
Nsg157
(dp641
sg159
Nsg26
g29
sg160
(lp642
I8
aI11
asg162
Nsg163
VTosefta Zevahim 8:11
p643
sg165
(lp644
sg167
g118
sg168
Nsg169
(lp645
I8
aI11
asg171
Nsg172
g643
sg173
(lp646
sg175
g64
sg176
Nsg177
Nsg178
Nsbag2
(g3
g4
Ntp647
Rp648
(dp649
g8
g11
sg156
Nsg157
(dp650
sg159
Nsg26
g29
sg160
(lp651
I8
aI12
asg162
Nsg163
VTosefta Zevahim 8:12
p652
sg165
(lp653
sg167
g118
sg168
Nsg169
(lp654
I8
aI12
asg171
Nsg172
g652
sg173
(lp655
sg175
g64
sg176
Nsg177
Nsg178
Nsbag2
(g3
g4
Ntp656
Rp657
(dp658
g8
g11
sg156
Nsg157
(dp659
sg159
Nsg26
g29
sg160
(lp660
I8
aI13
asg162
Nsg163
VTosefta Zevahim 8:13
p661
sg165
(lp662
sg167
g118
sg168
Nsg169
(lp663
I8
aI13
asg171
Nsg172
g661
sg173
(lp664
sg175
g64
sg176
Nsg177
Nsg178
Nsbag2
(g3
g4
Ntp665
Rp666
(dp667
g8
g11
sg156
Nsg157
(dp668
sg159
Nsg26
g29
sg160
(lp669
I8
aI14
asg162
Nsg163
VTosefta Zevahim 8:14
p670
sg165
(lp671
sg167
g118
sg168
Nsg169
(lp672
I8
aI14
asg171
Nsg172
g670
sg173
(lp673
sg175
g64
sg176
Nsg177
Nsg178
Nsbag2
(g3
g4
Ntp674
Rp675
(dp676
g8
g11
sg156
Nsg157
(dp677
sg159
Nsg26
g29
sg160
(lp678
I9
aI1
asg162
Nsg163
VTosefta Zevahim 9:1
p679
sg165
(lp680
sg167
g118
sg168
Nsg169
(lp681
I9
aI1
asg171
Nsg172
g679
sg173
(lp682
sg175
g64
sg176
Nsg177
Nsg178
Nsbag2
(g3
g4
Ntp683
Rp684
(dp685
g8
g11
sg156
Nsg157
(dp686
sg159
Nsg26
g29
sg160
(lp687
I9
aI2
asg162
Nsg163
VTosefta Zevahim 9:2
p688
sg165
(lp689
sg167
g118
sg168
Nsg169
(lp690
I9
aI2
asg171
Nsg172
g688
sg173
(lp691
sg175
g64
sg176
Nsg177
Nsg178
Nsbag2
(g3
g4
Ntp692
Rp693
(dp694
g8
g11
sg156
Nsg157
(dp695
sg159
Nsg26
g29
sg160
(lp696
I9
aI3
asg162
Nsg163
VTosefta Zevahim 9:3
p697
sg165
(lp698
sg167
g118
sg168
Nsg169
(lp699
I9
aI3
asg171
Nsg172
g697
sg173
(lp700
sg175
g64
sg176
Nsg177
Nsg178
Nsbag2
(g3
g4
Ntp701
Rp702
(dp703
g8
g11
sg156
Nsg157
(dp704
sg159
Nsg26
g29
sg160
(lp705
I9
aI4
asg162
Nsg163
VTosefta Zevahim 9:4
p706
sg165
(lp707
sg167
g118
sg168
Nsg169
(lp708
I9
aI4
asg171
Nsg172
g706
sg173
(lp709
sg175
g64
sg176
Nsg177
Nsg178
Nsbag2
(g3
g4
Ntp710
Rp711
(dp712
g8
g11
sg156
Nsg157
(dp713
sg159
Nsg26
g29
sg160
(lp714
I9
aI5
asg162
Nsg163
VTosefta Zevahim 9:5
p715
sg165
(lp716
sg167
g118
sg168
Nsg169
(lp717
I9
aI5
asg171
Nsg172
g715
sg173
(lp718
sg175
g64
sg176
Nsg177
Nsg178
Nsbag2
(g3
g4
Ntp719
Rp720
(dp721
g8
g11
sg156
Nsg157
(dp722
sg159
Nsg26
g29
sg160
(lp723
I9
aI6
asg162
Nsg163
VTosefta Zevahim 9:6
p724
sg165
(lp725
sg167
g118
sg168
Nsg169
(lp726
I9
aI6
asg171
Nsg172
g724
sg173
(lp727
sg175
g64
sg176
Nsg177
Nsg178
Nsbag2
(g3
g4
Ntp728
Rp729
(dp730
g8
g11
sg156
Nsg157
(dp731
sg159
Nsg26
g29
sg160
(lp732
I10
aI1
asg162
Nsg163
VTosefta Zevahim 10:1
p733
sg165
(lp734
sg167
g118
sg168
Nsg169
(lp735
I10
aI1
asg171
Nsg172
g733
sg173
(lp736
sg175
g64
sg176
Nsg177
Nsg178
Nsbag2
(g3
g4
Ntp737
Rp738
(dp739
g8
g11
sg156
Nsg157
(dp740
sg159
Nsg26
g29
sg160
(lp741
I10
aI2
asg162
Nsg163
VTosefta Zevahim 10:2
p742
sg165
(lp743
sg167
g118
sg168
Nsg169
(lp744
I10
aI2
asg171
Nsg172
g742
sg173
(lp745
sg175
g64
sg176
Nsg177
Nsg178
Nsbag2
(g3
g4
Ntp746
Rp747
(dp748
g8
g11
sg156
Nsg157
(dp749
sg159
Nsg26
g29
sg160
(lp750
I10
aI3
asg162
Nsg163
VTosefta Zevahim 10:3
p751
sg165
(lp752
sg167
g118
sg168
Nsg169
(lp753
I10
aI3
asg171
Nsg172
g751
sg173
(lp754
sg175
g64
sg176
Nsg177
Nsg178
Nsbag2
(g3
g4
Ntp755
Rp756
(dp757
g8
g11
sg156
Nsg157
(dp758
sg159
Nsg26
g29
sg160
(lp759
I10
aI4
asg162
Nsg163
VTosefta Zevahim 10:4
p760
sg165
(lp761
sg167
g118
sg168
Nsg169
(lp762
I10
aI4
asg171
Nsg172
g760
sg173
(lp763
sg175
g64
sg176
Nsg177
Nsg178
Nsbag2
(g3
g4
Ntp764
Rp765
(dp766
g8
g11
sg156
Nsg157
(dp767
sg159
Nsg26
g29
sg160
(lp768
I10
aI5
asg162
Nsg163
VTosefta Zevahim 10:5
p769
sg165
(lp770
sg167
g118
sg168
Nsg169
(lp771
I10
aI5
asg171
Nsg172
g769
sg173
(lp772
sg175
g64
sg176
Nsg177
Nsg178
Nsbag2
(g3
g4
Ntp773
Rp774
(dp775
g8
g11
sg156
Nsg157
(dp776
sg159
Nsg26
g29
sg160
(lp777
I10
aI6
asg162
Nsg163
VTosefta Zevahim 10:6
p778
sg165
(lp779
sg167
g118
sg168
Nsg169
(lp780
I10
aI6
asg171
Nsg172
g778
sg173
(lp781
sg175
g64
sg176
Nsg177
Nsg178
Nsbag2
(g3
g4
Ntp782
Rp783
(dp784
g8
g11
sg156
Nsg157
(dp785
sg159
Nsg26
g29
sg160
(lp786
I10
aI7
asg162
Nsg163
VTosefta Zevahim 10:7
p787
sg165
(lp788
sg167
g118
sg168
Nsg169
(lp789
I10
aI7
asg171
Nsg172
g787
sg173
(lp790
sg175
g64
sg176
Nsg177
Nsg178
Nsbag2
(g3
g4
Ntp791
Rp792
(dp793
g8
g11
sg156
Nsg157
(dp794
sg159
Nsg26
g29
sg160
(lp795
I11
aI1
asg162
Nsg163
VTosefta Zevahim 11:1
p796
sg165
(lp797
sg167
g118
sg168
Nsg169
(lp798
I11
aI1
asg171
Nsg172
g796
sg173
(lp799
sg175
g64
sg176
Nsg177
Nsg178
Nsbag2
(g3
g4
Ntp800
Rp801
(dp802
g8
g11
sg156
Nsg157
(dp803
sg159
Nsg26
g29
sg160
(lp804
I11
aI2
asg162
Nsg163
VTosefta Zevahim 11:2
p805
sg165
(lp806
sg167
g118
sg168
Nsg169
(lp807
I11
aI2
asg171
Nsg172
g805
sg173
(lp808
sg175
g64
sg176
Nsg177
Nsg178
Nsbag2
(g3
g4
Ntp809
Rp810
(dp811
g8
g11
sg156
Nsg157
(dp812
sg159
Nsg26
g29
sg160
(lp813
I11
aI3
asg162
Nsg163
VTosefta Zevahim 11:3
p814
sg165
(lp815
sg167
g118
sg168
Nsg169
(lp816
I11
aI3
asg171
Nsg172
g814
sg173
(lp817
sg175
g64
sg176
Nsg177
Nsg178
Nsbag2
(g3
g4
Ntp818
Rp819
(dp820
g8
g11
sg156
Nsg157
(dp821
sg159
Nsg26
g29
sg160
(lp822
I11
aI4
asg162
Nsg163
VTosefta Zevahim 11:4
p823
sg165
(lp824
sg167
g118
sg168
Nsg169
(lp825
I11
aI4
asg171
Nsg172
g823
sg173
(lp826
sg175
g64
sg176
Nsg177
Nsg178
Nsbag2
(g3
g4
Ntp827
Rp828
(dp829
g8
g11
sg156
Nsg157
(dp830
sg159
Nsg26
g29
sg160
(lp831
I11
aI5
asg162
Nsg163
VTosefta Zevahim 11:5
p832
sg165
(lp833
sg167
g118
sg168
Nsg169
(lp834
I11
aI5
asg171
Nsg172
g832
sg173
(lp835
sg175
g64
sg176
Nsg177
Nsg178
Nsbag2
(g3
g4
Ntp836
Rp837
(dp838
g8
g11
sg156
Nsg157
(dp839
sg159
Nsg26
g29
sg160
(lp840
I11
aI6
asg162
Nsg163
VTosefta Zevahim 11:6
p841
sg165
(lp842
sg167
g118
sg168
Nsg169
(lp843
I11
aI6
asg171
Nsg172
g841
sg173
(lp844
sg175
g64
sg176
Nsg177
Nsg178
Nsbag2
(g3
g4
Ntp845
Rp846
(dp847
g8
g11
sg156
Nsg157
(dp848
sg159
Nsg26
g29
sg160
(lp849
I11
aI7
asg162
Nsg163
VTosefta Zevahim 11:7
p850
sg165
(lp851
sg167
g118
sg168
Nsg169
(lp852
I11
aI7
asg171
Nsg172
g850
sg173
(lp853
sg175
g64
sg176
Nsg177
Nsg178
Nsbag2
(g3
g4
Ntp854
Rp855
(dp856
g8
g11
sg156
Nsg157
(dp857
sg159
Nsg26
g29
sg160
(lp858
I11
aI8
asg162
Nsg163
VTosefta Zevahim 11:8
p859
sg165
(lp860
sg167
g118
sg168
Nsg169
(lp861
I11
aI8
asg171
Nsg172
g859
sg173
(lp862
sg175
g64
sg176
Nsg177
Nsg178
Nsbag2
(g3
g4
Ntp863
Rp864
(dp865
g8
g11
sg156
Nsg157
(dp866
sg159
Nsg26
g29
sg160
(lp867
I12
aI1
asg162
Nsg163
VTosefta Zevahim 12:1
p868
sg165
(lp869
sg167
g118
sg168
Nsg169
(lp870
I12
aI1
asg171
Nsg172
g868
sg173
(lp871
sg175
g64
sg176
Nsg177
Nsg178
Nsbag2
(g3
g4
Ntp872
Rp873
(dp874
g8
g11
sg156
Nsg157
(dp875
sg159
Nsg26
g29
sg160
(lp876
I12
aI2
asg162
Nsg163
VTosefta Zevahim 12:2
p877
sg165
(lp878
sg167
g118
sg168
Nsg169
(lp879
I12
aI2
asg171
Nsg172
g877
sg173
(lp880
sg175
g64
sg176
Nsg177
Nsg178
Nsbag2
(g3
g4
Ntp881
Rp882
(dp883
g8
g11
sg156
Nsg157
(dp884
sg159
Nsg26
g29
sg160
(lp885
I12
aI3
asg162
Nsg163
VTosefta Zevahim 12:3
p886
sg165
(lp887
sg167
g118
sg168
Nsg169
(lp888
I12
aI3
asg171
Nsg172
g886
sg173
(lp889
sg175
g64
sg176
Nsg177
Nsg178
Nsbag2
(g3
g4
Ntp890
Rp891
(dp892
g8
g11
sg156
Nsg157
(dp893
sg159
Nsg26
g29
sg160
(lp894
I12
aI4
asg162
Nsg163
VTosefta Zevahim 12:4
p895
sg165
(lp896
sg167
g118
sg168
Nsg169
(lp897
I12
aI4
asg171
Nsg172
g895
sg173
(lp898
sg175
g64
sg176
Nsg177
Nsg178
Nsbag2
(g3
g4
Ntp899
Rp900
(dp901
g8
g11
sg156
Nsg157
(dp902
sg159
Nsg26
g29
sg160
(lp903
I12
aI5
asg162
Nsg163
VTosefta Zevahim 12:5
p904
sg165
(lp905
sg167
g118
sg168
Nsg169
(lp906
I12
aI5
asg171
Nsg172
g904
sg173
(lp907
sg175
g64
sg176
Nsg177
Nsg178
Nsbag2
(g3
g4
Ntp908
Rp909
(dp910
g8
g11
sg156
Nsg157
(dp911
sg159
Nsg26
g29
sg160
(lp912
I12
aI6
asg162
Nsg163
VTosefta Zevahim 12:6
p913
sg165
(lp914
sg167
g118
sg168
Nsg169
(lp915
I12
aI6
asg171
Nsg172
g913
sg173
(lp916
sg175
g64
sg176
Nsg177
Nsg178
Nsbag2
(g3
g4
Ntp917
Rp918
(dp919
g8
g11
sg156
Nsg157
(dp920
sg159
Nsg26
g29
sg160
(lp921
I12
aI7
asg162
Nsg163
VTosefta Zevahim 12:7
p922
sg165
(lp923
sg167
g118
sg168
Nsg169
(lp924
I12
aI7
asg171
Nsg172
g922
sg173
(lp925
sg175
g64
sg176
Nsg177
Nsg178
Nsbag2
(g3
g4
Ntp926
Rp927
(dp928
g8
g11
sg156
Nsg157
(dp929
sg159
Nsg26
g29
sg160
(lp930
I12
aI8
asg162
Nsg163
VTosefta Zevahim 12:8
p931
sg165
(lp932
sg167
g118
sg168
Nsg169
(lp933
I12
aI8
asg171
Nsg172
g931
sg173
(lp934
sg175
g64
sg176
Nsg177
Nsg178
Nsbag2
(g3
g4
Ntp935
Rp936
(dp937
g8
g11
sg156
Nsg157
(dp938
sg159
Nsg26
g29
sg160
(lp939
I13
aI1
asg162
Nsg163
VTosefta Zevahim 13:1
p940
sg165
(lp941
sg167
g118
sg168
Nsg169
(lp942
I13
aI1
asg171
Nsg172
g940
sg173
(lp943
sg175
g64
sg176
Nsg177
Nsg178
Nsbag2
(g3
g4
Ntp944
Rp945
(dp946
g8
g11
sg156
Nsg157
(dp947
sg159
Nsg26
g29
sg160
(lp948
I13
aI2
asg162
Nsg163
VTosefta Zevahim 13:2
p949
sg165
(lp950
sg167
g118
sg168
Nsg169
(lp951
I13
aI2
asg171
Nsg172
g949
sg173
(lp952
sg175
g64
sg176
Nsg177
Nsg178
Nsbag2
(g3
g4
Ntp953
Rp954
(dp955
g8
g11
sg156
Nsg157
(dp956
sg159
Nsg26
g29
sg160
(lp957
I13
aI3
asg162
Nsg163
VTosefta Zevahim 13:3
p958
sg165
(lp959
sg167
g118
sg168
Nsg169
(lp960
I13
aI3
asg171
Nsg172
g958
sg173
(lp961
sg175
g64
sg176
Nsg177
Nsg178
Nsbag2
(g3
g4
Ntp962
Rp963
(dp964
g8
g11
sg156
Nsg157
(dp965
sg159
Nsg26
g29
sg160
(lp966
I13
aI4
asg162
Nsg163
VTosefta Zevahim 13:4
p967
sg165
(lp968
sg167
g118
sg168
Nsg169
(lp969
I13
aI4
asg171
Nsg172
g967
sg173
(lp970
sg175
g64
sg176
Nsg177
Nsg178
Nsbag2
(g3
g4
Ntp971
Rp972
(dp973
g8
g11
sg156
Nsg157
(dp974
sg159
Nsg26
g29
sg160
(lp975
I13
aI5
asg162
Nsg163
VTosefta Zevahim 13:5
p976
sg165
(lp977
sg167
g118
sg168
Nsg169
(lp978
I13
aI5
asg171
Nsg172
g976
sg173
(lp979
sg175
g64
sg176
Nsg177
Nsg178
Nsbag2
(g3
g4
Ntp980
Rp981
(dp982
g8
g11
sg156
Nsg157
(dp983
sg159
Nsg26
g29
sg160
(lp984
I13
aI6
asg162
Nsg163
VTosefta Zevahim 13:6
p985
sg165
(lp986
sg167
g118
sg168
Nsg169
(lp987
I13
aI6
asg171
Nsg172
g985
sg173
(lp988
sg175
g64
sg176
Nsg177
Nsg178
Nsbag2
(g3
g4
Ntp989
Rp990
(dp991
g8
g11
sg156
Nsg157
(dp992
sg159
Nsg26
g29
sg160
(lp993
I13
aI7
asg162
Nsg163
VTosefta Zevahim 13:7
p994
sg165
(lp995
sg167
g118
sg168
Nsg169
(lp996
I13
aI7
asg171
Nsg172
g994
sg173
(lp997
sg175
g64
sg176
Nsg177
Nsg178
Nsbag2
(g3
g4
Ntp998
Rp999
(dp1000
g8
g11
sg156
Nsg157
(dp1001
sg159
Nsg26
g29
sg160
(lp1002
I13
aI8
asg162
Nsg163
VTosefta Zevahim 13:8
p1003
sg165
(lp1004
sg167
g118
sg168
Nsg169
(lp1005
I13
aI8
asg171
Nsg172
g1003
sg173
(lp1006
sg175
g64
sg176
Nsg177
Nsg178
Nsbag2
(g3
g4
Ntp1007
Rp1008
(dp1009
g8
g11
sg156
Nsg157
(dp1010
sg159
Nsg26
g29
sg160
(lp1011
I13
aI9
asg162
Nsg163
VTosefta Zevahim 13:9
p1012
sg165
(lp1013
sg167
g118
sg168
Nsg169
(lp1014
I13
aI9
asg171
Nsg172
g1012
sg173
(lp1015
sg175
g64
sg176
Nsg177
Nsg178
Nsbatp1016
.