((lp0
I0
aI95
aI260
aI418
aI548
aI630
aI717
aI775
aI889
aI1022
aI1180
aI1324
aI1369
aI1406
aI1433
aI1459
aI1520
aI1670
aI1692
aI1765
aI1812
aI1915
aI1959
aI2148
aI2187
aI2270
aI2328
aI2404
aI2538
aI2584
aI2642
aI2707
aI2713
aI2738
aI2806
aI2877
aI2999
aI3021
aI3111
aI3215
aI3379
aI3461
aI3522
aI3661
aI3772
aI3851
aI4065
aI4225
aI4385
aI4443
aI4578
aI4705
aI4799
aI4935
aI5064
aI5200
aI5345
aI5431
aI5543
a(lp1
ccopy_reg
_reconstructor
p2
(csefaria.model.text
Ref
p3
c__builtin__
object
p4
Ntp5
Rp6
(dp7
S'index_node'
p8
g2
(csefaria.model.schema
JaggedArrayNode
p9
g4
Ntp10
Rp11
(dp12
S'_address'
p13
(lp14
VTosefta Keilim Metsia
p15
asS'_full_titles'
p16
(dp17
sVnodeType
p18
VJaggedArrayNode
p19
sS'parent'
p20
NsVaddressTypes
p21
(lp22
VInteger
p23
aVInteger
p24
asS'default'
p25
I00
sS'index'
p26
g2
(csefaria.model.text
Index
p27
g4
Ntp28
Rp29
(dp30
S'_id'
p31
g2
(cbson.objectid
ObjectId
p32
g4
Ntp33
Rp34
S'S3\x167\xfb\xfb\xa2db\x83\xd9\xe6'
p35
bsS'pkeys_orig_values'
p36
(dp37
S'title'
p38
VTosefta Keilim Metsia
p39
ssS'pubDate'
p40
V1521
p41
sS'compDate'
p42
V210
p43
sS'pubPlace'
p44
VVenice
p45
sS'compPlace'
p46
VTalmudic Israel
p47
sS'enDesc'
p48
VThe Tosefta (Supplement, addition") is a compilation of the Jewish oral law. Opinions differ widely as to when the Tosefta was redacted and how it relates to the Mishnah. However it closely corresponds to the Mishnah in structure and style, with the same divisions for sedarim ("orders") and masekhot ("tractates"). In many ways, the Tosefta acts as a supplement to the Mishnah. It is mainly written in Mishnaic Hebrew, with some Aramaic. Kelim Meziah (Vessels) belongs to the sixth order, Tahorot (Purities) and discusses a large array of various utensils and how they fare in terms of purity. It has eleven chapters. It is the largest order of the Mishnah.
p49
sS'order'
p50
(lp51
I2
asS'era'
p52
VT
p53
sS'struct_objs'
p54
(dp55
sS'nodes'
p56
g11
sS'errorMargin'
p57
V20
p58
sS'_title'
p59
g39
sS'categories'
p60
(lp61
VTosefta
p62
aVSeder Toharot
p63
asS'schema'
p64
(dp65
g18
g19
sg21
g22
sVlengths
p66
(lp67
I11
asVdepth
p68
I2
sVtitles
p69
(lp70
(dp71
Vlang
p72
Ven
p73
sVtext
p74
VTos. Keilim Metzia
p75
sa(dp76
Vlang
p77
Ven
p78
sVtext
p79
VTos. Keilim Metsia
p80
sa(dp81
Vlang
p82
Ven
p83
sVtext
p84
VT. Keilim Metsia
p85
sa(dp86
Vlang
p87
Ven
p88
sVtext
p89
VT. Keilim Metzia
p90
sa(dp91
Vlang
p92
Vhe
p93
sVtext
p94
V\u05ea\u05d5\u05e1\u05e4\u05ea\u05d0 \u05db\u05dc\u05d9\u05dd \u05de\u05e6\u05d9\u05e2\u05d0
p95
sVprimary
p96
I01
sa(dp97
Vlang
p98
Ven
p99
sVtext
p100
VTosefta Keilim Metsia
p101
sVprimary
p102
I01
sasVkey
p103
g15
sVsectionNames
p104
(lp105
VChapter
p106
aVTosefta
p107
assbsS'_primary_title'
p108
(dp109
sS'title_group'
p110
g2
(csefaria.model.schema
TitleGroup
p111
g4
Ntp112
Rp113
(dp114
g108
(dp115
S'en'
p116
g101
ssS'titles'
p117
g70
sbsS'_addressTypes'
p118
(lp119
g2
(csefaria.model.schema
AddressInteger
p120
g4
Ntp121
Rp122
(dp123
S'length'
p124
I11
sg50
I0
sbag2
(g120
g4
Ntp125
Rp126
(dp127
g124
Nsg50
I1
sbasS'sharedTitle'
p128
Nsg66
g67
sg68
I2
sS'_full_title'
p129
(dp130
g116
g101
ssS'key'
p131
g15
sS'checkFirst'
p132
NsS'_regexes'
p133
(dp134
sS'_leaf_nodes'
p135
(lp136
sg104
g105
sS'children'
p137
(lp138
sbsS'_range_index'
p139
NsS'_context'
p140
(dp141
sS'_padded'
p142
Nsg26
g29
sS'sections'
p143
(lp144
I1
aI1
asS'_first_spanned_ref'
p145
NsS'tref'
p146
VTosefta Keilim Metsia 1:1
p147
sS'_spanned_refs'
p148
(lp149
sS'book'
p150
g101
sS'_range_depth'
p151
NsS'toSections'
p152
(lp153
I1
aI1
asS'_url'
p154
NsS'_normal'
p155
g147
sS'_ranged_refs'
p156
(lp157
sS'type'
p158
g62
sS'_prev'
p159
NsS'_he_normal'
p160
NsS'_next'
p161
Nsbag2
(g3
g4
Ntp162
Rp163
(dp164
g8
g11
sg139
Nsg140
(dp165
sg142
Nsg26
g29
sg143
(lp166
I1
aI2
asg145
Nsg146
VTosefta Keilim Metsia 1:2
p167
sg148
(lp168
sg150
g101
sg151
Nsg152
(lp169
I1
aI2
asg154
Nsg155
g167
sg156
(lp170
sg158
g62
sg159
Nsg160
Nsg161
Nsbag2
(g3
g4
Ntp171
Rp172
(dp173
g8
g11
sg139
Nsg140
(dp174
sg142
Nsg26
g29
sg143
(lp175
I1
aI3
asg145
Nsg146
VTosefta Keilim Metsia 1:3
p176
sg148
(lp177
sg150
g101
sg151
Nsg152
(lp178
I1
aI3
asg154
Nsg155
g176
sg156
(lp179
sg158
g62
sg159
Nsg160
Nsg161
Nsbag2
(g3
g4
Ntp180
Rp181
(dp182
g8
g11
sg139
Nsg140
(dp183
sg142
Nsg26
g29
sg143
(lp184
I1
aI4
asg145
Nsg146
VTosefta Keilim Metsia 1:4
p185
sg148
(lp186
sg150
g101
sg151
Nsg152
(lp187
I1
aI4
asg154
Nsg155
g185
sg156
(lp188
sg158
g62
sg159
Nsg160
Nsg161
Nsbag2
(g3
g4
Ntp189
Rp190
(dp191
g8
g11
sg139
Nsg140
(dp192
sg142
Nsg26
g29
sg143
(lp193
I1
aI5
asg145
Nsg146
VTosefta Keilim Metsia 1:5
p194
sg148
(lp195
sg150
g101
sg151
Nsg152
(lp196
I1
aI5
asg154
Nsg155
g194
sg156
(lp197
sg158
g62
sg159
Nsg160
Nsg161
Nsbag2
(g3
g4
Ntp198
Rp199
(dp200
g8
g11
sg139
Nsg140
(dp201
sg142
Nsg26
g29
sg143
(lp202
I2
aI1
asg145
Nsg146
VTosefta Keilim Metsia 2:1
p203
sg148
(lp204
sg150
g101
sg151
Nsg152
(lp205
I2
aI1
asg154
Nsg155
g203
sg156
(lp206
sg158
g62
sg159
Nsg160
Nsg161
Nsbag2
(g3
g4
Ntp207
Rp208
(dp209
g8
g11
sg139
Nsg140
(dp210
sg142
Nsg26
g29
sg143
(lp211
I2
aI2
asg145
Nsg146
VTosefta Keilim Metsia 2:2
p212
sg148
(lp213
sg150
g101
sg151
Nsg152
(lp214
I2
aI2
asg154
Nsg155
g212
sg156
(lp215
sg158
g62
sg159
Nsg160
Nsg161
Nsbag2
(g3
g4
Ntp216
Rp217
(dp218
g8
g11
sg139
Nsg140
(dp219
sg142
Nsg26
g29
sg143
(lp220
I2
aI3
asg145
Nsg146
VTosefta Keilim Metsia 2:3
p221
sg148
(lp222
sg150
g101
sg151
Nsg152
(lp223
I2
aI3
asg154
Nsg155
g221
sg156
(lp224
sg158
g62
sg159
Nsg160
Nsg161
Nsbag2
(g3
g4
Ntp225
Rp226
(dp227
g8
g11
sg139
Nsg140
(dp228
sg142
Nsg26
g29
sg143
(lp229
I2
aI4
asg145
Nsg146
VTosefta Keilim Metsia 2:4
p230
sg148
(lp231
sg150
g101
sg151
Nsg152
(lp232
I2
aI4
asg154
Nsg155
g230
sg156
(lp233
sg158
g62
sg159
Nsg160
Nsg161
Nsbag2
(g3
g4
Ntp234
Rp235
(dp236
g8
g11
sg139
Nsg140
(dp237
sg142
Nsg26
g29
sg143
(lp238
I2
aI5
asg145
Nsg146
VTosefta Keilim Metsia 2:5
p239
sg148
(lp240
sg150
g101
sg151
Nsg152
(lp241
I2
aI5
asg154
Nsg155
g239
sg156
(lp242
sg158
g62
sg159
Nsg160
Nsg161
Nsbag2
(g3
g4
Ntp243
Rp244
(dp245
g8
g11
sg139
Nsg140
(dp246
sg142
Nsg26
g29
sg143
(lp247
I2
aI6
asg145
Nsg146
VTosefta Keilim Metsia 2:6
p248
sg148
(lp249
sg150
g101
sg151
Nsg152
(lp250
I2
aI6
asg154
Nsg155
g248
sg156
(lp251
sg158
g62
sg159
Nsg160
Nsg161
Nsbag2
(g3
g4
Ntp252
Rp253
(dp254
g8
g11
sg139
Nsg140
(dp255
sg142
Nsg26
g29
sg143
(lp256
I3
aI1
asg145
Nsg146
VTosefta Keilim Metsia 3:1
p257
sg148
(lp258
sg150
g101
sg151
Nsg152
(lp259
I3
aI1
asg154
Nsg155
g257
sg156
(lp260
sg158
g62
sg159
Nsg160
Nsg161
Nsbag2
(g3
g4
Ntp261
Rp262
(dp263
g8
g11
sg139
Nsg140
(dp264
sg142
Nsg26
g29
sg143
(lp265
I3
aI2
asg145
Nsg146
VTosefta Keilim Metsia 3:2
p266
sg148
(lp267
sg150
g101
sg151
Nsg152
(lp268
I3
aI2
asg154
Nsg155
g266
sg156
(lp269
sg158
g62
sg159
Nsg160
Nsg161
Nsbag2
(g3
g4
Ntp270
Rp271
(dp272
g8
g11
sg139
Nsg140
(dp273
sg142
Nsg26
g29
sg143
(lp274
I3
aI3
asg145
Nsg146
VTosefta Keilim Metsia 3:3
p275
sg148
(lp276
sg150
g101
sg151
Nsg152
(lp277
I3
aI3
asg154
Nsg155
g275
sg156
(lp278
sg158
g62
sg159
Nsg160
Nsg161
Nsbag2
(g3
g4
Ntp279
Rp280
(dp281
g8
g11
sg139
Nsg140
(dp282
sg142
Nsg26
g29
sg143
(lp283
I3
aI4
asg145
Nsg146
VTosefta Keilim Metsia 3:4
p284
sg148
(lp285
sg150
g101
sg151
Nsg152
(lp286
I3
aI4
asg154
Nsg155
g284
sg156
(lp287
sg158
g62
sg159
Nsg160
Nsg161
Nsbag2
(g3
g4
Ntp288
Rp289
(dp290
g8
g11
sg139
Nsg140
(dp291
sg142
Nsg26
g29
sg143
(lp292
I3
aI5
asg145
Nsg146
VTosefta Keilim Metsia 3:5
p293
sg148
(lp294
sg150
g101
sg151
Nsg152
(lp295
I3
aI5
asg154
Nsg155
g293
sg156
(lp296
sg158
g62
sg159
Nsg160
Nsg161
Nsbag2
(g3
g4
Ntp297
Rp298
(dp299
g8
g11
sg139
Nsg140
(dp300
sg142
Nsg26
g29
sg143
(lp301
I3
aI6
asg145
Nsg146
VTosefta Keilim Metsia 3:6
p302
sg148
(lp303
sg150
g101
sg151
Nsg152
(lp304
I3
aI6
asg154
Nsg155
g302
sg156
(lp305
sg158
g62
sg159
Nsg160
Nsg161
Nsbag2
(g3
g4
Ntp306
Rp307
(dp308
g8
g11
sg139
Nsg140
(dp309
sg142
Nsg26
g29
sg143
(lp310
I3
aI7
asg145
Nsg146
VTosefta Keilim Metsia 3:7
p311
sg148
(lp312
sg150
g101
sg151
Nsg152
(lp313
I3
aI7
asg154
Nsg155
g311
sg156
(lp314
sg158
g62
sg159
Nsg160
Nsg161
Nsbag2
(g3
g4
Ntp315
Rp316
(dp317
g8
g11
sg139
Nsg140
(dp318
sg142
Nsg26
g29
sg143
(lp319
I3
aI8
asg145
Nsg146
VTosefta Keilim Metsia 3:8
p320
sg148
(lp321
sg150
g101
sg151
Nsg152
(lp322
I3
aI8
asg154
Nsg155
g320
sg156
(lp323
sg158
g62
sg159
Nsg160
Nsg161
Nsbag2
(g3
g4
Ntp324
Rp325
(dp326
g8
g11
sg139
Nsg140
(dp327
sg142
Nsg26
g29
sg143
(lp328
I3
aI9
asg145
Nsg146
VTosefta Keilim Metsia 3:9
p329
sg148
(lp330
sg150
g101
sg151
Nsg152
(lp331
I3
aI9
asg154
Nsg155
g329
sg156
(lp332
sg158
g62
sg159
Nsg160
Nsg161
Nsbag2
(g3
g4
Ntp333
Rp334
(dp335
g8
g11
sg139
Nsg140
(dp336
sg142
Nsg26
g29
sg143
(lp337
I4
aI1
asg145
Nsg146
VTosefta Keilim Metsia 4:1
p338
sg148
(lp339
sg150
g101
sg151
Nsg152
(lp340
I4
aI1
asg154
Nsg155
g338
sg156
(lp341
sg158
g62
sg159
Nsg160
Nsg161
Nsbag2
(g3
g4
Ntp342
Rp343
(dp344
g8
g11
sg139
Nsg140
(dp345
sg142
Nsg26
g29
sg143
(lp346
I4
aI2
asg145
Nsg146
VTosefta Keilim Metsia 4:2
p347
sg148
(lp348
sg150
g101
sg151
Nsg152
(lp349
I4
aI2
asg154
Nsg155
g347
sg156
(lp350
sg158
g62
sg159
Nsg160
Nsg161
Nsbag2
(g3
g4
Ntp351
Rp352
(dp353
g8
g11
sg139
Nsg140
(dp354
sg142
Nsg26
g29
sg143
(lp355
I4
aI3
asg145
Nsg146
VTosefta Keilim Metsia 4:3
p356
sg148
(lp357
sg150
g101
sg151
Nsg152
(lp358
I4
aI3
asg154
Nsg155
g356
sg156
(lp359
sg158
g62
sg159
Nsg160
Nsg161
Nsbag2
(g3
g4
Ntp360
Rp361
(dp362
g8
g11
sg139
Nsg140
(dp363
sg142
Nsg26
g29
sg143
(lp364
I4
aI4
asg145
Nsg146
VTosefta Keilim Metsia 4:4
p365
sg148
(lp366
sg150
g101
sg151
Nsg152
(lp367
I4
aI4
asg154
Nsg155
g365
sg156
(lp368
sg158
g62
sg159
Nsg160
Nsg161
Nsbag2
(g3
g4
Ntp369
Rp370
(dp371
g8
g11
sg139
Nsg140
(dp372
sg142
Nsg26
g29
sg143
(lp373
I4
aI5
asg145
Nsg146
VTosefta Keilim Metsia 4:5
p374
sg148
(lp375
sg150
g101
sg151
Nsg152
(lp376
I4
aI5
asg154
Nsg155
g374
sg156
(lp377
sg158
g62
sg159
Nsg160
Nsg161
Nsbag2
(g3
g4
Ntp378
Rp379
(dp380
g8
g11
sg139
Nsg140
(dp381
sg142
Nsg26
g29
sg143
(lp382
I4
aI6
asg145
Nsg146
VTosefta Keilim Metsia 4:6
p383
sg148
(lp384
sg150
g101
sg151
Nsg152
(lp385
I4
aI6
asg154
Nsg155
g383
sg156
(lp386
sg158
g62
sg159
Nsg160
Nsg161
Nsbag2
(g3
g4
Ntp387
Rp388
(dp389
g8
g11
sg139
Nsg140
(dp390
sg142
Nsg26
g29
sg143
(lp391
I4
aI7
asg145
Nsg146
VTosefta Keilim Metsia 4:7
p392
sg148
(lp393
sg150
g101
sg151
Nsg152
(lp394
I4
aI7
asg154
Nsg155
g392
sg156
(lp395
sg158
g62
sg159
Nsg160
Nsg161
Nsbag2
(g3
g4
Ntp396
Rp397
(dp398
g8
g11
sg139
Nsg140
(dp399
sg142
Nsg26
g29
sg143
(lp400
I5
aI1
asg145
Nsg146
VTosefta Keilim Metsia 5:1
p401
sg148
(lp402
sg150
g101
sg151
Nsg152
(lp403
I5
aI1
asg154
Nsg155
g401
sg156
(lp404
sg158
g62
sg159
Nsg160
Nsg161
Nsbag2
(g3
g4
Ntp405
Rp406
(dp407
g8
g11
sg139
Nsg140
(dp408
sg142
Nsg26
g29
sg143
(lp409
I5
aI2
asg145
Nsg146
VTosefta Keilim Metsia 5:2
p410
sg148
(lp411
sg150
g101
sg151
Nsg152
(lp412
I5
aI2
asg154
Nsg155
g410
sg156
(lp413
sg158
g62
sg159
Nsg160
Nsg161
Nsbag2
(g3
g4
Ntp414
Rp415
(dp416
g8
g11
sg139
Nsg140
(dp417
sg142
Nsg26
g29
sg143
(lp418
I5
aI3
asg145
Nsg146
VTosefta Keilim Metsia 5:3
p419
sg148
(lp420
sg150
g101
sg151
Nsg152
(lp421
I5
aI3
asg154
Nsg155
g419
sg156
(lp422
sg158
g62
sg159
Nsg160
Nsg161
Nsbag2
(g3
g4
Ntp423
Rp424
(dp425
g8
g11
sg139
Nsg140
(dp426
sg142
Nsg26
g29
sg143
(lp427
I5
aI4
asg145
Nsg146
VTosefta Keilim Metsia 5:4
p428
sg148
(lp429
sg150
g101
sg151
Nsg152
(lp430
I5
aI4
asg154
Nsg155
g428
sg156
(lp431
sg158
g62
sg159
Nsg160
Nsg161
Nsbag2
(g3
g4
Ntp432
Rp433
(dp434
g8
g11
sg139
Nsg140
(dp435
sg142
Nsg26
g29
sg143
(lp436
I5
aI5
asg145
Nsg146
VTosefta Keilim Metsia 5:5
p437
sg148
(lp438
sg150
g101
sg151
Nsg152
(lp439
I5
aI5
asg154
Nsg155
g437
sg156
(lp440
sg158
g62
sg159
Nsg160
Nsg161
Nsbag2
(g3
g4
Ntp441
Rp442
(dp443
g8
g11
sg139
Nsg140
(dp444
sg142
Nsg26
g29
sg143
(lp445
I5
aI6
asg145
Nsg146
VTosefta Keilim Metsia 5:6
p446
sg148
(lp447
sg150
g101
sg151
Nsg152
(lp448
I5
aI6
asg154
Nsg155
g446
sg156
(lp449
sg158
g62
sg159
Nsg160
Nsg161
Nsbag2
(g3
g4
Ntp450
Rp451
(dp452
g8
g11
sg139
Nsg140
(dp453
sg142
Nsg26
g29
sg143
(lp454
I5
aI7
asg145
Nsg146
VTosefta Keilim Metsia 5:7
p455
sg148
(lp456
sg150
g101
sg151
Nsg152
(lp457
I5
aI7
asg154
Nsg155
g455
sg156
(lp458
sg158
g62
sg159
Nsg160
Nsg161
Nsbag2
(g3
g4
Ntp459
Rp460
(dp461
g8
g11
sg139
Nsg140
(dp462
sg142
Nsg26
g29
sg143
(lp463
I5
aI8
asg145
Nsg146
VTosefta Keilim Metsia 5:8
p464
sg148
(lp465
sg150
g101
sg151
Nsg152
(lp466
I5
aI8
asg154
Nsg155
g464
sg156
(lp467
sg158
g62
sg159
Nsg160
Nsg161
Nsbag2
(g3
g4
Ntp468
Rp469
(dp470
g8
g11
sg139
Nsg140
(dp471
sg142
Nsg26
g29
sg143
(lp472
I5
aI9
asg145
Nsg146
VTosefta Keilim Metsia 5:9
p473
sg148
(lp474
sg150
g101
sg151
Nsg152
(lp475
I5
aI9
asg154
Nsg155
g473
sg156
(lp476
sg158
g62
sg159
Nsg160
Nsg161
Nsbag2
(g3
g4
Ntp477
Rp478
(dp479
g8
g11
sg139
Nsg140
(dp480
sg142
Nsg26
g29
sg143
(lp481
I5
aI10
asg145
Nsg146
VTosefta Keilim Metsia 5:10
p482
sg148
(lp483
sg150
g101
sg151
Nsg152
(lp484
I5
aI10
asg154
Nsg155
g482
sg156
(lp485
sg158
g62
sg159
Nsg160
Nsg161
Nsbag2
(g3
g4
Ntp486
Rp487
(dp488
g8
g11
sg139
Nsg140
(dp489
sg142
Nsg26
g29
sg143
(lp490
I6
aI1
asg145
Nsg146
VTosefta Keilim Metsia 6:1
p491
sg148
(lp492
sg150
g101
sg151
Nsg152
(lp493
I6
aI1
asg154
Nsg155
g491
sg156
(lp494
sg158
g62
sg159
Nsg160
Nsg161
Nsbag2
(g3
g4
Ntp495
Rp496
(dp497
g8
g11
sg139
Nsg140
(dp498
sg142
Nsg26
g29
sg143
(lp499
I6
aI2
asg145
Nsg146
VTosefta Keilim Metsia 6:2
p500
sg148
(lp501
sg150
g101
sg151
Nsg152
(lp502
I6
aI2
asg154
Nsg155
g500
sg156
(lp503
sg158
g62
sg159
Nsg160
Nsg161
Nsbag2
(g3
g4
Ntp504
Rp505
(dp506
g8
g11
sg139
Nsg140
(dp507
sg142
Nsg26
g29
sg143
(lp508
I6
aI3
asg145
Nsg146
VTosefta Keilim Metsia 6:3
p509
sg148
(lp510
sg150
g101
sg151
Nsg152
(lp511
I6
aI3
asg154
Nsg155
g509
sg156
(lp512
sg158
g62
sg159
Nsg160
Nsg161
Nsbag2
(g3
g4
Ntp513
Rp514
(dp515
g8
g11
sg139
Nsg140
(dp516
sg142
Nsg26
g29
sg143
(lp517
I6
aI4
asg145
Nsg146
VTosefta Keilim Metsia 6:4
p518
sg148
(lp519
sg150
g101
sg151
Nsg152
(lp520
I6
aI4
asg154
Nsg155
g518
sg156
(lp521
sg158
g62
sg159
Nsg160
Nsg161
Nsbag2
(g3
g4
Ntp522
Rp523
(dp524
g8
g11
sg139
Nsg140
(dp525
sg142
Nsg26
g29
sg143
(lp526
I6
aI5
asg145
Nsg146
VTosefta Keilim Metsia 6:5
p527
sg148
(lp528
sg150
g101
sg151
Nsg152
(lp529
I6
aI5
asg154
Nsg155
g527
sg156
(lp530
sg158
g62
sg159
Nsg160
Nsg161
Nsbag2
(g3
g4
Ntp531
Rp532
(dp533
g8
g11
sg139
Nsg140
(dp534
sg142
Nsg26
g29
sg143
(lp535
I7
aI1
asg145
Nsg146
VTosefta Keilim Metsia 7:1
p536
sg148
(lp537
sg150
g101
sg151
Nsg152
(lp538
I7
aI1
asg154
Nsg155
g536
sg156
(lp539
sg158
g62
sg159
Nsg160
Nsg161
Nsbag2
(g3
g4
Ntp540
Rp541
(dp542
g8
g11
sg139
Nsg140
(dp543
sg142
Nsg26
g29
sg143
(lp544
I7
aI2
asg145
Nsg146
VTosefta Keilim Metsia 7:2
p545
sg148
(lp546
sg150
g101
sg151
Nsg152
(lp547
I7
aI2
asg154
Nsg155
g545
sg156
(lp548
sg158
g62
sg159
Nsg160
Nsg161
Nsbag2
(g3
g4
Ntp549
Rp550
(dp551
g8
g11
sg139
Nsg140
(dp552
sg142
Nsg26
g29
sg143
(lp553
I7
aI3
asg145
Nsg146
VTosefta Keilim Metsia 7:3
p554
sg148
(lp555
sg150
g101
sg151
Nsg152
(lp556
I7
aI3
asg154
Nsg155
g554
sg156
(lp557
sg158
g62
sg159
Nsg160
Nsg161
Nsbag2
(g3
g4
Ntp558
Rp559
(dp560
g8
g11
sg139
Nsg140
(dp561
sg142
Nsg26
g29
sg143
(lp562
I7
aI4
asg145
Nsg146
VTosefta Keilim Metsia 7:4
p563
sg148
(lp564
sg150
g101
sg151
Nsg152
(lp565
I7
aI4
asg154
Nsg155
g563
sg156
(lp566
sg158
g62
sg159
Nsg160
Nsg161
Nsbag2
(g3
g4
Ntp567
Rp568
(dp569
g8
g11
sg139
Nsg140
(dp570
sg142
Nsg26
g29
sg143
(lp571
I8
aI1
asg145
Nsg146
VTosefta Keilim Metsia 8:1
p572
sg148
(lp573
sg150
g101
sg151
Nsg152
(lp574
I8
aI1
asg154
Nsg155
g572
sg156
(lp575
sg158
g62
sg159
Nsg160
Nsg161
Nsbag2
(g3
g4
Ntp576
Rp577
(dp578
g8
g11
sg139
Nsg140
(dp579
sg142
Nsg26
g29
sg143
(lp580
I8
aI2
asg145
Nsg146
VTosefta Keilim Metsia 8:2
p581
sg148
(lp582
sg150
g101
sg151
Nsg152
(lp583
I8
aI2
asg154
Nsg155
g581
sg156
(lp584
sg158
g62
sg159
Nsg160
Nsg161
Nsbag2
(g3
g4
Ntp585
Rp586
(dp587
g8
g11
sg139
Nsg140
(dp588
sg142
Nsg26
g29
sg143
(lp589
I8
aI3
asg145
Nsg146
VTosefta Keilim Metsia 8:3
p590
sg148
(lp591
sg150
g101
sg151
Nsg152
(lp592
I8
aI3
asg154
Nsg155
g590
sg156
(lp593
sg158
g62
sg159
Nsg160
Nsg161
Nsbag2
(g3
g4
Ntp594
Rp595
(dp596
g8
g11
sg139
Nsg140
(dp597
sg142
Nsg26
g29
sg143
(lp598
I9
aI1
asg145
Nsg146
VTosefta Keilim Metsia 9:1
p599
sg148
(lp600
sg150
g101
sg151
Nsg152
(lp601
I9
aI1
asg154
Nsg155
g599
sg156
(lp602
sg158
g62
sg159
Nsg160
Nsg161
Nsbag2
(g3
g4
Ntp603
Rp604
(dp605
g8
g11
sg139
Nsg140
(dp606
sg142
Nsg26
g29
sg143
(lp607
I9
aI2
asg145
Nsg146
VTosefta Keilim Metsia 9:2
p608
sg148
(lp609
sg150
g101
sg151
Nsg152
(lp610
I9
aI2
asg154
Nsg155
g608
sg156
(lp611
sg158
g62
sg159
Nsg160
Nsg161
Nsbag2
(g3
g4
Ntp612
Rp613
(dp614
g8
g11
sg139
Nsg140
(dp615
sg142
Nsg26
g29
sg143
(lp616
I9
aI3
asg145
Nsg146
VTosefta Keilim Metsia 9:3
p617
sg148
(lp618
sg150
g101
sg151
Nsg152
(lp619
I9
aI3
asg154
Nsg155
g617
sg156
(lp620
sg158
g62
sg159
Nsg160
Nsg161
Nsbag2
(g3
g4
Ntp621
Rp622
(dp623
g8
g11
sg139
Nsg140
(dp624
sg142
Nsg26
g29
sg143
(lp625
I10
aI1
asg145
Nsg146
VTosefta Keilim Metsia 10:1
p626
sg148
(lp627
sg150
g101
sg151
Nsg152
(lp628
I10
aI1
asg154
Nsg155
g626
sg156
(lp629
sg158
g62
sg159
Nsg160
Nsg161
Nsbag2
(g3
g4
Ntp630
Rp631
(dp632
g8
g11
sg139
Nsg140
(dp633
sg142
Nsg26
g29
sg143
(lp634
I10
aI2
asg145
Nsg146
VTosefta Keilim Metsia 10:2
p635
sg148
(lp636
sg150
g101
sg151
Nsg152
(lp637
I10
aI2
asg154
Nsg155
g635
sg156
(lp638
sg158
g62
sg159
Nsg160
Nsg161
Nsbag2
(g3
g4
Ntp639
Rp640
(dp641
g8
g11
sg139
Nsg140
(dp642
sg142
Nsg26
g29
sg143
(lp643
I11
aI1
asg145
Nsg146
VTosefta Keilim Metsia 11:1
p644
sg148
(lp645
sg150
g101
sg151
Nsg152
(lp646
I11
aI1
asg154
Nsg155
g644
sg156
(lp647
sg158
g62
sg159
Nsg160
Nsg161
Nsbag2
(g3
g4
Ntp648
Rp649
(dp650
g8
g11
sg139
Nsg140
(dp651
sg142
Nsg26
g29
sg143
(lp652
I11
aI2
asg145
Nsg146
VTosefta Keilim Metsia 11:2
p653
sg148
(lp654
sg150
g101
sg151
Nsg152
(lp655
I11
aI2
asg154
Nsg155
g653
sg156
(lp656
sg158
g62
sg159
Nsg160
Nsg161
Nsbag2
(g3
g4
Ntp657
Rp658
(dp659
g8
g11
sg139
Nsg140
(dp660
sg142
Nsg26
g29
sg143
(lp661
I11
aI3
asg145
Nsg146
VTosefta Keilim Metsia 11:3
p662
sg148
(lp663
sg150
g101
sg151
Nsg152
(lp664
I11
aI3
asg154
Nsg155
g662
sg156
(lp665
sg158
g62
sg159
Nsg160
Nsg161
Nsbag2
(g3
g4
Ntp666
Rp667
(dp668
g8
g11
sg139
Nsg140
(dp669
sg142
Nsg26
g29
sg143
(lp670
I11
aI4
asg145
Nsg146
VTosefta Keilim Metsia 11:4
p671
sg148
(lp672
sg150
g101
sg151
Nsg152
(lp673
I11
aI4
asg154
Nsg155
g671
sg156
(lp674
sg158
g62
sg159
Nsg160
Nsg161
Nsbag2
(g3
g4
Ntp675
Rp676
(dp677
g8
g11
sg139
Nsg140
(dp678
sg142
Nsg26
g29
sg143
(lp679
I11
aI5
asg145
Nsg146
VTosefta Keilim Metsia 11:5
p680
sg148
(lp681
sg150
g101
sg151
Nsg152
(lp682
I11
aI5
asg154
Nsg155
g680
sg156
(lp683
sg158
g62
sg159
Nsg160
Nsg161
Nsbatp684
.