((lp0
I0
aI95
aI234
aI291
aI344
aI419
aI435
aI481
aI581
aI723
aI766
aI977
aI992
aI1040
aI1077
aI1132
aI1209
aI1285
aI1304
aI1345
aI1408
aI1437
aI1513
aI1558
aI1601
aI1628
aI1662
aI1717
aI1773
aI1833
aI1929
aI1983
aI2033
aI2057
aI2096
aI2134
aI2172
aI2203
aI2265
aI2317
aI2348
aI2431
aI2469
aI2510
aI2547
aI2608
aI2634
aI2714
aI2773
aI2814
aI2911
aI2983
aI3014
aI3089
aI3172
aI3257
aI3321
aI3384
a(lp1
ccopy_reg
_reconstructor
p2
(csefaria.model.text
Ref
p3
c__builtin__
object
p4
Ntp5
Rp6
(dp7
S'index_node'
p8
g2
(csefaria.model.schema
JaggedArrayNode
p9
g4
Ntp10
Rp11
(dp12
S'_address'
p13
(lp14
VTosefta Kiddushin
p15
asS'_full_titles'
p16
(dp17
sVnodeType
p18
VJaggedArrayNode
p19
sS'parent'
p20
NsVaddressTypes
p21
(lp22
VInteger
p23
aVInteger
p24
asS'default'
p25
I00
sS'index'
p26
g2
(csefaria.model.text
Index
p27
g4
Ntp28
Rp29
(dp30
S'struct_objs'
p31
(dp32
sS'_id'
p33
g2
(cbson.objectid
ObjectId
p34
g4
Ntp35
Rp36
S'S-\xf1\xfe\xfb\xfb\xa2\x0eR\x908\x99'
p37
bsS'pkeys_orig_values'
p38
(dp39
S'title'
p40
VTosefta Kiddushin
p41
ssS'pubDate'
p42
V1521
p43
sS'transliteratedTitle'
p44
VTosefta Kiddushin
p45
sS'pubPlace'
p46
VVenice
p47
sS'compPlace'
p48
VTalmudic Israel
p49
sS'enDesc'
p50
VThe Tosefta (Supplement, addition") is a compilation of the Jewish oral law. Opinions differ widely as to when the Tosefta was redacted and how it relates to the Mishnah. However it closely corresponds to the Mishnah in structure and style, with the same divisions for sedarim ("orders") and masekhot ("tractates"). In many ways, the Tosefta acts as a supplement to the Mishnah. It is mainly written in Mishnaic Hebrew, with some Aramaic. Kiddushin (Documents) belongs to the third order, Nashim (Women) and discusses the initial stage of marriage \u2013 betrothal, as well as the laws of Jewish lineages. It has five chapters.
p51
sS'order'
p52
(lp53
I7
asS'era'
p54
VT
p55
sS'compDate'
p56
V210
p57
sS'nodes'
p58
g11
sS'errorMargin'
p59
V20
p60
sS'_title'
p61
g41
sS'categories'
p62
(lp63
VTosefta
p64
aVSeder Nashim
p65
asS'schema'
p66
(dp67
g18
g19
sg21
g22
sVlengths
p68
(lp69
I5
asVdepth
p70
I2
sVtitles
p71
(lp72
(dp73
Vlang
p74
Ven
p75
sVtext
p76
VT. Kiddushin
p77
sa(dp78
Vlang
p79
Ven
p80
sVtext
p81
VTos. Kiddushin
p82
sa(dp83
Vlang
p84
Vhe
p85
sVtext
p86
V\u05ea\u05d5\u05e1\u05e4\u05ea\u05d0 \u05e7\u05d9\u05d3\u05d5\u05e9\u05d9\u05df
p87
sVprimary
p88
I01
sa(dp89
Vlang
p90
Ven
p91
sVtext
p92
VTosefta Kiddushin
p93
sVprimary
p94
I01
sasVkey
p95
g15
sVsectionNames
p96
(lp97
VChapter
p98
aVTosefta
p99
assbsS'_primary_title'
p100
(dp101
sS'title_group'
p102
g2
(csefaria.model.schema
TitleGroup
p103
g4
Ntp104
Rp105
(dp106
g100
(dp107
S'en'
p108
g93
ssS'titles'
p109
g72
sbsS'_addressTypes'
p110
(lp111
g2
(csefaria.model.schema
AddressInteger
p112
g4
Ntp113
Rp114
(dp115
S'length'
p116
I5
sg52
I0
sbag2
(g112
g4
Ntp117
Rp118
(dp119
g116
Nsg52
I1
sbasS'sharedTitle'
p120
Nsg68
g69
sg70
I2
sS'_full_title'
p121
(dp122
g108
g93
ssS'key'
p123
g15
sS'checkFirst'
p124
NsS'_regexes'
p125
(dp126
sS'_leaf_nodes'
p127
(lp128
sg96
g97
sS'children'
p129
(lp130
sbsS'_range_index'
p131
NsS'_context'
p132
(dp133
sS'_padded'
p134
Nsg26
g29
sS'sections'
p135
(lp136
I1
aI1
asS'_first_spanned_ref'
p137
NsS'tref'
p138
VTosefta Kiddushin 1:1
p139
sS'_spanned_refs'
p140
(lp141
sS'book'
p142
g93
sS'_range_depth'
p143
NsS'toSections'
p144
(lp145
I1
aI1
asS'_url'
p146
NsS'_normal'
p147
g139
sS'_ranged_refs'
p148
(lp149
sS'type'
p150
g64
sS'_prev'
p151
NsS'_he_normal'
p152
NsS'_next'
p153
Nsbag2
(g3
g4
Ntp154
Rp155
(dp156
g8
g11
sg131
Nsg132
(dp157
sg134
Nsg26
g29
sg135
(lp158
I1
aI2
asg137
Nsg138
VTosefta Kiddushin 1:2
p159
sg140
(lp160
sg142
g93
sg143
Nsg144
(lp161
I1
aI2
asg146
Nsg147
g159
sg148
(lp162
sg150
g64
sg151
Nsg152
Nsg153
Nsbag2
(g3
g4
Ntp163
Rp164
(dp165
g8
g11
sg131
Nsg132
(dp166
sg134
Nsg26
g29
sg135
(lp167
I1
aI3
asg137
Nsg138
VTosefta Kiddushin 1:3
p168
sg140
(lp169
sg142
g93
sg143
Nsg144
(lp170
I1
aI3
asg146
Nsg147
g168
sg148
(lp171
sg150
g64
sg151
Nsg152
Nsg153
Nsbag2
(g3
g4
Ntp172
Rp173
(dp174
g8
g11
sg131
Nsg132
(dp175
sg134
Nsg26
g29
sg135
(lp176
I1
aI4
asg137
Nsg138
VTosefta Kiddushin 1:4
p177
sg140
(lp178
sg142
g93
sg143
Nsg144
(lp179
I1
aI4
asg146
Nsg147
g177
sg148
(lp180
sg150
g64
sg151
Nsg152
Nsg153
Nsbag2
(g3
g4
Ntp181
Rp182
(dp183
g8
g11
sg131
Nsg132
(dp184
sg134
Nsg26
g29
sg135
(lp185
I1
aI5
asg137
Nsg138
VTosefta Kiddushin 1:5
p186
sg140
(lp187
sg142
g93
sg143
Nsg144
(lp188
I1
aI5
asg146
Nsg147
g186
sg148
(lp189
sg150
g64
sg151
Nsg152
Nsg153
Nsbag2
(g3
g4
Ntp190
Rp191
(dp192
g8
g11
sg131
Nsg132
(dp193
sg134
Nsg26
g29
sg135
(lp194
I1
aI6
asg137
Nsg138
VTosefta Kiddushin 1:6
p195
sg140
(lp196
sg142
g93
sg143
Nsg144
(lp197
I1
aI6
asg146
Nsg147
g195
sg148
(lp198
sg150
g64
sg151
Nsg152
Nsg153
Nsbag2
(g3
g4
Ntp199
Rp200
(dp201
g8
g11
sg131
Nsg132
(dp202
sg134
Nsg26
g29
sg135
(lp203
I1
aI7
asg137
Nsg138
VTosefta Kiddushin 1:7
p204
sg140
(lp205
sg142
g93
sg143
Nsg144
(lp206
I1
aI7
asg146
Nsg147
g204
sg148
(lp207
sg150
g64
sg151
Nsg152
Nsg153
Nsbag2
(g3
g4
Ntp208
Rp209
(dp210
g8
g11
sg131
Nsg132
(dp211
sg134
Nsg26
g29
sg135
(lp212
I1
aI8
asg137
Nsg138
VTosefta Kiddushin 1:8
p213
sg140
(lp214
sg142
g93
sg143
Nsg144
(lp215
I1
aI8
asg146
Nsg147
g213
sg148
(lp216
sg150
g64
sg151
Nsg152
Nsg153
Nsbag2
(g3
g4
Ntp217
Rp218
(dp219
g8
g11
sg131
Nsg132
(dp220
sg134
Nsg26
g29
sg135
(lp221
I1
aI9
asg137
Nsg138
VTosefta Kiddushin 1:9
p222
sg140
(lp223
sg142
g93
sg143
Nsg144
(lp224
I1
aI9
asg146
Nsg147
g222
sg148
(lp225
sg150
g64
sg151
Nsg152
Nsg153
Nsbag2
(g3
g4
Ntp226
Rp227
(dp228
g8
g11
sg131
Nsg132
(dp229
sg134
Nsg26
g29
sg135
(lp230
I1
aI10
asg137
Nsg138
VTosefta Kiddushin 1:10
p231
sg140
(lp232
sg142
g93
sg143
Nsg144
(lp233
I1
aI10
asg146
Nsg147
g231
sg148
(lp234
sg150
g64
sg151
Nsg152
Nsg153
Nsbag2
(g3
g4
Ntp235
Rp236
(dp237
g8
g11
sg131
Nsg132
(dp238
sg134
Nsg26
g29
sg135
(lp239
I1
aI11
asg137
Nsg138
VTosefta Kiddushin 1:11
p240
sg140
(lp241
sg142
g93
sg143
Nsg144
(lp242
I1
aI11
asg146
Nsg147
g240
sg148
(lp243
sg150
g64
sg151
Nsg152
Nsg153
Nsbag2
(g3
g4
Ntp244
Rp245
(dp246
g8
g11
sg131
Nsg132
(dp247
sg134
Nsg26
g29
sg135
(lp248
I2
aI1
asg137
Nsg138
VTosefta Kiddushin 2:1
p249
sg140
(lp250
sg142
g93
sg143
Nsg144
(lp251
I2
aI1
asg146
Nsg147
g249
sg148
(lp252
sg150
g64
sg151
Nsg152
Nsg153
Nsbag2
(g3
g4
Ntp253
Rp254
(dp255
g8
g11
sg131
Nsg132
(dp256
sg134
Nsg26
g29
sg135
(lp257
I2
aI2
asg137
Nsg138
VTosefta Kiddushin 2:2
p258
sg140
(lp259
sg142
g93
sg143
Nsg144
(lp260
I2
aI2
asg146
Nsg147
g258
sg148
(lp261
sg150
g64
sg151
Nsg152
Nsg153
Nsbag2
(g3
g4
Ntp262
Rp263
(dp264
g8
g11
sg131
Nsg132
(dp265
sg134
Nsg26
g29
sg135
(lp266
I2
aI3
asg137
Nsg138
VTosefta Kiddushin 2:3
p267
sg140
(lp268
sg142
g93
sg143
Nsg144
(lp269
I2
aI3
asg146
Nsg147
g267
sg148
(lp270
sg150
g64
sg151
Nsg152
Nsg153
Nsbag2
(g3
g4
Ntp271
Rp272
(dp273
g8
g11
sg131
Nsg132
(dp274
sg134
Nsg26
g29
sg135
(lp275
I2
aI4
asg137
Nsg138
VTosefta Kiddushin 2:4
p276
sg140
(lp277
sg142
g93
sg143
Nsg144
(lp278
I2
aI4
asg146
Nsg147
g276
sg148
(lp279
sg150
g64
sg151
Nsg152
Nsg153
Nsbag2
(g3
g4
Ntp280
Rp281
(dp282
g8
g11
sg131
Nsg132
(dp283
sg134
Nsg26
g29
sg135
(lp284
I2
aI5
asg137
Nsg138
VTosefta Kiddushin 2:5
p285
sg140
(lp286
sg142
g93
sg143
Nsg144
(lp287
I2
aI5
asg146
Nsg147
g285
sg148
(lp288
sg150
g64
sg151
Nsg152
Nsg153
Nsbag2
(g3
g4
Ntp289
Rp290
(dp291
g8
g11
sg131
Nsg132
(dp292
sg134
Nsg26
g29
sg135
(lp293
I2
aI6
asg137
Nsg138
VTosefta Kiddushin 2:6
p294
sg140
(lp295
sg142
g93
sg143
Nsg144
(lp296
I2
aI6
asg146
Nsg147
g294
sg148
(lp297
sg150
g64
sg151
Nsg152
Nsg153
Nsbag2
(g3
g4
Ntp298
Rp299
(dp300
g8
g11
sg131
Nsg132
(dp301
sg134
Nsg26
g29
sg135
(lp302
I2
aI7
asg137
Nsg138
VTosefta Kiddushin 2:7
p303
sg140
(lp304
sg142
g93
sg143
Nsg144
(lp305
I2
aI7
asg146
Nsg147
g303
sg148
(lp306
sg150
g64
sg151
Nsg152
Nsg153
Nsbag2
(g3
g4
Ntp307
Rp308
(dp309
g8
g11
sg131
Nsg132
(dp310
sg134
Nsg26
g29
sg135
(lp311
I2
aI8
asg137
Nsg138
VTosefta Kiddushin 2:8
p312
sg140
(lp313
sg142
g93
sg143
Nsg144
(lp314
I2
aI8
asg146
Nsg147
g312
sg148
(lp315
sg150
g64
sg151
Nsg152
Nsg153
Nsbag2
(g3
g4
Ntp316
Rp317
(dp318
g8
g11
sg131
Nsg132
(dp319
sg134
Nsg26
g29
sg135
(lp320
I2
aI9
asg137
Nsg138
VTosefta Kiddushin 2:9
p321
sg140
(lp322
sg142
g93
sg143
Nsg144
(lp323
I2
aI9
asg146
Nsg147
g321
sg148
(lp324
sg150
g64
sg151
Nsg152
Nsg153
Nsbag2
(g3
g4
Ntp325
Rp326
(dp327
g8
g11
sg131
Nsg132
(dp328
sg134
Nsg26
g29
sg135
(lp329
I2
aI10
asg137
Nsg138
VTosefta Kiddushin 2:10
p330
sg140
(lp331
sg142
g93
sg143
Nsg144
(lp332
I2
aI10
asg146
Nsg147
g330
sg148
(lp333
sg150
g64
sg151
Nsg152
Nsg153
Nsbag2
(g3
g4
Ntp334
Rp335
(dp336
g8
g11
sg131
Nsg132
(dp337
sg134
Nsg26
g29
sg135
(lp338
I2
aI11
asg137
Nsg138
VTosefta Kiddushin 2:11
p339
sg140
(lp340
sg142
g93
sg143
Nsg144
(lp341
I2
aI11
asg146
Nsg147
g339
sg148
(lp342
sg150
g64
sg151
Nsg152
Nsg153
Nsbag2
(g3
g4
Ntp343
Rp344
(dp345
g8
g11
sg131
Nsg132
(dp346
sg134
Nsg26
g29
sg135
(lp347
I3
aI1
asg137
Nsg138
VTosefta Kiddushin 3:1
p348
sg140
(lp349
sg142
g93
sg143
Nsg144
(lp350
I3
aI1
asg146
Nsg147
g348
sg148
(lp351
sg150
g64
sg151
Nsg152
Nsg153
Nsbag2
(g3
g4
Ntp352
Rp353
(dp354
g8
g11
sg131
Nsg132
(dp355
sg134
Nsg26
g29
sg135
(lp356
I3
aI2
asg137
Nsg138
VTosefta Kiddushin 3:2
p357
sg140
(lp358
sg142
g93
sg143
Nsg144
(lp359
I3
aI2
asg146
Nsg147
g357
sg148
(lp360
sg150
g64
sg151
Nsg152
Nsg153
Nsbag2
(g3
g4
Ntp361
Rp362
(dp363
g8
g11
sg131
Nsg132
(dp364
sg134
Nsg26
g29
sg135
(lp365
I3
aI3
asg137
Nsg138
VTosefta Kiddushin 3:3
p366
sg140
(lp367
sg142
g93
sg143
Nsg144
(lp368
I3
aI3
asg146
Nsg147
g366
sg148
(lp369
sg150
g64
sg151
Nsg152
Nsg153
Nsbag2
(g3
g4
Ntp370
Rp371
(dp372
g8
g11
sg131
Nsg132
(dp373
sg134
Nsg26
g29
sg135
(lp374
I3
aI4
asg137
Nsg138
VTosefta Kiddushin 3:4
p375
sg140
(lp376
sg142
g93
sg143
Nsg144
(lp377
I3
aI4
asg146
Nsg147
g375
sg148
(lp378
sg150
g64
sg151
Nsg152
Nsg153
Nsbag2
(g3
g4
Ntp379
Rp380
(dp381
g8
g11
sg131
Nsg132
(dp382
sg134
Nsg26
g29
sg135
(lp383
I3
aI5
asg137
Nsg138
VTosefta Kiddushin 3:5
p384
sg140
(lp385
sg142
g93
sg143
Nsg144
(lp386
I3
aI5
asg146
Nsg147
g384
sg148
(lp387
sg150
g64
sg151
Nsg152
Nsg153
Nsbag2
(g3
g4
Ntp388
Rp389
(dp390
g8
g11
sg131
Nsg132
(dp391
sg134
Nsg26
g29
sg135
(lp392
I3
aI6
asg137
Nsg138
VTosefta Kiddushin 3:6
p393
sg140
(lp394
sg142
g93
sg143
Nsg144
(lp395
I3
aI6
asg146
Nsg147
g393
sg148
(lp396
sg150
g64
sg151
Nsg152
Nsg153
Nsbag2
(g3
g4
Ntp397
Rp398
(dp399
g8
g11
sg131
Nsg132
(dp400
sg134
Nsg26
g29
sg135
(lp401
I3
aI7
asg137
Nsg138
VTosefta Kiddushin 3:7
p402
sg140
(lp403
sg142
g93
sg143
Nsg144
(lp404
I3
aI7
asg146
Nsg147
g402
sg148
(lp405
sg150
g64
sg151
Nsg152
Nsg153
Nsbag2
(g3
g4
Ntp406
Rp407
(dp408
g8
g11
sg131
Nsg132
(dp409
sg134
Nsg26
g29
sg135
(lp410
I3
aI8
asg137
Nsg138
VTosefta Kiddushin 3:8
p411
sg140
(lp412
sg142
g93
sg143
Nsg144
(lp413
I3
aI8
asg146
Nsg147
g411
sg148
(lp414
sg150
g64
sg151
Nsg152
Nsg153
Nsbag2
(g3
g4
Ntp415
Rp416
(dp417
g8
g11
sg131
Nsg132
(dp418
sg134
Nsg26
g29
sg135
(lp419
I3
aI9
asg137
Nsg138
VTosefta Kiddushin 3:9
p420
sg140
(lp421
sg142
g93
sg143
Nsg144
(lp422
I3
aI9
asg146
Nsg147
g420
sg148
(lp423
sg150
g64
sg151
Nsg152
Nsg153
Nsbag2
(g3
g4
Ntp424
Rp425
(dp426
g8
g11
sg131
Nsg132
(dp427
sg134
Nsg26
g29
sg135
(lp428
I3
aI10
asg137
Nsg138
VTosefta Kiddushin 3:10
p429
sg140
(lp430
sg142
g93
sg143
Nsg144
(lp431
I3
aI10
asg146
Nsg147
g429
sg148
(lp432
sg150
g64
sg151
Nsg152
Nsg153
Nsbag2
(g3
g4
Ntp433
Rp434
(dp435
g8
g11
sg131
Nsg132
(dp436
sg134
Nsg26
g29
sg135
(lp437
I4
aI1
asg137
Nsg138
VTosefta Kiddushin 4:1
p438
sg140
(lp439
sg142
g93
sg143
Nsg144
(lp440
I4
aI1
asg146
Nsg147
g438
sg148
(lp441
sg150
g64
sg151
Nsg152
Nsg153
Nsbag2
(g3
g4
Ntp442
Rp443
(dp444
g8
g11
sg131
Nsg132
(dp445
sg134
Nsg26
g29
sg135
(lp446
I4
aI2
asg137
Nsg138
VTosefta Kiddushin 4:2
p447
sg140
(lp448
sg142
g93
sg143
Nsg144
(lp449
I4
aI2
asg146
Nsg147
g447
sg148
(lp450
sg150
g64
sg151
Nsg152
Nsg153
Nsbag2
(g3
g4
Ntp451
Rp452
(dp453
g8
g11
sg131
Nsg132
(dp454
sg134
Nsg26
g29
sg135
(lp455
I4
aI3
asg137
Nsg138
VTosefta Kiddushin 4:3
p456
sg140
(lp457
sg142
g93
sg143
Nsg144
(lp458
I4
aI3
asg146
Nsg147
g456
sg148
(lp459
sg150
g64
sg151
Nsg152
Nsg153
Nsbag2
(g3
g4
Ntp460
Rp461
(dp462
g8
g11
sg131
Nsg132
(dp463
sg134
Nsg26
g29
sg135
(lp464
I4
aI4
asg137
Nsg138
VTosefta Kiddushin 4:4
p465
sg140
(lp466
sg142
g93
sg143
Nsg144
(lp467
I4
aI4
asg146
Nsg147
g465
sg148
(lp468
sg150
g64
sg151
Nsg152
Nsg153
Nsbag2
(g3
g4
Ntp469
Rp470
(dp471
g8
g11
sg131
Nsg132
(dp472
sg134
Nsg26
g29
sg135
(lp473
I4
aI5
asg137
Nsg138
VTosefta Kiddushin 4:5
p474
sg140
(lp475
sg142
g93
sg143
Nsg144
(lp476
I4
aI5
asg146
Nsg147
g474
sg148
(lp477
sg150
g64
sg151
Nsg152
Nsg153
Nsbag2
(g3
g4
Ntp478
Rp479
(dp480
g8
g11
sg131
Nsg132
(dp481
sg134
Nsg26
g29
sg135
(lp482
I4
aI6
asg137
Nsg138
VTosefta Kiddushin 4:6
p483
sg140
(lp484
sg142
g93
sg143
Nsg144
(lp485
I4
aI6
asg146
Nsg147
g483
sg148
(lp486
sg150
g64
sg151
Nsg152
Nsg153
Nsbag2
(g3
g4
Ntp487
Rp488
(dp489
g8
g11
sg131
Nsg132
(dp490
sg134
Nsg26
g29
sg135
(lp491
I4
aI7
asg137
Nsg138
VTosefta Kiddushin 4:7
p492
sg140
(lp493
sg142
g93
sg143
Nsg144
(lp494
I4
aI7
asg146
Nsg147
g492
sg148
(lp495
sg150
g64
sg151
Nsg152
Nsg153
Nsbag2
(g3
g4
Ntp496
Rp497
(dp498
g8
g11
sg131
Nsg132
(dp499
sg134
Nsg26
g29
sg135
(lp500
I4
aI8
asg137
Nsg138
VTosefta Kiddushin 4:8
p501
sg140
(lp502
sg142
g93
sg143
Nsg144
(lp503
I4
aI8
asg146
Nsg147
g501
sg148
(lp504
sg150
g64
sg151
Nsg152
Nsg153
Nsbag2
(g3
g4
Ntp505
Rp506
(dp507
g8
g11
sg131
Nsg132
(dp508
sg134
Nsg26
g29
sg135
(lp509
I4
aI9
asg137
Nsg138
VTosefta Kiddushin 4:9
p510
sg140
(lp511
sg142
g93
sg143
Nsg144
(lp512
I4
aI9
asg146
Nsg147
g510
sg148
(lp513
sg150
g64
sg151
Nsg152
Nsg153
Nsbag2
(g3
g4
Ntp514
Rp515
(dp516
g8
g11
sg131
Nsg132
(dp517
sg134
Nsg26
g29
sg135
(lp518
I4
aI10
asg137
Nsg138
VTosefta Kiddushin 4:10
p519
sg140
(lp520
sg142
g93
sg143
Nsg144
(lp521
I4
aI10
asg146
Nsg147
g519
sg148
(lp522
sg150
g64
sg151
Nsg152
Nsg153
Nsbag2
(g3
g4
Ntp523
Rp524
(dp525
g8
g11
sg131
Nsg132
(dp526
sg134
Nsg26
g29
sg135
(lp527
I4
aI11
asg137
Nsg138
VTosefta Kiddushin 4:11
p528
sg140
(lp529
sg142
g93
sg143
Nsg144
(lp530
I4
aI11
asg146
Nsg147
g528
sg148
(lp531
sg150
g64
sg151
Nsg152
Nsg153
Nsbag2
(g3
g4
Ntp532
Rp533
(dp534
g8
g11
sg131
Nsg132
(dp535
sg134
Nsg26
g29
sg135
(lp536
I4
aI12
asg137
Nsg138
VTosefta Kiddushin 4:12
p537
sg140
(lp538
sg142
g93
sg143
Nsg144
(lp539
I4
aI12
asg146
Nsg147
g537
sg148
(lp540
sg150
g64
sg151
Nsg152
Nsg153
Nsbag2
(g3
g4
Ntp541
Rp542
(dp543
g8
g11
sg131
Nsg132
(dp544
sg134
Nsg26
g29
sg135
(lp545
I5
aI1
asg137
Nsg138
VTosefta Kiddushin 5:1
p546
sg140
(lp547
sg142
g93
sg143
Nsg144
(lp548
I5
aI1
asg146
Nsg147
g546
sg148
(lp549
sg150
g64
sg151
Nsg152
Nsg153
Nsbag2
(g3
g4
Ntp550
Rp551
(dp552
g8
g11
sg131
Nsg132
(dp553
sg134
Nsg26
g29
sg135
(lp554
I5
aI2
asg137
Nsg138
VTosefta Kiddushin 5:2
p555
sg140
(lp556
sg142
g93
sg143
Nsg144
(lp557
I5
aI2
asg146
Nsg147
g555
sg148
(lp558
sg150
g64
sg151
Nsg152
Nsg153
Nsbag2
(g3
g4
Ntp559
Rp560
(dp561
g8
g11
sg131
Nsg132
(dp562
sg134
Nsg26
g29
sg135
(lp563
I5
aI3
asg137
Nsg138
VTosefta Kiddushin 5:3
p564
sg140
(lp565
sg142
g93
sg143
Nsg144
(lp566
I5
aI3
asg146
Nsg147
g564
sg148
(lp567
sg150
g64
sg151
Nsg152
Nsg153
Nsbag2
(g3
g4
Ntp568
Rp569
(dp570
g8
g11
sg131
Nsg132
(dp571
sg134
Nsg26
g29
sg135
(lp572
I5
aI4
asg137
Nsg138
VTosefta Kiddushin 5:4
p573
sg140
(lp574
sg142
g93
sg143
Nsg144
(lp575
I5
aI4
asg146
Nsg147
g573
sg148
(lp576
sg150
g64
sg151
Nsg152
Nsg153
Nsbag2
(g3
g4
Ntp577
Rp578
(dp579
g8
g11
sg131
Nsg132
(dp580
sg134
Nsg26
g29
sg135
(lp581
I5
aI5
asg137
Nsg138
VTosefta Kiddushin 5:5
p582
sg140
(lp583
sg142
g93
sg143
Nsg144
(lp584
I5
aI5
asg146
Nsg147
g582
sg148
(lp585
sg150
g64
sg151
Nsg152
Nsg153
Nsbag2
(g3
g4
Ntp586
Rp587
(dp588
g8
g11
sg131
Nsg132
(dp589
sg134
Nsg26
g29
sg135
(lp590
I5
aI6
asg137
Nsg138
VTosefta Kiddushin 5:6
p591
sg140
(lp592
sg142
g93
sg143
Nsg144
(lp593
I5
aI6
asg146
Nsg147
g591
sg148
(lp594
sg150
g64
sg151
Nsg152
Nsg153
Nsbag2
(g3
g4
Ntp595
Rp596
(dp597
g8
g11
sg131
Nsg132
(dp598
sg134
Nsg26
g29
sg135
(lp599
I5
aI7
asg137
Nsg138
VTosefta Kiddushin 5:7
p600
sg140
(lp601
sg142
g93
sg143
Nsg144
(lp602
I5
aI7
asg146
Nsg147
g600
sg148
(lp603
sg150
g64
sg151
Nsg152
Nsg153
Nsbag2
(g3
g4
Ntp604
Rp605
(dp606
g8
g11
sg131
Nsg132
(dp607
sg134
Nsg26
g29
sg135
(lp608
I5
aI8
asg137
Nsg138
VTosefta Kiddushin 5:8
p609
sg140
(lp610
sg142
g93
sg143
Nsg144
(lp611
I5
aI8
asg146
Nsg147
g609
sg148
(lp612
sg150
g64
sg151
Nsg152
Nsg153
Nsbag2
(g3
g4
Ntp613
Rp614
(dp615
g8
g11
sg131
Nsg132
(dp616
sg134
Nsg26
g29
sg135
(lp617
I5
aI9
asg137
Nsg138
VTosefta Kiddushin 5:9
p618
sg140
(lp619
sg142
g93
sg143
Nsg144
(lp620
I5
aI9
asg146
Nsg147
g618
sg148
(lp621
sg150
g64
sg151
Nsg152
Nsg153
Nsbag2
(g3
g4
Ntp622
Rp623
(dp624
g8
g11
sg131
Nsg132
(dp625
sg134
Nsg26
g29
sg135
(lp626
I5
aI10
asg137
Nsg138
VTosefta Kiddushin 5:10
p627
sg140
(lp628
sg142
g93
sg143
Nsg144
(lp629
I5
aI10
asg146
Nsg147
g627
sg148
(lp630
sg150
g64
sg151
Nsg152
Nsg153
Nsbag2
(g3
g4
Ntp631
Rp632
(dp633
g8
g11
sg131
Nsg132
(dp634
sg134
Nsg26
g29
sg135
(lp635
I5
aI11
asg137
Nsg138
VTosefta Kiddushin 5:11
p636
sg140
(lp637
sg142
g93
sg143
Nsg144
(lp638
I5
aI11
asg146
Nsg147
g636
sg148
(lp639
sg150
g64
sg151
Nsg152
Nsg153
Nsbag2
(g3
g4
Ntp640
Rp641
(dp642
g8
g11
sg131
Nsg132
(dp643
sg134
Nsg26
g29
sg135
(lp644
I5
aI12
asg137
Nsg138
VTosefta Kiddushin 5:12
p645
sg140
(lp646
sg142
g93
sg143
Nsg144
(lp647
I5
aI12
asg146
Nsg147
g645
sg148
(lp648
sg150
g64
sg151
Nsg152
Nsg153
Nsbag2
(g3
g4
Ntp649
Rp650
(dp651
g8
g11
sg131
Nsg132
(dp652
sg134
Nsg26
g29
sg135
(lp653
I5
aI13
asg137
Nsg138
VTosefta Kiddushin 5:13
p654
sg140
(lp655
sg142
g93
sg143
Nsg144
(lp656
I5
aI13
asg146
Nsg147
g654
sg148
(lp657
sg150
g64
sg151
Nsg152
Nsg153
Nsbag2
(g3
g4
Ntp658
Rp659
(dp660
g8
g11
sg131
Nsg132
(dp661
sg134
Nsg26
g29
sg135
(lp662
I5
aI14
asg137
Nsg138
VTosefta Kiddushin 5:14
p663
sg140
(lp664
sg142
g93
sg143
Nsg144
(lp665
I5
aI14
asg146
Nsg147
g663
sg148
(lp666
sg150
g64
sg151
Nsg152
Nsg153
Nsbatp667
.