((lp0
I0
aI167
aI368
aI401
aI583
aI670
aI700
aI766
aI792
aI901
aI992
aI1053
aI1101
aI1196
aI1244
aI1282
aI1333
aI1412
aI1456
aI1484
aI1513
aI1554
aI1622
aI1678
aI1710
aI1737
aI1760
aI1780
aI1853
aI1922
a(lp1
ccopy_reg
_reconstructor
p2
(csefaria.model.text
Ref
p3
c__builtin__
object
p4
Ntp5
Rp6
(dp7
S'index_node'
p8
g2
(csefaria.model.schema
JaggedArrayNode
p9
g4
Ntp10
Rp11
(dp12
S'_address'
p13
(lp14
VTosefta Zavim
p15
asS'_full_titles'
p16
(dp17
sVnodeType
p18
VJaggedArrayNode
p19
sS'parent'
p20
NsVaddressTypes
p21
(lp22
VInteger
p23
aVInteger
p24
asS'default'
p25
I00
sS'index'
p26
g2
(csefaria.model.text
Index
p27
g4
Ntp28
Rp29
(dp30
S'struct_objs'
p31
(dp32
sS'_id'
p33
g2
(cbson.objectid
ObjectId
p34
g4
Ntp35
Rp36
S'S7\xb4p\xfb\xfb\xa2 \xb6\t\xcf!'
p37
bsS'pkeys_orig_values'
p38
(dp39
S'title'
p40
VTosefta Zavim
p41
ssS'pubDate'
p42
V1521
p43
sS'transliteratedTitle'
p44
VTosefta Zavim
p45
sS'pubPlace'
p46
VVenice
p47
sS'compPlace'
p48
VTalmudic Israel
p49
sS'enDesc'
p50
VThe Tosefta (Supplement, addition") is a compilation of the Jewish oral law. Opinions differ widely as to when the Tosefta was redacted and how it relates to the Mishnah. However it closely corresponds to the Mishnah in structure and style, with the same divisions for sedarim ("orders") and masekhot ("tractates"). In many ways, the Tosefta acts as a supplement to the Mishnah. It is mainly written in Mishnaic Hebrew, with some Aramaic. Zavim (Seminal Emissions) belongs to the sixth order, Tahorot (Purities) and discusses the laws of a person who has ejaculated. It has five chapters.
p51
sS'order'
p52
(lp53
I11
asS'era'
p54
VT
p55
sS'compDate'
p56
V210
p57
sS'nodes'
p58
g11
sS'errorMargin'
p59
V20
p60
sS'_title'
p61
g41
sS'categories'
p62
(lp63
VTosefta
p64
aVSeder Toharot
p65
asS'schema'
p66
(dp67
g18
g19
sg21
g22
sVlengths
p68
(lp69
I5
asVdepth
p70
I2
sVtitles
p71
(lp72
(dp73
Vlang
p74
Ven
p75
sVtext
p76
VTos. Zavim
p77
sa(dp78
Vlang
p79
Ven
p80
sVtext
p81
VT. Zavim
p82
sa(dp83
Vlang
p84
Vhe
p85
sVtext
p86
V\u05ea\u05d5\u05e1\u05e4\u05ea\u05d0 \u05d6\u05d1\u05d9\u05dd
p87
sVprimary
p88
I01
sa(dp89
Vlang
p90
Ven
p91
sVtext
p92
VTosefta Zavim
p93
sVprimary
p94
I01
sasVkey
p95
g15
sVsectionNames
p96
(lp97
VChapter
p98
aVTosefta
p99
assbsS'_primary_title'
p100
(dp101
sS'title_group'
p102
g2
(csefaria.model.schema
TitleGroup
p103
g4
Ntp104
Rp105
(dp106
g100
(dp107
S'en'
p108
g93
ssS'titles'
p109
g72
sbsS'_addressTypes'
p110
(lp111
g2
(csefaria.model.schema
AddressInteger
p112
g4
Ntp113
Rp114
(dp115
S'length'
p116
I5
sg52
I0
sbag2
(g112
g4
Ntp117
Rp118
(dp119
g116
Nsg52
I1
sbasS'sharedTitle'
p120
Nsg68
g69
sg70
I2
sS'_full_title'
p121
(dp122
g108
g93
ssS'key'
p123
g15
sS'checkFirst'
p124
NsS'_regexes'
p125
(dp126
sS'_leaf_nodes'
p127
(lp128
sg96
g97
sS'children'
p129
(lp130
sbsS'_range_index'
p131
NsS'_context'
p132
(dp133
sS'_padded'
p134
Nsg26
g29
sS'sections'
p135
(lp136
I1
aI1
asS'_first_spanned_ref'
p137
NsS'tref'
p138
VTosefta Zavim 1:1
p139
sS'_spanned_refs'
p140
(lp141
sS'book'
p142
g93
sS'_range_depth'
p143
NsS'toSections'
p144
(lp145
I1
aI1
asS'_url'
p146
NsS'_normal'
p147
g139
sS'_ranged_refs'
p148
(lp149
sS'type'
p150
g64
sS'_prev'
p151
NsS'_he_normal'
p152
NsS'_next'
p153
Nsbag2
(g3
g4
Ntp154
Rp155
(dp156
g8
g11
sg131
Nsg132
(dp157
sg134
Nsg26
g29
sg135
(lp158
I1
aI2
asg137
Nsg138
VTosefta Zavim 1:2
p159
sg140
(lp160
sg142
g93
sg143
Nsg144
(lp161
I1
aI2
asg146
Nsg147
g159
sg148
(lp162
sg150
g64
sg151
Nsg152
Nsg153
Nsbag2
(g3
g4
Ntp163
Rp164
(dp165
g8
g11
sg131
Nsg132
(dp166
sg134
Nsg26
g29
sg135
(lp167
I1
aI3
asg137
Nsg138
VTosefta Zavim 1:3
p168
sg140
(lp169
sg142
g93
sg143
Nsg144
(lp170
I1
aI3
asg146
Nsg147
g168
sg148
(lp171
sg150
g64
sg151
Nsg152
Nsg153
Nsbag2
(g3
g4
Ntp172
Rp173
(dp174
g8
g11
sg131
Nsg132
(dp175
sg134
Nsg26
g29
sg135
(lp176
I1
aI4
asg137
Nsg138
VTosefta Zavim 1:4
p177
sg140
(lp178
sg142
g93
sg143
Nsg144
(lp179
I1
aI4
asg146
Nsg147
g177
sg148
(lp180
sg150
g64
sg151
Nsg152
Nsg153
Nsbag2
(g3
g4
Ntp181
Rp182
(dp183
g8
g11
sg131
Nsg132
(dp184
sg134
Nsg26
g29
sg135
(lp185
I2
aI1
asg137
Nsg138
VTosefta Zavim 2:1
p186
sg140
(lp187
sg142
g93
sg143
Nsg144
(lp188
I2
aI1
asg146
Nsg147
g186
sg148
(lp189
sg150
g64
sg151
Nsg152
Nsg153
Nsbag2
(g3
g4
Ntp190
Rp191
(dp192
g8
g11
sg131
Nsg132
(dp193
sg134
Nsg26
g29
sg135
(lp194
I2
aI2
asg137
Nsg138
VTosefta Zavim 2:2
p195
sg140
(lp196
sg142
g93
sg143
Nsg144
(lp197
I2
aI2
asg146
Nsg147
g195
sg148
(lp198
sg150
g64
sg151
Nsg152
Nsg153
Nsbag2
(g3
g4
Ntp199
Rp200
(dp201
g8
g11
sg131
Nsg132
(dp202
sg134
Nsg26
g29
sg135
(lp203
I2
aI3
asg137
Nsg138
VTosefta Zavim 2:3
p204
sg140
(lp205
sg142
g93
sg143
Nsg144
(lp206
I2
aI3
asg146
Nsg147
g204
sg148
(lp207
sg150
g64
sg151
Nsg152
Nsg153
Nsbag2
(g3
g4
Ntp208
Rp209
(dp210
g8
g11
sg131
Nsg132
(dp211
sg134
Nsg26
g29
sg135
(lp212
I2
aI4
asg137
Nsg138
VTosefta Zavim 2:4
p213
sg140
(lp214
sg142
g93
sg143
Nsg144
(lp215
I2
aI4
asg146
Nsg147
g213
sg148
(lp216
sg150
g64
sg151
Nsg152
Nsg153
Nsbag2
(g3
g4
Ntp217
Rp218
(dp219
g8
g11
sg131
Nsg132
(dp220
sg134
Nsg26
g29
sg135
(lp221
I2
aI5
asg137
Nsg138
VTosefta Zavim 2:5
p222
sg140
(lp223
sg142
g93
sg143
Nsg144
(lp224
I2
aI5
asg146
Nsg147
g222
sg148
(lp225
sg150
g64
sg151
Nsg152
Nsg153
Nsbag2
(g3
g4
Ntp226
Rp227
(dp228
g8
g11
sg131
Nsg132
(dp229
sg134
Nsg26
g29
sg135
(lp230
I3
aI1
asg137
Nsg138
VTosefta Zavim 3:1
p231
sg140
(lp232
sg142
g93
sg143
Nsg144
(lp233
I3
aI1
asg146
Nsg147
g231
sg148
(lp234
sg150
g64
sg151
Nsg152
Nsg153
Nsbag2
(g3
g4
Ntp235
Rp236
(dp237
g8
g11
sg131
Nsg132
(dp238
sg134
Nsg26
g29
sg135
(lp239
I3
aI2
asg137
Nsg138
VTosefta Zavim 3:2
p240
sg140
(lp241
sg142
g93
sg143
Nsg144
(lp242
I3
aI2
asg146
Nsg147
g240
sg148
(lp243
sg150
g64
sg151
Nsg152
Nsg153
Nsbag2
(g3
g4
Ntp244
Rp245
(dp246
g8
g11
sg131
Nsg132
(dp247
sg134
Nsg26
g29
sg135
(lp248
I3
aI3
asg137
Nsg138
VTosefta Zavim 3:3
p249
sg140
(lp250
sg142
g93
sg143
Nsg144
(lp251
I3
aI3
asg146
Nsg147
g249
sg148
(lp252
sg150
g64
sg151
Nsg152
Nsg153
Nsbag2
(g3
g4
Ntp253
Rp254
(dp255
g8
g11
sg131
Nsg132
(dp256
sg134
Nsg26
g29
sg135
(lp257
I4
aI1
asg137
Nsg138
VTosefta Zavim 4:1
p258
sg140
(lp259
sg142
g93
sg143
Nsg144
(lp260
I4
aI1
asg146
Nsg147
g258
sg148
(lp261
sg150
g64
sg151
Nsg152
Nsg153
Nsbag2
(g3
g4
Ntp262
Rp263
(dp264
g8
g11
sg131
Nsg132
(dp265
sg134
Nsg26
g29
sg135
(lp266
I4
aI2
asg137
Nsg138
VTosefta Zavim 4:2
p267
sg140
(lp268
sg142
g93
sg143
Nsg144
(lp269
I4
aI2
asg146
Nsg147
g267
sg148
(lp270
sg150
g64
sg151
Nsg152
Nsg153
Nsbag2
(g3
g4
Ntp271
Rp272
(dp273
g8
g11
sg131
Nsg132
(dp274
sg134
Nsg26
g29
sg135
(lp275
I4
aI3
asg137
Nsg138
VTosefta Zavim 4:3
p276
sg140
(lp277
sg142
g93
sg143
Nsg144
(lp278
I4
aI3
asg146
Nsg147
g276
sg148
(lp279
sg150
g64
sg151
Nsg152
Nsg153
Nsbag2
(g3
g4
Ntp280
Rp281
(dp282
g8
g11
sg131
Nsg132
(dp283
sg134
Nsg26
g29
sg135
(lp284
I4
aI4
asg137
Nsg138
VTosefta Zavim 4:4
p285
sg140
(lp286
sg142
g93
sg143
Nsg144
(lp287
I4
aI4
asg146
Nsg147
g285
sg148
(lp288
sg150
g64
sg151
Nsg152
Nsg153
Nsbag2
(g3
g4
Ntp289
Rp290
(dp291
g8
g11
sg131
Nsg132
(dp292
sg134
Nsg26
g29
sg135
(lp293
I4
aI5
asg137
Nsg138
VTosefta Zavim 4:5
p294
sg140
(lp295
sg142
g93
sg143
Nsg144
(lp296
I4
aI5
asg146
Nsg147
g294
sg148
(lp297
sg150
g64
sg151
Nsg152
Nsg153
Nsbag2
(g3
g4
Ntp298
Rp299
(dp300
g8
g11
sg131
Nsg132
(dp301
sg134
Nsg26
g29
sg135
(lp302
I4
aI6
asg137
Nsg138
VTosefta Zavim 4:6
p303
sg140
(lp304
sg142
g93
sg143
Nsg144
(lp305
I4
aI6
asg146
Nsg147
g303
sg148
(lp306
sg150
g64
sg151
Nsg152
Nsg153
Nsbag2
(g3
g4
Ntp307
Rp308
(dp309
g8
g11
sg131
Nsg132
(dp310
sg134
Nsg26
g29
sg135
(lp311
I4
aI7
asg137
Nsg138
VTosefta Zavim 4:7
p312
sg140
(lp313
sg142
g93
sg143
Nsg144
(lp314
I4
aI7
asg146
Nsg147
g312
sg148
(lp315
sg150
g64
sg151
Nsg152
Nsg153
Nsbag2
(g3
g4
Ntp316
Rp317
(dp318
g8
g11
sg131
Nsg132
(dp319
sg134
Nsg26
g29
sg135
(lp320
I5
aI1
asg137
Nsg138
VTosefta Zavim 5:1
p321
sg140
(lp322
sg142
g93
sg143
Nsg144
(lp323
I5
aI1
asg146
Nsg147
g321
sg148
(lp324
sg150
g64
sg151
Nsg152
Nsg153
Nsbag2
(g3
g4
Ntp325
Rp326
(dp327
g8
g11
sg131
Nsg132
(dp328
sg134
Nsg26
g29
sg135
(lp329
I5
aI2
asg137
Nsg138
VTosefta Zavim 5:2
p330
sg140
(lp331
sg142
g93
sg143
Nsg144
(lp332
I5
aI2
asg146
Nsg147
g330
sg148
(lp333
sg150
g64
sg151
Nsg152
Nsg153
Nsbag2
(g3
g4
Ntp334
Rp335
(dp336
g8
g11
sg131
Nsg132
(dp337
sg134
Nsg26
g29
sg135
(lp338
I5
aI3
asg137
Nsg138
VTosefta Zavim 5:3
p339
sg140
(lp340
sg142
g93
sg143
Nsg144
(lp341
I5
aI3
asg146
Nsg147
g339
sg148
(lp342
sg150
g64
sg151
Nsg152
Nsg153
Nsbag2
(g3
g4
Ntp343
Rp344
(dp345
g8
g11
sg131
Nsg132
(dp346
sg134
Nsg26
g29
sg135
(lp347
I5
aI4
asg137
Nsg138
VTosefta Zavim 5:4
p348
sg140
(lp349
sg142
g93
sg143
Nsg144
(lp350
I5
aI4
asg146
Nsg147
g348
sg148
(lp351
sg150
g64
sg151
Nsg152
Nsg153
Nsbag2
(g3
g4
Ntp352
Rp353
(dp354
g8
g11
sg131
Nsg132
(dp355
sg134
Nsg26
g29
sg135
(lp356
I5
aI5
asg137
Nsg138
VTosefta Zavim 5:5
p357
sg140
(lp358
sg142
g93
sg143
Nsg144
(lp359
I5
aI5
asg146
Nsg147
g357
sg148
(lp360
sg150
g64
sg151
Nsg152
Nsg153
Nsbag2
(g3
g4
Ntp361
Rp362
(dp363
g8
g11
sg131
Nsg132
(dp364
sg134
Nsg26
g29
sg135
(lp365
I5
aI6
asg137
Nsg138
VTosefta Zavim 5:6
p366
sg140
(lp367
sg142
g93
sg143
Nsg144
(lp368
I5
aI6
asg146
Nsg147
g366
sg148
(lp369
sg150
g64
sg151
Nsg152
Nsg153
Nsbag2
(g3
g4
Ntp370
Rp371
(dp372
g8
g11
sg131
Nsg132
(dp373
sg134
Nsg26
g29
sg135
(lp374
I5
aI7
asg137
Nsg138
VTosefta Zavim 5:7
p375
sg140
(lp376
sg142
g93
sg143
Nsg144
(lp377
I5
aI7
asg146
Nsg147
g375
sg148
(lp378
sg150
g64
sg151
Nsg152
Nsg153
Nsbag2
(g3
g4
Ntp379
Rp380
(dp381
g8
g11
sg131
Nsg132
(dp382
sg134
Nsg26
g29
sg135
(lp383
I5
aI8
asg137
Nsg138
VTosefta Zavim 5:8
p384
sg140
(lp385
sg142
g93
sg143
Nsg144
(lp386
I5
aI8
asg146
Nsg147
g384
sg148
(lp387
sg150
g64
sg151
Nsg152
Nsg153
Nsbag2
(g3
g4
Ntp388
Rp389
(dp390
g8
g11
sg131
Nsg132
(dp391
sg134
Nsg26
g29
sg135
(lp392
I5
aI9
asg137
Nsg138
VTosefta Zavim 5:9
p393
sg140
(lp394
sg142
g93
sg143
Nsg144
(lp395
I5
aI9
asg146
Nsg147
g393
sg148
(lp396
sg150
g64
sg151
Nsg152
Nsg153
Nsbag2
(g3
g4
Ntp397
Rp398
(dp399
g8
g11
sg131
Nsg132
(dp400
sg134
Nsg26
g29
sg135
(lp401
I5
aI10
asg137
Nsg138
VTosefta Zavim 5:10
p402
sg140
(lp403
sg142
g93
sg143
Nsg144
(lp404
I5
aI10
asg146
Nsg147
g402
sg148
(lp405
sg150
g64
sg151
Nsg152
Nsg153
Nsbag2
(g3
g4
Ntp406
Rp407
(dp408
g8
g11
sg131
Nsg132
(dp409
sg134
Nsg26
g29
sg135
(lp410
I5
aI11
asg137
Nsg138
VTosefta Zavim 5:11
p411
sg140
(lp412
sg142
g93
sg143
Nsg144
(lp413
I5
aI11
asg146
Nsg147
g411
sg148
(lp414
sg150
g64
sg151
Nsg152
Nsg153
Nsbatp415
.