((lp0
I0
aI83
aI181
aI210
aI226
aI376
aI614
aI682
aI699
aI835
aI872
aI1108
aI1243
aI1422
aI1476
aI1512
aI1530
aI1584
aI1767
aI2051
aI2099
aI2149
aI2270
aI2418
aI2584
aI2660
aI2766
aI2901
aI2992
aI3291
aI3384
aI3505
aI3764
aI4063
aI4156
aI4277
aI4445
aI4528
aI4614
aI4703
aI4734
aI4754
aI4818
a(lp1
ccopy_reg
_reconstructor
p2
(csefaria.model.text
Ref
p3
c__builtin__
object
p4
Ntp5
Rp6
(dp7
S'index_node'
p8
g2
(csefaria.model.schema
JaggedArrayNode
p9
g4
Ntp10
Rp11
(dp12
S'_address'
p13
(lp14
VTosefta Bekhorot
p15
asS'_full_titles'
p16
(dp17
sVnodeType
p18
VJaggedArrayNode
p19
sS'parent'
p20
NsVaddressTypes
p21
(lp22
VInteger
p23
aVInteger
p24
asS'default'
p25
I00
sS'index'
p26
g2
(csefaria.model.text
Index
p27
g4
Ntp28
Rp29
(dp30
S'struct_objs'
p31
(dp32
sS'_id'
p33
g2
(cbson.objectid
ObjectId
p34
g4
Ntp35
Rp36
S'S2\xd7#\xfb\xfb\xa2db\x83\xccp'
p37
bsS'pkeys_orig_values'
p38
(dp39
S'title'
p40
VTosefta Bekhorot
p41
ssS'pubDate'
p42
V1521
p43
sS'transliteratedTitle'
p44
VTosefta Bekhorot
p45
sS'pubPlace'
p46
VVenice
p47
sS'compPlace'
p48
VTalmudic Israel
p49
sS'enDesc'
p50
VThe Tosefta (Supplement, addition") is a compilation of the Jewish oral law. Opinions differ widely as to when the Tosefta was redacted and how it relates to the Mishnah. However it closely corresponds to the Mishnah in structure and style, with the same divisions for sedarim ("orders") and masekhot ("tractates"). In many ways, the Tosefta acts as a supplement to the Mishnah. It is mainly written in Mishnaic Hebrew, with some Aramaic. Bekhorot (First Born) belongs to the fifth order, Kodshim (Holy things) and discusses the sanctification and redemption of animal and human firstborns. It has seven chapters.
p51
sS'order'
p52
(lp53
I4
asS'era'
p54
VT
p55
sS'compDate'
p56
V210
p57
sS'nodes'
p58
g11
sS'errorMargin'
p59
V20
p60
sS'_title'
p61
g41
sS'categories'
p62
(lp63
VTosefta
p64
aVSeder Kodashim
p65
asS'schema'
p66
(dp67
g18
g19
sg21
g22
sVlengths
p68
(lp69
I7
asVdepth
p70
I2
sVtitles
p71
(lp72
(dp73
Vlang
p74
Ven
p75
sVtext
p76
VTos. Bekhorot
p77
sa(dp78
Vlang
p79
Ven
p80
sVtext
p81
VT. Bekhorot
p82
sa(dp83
Vlang
p84
Ven
p85
sVtext
p86
VTosefta Bechorot
p87
sa(dp88
Vlang
p89
Ven
p90
sVtext
p91
VTosefta Bechoros
p92
sa(dp93
Vlang
p94
Ven
p95
sVtext
p96
VTos. Bechoros
p97
sa(dp98
Vlang
p99
Ven
p100
sVtext
p101
VTos. Bechorot
p102
sa(dp103
Vlang
p104
Ven
p105
sVtext
p106
VT. Bechorot
p107
sa(dp108
Vlang
p109
Vhe
p110
sVtext
p111
V\u05ea\u05d5\u05e1\u05e4\u05ea\u05d0 \u05d1\u05db\u05d5\u05e8\u05d5\u05ea
p112
sVprimary
p113
I01
sa(dp114
Vlang
p115
Ven
p116
sVtext
p117
VTosefta Bekhorot
p118
sVprimary
p119
I01
sasVkey
p120
g15
sVsectionNames
p121
(lp122
VChapter
p123
aVTosefta
p124
assbsS'_primary_title'
p125
(dp126
sS'title_group'
p127
g2
(csefaria.model.schema
TitleGroup
p128
g4
Ntp129
Rp130
(dp131
g125
(dp132
S'en'
p133
g118
ssS'titles'
p134
g72
sbsS'_addressTypes'
p135
(lp136
g2
(csefaria.model.schema
AddressInteger
p137
g4
Ntp138
Rp139
(dp140
S'length'
p141
I7
sg52
I0
sbag2
(g137
g4
Ntp142
Rp143
(dp144
g141
Nsg52
I1
sbasS'sharedTitle'
p145
Nsg68
g69
sg70
I2
sS'_full_title'
p146
(dp147
g133
g118
ssS'key'
p148
g15
sS'checkFirst'
p149
NsS'_regexes'
p150
(dp151
sS'_leaf_nodes'
p152
(lp153
sg121
g122
sS'children'
p154
(lp155
sbsS'_range_index'
p156
NsS'_context'
p157
(dp158
sS'_padded'
p159
Nsg26
g29
sS'sections'
p160
(lp161
I1
aI1
asS'_first_spanned_ref'
p162
NsS'tref'
p163
VTosefta Bekhorot 1:1
p164
sS'_spanned_refs'
p165
(lp166
sS'book'
p167
g118
sS'_range_depth'
p168
NsS'toSections'
p169
(lp170
I1
aI1
asS'_url'
p171
NsS'_normal'
p172
g164
sS'_ranged_refs'
p173
(lp174
sS'type'
p175
g64
sS'_prev'
p176
NsS'_he_normal'
p177
NsS'_next'
p178
Nsbag2
(g3
g4
Ntp179
Rp180
(dp181
g8
g11
sg156
Nsg157
(dp182
sg159
Nsg26
g29
sg160
(lp183
I1
aI2
asg162
Nsg163
VTosefta Bekhorot 1:2
p184
sg165
(lp185
sg167
g118
sg168
Nsg169
(lp186
I1
aI2
asg171
Nsg172
g184
sg173
(lp187
sg175
g64
sg176
Nsg177
Nsg178
Nsbag2
(g3
g4
Ntp188
Rp189
(dp190
g8
g11
sg156
Nsg157
(dp191
sg159
Nsg26
g29
sg160
(lp192
I1
aI3
asg162
Nsg163
VTosefta Bekhorot 1:3
p193
sg165
(lp194
sg167
g118
sg168
Nsg169
(lp195
I1
aI3
asg171
Nsg172
g193
sg173
(lp196
sg175
g64
sg176
Nsg177
Nsg178
Nsbag2
(g3
g4
Ntp197
Rp198
(dp199
g8
g11
sg156
Nsg157
(dp200
sg159
Nsg26
g29
sg160
(lp201
I1
aI4
asg162
Nsg163
VTosefta Bekhorot 1:4
p202
sg165
(lp203
sg167
g118
sg168
Nsg169
(lp204
I1
aI4
asg171
Nsg172
g202
sg173
(lp205
sg175
g64
sg176
Nsg177
Nsg178
Nsbag2
(g3
g4
Ntp206
Rp207
(dp208
g8
g11
sg156
Nsg157
(dp209
sg159
Nsg26
g29
sg160
(lp210
I1
aI5
asg162
Nsg163
VTosefta Bekhorot 1:5
p211
sg165
(lp212
sg167
g118
sg168
Nsg169
(lp213
I1
aI5
asg171
Nsg172
g211
sg173
(lp214
sg175
g64
sg176
Nsg177
Nsg178
Nsbag2
(g3
g4
Ntp215
Rp216
(dp217
g8
g11
sg156
Nsg157
(dp218
sg159
Nsg26
g29
sg160
(lp219
I1
aI6
asg162
Nsg163
VTosefta Bekhorot 1:6
p220
sg165
(lp221
sg167
g118
sg168
Nsg169
(lp222
I1
aI6
asg171
Nsg172
g220
sg173
(lp223
sg175
g64
sg176
Nsg177
Nsg178
Nsbag2
(g3
g4
Ntp224
Rp225
(dp226
g8
g11
sg156
Nsg157
(dp227
sg159
Nsg26
g29
sg160
(lp228
I2
aI1
asg162
Nsg163
VTosefta Bekhorot 2:1
p229
sg165
(lp230
sg167
g118
sg168
Nsg169
(lp231
I2
aI1
asg171
Nsg172
g229
sg173
(lp232
sg175
g64
sg176
Nsg177
Nsg178
Nsbag2
(g3
g4
Ntp233
Rp234
(dp235
g8
g11
sg156
Nsg157
(dp236
sg159
Nsg26
g29
sg160
(lp237
I2
aI2
asg162
Nsg163
VTosefta Bekhorot 2:2
p238
sg165
(lp239
sg167
g118
sg168
Nsg169
(lp240
I2
aI2
asg171
Nsg172
g238
sg173
(lp241
sg175
g64
sg176
Nsg177
Nsg178
Nsbag2
(g3
g4
Ntp242
Rp243
(dp244
g8
g11
sg156
Nsg157
(dp245
sg159
Nsg26
g29
sg160
(lp246
I2
aI3
asg162
Nsg163
VTosefta Bekhorot 2:3
p247
sg165
(lp248
sg167
g118
sg168
Nsg169
(lp249
I2
aI3
asg171
Nsg172
g247
sg173
(lp250
sg175
g64
sg176
Nsg177
Nsg178
Nsbag2
(g3
g4
Ntp251
Rp252
(dp253
g8
g11
sg156
Nsg157
(dp254
sg159
Nsg26
g29
sg160
(lp255
I2
aI4
asg162
Nsg163
VTosefta Bekhorot 2:4
p256
sg165
(lp257
sg167
g118
sg168
Nsg169
(lp258
I2
aI4
asg171
Nsg172
g256
sg173
(lp259
sg175
g64
sg176
Nsg177
Nsg178
Nsbag2
(g3
g4
Ntp260
Rp261
(dp262
g8
g11
sg156
Nsg157
(dp263
sg159
Nsg26
g29
sg160
(lp264
I2
aI5
asg162
Nsg163
VTosefta Bekhorot 2:5
p265
sg165
(lp266
sg167
g118
sg168
Nsg169
(lp267
I2
aI5
asg171
Nsg172
g265
sg173
(lp268
sg175
g64
sg176
Nsg177
Nsg178
Nsbag2
(g3
g4
Ntp269
Rp270
(dp271
g8
g11
sg156
Nsg157
(dp272
sg159
Nsg26
g29
sg160
(lp273
I2
aI6
asg162
Nsg163
VTosefta Bekhorot 2:6
p274
sg165
(lp275
sg167
g118
sg168
Nsg169
(lp276
I2
aI6
asg171
Nsg172
g274
sg173
(lp277
sg175
g64
sg176
Nsg177
Nsg178
Nsbag2
(g3
g4
Ntp278
Rp279
(dp280
g8
g11
sg156
Nsg157
(dp281
sg159
Nsg26
g29
sg160
(lp282
I2
aI7
asg162
Nsg163
VTosefta Bekhorot 2:7
p283
sg165
(lp284
sg167
g118
sg168
Nsg169
(lp285
I2
aI7
asg171
Nsg172
g283
sg173
(lp286
sg175
g64
sg176
Nsg177
Nsg178
Nsbag2
(g3
g4
Ntp287
Rp288
(dp289
g8
g11
sg156
Nsg157
(dp290
sg159
Nsg26
g29
sg160
(lp291
I3
aI1
asg162
Nsg163
VTosefta Bekhorot 3:1
p292
sg165
(lp293
sg167
g118
sg168
Nsg169
(lp294
I3
aI1
asg171
Nsg172
g292
sg173
(lp295
sg175
g64
sg176
Nsg177
Nsg178
Nsbag2
(g3
g4
Ntp296
Rp297
(dp298
g8
g11
sg156
Nsg157
(dp299
sg159
Nsg26
g29
sg160
(lp300
I3
aI2
asg162
Nsg163
VTosefta Bekhorot 3:2
p301
sg165
(lp302
sg167
g118
sg168
Nsg169
(lp303
I3
aI2
asg171
Nsg172
g301
sg173
(lp304
sg175
g64
sg176
Nsg177
Nsg178
Nsbag2
(g3
g4
Ntp305
Rp306
(dp307
g8
g11
sg156
Nsg157
(dp308
sg159
Nsg26
g29
sg160
(lp309
I3
aI3
asg162
Nsg163
VTosefta Bekhorot 3:3
p310
sg165
(lp311
sg167
g118
sg168
Nsg169
(lp312
I3
aI3
asg171
Nsg172
g310
sg173
(lp313
sg175
g64
sg176
Nsg177
Nsg178
Nsbag2
(g3
g4
Ntp314
Rp315
(dp316
g8
g11
sg156
Nsg157
(dp317
sg159
Nsg26
g29
sg160
(lp318
I3
aI4
asg162
Nsg163
VTosefta Bekhorot 3:4
p319
sg165
(lp320
sg167
g118
sg168
Nsg169
(lp321
I3
aI4
asg171
Nsg172
g319
sg173
(lp322
sg175
g64
sg176
Nsg177
Nsg178
Nsbag2
(g3
g4
Ntp323
Rp324
(dp325
g8
g11
sg156
Nsg157
(dp326
sg159
Nsg26
g29
sg160
(lp327
I3
aI5
asg162
Nsg163
VTosefta Bekhorot 3:5
p328
sg165
(lp329
sg167
g118
sg168
Nsg169
(lp330
I3
aI5
asg171
Nsg172
g328
sg173
(lp331
sg175
g64
sg176
Nsg177
Nsg178
Nsbag2
(g3
g4
Ntp332
Rp333
(dp334
g8
g11
sg156
Nsg157
(dp335
sg159
Nsg26
g29
sg160
(lp336
I3
aI6
asg162
Nsg163
VTosefta Bekhorot 3:6
p337
sg165
(lp338
sg167
g118
sg168
Nsg169
(lp339
I3
aI6
asg171
Nsg172
g337
sg173
(lp340
sg175
g64
sg176
Nsg177
Nsg178
Nsbag2
(g3
g4
Ntp341
Rp342
(dp343
g8
g11
sg156
Nsg157
(dp344
sg159
Nsg26
g29
sg160
(lp345
I3
aI7
asg162
Nsg163
VTosefta Bekhorot 3:7
p346
sg165
(lp347
sg167
g118
sg168
Nsg169
(lp348
I3
aI7
asg171
Nsg172
g346
sg173
(lp349
sg175
g64
sg176
Nsg177
Nsg178
Nsbag2
(g3
g4
Ntp350
Rp351
(dp352
g8
g11
sg156
Nsg157
(dp353
sg159
Nsg26
g29
sg160
(lp354
I4
aI1
asg162
Nsg163
VTosefta Bekhorot 4:1
p355
sg165
(lp356
sg167
g118
sg168
Nsg169
(lp357
I4
aI1
asg171
Nsg172
g355
sg173
(lp358
sg175
g64
sg176
Nsg177
Nsg178
Nsbag2
(g3
g4
Ntp359
Rp360
(dp361
g8
g11
sg156
Nsg157
(dp362
sg159
Nsg26
g29
sg160
(lp363
I4
aI2
asg162
Nsg163
VTosefta Bekhorot 4:2
p364
sg165
(lp365
sg167
g118
sg168
Nsg169
(lp366
I4
aI2
asg171
Nsg172
g364
sg173
(lp367
sg175
g64
sg176
Nsg177
Nsg178
Nsbag2
(g3
g4
Ntp368
Rp369
(dp370
g8
g11
sg156
Nsg157
(dp371
sg159
Nsg26
g29
sg160
(lp372
I4
aI3
asg162
Nsg163
VTosefta Bekhorot 4:3
p373
sg165
(lp374
sg167
g118
sg168
Nsg169
(lp375
I4
aI3
asg171
Nsg172
g373
sg173
(lp376
sg175
g64
sg176
Nsg177
Nsg178
Nsbag2
(g3
g4
Ntp377
Rp378
(dp379
g8
g11
sg156
Nsg157
(dp380
sg159
Nsg26
g29
sg160
(lp381
I4
aI4
asg162
Nsg163
VTosefta Bekhorot 4:4
p382
sg165
(lp383
sg167
g118
sg168
Nsg169
(lp384
I4
aI4
asg171
Nsg172
g382
sg173
(lp385
sg175
g64
sg176
Nsg177
Nsg178
Nsbag2
(g3
g4
Ntp386
Rp387
(dp388
g8
g11
sg156
Nsg157
(dp389
sg159
Nsg26
g29
sg160
(lp390
I4
aI5
asg162
Nsg163
VTosefta Bekhorot 4:5
p391
sg165
(lp392
sg167
g118
sg168
Nsg169
(lp393
I4
aI5
asg171
Nsg172
g391
sg173
(lp394
sg175
g64
sg176
Nsg177
Nsg178
Nsbag2
(g3
g4
Ntp395
Rp396
(dp397
g8
g11
sg156
Nsg157
(dp398
sg159
Nsg26
g29
sg160
(lp399
I5
aI1
asg162
Nsg163
VTosefta Bekhorot 5:1
p400
sg165
(lp401
sg167
g118
sg168
Nsg169
(lp402
I5
aI1
asg171
Nsg172
g400
sg173
(lp403
sg175
g64
sg176
Nsg177
Nsg178
Nsbag2
(g3
g4
Ntp404
Rp405
(dp406
g8
g11
sg156
Nsg157
(dp407
sg159
Nsg26
g29
sg160
(lp408
I5
aI2
asg162
Nsg163
VTosefta Bekhorot 5:2
p409
sg165
(lp410
sg167
g118
sg168
Nsg169
(lp411
I5
aI2
asg171
Nsg172
g409
sg173
(lp412
sg175
g64
sg176
Nsg177
Nsg178
Nsbag2
(g3
g4
Ntp413
Rp414
(dp415
g8
g11
sg156
Nsg157
(dp416
sg159
Nsg26
g29
sg160
(lp417
I6
aI1
asg162
Nsg163
VTosefta Bekhorot 6:1
p418
sg165
(lp419
sg167
g118
sg168
Nsg169
(lp420
I6
aI1
asg171
Nsg172
g418
sg173
(lp421
sg175
g64
sg176
Nsg177
Nsg178
Nsbag2
(g3
g4
Ntp422
Rp423
(dp424
g8
g11
sg156
Nsg157
(dp425
sg159
Nsg26
g29
sg160
(lp426
I6
aI2
asg162
Nsg163
VTosefta Bekhorot 6:2
p427
sg165
(lp428
sg167
g118
sg168
Nsg169
(lp429
I6
aI2
asg171
Nsg172
g427
sg173
(lp430
sg175
g64
sg176
Nsg177
Nsg178
Nsbag2
(g3
g4
Ntp431
Rp432
(dp433
g8
g11
sg156
Nsg157
(dp434
sg159
Nsg26
g29
sg160
(lp435
I6
aI3
asg162
Nsg163
VTosefta Bekhorot 6:3
p436
sg165
(lp437
sg167
g118
sg168
Nsg169
(lp438
I6
aI3
asg171
Nsg172
g436
sg173
(lp439
sg175
g64
sg176
Nsg177
Nsg178
Nsbag2
(g3
g4
Ntp440
Rp441
(dp442
g8
g11
sg156
Nsg157
(dp443
sg159
Nsg26
g29
sg160
(lp444
I6
aI4
asg162
Nsg163
VTosefta Bekhorot 6:4
p445
sg165
(lp446
sg167
g118
sg168
Nsg169
(lp447
I6
aI4
asg171
Nsg172
g445
sg173
(lp448
sg175
g64
sg176
Nsg177
Nsg178
Nsbag2
(g3
g4
Ntp449
Rp450
(dp451
g8
g11
sg156
Nsg157
(dp452
sg159
Nsg26
g29
sg160
(lp453
I6
aI5
asg162
Nsg163
VTosefta Bekhorot 6:5
p454
sg165
(lp455
sg167
g118
sg168
Nsg169
(lp456
I6
aI5
asg171
Nsg172
g454
sg173
(lp457
sg175
g64
sg176
Nsg177
Nsg178
Nsbag2
(g3
g4
Ntp458
Rp459
(dp460
g8
g11
sg156
Nsg157
(dp461
sg159
Nsg26
g29
sg160
(lp462
I6
aI6
asg162
Nsg163
VTosefta Bekhorot 6:6
p463
sg165
(lp464
sg167
g118
sg168
Nsg169
(lp465
I6
aI6
asg171
Nsg172
g463
sg173
(lp466
sg175
g64
sg176
Nsg177
Nsg178
Nsbag2
(g3
g4
Ntp467
Rp468
(dp469
g8
g11
sg156
Nsg157
(dp470
sg159
Nsg26
g29
sg160
(lp471
I6
aI7
asg162
Nsg163
VTosefta Bekhorot 6:7
p472
sg165
(lp473
sg167
g118
sg168
Nsg169
(lp474
I6
aI7
asg171
Nsg172
g472
sg173
(lp475
sg175
g64
sg176
Nsg177
Nsg178
Nsbag2
(g3
g4
Ntp476
Rp477
(dp478
g8
g11
sg156
Nsg157
(dp479
sg159
Nsg26
g29
sg160
(lp480
I6
aI8
asg162
Nsg163
VTosefta Bekhorot 6:8
p481
sg165
(lp482
sg167
g118
sg168
Nsg169
(lp483
I6
aI8
asg171
Nsg172
g481
sg173
(lp484
sg175
g64
sg176
Nsg177
Nsg178
Nsbag2
(g3
g4
Ntp485
Rp486
(dp487
g8
g11
sg156
Nsg157
(dp488
sg159
Nsg26
g29
sg160
(lp489
I6
aI9
asg162
Nsg163
VTosefta Bekhorot 6:9
p490
sg165
(lp491
sg167
g118
sg168
Nsg169
(lp492
I6
aI9
asg171
Nsg172
g490
sg173
(lp493
sg175
g64
sg176
Nsg177
Nsg178
Nsbag2
(g3
g4
Ntp494
Rp495
(dp496
g8
g11
sg156
Nsg157
(dp497
sg159
Nsg26
g29
sg160
(lp498
I7
aI1
asg162
Nsg163
VTosefta Bekhorot 7:1
p499
sg165
(lp500
sg167
g118
sg168
Nsg169
(lp501
I7
aI1
asg171
Nsg172
g499
sg173
(lp502
sg175
g64
sg176
Nsg177
Nsg178
Nsbag2
(g3
g4
Ntp503
Rp504
(dp505
g8
g11
sg156
Nsg157
(dp506
sg159
Nsg26
g29
sg160
(lp507
I7
aI2
asg162
Nsg163
VTosefta Bekhorot 7:2
p508
sg165
(lp509
sg167
g118
sg168
Nsg169
(lp510
I7
aI2
asg171
Nsg172
g508
sg173
(lp511
sg175
g64
sg176
Nsg177
Nsg178
Nsbag2
(g3
g4
Ntp512
Rp513
(dp514
g8
g11
sg156
Nsg157
(dp515
sg159
Nsg26
g29
sg160
(lp516
I7
aI3
asg162
Nsg163
VTosefta Bekhorot 7:3
p517
sg165
(lp518
sg167
g118
sg168
Nsg169
(lp519
I7
aI3
asg171
Nsg172
g517
sg173
(lp520
sg175
g64
sg176
Nsg177
Nsg178
Nsbag2
(g3
g4
Ntp521
Rp522
(dp523
g8
g11
sg156
Nsg157
(dp524
sg159
Nsg26
g29
sg160
(lp525
I7
aI4
asg162
Nsg163
VTosefta Bekhorot 7:4
p526
sg165
(lp527
sg167
g118
sg168
Nsg169
(lp528
I7
aI4
asg171
Nsg172
g526
sg173
(lp529
sg175
g64
sg176
Nsg177
Nsg178
Nsbag2
(g3
g4
Ntp530
Rp531
(dp532
g8
g11
sg156
Nsg157
(dp533
sg159
Nsg26
g29
sg160
(lp534
I7
aI5
asg162
Nsg163
VTosefta Bekhorot 7:5
p535
sg165
(lp536
sg167
g118
sg168
Nsg169
(lp537
I7
aI5
asg171
Nsg172
g535
sg173
(lp538
sg175
g64
sg176
Nsg177
Nsg178
Nsbag2
(g3
g4
Ntp539
Rp540
(dp541
g8
g11
sg156
Nsg157
(dp542
sg159
Nsg26
g29
sg160
(lp543
I7
aI6
asg162
Nsg163
VTosefta Bekhorot 7:6
p544
sg165
(lp545
sg167
g118
sg168
Nsg169
(lp546
I7
aI6
asg171
Nsg172
g544
sg173
(lp547
sg175
g64
sg176
Nsg177
Nsg178
Nsbag2
(g3
g4
Ntp548
Rp549
(dp550
g8
g11
sg156
Nsg157
(dp551
sg159
Nsg26
g29
sg160
(lp552
I7
aI7
asg162
Nsg163
VTosefta Bekhorot 7:7
p553
sg165
(lp554
sg167
g118
sg168
Nsg169
(lp555
I7
aI7
asg171
Nsg172
g553
sg173
(lp556
sg175
g64
sg176
Nsg177
Nsg178
Nsbatp557
.