((lp0
I0
aI157
aI218
aI316
aI650
aI716
aI781
aI866
aI966
aI1061
aI1325
aI1385
aI1431
aI1480
aI1549
aI1612
aI1723
aI1804
aI1951
aI2127
aI2256
aI2353
aI2426
aI2490
aI2675
aI2719
aI2793
aI2962
aI2990
aI3061
aI3124
aI3187
aI3230
aI3298
aI3367
aI3417
aI3489
a(lp1
ccopy_reg
_reconstructor
p2
(csefaria.model.text
Ref
p3
c__builtin__
object
p4
Ntp5
Rp6
(dp7
S'index_node'
p8
g2
(csefaria.model.schema
JaggedArrayNode
p9
g4
Ntp10
Rp11
(dp12
S'_address'
p13
(lp14
VTosefta Shevuot
p15
asS'_full_titles'
p16
(dp17
sVnodeType
p18
VJaggedArrayNode
p19
sS'parent'
p20
NsVaddressTypes
p21
(lp22
VInteger
p23
aVInteger
p24
asS'default'
p25
I00
sS'index'
p26
g2
(csefaria.model.text
Index
p27
g4
Ntp28
Rp29
(dp30
S'struct_objs'
p31
(dp32
sS'_id'
p33
g2
(cbson.objectid
ObjectId
p34
g4
Ntp35
Rp36
S'S0\x02\x93\xfb\xfb\xa2l+\xb6\x89\xd4'
p37
bsS'pkeys_orig_values'
p38
(dp39
S'title'
p40
VTosefta Shevuot
p41
ssS'pubDate'
p42
V1521
p43
sS'transliteratedTitle'
p44
VTosefta Shevuot
p45
sS'pubPlace'
p46
VVenice
p47
sS'compPlace'
p48
VTalmudic Israel
p49
sS'enDesc'
p50
VThe Tosefta (Supplement, addition") is a compilation of the Jewish oral law. Opinions differ widely as to when the Tosefta was redacted and how it relates to the Mishnah. However it closely corresponds to the Mishnah in structure and style, with the same divisions for sedarim ("orders") and masekhot ("tractates"). In many ways, the Tosefta acts as a supplement to the Mishnah. It is mainly written in Mishnaic Hebrew, with some Aramaic. Shevuot (Oaths) belongs to the fourth order, Nezikin (The Order of Damages) and discusses various types of oaths and their consequences. It has six chapters.
p51
sS'order'
p52
(lp53
I6
asS'era'
p54
VT
p55
sS'compDate'
p56
V210
p57
sS'nodes'
p58
g11
sS'errorMargin'
p59
V20
p60
sS'_title'
p61
g41
sS'categories'
p62
(lp63
VTosefta
p64
aVSeder Nezikin
p65
asS'schema'
p66
(dp67
g18
g19
sg21
g22
sVlengths
p68
(lp69
I6
asVdepth
p70
I2
sVtitles
p71
(lp72
(dp73
Vlang
p74
Ven
p75
sVtext
p76
VT. Shvuot
p77
sa(dp78
Vlang
p79
Ven
p80
sVtext
p81
VTos. Shevuot
p82
sa(dp83
Vlang
p84
Ven
p85
sVtext
p86
VT. Shevuot
p87
sa(dp88
Vlang
p89
Ven
p90
sVtext
p91
VTosefta Shvuot
p92
sa(dp93
Vlang
p94
Vhe
p95
sVtext
p96
V\u05ea\u05d5\u05e1\u05e4\u05ea\u05d0 \u05e9\u05d1\u05d5\u05e2\u05d5\u05ea
p97
sVprimary
p98
I01
sa(dp99
Vlang
p100
Ven
p101
sVtext
p102
VTosefta Shevuot
p103
sVprimary
p104
I01
sasVkey
p105
g15
sVsectionNames
p106
(lp107
VChapter
p108
aVTosefta
p109
assbsS'_primary_title'
p110
(dp111
sS'title_group'
p112
g2
(csefaria.model.schema
TitleGroup
p113
g4
Ntp114
Rp115
(dp116
g110
(dp117
S'en'
p118
g103
ssS'titles'
p119
g72
sbsS'_addressTypes'
p120
(lp121
g2
(csefaria.model.schema
AddressInteger
p122
g4
Ntp123
Rp124
(dp125
S'length'
p126
I6
sg52
I0
sbag2
(g122
g4
Ntp127
Rp128
(dp129
g126
Nsg52
I1
sbasS'sharedTitle'
p130
Nsg68
g69
sg70
I2
sS'_full_title'
p131
(dp132
g118
g103
ssS'key'
p133
g15
sS'checkFirst'
p134
NsS'_regexes'
p135
(dp136
sS'_leaf_nodes'
p137
(lp138
sg106
g107
sS'children'
p139
(lp140
sbsS'_range_index'
p141
NsS'_context'
p142
(dp143
sS'_padded'
p144
Nsg26
g29
sS'sections'
p145
(lp146
I1
aI1
asS'_first_spanned_ref'
p147
NsS'tref'
p148
VTosefta Shevuot 1:1
p149
sS'_spanned_refs'
p150
(lp151
sS'book'
p152
g103
sS'_range_depth'
p153
NsS'toSections'
p154
(lp155
I1
aI1
asS'_url'
p156
NsS'_normal'
p157
g149
sS'_ranged_refs'
p158
(lp159
sS'type'
p160
g64
sS'_prev'
p161
NsS'_he_normal'
p162
NsS'_next'
p163
Nsbag2
(g3
g4
Ntp164
Rp165
(dp166
g8
g11
sg141
Nsg142
(dp167
sg144
Nsg26
g29
sg145
(lp168
I1
aI2
asg147
Nsg148
VTosefta Shevuot 1:2
p169
sg150
(lp170
sg152
g103
sg153
Nsg154
(lp171
I1
aI2
asg156
Nsg157
g169
sg158
(lp172
sg160
g64
sg161
Nsg162
Nsg163
Nsbag2
(g3
g4
Ntp173
Rp174
(dp175
g8
g11
sg141
Nsg142
(dp176
sg144
Nsg26
g29
sg145
(lp177
I1
aI3
asg147
Nsg148
VTosefta Shevuot 1:3
p178
sg150
(lp179
sg152
g103
sg153
Nsg154
(lp180
I1
aI3
asg156
Nsg157
g178
sg158
(lp181
sg160
g64
sg161
Nsg162
Nsg163
Nsbag2
(g3
g4
Ntp182
Rp183
(dp184
g8
g11
sg141
Nsg142
(dp185
sg144
Nsg26
g29
sg145
(lp186
I1
aI4
asg147
Nsg148
VTosefta Shevuot 1:4
p187
sg150
(lp188
sg152
g103
sg153
Nsg154
(lp189
I1
aI4
asg156
Nsg157
g187
sg158
(lp190
sg160
g64
sg161
Nsg162
Nsg163
Nsbag2
(g3
g4
Ntp191
Rp192
(dp193
g8
g11
sg141
Nsg142
(dp194
sg144
Nsg26
g29
sg145
(lp195
I1
aI5
asg147
Nsg148
VTosefta Shevuot 1:5
p196
sg150
(lp197
sg152
g103
sg153
Nsg154
(lp198
I1
aI5
asg156
Nsg157
g196
sg158
(lp199
sg160
g64
sg161
Nsg162
Nsg163
Nsbag2
(g3
g4
Ntp200
Rp201
(dp202
g8
g11
sg141
Nsg142
(dp203
sg144
Nsg26
g29
sg145
(lp204
I2
aI1
asg147
Nsg148
VTosefta Shevuot 2:1
p205
sg150
(lp206
sg152
g103
sg153
Nsg154
(lp207
I2
aI1
asg156
Nsg157
g205
sg158
(lp208
sg160
g64
sg161
Nsg162
Nsg163
Nsbag2
(g3
g4
Ntp209
Rp210
(dp211
g8
g11
sg141
Nsg142
(dp212
sg144
Nsg26
g29
sg145
(lp213
I2
aI2
asg147
Nsg148
VTosefta Shevuot 2:2
p214
sg150
(lp215
sg152
g103
sg153
Nsg154
(lp216
I2
aI2
asg156
Nsg157
g214
sg158
(lp217
sg160
g64
sg161
Nsg162
Nsg163
Nsbag2
(g3
g4
Ntp218
Rp219
(dp220
g8
g11
sg141
Nsg142
(dp221
sg144
Nsg26
g29
sg145
(lp222
I2
aI3
asg147
Nsg148
VTosefta Shevuot 2:3
p223
sg150
(lp224
sg152
g103
sg153
Nsg154
(lp225
I2
aI3
asg156
Nsg157
g223
sg158
(lp226
sg160
g64
sg161
Nsg162
Nsg163
Nsbag2
(g3
g4
Ntp227
Rp228
(dp229
g8
g11
sg141
Nsg142
(dp230
sg144
Nsg26
g29
sg145
(lp231
I2
aI4
asg147
Nsg148
VTosefta Shevuot 2:4
p232
sg150
(lp233
sg152
g103
sg153
Nsg154
(lp234
I2
aI4
asg156
Nsg157
g232
sg158
(lp235
sg160
g64
sg161
Nsg162
Nsg163
Nsbag2
(g3
g4
Ntp236
Rp237
(dp238
g8
g11
sg141
Nsg142
(dp239
sg144
Nsg26
g29
sg145
(lp240
I2
aI5
asg147
Nsg148
VTosefta Shevuot 2:5
p241
sg150
(lp242
sg152
g103
sg153
Nsg154
(lp243
I2
aI5
asg156
Nsg157
g241
sg158
(lp244
sg160
g64
sg161
Nsg162
Nsg163
Nsbag2
(g3
g4
Ntp245
Rp246
(dp247
g8
g11
sg141
Nsg142
(dp248
sg144
Nsg26
g29
sg145
(lp249
I2
aI6
asg147
Nsg148
VTosefta Shevuot 2:6
p250
sg150
(lp251
sg152
g103
sg153
Nsg154
(lp252
I2
aI6
asg156
Nsg157
g250
sg158
(lp253
sg160
g64
sg161
Nsg162
Nsg163
Nsbag2
(g3
g4
Ntp254
Rp255
(dp256
g8
g11
sg141
Nsg142
(dp257
sg144
Nsg26
g29
sg145
(lp258
I2
aI7
asg147
Nsg148
VTosefta Shevuot 2:7
p259
sg150
(lp260
sg152
g103
sg153
Nsg154
(lp261
I2
aI7
asg156
Nsg157
g259
sg158
(lp262
sg160
g64
sg161
Nsg162
Nsg163
Nsbag2
(g3
g4
Ntp263
Rp264
(dp265
g8
g11
sg141
Nsg142
(dp266
sg144
Nsg26
g29
sg145
(lp267
I2
aI8
asg147
Nsg148
VTosefta Shevuot 2:8
p268
sg150
(lp269
sg152
g103
sg153
Nsg154
(lp270
I2
aI8
asg156
Nsg157
g268
sg158
(lp271
sg160
g64
sg161
Nsg162
Nsg163
Nsbag2
(g3
g4
Ntp272
Rp273
(dp274
g8
g11
sg141
Nsg142
(dp275
sg144
Nsg26
g29
sg145
(lp276
I3
aI1
asg147
Nsg148
VTosefta Shevuot 3:1
p277
sg150
(lp278
sg152
g103
sg153
Nsg154
(lp279
I3
aI1
asg156
Nsg157
g277
sg158
(lp280
sg160
g64
sg161
Nsg162
Nsg163
Nsbag2
(g3
g4
Ntp281
Rp282
(dp283
g8
g11
sg141
Nsg142
(dp284
sg144
Nsg26
g29
sg145
(lp285
I3
aI2
asg147
Nsg148
VTosefta Shevuot 3:2
p286
sg150
(lp287
sg152
g103
sg153
Nsg154
(lp288
I3
aI2
asg156
Nsg157
g286
sg158
(lp289
sg160
g64
sg161
Nsg162
Nsg163
Nsbag2
(g3
g4
Ntp290
Rp291
(dp292
g8
g11
sg141
Nsg142
(dp293
sg144
Nsg26
g29
sg145
(lp294
I3
aI3
asg147
Nsg148
VTosefta Shevuot 3:3
p295
sg150
(lp296
sg152
g103
sg153
Nsg154
(lp297
I3
aI3
asg156
Nsg157
g295
sg158
(lp298
sg160
g64
sg161
Nsg162
Nsg163
Nsbag2
(g3
g4
Ntp299
Rp300
(dp301
g8
g11
sg141
Nsg142
(dp302
sg144
Nsg26
g29
sg145
(lp303
I3
aI4
asg147
Nsg148
VTosefta Shevuot 3:4
p304
sg150
(lp305
sg152
g103
sg153
Nsg154
(lp306
I3
aI4
asg156
Nsg157
g304
sg158
(lp307
sg160
g64
sg161
Nsg162
Nsg163
Nsbag2
(g3
g4
Ntp308
Rp309
(dp310
g8
g11
sg141
Nsg142
(dp311
sg144
Nsg26
g29
sg145
(lp312
I3
aI5
asg147
Nsg148
VTosefta Shevuot 3:5
p313
sg150
(lp314
sg152
g103
sg153
Nsg154
(lp315
I3
aI5
asg156
Nsg157
g313
sg158
(lp316
sg160
g64
sg161
Nsg162
Nsg163
Nsbag2
(g3
g4
Ntp317
Rp318
(dp319
g8
g11
sg141
Nsg142
(dp320
sg144
Nsg26
g29
sg145
(lp321
I3
aI6
asg147
Nsg148
VTosefta Shevuot 3:6
p322
sg150
(lp323
sg152
g103
sg153
Nsg154
(lp324
I3
aI6
asg156
Nsg157
g322
sg158
(lp325
sg160
g64
sg161
Nsg162
Nsg163
Nsbag2
(g3
g4
Ntp326
Rp327
(dp328
g8
g11
sg141
Nsg142
(dp329
sg144
Nsg26
g29
sg145
(lp330
I4
aI1
asg147
Nsg148
VTosefta Shevuot 4:1
p331
sg150
(lp332
sg152
g103
sg153
Nsg154
(lp333
I4
aI1
asg156
Nsg157
g331
sg158
(lp334
sg160
g64
sg161
Nsg162
Nsg163
Nsbag2
(g3
g4
Ntp335
Rp336
(dp337
g8
g11
sg141
Nsg142
(dp338
sg144
Nsg26
g29
sg145
(lp339
I4
aI2
asg147
Nsg148
VTosefta Shevuot 4:2
p340
sg150
(lp341
sg152
g103
sg153
Nsg154
(lp342
I4
aI2
asg156
Nsg157
g340
sg158
(lp343
sg160
g64
sg161
Nsg162
Nsg163
Nsbag2
(g3
g4
Ntp344
Rp345
(dp346
g8
g11
sg141
Nsg142
(dp347
sg144
Nsg26
g29
sg145
(lp348
I5
aI1
asg147
Nsg148
VTosefta Shevuot 5:1
p349
sg150
(lp350
sg152
g103
sg153
Nsg154
(lp351
I5
aI1
asg156
Nsg157
g349
sg158
(lp352
sg160
g64
sg161
Nsg162
Nsg163
Nsbag2
(g3
g4
Ntp353
Rp354
(dp355
g8
g11
sg141
Nsg142
(dp356
sg144
Nsg26
g29
sg145
(lp357
I5
aI2
asg147
Nsg148
VTosefta Shevuot 5:2
p358
sg150
(lp359
sg152
g103
sg153
Nsg154
(lp360
I5
aI2
asg156
Nsg157
g358
sg158
(lp361
sg160
g64
sg161
Nsg162
Nsg163
Nsbag2
(g3
g4
Ntp362
Rp363
(dp364
g8
g11
sg141
Nsg142
(dp365
sg144
Nsg26
g29
sg145
(lp366
I5
aI3
asg147
Nsg148
VTosefta Shevuot 5:3
p367
sg150
(lp368
sg152
g103
sg153
Nsg154
(lp369
I5
aI3
asg156
Nsg157
g367
sg158
(lp370
sg160
g64
sg161
Nsg162
Nsg163
Nsbag2
(g3
g4
Ntp371
Rp372
(dp373
g8
g11
sg141
Nsg142
(dp374
sg144
Nsg26
g29
sg145
(lp375
I5
aI4
asg147
Nsg148
VTosefta Shevuot 5:4
p376
sg150
(lp377
sg152
g103
sg153
Nsg154
(lp378
I5
aI4
asg156
Nsg157
g376
sg158
(lp379
sg160
g64
sg161
Nsg162
Nsg163
Nsbag2
(g3
g4
Ntp380
Rp381
(dp382
g8
g11
sg141
Nsg142
(dp383
sg144
Nsg26
g29
sg145
(lp384
I5
aI5
asg147
Nsg148
VTosefta Shevuot 5:5
p385
sg150
(lp386
sg152
g103
sg153
Nsg154
(lp387
I5
aI5
asg156
Nsg157
g385
sg158
(lp388
sg160
g64
sg161
Nsg162
Nsg163
Nsbag2
(g3
g4
Ntp389
Rp390
(dp391
g8
g11
sg141
Nsg142
(dp392
sg144
Nsg26
g29
sg145
(lp393
I5
aI6
asg147
Nsg148
VTosefta Shevuot 5:6
p394
sg150
(lp395
sg152
g103
sg153
Nsg154
(lp396
I5
aI6
asg156
Nsg157
g394
sg158
(lp397
sg160
g64
sg161
Nsg162
Nsg163
Nsbag2
(g3
g4
Ntp398
Rp399
(dp400
g8
g11
sg141
Nsg142
(dp401
sg144
Nsg26
g29
sg145
(lp402
I5
aI7
asg147
Nsg148
VTosefta Shevuot 5:7
p403
sg150
(lp404
sg152
g103
sg153
Nsg154
(lp405
I5
aI7
asg156
Nsg157
g403
sg158
(lp406
sg160
g64
sg161
Nsg162
Nsg163
Nsbag2
(g3
g4
Ntp407
Rp408
(dp409
g8
g11
sg141
Nsg142
(dp410
sg144
Nsg26
g29
sg145
(lp411
I6
aI1
asg147
Nsg148
VTosefta Shevuot 6:1
p412
sg150
(lp413
sg152
g103
sg153
Nsg154
(lp414
I6
aI1
asg156
Nsg157
g412
sg158
(lp415
sg160
g64
sg161
Nsg162
Nsg163
Nsbag2
(g3
g4
Ntp416
Rp417
(dp418
g8
g11
sg141
Nsg142
(dp419
sg144
Nsg26
g29
sg145
(lp420
I6
aI2
asg147
Nsg148
VTosefta Shevuot 6:2
p421
sg150
(lp422
sg152
g103
sg153
Nsg154
(lp423
I6
aI2
asg156
Nsg157
g421
sg158
(lp424
sg160
g64
sg161
Nsg162
Nsg163
Nsbag2
(g3
g4
Ntp425
Rp426
(dp427
g8
g11
sg141
Nsg142
(dp428
sg144
Nsg26
g29
sg145
(lp429
I6
aI3
asg147
Nsg148
VTosefta Shevuot 6:3
p430
sg150
(lp431
sg152
g103
sg153
Nsg154
(lp432
I6
aI3
asg156
Nsg157
g430
sg158
(lp433
sg160
g64
sg161
Nsg162
Nsg163
Nsbag2
(g3
g4
Ntp434
Rp435
(dp436
g8
g11
sg141
Nsg142
(dp437
sg144
Nsg26
g29
sg145
(lp438
I6
aI4
asg147
Nsg148
VTosefta Shevuot 6:4
p439
sg150
(lp440
sg152
g103
sg153
Nsg154
(lp441
I6
aI4
asg156
Nsg157
g439
sg158
(lp442
sg160
g64
sg161
Nsg162
Nsg163
Nsbag2
(g3
g4
Ntp443
Rp444
(dp445
g8
g11
sg141
Nsg142
(dp446
sg144
Nsg26
g29
sg145
(lp447
I6
aI5
asg147
Nsg148
VTosefta Shevuot 6:5
p448
sg150
(lp449
sg152
g103
sg153
Nsg154
(lp450
I6
aI5
asg156
Nsg157
g448
sg158
(lp451
sg160
g64
sg161
Nsg162
Nsg163
Nsbag2
(g3
g4
Ntp452
Rp453
(dp454
g8
g11
sg141
Nsg142
(dp455
sg144
Nsg26
g29
sg145
(lp456
I6
aI6
asg147
Nsg148
VTosefta Shevuot 6:6
p457
sg150
(lp458
sg152
g103
sg153
Nsg154
(lp459
I6
aI6
asg156
Nsg157
g457
sg158
(lp460
sg160
g64
sg161
Nsg162
Nsg163
Nsbag2
(g3
g4
Ntp461
Rp462
(dp463
g8
g11
sg141
Nsg142
(dp464
sg144
Nsg26
g29
sg145
(lp465
I6
aI7
asg147
Nsg148
VTosefta Shevuot 6:7
p466
sg150
(lp467
sg152
g103
sg153
Nsg154
(lp468
I6
aI7
asg156
Nsg157
g466
sg158
(lp469
sg160
g64
sg161
Nsg162
Nsg163
Nsbag2
(g3
g4
Ntp470
Rp471
(dp472
g8
g11
sg141
Nsg142
(dp473
sg144
Nsg26
g29
sg145
(lp474
I6
aI8
asg147
Nsg148
VTosefta Shevuot 6:8
p475
sg150
(lp476
sg152
g103
sg153
Nsg154
(lp477
I6
aI8
asg156
Nsg157
g475
sg158
(lp478
sg160
g64
sg161
Nsg162
Nsg163
Nsbag2
(g3
g4
Ntp479
Rp480
(dp481
g8
g11
sg141
Nsg142
(dp482
sg144
Nsg26
g29
sg145
(lp483
I6
aI9
asg147
Nsg148
VTosefta Shevuot 6:9
p484
sg150
(lp485
sg152
g103
sg153
Nsg154
(lp486
I6
aI9
asg156
Nsg157
g484
sg158
(lp487
sg160
g64
sg161
Nsg162
Nsg163
Nsbatp488
.