((lp0
I0
aI43
aI89
aI119
aI185
aI208
aI271
aI429
aI444
aI521
aI676
aI780
aI851
aI882
aI954
aI1012
aI1245
aI1278
aI1300
aI1309
aI1320
aI1330
aI1341
aI1354
aI1374
aI1408
aI1443
aI1652
aI1771
aI1853
aI1863
aI1875
aI1890
aI1905
aI1933
aI2222
aI2288
aI2351
aI2411
aI2507
aI2645
aI2701
aI2730
aI3032
aI3077
aI3390
aI3419
aI3561
aI3586
aI3619
aI3641
aI3991
aI4195
aI4376
aI4522
aI4585
aI4688
aI4743
aI4781
aI4867
aI4937
aI5065
aI5168
aI5230
aI5275
aI5376
aI5432
aI5479
aI5548
aI5624
aI5670
aI5703
aI5913
aI5952
aI6101
aI6187
aI6310
aI6500
aI6705
aI6720
aI6762
aI6789
aI6810
aI6817
aI6843
aI6889
aI6948
aI7199
aI7322
aI7578
aI7682
aI7793
aI8055
aI8231
aI8349
aI8399
aI8444
aI8455
aI8482
aI8612
aI8778
aI8825
aI8888
aI9035
aI9140
aI9184
aI9473
aI9528
aI9698
aI9856
aI10006
aI10177
aI10480
aI10480
aI10480
aI10480
aI10480
aI10480
aI10480
aI10480
aI10480
aI10480
aI10480
aI10480
aI10480
aI10480
aI10480
aI10480
aI10480
aI10480
aI10544
a(lp1
ccopy_reg
_reconstructor
p2
(csefaria.model.text
Ref
p3
c__builtin__
object
p4
Ntp5
Rp6
(dp7
S'index_node'
p8
g2
(csefaria.model.schema
JaggedArrayNode
p9
g4
Ntp10
Rp11
(dp12
S'_address'
p13
(lp14
VTosefta Menahot
p15
asS'_full_titles'
p16
(dp17
sVnodeType
p18
VJaggedArrayNode
p19
sS'parent'
p20
NsVaddressTypes
p21
(lp22
VInteger
p23
aVInteger
p24
asS'default'
p25
I00
sS'index'
p26
g2
(csefaria.model.text
Index
p27
g4
Ntp28
Rp29
(dp30
S'struct_objs'
p31
(dp32
sS'_id'
p33
g2
(cbson.objectid
ObjectId
p34
g4
Ntp35
Rp36
S'S2\xa3l\xfb\xfb\xa2db\x83\xcb4'
p37
bsS'pkeys_orig_values'
p38
(dp39
S'title'
p40
VTosefta Menahot
p41
ssS'pubDate'
p42
V1521
p43
sS'transliteratedTitle'
p44
VTosefta Menachot
p45
sS'pubPlace'
p46
VVenice
p47
sS'compPlace'
p48
VTalmudic Israel
p49
sS'enDesc'
p50
VThe Tosefta (Supplement, addition") is a compilation of the Jewish oral law. Opinions differ widely as to when the Tosefta was redacted and how it relates to the Mishnah. However it closely corresponds to the Mishnah in structure and style, with the same divisions for sedarim ("orders") and masekhot ("tractates"). In many ways, the Tosefta acts as a supplement to the Mishnah. It is mainly written in Mishnaic Hebrew, with some Aramaic. Menahot (Meal Offerings) belongs to the fifth order, Kodshim (Holy things) and discusses the various grain-based offerings in the Temple. It has thirteen chapters.
p51
sS'order'
p52
(lp53
I3
asS'era'
p54
VT
p55
sS'compDate'
p56
V210
p57
sS'nodes'
p58
g11
sS'errorMargin'
p59
V20
p60
sS'_title'
p61
g41
sS'categories'
p62
(lp63
VTosefta
p64
aVSeder Kodashim
p65
asS'schema'
p66
(dp67
g18
g19
sg21
g22
sVlengths
p68
(lp69
I13
asVdepth
p70
I2
sVtitles
p71
(lp72
(dp73
Vlang
p74
Ven
p75
sVtext
p76
VTosefta Menachot
p77
sa(dp78
Vlang
p79
Ven
p80
sVtext
p81
VTosefta Menachos
p82
sa(dp83
Vlang
p84
Ven
p85
sVtext
p86
VTos. Menachos
p87
sa(dp88
Vlang
p89
Ven
p90
sVtext
p91
VTos. Menachot
p92
sa(dp93
Vlang
p94
Ven
p95
sVtext
p96
VT. Menachot
p97
sa(dp98
Vlang
p99
Vhe
p100
sVtext
p101
V\u05ea\u05d5\u05e1\u05e4\u05ea\u05d0 \u05de\u05e0\u05d7\u05d5\u05ea
p102
sVprimary
p103
I01
sa(dp104
Vlang
p105
Ven
p106
sVtext
p107
VTosefta Menahot
p108
sVprimary
p109
I01
sasVkey
p110
g15
sVsectionNames
p111
(lp112
VChapter
p113
aVTosefta
p114
assbsS'_primary_title'
p115
(dp116
sS'title_group'
p117
g2
(csefaria.model.schema
TitleGroup
p118
g4
Ntp119
Rp120
(dp121
g115
(dp122
S'en'
p123
g108
ssS'titles'
p124
g72
sbsS'_addressTypes'
p125
(lp126
g2
(csefaria.model.schema
AddressInteger
p127
g4
Ntp128
Rp129
(dp130
S'length'
p131
I13
sg52
I0
sbag2
(g127
g4
Ntp132
Rp133
(dp134
g131
Nsg52
I1
sbasS'sharedTitle'
p135
Nsg68
g69
sg70
I2
sS'_full_title'
p136
(dp137
g123
g108
ssS'key'
p138
g15
sS'checkFirst'
p139
NsS'_regexes'
p140
(dp141
sS'_leaf_nodes'
p142
(lp143
sg111
g112
sS'children'
p144
(lp145
sbsS'_range_index'
p146
NsS'_context'
p147
(dp148
sS'_padded'
p149
Nsg26
g29
sS'sections'
p150
(lp151
I1
aI1
asS'_first_spanned_ref'
p152
NsS'tref'
p153
VTosefta Menahot 1:1
p154
sS'_spanned_refs'
p155
(lp156
sS'book'
p157
g108
sS'_range_depth'
p158
NsS'toSections'
p159
(lp160
I1
aI1
asS'_url'
p161
NsS'_normal'
p162
g154
sS'_ranged_refs'
p163
(lp164
sS'type'
p165
g64
sS'_prev'
p166
NsS'_he_normal'
p167
NsS'_next'
p168
Nsbag2
(g3
g4
Ntp169
Rp170
(dp171
g8
g11
sg146
Nsg147
(dp172
sg149
Nsg26
g29
sg150
(lp173
I1
aI2
asg152
Nsg153
VTosefta Menahot 1:2
p174
sg155
(lp175
sg157
g108
sg158
Nsg159
(lp176
I1
aI2
asg161
Nsg162
g174
sg163
(lp177
sg165
g64
sg166
Nsg167
Nsg168
Nsbag2
(g3
g4
Ntp178
Rp179
(dp180
g8
g11
sg146
Nsg147
(dp181
sg149
Nsg26
g29
sg150
(lp182
I1
aI3
asg152
Nsg153
VTosefta Menahot 1:3
p183
sg155
(lp184
sg157
g108
sg158
Nsg159
(lp185
I1
aI3
asg161
Nsg162
g183
sg163
(lp186
sg165
g64
sg166
Nsg167
Nsg168
Nsbag2
(g3
g4
Ntp187
Rp188
(dp189
g8
g11
sg146
Nsg147
(dp190
sg149
Nsg26
g29
sg150
(lp191
I1
aI4
asg152
Nsg153
VTosefta Menahot 1:4
p192
sg155
(lp193
sg157
g108
sg158
Nsg159
(lp194
I1
aI4
asg161
Nsg162
g192
sg163
(lp195
sg165
g64
sg166
Nsg167
Nsg168
Nsbag2
(g3
g4
Ntp196
Rp197
(dp198
g8
g11
sg146
Nsg147
(dp199
sg149
Nsg26
g29
sg150
(lp200
I1
aI5
asg152
Nsg153
VTosefta Menahot 1:5
p201
sg155
(lp202
sg157
g108
sg158
Nsg159
(lp203
I1
aI5
asg161
Nsg162
g201
sg163
(lp204
sg165
g64
sg166
Nsg167
Nsg168
Nsbag2
(g3
g4
Ntp205
Rp206
(dp207
g8
g11
sg146
Nsg147
(dp208
sg149
Nsg26
g29
sg150
(lp209
I1
aI6
asg152
Nsg153
VTosefta Menahot 1:6
p210
sg155
(lp211
sg157
g108
sg158
Nsg159
(lp212
I1
aI6
asg161
Nsg162
g210
sg163
(lp213
sg165
g64
sg166
Nsg167
Nsg168
Nsbag2
(g3
g4
Ntp214
Rp215
(dp216
g8
g11
sg146
Nsg147
(dp217
sg149
Nsg26
g29
sg150
(lp218
I1
aI7
asg152
Nsg153
VTosefta Menahot 1:7
p219
sg155
(lp220
sg157
g108
sg158
Nsg159
(lp221
I1
aI7
asg161
Nsg162
g219
sg163
(lp222
sg165
g64
sg166
Nsg167
Nsg168
Nsbag2
(g3
g4
Ntp223
Rp224
(dp225
g8
g11
sg146
Nsg147
(dp226
sg149
Nsg26
g29
sg150
(lp227
I1
aI8
asg152
Nsg153
VTosefta Menahot 1:8
p228
sg155
(lp229
sg157
g108
sg158
Nsg159
(lp230
I1
aI8
asg161
Nsg162
g228
sg163
(lp231
sg165
g64
sg166
Nsg167
Nsg168
Nsbag2
(g3
g4
Ntp232
Rp233
(dp234
g8
g11
sg146
Nsg147
(dp235
sg149
Nsg26
g29
sg150
(lp236
I1
aI9
asg152
Nsg153
VTosefta Menahot 1:9
p237
sg155
(lp238
sg157
g108
sg158
Nsg159
(lp239
I1
aI9
asg161
Nsg162
g237
sg163
(lp240
sg165
g64
sg166
Nsg167
Nsg168
Nsbag2
(g3
g4
Ntp241
Rp242
(dp243
g8
g11
sg146
Nsg147
(dp244
sg149
Nsg26
g29
sg150
(lp245
I1
aI10
asg152
Nsg153
VTosefta Menahot 1:10
p246
sg155
(lp247
sg157
g108
sg158
Nsg159
(lp248
I1
aI10
asg161
Nsg162
g246
sg163
(lp249
sg165
g64
sg166
Nsg167
Nsg168
Nsbag2
(g3
g4
Ntp250
Rp251
(dp252
g8
g11
sg146
Nsg147
(dp253
sg149
Nsg26
g29
sg150
(lp254
I2
aI1
asg152
Nsg153
VTosefta Menahot 2:1
p255
sg155
(lp256
sg157
g108
sg158
Nsg159
(lp257
I2
aI1
asg161
Nsg162
g255
sg163
(lp258
sg165
g64
sg166
Nsg167
Nsg168
Nsbag2
(g3
g4
Ntp259
Rp260
(dp261
g8
g11
sg146
Nsg147
(dp262
sg149
Nsg26
g29
sg150
(lp263
I2
aI2
asg152
Nsg153
VTosefta Menahot 2:2
p264
sg155
(lp265
sg157
g108
sg158
Nsg159
(lp266
I2
aI2
asg161
Nsg162
g264
sg163
(lp267
sg165
g64
sg166
Nsg167
Nsg168
Nsbag2
(g3
g4
Ntp268
Rp269
(dp270
g8
g11
sg146
Nsg147
(dp271
sg149
Nsg26
g29
sg150
(lp272
I2
aI3
asg152
Nsg153
VTosefta Menahot 2:3
p273
sg155
(lp274
sg157
g108
sg158
Nsg159
(lp275
I2
aI3
asg161
Nsg162
g273
sg163
(lp276
sg165
g64
sg166
Nsg167
Nsg168
Nsbag2
(g3
g4
Ntp277
Rp278
(dp279
g8
g11
sg146
Nsg147
(dp280
sg149
Nsg26
g29
sg150
(lp281
I2
aI4
asg152
Nsg153
VTosefta Menahot 2:4
p282
sg155
(lp283
sg157
g108
sg158
Nsg159
(lp284
I2
aI4
asg161
Nsg162
g282
sg163
(lp285
sg165
g64
sg166
Nsg167
Nsg168
Nsbag2
(g3
g4
Ntp286
Rp287
(dp288
g8
g11
sg146
Nsg147
(dp289
sg149
Nsg26
g29
sg150
(lp290
I2
aI5
asg152
Nsg153
VTosefta Menahot 2:5
p291
sg155
(lp292
sg157
g108
sg158
Nsg159
(lp293
I2
aI5
asg161
Nsg162
g291
sg163
(lp294
sg165
g64
sg166
Nsg167
Nsg168
Nsbag2
(g3
g4
Ntp295
Rp296
(dp297
g8
g11
sg146
Nsg147
(dp298
sg149
Nsg26
g29
sg150
(lp299
I2
aI6
asg152
Nsg153
VTosefta Menahot 2:6
p300
sg155
(lp301
sg157
g108
sg158
Nsg159
(lp302
I2
aI6
asg161
Nsg162
g300
sg163
(lp303
sg165
g64
sg166
Nsg167
Nsg168
Nsbag2
(g3
g4
Ntp304
Rp305
(dp306
g8
g11
sg146
Nsg147
(dp307
sg149
Nsg26
g29
sg150
(lp308
I3
aI1
asg152
Nsg153
VTosefta Menahot 3:1
p309
sg155
(lp310
sg157
g108
sg158
Nsg159
(lp311
I3
aI1
asg161
Nsg162
g309
sg163
(lp312
sg165
g64
sg166
Nsg167
Nsg168
Nsbag2
(g3
g4
Ntp313
Rp314
(dp315
g8
g11
sg146
Nsg147
(dp316
sg149
Nsg26
g29
sg150
(lp317
I3
aI2
asg152
Nsg153
VTosefta Menahot 3:2
p318
sg155
(lp319
sg157
g108
sg158
Nsg159
(lp320
I3
aI2
asg161
Nsg162
g318
sg163
(lp321
sg165
g64
sg166
Nsg167
Nsg168
Nsbag2
(g3
g4
Ntp322
Rp323
(dp324
g8
g11
sg146
Nsg147
(dp325
sg149
Nsg26
g29
sg150
(lp326
I3
aI3
asg152
Nsg153
VTosefta Menahot 3:3
p327
sg155
(lp328
sg157
g108
sg158
Nsg159
(lp329
I3
aI3
asg161
Nsg162
g327
sg163
(lp330
sg165
g64
sg166
Nsg167
Nsg168
Nsbag2
(g3
g4
Ntp331
Rp332
(dp333
g8
g11
sg146
Nsg147
(dp334
sg149
Nsg26
g29
sg150
(lp335
I3
aI4
asg152
Nsg153
VTosefta Menahot 3:4
p336
sg155
(lp337
sg157
g108
sg158
Nsg159
(lp338
I3
aI4
asg161
Nsg162
g336
sg163
(lp339
sg165
g64
sg166
Nsg167
Nsg168
Nsbag2
(g3
g4
Ntp340
Rp341
(dp342
g8
g11
sg146
Nsg147
(dp343
sg149
Nsg26
g29
sg150
(lp344
I3
aI5
asg152
Nsg153
VTosefta Menahot 3:5
p345
sg155
(lp346
sg157
g108
sg158
Nsg159
(lp347
I3
aI5
asg161
Nsg162
g345
sg163
(lp348
sg165
g64
sg166
Nsg167
Nsg168
Nsbag2
(g3
g4
Ntp349
Rp350
(dp351
g8
g11
sg146
Nsg147
(dp352
sg149
Nsg26
g29
sg150
(lp353
I3
aI6
asg152
Nsg153
VTosefta Menahot 3:6
p354
sg155
(lp355
sg157
g108
sg158
Nsg159
(lp356
I3
aI6
asg161
Nsg162
g354
sg163
(lp357
sg165
g64
sg166
Nsg167
Nsg168
Nsbag2
(g3
g4
Ntp358
Rp359
(dp360
g8
g11
sg146
Nsg147
(dp361
sg149
Nsg26
g29
sg150
(lp362
I3
aI7
asg152
Nsg153
VTosefta Menahot 3:7
p363
sg155
(lp364
sg157
g108
sg158
Nsg159
(lp365
I3
aI7
asg161
Nsg162
g363
sg163
(lp366
sg165
g64
sg166
Nsg167
Nsg168
Nsbag2
(g3
g4
Ntp367
Rp368
(dp369
g8
g11
sg146
Nsg147
(dp370
sg149
Nsg26
g29
sg150
(lp371
I3
aI8
asg152
Nsg153
VTosefta Menahot 3:8
p372
sg155
(lp373
sg157
g108
sg158
Nsg159
(lp374
I3
aI8
asg161
Nsg162
g372
sg163
(lp375
sg165
g64
sg166
Nsg167
Nsg168
Nsbag2
(g3
g4
Ntp376
Rp377
(dp378
g8
g11
sg146
Nsg147
(dp379
sg149
Nsg26
g29
sg150
(lp380
I3
aI9
asg152
Nsg153
VTosefta Menahot 3:9
p381
sg155
(lp382
sg157
g108
sg158
Nsg159
(lp383
I3
aI9
asg161
Nsg162
g381
sg163
(lp384
sg165
g64
sg166
Nsg167
Nsg168
Nsbag2
(g3
g4
Ntp385
Rp386
(dp387
g8
g11
sg146
Nsg147
(dp388
sg149
Nsg26
g29
sg150
(lp389
I3
aI10
asg152
Nsg153
VTosefta Menahot 3:10
p390
sg155
(lp391
sg157
g108
sg158
Nsg159
(lp392
I3
aI10
asg161
Nsg162
g390
sg163
(lp393
sg165
g64
sg166
Nsg167
Nsg168
Nsbag2
(g3
g4
Ntp394
Rp395
(dp396
g8
g11
sg146
Nsg147
(dp397
sg149
Nsg26
g29
sg150
(lp398
I3
aI11
asg152
Nsg153
VTosefta Menahot 3:11
p399
sg155
(lp400
sg157
g108
sg158
Nsg159
(lp401
I3
aI11
asg161
Nsg162
g399
sg163
(lp402
sg165
g64
sg166
Nsg167
Nsg168
Nsbag2
(g3
g4
Ntp403
Rp404
(dp405
g8
g11
sg146
Nsg147
(dp406
sg149
Nsg26
g29
sg150
(lp407
I4
aI1
asg152
Nsg153
VTosefta Menahot 4:1
p408
sg155
(lp409
sg157
g108
sg158
Nsg159
(lp410
I4
aI1
asg161
Nsg162
g408
sg163
(lp411
sg165
g64
sg166
Nsg167
Nsg168
Nsbag2
(g3
g4
Ntp412
Rp413
(dp414
g8
g11
sg146
Nsg147
(dp415
sg149
Nsg26
g29
sg150
(lp416
I4
aI2
asg152
Nsg153
VTosefta Menahot 4:2
p417
sg155
(lp418
sg157
g108
sg158
Nsg159
(lp419
I4
aI2
asg161
Nsg162
g417
sg163
(lp420
sg165
g64
sg166
Nsg167
Nsg168
Nsbag2
(g3
g4
Ntp421
Rp422
(dp423
g8
g11
sg146
Nsg147
(dp424
sg149
Nsg26
g29
sg150
(lp425
I4
aI3
asg152
Nsg153
VTosefta Menahot 4:3
p426
sg155
(lp427
sg157
g108
sg158
Nsg159
(lp428
I4
aI3
asg161
Nsg162
g426
sg163
(lp429
sg165
g64
sg166
Nsg167
Nsg168
Nsbag2
(g3
g4
Ntp430
Rp431
(dp432
g8
g11
sg146
Nsg147
(dp433
sg149
Nsg26
g29
sg150
(lp434
I4
aI4
asg152
Nsg153
VTosefta Menahot 4:4
p435
sg155
(lp436
sg157
g108
sg158
Nsg159
(lp437
I4
aI4
asg161
Nsg162
g435
sg163
(lp438
sg165
g64
sg166
Nsg167
Nsg168
Nsbag2
(g3
g4
Ntp439
Rp440
(dp441
g8
g11
sg146
Nsg147
(dp442
sg149
Nsg26
g29
sg150
(lp443
I4
aI5
asg152
Nsg153
VTosefta Menahot 4:5
p444
sg155
(lp445
sg157
g108
sg158
Nsg159
(lp446
I4
aI5
asg161
Nsg162
g444
sg163
(lp447
sg165
g64
sg166
Nsg167
Nsg168
Nsbag2
(g3
g4
Ntp448
Rp449
(dp450
g8
g11
sg146
Nsg147
(dp451
sg149
Nsg26
g29
sg150
(lp452
I4
aI6
asg152
Nsg153
VTosefta Menahot 4:6
p453
sg155
(lp454
sg157
g108
sg158
Nsg159
(lp455
I4
aI6
asg161
Nsg162
g453
sg163
(lp456
sg165
g64
sg166
Nsg167
Nsg168
Nsbag2
(g3
g4
Ntp457
Rp458
(dp459
g8
g11
sg146
Nsg147
(dp460
sg149
Nsg26
g29
sg150
(lp461
I4
aI7
asg152
Nsg153
VTosefta Menahot 4:7
p462
sg155
(lp463
sg157
g108
sg158
Nsg159
(lp464
I4
aI7
asg161
Nsg162
g462
sg163
(lp465
sg165
g64
sg166
Nsg167
Nsg168
Nsbag2
(g3
g4
Ntp466
Rp467
(dp468
g8
g11
sg146
Nsg147
(dp469
sg149
Nsg26
g29
sg150
(lp470
I4
aI8
asg152
Nsg153
VTosefta Menahot 4:8
p471
sg155
(lp472
sg157
g108
sg158
Nsg159
(lp473
I4
aI8
asg161
Nsg162
g471
sg163
(lp474
sg165
g64
sg166
Nsg167
Nsg168
Nsbag2
(g3
g4
Ntp475
Rp476
(dp477
g8
g11
sg146
Nsg147
(dp478
sg149
Nsg26
g29
sg150
(lp479
I4
aI9
asg152
Nsg153
VTosefta Menahot 4:9
p480
sg155
(lp481
sg157
g108
sg158
Nsg159
(lp482
I4
aI9
asg161
Nsg162
g480
sg163
(lp483
sg165
g64
sg166
Nsg167
Nsg168
Nsbag2
(g3
g4
Ntp484
Rp485
(dp486
g8
g11
sg146
Nsg147
(dp487
sg149
Nsg26
g29
sg150
(lp488
I5
aI1
asg152
Nsg153
VTosefta Menahot 5:1
p489
sg155
(lp490
sg157
g108
sg158
Nsg159
(lp491
I5
aI1
asg161
Nsg162
g489
sg163
(lp492
sg165
g64
sg166
Nsg167
Nsg168
Nsbag2
(g3
g4
Ntp493
Rp494
(dp495
g8
g11
sg146
Nsg147
(dp496
sg149
Nsg26
g29
sg150
(lp497
I5
aI2
asg152
Nsg153
VTosefta Menahot 5:2
p498
sg155
(lp499
sg157
g108
sg158
Nsg159
(lp500
I5
aI2
asg161
Nsg162
g498
sg163
(lp501
sg165
g64
sg166
Nsg167
Nsg168
Nsbag2
(g3
g4
Ntp502
Rp503
(dp504
g8
g11
sg146
Nsg147
(dp505
sg149
Nsg26
g29
sg150
(lp506
I5
aI3
asg152
Nsg153
VTosefta Menahot 5:3
p507
sg155
(lp508
sg157
g108
sg158
Nsg159
(lp509
I5
aI3
asg161
Nsg162
g507
sg163
(lp510
sg165
g64
sg166
Nsg167
Nsg168
Nsbag2
(g3
g4
Ntp511
Rp512
(dp513
g8
g11
sg146
Nsg147
(dp514
sg149
Nsg26
g29
sg150
(lp515
I5
aI4
asg152
Nsg153
VTosefta Menahot 5:4
p516
sg155
(lp517
sg157
g108
sg158
Nsg159
(lp518
I5
aI4
asg161
Nsg162
g516
sg163
(lp519
sg165
g64
sg166
Nsg167
Nsg168
Nsbag2
(g3
g4
Ntp520
Rp521
(dp522
g8
g11
sg146
Nsg147
(dp523
sg149
Nsg26
g29
sg150
(lp524
I5
aI5
asg152
Nsg153
VTosefta Menahot 5:5
p525
sg155
(lp526
sg157
g108
sg158
Nsg159
(lp527
I5
aI5
asg161
Nsg162
g525
sg163
(lp528
sg165
g64
sg166
Nsg167
Nsg168
Nsbag2
(g3
g4
Ntp529
Rp530
(dp531
g8
g11
sg146
Nsg147
(dp532
sg149
Nsg26
g29
sg150
(lp533
I5
aI6
asg152
Nsg153
VTosefta Menahot 5:6
p534
sg155
(lp535
sg157
g108
sg158
Nsg159
(lp536
I5
aI6
asg161
Nsg162
g534
sg163
(lp537
sg165
g64
sg166
Nsg167
Nsg168
Nsbag2
(g3
g4
Ntp538
Rp539
(dp540
g8
g11
sg146
Nsg147
(dp541
sg149
Nsg26
g29
sg150
(lp542
I5
aI7
asg152
Nsg153
VTosefta Menahot 5:7
p543
sg155
(lp544
sg157
g108
sg158
Nsg159
(lp545
I5
aI7
asg161
Nsg162
g543
sg163
(lp546
sg165
g64
sg166
Nsg167
Nsg168
Nsbag2
(g3
g4
Ntp547
Rp548
(dp549
g8
g11
sg146
Nsg147
(dp550
sg149
Nsg26
g29
sg150
(lp551
I5
aI8
asg152
Nsg153
VTosefta Menahot 5:8
p552
sg155
(lp553
sg157
g108
sg158
Nsg159
(lp554
I5
aI8
asg161
Nsg162
g552
sg163
(lp555
sg165
g64
sg166
Nsg167
Nsg168
Nsbag2
(g3
g4
Ntp556
Rp557
(dp558
g8
g11
sg146
Nsg147
(dp559
sg149
Nsg26
g29
sg150
(lp560
I5
aI9
asg152
Nsg153
VTosefta Menahot 5:9
p561
sg155
(lp562
sg157
g108
sg158
Nsg159
(lp563
I5
aI9
asg161
Nsg162
g561
sg163
(lp564
sg165
g64
sg166
Nsg167
Nsg168
Nsbag2
(g3
g4
Ntp565
Rp566
(dp567
g8
g11
sg146
Nsg147
(dp568
sg149
Nsg26
g29
sg150
(lp569
I6
aI1
asg152
Nsg153
VTosefta Menahot 6:1
p570
sg155
(lp571
sg157
g108
sg158
Nsg159
(lp572
I6
aI1
asg161
Nsg162
g570
sg163
(lp573
sg165
g64
sg166
Nsg167
Nsg168
Nsbag2
(g3
g4
Ntp574
Rp575
(dp576
g8
g11
sg146
Nsg147
(dp577
sg149
Nsg26
g29
sg150
(lp578
I6
aI2
asg152
Nsg153
VTosefta Menahot 6:2
p579
sg155
(lp580
sg157
g108
sg158
Nsg159
(lp581
I6
aI2
asg161
Nsg162
g579
sg163
(lp582
sg165
g64
sg166
Nsg167
Nsg168
Nsbag2
(g3
g4
Ntp583
Rp584
(dp585
g8
g11
sg146
Nsg147
(dp586
sg149
Nsg26
g29
sg150
(lp587
I6
aI3
asg152
Nsg153
VTosefta Menahot 6:3
p588
sg155
(lp589
sg157
g108
sg158
Nsg159
(lp590
I6
aI3
asg161
Nsg162
g588
sg163
(lp591
sg165
g64
sg166
Nsg167
Nsg168
Nsbag2
(g3
g4
Ntp592
Rp593
(dp594
g8
g11
sg146
Nsg147
(dp595
sg149
Nsg26
g29
sg150
(lp596
I6
aI4
asg152
Nsg153
VTosefta Menahot 6:4
p597
sg155
(lp598
sg157
g108
sg158
Nsg159
(lp599
I6
aI4
asg161
Nsg162
g597
sg163
(lp600
sg165
g64
sg166
Nsg167
Nsg168
Nsbag2
(g3
g4
Ntp601
Rp602
(dp603
g8
g11
sg146
Nsg147
(dp604
sg149
Nsg26
g29
sg150
(lp605
I6
aI5
asg152
Nsg153
VTosefta Menahot 6:5
p606
sg155
(lp607
sg157
g108
sg158
Nsg159
(lp608
I6
aI5
asg161
Nsg162
g606
sg163
(lp609
sg165
g64
sg166
Nsg167
Nsg168
Nsbag2
(g3
g4
Ntp610
Rp611
(dp612
g8
g11
sg146
Nsg147
(dp613
sg149
Nsg26
g29
sg150
(lp614
I6
aI6
asg152
Nsg153
VTosefta Menahot 6:6
p615
sg155
(lp616
sg157
g108
sg158
Nsg159
(lp617
I6
aI6
asg161
Nsg162
g615
sg163
(lp618
sg165
g64
sg166
Nsg167
Nsg168
Nsbag2
(g3
g4
Ntp619
Rp620
(dp621
g8
g11
sg146
Nsg147
(dp622
sg149
Nsg26
g29
sg150
(lp623
I6
aI7
asg152
Nsg153
VTosefta Menahot 6:7
p624
sg155
(lp625
sg157
g108
sg158
Nsg159
(lp626
I6
aI7
asg161
Nsg162
g624
sg163
(lp627
sg165
g64
sg166
Nsg167
Nsg168
Nsbag2
(g3
g4
Ntp628
Rp629
(dp630
g8
g11
sg146
Nsg147
(dp631
sg149
Nsg26
g29
sg150
(lp632
I7
aI1
asg152
Nsg153
VTosefta Menahot 7:1
p633
sg155
(lp634
sg157
g108
sg158
Nsg159
(lp635
I7
aI1
asg161
Nsg162
g633
sg163
(lp636
sg165
g64
sg166
Nsg167
Nsg168
Nsbag2
(g3
g4
Ntp637
Rp638
(dp639
g8
g11
sg146
Nsg147
(dp640
sg149
Nsg26
g29
sg150
(lp641
I7
aI2
asg152
Nsg153
VTosefta Menahot 7:2
p642
sg155
(lp643
sg157
g108
sg158
Nsg159
(lp644
I7
aI2
asg161
Nsg162
g642
sg163
(lp645
sg165
g64
sg166
Nsg167
Nsg168
Nsbag2
(g3
g4
Ntp646
Rp647
(dp648
g8
g11
sg146
Nsg147
(dp649
sg149
Nsg26
g29
sg150
(lp650
I7
aI3
asg152
Nsg153
VTosefta Menahot 7:3
p651
sg155
(lp652
sg157
g108
sg158
Nsg159
(lp653
I7
aI3
asg161
Nsg162
g651
sg163
(lp654
sg165
g64
sg166
Nsg167
Nsg168
Nsbag2
(g3
g4
Ntp655
Rp656
(dp657
g8
g11
sg146
Nsg147
(dp658
sg149
Nsg26
g29
sg150
(lp659
I7
aI4
asg152
Nsg153
VTosefta Menahot 7:4
p660
sg155
(lp661
sg157
g108
sg158
Nsg159
(lp662
I7
aI4
asg161
Nsg162
g660
sg163
(lp663
sg165
g64
sg166
Nsg167
Nsg168
Nsbag2
(g3
g4
Ntp664
Rp665
(dp666
g8
g11
sg146
Nsg147
(dp667
sg149
Nsg26
g29
sg150
(lp668
I7
aI5
asg152
Nsg153
VTosefta Menahot 7:5
p669
sg155
(lp670
sg157
g108
sg158
Nsg159
(lp671
I7
aI5
asg161
Nsg162
g669
sg163
(lp672
sg165
g64
sg166
Nsg167
Nsg168
Nsbag2
(g3
g4
Ntp673
Rp674
(dp675
g8
g11
sg146
Nsg147
(dp676
sg149
Nsg26
g29
sg150
(lp677
I7
aI6
asg152
Nsg153
VTosefta Menahot 7:6
p678
sg155
(lp679
sg157
g108
sg158
Nsg159
(lp680
I7
aI6
asg161
Nsg162
g678
sg163
(lp681
sg165
g64
sg166
Nsg167
Nsg168
Nsbag2
(g3
g4
Ntp682
Rp683
(dp684
g8
g11
sg146
Nsg147
(dp685
sg149
Nsg26
g29
sg150
(lp686
I7
aI7
asg152
Nsg153
VTosefta Menahot 7:7
p687
sg155
(lp688
sg157
g108
sg158
Nsg159
(lp689
I7
aI7
asg161
Nsg162
g687
sg163
(lp690
sg165
g64
sg166
Nsg167
Nsg168
Nsbag2
(g3
g4
Ntp691
Rp692
(dp693
g8
g11
sg146
Nsg147
(dp694
sg149
Nsg26
g29
sg150
(lp695
I7
aI8
asg152
Nsg153
VTosefta Menahot 7:8
p696
sg155
(lp697
sg157
g108
sg158
Nsg159
(lp698
I7
aI8
asg161
Nsg162
g696
sg163
(lp699
sg165
g64
sg166
Nsg167
Nsg168
Nsbag2
(g3
g4
Ntp700
Rp701
(dp702
g8
g11
sg146
Nsg147
(dp703
sg149
Nsg26
g29
sg150
(lp704
I7
aI9
asg152
Nsg153
VTosefta Menahot 7:9
p705
sg155
(lp706
sg157
g108
sg158
Nsg159
(lp707
I7
aI9
asg161
Nsg162
g705
sg163
(lp708
sg165
g64
sg166
Nsg167
Nsg168
Nsbag2
(g3
g4
Ntp709
Rp710
(dp711
g8
g11
sg146
Nsg147
(dp712
sg149
Nsg26
g29
sg150
(lp713
I7
aI10
asg152
Nsg153
VTosefta Menahot 7:10
p714
sg155
(lp715
sg157
g108
sg158
Nsg159
(lp716
I7
aI10
asg161
Nsg162
g714
sg163
(lp717
sg165
g64
sg166
Nsg167
Nsg168
Nsbag2
(g3
g4
Ntp718
Rp719
(dp720
g8
g11
sg146
Nsg147
(dp721
sg149
Nsg26
g29
sg150
(lp722
I8
aI1
asg152
Nsg153
VTosefta Menahot 8:1
p723
sg155
(lp724
sg157
g108
sg158
Nsg159
(lp725
I8
aI1
asg161
Nsg162
g723
sg163
(lp726
sg165
g64
sg166
Nsg167
Nsg168
Nsbag2
(g3
g4
Ntp727
Rp728
(dp729
g8
g11
sg146
Nsg147
(dp730
sg149
Nsg26
g29
sg150
(lp731
I8
aI2
asg152
Nsg153
VTosefta Menahot 8:2
p732
sg155
(lp733
sg157
g108
sg158
Nsg159
(lp734
I8
aI2
asg161
Nsg162
g732
sg163
(lp735
sg165
g64
sg166
Nsg167
Nsg168
Nsbag2
(g3
g4
Ntp736
Rp737
(dp738
g8
g11
sg146
Nsg147
(dp739
sg149
Nsg26
g29
sg150
(lp740
I8
aI3
asg152
Nsg153
VTosefta Menahot 8:3
p741
sg155
(lp742
sg157
g108
sg158
Nsg159
(lp743
I8
aI3
asg161
Nsg162
g741
sg163
(lp744
sg165
g64
sg166
Nsg167
Nsg168
Nsbag2
(g3
g4
Ntp745
Rp746
(dp747
g8
g11
sg146
Nsg147
(dp748
sg149
Nsg26
g29
sg150
(lp749
I8
aI4
asg152
Nsg153
VTosefta Menahot 8:4
p750
sg155
(lp751
sg157
g108
sg158
Nsg159
(lp752
I8
aI4
asg161
Nsg162
g750
sg163
(lp753
sg165
g64
sg166
Nsg167
Nsg168
Nsbag2
(g3
g4
Ntp754
Rp755
(dp756
g8
g11
sg146
Nsg147
(dp757
sg149
Nsg26
g29
sg150
(lp758
I8
aI5
asg152
Nsg153
VTosefta Menahot 8:5
p759
sg155
(lp760
sg157
g108
sg158
Nsg159
(lp761
I8
aI5
asg161
Nsg162
g759
sg163
(lp762
sg165
g64
sg166
Nsg167
Nsg168
Nsbag2
(g3
g4
Ntp763
Rp764
(dp765
g8
g11
sg146
Nsg147
(dp766
sg149
Nsg26
g29
sg150
(lp767
I8
aI6
asg152
Nsg153
VTosefta Menahot 8:6
p768
sg155
(lp769
sg157
g108
sg158
Nsg159
(lp770
I8
aI6
asg161
Nsg162
g768
sg163
(lp771
sg165
g64
sg166
Nsg167
Nsg168
Nsbag2
(g3
g4
Ntp772
Rp773
(dp774
g8
g11
sg146
Nsg147
(dp775
sg149
Nsg26
g29
sg150
(lp776
I8
aI7
asg152
Nsg153
VTosefta Menahot 8:7
p777
sg155
(lp778
sg157
g108
sg158
Nsg159
(lp779
I8
aI7
asg161
Nsg162
g777
sg163
(lp780
sg165
g64
sg166
Nsg167
Nsg168
Nsbag2
(g3
g4
Ntp781
Rp782
(dp783
g8
g11
sg146
Nsg147
(dp784
sg149
Nsg26
g29
sg150
(lp785
I8
aI8
asg152
Nsg153
VTosefta Menahot 8:8
p786
sg155
(lp787
sg157
g108
sg158
Nsg159
(lp788
I8
aI8
asg161
Nsg162
g786
sg163
(lp789
sg165
g64
sg166
Nsg167
Nsg168
Nsbag2
(g3
g4
Ntp790
Rp791
(dp792
g8
g11
sg146
Nsg147
(dp793
sg149
Nsg26
g29
sg150
(lp794
I8
aI9
asg152
Nsg153
VTosefta Menahot 8:9
p795
sg155
(lp796
sg157
g108
sg158
Nsg159
(lp797
I8
aI9
asg161
Nsg162
g795
sg163
(lp798
sg165
g64
sg166
Nsg167
Nsg168
Nsbag2
(g3
g4
Ntp799
Rp800
(dp801
g8
g11
sg146
Nsg147
(dp802
sg149
Nsg26
g29
sg150
(lp803
I8
aI10
asg152
Nsg153
VTosefta Menahot 8:10
p804
sg155
(lp805
sg157
g108
sg158
Nsg159
(lp806
I8
aI10
asg161
Nsg162
g804
sg163
(lp807
sg165
g64
sg166
Nsg167
Nsg168
Nsbag2
(g3
g4
Ntp808
Rp809
(dp810
g8
g11
sg146
Nsg147
(dp811
sg149
Nsg26
g29
sg150
(lp812
I8
aI11
asg152
Nsg153
VTosefta Menahot 8:11
p813
sg155
(lp814
sg157
g108
sg158
Nsg159
(lp815
I8
aI11
asg161
Nsg162
g813
sg163
(lp816
sg165
g64
sg166
Nsg167
Nsg168
Nsbag2
(g3
g4
Ntp817
Rp818
(dp819
g8
g11
sg146
Nsg147
(dp820
sg149
Nsg26
g29
sg150
(lp821
I8
aI12
asg152
Nsg153
VTosefta Menahot 8:12
p822
sg155
(lp823
sg157
g108
sg158
Nsg159
(lp824
I8
aI12
asg161
Nsg162
g822
sg163
(lp825
sg165
g64
sg166
Nsg167
Nsg168
Nsbag2
(g3
g4
Ntp826
Rp827
(dp828
g8
g11
sg146
Nsg147
(dp829
sg149
Nsg26
g29
sg150
(lp830
I8
aI13
asg152
Nsg153
VTosefta Menahot 8:13
p831
sg155
(lp832
sg157
g108
sg158
Nsg159
(lp833
I8
aI13
asg161
Nsg162
g831
sg163
(lp834
sg165
g64
sg166
Nsg167
Nsg168
Nsbag2
(g3
g4
Ntp835
Rp836
(dp837
g8
g11
sg146
Nsg147
(dp838
sg149
Nsg26
g29
sg150
(lp839
I8
aI14
asg152
Nsg153
VTosefta Menahot 8:14
p840
sg155
(lp841
sg157
g108
sg158
Nsg159
(lp842
I8
aI14
asg161
Nsg162
g840
sg163
(lp843
sg165
g64
sg166
Nsg167
Nsg168
Nsbag2
(g3
g4
Ntp844
Rp845
(dp846
g8
g11
sg146
Nsg147
(dp847
sg149
Nsg26
g29
sg150
(lp848
I9
aI1
asg152
Nsg153
VTosefta Menahot 9:1
p849
sg155
(lp850
sg157
g108
sg158
Nsg159
(lp851
I9
aI1
asg161
Nsg162
g849
sg163
(lp852
sg165
g64
sg166
Nsg167
Nsg168
Nsbag2
(g3
g4
Ntp853
Rp854
(dp855
g8
g11
sg146
Nsg147
(dp856
sg149
Nsg26
g29
sg150
(lp857
I9
aI2
asg152
Nsg153
VTosefta Menahot 9:2
p858
sg155
(lp859
sg157
g108
sg158
Nsg159
(lp860
I9
aI2
asg161
Nsg162
g858
sg163
(lp861
sg165
g64
sg166
Nsg167
Nsg168
Nsbag2
(g3
g4
Ntp862
Rp863
(dp864
g8
g11
sg146
Nsg147
(dp865
sg149
Nsg26
g29
sg150
(lp866
I9
aI3
asg152
Nsg153
VTosefta Menahot 9:3
p867
sg155
(lp868
sg157
g108
sg158
Nsg159
(lp869
I9
aI3
asg161
Nsg162
g867
sg163
(lp870
sg165
g64
sg166
Nsg167
Nsg168
Nsbag2
(g3
g4
Ntp871
Rp872
(dp873
g8
g11
sg146
Nsg147
(dp874
sg149
Nsg26
g29
sg150
(lp875
I9
aI4
asg152
Nsg153
VTosefta Menahot 9:4
p876
sg155
(lp877
sg157
g108
sg158
Nsg159
(lp878
I9
aI4
asg161
Nsg162
g876
sg163
(lp879
sg165
g64
sg166
Nsg167
Nsg168
Nsbag2
(g3
g4
Ntp880
Rp881
(dp882
g8
g11
sg146
Nsg147
(dp883
sg149
Nsg26
g29
sg150
(lp884
I9
aI5
asg152
Nsg153
VTosefta Menahot 9:5
p885
sg155
(lp886
sg157
g108
sg158
Nsg159
(lp887
I9
aI5
asg161
Nsg162
g885
sg163
(lp888
sg165
g64
sg166
Nsg167
Nsg168
Nsbag2
(g3
g4
Ntp889
Rp890
(dp891
g8
g11
sg146
Nsg147
(dp892
sg149
Nsg26
g29
sg150
(lp893
I9
aI6
asg152
Nsg153
VTosefta Menahot 9:6
p894
sg155
(lp895
sg157
g108
sg158
Nsg159
(lp896
I9
aI6
asg161
Nsg162
g894
sg163
(lp897
sg165
g64
sg166
Nsg167
Nsg168
Nsbag2
(g3
g4
Ntp898
Rp899
(dp900
g8
g11
sg146
Nsg147
(dp901
sg149
Nsg26
g29
sg150
(lp902
I9
aI7
asg152
Nsg153
VTosefta Menahot 9:7
p903
sg155
(lp904
sg157
g108
sg158
Nsg159
(lp905
I9
aI7
asg161
Nsg162
g903
sg163
(lp906
sg165
g64
sg166
Nsg167
Nsg168
Nsbag2
(g3
g4
Ntp907
Rp908
(dp909
g8
g11
sg146
Nsg147
(dp910
sg149
Nsg26
g29
sg150
(lp911
I9
aI8
asg152
Nsg153
VTosefta Menahot 9:8
p912
sg155
(lp913
sg157
g108
sg158
Nsg159
(lp914
I9
aI8
asg161
Nsg162
g912
sg163
(lp915
sg165
g64
sg166
Nsg167
Nsg168
Nsbag2
(g3
g4
Ntp916
Rp917
(dp918
g8
g11
sg146
Nsg147
(dp919
sg149
Nsg26
g29
sg150
(lp920
I9
aI9
asg152
Nsg153
VTosefta Menahot 9:9
p921
sg155
(lp922
sg157
g108
sg158
Nsg159
(lp923
I9
aI9
asg161
Nsg162
g921
sg163
(lp924
sg165
g64
sg166
Nsg167
Nsg168
Nsbag2
(g3
g4
Ntp925
Rp926
(dp927
g8
g11
sg146
Nsg147
(dp928
sg149
Nsg26
g29
sg150
(lp929
I9
aI10
asg152
Nsg153
VTosefta Menahot 9:10
p930
sg155
(lp931
sg157
g108
sg158
Nsg159
(lp932
I9
aI10
asg161
Nsg162
g930
sg163
(lp933
sg165
g64
sg166
Nsg167
Nsg168
Nsbag2
(g3
g4
Ntp934
Rp935
(dp936
g8
g11
sg146
Nsg147
(dp937
sg149
Nsg26
g29
sg150
(lp938
I10
aI1
asg152
Nsg153
VTosefta Menahot 10:1
p939
sg155
(lp940
sg157
g108
sg158
Nsg159
(lp941
I10
aI1
asg161
Nsg162
g939
sg163
(lp942
sg165
g64
sg166
Nsg167
Nsg168
Nsbag2
(g3
g4
Ntp943
Rp944
(dp945
g8
g11
sg146
Nsg147
(dp946
sg149
Nsg26
g29
sg150
(lp947
I10
aI2
asg152
Nsg153
VTosefta Menahot 10:2
p948
sg155
(lp949
sg157
g108
sg158
Nsg159
(lp950
I10
aI2
asg161
Nsg162
g948
sg163
(lp951
sg165
g64
sg166
Nsg167
Nsg168
Nsbag2
(g3
g4
Ntp952
Rp953
(dp954
g8
g11
sg146
Nsg147
(dp955
sg149
Nsg26
g29
sg150
(lp956
I10
aI3
asg152
Nsg153
VTosefta Menahot 10:3
p957
sg155
(lp958
sg157
g108
sg158
Nsg159
(lp959
I10
aI3
asg161
Nsg162
g957
sg163
(lp960
sg165
g64
sg166
Nsg167
Nsg168
Nsbag2
(g3
g4
Ntp961
Rp962
(dp963
g8
g11
sg146
Nsg147
(dp964
sg149
Nsg26
g29
sg150
(lp965
I10
aI4
asg152
Nsg153
VTosefta Menahot 10:4
p966
sg155
(lp967
sg157
g108
sg158
Nsg159
(lp968
I10
aI4
asg161
Nsg162
g966
sg163
(lp969
sg165
g64
sg166
Nsg167
Nsg168
Nsbag2
(g3
g4
Ntp970
Rp971
(dp972
g8
g11
sg146
Nsg147
(dp973
sg149
Nsg26
g29
sg150
(lp974
I10
aI5
asg152
Nsg153
VTosefta Menahot 10:5
p975
sg155
(lp976
sg157
g108
sg158
Nsg159
(lp977
I10
aI5
asg161
Nsg162
g975
sg163
(lp978
sg165
g64
sg166
Nsg167
Nsg168
Nsbag2
(g3
g4
Ntp979
Rp980
(dp981
g8
g11
sg146
Nsg147
(dp982
sg149
Nsg26
g29
sg150
(lp983
I10
aI6
asg152
Nsg153
VTosefta Menahot 10:6
p984
sg155
(lp985
sg157
g108
sg158
Nsg159
(lp986
I10
aI6
asg161
Nsg162
g984
sg163
(lp987
sg165
g64
sg166
Nsg167
Nsg168
Nsbag2
(g3
g4
Ntp988
Rp989
(dp990
g8
g11
sg146
Nsg147
(dp991
sg149
Nsg26
g29
sg150
(lp992
I10
aI7
asg152
Nsg153
VTosefta Menahot 10:7
p993
sg155
(lp994
sg157
g108
sg158
Nsg159
(lp995
I10
aI7
asg161
Nsg162
g993
sg163
(lp996
sg165
g64
sg166
Nsg167
Nsg168
Nsbag2
(g3
g4
Ntp997
Rp998
(dp999
g8
g11
sg146
Nsg147
(dp1000
sg149
Nsg26
g29
sg150
(lp1001
I11
aI1
asg152
Nsg153
VTosefta Menahot 11:1
p1002
sg155
(lp1003
sg157
g108
sg158
Nsg159
(lp1004
I11
aI1
asg161
Nsg162
g1002
sg163
(lp1005
sg165
g64
sg166
Nsg167
Nsg168
Nsbag2
(g3
g4
Ntp1006
Rp1007
(dp1008
g8
g11
sg146
Nsg147
(dp1009
sg149
Nsg26
g29
sg150
(lp1010
I11
aI2
asg152
Nsg153
VTosefta Menahot 11:2
p1011
sg155
(lp1012
sg157
g108
sg158
Nsg159
(lp1013
I11
aI2
asg161
Nsg162
g1011
sg163
(lp1014
sg165
g64
sg166
Nsg167
Nsg168
Nsbag2
(g3
g4
Ntp1015
Rp1016
(dp1017
g8
g11
sg146
Nsg147
(dp1018
sg149
Nsg26
g29
sg150
(lp1019
I11
aI3
asg152
Nsg153
VTosefta Menahot 11:3
p1020
sg155
(lp1021
sg157
g108
sg158
Nsg159
(lp1022
I11
aI3
asg161
Nsg162
g1020
sg163
(lp1023
sg165
g64
sg166
Nsg167
Nsg168
Nsbag2
(g3
g4
Ntp1024
Rp1025
(dp1026
g8
g11
sg146
Nsg147
(dp1027
sg149
Nsg26
g29
sg150
(lp1028
I11
aI4
asg152
Nsg153
VTosefta Menahot 11:4
p1029
sg155
(lp1030
sg157
g108
sg158
Nsg159
(lp1031
I11
aI4
asg161
Nsg162
g1029
sg163
(lp1032
sg165
g64
sg166
Nsg167
Nsg168
Nsbag2
(g3
g4
Ntp1033
Rp1034
(dp1035
g8
g11
sg146
Nsg147
(dp1036
sg149
Nsg26
g29
sg150
(lp1037
I11
aI5
asg152
Nsg153
VTosefta Menahot 11:5
p1038
sg155
(lp1039
sg157
g108
sg158
Nsg159
(lp1040
I11
aI5
asg161
Nsg162
g1038
sg163
(lp1041
sg165
g64
sg166
Nsg167
Nsg168
Nsbag2
(g3
g4
Ntp1042
Rp1043
(dp1044
g8
g11
sg146
Nsg147
(dp1045
sg149
Nsg26
g29
sg150
(lp1046
I11
aI6
asg152
Nsg153
VTosefta Menahot 11:6
p1047
sg155
(lp1048
sg157
g108
sg158
Nsg159
(lp1049
I11
aI6
asg161
Nsg162
g1047
sg163
(lp1050
sg165
g64
sg166
Nsg167
Nsg168
Nsbag2
(g3
g4
Ntp1051
Rp1052
(dp1053
g8
g11
sg146
Nsg147
(dp1054
sg149
Nsg26
g29
sg150
(lp1055
I11
aI7
asg152
Nsg153
VTosefta Menahot 11:7
p1056
sg155
(lp1057
sg157
g108
sg158
Nsg159
(lp1058
I11
aI7
asg161
Nsg162
g1056
sg163
(lp1059
sg165
g64
sg166
Nsg167
Nsg168
Nsbag2
(g3
g4
Ntp1060
Rp1061
(dp1062
g8
g11
sg146
Nsg147
(dp1063
sg149
Nsg26
g29
sg150
(lp1064
I11
aI8
asg152
Nsg153
VTosefta Menahot 11:8
p1065
sg155
(lp1066
sg157
g108
sg158
Nsg159
(lp1067
I11
aI8
asg161
Nsg162
g1065
sg163
(lp1068
sg165
g64
sg166
Nsg167
Nsg168
Nsbag2
(g3
g4
Ntp1069
Rp1070
(dp1071
g8
g11
sg146
Nsg147
(dp1072
sg149
Nsg26
g29
sg150
(lp1073
I11
aI9
asg152
Nsg153
VTosefta Menahot 11:9
p1074
sg155
(lp1075
sg157
g108
sg158
Nsg159
(lp1076
I11
aI9
asg161
Nsg162
g1074
sg163
(lp1077
sg165
g64
sg166
Nsg167
Nsg168
Nsbag2
(g3
g4
Ntp1078
Rp1079
(dp1080
g8
g11
sg146
Nsg147
(dp1081
sg149
Nsg26
g29
sg150
(lp1082
I11
aI10
asg152
Nsg153
VTosefta Menahot 11:10
p1083
sg155
(lp1084
sg157
g108
sg158
Nsg159
(lp1085
I11
aI10
asg161
Nsg162
g1083
sg163
(lp1086
sg165
g64
sg166
Nsg167
Nsg168
Nsbag2
(g3
g4
Ntp1087
Rp1088
(dp1089
g8
g11
sg146
Nsg147
(dp1090
sg149
Nsg26
g29
sg150
(lp1091
I12
aI1
asg152
Nsg153
VTosefta Menahot 12:1
p1092
sg155
(lp1093
sg157
g108
sg158
Nsg159
(lp1094
I12
aI1
asg161
Nsg162
g1092
sg163
(lp1095
sg165
g64
sg166
Nsg167
Nsg168
Nsbag2
(g3
g4
Ntp1096
Rp1097
(dp1098
g8
g11
sg146
Nsg147
(dp1099
sg149
Nsg26
g29
sg150
(lp1100
I12
aI2
asg152
Nsg153
VTosefta Menahot 12:2
p1101
sg155
(lp1102
sg157
g108
sg158
Nsg159
(lp1103
I12
aI2
asg161
Nsg162
g1101
sg163
(lp1104
sg165
g64
sg166
Nsg167
Nsg168
Nsbag2
(g3
g4
Ntp1105
Rp1106
(dp1107
g8
g11
sg146
Nsg147
(dp1108
sg149
Nsg26
g29
sg150
(lp1109
I12
aI3
asg152
Nsg153
VTosefta Menahot 12:3
p1110
sg155
(lp1111
sg157
g108
sg158
Nsg159
(lp1112
I12
aI3
asg161
Nsg162
g1110
sg163
(lp1113
sg165
g64
sg166
Nsg167
Nsg168
Nsbag2
(g3
g4
Ntp1114
Rp1115
(dp1116
g8
g11
sg146
Nsg147
(dp1117
sg149
Nsg26
g29
sg150
(lp1118
I12
aI4
asg152
Nsg153
VTosefta Menahot 12:4
p1119
sg155
(lp1120
sg157
g108
sg158
Nsg159
(lp1121
I12
aI4
asg161
Nsg162
g1119
sg163
(lp1122
sg165
g64
sg166
Nsg167
Nsg168
Nsbag2
(g3
g4
Ntp1123
Rp1124
(dp1125
g8
g11
sg146
Nsg147
(dp1126
sg149
Nsg26
g29
sg150
(lp1127
I12
aI5
asg152
Nsg153
VTosefta Menahot 12:5
p1128
sg155
(lp1129
sg157
g108
sg158
Nsg159
(lp1130
I12
aI5
asg161
Nsg162
g1128
sg163
(lp1131
sg165
g64
sg166
Nsg167
Nsg168
Nsbag2
(g3
g4
Ntp1132
Rp1133
(dp1134
g8
g11
sg146
Nsg147
(dp1135
sg149
Nsg26
g29
sg150
(lp1136
I13
aI1
asg152
Nsg153
VTosefta Menahot 13:1
p1137
sg155
(lp1138
sg157
g108
sg158
Nsg159
(lp1139
I13
aI1
asg161
Nsg162
g1137
sg163
(lp1140
sg165
g64
sg166
Nsg167
Nsg168
Nsbag2
(g3
g4
Ntp1141
Rp1142
(dp1143
g8
g11
sg146
Nsg147
(dp1144
sg149
Nsg26
g29
sg150
(lp1145
I13
aI2
asg152
Nsg153
VTosefta Menahot 13:2
p1146
sg155
(lp1147
sg157
g108
sg158
Nsg159
(lp1148
I13
aI2
asg161
Nsg162
g1146
sg163
(lp1149
sg165
g64
sg166
Nsg167
Nsg168
Nsbag2
(g3
g4
Ntp1150
Rp1151
(dp1152
g8
g11
sg146
Nsg147
(dp1153
sg149
Nsg26
g29
sg150
(lp1154
I13
aI3
asg152
Nsg153
VTosefta Menahot 13:3
p1155
sg155
(lp1156
sg157
g108
sg158
Nsg159
(lp1157
I13
aI3
asg161
Nsg162
g1155
sg163
(lp1158
sg165
g64
sg166
Nsg167
Nsg168
Nsbag2
(g3
g4
Ntp1159
Rp1160
(dp1161
g8
g11
sg146
Nsg147
(dp1162
sg149
Nsg26
g29
sg150
(lp1163
I13
aI4
asg152
Nsg153
VTosefta Menahot 13:4
p1164
sg155
(lp1165
sg157
g108
sg158
Nsg159
(lp1166
I13
aI4
asg161
Nsg162
g1164
sg163
(lp1167
sg165
g64
sg166
Nsg167
Nsg168
Nsbag2
(g3
g4
Ntp1168
Rp1169
(dp1170
g8
g11
sg146
Nsg147
(dp1171
sg149
Nsg26
g29
sg150
(lp1172
I13
aI5
asg152
Nsg153
VTosefta Menahot 13:5
p1173
sg155
(lp1174
sg157
g108
sg158
Nsg159
(lp1175
I13
aI5
asg161
Nsg162
g1173
sg163
(lp1176
sg165
g64
sg166
Nsg167
Nsg168
Nsbag2
(g3
g4
Ntp1177
Rp1178
(dp1179
g8
g11
sg146
Nsg147
(dp1180
sg149
Nsg26
g29
sg150
(lp1181
I13
aI6
asg152
Nsg153
VTosefta Menahot 13:6
p1182
sg155
(lp1183
sg157
g108
sg158
Nsg159
(lp1184
I13
aI6
asg161
Nsg162
g1182
sg163
(lp1185
sg165
g64
sg166
Nsg167
Nsg168
Nsbag2
(g3
g4
Ntp1186
Rp1187
(dp1188
g8
g11
sg146
Nsg147
(dp1189
sg149
Nsg26
g29
sg150
(lp1190
I13
aI7
asg152
Nsg153
VTosefta Menahot 13:7
p1191
sg155
(lp1192
sg157
g108
sg158
Nsg159
(lp1193
I13
aI7
asg161
Nsg162
g1191
sg163
(lp1194
sg165
g64
sg166
Nsg167
Nsg168
Nsbag2
(g3
g4
Ntp1195
Rp1196
(dp1197
g8
g11
sg146
Nsg147
(dp1198
sg149
Nsg26
g29
sg150
(lp1199
I13
aI8
asg152
Nsg153
VTosefta Menahot 13:8
p1200
sg155
(lp1201
sg157
g108
sg158
Nsg159
(lp1202
I13
aI8
asg161
Nsg162
g1200
sg163
(lp1203
sg165
g64
sg166
Nsg167
Nsg168
Nsbag2
(g3
g4
Ntp1204
Rp1205
(dp1206
g8
g11
sg146
Nsg147
(dp1207
sg149
Nsg26
g29
sg150
(lp1208
I13
aI9
asg152
Nsg153
VTosefta Menahot 13:9
p1209
sg155
(lp1210
sg157
g108
sg158
Nsg159
(lp1211
I13
aI9
asg161
Nsg162
g1209
sg163
(lp1212
sg165
g64
sg166
Nsg167
Nsg168
Nsbag2
(g3
g4
Ntp1213
Rp1214
(dp1215
g8
g11
sg146
Nsg147
(dp1216
sg149
Nsg26
g29
sg150
(lp1217
I13
aI10
asg152
Nsg153
VTosefta Menahot 13:10
p1218
sg155
(lp1219
sg157
g108
sg158
Nsg159
(lp1220
I13
aI10
asg161
Nsg162
g1218
sg163
(lp1221
sg165
g64
sg166
Nsg167
Nsg168
Nsbag2
(g3
g4
Ntp1222
Rp1223
(dp1224
g8
g11
sg146
Nsg147
(dp1225
sg149
Nsg26
g29
sg150
(lp1226
I13
aI11
asg152
Nsg153
VTosefta Menahot 13:11
p1227
sg155
(lp1228
sg157
g108
sg158
Nsg159
(lp1229
I13
aI11
asg161
Nsg162
g1227
sg163
(lp1230
sg165
g64
sg166
Nsg167
Nsg168
Nsbag2
(g3
g4
Ntp1231
Rp1232
(dp1233
g8
g11
sg146
Nsg147
(dp1234
sg149
Nsg26
g29
sg150
(lp1235
I13
aI12
asg152
Nsg153
VTosefta Menahot 13:12
p1236
sg155
(lp1237
sg157
g108
sg158
Nsg159
(lp1238
I13
aI12
asg161
Nsg162
g1236
sg163
(lp1239
sg165
g64
sg166
Nsg167
Nsg168
Nsbag2
(g3
g4
Ntp1240
Rp1241
(dp1242
g8
g11
sg146
Nsg147
(dp1243
sg149
Nsg26
g29
sg150
(lp1244
I13
aI13
asg152
Nsg153
VTosefta Menahot 13:13
p1245
sg155
(lp1246
sg157
g108
sg158
Nsg159
(lp1247
I13
aI13
asg161
Nsg162
g1245
sg163
(lp1248
sg165
g64
sg166
Nsg167
Nsg168
Nsbag2
(g3
g4
Ntp1249
Rp1250
(dp1251
g8
g11
sg146
Nsg147
(dp1252
sg149
Nsg26
g29
sg150
(lp1253
I13
aI14
asg152
Nsg153
VTosefta Menahot 13:14
p1254
sg155
(lp1255
sg157
g108
sg158
Nsg159
(lp1256
I13
aI14
asg161
Nsg162
g1254
sg163
(lp1257
sg165
g64
sg166
Nsg167
Nsg168
Nsbag2
(g3
g4
Ntp1258
Rp1259
(dp1260
g8
g11
sg146
Nsg147
(dp1261
sg149
Nsg26
g29
sg150
(lp1262
I13
aI15
asg152
Nsg153
VTosefta Menahot 13:15
p1263
sg155
(lp1264
sg157
g108
sg158
Nsg159
(lp1265
I13
aI15
asg161
Nsg162
g1263
sg163
(lp1266
sg165
g64
sg166
Nsg167
Nsg168
Nsbag2
(g3
g4
Ntp1267
Rp1268
(dp1269
g8
g11
sg146
Nsg147
(dp1270
sg149
Nsg26
g29
sg150
(lp1271
I13
aI16
asg152
Nsg153
VTosefta Menahot 13:16
p1272
sg155
(lp1273
sg157
g108
sg158
Nsg159
(lp1274
I13
aI16
asg161
Nsg162
g1272
sg163
(lp1275
sg165
g64
sg166
Nsg167
Nsg168
Nsbag2
(g3
g4
Ntp1276
Rp1277
(dp1278
g8
g11
sg146
Nsg147
(dp1279
sg149
Nsg26
g29
sg150
(lp1280
I13
aI17
asg152
Nsg153
VTosefta Menahot 13:17
p1281
sg155
(lp1282
sg157
g108
sg158
Nsg159
(lp1283
I13
aI17
asg161
Nsg162
g1281
sg163
(lp1284
sg165
g64
sg166
Nsg167
Nsg168
Nsbag2
(g3
g4
Ntp1285
Rp1286
(dp1287
g8
g11
sg146
Nsg147
(dp1288
sg149
Nsg26
g29
sg150
(lp1289
I13
aI18
asg152
Nsg153
VTosefta Menahot 13:18
p1290
sg155
(lp1291
sg157
g108
sg158
Nsg159
(lp1292
I13
aI18
asg161
Nsg162
g1290
sg163
(lp1293
sg165
g64
sg166
Nsg167
Nsg168
Nsbag2
(g3
g4
Ntp1294
Rp1295
(dp1296
g8
g11
sg146
Nsg147
(dp1297
sg149
Nsg26
g29
sg150
(lp1298
I13
aI19
asg152
Nsg153
VTosefta Menahot 13:19
p1299
sg155
(lp1300
sg157
g108
sg158
Nsg159
(lp1301
I13
aI19
asg161
Nsg162
g1299
sg163
(lp1302
sg165
g64
sg166
Nsg167
Nsg168
Nsbag2
(g3
g4
Ntp1303
Rp1304
(dp1305
g8
g11
sg146
Nsg147
(dp1306
sg149
Nsg26
g29
sg150
(lp1307
I13
aI20
asg152
Nsg153
VTosefta Menahot 13:20
p1308
sg155
(lp1309
sg157
g108
sg158
Nsg159
(lp1310
I13
aI20
asg161
Nsg162
g1308
sg163
(lp1311
sg165
g64
sg166
Nsg167
Nsg168
Nsbag2
(g3
g4
Ntp1312
Rp1313
(dp1314
g8
g11
sg146
Nsg147
(dp1315
sg149
Nsg26
g29
sg150
(lp1316
I13
aI21
asg152
Nsg153
VTosefta Menahot 13:21
p1317
sg155
(lp1318
sg157
g108
sg158
Nsg159
(lp1319
I13
aI21
asg161
Nsg162
g1317
sg163
(lp1320
sg165
g64
sg166
Nsg167
Nsg168
Nsbag2
(g3
g4
Ntp1321
Rp1322
(dp1323
g8
g11
sg146
Nsg147
(dp1324
sg149
Nsg26
g29
sg150
(lp1325
I13
aI22
asg152
Nsg153
VTosefta Menahot 13:22
p1326
sg155
(lp1327
sg157
g108
sg158
Nsg159
(lp1328
I13
aI22
asg161
Nsg162
g1326
sg163
(lp1329
sg165
g64
sg166
Nsg167
Nsg168
Nsbag2
(g3
g4
Ntp1330
Rp1331
(dp1332
g8
g11
sg146
Nsg147
(dp1333
sg149
Nsg26
g29
sg150
(lp1334
I13
aI23
asg152
Nsg153
VTosefta Menahot 13:23
p1335
sg155
(lp1336
sg157
g108
sg158
Nsg159
(lp1337
I13
aI23
asg161
Nsg162
g1335
sg163
(lp1338
sg165
g64
sg166
Nsg167
Nsg168
Nsbatp1339
.