((lp0
I0
aI39
aI103
aI125
aI175
aI209
aI254
aI309
aI364
aI430
aI480
aI531
aI574
aI605
aI684
aI754
aI845
aI872
aI978
aI1008
aI1066
aI1097
aI1143
aI1216
aI1315
aI1373
aI1462
aI1507
aI1595
aI1632
aI1673
aI1711
aI1769
aI1866
aI1955
aI1994
aI2014
aI2051
aI2160
aI2238
aI2322
aI2365
aI2441
aI2466
aI2650
aI2710
a(lp1
ccopy_reg
_reconstructor
p2
(csefaria.model.text
Ref
p3
c__builtin__
object
p4
Ntp5
Rp6
(dp7
S'index_node'
p8
g2
(csefaria.model.schema
JaggedArrayNode
p9
g4
Ntp10
Rp11
(dp12
S'_address'
p13
(lp14
VTosefta Megillah
p15
asS'_full_titles'
p16
(dp17
sVnodeType
p18
VJaggedArrayNode
p19
sS'parent'
p20
NsVaddressTypes
p21
(lp22
VInteger
p23
aVInteger
p24
asS'default'
p25
I00
sS'index'
p26
g2
(csefaria.model.text
Index
p27
g4
Ntp28
Rp29
(dp30
S'struct_objs'
p31
(dp32
sS'_id'
p33
g2
(cbson.objectid
ObjectId
p34
g4
Ntp35
Rp36
S'S\x16\x9fw\xfb\xfb\xa2N\x9c\x1ez\xf3'
p37
bsS'pkeys_orig_values'
p38
(dp39
S'title'
p40
VTosefta Megillah
p41
ssS'pubDate'
p42
V1521
p43
sS'transliteratedTitle'
p44
VTosefta Megillah
p45
sS'pubPlace'
p46
VVenice
p47
sS'compPlace'
p48
VTalmudic Israel
p49
sS'enDesc'
p50
VThe Tosefta (Supplement, addition") is a compilation of the Jewish oral law. Opinions differ widely as to when the Tosefta was redacted and how it relates to the Mishnah. However it closely corresponds to the Mishnah in structure and style, with the same divisions for sedarim ("orders") and masekhot ("tractates"). In many ways, the Tosefta acts as a supplement to the Mishnah. It is mainly written in Mishnaic Hebrew, with some Aramaic. Megillah (Scroll) belongs to the second order, Moed (Festivals) and discusses regulations and prescriptions regarding the reading of the scroll of Esther at Purim, and the reading of other passages from the Torah and Neviim in the synagogue. It has three chapters.
p51
sS'order'
p52
(lp53
I10
asS'era'
p54
VT
p55
sS'compDate'
p56
V210
p57
sS'nodes'
p58
g11
sS'errorMargin'
p59
V20
p60
sS'_title'
p61
g41
sS'categories'
p62
(lp63
VTosefta
p64
aVSeder Moed
p65
asS'schema'
p66
(dp67
g18
g19
sg21
g22
sVlengths
p68
(lp69
I3
asVdepth
p70
I2
sVtitles
p71
(lp72
(dp73
Vlang
p74
Ven
p75
sVtext
p76
VTos. Megillah
p77
sa(dp78
Vlang
p79
Ven
p80
sVtext
p81
VTosefta Megilah
p82
sa(dp83
Vlang
p84
Ven
p85
sVtext
p86
VTos. Megilah
p87
sa(dp88
Vlang
p89
Ven
p90
sVtext
p91
VT. Megillah
p92
sa(dp93
Vlang
p94
Vhe
p95
sVtext
p96
V\u05ea\u05d5\u05e1\u05e4\u05ea\u05d0 \u05de\u05d2\u05d9\u05dc\u05d4
p97
sVprimary
p98
I01
sa(dp99
Vlang
p100
Ven
p101
sVtext
p102
VTosefta Megillah
p103
sVprimary
p104
I01
sasVkey
p105
g15
sVsectionNames
p106
(lp107
VChapter
p108
aVTosefta
p109
assbsS'_primary_title'
p110
(dp111
sS'title_group'
p112
g2
(csefaria.model.schema
TitleGroup
p113
g4
Ntp114
Rp115
(dp116
g110
(dp117
S'en'
p118
g103
ssS'titles'
p119
g72
sbsS'_addressTypes'
p120
(lp121
g2
(csefaria.model.schema
AddressInteger
p122
g4
Ntp123
Rp124
(dp125
S'length'
p126
I3
sg52
I0
sbag2
(g122
g4
Ntp127
Rp128
(dp129
g126
Nsg52
I1
sbasS'sharedTitle'
p130
Nsg68
g69
sg70
I2
sS'_full_title'
p131
(dp132
g118
g103
ssS'key'
p133
g15
sS'checkFirst'
p134
NsS'_regexes'
p135
(dp136
sS'_leaf_nodes'
p137
(lp138
sg106
g107
sS'children'
p139
(lp140
sbsS'_range_index'
p141
NsS'_context'
p142
(dp143
sS'_padded'
p144
Nsg26
g29
sS'sections'
p145
(lp146
I1
aI1
asS'_first_spanned_ref'
p147
NsS'tref'
p148
VTosefta Megillah 1:1
p149
sS'_spanned_refs'
p150
(lp151
sS'book'
p152
g103
sS'_range_depth'
p153
NsS'toSections'
p154
(lp155
I1
aI1
asS'_url'
p156
NsS'_normal'
p157
g149
sS'_ranged_refs'
p158
(lp159
sS'type'
p160
g64
sS'_prev'
p161
NsS'_he_normal'
p162
NsS'_next'
p163
Nsbag2
(g3
g4
Ntp164
Rp165
(dp166
g8
g11
sg141
Nsg142
(dp167
sg144
Nsg26
g29
sg145
(lp168
I1
aI2
asg147
Nsg148
VTosefta Megillah 1:2
p169
sg150
(lp170
sg152
g103
sg153
Nsg154
(lp171
I1
aI2
asg156
Nsg157
g169
sg158
(lp172
sg160
g64
sg161
Nsg162
Nsg163
Nsbag2
(g3
g4
Ntp173
Rp174
(dp175
g8
g11
sg141
Nsg142
(dp176
sg144
Nsg26
g29
sg145
(lp177
I1
aI3
asg147
Nsg148
VTosefta Megillah 1:3
p178
sg150
(lp179
sg152
g103
sg153
Nsg154
(lp180
I1
aI3
asg156
Nsg157
g178
sg158
(lp181
sg160
g64
sg161
Nsg162
Nsg163
Nsbag2
(g3
g4
Ntp182
Rp183
(dp184
g8
g11
sg141
Nsg142
(dp185
sg144
Nsg26
g29
sg145
(lp186
I1
aI4
asg147
Nsg148
VTosefta Megillah 1:4
p187
sg150
(lp188
sg152
g103
sg153
Nsg154
(lp189
I1
aI4
asg156
Nsg157
g187
sg158
(lp190
sg160
g64
sg161
Nsg162
Nsg163
Nsbag2
(g3
g4
Ntp191
Rp192
(dp193
g8
g11
sg141
Nsg142
(dp194
sg144
Nsg26
g29
sg145
(lp195
I1
aI5
asg147
Nsg148
VTosefta Megillah 1:5
p196
sg150
(lp197
sg152
g103
sg153
Nsg154
(lp198
I1
aI5
asg156
Nsg157
g196
sg158
(lp199
sg160
g64
sg161
Nsg162
Nsg163
Nsbag2
(g3
g4
Ntp200
Rp201
(dp202
g8
g11
sg141
Nsg142
(dp203
sg144
Nsg26
g29
sg145
(lp204
I1
aI6
asg147
Nsg148
VTosefta Megillah 1:6
p205
sg150
(lp206
sg152
g103
sg153
Nsg154
(lp207
I1
aI6
asg156
Nsg157
g205
sg158
(lp208
sg160
g64
sg161
Nsg162
Nsg163
Nsbag2
(g3
g4
Ntp209
Rp210
(dp211
g8
g11
sg141
Nsg142
(dp212
sg144
Nsg26
g29
sg145
(lp213
I1
aI7
asg147
Nsg148
VTosefta Megillah 1:7
p214
sg150
(lp215
sg152
g103
sg153
Nsg154
(lp216
I1
aI7
asg156
Nsg157
g214
sg158
(lp217
sg160
g64
sg161
Nsg162
Nsg163
Nsbag2
(g3
g4
Ntp218
Rp219
(dp220
g8
g11
sg141
Nsg142
(dp221
sg144
Nsg26
g29
sg145
(lp222
I1
aI8
asg147
Nsg148
VTosefta Megillah 1:8
p223
sg150
(lp224
sg152
g103
sg153
Nsg154
(lp225
I1
aI8
asg156
Nsg157
g223
sg158
(lp226
sg160
g64
sg161
Nsg162
Nsg163
Nsbag2
(g3
g4
Ntp227
Rp228
(dp229
g8
g11
sg141
Nsg142
(dp230
sg144
Nsg26
g29
sg145
(lp231
I1
aI9
asg147
Nsg148
VTosefta Megillah 1:9
p232
sg150
(lp233
sg152
g103
sg153
Nsg154
(lp234
I1
aI9
asg156
Nsg157
g232
sg158
(lp235
sg160
g64
sg161
Nsg162
Nsg163
Nsbag2
(g3
g4
Ntp236
Rp237
(dp238
g8
g11
sg141
Nsg142
(dp239
sg144
Nsg26
g29
sg145
(lp240
I1
aI10
asg147
Nsg148
VTosefta Megillah 1:10
p241
sg150
(lp242
sg152
g103
sg153
Nsg154
(lp243
I1
aI10
asg156
Nsg157
g241
sg158
(lp244
sg160
g64
sg161
Nsg162
Nsg163
Nsbag2
(g3
g4
Ntp245
Rp246
(dp247
g8
g11
sg141
Nsg142
(dp248
sg144
Nsg26
g29
sg145
(lp249
I1
aI11
asg147
Nsg148
VTosefta Megillah 1:11
p250
sg150
(lp251
sg152
g103
sg153
Nsg154
(lp252
I1
aI11
asg156
Nsg157
g250
sg158
(lp253
sg160
g64
sg161
Nsg162
Nsg163
Nsbag2
(g3
g4
Ntp254
Rp255
(dp256
g8
g11
sg141
Nsg142
(dp257
sg144
Nsg26
g29
sg145
(lp258
I1
aI12
asg147
Nsg148
VTosefta Megillah 1:12
p259
sg150
(lp260
sg152
g103
sg153
Nsg154
(lp261
I1
aI12
asg156
Nsg157
g259
sg158
(lp262
sg160
g64
sg161
Nsg162
Nsg163
Nsbag2
(g3
g4
Ntp263
Rp264
(dp265
g8
g11
sg141
Nsg142
(dp266
sg144
Nsg26
g29
sg145
(lp267
I1
aI13
asg147
Nsg148
VTosefta Megillah 1:13
p268
sg150
(lp269
sg152
g103
sg153
Nsg154
(lp270
I1
aI13
asg156
Nsg157
g268
sg158
(lp271
sg160
g64
sg161
Nsg162
Nsg163
Nsbag2
(g3
g4
Ntp272
Rp273
(dp274
g8
g11
sg141
Nsg142
(dp275
sg144
Nsg26
g29
sg145
(lp276
I1
aI14
asg147
Nsg148
VTosefta Megillah 1:14
p277
sg150
(lp278
sg152
g103
sg153
Nsg154
(lp279
I1
aI14
asg156
Nsg157
g277
sg158
(lp280
sg160
g64
sg161
Nsg162
Nsg163
Nsbag2
(g3
g4
Ntp281
Rp282
(dp283
g8
g11
sg141
Nsg142
(dp284
sg144
Nsg26
g29
sg145
(lp285
I2
aI1
asg147
Nsg148
VTosefta Megillah 2:1
p286
sg150
(lp287
sg152
g103
sg153
Nsg154
(lp288
I2
aI1
asg156
Nsg157
g286
sg158
(lp289
sg160
g64
sg161
Nsg162
Nsg163
Nsbag2
(g3
g4
Ntp290
Rp291
(dp292
g8
g11
sg141
Nsg142
(dp293
sg144
Nsg26
g29
sg145
(lp294
I2
aI2
asg147
Nsg148
VTosefta Megillah 2:2
p295
sg150
(lp296
sg152
g103
sg153
Nsg154
(lp297
I2
aI2
asg156
Nsg157
g295
sg158
(lp298
sg160
g64
sg161
Nsg162
Nsg163
Nsbag2
(g3
g4
Ntp299
Rp300
(dp301
g8
g11
sg141
Nsg142
(dp302
sg144
Nsg26
g29
sg145
(lp303
I2
aI3
asg147
Nsg148
VTosefta Megillah 2:3
p304
sg150
(lp305
sg152
g103
sg153
Nsg154
(lp306
I2
aI3
asg156
Nsg157
g304
sg158
(lp307
sg160
g64
sg161
Nsg162
Nsg163
Nsbag2
(g3
g4
Ntp308
Rp309
(dp310
g8
g11
sg141
Nsg142
(dp311
sg144
Nsg26
g29
sg145
(lp312
I2
aI4
asg147
Nsg148
VTosefta Megillah 2:4
p313
sg150
(lp314
sg152
g103
sg153
Nsg154
(lp315
I2
aI4
asg156
Nsg157
g313
sg158
(lp316
sg160
g64
sg161
Nsg162
Nsg163
Nsbag2
(g3
g4
Ntp317
Rp318
(dp319
g8
g11
sg141
Nsg142
(dp320
sg144
Nsg26
g29
sg145
(lp321
I2
aI5
asg147
Nsg148
VTosefta Megillah 2:5
p322
sg150
(lp323
sg152
g103
sg153
Nsg154
(lp324
I2
aI5
asg156
Nsg157
g322
sg158
(lp325
sg160
g64
sg161
Nsg162
Nsg163
Nsbag2
(g3
g4
Ntp326
Rp327
(dp328
g8
g11
sg141
Nsg142
(dp329
sg144
Nsg26
g29
sg145
(lp330
I2
aI6
asg147
Nsg148
VTosefta Megillah 2:6
p331
sg150
(lp332
sg152
g103
sg153
Nsg154
(lp333
I2
aI6
asg156
Nsg157
g331
sg158
(lp334
sg160
g64
sg161
Nsg162
Nsg163
Nsbag2
(g3
g4
Ntp335
Rp336
(dp337
g8
g11
sg141
Nsg142
(dp338
sg144
Nsg26
g29
sg145
(lp339
I2
aI7
asg147
Nsg148
VTosefta Megillah 2:7
p340
sg150
(lp341
sg152
g103
sg153
Nsg154
(lp342
I2
aI7
asg156
Nsg157
g340
sg158
(lp343
sg160
g64
sg161
Nsg162
Nsg163
Nsbag2
(g3
g4
Ntp344
Rp345
(dp346
g8
g11
sg141
Nsg142
(dp347
sg144
Nsg26
g29
sg145
(lp348
I2
aI8
asg147
Nsg148
VTosefta Megillah 2:8
p349
sg150
(lp350
sg152
g103
sg153
Nsg154
(lp351
I2
aI8
asg156
Nsg157
g349
sg158
(lp352
sg160
g64
sg161
Nsg162
Nsg163
Nsbag2
(g3
g4
Ntp353
Rp354
(dp355
g8
g11
sg141
Nsg142
(dp356
sg144
Nsg26
g29
sg145
(lp357
I2
aI9
asg147
Nsg148
VTosefta Megillah 2:9
p358
sg150
(lp359
sg152
g103
sg153
Nsg154
(lp360
I2
aI9
asg156
Nsg157
g358
sg158
(lp361
sg160
g64
sg161
Nsg162
Nsg163
Nsbag2
(g3
g4
Ntp362
Rp363
(dp364
g8
g11
sg141
Nsg142
(dp365
sg144
Nsg26
g29
sg145
(lp366
I2
aI10
asg147
Nsg148
VTosefta Megillah 2:10
p367
sg150
(lp368
sg152
g103
sg153
Nsg154
(lp369
I2
aI10
asg156
Nsg157
g367
sg158
(lp370
sg160
g64
sg161
Nsg162
Nsg163
Nsbag2
(g3
g4
Ntp371
Rp372
(dp373
g8
g11
sg141
Nsg142
(dp374
sg144
Nsg26
g29
sg145
(lp375
I2
aI11
asg147
Nsg148
VTosefta Megillah 2:11
p376
sg150
(lp377
sg152
g103
sg153
Nsg154
(lp378
I2
aI11
asg156
Nsg157
g376
sg158
(lp379
sg160
g64
sg161
Nsg162
Nsg163
Nsbag2
(g3
g4
Ntp380
Rp381
(dp382
g8
g11
sg141
Nsg142
(dp383
sg144
Nsg26
g29
sg145
(lp384
I3
aI1
asg147
Nsg148
VTosefta Megillah 3:1
p385
sg150
(lp386
sg152
g103
sg153
Nsg154
(lp387
I3
aI1
asg156
Nsg157
g385
sg158
(lp388
sg160
g64
sg161
Nsg162
Nsg163
Nsbag2
(g3
g4
Ntp389
Rp390
(dp391
g8
g11
sg141
Nsg142
(dp392
sg144
Nsg26
g29
sg145
(lp393
I3
aI2
asg147
Nsg148
VTosefta Megillah 3:2
p394
sg150
(lp395
sg152
g103
sg153
Nsg154
(lp396
I3
aI2
asg156
Nsg157
g394
sg158
(lp397
sg160
g64
sg161
Nsg162
Nsg163
Nsbag2
(g3
g4
Ntp398
Rp399
(dp400
g8
g11
sg141
Nsg142
(dp401
sg144
Nsg26
g29
sg145
(lp402
I3
aI3
asg147
Nsg148
VTosefta Megillah 3:3
p403
sg150
(lp404
sg152
g103
sg153
Nsg154
(lp405
I3
aI3
asg156
Nsg157
g403
sg158
(lp406
sg160
g64
sg161
Nsg162
Nsg163
Nsbag2
(g3
g4
Ntp407
Rp408
(dp409
g8
g11
sg141
Nsg142
(dp410
sg144
Nsg26
g29
sg145
(lp411
I3
aI4
asg147
Nsg148
VTosefta Megillah 3:4
p412
sg150
(lp413
sg152
g103
sg153
Nsg154
(lp414
I3
aI4
asg156
Nsg157
g412
sg158
(lp415
sg160
g64
sg161
Nsg162
Nsg163
Nsbag2
(g3
g4
Ntp416
Rp417
(dp418
g8
g11
sg141
Nsg142
(dp419
sg144
Nsg26
g29
sg145
(lp420
I3
aI5
asg147
Nsg148
VTosefta Megillah 3:5
p421
sg150
(lp422
sg152
g103
sg153
Nsg154
(lp423
I3
aI5
asg156
Nsg157
g421
sg158
(lp424
sg160
g64
sg161
Nsg162
Nsg163
Nsbag2
(g3
g4
Ntp425
Rp426
(dp427
g8
g11
sg141
Nsg142
(dp428
sg144
Nsg26
g29
sg145
(lp429
I3
aI6
asg147
Nsg148
VTosefta Megillah 3:6
p430
sg150
(lp431
sg152
g103
sg153
Nsg154
(lp432
I3
aI6
asg156
Nsg157
g430
sg158
(lp433
sg160
g64
sg161
Nsg162
Nsg163
Nsbag2
(g3
g4
Ntp434
Rp435
(dp436
g8
g11
sg141
Nsg142
(dp437
sg144
Nsg26
g29
sg145
(lp438
I3
aI7
asg147
Nsg148
VTosefta Megillah 3:7
p439
sg150
(lp440
sg152
g103
sg153
Nsg154
(lp441
I3
aI7
asg156
Nsg157
g439
sg158
(lp442
sg160
g64
sg161
Nsg162
Nsg163
Nsbag2
(g3
g4
Ntp443
Rp444
(dp445
g8
g11
sg141
Nsg142
(dp446
sg144
Nsg26
g29
sg145
(lp447
I3
aI8
asg147
Nsg148
VTosefta Megillah 3:8
p448
sg150
(lp449
sg152
g103
sg153
Nsg154
(lp450
I3
aI8
asg156
Nsg157
g448
sg158
(lp451
sg160
g64
sg161
Nsg162
Nsg163
Nsbag2
(g3
g4
Ntp452
Rp453
(dp454
g8
g11
sg141
Nsg142
(dp455
sg144
Nsg26
g29
sg145
(lp456
I3
aI9
asg147
Nsg148
VTosefta Megillah 3:9
p457
sg150
(lp458
sg152
g103
sg153
Nsg154
(lp459
I3
aI9
asg156
Nsg157
g457
sg158
(lp460
sg160
g64
sg161
Nsg162
Nsg163
Nsbag2
(g3
g4
Ntp461
Rp462
(dp463
g8
g11
sg141
Nsg142
(dp464
sg144
Nsg26
g29
sg145
(lp465
I3
aI10
asg147
Nsg148
VTosefta Megillah 3:10
p466
sg150
(lp467
sg152
g103
sg153
Nsg154
(lp468
I3
aI10
asg156
Nsg157
g466
sg158
(lp469
sg160
g64
sg161
Nsg162
Nsg163
Nsbag2
(g3
g4
Ntp470
Rp471
(dp472
g8
g11
sg141
Nsg142
(dp473
sg144
Nsg26
g29
sg145
(lp474
I3
aI11
asg147
Nsg148
VTosefta Megillah 3:11
p475
sg150
(lp476
sg152
g103
sg153
Nsg154
(lp477
I3
aI11
asg156
Nsg157
g475
sg158
(lp478
sg160
g64
sg161
Nsg162
Nsg163
Nsbag2
(g3
g4
Ntp479
Rp480
(dp481
g8
g11
sg141
Nsg142
(dp482
sg144
Nsg26
g29
sg145
(lp483
I3
aI12
asg147
Nsg148
VTosefta Megillah 3:12
p484
sg150
(lp485
sg152
g103
sg153
Nsg154
(lp486
I3
aI12
asg156
Nsg157
g484
sg158
(lp487
sg160
g64
sg161
Nsg162
Nsg163
Nsbag2
(g3
g4
Ntp488
Rp489
(dp490
g8
g11
sg141
Nsg142
(dp491
sg144
Nsg26
g29
sg145
(lp492
I3
aI13
asg147
Nsg148
VTosefta Megillah 3:13
p493
sg150
(lp494
sg152
g103
sg153
Nsg154
(lp495
I3
aI13
asg156
Nsg157
g493
sg158
(lp496
sg160
g64
sg161
Nsg162
Nsg163
Nsbag2
(g3
g4
Ntp497
Rp498
(dp499
g8
g11
sg141
Nsg142
(dp500
sg144
Nsg26
g29
sg145
(lp501
I3
aI14
asg147
Nsg148
VTosefta Megillah 3:14
p502
sg150
(lp503
sg152
g103
sg153
Nsg154
(lp504
I3
aI14
asg156
Nsg157
g502
sg158
(lp505
sg160
g64
sg161
Nsg162
Nsg163
Nsbag2
(g3
g4
Ntp506
Rp507
(dp508
g8
g11
sg141
Nsg142
(dp509
sg144
Nsg26
g29
sg145
(lp510
I3
aI15
asg147
Nsg148
VTosefta Megillah 3:15
p511
sg150
(lp512
sg152
g103
sg153
Nsg154
(lp513
I3
aI15
asg156
Nsg157
g511
sg158
(lp514
sg160
g64
sg161
Nsg162
Nsg163
Nsbag2
(g3
g4
Ntp515
Rp516
(dp517
g8
g11
sg141
Nsg142
(dp518
sg144
Nsg26
g29
sg145
(lp519
I3
aI16
asg147
Nsg148
VTosefta Megillah 3:16
p520
sg150
(lp521
sg152
g103
sg153
Nsg154
(lp522
I3
aI16
asg156
Nsg157
g520
sg158
(lp523
sg160
g64
sg161
Nsg162
Nsg163
Nsbag2
(g3
g4
Ntp524
Rp525
(dp526
g8
g11
sg141
Nsg142
(dp527
sg144
Nsg26
g29
sg145
(lp528
I3
aI17
asg147
Nsg148
VTosefta Megillah 3:17
p529
sg150
(lp530
sg152
g103
sg153
Nsg154
(lp531
I3
aI17
asg156
Nsg157
g529
sg158
(lp532
sg160
g64
sg161
Nsg162
Nsg163
Nsbag2
(g3
g4
Ntp533
Rp534
(dp535
g8
g11
sg141
Nsg142
(dp536
sg144
Nsg26
g29
sg145
(lp537
I3
aI18
asg147
Nsg148
VTosefta Megillah 3:18
p538
sg150
(lp539
sg152
g103
sg153
Nsg154
(lp540
I3
aI18
asg156
Nsg157
g538
sg158
(lp541
sg160
g64
sg161
Nsg162
Nsg163
Nsbag2
(g3
g4
Ntp542
Rp543
(dp544
g8
g11
sg141
Nsg142
(dp545
sg144
Nsg26
g29
sg145
(lp546
I3
aI19
asg147
Nsg148
VTosefta Megillah 3:19
p547
sg150
(lp548
sg152
g103
sg153
Nsg154
(lp549
I3
aI19
asg156
Nsg157
g547
sg158
(lp550
sg160
g64
sg161
Nsg162
Nsg163
Nsbag2
(g3
g4
Ntp551
Rp552
(dp553
g8
g11
sg141
Nsg142
(dp554
sg144
Nsg26
g29
sg145
(lp555
I3
aI20
asg147
Nsg148
VTosefta Megillah 3:20
p556
sg150
(lp557
sg152
g103
sg153
Nsg154
(lp558
I3
aI20
asg156
Nsg157
g556
sg158
(lp559
sg160
g64
sg161
Nsg162
Nsg163
Nsbag2
(g3
g4
Ntp560
Rp561
(dp562
g8
g11
sg141
Nsg142
(dp563
sg144
Nsg26
g29
sg145
(lp564
I3
aI21
asg147
Nsg148
VTosefta Megillah 3:21
p565
sg150
(lp566
sg152
g103
sg153
Nsg154
(lp567
I3
aI21
asg156
Nsg157
g565
sg158
(lp568
sg160
g64
sg161
Nsg162
Nsg163
Nsbatp569
.