((lp0
I0
aI106
aI184
aI235
aI376
aI462
aI483
aI529
aI606
aI732
aI793
aI908
aI1021
aI1175
aI1204
aI1288
aI1360
aI1471
aI1622
aI1635
aI1810
aI1963
aI2010
aI2103
aI2176
aI2232
aI2276
aI2330
aI2383
aI2406
aI2436
aI2574
aI2641
aI2683
aI2758
aI2866
aI3015
aI3084
aI3126
aI3242
aI3309
aI3341
aI3452
aI3516
aI3557
aI3593
aI3705
aI3774
aI3813
aI3879
aI3979
aI4042
aI4096
aI4116
aI4162
aI4193
aI4284
aI4368
aI4494
aI4526
aI4640
aI4750
aI4823
aI4978
aI5009
aI5091
aI5269
aI5287
aI5324
aI5372
aI5473
aI5566
aI5609
aI5639
aI5674
aI5753
aI5778
aI5802
aI5850
aI5898
aI5949
aI5994
aI6044
aI6095
aI6127
aI6170
aI6229
aI6309
aI6353
aI6402
aI6452
aI6507
aI6620
aI6726
aI6789
aI6816
aI6843
aI6865
aI6898
aI6944
aI6980
aI7029
aI7074
aI7110
aI7141
aI7223
aI7248
aI7284
aI7356
aI7438
aI7512
aI7556
aI7623
aI7648
aI7861
aI7950
aI7986
aI8066
aI8206
aI8295
aI8390
aI8507
aI8570
aI8616
aI8683
aI8719
aI8748
aI8782
aI8814
aI8870
aI8920
aI8976
aI9039
aI9066
aI9114
aI9209
aI9334
aI9365
aI9488
aI9502
aI9518
aI9601
aI9626
aI9668
aI9744
a(lp1
ccopy_reg
_reconstructor
p2
(csefaria.model.text
Ref
p3
c__builtin__
object
p4
Ntp5
Rp6
(dp7
S'index_node'
p8
g2
(csefaria.model.schema
JaggedArrayNode
p9
g4
Ntp10
Rp11
(dp12
S'_address'
p13
(lp14
VTosefta Ohalot
p15
asS'_full_titles'
p16
(dp17
sVnodeType
p18
VJaggedArrayNode
p19
sS'parent'
p20
NsVaddressTypes
p21
(lp22
VInteger
p23
aVInteger
p24
asS'default'
p25
I00
sS'index'
p26
g2
(csefaria.model.text
Index
p27
g4
Ntp28
Rp29
(dp30
S'struct_objs'
p31
(dp32
sS'_id'
p33
g2
(cbson.objectid
ObjectId
p34
g4
Ntp35
Rp36
S'S3\x19;\xfb\xfb\xa2db\x83\xda['
p37
bsS'pkeys_orig_values'
p38
(dp39
S'title'
p40
VTosefta Ohalot
p41
ssS'pubDate'
p42
V1521
p43
sS'transliteratedTitle'
p44
VTosefta Ohalot
p45
sS'pubPlace'
p46
VVenice
p47
sS'compPlace'
p48
VTalmudic Israel
p49
sS'enDesc'
p50
VThe Tosefta (Supplement, addition") is a compilation of the Jewish oral law. Opinions differ widely as to when the Tosefta was redacted and how it relates to the Mishnah. However it closely corresponds to the Mishnah in structure and style, with the same divisions for sedarim ("orders") and masekhot ("tractates"). In many ways, the Tosefta acts as a supplement to the Mishnah. It is mainly written in Mishnaic Hebrew, with some Aramaic. Ohalot (Tents) belongs to the sixth order, Tahorot (Purities) and discusses with the laws of the Zaraath (an unknown skin disease). It has eighteen chapters.
p51
sS'order'
p52
(lp53
I4
asS'era'
p54
VT
p55
sS'compDate'
p56
V210
p57
sS'nodes'
p58
g11
sS'errorMargin'
p59
V20
p60
sS'_title'
p61
g41
sS'categories'
p62
(lp63
VTosefta
p64
aVSeder Toharot
p65
asS'schema'
p66
(dp67
g18
g19
sg21
g22
sVlengths
p68
(lp69
I18
asVdepth
p70
I2
sVtitles
p71
(lp72
(dp73
Vlang
p74
Ven
p75
sVtext
p76
VT. Ohalot
p77
sa(dp78
Vlang
p79
Ven
p80
sVtext
p81
VTos. Ohalot
p82
sa(dp83
Vlang
p84
Ven
p85
sVtext
p86
VTos. Ohalos
p87
sa(dp88
Vlang
p89
Ven
p90
sVtext
p91
VTosefta Ohalos
p92
sa(dp93
Vlang
p94
Vhe
p95
sVtext
p96
V\u05ea\u05d5\u05e1\u05e4\u05ea\u05d0 \u05d0\u05d4\u05dc\u05d5\u05ea
p97
sVprimary
p98
I01
sa(dp99
Vlang
p100
Ven
p101
sVtext
p102
VTosefta Ohalot
p103
sVprimary
p104
I01
sasVkey
p105
g15
sVsectionNames
p106
(lp107
VChapter
p108
aVTosefta
p109
assbsS'_primary_title'
p110
(dp111
sS'title_group'
p112
g2
(csefaria.model.schema
TitleGroup
p113
g4
Ntp114
Rp115
(dp116
g110
(dp117
S'en'
p118
g103
ssS'titles'
p119
g72
sbsS'_addressTypes'
p120
(lp121
g2
(csefaria.model.schema
AddressInteger
p122
g4
Ntp123
Rp124
(dp125
S'length'
p126
I18
sg52
I0
sbag2
(g122
g4
Ntp127
Rp128
(dp129
g126
Nsg52
I1
sbasS'sharedTitle'
p130
Nsg68
g69
sg70
I2
sS'_full_title'
p131
(dp132
g118
g103
ssS'key'
p133
g15
sS'checkFirst'
p134
NsS'_regexes'
p135
(dp136
sS'_leaf_nodes'
p137
(lp138
sg106
g107
sS'children'
p139
(lp140
sbsS'_range_index'
p141
NsS'_context'
p142
(dp143
sS'_padded'
p144
Nsg26
g29
sS'sections'
p145
(lp146
I1
aI1
asS'_first_spanned_ref'
p147
NsS'tref'
p148
VTosefta Ohalot 1:1
p149
sS'_spanned_refs'
p150
(lp151
sS'book'
p152
g103
sS'_range_depth'
p153
NsS'toSections'
p154
(lp155
I1
aI1
asS'_url'
p156
NsS'_normal'
p157
g149
sS'_ranged_refs'
p158
(lp159
sS'type'
p160
g64
sS'_prev'
p161
NsS'_he_normal'
p162
NsS'_next'
p163
Nsbag2
(g3
g4
Ntp164
Rp165
(dp166
g8
g11
sg141
Nsg142
(dp167
sg144
Nsg26
g29
sg145
(lp168
I1
aI2
asg147
Nsg148
VTosefta Ohalot 1:2
p169
sg150
(lp170
sg152
g103
sg153
Nsg154
(lp171
I1
aI2
asg156
Nsg157
g169
sg158
(lp172
sg160
g64
sg161
Nsg162
Nsg163
Nsbag2
(g3
g4
Ntp173
Rp174
(dp175
g8
g11
sg141
Nsg142
(dp176
sg144
Nsg26
g29
sg145
(lp177
I1
aI3
asg147
Nsg148
VTosefta Ohalot 1:3
p178
sg150
(lp179
sg152
g103
sg153
Nsg154
(lp180
I1
aI3
asg156
Nsg157
g178
sg158
(lp181
sg160
g64
sg161
Nsg162
Nsg163
Nsbag2
(g3
g4
Ntp182
Rp183
(dp184
g8
g11
sg141
Nsg142
(dp185
sg144
Nsg26
g29
sg145
(lp186
I2
aI1
asg147
Nsg148
VTosefta Ohalot 2:1
p187
sg150
(lp188
sg152
g103
sg153
Nsg154
(lp189
I2
aI1
asg156
Nsg157
g187
sg158
(lp190
sg160
g64
sg161
Nsg162
Nsg163
Nsbag2
(g3
g4
Ntp191
Rp192
(dp193
g8
g11
sg141
Nsg142
(dp194
sg144
Nsg26
g29
sg145
(lp195
I2
aI2
asg147
Nsg148
VTosefta Ohalot 2:2
p196
sg150
(lp197
sg152
g103
sg153
Nsg154
(lp198
I2
aI2
asg156
Nsg157
g196
sg158
(lp199
sg160
g64
sg161
Nsg162
Nsg163
Nsbag2
(g3
g4
Ntp200
Rp201
(dp202
g8
g11
sg141
Nsg142
(dp203
sg144
Nsg26
g29
sg145
(lp204
I2
aI3
asg147
Nsg148
VTosefta Ohalot 2:3
p205
sg150
(lp206
sg152
g103
sg153
Nsg154
(lp207
I2
aI3
asg156
Nsg157
g205
sg158
(lp208
sg160
g64
sg161
Nsg162
Nsg163
Nsbag2
(g3
g4
Ntp209
Rp210
(dp211
g8
g11
sg141
Nsg142
(dp212
sg144
Nsg26
g29
sg145
(lp213
I2
aI4
asg147
Nsg148
VTosefta Ohalot 2:4
p214
sg150
(lp215
sg152
g103
sg153
Nsg154
(lp216
I2
aI4
asg156
Nsg157
g214
sg158
(lp217
sg160
g64
sg161
Nsg162
Nsg163
Nsbag2
(g3
g4
Ntp218
Rp219
(dp220
g8
g11
sg141
Nsg142
(dp221
sg144
Nsg26
g29
sg145
(lp222
I2
aI5
asg147
Nsg148
VTosefta Ohalot 2:5
p223
sg150
(lp224
sg152
g103
sg153
Nsg154
(lp225
I2
aI5
asg156
Nsg157
g223
sg158
(lp226
sg160
g64
sg161
Nsg162
Nsg163
Nsbag2
(g3
g4
Ntp227
Rp228
(dp229
g8
g11
sg141
Nsg142
(dp230
sg144
Nsg26
g29
sg145
(lp231
I2
aI6
asg147
Nsg148
VTosefta Ohalot 2:6
p232
sg150
(lp233
sg152
g103
sg153
Nsg154
(lp234
I2
aI6
asg156
Nsg157
g232
sg158
(lp235
sg160
g64
sg161
Nsg162
Nsg163
Nsbag2
(g3
g4
Ntp236
Rp237
(dp238
g8
g11
sg141
Nsg142
(dp239
sg144
Nsg26
g29
sg145
(lp240
I3
aI1
asg147
Nsg148
VTosefta Ohalot 3:1
p241
sg150
(lp242
sg152
g103
sg153
Nsg154
(lp243
I3
aI1
asg156
Nsg157
g241
sg158
(lp244
sg160
g64
sg161
Nsg162
Nsg163
Nsbag2
(g3
g4
Ntp245
Rp246
(dp247
g8
g11
sg141
Nsg142
(dp248
sg144
Nsg26
g29
sg145
(lp249
I3
aI2
asg147
Nsg148
VTosefta Ohalot 3:2
p250
sg150
(lp251
sg152
g103
sg153
Nsg154
(lp252
I3
aI2
asg156
Nsg157
g250
sg158
(lp253
sg160
g64
sg161
Nsg162
Nsg163
Nsbag2
(g3
g4
Ntp254
Rp255
(dp256
g8
g11
sg141
Nsg142
(dp257
sg144
Nsg26
g29
sg145
(lp258
I3
aI3
asg147
Nsg148
VTosefta Ohalot 3:3
p259
sg150
(lp260
sg152
g103
sg153
Nsg154
(lp261
I3
aI3
asg156
Nsg157
g259
sg158
(lp262
sg160
g64
sg161
Nsg162
Nsg163
Nsbag2
(g3
g4
Ntp263
Rp264
(dp265
g8
g11
sg141
Nsg142
(dp266
sg144
Nsg26
g29
sg145
(lp267
I3
aI4
asg147
Nsg148
VTosefta Ohalot 3:4
p268
sg150
(lp269
sg152
g103
sg153
Nsg154
(lp270
I3
aI4
asg156
Nsg157
g268
sg158
(lp271
sg160
g64
sg161
Nsg162
Nsg163
Nsbag2
(g3
g4
Ntp272
Rp273
(dp274
g8
g11
sg141
Nsg142
(dp275
sg144
Nsg26
g29
sg145
(lp276
I3
aI5
asg147
Nsg148
VTosefta Ohalot 3:5
p277
sg150
(lp278
sg152
g103
sg153
Nsg154
(lp279
I3
aI5
asg156
Nsg157
g277
sg158
(lp280
sg160
g64
sg161
Nsg162
Nsg163
Nsbag2
(g3
g4
Ntp281
Rp282
(dp283
g8
g11
sg141
Nsg142
(dp284
sg144
Nsg26
g29
sg145
(lp285
I4
aI1
asg147
Nsg148
VTosefta Ohalot 4:1
p286
sg150
(lp287
sg152
g103
sg153
Nsg154
(lp288
I4
aI1
asg156
Nsg157
g286
sg158
(lp289
sg160
g64
sg161
Nsg162
Nsg163
Nsbag2
(g3
g4
Ntp290
Rp291
(dp292
g8
g11
sg141
Nsg142
(dp293
sg144
Nsg26
g29
sg145
(lp294
I4
aI2
asg147
Nsg148
VTosefta Ohalot 4:2
p295
sg150
(lp296
sg152
g103
sg153
Nsg154
(lp297
I4
aI2
asg156
Nsg157
g295
sg158
(lp298
sg160
g64
sg161
Nsg162
Nsg163
Nsbag2
(g3
g4
Ntp299
Rp300
(dp301
g8
g11
sg141
Nsg142
(dp302
sg144
Nsg26
g29
sg145
(lp303
I4
aI3
asg147
Nsg148
VTosefta Ohalot 4:3
p304
sg150
(lp305
sg152
g103
sg153
Nsg154
(lp306
I4
aI3
asg156
Nsg157
g304
sg158
(lp307
sg160
g64
sg161
Nsg162
Nsg163
Nsbag2
(g3
g4
Ntp308
Rp309
(dp310
g8
g11
sg141
Nsg142
(dp311
sg144
Nsg26
g29
sg145
(lp312
I4
aI4
asg147
Nsg148
VTosefta Ohalot 4:4
p313
sg150
(lp314
sg152
g103
sg153
Nsg154
(lp315
I4
aI4
asg156
Nsg157
g313
sg158
(lp316
sg160
g64
sg161
Nsg162
Nsg163
Nsbag2
(g3
g4
Ntp317
Rp318
(dp319
g8
g11
sg141
Nsg142
(dp320
sg144
Nsg26
g29
sg145
(lp321
I4
aI5
asg147
Nsg148
VTosefta Ohalot 4:5
p322
sg150
(lp323
sg152
g103
sg153
Nsg154
(lp324
I4
aI5
asg156
Nsg157
g322
sg158
(lp325
sg160
g64
sg161
Nsg162
Nsg163
Nsbag2
(g3
g4
Ntp326
Rp327
(dp328
g8
g11
sg141
Nsg142
(dp329
sg144
Nsg26
g29
sg145
(lp330
I4
aI6
asg147
Nsg148
VTosefta Ohalot 4:6
p331
sg150
(lp332
sg152
g103
sg153
Nsg154
(lp333
I4
aI6
asg156
Nsg157
g331
sg158
(lp334
sg160
g64
sg161
Nsg162
Nsg163
Nsbag2
(g3
g4
Ntp335
Rp336
(dp337
g8
g11
sg141
Nsg142
(dp338
sg144
Nsg26
g29
sg145
(lp339
I4
aI7
asg147
Nsg148
VTosefta Ohalot 4:7
p340
sg150
(lp341
sg152
g103
sg153
Nsg154
(lp342
I4
aI7
asg156
Nsg157
g340
sg158
(lp343
sg160
g64
sg161
Nsg162
Nsg163
Nsbag2
(g3
g4
Ntp344
Rp345
(dp346
g8
g11
sg141
Nsg142
(dp347
sg144
Nsg26
g29
sg145
(lp348
I5
aI1
asg147
Nsg148
VTosefta Ohalot 5:1
p349
sg150
(lp350
sg152
g103
sg153
Nsg154
(lp351
I5
aI1
asg156
Nsg157
g349
sg158
(lp352
sg160
g64
sg161
Nsg162
Nsg163
Nsbag2
(g3
g4
Ntp353
Rp354
(dp355
g8
g11
sg141
Nsg142
(dp356
sg144
Nsg26
g29
sg145
(lp357
I5
aI2
asg147
Nsg148
VTosefta Ohalot 5:2
p358
sg150
(lp359
sg152
g103
sg153
Nsg154
(lp360
I5
aI2
asg156
Nsg157
g358
sg158
(lp361
sg160
g64
sg161
Nsg162
Nsg163
Nsbag2
(g3
g4
Ntp362
Rp363
(dp364
g8
g11
sg141
Nsg142
(dp365
sg144
Nsg26
g29
sg145
(lp366
I5
aI3
asg147
Nsg148
VTosefta Ohalot 5:3
p367
sg150
(lp368
sg152
g103
sg153
Nsg154
(lp369
I5
aI3
asg156
Nsg157
g367
sg158
(lp370
sg160
g64
sg161
Nsg162
Nsg163
Nsbag2
(g3
g4
Ntp371
Rp372
(dp373
g8
g11
sg141
Nsg142
(dp374
sg144
Nsg26
g29
sg145
(lp375
I5
aI4
asg147
Nsg148
VTosefta Ohalot 5:4
p376
sg150
(lp377
sg152
g103
sg153
Nsg154
(lp378
I5
aI4
asg156
Nsg157
g376
sg158
(lp379
sg160
g64
sg161
Nsg162
Nsg163
Nsbag2
(g3
g4
Ntp380
Rp381
(dp382
g8
g11
sg141
Nsg142
(dp383
sg144
Nsg26
g29
sg145
(lp384
I5
aI5
asg147
Nsg148
VTosefta Ohalot 5:5
p385
sg150
(lp386
sg152
g103
sg153
Nsg154
(lp387
I5
aI5
asg156
Nsg157
g385
sg158
(lp388
sg160
g64
sg161
Nsg162
Nsg163
Nsbag2
(g3
g4
Ntp389
Rp390
(dp391
g8
g11
sg141
Nsg142
(dp392
sg144
Nsg26
g29
sg145
(lp393
I5
aI6
asg147
Nsg148
VTosefta Ohalot 5:6
p394
sg150
(lp395
sg152
g103
sg153
Nsg154
(lp396
I5
aI6
asg156
Nsg157
g394
sg158
(lp397
sg160
g64
sg161
Nsg162
Nsg163
Nsbag2
(g3
g4
Ntp398
Rp399
(dp400
g8
g11
sg141
Nsg142
(dp401
sg144
Nsg26
g29
sg145
(lp402
I5
aI7
asg147
Nsg148
VTosefta Ohalot 5:7
p403
sg150
(lp404
sg152
g103
sg153
Nsg154
(lp405
I5
aI7
asg156
Nsg157
g403
sg158
(lp406
sg160
g64
sg161
Nsg162
Nsg163
Nsbag2
(g3
g4
Ntp407
Rp408
(dp409
g8
g11
sg141
Nsg142
(dp410
sg144
Nsg26
g29
sg145
(lp411
I5
aI8
asg147
Nsg148
VTosefta Ohalot 5:8
p412
sg150
(lp413
sg152
g103
sg153
Nsg154
(lp414
I5
aI8
asg156
Nsg157
g412
sg158
(lp415
sg160
g64
sg161
Nsg162
Nsg163
Nsbag2
(g3
g4
Ntp416
Rp417
(dp418
g8
g11
sg141
Nsg142
(dp419
sg144
Nsg26
g29
sg145
(lp420
I5
aI9
asg147
Nsg148
VTosefta Ohalot 5:9
p421
sg150
(lp422
sg152
g103
sg153
Nsg154
(lp423
I5
aI9
asg156
Nsg157
g421
sg158
(lp424
sg160
g64
sg161
Nsg162
Nsg163
Nsbag2
(g3
g4
Ntp425
Rp426
(dp427
g8
g11
sg141
Nsg142
(dp428
sg144
Nsg26
g29
sg145
(lp429
I5
aI10
asg147
Nsg148
VTosefta Ohalot 5:10
p430
sg150
(lp431
sg152
g103
sg153
Nsg154
(lp432
I5
aI10
asg156
Nsg157
g430
sg158
(lp433
sg160
g64
sg161
Nsg162
Nsg163
Nsbag2
(g3
g4
Ntp434
Rp435
(dp436
g8
g11
sg141
Nsg142
(dp437
sg144
Nsg26
g29
sg145
(lp438
I6
aI1
asg147
Nsg148
VTosefta Ohalot 6:1
p439
sg150
(lp440
sg152
g103
sg153
Nsg154
(lp441
I6
aI1
asg156
Nsg157
g439
sg158
(lp442
sg160
g64
sg161
Nsg162
Nsg163
Nsbag2
(g3
g4
Ntp443
Rp444
(dp445
g8
g11
sg141
Nsg142
(dp446
sg144
Nsg26
g29
sg145
(lp447
I6
aI2
asg147
Nsg148
VTosefta Ohalot 6:2
p448
sg150
(lp449
sg152
g103
sg153
Nsg154
(lp450
I6
aI2
asg156
Nsg157
g448
sg158
(lp451
sg160
g64
sg161
Nsg162
Nsg163
Nsbag2
(g3
g4
Ntp452
Rp453
(dp454
g8
g11
sg141
Nsg142
(dp455
sg144
Nsg26
g29
sg145
(lp456
I6
aI3
asg147
Nsg148
VTosefta Ohalot 6:3
p457
sg150
(lp458
sg152
g103
sg153
Nsg154
(lp459
I6
aI3
asg156
Nsg157
g457
sg158
(lp460
sg160
g64
sg161
Nsg162
Nsg163
Nsbag2
(g3
g4
Ntp461
Rp462
(dp463
g8
g11
sg141
Nsg142
(dp464
sg144
Nsg26
g29
sg145
(lp465
I6
aI4
asg147
Nsg148
VTosefta Ohalot 6:4
p466
sg150
(lp467
sg152
g103
sg153
Nsg154
(lp468
I6
aI4
asg156
Nsg157
g466
sg158
(lp469
sg160
g64
sg161
Nsg162
Nsg163
Nsbag2
(g3
g4
Ntp470
Rp471
(dp472
g8
g11
sg141
Nsg142
(dp473
sg144
Nsg26
g29
sg145
(lp474
I7
aI1
asg147
Nsg148
VTosefta Ohalot 7:1
p475
sg150
(lp476
sg152
g103
sg153
Nsg154
(lp477
I7
aI1
asg156
Nsg157
g475
sg158
(lp478
sg160
g64
sg161
Nsg162
Nsg163
Nsbag2
(g3
g4
Ntp479
Rp480
(dp481
g8
g11
sg141
Nsg142
(dp482
sg144
Nsg26
g29
sg145
(lp483
I7
aI2
asg147
Nsg148
VTosefta Ohalot 7:2
p484
sg150
(lp485
sg152
g103
sg153
Nsg154
(lp486
I7
aI2
asg156
Nsg157
g484
sg158
(lp487
sg160
g64
sg161
Nsg162
Nsg163
Nsbag2
(g3
g4
Ntp488
Rp489
(dp490
g8
g11
sg141
Nsg142
(dp491
sg144
Nsg26
g29
sg145
(lp492
I7
aI3
asg147
Nsg148
VTosefta Ohalot 7:3
p493
sg150
(lp494
sg152
g103
sg153
Nsg154
(lp495
I7
aI3
asg156
Nsg157
g493
sg158
(lp496
sg160
g64
sg161
Nsg162
Nsg163
Nsbag2
(g3
g4
Ntp497
Rp498
(dp499
g8
g11
sg141
Nsg142
(dp500
sg144
Nsg26
g29
sg145
(lp501
I7
aI4
asg147
Nsg148
VTosefta Ohalot 7:4
p502
sg150
(lp503
sg152
g103
sg153
Nsg154
(lp504
I7
aI4
asg156
Nsg157
g502
sg158
(lp505
sg160
g64
sg161
Nsg162
Nsg163
Nsbag2
(g3
g4
Ntp506
Rp507
(dp508
g8
g11
sg141
Nsg142
(dp509
sg144
Nsg26
g29
sg145
(lp510
I7
aI5
asg147
Nsg148
VTosefta Ohalot 7:5
p511
sg150
(lp512
sg152
g103
sg153
Nsg154
(lp513
I7
aI5
asg156
Nsg157
g511
sg158
(lp514
sg160
g64
sg161
Nsg162
Nsg163
Nsbag2
(g3
g4
Ntp515
Rp516
(dp517
g8
g11
sg141
Nsg142
(dp518
sg144
Nsg26
g29
sg145
(lp519
I7
aI6
asg147
Nsg148
VTosefta Ohalot 7:6
p520
sg150
(lp521
sg152
g103
sg153
Nsg154
(lp522
I7
aI6
asg156
Nsg157
g520
sg158
(lp523
sg160
g64
sg161
Nsg162
Nsg163
Nsbag2
(g3
g4
Ntp524
Rp525
(dp526
g8
g11
sg141
Nsg142
(dp527
sg144
Nsg26
g29
sg145
(lp528
I7
aI7
asg147
Nsg148
VTosefta Ohalot 7:7
p529
sg150
(lp530
sg152
g103
sg153
Nsg154
(lp531
I7
aI7
asg156
Nsg157
g529
sg158
(lp532
sg160
g64
sg161
Nsg162
Nsg163
Nsbag2
(g3
g4
Ntp533
Rp534
(dp535
g8
g11
sg141
Nsg142
(dp536
sg144
Nsg26
g29
sg145
(lp537
I7
aI8
asg147
Nsg148
VTosefta Ohalot 7:8
p538
sg150
(lp539
sg152
g103
sg153
Nsg154
(lp540
I7
aI8
asg156
Nsg157
g538
sg158
(lp541
sg160
g64
sg161
Nsg162
Nsg163
Nsbag2
(g3
g4
Ntp542
Rp543
(dp544
g8
g11
sg141
Nsg142
(dp545
sg144
Nsg26
g29
sg145
(lp546
I7
aI9
asg147
Nsg148
VTosefta Ohalot 7:9
p547
sg150
(lp548
sg152
g103
sg153
Nsg154
(lp549
I7
aI9
asg156
Nsg157
g547
sg158
(lp550
sg160
g64
sg161
Nsg162
Nsg163
Nsbag2
(g3
g4
Ntp551
Rp552
(dp553
g8
g11
sg141
Nsg142
(dp554
sg144
Nsg26
g29
sg145
(lp555
I7
aI10
asg147
Nsg148
VTosefta Ohalot 7:10
p556
sg150
(lp557
sg152
g103
sg153
Nsg154
(lp558
I7
aI10
asg156
Nsg157
g556
sg158
(lp559
sg160
g64
sg161
Nsg162
Nsg163
Nsbag2
(g3
g4
Ntp560
Rp561
(dp562
g8
g11
sg141
Nsg142
(dp563
sg144
Nsg26
g29
sg145
(lp564
I7
aI11
asg147
Nsg148
VTosefta Ohalot 7:11
p565
sg150
(lp566
sg152
g103
sg153
Nsg154
(lp567
I7
aI11
asg156
Nsg157
g565
sg158
(lp568
sg160
g64
sg161
Nsg162
Nsg163
Nsbag2
(g3
g4
Ntp569
Rp570
(dp571
g8
g11
sg141
Nsg142
(dp572
sg144
Nsg26
g29
sg145
(lp573
I8
aI1
asg147
Nsg148
VTosefta Ohalot 8:1
p574
sg150
(lp575
sg152
g103
sg153
Nsg154
(lp576
I8
aI1
asg156
Nsg157
g574
sg158
(lp577
sg160
g64
sg161
Nsg162
Nsg163
Nsbag2
(g3
g4
Ntp578
Rp579
(dp580
g8
g11
sg141
Nsg142
(dp581
sg144
Nsg26
g29
sg145
(lp582
I8
aI2
asg147
Nsg148
VTosefta Ohalot 8:2
p583
sg150
(lp584
sg152
g103
sg153
Nsg154
(lp585
I8
aI2
asg156
Nsg157
g583
sg158
(lp586
sg160
g64
sg161
Nsg162
Nsg163
Nsbag2
(g3
g4
Ntp587
Rp588
(dp589
g8
g11
sg141
Nsg142
(dp590
sg144
Nsg26
g29
sg145
(lp591
I8
aI3
asg147
Nsg148
VTosefta Ohalot 8:3
p592
sg150
(lp593
sg152
g103
sg153
Nsg154
(lp594
I8
aI3
asg156
Nsg157
g592
sg158
(lp595
sg160
g64
sg161
Nsg162
Nsg163
Nsbag2
(g3
g4
Ntp596
Rp597
(dp598
g8
g11
sg141
Nsg142
(dp599
sg144
Nsg26
g29
sg145
(lp600
I8
aI4
asg147
Nsg148
VTosefta Ohalot 8:4
p601
sg150
(lp602
sg152
g103
sg153
Nsg154
(lp603
I8
aI4
asg156
Nsg157
g601
sg158
(lp604
sg160
g64
sg161
Nsg162
Nsg163
Nsbag2
(g3
g4
Ntp605
Rp606
(dp607
g8
g11
sg141
Nsg142
(dp608
sg144
Nsg26
g29
sg145
(lp609
I8
aI5
asg147
Nsg148
VTosefta Ohalot 8:5
p610
sg150
(lp611
sg152
g103
sg153
Nsg154
(lp612
I8
aI5
asg156
Nsg157
g610
sg158
(lp613
sg160
g64
sg161
Nsg162
Nsg163
Nsbag2
(g3
g4
Ntp614
Rp615
(dp616
g8
g11
sg141
Nsg142
(dp617
sg144
Nsg26
g29
sg145
(lp618
I8
aI6
asg147
Nsg148
VTosefta Ohalot 8:6
p619
sg150
(lp620
sg152
g103
sg153
Nsg154
(lp621
I8
aI6
asg156
Nsg157
g619
sg158
(lp622
sg160
g64
sg161
Nsg162
Nsg163
Nsbag2
(g3
g4
Ntp623
Rp624
(dp625
g8
g11
sg141
Nsg142
(dp626
sg144
Nsg26
g29
sg145
(lp627
I9
aI1
asg147
Nsg148
VTosefta Ohalot 9:1
p628
sg150
(lp629
sg152
g103
sg153
Nsg154
(lp630
I9
aI1
asg156
Nsg157
g628
sg158
(lp631
sg160
g64
sg161
Nsg162
Nsg163
Nsbag2
(g3
g4
Ntp632
Rp633
(dp634
g8
g11
sg141
Nsg142
(dp635
sg144
Nsg26
g29
sg145
(lp636
I9
aI2
asg147
Nsg148
VTosefta Ohalot 9:2
p637
sg150
(lp638
sg152
g103
sg153
Nsg154
(lp639
I9
aI2
asg156
Nsg157
g637
sg158
(lp640
sg160
g64
sg161
Nsg162
Nsg163
Nsbag2
(g3
g4
Ntp641
Rp642
(dp643
g8
g11
sg141
Nsg142
(dp644
sg144
Nsg26
g29
sg145
(lp645
I9
aI3
asg147
Nsg148
VTosefta Ohalot 9:3
p646
sg150
(lp647
sg152
g103
sg153
Nsg154
(lp648
I9
aI3
asg156
Nsg157
g646
sg158
(lp649
sg160
g64
sg161
Nsg162
Nsg163
Nsbag2
(g3
g4
Ntp650
Rp651
(dp652
g8
g11
sg141
Nsg142
(dp653
sg144
Nsg26
g29
sg145
(lp654
I9
aI4
asg147
Nsg148
VTosefta Ohalot 9:4
p655
sg150
(lp656
sg152
g103
sg153
Nsg154
(lp657
I9
aI4
asg156
Nsg157
g655
sg158
(lp658
sg160
g64
sg161
Nsg162
Nsg163
Nsbag2
(g3
g4
Ntp659
Rp660
(dp661
g8
g11
sg141
Nsg142
(dp662
sg144
Nsg26
g29
sg145
(lp663
I9
aI5
asg147
Nsg148
VTosefta Ohalot 9:5
p664
sg150
(lp665
sg152
g103
sg153
Nsg154
(lp666
I9
aI5
asg156
Nsg157
g664
sg158
(lp667
sg160
g64
sg161
Nsg162
Nsg163
Nsbag2
(g3
g4
Ntp668
Rp669
(dp670
g8
g11
sg141
Nsg142
(dp671
sg144
Nsg26
g29
sg145
(lp672
I9
aI6
asg147
Nsg148
VTosefta Ohalot 9:6
p673
sg150
(lp674
sg152
g103
sg153
Nsg154
(lp675
I9
aI6
asg156
Nsg157
g673
sg158
(lp676
sg160
g64
sg161
Nsg162
Nsg163
Nsbag2
(g3
g4
Ntp677
Rp678
(dp679
g8
g11
sg141
Nsg142
(dp680
sg144
Nsg26
g29
sg145
(lp681
I10
aI1
asg147
Nsg148
VTosefta Ohalot 10:1
p682
sg150
(lp683
sg152
g103
sg153
Nsg154
(lp684
I10
aI1
asg156
Nsg157
g682
sg158
(lp685
sg160
g64
sg161
Nsg162
Nsg163
Nsbag2
(g3
g4
Ntp686
Rp687
(dp688
g8
g11
sg141
Nsg142
(dp689
sg144
Nsg26
g29
sg145
(lp690
I10
aI2
asg147
Nsg148
VTosefta Ohalot 10:2
p691
sg150
(lp692
sg152
g103
sg153
Nsg154
(lp693
I10
aI2
asg156
Nsg157
g691
sg158
(lp694
sg160
g64
sg161
Nsg162
Nsg163
Nsbag2
(g3
g4
Ntp695
Rp696
(dp697
g8
g11
sg141
Nsg142
(dp698
sg144
Nsg26
g29
sg145
(lp699
I10
aI3
asg147
Nsg148
VTosefta Ohalot 10:3
p700
sg150
(lp701
sg152
g103
sg153
Nsg154
(lp702
I10
aI3
asg156
Nsg157
g700
sg158
(lp703
sg160
g64
sg161
Nsg162
Nsg163
Nsbag2
(g3
g4
Ntp704
Rp705
(dp706
g8
g11
sg141
Nsg142
(dp707
sg144
Nsg26
g29
sg145
(lp708
I10
aI4
asg147
Nsg148
VTosefta Ohalot 10:4
p709
sg150
(lp710
sg152
g103
sg153
Nsg154
(lp711
I10
aI4
asg156
Nsg157
g709
sg158
(lp712
sg160
g64
sg161
Nsg162
Nsg163
Nsbag2
(g3
g4
Ntp713
Rp714
(dp715
g8
g11
sg141
Nsg142
(dp716
sg144
Nsg26
g29
sg145
(lp717
I10
aI5
asg147
Nsg148
VTosefta Ohalot 10:5
p718
sg150
(lp719
sg152
g103
sg153
Nsg154
(lp720
I10
aI5
asg156
Nsg157
g718
sg158
(lp721
sg160
g64
sg161
Nsg162
Nsg163
Nsbag2
(g3
g4
Ntp722
Rp723
(dp724
g8
g11
sg141
Nsg142
(dp725
sg144
Nsg26
g29
sg145
(lp726
I10
aI6
asg147
Nsg148
VTosefta Ohalot 10:6
p727
sg150
(lp728
sg152
g103
sg153
Nsg154
(lp729
I10
aI6
asg156
Nsg157
g727
sg158
(lp730
sg160
g64
sg161
Nsg162
Nsg163
Nsbag2
(g3
g4
Ntp731
Rp732
(dp733
g8
g11
sg141
Nsg142
(dp734
sg144
Nsg26
g29
sg145
(lp735
I10
aI7
asg147
Nsg148
VTosefta Ohalot 10:7
p736
sg150
(lp737
sg152
g103
sg153
Nsg154
(lp738
I10
aI7
asg156
Nsg157
g736
sg158
(lp739
sg160
g64
sg161
Nsg162
Nsg163
Nsbag2
(g3
g4
Ntp740
Rp741
(dp742
g8
g11
sg141
Nsg142
(dp743
sg144
Nsg26
g29
sg145
(lp744
I10
aI8
asg147
Nsg148
VTosefta Ohalot 10:8
p745
sg150
(lp746
sg152
g103
sg153
Nsg154
(lp747
I10
aI8
asg156
Nsg157
g745
sg158
(lp748
sg160
g64
sg161
Nsg162
Nsg163
Nsbag2
(g3
g4
Ntp749
Rp750
(dp751
g8
g11
sg141
Nsg142
(dp752
sg144
Nsg26
g29
sg145
(lp753
I11
aI1
asg147
Nsg148
VTosefta Ohalot 11:1
p754
sg150
(lp755
sg152
g103
sg153
Nsg154
(lp756
I11
aI1
asg156
Nsg157
g754
sg158
(lp757
sg160
g64
sg161
Nsg162
Nsg163
Nsbag2
(g3
g4
Ntp758
Rp759
(dp760
g8
g11
sg141
Nsg142
(dp761
sg144
Nsg26
g29
sg145
(lp762
I11
aI2
asg147
Nsg148
VTosefta Ohalot 11:2
p763
sg150
(lp764
sg152
g103
sg153
Nsg154
(lp765
I11
aI2
asg156
Nsg157
g763
sg158
(lp766
sg160
g64
sg161
Nsg162
Nsg163
Nsbag2
(g3
g4
Ntp767
Rp768
(dp769
g8
g11
sg141
Nsg142
(dp770
sg144
Nsg26
g29
sg145
(lp771
I11
aI3
asg147
Nsg148
VTosefta Ohalot 11:3
p772
sg150
(lp773
sg152
g103
sg153
Nsg154
(lp774
I11
aI3
asg156
Nsg157
g772
sg158
(lp775
sg160
g64
sg161
Nsg162
Nsg163
Nsbag2
(g3
g4
Ntp776
Rp777
(dp778
g8
g11
sg141
Nsg142
(dp779
sg144
Nsg26
g29
sg145
(lp780
I11
aI4
asg147
Nsg148
VTosefta Ohalot 11:4
p781
sg150
(lp782
sg152
g103
sg153
Nsg154
(lp783
I11
aI4
asg156
Nsg157
g781
sg158
(lp784
sg160
g64
sg161
Nsg162
Nsg163
Nsbag2
(g3
g4
Ntp785
Rp786
(dp787
g8
g11
sg141
Nsg142
(dp788
sg144
Nsg26
g29
sg145
(lp789
I11
aI5
asg147
Nsg148
VTosefta Ohalot 11:5
p790
sg150
(lp791
sg152
g103
sg153
Nsg154
(lp792
I11
aI5
asg156
Nsg157
g790
sg158
(lp793
sg160
g64
sg161
Nsg162
Nsg163
Nsbag2
(g3
g4
Ntp794
Rp795
(dp796
g8
g11
sg141
Nsg142
(dp797
sg144
Nsg26
g29
sg145
(lp798
I11
aI6
asg147
Nsg148
VTosefta Ohalot 11:6
p799
sg150
(lp800
sg152
g103
sg153
Nsg154
(lp801
I11
aI6
asg156
Nsg157
g799
sg158
(lp802
sg160
g64
sg161
Nsg162
Nsg163
Nsbag2
(g3
g4
Ntp803
Rp804
(dp805
g8
g11
sg141
Nsg142
(dp806
sg144
Nsg26
g29
sg145
(lp807
I11
aI7
asg147
Nsg148
VTosefta Ohalot 11:7
p808
sg150
(lp809
sg152
g103
sg153
Nsg154
(lp810
I11
aI7
asg156
Nsg157
g808
sg158
(lp811
sg160
g64
sg161
Nsg162
Nsg163
Nsbag2
(g3
g4
Ntp812
Rp813
(dp814
g8
g11
sg141
Nsg142
(dp815
sg144
Nsg26
g29
sg145
(lp816
I11
aI8
asg147
Nsg148
VTosefta Ohalot 11:8
p817
sg150
(lp818
sg152
g103
sg153
Nsg154
(lp819
I11
aI8
asg156
Nsg157
g817
sg158
(lp820
sg160
g64
sg161
Nsg162
Nsg163
Nsbag2
(g3
g4
Ntp821
Rp822
(dp823
g8
g11
sg141
Nsg142
(dp824
sg144
Nsg26
g29
sg145
(lp825
I11
aI9
asg147
Nsg148
VTosefta Ohalot 11:9
p826
sg150
(lp827
sg152
g103
sg153
Nsg154
(lp828
I11
aI9
asg156
Nsg157
g826
sg158
(lp829
sg160
g64
sg161
Nsg162
Nsg163
Nsbag2
(g3
g4
Ntp830
Rp831
(dp832
g8
g11
sg141
Nsg142
(dp833
sg144
Nsg26
g29
sg145
(lp834
I11
aI10
asg147
Nsg148
VTosefta Ohalot 11:10
p835
sg150
(lp836
sg152
g103
sg153
Nsg154
(lp837
I11
aI10
asg156
Nsg157
g835
sg158
(lp838
sg160
g64
sg161
Nsg162
Nsg163
Nsbag2
(g3
g4
Ntp839
Rp840
(dp841
g8
g11
sg141
Nsg142
(dp842
sg144
Nsg26
g29
sg145
(lp843
I11
aI11
asg147
Nsg148
VTosefta Ohalot 11:11
p844
sg150
(lp845
sg152
g103
sg153
Nsg154
(lp846
I11
aI11
asg156
Nsg157
g844
sg158
(lp847
sg160
g64
sg161
Nsg162
Nsg163
Nsbag2
(g3
g4
Ntp848
Rp849
(dp850
g8
g11
sg141
Nsg142
(dp851
sg144
Nsg26
g29
sg145
(lp852
I11
aI12
asg147
Nsg148
VTosefta Ohalot 11:12
p853
sg150
(lp854
sg152
g103
sg153
Nsg154
(lp855
I11
aI12
asg156
Nsg157
g853
sg158
(lp856
sg160
g64
sg161
Nsg162
Nsg163
Nsbag2
(g3
g4
Ntp857
Rp858
(dp859
g8
g11
sg141
Nsg142
(dp860
sg144
Nsg26
g29
sg145
(lp861
I11
aI13
asg147
Nsg148
VTosefta Ohalot 11:13
p862
sg150
(lp863
sg152
g103
sg153
Nsg154
(lp864
I11
aI13
asg156
Nsg157
g862
sg158
(lp865
sg160
g64
sg161
Nsg162
Nsg163
Nsbag2
(g3
g4
Ntp866
Rp867
(dp868
g8
g11
sg141
Nsg142
(dp869
sg144
Nsg26
g29
sg145
(lp870
I11
aI14
asg147
Nsg148
VTosefta Ohalot 11:14
p871
sg150
(lp872
sg152
g103
sg153
Nsg154
(lp873
I11
aI14
asg156
Nsg157
g871
sg158
(lp874
sg160
g64
sg161
Nsg162
Nsg163
Nsbag2
(g3
g4
Ntp875
Rp876
(dp877
g8
g11
sg141
Nsg142
(dp878
sg144
Nsg26
g29
sg145
(lp879
I12
aI1
asg147
Nsg148
VTosefta Ohalot 12:1
p880
sg150
(lp881
sg152
g103
sg153
Nsg154
(lp882
I12
aI1
asg156
Nsg157
g880
sg158
(lp883
sg160
g64
sg161
Nsg162
Nsg163
Nsbag2
(g3
g4
Ntp884
Rp885
(dp886
g8
g11
sg141
Nsg142
(dp887
sg144
Nsg26
g29
sg145
(lp888
I12
aI2
asg147
Nsg148
VTosefta Ohalot 12:2
p889
sg150
(lp890
sg152
g103
sg153
Nsg154
(lp891
I12
aI2
asg156
Nsg157
g889
sg158
(lp892
sg160
g64
sg161
Nsg162
Nsg163
Nsbag2
(g3
g4
Ntp893
Rp894
(dp895
g8
g11
sg141
Nsg142
(dp896
sg144
Nsg26
g29
sg145
(lp897
I12
aI3
asg147
Nsg148
VTosefta Ohalot 12:3
p898
sg150
(lp899
sg152
g103
sg153
Nsg154
(lp900
I12
aI3
asg156
Nsg157
g898
sg158
(lp901
sg160
g64
sg161
Nsg162
Nsg163
Nsbag2
(g3
g4
Ntp902
Rp903
(dp904
g8
g11
sg141
Nsg142
(dp905
sg144
Nsg26
g29
sg145
(lp906
I12
aI4
asg147
Nsg148
VTosefta Ohalot 12:4
p907
sg150
(lp908
sg152
g103
sg153
Nsg154
(lp909
I12
aI4
asg156
Nsg157
g907
sg158
(lp910
sg160
g64
sg161
Nsg162
Nsg163
Nsbag2
(g3
g4
Ntp911
Rp912
(dp913
g8
g11
sg141
Nsg142
(dp914
sg144
Nsg26
g29
sg145
(lp915
I12
aI5
asg147
Nsg148
VTosefta Ohalot 12:5
p916
sg150
(lp917
sg152
g103
sg153
Nsg154
(lp918
I12
aI5
asg156
Nsg157
g916
sg158
(lp919
sg160
g64
sg161
Nsg162
Nsg163
Nsbag2
(g3
g4
Ntp920
Rp921
(dp922
g8
g11
sg141
Nsg142
(dp923
sg144
Nsg26
g29
sg145
(lp924
I12
aI6
asg147
Nsg148
VTosefta Ohalot 12:6
p925
sg150
(lp926
sg152
g103
sg153
Nsg154
(lp927
I12
aI6
asg156
Nsg157
g925
sg158
(lp928
sg160
g64
sg161
Nsg162
Nsg163
Nsbag2
(g3
g4
Ntp929
Rp930
(dp931
g8
g11
sg141
Nsg142
(dp932
sg144
Nsg26
g29
sg145
(lp933
I13
aI1
asg147
Nsg148
VTosefta Ohalot 13:1
p934
sg150
(lp935
sg152
g103
sg153
Nsg154
(lp936
I13
aI1
asg156
Nsg157
g934
sg158
(lp937
sg160
g64
sg161
Nsg162
Nsg163
Nsbag2
(g3
g4
Ntp938
Rp939
(dp940
g8
g11
sg141
Nsg142
(dp941
sg144
Nsg26
g29
sg145
(lp942
I13
aI2
asg147
Nsg148
VTosefta Ohalot 13:2
p943
sg150
(lp944
sg152
g103
sg153
Nsg154
(lp945
I13
aI2
asg156
Nsg157
g943
sg158
(lp946
sg160
g64
sg161
Nsg162
Nsg163
Nsbag2
(g3
g4
Ntp947
Rp948
(dp949
g8
g11
sg141
Nsg142
(dp950
sg144
Nsg26
g29
sg145
(lp951
I13
aI3
asg147
Nsg148
VTosefta Ohalot 13:3
p952
sg150
(lp953
sg152
g103
sg153
Nsg154
(lp954
I13
aI3
asg156
Nsg157
g952
sg158
(lp955
sg160
g64
sg161
Nsg162
Nsg163
Nsbag2
(g3
g4
Ntp956
Rp957
(dp958
g8
g11
sg141
Nsg142
(dp959
sg144
Nsg26
g29
sg145
(lp960
I13
aI4
asg147
Nsg148
VTosefta Ohalot 13:4
p961
sg150
(lp962
sg152
g103
sg153
Nsg154
(lp963
I13
aI4
asg156
Nsg157
g961
sg158
(lp964
sg160
g64
sg161
Nsg162
Nsg163
Nsbag2
(g3
g4
Ntp965
Rp966
(dp967
g8
g11
sg141
Nsg142
(dp968
sg144
Nsg26
g29
sg145
(lp969
I13
aI5
asg147
Nsg148
VTosefta Ohalot 13:5
p970
sg150
(lp971
sg152
g103
sg153
Nsg154
(lp972
I13
aI5
asg156
Nsg157
g970
sg158
(lp973
sg160
g64
sg161
Nsg162
Nsg163
Nsbag2
(g3
g4
Ntp974
Rp975
(dp976
g8
g11
sg141
Nsg142
(dp977
sg144
Nsg26
g29
sg145
(lp978
I13
aI6
asg147
Nsg148
VTosefta Ohalot 13:6
p979
sg150
(lp980
sg152
g103
sg153
Nsg154
(lp981
I13
aI6
asg156
Nsg157
g979
sg158
(lp982
sg160
g64
sg161
Nsg162
Nsg163
Nsbag2
(g3
g4
Ntp983
Rp984
(dp985
g8
g11
sg141
Nsg142
(dp986
sg144
Nsg26
g29
sg145
(lp987
I13
aI7
asg147
Nsg148
VTosefta Ohalot 13:7
p988
sg150
(lp989
sg152
g103
sg153
Nsg154
(lp990
I13
aI7
asg156
Nsg157
g988
sg158
(lp991
sg160
g64
sg161
Nsg162
Nsg163
Nsbag2
(g3
g4
Ntp992
Rp993
(dp994
g8
g11
sg141
Nsg142
(dp995
sg144
Nsg26
g29
sg145
(lp996
I13
aI8
asg147
Nsg148
VTosefta Ohalot 13:8
p997
sg150
(lp998
sg152
g103
sg153
Nsg154
(lp999
I13
aI8
asg156
Nsg157
g997
sg158
(lp1000
sg160
g64
sg161
Nsg162
Nsg163
Nsbag2
(g3
g4
Ntp1001
Rp1002
(dp1003
g8
g11
sg141
Nsg142
(dp1004
sg144
Nsg26
g29
sg145
(lp1005
I13
aI9
asg147
Nsg148
VTosefta Ohalot 13:9
p1006
sg150
(lp1007
sg152
g103
sg153
Nsg154
(lp1008
I13
aI9
asg156
Nsg157
g1006
sg158
(lp1009
sg160
g64
sg161
Nsg162
Nsg163
Nsbag2
(g3
g4
Ntp1010
Rp1011
(dp1012
g8
g11
sg141
Nsg142
(dp1013
sg144
Nsg26
g29
sg145
(lp1014
I13
aI10
asg147
Nsg148
VTosefta Ohalot 13:10
p1015
sg150
(lp1016
sg152
g103
sg153
Nsg154
(lp1017
I13
aI10
asg156
Nsg157
g1015
sg158
(lp1018
sg160
g64
sg161
Nsg162
Nsg163
Nsbag2
(g3
g4
Ntp1019
Rp1020
(dp1021
g8
g11
sg141
Nsg142
(dp1022
sg144
Nsg26
g29
sg145
(lp1023
I14
aI1
asg147
Nsg148
VTosefta Ohalot 14:1
p1024
sg150
(lp1025
sg152
g103
sg153
Nsg154
(lp1026
I14
aI1
asg156
Nsg157
g1024
sg158
(lp1027
sg160
g64
sg161
Nsg162
Nsg163
Nsbag2
(g3
g4
Ntp1028
Rp1029
(dp1030
g8
g11
sg141
Nsg142
(dp1031
sg144
Nsg26
g29
sg145
(lp1032
I14
aI2
asg147
Nsg148
VTosefta Ohalot 14:2
p1033
sg150
(lp1034
sg152
g103
sg153
Nsg154
(lp1035
I14
aI2
asg156
Nsg157
g1033
sg158
(lp1036
sg160
g64
sg161
Nsg162
Nsg163
Nsbag2
(g3
g4
Ntp1037
Rp1038
(dp1039
g8
g11
sg141
Nsg142
(dp1040
sg144
Nsg26
g29
sg145
(lp1041
I14
aI3
asg147
Nsg148
VTosefta Ohalot 14:3
p1042
sg150
(lp1043
sg152
g103
sg153
Nsg154
(lp1044
I14
aI3
asg156
Nsg157
g1042
sg158
(lp1045
sg160
g64
sg161
Nsg162
Nsg163
Nsbag2
(g3
g4
Ntp1046
Rp1047
(dp1048
g8
g11
sg141
Nsg142
(dp1049
sg144
Nsg26
g29
sg145
(lp1050
I14
aI4
asg147
Nsg148
VTosefta Ohalot 14:4
p1051
sg150
(lp1052
sg152
g103
sg153
Nsg154
(lp1053
I14
aI4
asg156
Nsg157
g1051
sg158
(lp1054
sg160
g64
sg161
Nsg162
Nsg163
Nsbag2
(g3
g4
Ntp1055
Rp1056
(dp1057
g8
g11
sg141
Nsg142
(dp1058
sg144
Nsg26
g29
sg145
(lp1059
I14
aI5
asg147
Nsg148
VTosefta Ohalot 14:5
p1060
sg150
(lp1061
sg152
g103
sg153
Nsg154
(lp1062
I14
aI5
asg156
Nsg157
g1060
sg158
(lp1063
sg160
g64
sg161
Nsg162
Nsg163
Nsbag2
(g3
g4
Ntp1064
Rp1065
(dp1066
g8
g11
sg141
Nsg142
(dp1067
sg144
Nsg26
g29
sg145
(lp1068
I14
aI6
asg147
Nsg148
VTosefta Ohalot 14:6
p1069
sg150
(lp1070
sg152
g103
sg153
Nsg154
(lp1071
I14
aI6
asg156
Nsg157
g1069
sg158
(lp1072
sg160
g64
sg161
Nsg162
Nsg163
Nsbag2
(g3
g4
Ntp1073
Rp1074
(dp1075
g8
g11
sg141
Nsg142
(dp1076
sg144
Nsg26
g29
sg145
(lp1077
I14
aI7
asg147
Nsg148
VTosefta Ohalot 14:7
p1078
sg150
(lp1079
sg152
g103
sg153
Nsg154
(lp1080
I14
aI7
asg156
Nsg157
g1078
sg158
(lp1081
sg160
g64
sg161
Nsg162
Nsg163
Nsbag2
(g3
g4
Ntp1082
Rp1083
(dp1084
g8
g11
sg141
Nsg142
(dp1085
sg144
Nsg26
g29
sg145
(lp1086
I14
aI8
asg147
Nsg148
VTosefta Ohalot 14:8
p1087
sg150
(lp1088
sg152
g103
sg153
Nsg154
(lp1089
I14
aI8
asg156
Nsg157
g1087
sg158
(lp1090
sg160
g64
sg161
Nsg162
Nsg163
Nsbag2
(g3
g4
Ntp1091
Rp1092
(dp1093
g8
g11
sg141
Nsg142
(dp1094
sg144
Nsg26
g29
sg145
(lp1095
I14
aI9
asg147
Nsg148
VTosefta Ohalot 14:9
p1096
sg150
(lp1097
sg152
g103
sg153
Nsg154
(lp1098
I14
aI9
asg156
Nsg157
g1096
sg158
(lp1099
sg160
g64
sg161
Nsg162
Nsg163
Nsbag2
(g3
g4
Ntp1100
Rp1101
(dp1102
g8
g11
sg141
Nsg142
(dp1103
sg144
Nsg26
g29
sg145
(lp1104
I14
aI10
asg147
Nsg148
VTosefta Ohalot 14:10
p1105
sg150
(lp1106
sg152
g103
sg153
Nsg154
(lp1107
I14
aI10
asg156
Nsg157
g1105
sg158
(lp1108
sg160
g64
sg161
Nsg162
Nsg163
Nsbag2
(g3
g4
Ntp1109
Rp1110
(dp1111
g8
g11
sg141
Nsg142
(dp1112
sg144
Nsg26
g29
sg145
(lp1113
I15
aI1
asg147
Nsg148
VTosefta Ohalot 15:1
p1114
sg150
(lp1115
sg152
g103
sg153
Nsg154
(lp1116
I15
aI1
asg156
Nsg157
g1114
sg158
(lp1117
sg160
g64
sg161
Nsg162
Nsg163
Nsbag2
(g3
g4
Ntp1118
Rp1119
(dp1120
g8
g11
sg141
Nsg142
(dp1121
sg144
Nsg26
g29
sg145
(lp1122
I15
aI2
asg147
Nsg148
VTosefta Ohalot 15:2
p1123
sg150
(lp1124
sg152
g103
sg153
Nsg154
(lp1125
I15
aI2
asg156
Nsg157
g1123
sg158
(lp1126
sg160
g64
sg161
Nsg162
Nsg163
Nsbag2
(g3
g4
Ntp1127
Rp1128
(dp1129
g8
g11
sg141
Nsg142
(dp1130
sg144
Nsg26
g29
sg145
(lp1131
I15
aI3
asg147
Nsg148
VTosefta Ohalot 15:3
p1132
sg150
(lp1133
sg152
g103
sg153
Nsg154
(lp1134
I15
aI3
asg156
Nsg157
g1132
sg158
(lp1135
sg160
g64
sg161
Nsg162
Nsg163
Nsbag2
(g3
g4
Ntp1136
Rp1137
(dp1138
g8
g11
sg141
Nsg142
(dp1139
sg144
Nsg26
g29
sg145
(lp1140
I15
aI4
asg147
Nsg148
VTosefta Ohalot 15:4
p1141
sg150
(lp1142
sg152
g103
sg153
Nsg154
(lp1143
I15
aI4
asg156
Nsg157
g1141
sg158
(lp1144
sg160
g64
sg161
Nsg162
Nsg163
Nsbag2
(g3
g4
Ntp1145
Rp1146
(dp1147
g8
g11
sg141
Nsg142
(dp1148
sg144
Nsg26
g29
sg145
(lp1149
I15
aI5
asg147
Nsg148
VTosefta Ohalot 15:5
p1150
sg150
(lp1151
sg152
g103
sg153
Nsg154
(lp1152
I15
aI5
asg156
Nsg157
g1150
sg158
(lp1153
sg160
g64
sg161
Nsg162
Nsg163
Nsbag2
(g3
g4
Ntp1154
Rp1155
(dp1156
g8
g11
sg141
Nsg142
(dp1157
sg144
Nsg26
g29
sg145
(lp1158
I15
aI6
asg147
Nsg148
VTosefta Ohalot 15:6
p1159
sg150
(lp1160
sg152
g103
sg153
Nsg154
(lp1161
I15
aI6
asg156
Nsg157
g1159
sg158
(lp1162
sg160
g64
sg161
Nsg162
Nsg163
Nsbag2
(g3
g4
Ntp1163
Rp1164
(dp1165
g8
g11
sg141
Nsg142
(dp1166
sg144
Nsg26
g29
sg145
(lp1167
I15
aI7
asg147
Nsg148
VTosefta Ohalot 15:7
p1168
sg150
(lp1169
sg152
g103
sg153
Nsg154
(lp1170
I15
aI7
asg156
Nsg157
g1168
sg158
(lp1171
sg160
g64
sg161
Nsg162
Nsg163
Nsbag2
(g3
g4
Ntp1172
Rp1173
(dp1174
g8
g11
sg141
Nsg142
(dp1175
sg144
Nsg26
g29
sg145
(lp1176
I15
aI8
asg147
Nsg148
VTosefta Ohalot 15:8
p1177
sg150
(lp1178
sg152
g103
sg153
Nsg154
(lp1179
I15
aI8
asg156
Nsg157
g1177
sg158
(lp1180
sg160
g64
sg161
Nsg162
Nsg163
Nsbag2
(g3
g4
Ntp1181
Rp1182
(dp1183
g8
g11
sg141
Nsg142
(dp1184
sg144
Nsg26
g29
sg145
(lp1185
I15
aI9
asg147
Nsg148
VTosefta Ohalot 15:9
p1186
sg150
(lp1187
sg152
g103
sg153
Nsg154
(lp1188
I15
aI9
asg156
Nsg157
g1186
sg158
(lp1189
sg160
g64
sg161
Nsg162
Nsg163
Nsbag2
(g3
g4
Ntp1190
Rp1191
(dp1192
g8
g11
sg141
Nsg142
(dp1193
sg144
Nsg26
g29
sg145
(lp1194
I15
aI10
asg147
Nsg148
VTosefta Ohalot 15:10
p1195
sg150
(lp1196
sg152
g103
sg153
Nsg154
(lp1197
I15
aI10
asg156
Nsg157
g1195
sg158
(lp1198
sg160
g64
sg161
Nsg162
Nsg163
Nsbag2
(g3
g4
Ntp1199
Rp1200
(dp1201
g8
g11
sg141
Nsg142
(dp1202
sg144
Nsg26
g29
sg145
(lp1203
I16
aI1
asg147
Nsg148
VTosefta Ohalot 16:1
p1204
sg150
(lp1205
sg152
g103
sg153
Nsg154
(lp1206
I16
aI1
asg156
Nsg157
g1204
sg158
(lp1207
sg160
g64
sg161
Nsg162
Nsg163
Nsbag2
(g3
g4
Ntp1208
Rp1209
(dp1210
g8
g11
sg141
Nsg142
(dp1211
sg144
Nsg26
g29
sg145
(lp1212
I16
aI2
asg147
Nsg148
VTosefta Ohalot 16:2
p1213
sg150
(lp1214
sg152
g103
sg153
Nsg154
(lp1215
I16
aI2
asg156
Nsg157
g1213
sg158
(lp1216
sg160
g64
sg161
Nsg162
Nsg163
Nsbag2
(g3
g4
Ntp1217
Rp1218
(dp1219
g8
g11
sg141
Nsg142
(dp1220
sg144
Nsg26
g29
sg145
(lp1221
I16
aI3
asg147
Nsg148
VTosefta Ohalot 16:3
p1222
sg150
(lp1223
sg152
g103
sg153
Nsg154
(lp1224
I16
aI3
asg156
Nsg157
g1222
sg158
(lp1225
sg160
g64
sg161
Nsg162
Nsg163
Nsbag2
(g3
g4
Ntp1226
Rp1227
(dp1228
g8
g11
sg141
Nsg142
(dp1229
sg144
Nsg26
g29
sg145
(lp1230
I16
aI4
asg147
Nsg148
VTosefta Ohalot 16:4
p1231
sg150
(lp1232
sg152
g103
sg153
Nsg154
(lp1233
I16
aI4
asg156
Nsg157
g1231
sg158
(lp1234
sg160
g64
sg161
Nsg162
Nsg163
Nsbag2
(g3
g4
Ntp1235
Rp1236
(dp1237
g8
g11
sg141
Nsg142
(dp1238
sg144
Nsg26
g29
sg145
(lp1239
I16
aI5
asg147
Nsg148
VTosefta Ohalot 16:5
p1240
sg150
(lp1241
sg152
g103
sg153
Nsg154
(lp1242
I16
aI5
asg156
Nsg157
g1240
sg158
(lp1243
sg160
g64
sg161
Nsg162
Nsg163
Nsbag2
(g3
g4
Ntp1244
Rp1245
(dp1246
g8
g11
sg141
Nsg142
(dp1247
sg144
Nsg26
g29
sg145
(lp1248
I16
aI6
asg147
Nsg148
VTosefta Ohalot 16:6
p1249
sg150
(lp1250
sg152
g103
sg153
Nsg154
(lp1251
I16
aI6
asg156
Nsg157
g1249
sg158
(lp1252
sg160
g64
sg161
Nsg162
Nsg163
Nsbag2
(g3
g4
Ntp1253
Rp1254
(dp1255
g8
g11
sg141
Nsg142
(dp1256
sg144
Nsg26
g29
sg145
(lp1257
I16
aI7
asg147
Nsg148
VTosefta Ohalot 16:7
p1258
sg150
(lp1259
sg152
g103
sg153
Nsg154
(lp1260
I16
aI7
asg156
Nsg157
g1258
sg158
(lp1261
sg160
g64
sg161
Nsg162
Nsg163
Nsbag2
(g3
g4
Ntp1262
Rp1263
(dp1264
g8
g11
sg141
Nsg142
(dp1265
sg144
Nsg26
g29
sg145
(lp1266
I17
aI1
asg147
Nsg148
VTosefta Ohalot 17:1
p1267
sg150
(lp1268
sg152
g103
sg153
Nsg154
(lp1269
I17
aI1
asg156
Nsg157
g1267
sg158
(lp1270
sg160
g64
sg161
Nsg162
Nsg163
Nsbag2
(g3
g4
Ntp1271
Rp1272
(dp1273
g8
g11
sg141
Nsg142
(dp1274
sg144
Nsg26
g29
sg145
(lp1275
I17
aI2
asg147
Nsg148
VTosefta Ohalot 17:2
p1276
sg150
(lp1277
sg152
g103
sg153
Nsg154
(lp1278
I17
aI2
asg156
Nsg157
g1276
sg158
(lp1279
sg160
g64
sg161
Nsg162
Nsg163
Nsbag2
(g3
g4
Ntp1280
Rp1281
(dp1282
g8
g11
sg141
Nsg142
(dp1283
sg144
Nsg26
g29
sg145
(lp1284
I17
aI3
asg147
Nsg148
VTosefta Ohalot 17:3
p1285
sg150
(lp1286
sg152
g103
sg153
Nsg154
(lp1287
I17
aI3
asg156
Nsg157
g1285
sg158
(lp1288
sg160
g64
sg161
Nsg162
Nsg163
Nsbag2
(g3
g4
Ntp1289
Rp1290
(dp1291
g8
g11
sg141
Nsg142
(dp1292
sg144
Nsg26
g29
sg145
(lp1293
I17
aI4
asg147
Nsg148
VTosefta Ohalot 17:4
p1294
sg150
(lp1295
sg152
g103
sg153
Nsg154
(lp1296
I17
aI4
asg156
Nsg157
g1294
sg158
(lp1297
sg160
g64
sg161
Nsg162
Nsg163
Nsbag2
(g3
g4
Ntp1298
Rp1299
(dp1300
g8
g11
sg141
Nsg142
(dp1301
sg144
Nsg26
g29
sg145
(lp1302
I17
aI5
asg147
Nsg148
VTosefta Ohalot 17:5
p1303
sg150
(lp1304
sg152
g103
sg153
Nsg154
(lp1305
I17
aI5
asg156
Nsg157
g1303
sg158
(lp1306
sg160
g64
sg161
Nsg162
Nsg163
Nsbag2
(g3
g4
Ntp1307
Rp1308
(dp1309
g8
g11
sg141
Nsg142
(dp1310
sg144
Nsg26
g29
sg145
(lp1311
I17
aI6
asg147
Nsg148
VTosefta Ohalot 17:6
p1312
sg150
(lp1313
sg152
g103
sg153
Nsg154
(lp1314
I17
aI6
asg156
Nsg157
g1312
sg158
(lp1315
sg160
g64
sg161
Nsg162
Nsg163
Nsbag2
(g3
g4
Ntp1316
Rp1317
(dp1318
g8
g11
sg141
Nsg142
(dp1319
sg144
Nsg26
g29
sg145
(lp1320
I17
aI7
asg147
Nsg148
VTosefta Ohalot 17:7
p1321
sg150
(lp1322
sg152
g103
sg153
Nsg154
(lp1323
I17
aI7
asg156
Nsg157
g1321
sg158
(lp1324
sg160
g64
sg161
Nsg162
Nsg163
Nsbag2
(g3
g4
Ntp1325
Rp1326
(dp1327
g8
g11
sg141
Nsg142
(dp1328
sg144
Nsg26
g29
sg145
(lp1329
I17
aI8
asg147
Nsg148
VTosefta Ohalot 17:8
p1330
sg150
(lp1331
sg152
g103
sg153
Nsg154
(lp1332
I17
aI8
asg156
Nsg157
g1330
sg158
(lp1333
sg160
g64
sg161
Nsg162
Nsg163
Nsbag2
(g3
g4
Ntp1334
Rp1335
(dp1336
g8
g11
sg141
Nsg142
(dp1337
sg144
Nsg26
g29
sg145
(lp1338
I17
aI9
asg147
Nsg148
VTosefta Ohalot 17:9
p1339
sg150
(lp1340
sg152
g103
sg153
Nsg154
(lp1341
I17
aI9
asg156
Nsg157
g1339
sg158
(lp1342
sg160
g64
sg161
Nsg162
Nsg163
Nsbag2
(g3
g4
Ntp1343
Rp1344
(dp1345
g8
g11
sg141
Nsg142
(dp1346
sg144
Nsg26
g29
sg145
(lp1347
I17
aI10
asg147
Nsg148
VTosefta Ohalot 17:10
p1348
sg150
(lp1349
sg152
g103
sg153
Nsg154
(lp1350
I17
aI10
asg156
Nsg157
g1348
sg158
(lp1351
sg160
g64
sg161
Nsg162
Nsg163
Nsbag2
(g3
g4
Ntp1352
Rp1353
(dp1354
g8
g11
sg141
Nsg142
(dp1355
sg144
Nsg26
g29
sg145
(lp1356
I17
aI11
asg147
Nsg148
VTosefta Ohalot 17:11
p1357
sg150
(lp1358
sg152
g103
sg153
Nsg154
(lp1359
I17
aI11
asg156
Nsg157
g1357
sg158
(lp1360
sg160
g64
sg161
Nsg162
Nsg163
Nsbag2
(g3
g4
Ntp1361
Rp1362
(dp1363
g8
g11
sg141
Nsg142
(dp1364
sg144
Nsg26
g29
sg145
(lp1365
I17
aI12
asg147
Nsg148
VTosefta Ohalot 17:12
p1366
sg150
(lp1367
sg152
g103
sg153
Nsg154
(lp1368
I17
aI12
asg156
Nsg157
g1366
sg158
(lp1369
sg160
g64
sg161
Nsg162
Nsg163
Nsbag2
(g3
g4
Ntp1370
Rp1371
(dp1372
g8
g11
sg141
Nsg142
(dp1373
sg144
Nsg26
g29
sg145
(lp1374
I18
aI1
asg147
Nsg148
VTosefta Ohalot 18:1
p1375
sg150
(lp1376
sg152
g103
sg153
Nsg154
(lp1377
I18
aI1
asg156
Nsg157
g1375
sg158
(lp1378
sg160
g64
sg161
Nsg162
Nsg163
Nsbag2
(g3
g4
Ntp1379
Rp1380
(dp1381
g8
g11
sg141
Nsg142
(dp1382
sg144
Nsg26
g29
sg145
(lp1383
I18
aI2
asg147
Nsg148
VTosefta Ohalot 18:2
p1384
sg150
(lp1385
sg152
g103
sg153
Nsg154
(lp1386
I18
aI2
asg156
Nsg157
g1384
sg158
(lp1387
sg160
g64
sg161
Nsg162
Nsg163
Nsbag2
(g3
g4
Ntp1388
Rp1389
(dp1390
g8
g11
sg141
Nsg142
(dp1391
sg144
Nsg26
g29
sg145
(lp1392
I18
aI3
asg147
Nsg148
VTosefta Ohalot 18:3
p1393
sg150
(lp1394
sg152
g103
sg153
Nsg154
(lp1395
I18
aI3
asg156
Nsg157
g1393
sg158
(lp1396
sg160
g64
sg161
Nsg162
Nsg163
Nsbag2
(g3
g4
Ntp1397
Rp1398
(dp1399
g8
g11
sg141
Nsg142
(dp1400
sg144
Nsg26
g29
sg145
(lp1401
I18
aI4
asg147
Nsg148
VTosefta Ohalot 18:4
p1402
sg150
(lp1403
sg152
g103
sg153
Nsg154
(lp1404
I18
aI4
asg156
Nsg157
g1402
sg158
(lp1405
sg160
g64
sg161
Nsg162
Nsg163
Nsbag2
(g3
g4
Ntp1406
Rp1407
(dp1408
g8
g11
sg141
Nsg142
(dp1409
sg144
Nsg26
g29
sg145
(lp1410
I18
aI5
asg147
Nsg148
VTosefta Ohalot 18:5
p1411
sg150
(lp1412
sg152
g103
sg153
Nsg154
(lp1413
I18
aI5
asg156
Nsg157
g1411
sg158
(lp1414
sg160
g64
sg161
Nsg162
Nsg163
Nsbag2
(g3
g4
Ntp1415
Rp1416
(dp1417
g8
g11
sg141
Nsg142
(dp1418
sg144
Nsg26
g29
sg145
(lp1419
I18
aI6
asg147
Nsg148
VTosefta Ohalot 18:6
p1420
sg150
(lp1421
sg152
g103
sg153
Nsg154
(lp1422
I18
aI6
asg156
Nsg157
g1420
sg158
(lp1423
sg160
g64
sg161
Nsg162
Nsg163
Nsbag2
(g3
g4
Ntp1424
Rp1425
(dp1426
g8
g11
sg141
Nsg142
(dp1427
sg144
Nsg26
g29
sg145
(lp1428
I18
aI7
asg147
Nsg148
VTosefta Ohalot 18:7
p1429
sg150
(lp1430
sg152
g103
sg153
Nsg154
(lp1431
I18
aI7
asg156
Nsg157
g1429
sg158
(lp1432
sg160
g64
sg161
Nsg162
Nsg163
Nsbag2
(g3
g4
Ntp1433
Rp1434
(dp1435
g8
g11
sg141
Nsg142
(dp1436
sg144
Nsg26
g29
sg145
(lp1437
I18
aI8
asg147
Nsg148
VTosefta Ohalot 18:8
p1438
sg150
(lp1439
sg152
g103
sg153
Nsg154
(lp1440
I18
aI8
asg156
Nsg157
g1438
sg158
(lp1441
sg160
g64
sg161
Nsg162
Nsg163
Nsbag2
(g3
g4
Ntp1442
Rp1443
(dp1444
g8
g11
sg141
Nsg142
(dp1445
sg144
Nsg26
g29
sg145
(lp1446
I18
aI9
asg147
Nsg148
VTosefta Ohalot 18:9
p1447
sg150
(lp1448
sg152
g103
sg153
Nsg154
(lp1449
I18
aI9
asg156
Nsg157
g1447
sg158
(lp1450
sg160
g64
sg161
Nsg162
Nsg163
Nsbag2
(g3
g4
Ntp1451
Rp1452
(dp1453
g8
g11
sg141
Nsg142
(dp1454
sg144
Nsg26
g29
sg145
(lp1455
I18
aI10
asg147
Nsg148
VTosefta Ohalot 18:10
p1456
sg150
(lp1457
sg152
g103
sg153
Nsg154
(lp1458
I18
aI10
asg156
Nsg157
g1456
sg158
(lp1459
sg160
g64
sg161
Nsg162
Nsg163
Nsbatp1460
.