((lp0
I0
aI70
aI119
aI169
aI186
aI253
aI335
aI380
aI464
aI537
aI599
aI649
aI691
aI721
aI844
aI868
aI909
aI949
aI975
aI1035
aI1075
aI1162
aI1232
aI1316
aI1335
aI1354
aI1428
aI1467
aI1525
aI1559
aI1619
aI1675
aI1699
aI1738
aI1751
aI1813
aI1879
aI1912
aI1961
aI2013
aI2039
aI2070
aI2094
aI2123
aI2163
aI2197
aI2250
aI2280
aI2327
aI2382
aI2445
aI2525
aI2565
aI2596
aI2703
aI2763
aI2798
aI2837
aI2888
aI2927
aI2991
aI3062
aI3121
aI3160
aI3201
aI3252
aI3282
aI3325
aI3345
aI3422
aI3448
aI3498
aI3546
aI3587
aI3633
aI3649
aI3675
aI3716
aI3767
aI3851
aI3906
aI3929
aI3955
aI3976
aI4057
aI4127
aI4193
aI4264
aI4287
aI4335
aI4382
aI4485
aI4521
aI4544
aI4635
aI4664
aI4743
aI4763
aI4793
aI4822
aI4903
aI4988
aI5040
aI5090
aI5140
aI5159
aI5175
aI5234
aI5270
aI5314
aI5382
aI5437
aI5453
aI5496
aI5536
aI5622
aI5694
aI5731
aI5843
aI5908
aI5968
aI5999
aI6023
aI6054
aI6133
aI6175
aI6200
aI6320
aI6379
aI6462
aI6554
aI6634
aI6688
aI6712
aI6767
aI6801
aI6923
aI6973
aI6998
aI7028
aI7086
aI7129
aI7248
aI7279
aI7342
aI7403
aI7434
aI7494
aI7523
aI7550
aI7584
aI7618
aI7674
aI7700
aI7746
aI7817
aI7857
aI7957
aI8026
aI8151
aI8201
aI8256
aI8300
aI8323
aI8370
aI8401
aI8451
aI8486
aI8554
aI8590
aI8666
aI8726
aI8798
aI8895
aI8939
aI8962
aI8976
aI9010
aI9051
aI9078
aI9116
aI9183
aI9213
aI9264
aI9340
aI9388
aI9413
aI9493
aI9513
aI9665
aI9780
aI9817
aI9871
aI9938
aI10064
aI10143
aI10165
aI10214
aI10336
aI10430
aI10478
aI10520
aI10566
aI10605
aI10626
aI10659
aI10682
aI10741
aI10765
aI10798
aI10879
aI10905
aI10935
aI10975
aI11012
aI11046
aI11062
aI11160
aI11220
aI11265
aI11299
aI11326
aI11360
aI11411
aI11441
aI11471
aI11499
aI11633
aI11683
aI11732
aI11752
aI11772
aI11830
a(lp1
ccopy_reg
_reconstructor
p2
(csefaria.model.text
Ref
p3
c__builtin__
object
p4
Ntp5
Rp6
(dp7
S'index_node'
p8
g2
(csefaria.model.schema
JaggedArrayNode
p9
g4
Ntp10
Rp11
(dp12
S'_address'
p13
(lp14
VTosefta Shabbat
p15
asS'_full_titles'
p16
(dp17
sVnodeType
p18
VJaggedArrayNode
p19
sS'parent'
p20
NsVaddressTypes
p21
(lp22
VInteger
p23
aVInteger
p24
asS'default'
p25
I00
sS'index'
p26
g2
(csefaria.model.text
Index
p27
g4
Ntp28
Rp29
(dp30
S'struct_objs'
p31
(dp32
sS'_id'
p33
g2
(cbson.objectid
ObjectId
p34
g4
Ntp35
Rp36
S'Q\xf5C\xa6\xed\xba\xb4k\xf0c\xd3o'
p37
bsS'pkeys_orig_values'
p38
(dp39
S'title'
p40
VTosefta Shabbat
p41
ssS'pubDate'
p42
V1521
p43
sS'transliteratedTitle'
p44
VTosefta Shabbat
p45
sS'pubPlace'
p46
VVenice
p47
sS'compPlace'
p48
VTalmudic Israel
p49
sS'enDesc'
p50
VThe Tosefta (Supplement, addition") is a compilation of the Jewish oral law. Opinions differ widely as to when the Tosefta was redacted and how it relates to the Mishnah. However it closely corresponds to the Mishnah in structure and style, with the same divisions for sedarim ("orders") and masekhot ("tractates"). In many ways, the Tosefta acts as a supplement to the Mishnah. It is mainly written in Mishnaic Hebrew, with some Aramaic. Shabbat (Sabbath) belongs to the second order, Moed (Festivals) and discusses the 39 prohibitions of "work" on the Shabbat. It has eighteen chapters.
p51
sS'order'
p52
(lp53
I1
asS'era'
p54
VT
p55
sS'compDate'
p56
V210
p57
sS'nodes'
p58
g11
sS'errorMargin'
p59
V20
p60
sS'_title'
p61
g41
sS'categories'
p62
(lp63
VTosefta
p64
aVSeder Moed
p65
asS'schema'
p66
(dp67
g18
g19
sg21
g22
sVlengths
p68
(lp69
I18
asVdepth
p70
I2
sVtitles
p71
(lp72
(dp73
Vlang
p74
Ven
p75
sVtext
p76
VTos. Shabbos
p77
sa(dp78
Vlang
p79
Ven
p80
sVtext
p81
VT. Shabbat
p82
sa(dp83
Vlang
p84
Ven
p85
sVtext
p86
VTosefta Shabbos
p87
sa(dp88
Vlang
p89
Ven
p90
sVtext
p91
VTos. Shabbat
p92
sa(dp93
Vlang
p94
Vhe
p95
sVtext
p96
V\u05ea\u05d5\u05e1\u05e4\u05ea\u05d0 \u05e9\u05d1\u05ea
p97
sVprimary
p98
I01
sa(dp99
Vlang
p100
Ven
p101
sVtext
p102
VTosefta Shabbat
p103
sVprimary
p104
I01
sasVkey
p105
g15
sVsectionNames
p106
(lp107
VChapter
p108
aVTosefta
p109
assbsS'_primary_title'
p110
(dp111
sS'title_group'
p112
g2
(csefaria.model.schema
TitleGroup
p113
g4
Ntp114
Rp115
(dp116
g110
(dp117
S'en'
p118
g103
ssS'titles'
p119
g72
sbsS'_addressTypes'
p120
(lp121
g2
(csefaria.model.schema
AddressInteger
p122
g4
Ntp123
Rp124
(dp125
S'length'
p126
I18
sg52
I0
sbag2
(g122
g4
Ntp127
Rp128
(dp129
g126
Nsg52
I1
sbasS'sharedTitle'
p130
Nsg68
g69
sg70
I2
sS'_full_title'
p131
(dp132
g118
g103
ssS'key'
p133
g15
sS'checkFirst'
p134
NsS'_regexes'
p135
(dp136
sS'_leaf_nodes'
p137
(lp138
sg106
g107
sS'children'
p139
(lp140
sbsS'_range_index'
p141
NsS'_context'
p142
(dp143
sS'_padded'
p144
Nsg26
g29
sS'sections'
p145
(lp146
I1
aI1
asS'_first_spanned_ref'
p147
NsS'tref'
p148
VTosefta Shabbat 1:1
p149
sS'_spanned_refs'
p150
(lp151
sS'book'
p152
g103
sS'_range_depth'
p153
NsS'toSections'
p154
(lp155
I1
aI1
asS'_url'
p156
NsS'_normal'
p157
g149
sS'_ranged_refs'
p158
(lp159
sS'type'
p160
g64
sS'_prev'
p161
NsS'_he_normal'
p162
NsS'_next'
p163
Nsbag2
(g3
g4
Ntp164
Rp165
(dp166
g8
g11
sg141
Nsg142
(dp167
sg144
Nsg26
g29
sg145
(lp168
I1
aI2
asg147
Nsg148
VTosefta Shabbat 1:2
p169
sg150
(lp170
sg152
g103
sg153
Nsg154
(lp171
I1
aI2
asg156
Nsg157
g169
sg158
(lp172
sg160
g64
sg161
Nsg162
Nsg163
Nsbag2
(g3
g4
Ntp173
Rp174
(dp175
g8
g11
sg141
Nsg142
(dp176
sg144
Nsg26
g29
sg145
(lp177
I1
aI3
asg147
Nsg148
VTosefta Shabbat 1:3
p178
sg150
(lp179
sg152
g103
sg153
Nsg154
(lp180
I1
aI3
asg156
Nsg157
g178
sg158
(lp181
sg160
g64
sg161
Nsg162
Nsg163
Nsbag2
(g3
g4
Ntp182
Rp183
(dp184
g8
g11
sg141
Nsg142
(dp185
sg144
Nsg26
g29
sg145
(lp186
I1
aI4
asg147
Nsg148
VTosefta Shabbat 1:4
p187
sg150
(lp188
sg152
g103
sg153
Nsg154
(lp189
I1
aI4
asg156
Nsg157
g187
sg158
(lp190
sg160
g64
sg161
Nsg162
Nsg163
Nsbag2
(g3
g4
Ntp191
Rp192
(dp193
g8
g11
sg141
Nsg142
(dp194
sg144
Nsg26
g29
sg145
(lp195
I1
aI5
asg147
Nsg148
VTosefta Shabbat 1:5
p196
sg150
(lp197
sg152
g103
sg153
Nsg154
(lp198
I1
aI5
asg156
Nsg157
g196
sg158
(lp199
sg160
g64
sg161
Nsg162
Nsg163
Nsbag2
(g3
g4
Ntp200
Rp201
(dp202
g8
g11
sg141
Nsg142
(dp203
sg144
Nsg26
g29
sg145
(lp204
I1
aI6
asg147
Nsg148
VTosefta Shabbat 1:6
p205
sg150
(lp206
sg152
g103
sg153
Nsg154
(lp207
I1
aI6
asg156
Nsg157
g205
sg158
(lp208
sg160
g64
sg161
Nsg162
Nsg163
Nsbag2
(g3
g4
Ntp209
Rp210
(dp211
g8
g11
sg141
Nsg142
(dp212
sg144
Nsg26
g29
sg145
(lp213
I1
aI7
asg147
Nsg148
VTosefta Shabbat 1:7
p214
sg150
(lp215
sg152
g103
sg153
Nsg154
(lp216
I1
aI7
asg156
Nsg157
g214
sg158
(lp217
sg160
g64
sg161
Nsg162
Nsg163
Nsbag2
(g3
g4
Ntp218
Rp219
(dp220
g8
g11
sg141
Nsg142
(dp221
sg144
Nsg26
g29
sg145
(lp222
I1
aI8
asg147
Nsg148
VTosefta Shabbat 1:8
p223
sg150
(lp224
sg152
g103
sg153
Nsg154
(lp225
I1
aI8
asg156
Nsg157
g223
sg158
(lp226
sg160
g64
sg161
Nsg162
Nsg163
Nsbag2
(g3
g4
Ntp227
Rp228
(dp229
g8
g11
sg141
Nsg142
(dp230
sg144
Nsg26
g29
sg145
(lp231
I1
aI9
asg147
Nsg148
VTosefta Shabbat 1:9
p232
sg150
(lp233
sg152
g103
sg153
Nsg154
(lp234
I1
aI9
asg156
Nsg157
g232
sg158
(lp235
sg160
g64
sg161
Nsg162
Nsg163
Nsbag2
(g3
g4
Ntp236
Rp237
(dp238
g8
g11
sg141
Nsg142
(dp239
sg144
Nsg26
g29
sg145
(lp240
I1
aI10
asg147
Nsg148
VTosefta Shabbat 1:10
p241
sg150
(lp242
sg152
g103
sg153
Nsg154
(lp243
I1
aI10
asg156
Nsg157
g241
sg158
(lp244
sg160
g64
sg161
Nsg162
Nsg163
Nsbag2
(g3
g4
Ntp245
Rp246
(dp247
g8
g11
sg141
Nsg142
(dp248
sg144
Nsg26
g29
sg145
(lp249
I1
aI11
asg147
Nsg148
VTosefta Shabbat 1:11
p250
sg150
(lp251
sg152
g103
sg153
Nsg154
(lp252
I1
aI11
asg156
Nsg157
g250
sg158
(lp253
sg160
g64
sg161
Nsg162
Nsg163
Nsbag2
(g3
g4
Ntp254
Rp255
(dp256
g8
g11
sg141
Nsg142
(dp257
sg144
Nsg26
g29
sg145
(lp258
I2
aI1
asg147
Nsg148
VTosefta Shabbat 2:1
p259
sg150
(lp260
sg152
g103
sg153
Nsg154
(lp261
I2
aI1
asg156
Nsg157
g259
sg158
(lp262
sg160
g64
sg161
Nsg162
Nsg163
Nsbag2
(g3
g4
Ntp263
Rp264
(dp265
g8
g11
sg141
Nsg142
(dp266
sg144
Nsg26
g29
sg145
(lp267
I2
aI2
asg147
Nsg148
VTosefta Shabbat 2:2
p268
sg150
(lp269
sg152
g103
sg153
Nsg154
(lp270
I2
aI2
asg156
Nsg157
g268
sg158
(lp271
sg160
g64
sg161
Nsg162
Nsg163
Nsbag2
(g3
g4
Ntp272
Rp273
(dp274
g8
g11
sg141
Nsg142
(dp275
sg144
Nsg26
g29
sg145
(lp276
I2
aI3
asg147
Nsg148
VTosefta Shabbat 2:3
p277
sg150
(lp278
sg152
g103
sg153
Nsg154
(lp279
I2
aI3
asg156
Nsg157
g277
sg158
(lp280
sg160
g64
sg161
Nsg162
Nsg163
Nsbag2
(g3
g4
Ntp281
Rp282
(dp283
g8
g11
sg141
Nsg142
(dp284
sg144
Nsg26
g29
sg145
(lp285
I2
aI4
asg147
Nsg148
VTosefta Shabbat 2:4
p286
sg150
(lp287
sg152
g103
sg153
Nsg154
(lp288
I2
aI4
asg156
Nsg157
g286
sg158
(lp289
sg160
g64
sg161
Nsg162
Nsg163
Nsbag2
(g3
g4
Ntp290
Rp291
(dp292
g8
g11
sg141
Nsg142
(dp293
sg144
Nsg26
g29
sg145
(lp294
I2
aI5
asg147
Nsg148
VTosefta Shabbat 2:5
p295
sg150
(lp296
sg152
g103
sg153
Nsg154
(lp297
I2
aI5
asg156
Nsg157
g295
sg158
(lp298
sg160
g64
sg161
Nsg162
Nsg163
Nsbag2
(g3
g4
Ntp299
Rp300
(dp301
g8
g11
sg141
Nsg142
(dp302
sg144
Nsg26
g29
sg145
(lp303
I2
aI6
asg147
Nsg148
VTosefta Shabbat 2:6
p304
sg150
(lp305
sg152
g103
sg153
Nsg154
(lp306
I2
aI6
asg156
Nsg157
g304
sg158
(lp307
sg160
g64
sg161
Nsg162
Nsg163
Nsbag2
(g3
g4
Ntp308
Rp309
(dp310
g8
g11
sg141
Nsg142
(dp311
sg144
Nsg26
g29
sg145
(lp312
I2
aI7
asg147
Nsg148
VTosefta Shabbat 2:7
p313
sg150
(lp314
sg152
g103
sg153
Nsg154
(lp315
I2
aI7
asg156
Nsg157
g313
sg158
(lp316
sg160
g64
sg161
Nsg162
Nsg163
Nsbag2
(g3
g4
Ntp317
Rp318
(dp319
g8
g11
sg141
Nsg142
(dp320
sg144
Nsg26
g29
sg145
(lp321
I2
aI8
asg147
Nsg148
VTosefta Shabbat 2:8
p322
sg150
(lp323
sg152
g103
sg153
Nsg154
(lp324
I2
aI8
asg156
Nsg157
g322
sg158
(lp325
sg160
g64
sg161
Nsg162
Nsg163
Nsbag2
(g3
g4
Ntp326
Rp327
(dp328
g8
g11
sg141
Nsg142
(dp329
sg144
Nsg26
g29
sg145
(lp330
I2
aI9
asg147
Nsg148
VTosefta Shabbat 2:9
p331
sg150
(lp332
sg152
g103
sg153
Nsg154
(lp333
I2
aI9
asg156
Nsg157
g331
sg158
(lp334
sg160
g64
sg161
Nsg162
Nsg163
Nsbag2
(g3
g4
Ntp335
Rp336
(dp337
g8
g11
sg141
Nsg142
(dp338
sg144
Nsg26
g29
sg145
(lp339
I3
aI1
asg147
Nsg148
VTosefta Shabbat 3:1
p340
sg150
(lp341
sg152
g103
sg153
Nsg154
(lp342
I3
aI1
asg156
Nsg157
g340
sg158
(lp343
sg160
g64
sg161
Nsg162
Nsg163
Nsbag2
(g3
g4
Ntp344
Rp345
(dp346
g8
g11
sg141
Nsg142
(dp347
sg144
Nsg26
g29
sg145
(lp348
I3
aI2
asg147
Nsg148
VTosefta Shabbat 3:2
p349
sg150
(lp350
sg152
g103
sg153
Nsg154
(lp351
I3
aI2
asg156
Nsg157
g349
sg158
(lp352
sg160
g64
sg161
Nsg162
Nsg163
Nsbag2
(g3
g4
Ntp353
Rp354
(dp355
g8
g11
sg141
Nsg142
(dp356
sg144
Nsg26
g29
sg145
(lp357
I3
aI3
asg147
Nsg148
VTosefta Shabbat 3:3
p358
sg150
(lp359
sg152
g103
sg153
Nsg154
(lp360
I3
aI3
asg156
Nsg157
g358
sg158
(lp361
sg160
g64
sg161
Nsg162
Nsg163
Nsbag2
(g3
g4
Ntp362
Rp363
(dp364
g8
g11
sg141
Nsg142
(dp365
sg144
Nsg26
g29
sg145
(lp366
I3
aI4
asg147
Nsg148
VTosefta Shabbat 3:4
p367
sg150
(lp368
sg152
g103
sg153
Nsg154
(lp369
I3
aI4
asg156
Nsg157
g367
sg158
(lp370
sg160
g64
sg161
Nsg162
Nsg163
Nsbag2
(g3
g4
Ntp371
Rp372
(dp373
g8
g11
sg141
Nsg142
(dp374
sg144
Nsg26
g29
sg145
(lp375
I3
aI5
asg147
Nsg148
VTosefta Shabbat 3:5
p376
sg150
(lp377
sg152
g103
sg153
Nsg154
(lp378
I3
aI5
asg156
Nsg157
g376
sg158
(lp379
sg160
g64
sg161
Nsg162
Nsg163
Nsbag2
(g3
g4
Ntp380
Rp381
(dp382
g8
g11
sg141
Nsg142
(dp383
sg144
Nsg26
g29
sg145
(lp384
I3
aI6
asg147
Nsg148
VTosefta Shabbat 3:6
p385
sg150
(lp386
sg152
g103
sg153
Nsg154
(lp387
I3
aI6
asg156
Nsg157
g385
sg158
(lp388
sg160
g64
sg161
Nsg162
Nsg163
Nsbag2
(g3
g4
Ntp389
Rp390
(dp391
g8
g11
sg141
Nsg142
(dp392
sg144
Nsg26
g29
sg145
(lp393
I4
aI1
asg147
Nsg148
VTosefta Shabbat 4:1
p394
sg150
(lp395
sg152
g103
sg153
Nsg154
(lp396
I4
aI1
asg156
Nsg157
g394
sg158
(lp397
sg160
g64
sg161
Nsg162
Nsg163
Nsbag2
(g3
g4
Ntp398
Rp399
(dp400
g8
g11
sg141
Nsg142
(dp401
sg144
Nsg26
g29
sg145
(lp402
I4
aI2
asg147
Nsg148
VTosefta Shabbat 4:2
p403
sg150
(lp404
sg152
g103
sg153
Nsg154
(lp405
I4
aI2
asg156
Nsg157
g403
sg158
(lp406
sg160
g64
sg161
Nsg162
Nsg163
Nsbag2
(g3
g4
Ntp407
Rp408
(dp409
g8
g11
sg141
Nsg142
(dp410
sg144
Nsg26
g29
sg145
(lp411
I4
aI3
asg147
Nsg148
VTosefta Shabbat 4:3
p412
sg150
(lp413
sg152
g103
sg153
Nsg154
(lp414
I4
aI3
asg156
Nsg157
g412
sg158
(lp415
sg160
g64
sg161
Nsg162
Nsg163
Nsbag2
(g3
g4
Ntp416
Rp417
(dp418
g8
g11
sg141
Nsg142
(dp419
sg144
Nsg26
g29
sg145
(lp420
I4
aI4
asg147
Nsg148
VTosefta Shabbat 4:4
p421
sg150
(lp422
sg152
g103
sg153
Nsg154
(lp423
I4
aI4
asg156
Nsg157
g421
sg158
(lp424
sg160
g64
sg161
Nsg162
Nsg163
Nsbag2
(g3
g4
Ntp425
Rp426
(dp427
g8
g11
sg141
Nsg142
(dp428
sg144
Nsg26
g29
sg145
(lp429
I4
aI5
asg147
Nsg148
VTosefta Shabbat 4:5
p430
sg150
(lp431
sg152
g103
sg153
Nsg154
(lp432
I4
aI5
asg156
Nsg157
g430
sg158
(lp433
sg160
g64
sg161
Nsg162
Nsg163
Nsbag2
(g3
g4
Ntp434
Rp435
(dp436
g8
g11
sg141
Nsg142
(dp437
sg144
Nsg26
g29
sg145
(lp438
I4
aI6
asg147
Nsg148
VTosefta Shabbat 4:6
p439
sg150
(lp440
sg152
g103
sg153
Nsg154
(lp441
I4
aI6
asg156
Nsg157
g439
sg158
(lp442
sg160
g64
sg161
Nsg162
Nsg163
Nsbag2
(g3
g4
Ntp443
Rp444
(dp445
g8
g11
sg141
Nsg142
(dp446
sg144
Nsg26
g29
sg145
(lp447
I4
aI7
asg147
Nsg148
VTosefta Shabbat 4:7
p448
sg150
(lp449
sg152
g103
sg153
Nsg154
(lp450
I4
aI7
asg156
Nsg157
g448
sg158
(lp451
sg160
g64
sg161
Nsg162
Nsg163
Nsbag2
(g3
g4
Ntp452
Rp453
(dp454
g8
g11
sg141
Nsg142
(dp455
sg144
Nsg26
g29
sg145
(lp456
I4
aI8
asg147
Nsg148
VTosefta Shabbat 4:8
p457
sg150
(lp458
sg152
g103
sg153
Nsg154
(lp459
I4
aI8
asg156
Nsg157
g457
sg158
(lp460
sg160
g64
sg161
Nsg162
Nsg163
Nsbag2
(g3
g4
Ntp461
Rp462
(dp463
g8
g11
sg141
Nsg142
(dp464
sg144
Nsg26
g29
sg145
(lp465
I4
aI9
asg147
Nsg148
VTosefta Shabbat 4:9
p466
sg150
(lp467
sg152
g103
sg153
Nsg154
(lp468
I4
aI9
asg156
Nsg157
g466
sg158
(lp469
sg160
g64
sg161
Nsg162
Nsg163
Nsbag2
(g3
g4
Ntp470
Rp471
(dp472
g8
g11
sg141
Nsg142
(dp473
sg144
Nsg26
g29
sg145
(lp474
I4
aI10
asg147
Nsg148
VTosefta Shabbat 4:10
p475
sg150
(lp476
sg152
g103
sg153
Nsg154
(lp477
I4
aI10
asg156
Nsg157
g475
sg158
(lp478
sg160
g64
sg161
Nsg162
Nsg163
Nsbag2
(g3
g4
Ntp479
Rp480
(dp481
g8
g11
sg141
Nsg142
(dp482
sg144
Nsg26
g29
sg145
(lp483
I4
aI11
asg147
Nsg148
VTosefta Shabbat 4:11
p484
sg150
(lp485
sg152
g103
sg153
Nsg154
(lp486
I4
aI11
asg156
Nsg157
g484
sg158
(lp487
sg160
g64
sg161
Nsg162
Nsg163
Nsbag2
(g3
g4
Ntp488
Rp489
(dp490
g8
g11
sg141
Nsg142
(dp491
sg144
Nsg26
g29
sg145
(lp492
I4
aI12
asg147
Nsg148
VTosefta Shabbat 4:12
p493
sg150
(lp494
sg152
g103
sg153
Nsg154
(lp495
I4
aI12
asg156
Nsg157
g493
sg158
(lp496
sg160
g64
sg161
Nsg162
Nsg163
Nsbag2
(g3
g4
Ntp497
Rp498
(dp499
g8
g11
sg141
Nsg142
(dp500
sg144
Nsg26
g29
sg145
(lp501
I4
aI13
asg147
Nsg148
VTosefta Shabbat 4:13
p502
sg150
(lp503
sg152
g103
sg153
Nsg154
(lp504
I4
aI13
asg156
Nsg157
g502
sg158
(lp505
sg160
g64
sg161
Nsg162
Nsg163
Nsbag2
(g3
g4
Ntp506
Rp507
(dp508
g8
g11
sg141
Nsg142
(dp509
sg144
Nsg26
g29
sg145
(lp510
I4
aI14
asg147
Nsg148
VTosefta Shabbat 4:14
p511
sg150
(lp512
sg152
g103
sg153
Nsg154
(lp513
I4
aI14
asg156
Nsg157
g511
sg158
(lp514
sg160
g64
sg161
Nsg162
Nsg163
Nsbag2
(g3
g4
Ntp515
Rp516
(dp517
g8
g11
sg141
Nsg142
(dp518
sg144
Nsg26
g29
sg145
(lp519
I4
aI15
asg147
Nsg148
VTosefta Shabbat 4:15
p520
sg150
(lp521
sg152
g103
sg153
Nsg154
(lp522
I4
aI15
asg156
Nsg157
g520
sg158
(lp523
sg160
g64
sg161
Nsg162
Nsg163
Nsbag2
(g3
g4
Ntp524
Rp525
(dp526
g8
g11
sg141
Nsg142
(dp527
sg144
Nsg26
g29
sg145
(lp528
I5
aI1
asg147
Nsg148
VTosefta Shabbat 5:1
p529
sg150
(lp530
sg152
g103
sg153
Nsg154
(lp531
I5
aI1
asg156
Nsg157
g529
sg158
(lp532
sg160
g64
sg161
Nsg162
Nsg163
Nsbag2
(g3
g4
Ntp533
Rp534
(dp535
g8
g11
sg141
Nsg142
(dp536
sg144
Nsg26
g29
sg145
(lp537
I5
aI2
asg147
Nsg148
VTosefta Shabbat 5:2
p538
sg150
(lp539
sg152
g103
sg153
Nsg154
(lp540
I5
aI2
asg156
Nsg157
g538
sg158
(lp541
sg160
g64
sg161
Nsg162
Nsg163
Nsbag2
(g3
g4
Ntp542
Rp543
(dp544
g8
g11
sg141
Nsg142
(dp545
sg144
Nsg26
g29
sg145
(lp546
I5
aI3
asg147
Nsg148
VTosefta Shabbat 5:3
p547
sg150
(lp548
sg152
g103
sg153
Nsg154
(lp549
I5
aI3
asg156
Nsg157
g547
sg158
(lp550
sg160
g64
sg161
Nsg162
Nsg163
Nsbag2
(g3
g4
Ntp551
Rp552
(dp553
g8
g11
sg141
Nsg142
(dp554
sg144
Nsg26
g29
sg145
(lp555
I5
aI4
asg147
Nsg148
VTosefta Shabbat 5:4
p556
sg150
(lp557
sg152
g103
sg153
Nsg154
(lp558
I5
aI4
asg156
Nsg157
g556
sg158
(lp559
sg160
g64
sg161
Nsg162
Nsg163
Nsbag2
(g3
g4
Ntp560
Rp561
(dp562
g8
g11
sg141
Nsg142
(dp563
sg144
Nsg26
g29
sg145
(lp564
I5
aI5
asg147
Nsg148
VTosefta Shabbat 5:5
p565
sg150
(lp566
sg152
g103
sg153
Nsg154
(lp567
I5
aI5
asg156
Nsg157
g565
sg158
(lp568
sg160
g64
sg161
Nsg162
Nsg163
Nsbag2
(g3
g4
Ntp569
Rp570
(dp571
g8
g11
sg141
Nsg142
(dp572
sg144
Nsg26
g29
sg145
(lp573
I5
aI6
asg147
Nsg148
VTosefta Shabbat 5:6
p574
sg150
(lp575
sg152
g103
sg153
Nsg154
(lp576
I5
aI6
asg156
Nsg157
g574
sg158
(lp577
sg160
g64
sg161
Nsg162
Nsg163
Nsbag2
(g3
g4
Ntp578
Rp579
(dp580
g8
g11
sg141
Nsg142
(dp581
sg144
Nsg26
g29
sg145
(lp582
I5
aI7
asg147
Nsg148
VTosefta Shabbat 5:7
p583
sg150
(lp584
sg152
g103
sg153
Nsg154
(lp585
I5
aI7
asg156
Nsg157
g583
sg158
(lp586
sg160
g64
sg161
Nsg162
Nsg163
Nsbag2
(g3
g4
Ntp587
Rp588
(dp589
g8
g11
sg141
Nsg142
(dp590
sg144
Nsg26
g29
sg145
(lp591
I5
aI8
asg147
Nsg148
VTosefta Shabbat 5:8
p592
sg150
(lp593
sg152
g103
sg153
Nsg154
(lp594
I5
aI8
asg156
Nsg157
g592
sg158
(lp595
sg160
g64
sg161
Nsg162
Nsg163
Nsbag2
(g3
g4
Ntp596
Rp597
(dp598
g8
g11
sg141
Nsg142
(dp599
sg144
Nsg26
g29
sg145
(lp600
I5
aI9
asg147
Nsg148
VTosefta Shabbat 5:9
p601
sg150
(lp602
sg152
g103
sg153
Nsg154
(lp603
I5
aI9
asg156
Nsg157
g601
sg158
(lp604
sg160
g64
sg161
Nsg162
Nsg163
Nsbag2
(g3
g4
Ntp605
Rp606
(dp607
g8
g11
sg141
Nsg142
(dp608
sg144
Nsg26
g29
sg145
(lp609
I5
aI10
asg147
Nsg148
VTosefta Shabbat 5:10
p610
sg150
(lp611
sg152
g103
sg153
Nsg154
(lp612
I5
aI10
asg156
Nsg157
g610
sg158
(lp613
sg160
g64
sg161
Nsg162
Nsg163
Nsbag2
(g3
g4
Ntp614
Rp615
(dp616
g8
g11
sg141
Nsg142
(dp617
sg144
Nsg26
g29
sg145
(lp618
I6
aI1
asg147
Nsg148
VTosefta Shabbat 6:1
p619
sg150
(lp620
sg152
g103
sg153
Nsg154
(lp621
I6
aI1
asg156
Nsg157
g619
sg158
(lp622
sg160
g64
sg161
Nsg162
Nsg163
Nsbag2
(g3
g4
Ntp623
Rp624
(dp625
g8
g11
sg141
Nsg142
(dp626
sg144
Nsg26
g29
sg145
(lp627
I6
aI2
asg147
Nsg148
VTosefta Shabbat 6:2
p628
sg150
(lp629
sg152
g103
sg153
Nsg154
(lp630
I6
aI2
asg156
Nsg157
g628
sg158
(lp631
sg160
g64
sg161
Nsg162
Nsg163
Nsbag2
(g3
g4
Ntp632
Rp633
(dp634
g8
g11
sg141
Nsg142
(dp635
sg144
Nsg26
g29
sg145
(lp636
I6
aI3
asg147
Nsg148
VTosefta Shabbat 6:3
p637
sg150
(lp638
sg152
g103
sg153
Nsg154
(lp639
I6
aI3
asg156
Nsg157
g637
sg158
(lp640
sg160
g64
sg161
Nsg162
Nsg163
Nsbag2
(g3
g4
Ntp641
Rp642
(dp643
g8
g11
sg141
Nsg142
(dp644
sg144
Nsg26
g29
sg145
(lp645
I6
aI4
asg147
Nsg148
VTosefta Shabbat 6:4
p646
sg150
(lp647
sg152
g103
sg153
Nsg154
(lp648
I6
aI4
asg156
Nsg157
g646
sg158
(lp649
sg160
g64
sg161
Nsg162
Nsg163
Nsbag2
(g3
g4
Ntp650
Rp651
(dp652
g8
g11
sg141
Nsg142
(dp653
sg144
Nsg26
g29
sg145
(lp654
I6
aI5
asg147
Nsg148
VTosefta Shabbat 6:5
p655
sg150
(lp656
sg152
g103
sg153
Nsg154
(lp657
I6
aI5
asg156
Nsg157
g655
sg158
(lp658
sg160
g64
sg161
Nsg162
Nsg163
Nsbag2
(g3
g4
Ntp659
Rp660
(dp661
g8
g11
sg141
Nsg142
(dp662
sg144
Nsg26
g29
sg145
(lp663
I6
aI6
asg147
Nsg148
VTosefta Shabbat 6:6
p664
sg150
(lp665
sg152
g103
sg153
Nsg154
(lp666
I6
aI6
asg156
Nsg157
g664
sg158
(lp667
sg160
g64
sg161
Nsg162
Nsg163
Nsbag2
(g3
g4
Ntp668
Rp669
(dp670
g8
g11
sg141
Nsg142
(dp671
sg144
Nsg26
g29
sg145
(lp672
I6
aI7
asg147
Nsg148
VTosefta Shabbat 6:7
p673
sg150
(lp674
sg152
g103
sg153
Nsg154
(lp675
I6
aI7
asg156
Nsg157
g673
sg158
(lp676
sg160
g64
sg161
Nsg162
Nsg163
Nsbag2
(g3
g4
Ntp677
Rp678
(dp679
g8
g11
sg141
Nsg142
(dp680
sg144
Nsg26
g29
sg145
(lp681
I7
aI1
asg147
Nsg148
VTosefta Shabbat 7:1
p682
sg150
(lp683
sg152
g103
sg153
Nsg154
(lp684
I7
aI1
asg156
Nsg157
g682
sg158
(lp685
sg160
g64
sg161
Nsg162
Nsg163
Nsbag2
(g3
g4
Ntp686
Rp687
(dp688
g8
g11
sg141
Nsg142
(dp689
sg144
Nsg26
g29
sg145
(lp690
I7
aI2
asg147
Nsg148
VTosefta Shabbat 7:2
p691
sg150
(lp692
sg152
g103
sg153
Nsg154
(lp693
I7
aI2
asg156
Nsg157
g691
sg158
(lp694
sg160
g64
sg161
Nsg162
Nsg163
Nsbag2
(g3
g4
Ntp695
Rp696
(dp697
g8
g11
sg141
Nsg142
(dp698
sg144
Nsg26
g29
sg145
(lp699
I7
aI3
asg147
Nsg148
VTosefta Shabbat 7:3
p700
sg150
(lp701
sg152
g103
sg153
Nsg154
(lp702
I7
aI3
asg156
Nsg157
g700
sg158
(lp703
sg160
g64
sg161
Nsg162
Nsg163
Nsbag2
(g3
g4
Ntp704
Rp705
(dp706
g8
g11
sg141
Nsg142
(dp707
sg144
Nsg26
g29
sg145
(lp708
I7
aI4
asg147
Nsg148
VTosefta Shabbat 7:4
p709
sg150
(lp710
sg152
g103
sg153
Nsg154
(lp711
I7
aI4
asg156
Nsg157
g709
sg158
(lp712
sg160
g64
sg161
Nsg162
Nsg163
Nsbag2
(g3
g4
Ntp713
Rp714
(dp715
g8
g11
sg141
Nsg142
(dp716
sg144
Nsg26
g29
sg145
(lp717
I7
aI5
asg147
Nsg148
VTosefta Shabbat 7:5
p718
sg150
(lp719
sg152
g103
sg153
Nsg154
(lp720
I7
aI5
asg156
Nsg157
g718
sg158
(lp721
sg160
g64
sg161
Nsg162
Nsg163
Nsbag2
(g3
g4
Ntp722
Rp723
(dp724
g8
g11
sg141
Nsg142
(dp725
sg144
Nsg26
g29
sg145
(lp726
I7
aI6
asg147
Nsg148
VTosefta Shabbat 7:6
p727
sg150
(lp728
sg152
g103
sg153
Nsg154
(lp729
I7
aI6
asg156
Nsg157
g727
sg158
(lp730
sg160
g64
sg161
Nsg162
Nsg163
Nsbag2
(g3
g4
Ntp731
Rp732
(dp733
g8
g11
sg141
Nsg142
(dp734
sg144
Nsg26
g29
sg145
(lp735
I7
aI7
asg147
Nsg148
VTosefta Shabbat 7:7
p736
sg150
(lp737
sg152
g103
sg153
Nsg154
(lp738
I7
aI7
asg156
Nsg157
g736
sg158
(lp739
sg160
g64
sg161
Nsg162
Nsg163
Nsbag2
(g3
g4
Ntp740
Rp741
(dp742
g8
g11
sg141
Nsg142
(dp743
sg144
Nsg26
g29
sg145
(lp744
I7
aI8
asg147
Nsg148
VTosefta Shabbat 7:8
p745
sg150
(lp746
sg152
g103
sg153
Nsg154
(lp747
I7
aI8
asg156
Nsg157
g745
sg158
(lp748
sg160
g64
sg161
Nsg162
Nsg163
Nsbag2
(g3
g4
Ntp749
Rp750
(dp751
g8
g11
sg141
Nsg142
(dp752
sg144
Nsg26
g29
sg145
(lp753
I7
aI9
asg147
Nsg148
VTosefta Shabbat 7:9
p754
sg150
(lp755
sg152
g103
sg153
Nsg154
(lp756
I7
aI9
asg156
Nsg157
g754
sg158
(lp757
sg160
g64
sg161
Nsg162
Nsg163
Nsbag2
(g3
g4
Ntp758
Rp759
(dp760
g8
g11
sg141
Nsg142
(dp761
sg144
Nsg26
g29
sg145
(lp762
I7
aI10
asg147
Nsg148
VTosefta Shabbat 7:10
p763
sg150
(lp764
sg152
g103
sg153
Nsg154
(lp765
I7
aI10
asg156
Nsg157
g763
sg158
(lp766
sg160
g64
sg161
Nsg162
Nsg163
Nsbag2
(g3
g4
Ntp767
Rp768
(dp769
g8
g11
sg141
Nsg142
(dp770
sg144
Nsg26
g29
sg145
(lp771
I8
aI1
asg147
Nsg148
VTosefta Shabbat 8:1
p772
sg150
(lp773
sg152
g103
sg153
Nsg154
(lp774
I8
aI1
asg156
Nsg157
g772
sg158
(lp775
sg160
g64
sg161
Nsg162
Nsg163
Nsbag2
(g3
g4
Ntp776
Rp777
(dp778
g8
g11
sg141
Nsg142
(dp779
sg144
Nsg26
g29
sg145
(lp780
I8
aI2
asg147
Nsg148
VTosefta Shabbat 8:2
p781
sg150
(lp782
sg152
g103
sg153
Nsg154
(lp783
I8
aI2
asg156
Nsg157
g781
sg158
(lp784
sg160
g64
sg161
Nsg162
Nsg163
Nsbag2
(g3
g4
Ntp785
Rp786
(dp787
g8
g11
sg141
Nsg142
(dp788
sg144
Nsg26
g29
sg145
(lp789
I8
aI3
asg147
Nsg148
VTosefta Shabbat 8:3
p790
sg150
(lp791
sg152
g103
sg153
Nsg154
(lp792
I8
aI3
asg156
Nsg157
g790
sg158
(lp793
sg160
g64
sg161
Nsg162
Nsg163
Nsbag2
(g3
g4
Ntp794
Rp795
(dp796
g8
g11
sg141
Nsg142
(dp797
sg144
Nsg26
g29
sg145
(lp798
I8
aI4
asg147
Nsg148
VTosefta Shabbat 8:4
p799
sg150
(lp800
sg152
g103
sg153
Nsg154
(lp801
I8
aI4
asg156
Nsg157
g799
sg158
(lp802
sg160
g64
sg161
Nsg162
Nsg163
Nsbag2
(g3
g4
Ntp803
Rp804
(dp805
g8
g11
sg141
Nsg142
(dp806
sg144
Nsg26
g29
sg145
(lp807
I8
aI5
asg147
Nsg148
VTosefta Shabbat 8:5
p808
sg150
(lp809
sg152
g103
sg153
Nsg154
(lp810
I8
aI5
asg156
Nsg157
g808
sg158
(lp811
sg160
g64
sg161
Nsg162
Nsg163
Nsbag2
(g3
g4
Ntp812
Rp813
(dp814
g8
g11
sg141
Nsg142
(dp815
sg144
Nsg26
g29
sg145
(lp816
I8
aI6
asg147
Nsg148
VTosefta Shabbat 8:6
p817
sg150
(lp818
sg152
g103
sg153
Nsg154
(lp819
I8
aI6
asg156
Nsg157
g817
sg158
(lp820
sg160
g64
sg161
Nsg162
Nsg163
Nsbag2
(g3
g4
Ntp821
Rp822
(dp823
g8
g11
sg141
Nsg142
(dp824
sg144
Nsg26
g29
sg145
(lp825
I8
aI7
asg147
Nsg148
VTosefta Shabbat 8:7
p826
sg150
(lp827
sg152
g103
sg153
Nsg154
(lp828
I8
aI7
asg156
Nsg157
g826
sg158
(lp829
sg160
g64
sg161
Nsg162
Nsg163
Nsbag2
(g3
g4
Ntp830
Rp831
(dp832
g8
g11
sg141
Nsg142
(dp833
sg144
Nsg26
g29
sg145
(lp834
I8
aI8
asg147
Nsg148
VTosefta Shabbat 8:8
p835
sg150
(lp836
sg152
g103
sg153
Nsg154
(lp837
I8
aI8
asg156
Nsg157
g835
sg158
(lp838
sg160
g64
sg161
Nsg162
Nsg163
Nsbag2
(g3
g4
Ntp839
Rp840
(dp841
g8
g11
sg141
Nsg142
(dp842
sg144
Nsg26
g29
sg145
(lp843
I8
aI9
asg147
Nsg148
VTosefta Shabbat 8:9
p844
sg150
(lp845
sg152
g103
sg153
Nsg154
(lp846
I8
aI9
asg156
Nsg157
g844
sg158
(lp847
sg160
g64
sg161
Nsg162
Nsg163
Nsbag2
(g3
g4
Ntp848
Rp849
(dp850
g8
g11
sg141
Nsg142
(dp851
sg144
Nsg26
g29
sg145
(lp852
I8
aI10
asg147
Nsg148
VTosefta Shabbat 8:10
p853
sg150
(lp854
sg152
g103
sg153
Nsg154
(lp855
I8
aI10
asg156
Nsg157
g853
sg158
(lp856
sg160
g64
sg161
Nsg162
Nsg163
Nsbag2
(g3
g4
Ntp857
Rp858
(dp859
g8
g11
sg141
Nsg142
(dp860
sg144
Nsg26
g29
sg145
(lp861
I8
aI11
asg147
Nsg148
VTosefta Shabbat 8:11
p862
sg150
(lp863
sg152
g103
sg153
Nsg154
(lp864
I8
aI11
asg156
Nsg157
g862
sg158
(lp865
sg160
g64
sg161
Nsg162
Nsg163
Nsbag2
(g3
g4
Ntp866
Rp867
(dp868
g8
g11
sg141
Nsg142
(dp869
sg144
Nsg26
g29
sg145
(lp870
I8
aI12
asg147
Nsg148
VTosefta Shabbat 8:12
p871
sg150
(lp872
sg152
g103
sg153
Nsg154
(lp873
I8
aI12
asg156
Nsg157
g871
sg158
(lp874
sg160
g64
sg161
Nsg162
Nsg163
Nsbag2
(g3
g4
Ntp875
Rp876
(dp877
g8
g11
sg141
Nsg142
(dp878
sg144
Nsg26
g29
sg145
(lp879
I9
aI1
asg147
Nsg148
VTosefta Shabbat 9:1
p880
sg150
(lp881
sg152
g103
sg153
Nsg154
(lp882
I9
aI1
asg156
Nsg157
g880
sg158
(lp883
sg160
g64
sg161
Nsg162
Nsg163
Nsbag2
(g3
g4
Ntp884
Rp885
(dp886
g8
g11
sg141
Nsg142
(dp887
sg144
Nsg26
g29
sg145
(lp888
I9
aI2
asg147
Nsg148
VTosefta Shabbat 9:2
p889
sg150
(lp890
sg152
g103
sg153
Nsg154
(lp891
I9
aI2
asg156
Nsg157
g889
sg158
(lp892
sg160
g64
sg161
Nsg162
Nsg163
Nsbag2
(g3
g4
Ntp893
Rp894
(dp895
g8
g11
sg141
Nsg142
(dp896
sg144
Nsg26
g29
sg145
(lp897
I9
aI3
asg147
Nsg148
VTosefta Shabbat 9:3
p898
sg150
(lp899
sg152
g103
sg153
Nsg154
(lp900
I9
aI3
asg156
Nsg157
g898
sg158
(lp901
sg160
g64
sg161
Nsg162
Nsg163
Nsbag2
(g3
g4
Ntp902
Rp903
(dp904
g8
g11
sg141
Nsg142
(dp905
sg144
Nsg26
g29
sg145
(lp906
I9
aI4
asg147
Nsg148
VTosefta Shabbat 9:4
p907
sg150
(lp908
sg152
g103
sg153
Nsg154
(lp909
I9
aI4
asg156
Nsg157
g907
sg158
(lp910
sg160
g64
sg161
Nsg162
Nsg163
Nsbag2
(g3
g4
Ntp911
Rp912
(dp913
g8
g11
sg141
Nsg142
(dp914
sg144
Nsg26
g29
sg145
(lp915
I9
aI5
asg147
Nsg148
VTosefta Shabbat 9:5
p916
sg150
(lp917
sg152
g103
sg153
Nsg154
(lp918
I9
aI5
asg156
Nsg157
g916
sg158
(lp919
sg160
g64
sg161
Nsg162
Nsg163
Nsbag2
(g3
g4
Ntp920
Rp921
(dp922
g8
g11
sg141
Nsg142
(dp923
sg144
Nsg26
g29
sg145
(lp924
I9
aI6
asg147
Nsg148
VTosefta Shabbat 9:6
p925
sg150
(lp926
sg152
g103
sg153
Nsg154
(lp927
I9
aI6
asg156
Nsg157
g925
sg158
(lp928
sg160
g64
sg161
Nsg162
Nsg163
Nsbag2
(g3
g4
Ntp929
Rp930
(dp931
g8
g11
sg141
Nsg142
(dp932
sg144
Nsg26
g29
sg145
(lp933
I9
aI7
asg147
Nsg148
VTosefta Shabbat 9:7
p934
sg150
(lp935
sg152
g103
sg153
Nsg154
(lp936
I9
aI7
asg156
Nsg157
g934
sg158
(lp937
sg160
g64
sg161
Nsg162
Nsg163
Nsbag2
(g3
g4
Ntp938
Rp939
(dp940
g8
g11
sg141
Nsg142
(dp941
sg144
Nsg26
g29
sg145
(lp942
I9
aI8
asg147
Nsg148
VTosefta Shabbat 9:8
p943
sg150
(lp944
sg152
g103
sg153
Nsg154
(lp945
I9
aI8
asg156
Nsg157
g943
sg158
(lp946
sg160
g64
sg161
Nsg162
Nsg163
Nsbag2
(g3
g4
Ntp947
Rp948
(dp949
g8
g11
sg141
Nsg142
(dp950
sg144
Nsg26
g29
sg145
(lp951
I9
aI9
asg147
Nsg148
VTosefta Shabbat 9:9
p952
sg150
(lp953
sg152
g103
sg153
Nsg154
(lp954
I9
aI9
asg156
Nsg157
g952
sg158
(lp955
sg160
g64
sg161
Nsg162
Nsg163
Nsbag2
(g3
g4
Ntp956
Rp957
(dp958
g8
g11
sg141
Nsg142
(dp959
sg144
Nsg26
g29
sg145
(lp960
I9
aI10
asg147
Nsg148
VTosefta Shabbat 9:10
p961
sg150
(lp962
sg152
g103
sg153
Nsg154
(lp963
I9
aI10
asg156
Nsg157
g961
sg158
(lp964
sg160
g64
sg161
Nsg162
Nsg163
Nsbag2
(g3
g4
Ntp965
Rp966
(dp967
g8
g11
sg141
Nsg142
(dp968
sg144
Nsg26
g29
sg145
(lp969
I9
aI11
asg147
Nsg148
VTosefta Shabbat 9:11
p970
sg150
(lp971
sg152
g103
sg153
Nsg154
(lp972
I9
aI11
asg156
Nsg157
g970
sg158
(lp973
sg160
g64
sg161
Nsg162
Nsg163
Nsbag2
(g3
g4
Ntp974
Rp975
(dp976
g8
g11
sg141
Nsg142
(dp977
sg144
Nsg26
g29
sg145
(lp978
I9
aI12
asg147
Nsg148
VTosefta Shabbat 9:12
p979
sg150
(lp980
sg152
g103
sg153
Nsg154
(lp981
I9
aI12
asg156
Nsg157
g979
sg158
(lp982
sg160
g64
sg161
Nsg162
Nsg163
Nsbag2
(g3
g4
Ntp983
Rp984
(dp985
g8
g11
sg141
Nsg142
(dp986
sg144
Nsg26
g29
sg145
(lp987
I9
aI13
asg147
Nsg148
VTosefta Shabbat 9:13
p988
sg150
(lp989
sg152
g103
sg153
Nsg154
(lp990
I9
aI13
asg156
Nsg157
g988
sg158
(lp991
sg160
g64
sg161
Nsg162
Nsg163
Nsbag2
(g3
g4
Ntp992
Rp993
(dp994
g8
g11
sg141
Nsg142
(dp995
sg144
Nsg26
g29
sg145
(lp996
I9
aI14
asg147
Nsg148
VTosefta Shabbat 9:14
p997
sg150
(lp998
sg152
g103
sg153
Nsg154
(lp999
I9
aI14
asg156
Nsg157
g997
sg158
(lp1000
sg160
g64
sg161
Nsg162
Nsg163
Nsbag2
(g3
g4
Ntp1001
Rp1002
(dp1003
g8
g11
sg141
Nsg142
(dp1004
sg144
Nsg26
g29
sg145
(lp1005
I9
aI15
asg147
Nsg148
VTosefta Shabbat 9:15
p1006
sg150
(lp1007
sg152
g103
sg153
Nsg154
(lp1008
I9
aI15
asg156
Nsg157
g1006
sg158
(lp1009
sg160
g64
sg161
Nsg162
Nsg163
Nsbag2
(g3
g4
Ntp1010
Rp1011
(dp1012
g8
g11
sg141
Nsg142
(dp1013
sg144
Nsg26
g29
sg145
(lp1014
I9
aI16
asg147
Nsg148
VTosefta Shabbat 9:16
p1015
sg150
(lp1016
sg152
g103
sg153
Nsg154
(lp1017
I9
aI16
asg156
Nsg157
g1015
sg158
(lp1018
sg160
g64
sg161
Nsg162
Nsg163
Nsbag2
(g3
g4
Ntp1019
Rp1020
(dp1021
g8
g11
sg141
Nsg142
(dp1022
sg144
Nsg26
g29
sg145
(lp1023
I9
aI17
asg147
Nsg148
VTosefta Shabbat 9:17
p1024
sg150
(lp1025
sg152
g103
sg153
Nsg154
(lp1026
I9
aI17
asg156
Nsg157
g1024
sg158
(lp1027
sg160
g64
sg161
Nsg162
Nsg163
Nsbag2
(g3
g4
Ntp1028
Rp1029
(dp1030
g8
g11
sg141
Nsg142
(dp1031
sg144
Nsg26
g29
sg145
(lp1032
I10
aI1
asg147
Nsg148
VTosefta Shabbat 10:1
p1033
sg150
(lp1034
sg152
g103
sg153
Nsg154
(lp1035
I10
aI1
asg156
Nsg157
g1033
sg158
(lp1036
sg160
g64
sg161
Nsg162
Nsg163
Nsbag2
(g3
g4
Ntp1037
Rp1038
(dp1039
g8
g11
sg141
Nsg142
(dp1040
sg144
Nsg26
g29
sg145
(lp1041
I10
aI2
asg147
Nsg148
VTosefta Shabbat 10:2
p1042
sg150
(lp1043
sg152
g103
sg153
Nsg154
(lp1044
I10
aI2
asg156
Nsg157
g1042
sg158
(lp1045
sg160
g64
sg161
Nsg162
Nsg163
Nsbag2
(g3
g4
Ntp1046
Rp1047
(dp1048
g8
g11
sg141
Nsg142
(dp1049
sg144
Nsg26
g29
sg145
(lp1050
I10
aI3
asg147
Nsg148
VTosefta Shabbat 10:3
p1051
sg150
(lp1052
sg152
g103
sg153
Nsg154
(lp1053
I10
aI3
asg156
Nsg157
g1051
sg158
(lp1054
sg160
g64
sg161
Nsg162
Nsg163
Nsbag2
(g3
g4
Ntp1055
Rp1056
(dp1057
g8
g11
sg141
Nsg142
(dp1058
sg144
Nsg26
g29
sg145
(lp1059
I10
aI4
asg147
Nsg148
VTosefta Shabbat 10:4
p1060
sg150
(lp1061
sg152
g103
sg153
Nsg154
(lp1062
I10
aI4
asg156
Nsg157
g1060
sg158
(lp1063
sg160
g64
sg161
Nsg162
Nsg163
Nsbag2
(g3
g4
Ntp1064
Rp1065
(dp1066
g8
g11
sg141
Nsg142
(dp1067
sg144
Nsg26
g29
sg145
(lp1068
I10
aI5
asg147
Nsg148
VTosefta Shabbat 10:5
p1069
sg150
(lp1070
sg152
g103
sg153
Nsg154
(lp1071
I10
aI5
asg156
Nsg157
g1069
sg158
(lp1072
sg160
g64
sg161
Nsg162
Nsg163
Nsbag2
(g3
g4
Ntp1073
Rp1074
(dp1075
g8
g11
sg141
Nsg142
(dp1076
sg144
Nsg26
g29
sg145
(lp1077
I10
aI6
asg147
Nsg148
VTosefta Shabbat 10:6
p1078
sg150
(lp1079
sg152
g103
sg153
Nsg154
(lp1080
I10
aI6
asg156
Nsg157
g1078
sg158
(lp1081
sg160
g64
sg161
Nsg162
Nsg163
Nsbag2
(g3
g4
Ntp1082
Rp1083
(dp1084
g8
g11
sg141
Nsg142
(dp1085
sg144
Nsg26
g29
sg145
(lp1086
I10
aI7
asg147
Nsg148
VTosefta Shabbat 10:7
p1087
sg150
(lp1088
sg152
g103
sg153
Nsg154
(lp1089
I10
aI7
asg156
Nsg157
g1087
sg158
(lp1090
sg160
g64
sg161
Nsg162
Nsg163
Nsbag2
(g3
g4
Ntp1091
Rp1092
(dp1093
g8
g11
sg141
Nsg142
(dp1094
sg144
Nsg26
g29
sg145
(lp1095
I10
aI8
asg147
Nsg148
VTosefta Shabbat 10:8
p1096
sg150
(lp1097
sg152
g103
sg153
Nsg154
(lp1098
I10
aI8
asg156
Nsg157
g1096
sg158
(lp1099
sg160
g64
sg161
Nsg162
Nsg163
Nsbag2
(g3
g4
Ntp1100
Rp1101
(dp1102
g8
g11
sg141
Nsg142
(dp1103
sg144
Nsg26
g29
sg145
(lp1104
I10
aI9
asg147
Nsg148
VTosefta Shabbat 10:9
p1105
sg150
(lp1106
sg152
g103
sg153
Nsg154
(lp1107
I10
aI9
asg156
Nsg157
g1105
sg158
(lp1108
sg160
g64
sg161
Nsg162
Nsg163
Nsbag2
(g3
g4
Ntp1109
Rp1110
(dp1111
g8
g11
sg141
Nsg142
(dp1112
sg144
Nsg26
g29
sg145
(lp1113
I10
aI10
asg147
Nsg148
VTosefta Shabbat 10:10
p1114
sg150
(lp1115
sg152
g103
sg153
Nsg154
(lp1116
I10
aI10
asg156
Nsg157
g1114
sg158
(lp1117
sg160
g64
sg161
Nsg162
Nsg163
Nsbag2
(g3
g4
Ntp1118
Rp1119
(dp1120
g8
g11
sg141
Nsg142
(dp1121
sg144
Nsg26
g29
sg145
(lp1122
I10
aI11
asg147
Nsg148
VTosefta Shabbat 10:11
p1123
sg150
(lp1124
sg152
g103
sg153
Nsg154
(lp1125
I10
aI11
asg156
Nsg157
g1123
sg158
(lp1126
sg160
g64
sg161
Nsg162
Nsg163
Nsbag2
(g3
g4
Ntp1127
Rp1128
(dp1129
g8
g11
sg141
Nsg142
(dp1130
sg144
Nsg26
g29
sg145
(lp1131
I10
aI12
asg147
Nsg148
VTosefta Shabbat 10:12
p1132
sg150
(lp1133
sg152
g103
sg153
Nsg154
(lp1134
I10
aI12
asg156
Nsg157
g1132
sg158
(lp1135
sg160
g64
sg161
Nsg162
Nsg163
Nsbag2
(g3
g4
Ntp1136
Rp1137
(dp1138
g8
g11
sg141
Nsg142
(dp1139
sg144
Nsg26
g29
sg145
(lp1140
I10
aI13
asg147
Nsg148
VTosefta Shabbat 10:13
p1141
sg150
(lp1142
sg152
g103
sg153
Nsg154
(lp1143
I10
aI13
asg156
Nsg157
g1141
sg158
(lp1144
sg160
g64
sg161
Nsg162
Nsg163
Nsbag2
(g3
g4
Ntp1145
Rp1146
(dp1147
g8
g11
sg141
Nsg142
(dp1148
sg144
Nsg26
g29
sg145
(lp1149
I10
aI14
asg147
Nsg148
VTosefta Shabbat 10:14
p1150
sg150
(lp1151
sg152
g103
sg153
Nsg154
(lp1152
I10
aI14
asg156
Nsg157
g1150
sg158
(lp1153
sg160
g64
sg161
Nsg162
Nsg163
Nsbag2
(g3
g4
Ntp1154
Rp1155
(dp1156
g8
g11
sg141
Nsg142
(dp1157
sg144
Nsg26
g29
sg145
(lp1158
I11
aI1
asg147
Nsg148
VTosefta Shabbat 11:1
p1159
sg150
(lp1160
sg152
g103
sg153
Nsg154
(lp1161
I11
aI1
asg156
Nsg157
g1159
sg158
(lp1162
sg160
g64
sg161
Nsg162
Nsg163
Nsbag2
(g3
g4
Ntp1163
Rp1164
(dp1165
g8
g11
sg141
Nsg142
(dp1166
sg144
Nsg26
g29
sg145
(lp1167
I11
aI2
asg147
Nsg148
VTosefta Shabbat 11:2
p1168
sg150
(lp1169
sg152
g103
sg153
Nsg154
(lp1170
I11
aI2
asg156
Nsg157
g1168
sg158
(lp1171
sg160
g64
sg161
Nsg162
Nsg163
Nsbag2
(g3
g4
Ntp1172
Rp1173
(dp1174
g8
g11
sg141
Nsg142
(dp1175
sg144
Nsg26
g29
sg145
(lp1176
I11
aI3
asg147
Nsg148
VTosefta Shabbat 11:3
p1177
sg150
(lp1178
sg152
g103
sg153
Nsg154
(lp1179
I11
aI3
asg156
Nsg157
g1177
sg158
(lp1180
sg160
g64
sg161
Nsg162
Nsg163
Nsbag2
(g3
g4
Ntp1181
Rp1182
(dp1183
g8
g11
sg141
Nsg142
(dp1184
sg144
Nsg26
g29
sg145
(lp1185
I11
aI4
asg147
Nsg148
VTosefta Shabbat 11:4
p1186
sg150
(lp1187
sg152
g103
sg153
Nsg154
(lp1188
I11
aI4
asg156
Nsg157
g1186
sg158
(lp1189
sg160
g64
sg161
Nsg162
Nsg163
Nsbag2
(g3
g4
Ntp1190
Rp1191
(dp1192
g8
g11
sg141
Nsg142
(dp1193
sg144
Nsg26
g29
sg145
(lp1194
I11
aI5
asg147
Nsg148
VTosefta Shabbat 11:5
p1195
sg150
(lp1196
sg152
g103
sg153
Nsg154
(lp1197
I11
aI5
asg156
Nsg157
g1195
sg158
(lp1198
sg160
g64
sg161
Nsg162
Nsg163
Nsbag2
(g3
g4
Ntp1199
Rp1200
(dp1201
g8
g11
sg141
Nsg142
(dp1202
sg144
Nsg26
g29
sg145
(lp1203
I11
aI6
asg147
Nsg148
VTosefta Shabbat 11:6
p1204
sg150
(lp1205
sg152
g103
sg153
Nsg154
(lp1206
I11
aI6
asg156
Nsg157
g1204
sg158
(lp1207
sg160
g64
sg161
Nsg162
Nsg163
Nsbag2
(g3
g4
Ntp1208
Rp1209
(dp1210
g8
g11
sg141
Nsg142
(dp1211
sg144
Nsg26
g29
sg145
(lp1212
I11
aI7
asg147
Nsg148
VTosefta Shabbat 11:7
p1213
sg150
(lp1214
sg152
g103
sg153
Nsg154
(lp1215
I11
aI7
asg156
Nsg157
g1213
sg158
(lp1216
sg160
g64
sg161
Nsg162
Nsg163
Nsbag2
(g3
g4
Ntp1217
Rp1218
(dp1219
g8
g11
sg141
Nsg142
(dp1220
sg144
Nsg26
g29
sg145
(lp1221
I11
aI8
asg147
Nsg148
VTosefta Shabbat 11:8
p1222
sg150
(lp1223
sg152
g103
sg153
Nsg154
(lp1224
I11
aI8
asg156
Nsg157
g1222
sg158
(lp1225
sg160
g64
sg161
Nsg162
Nsg163
Nsbag2
(g3
g4
Ntp1226
Rp1227
(dp1228
g8
g11
sg141
Nsg142
(dp1229
sg144
Nsg26
g29
sg145
(lp1230
I11
aI9
asg147
Nsg148
VTosefta Shabbat 11:9
p1231
sg150
(lp1232
sg152
g103
sg153
Nsg154
(lp1233
I11
aI9
asg156
Nsg157
g1231
sg158
(lp1234
sg160
g64
sg161
Nsg162
Nsg163
Nsbag2
(g3
g4
Ntp1235
Rp1236
(dp1237
g8
g11
sg141
Nsg142
(dp1238
sg144
Nsg26
g29
sg145
(lp1239
I11
aI10
asg147
Nsg148
VTosefta Shabbat 11:10
p1240
sg150
(lp1241
sg152
g103
sg153
Nsg154
(lp1242
I11
aI10
asg156
Nsg157
g1240
sg158
(lp1243
sg160
g64
sg161
Nsg162
Nsg163
Nsbag2
(g3
g4
Ntp1244
Rp1245
(dp1246
g8
g11
sg141
Nsg142
(dp1247
sg144
Nsg26
g29
sg145
(lp1248
I11
aI11
asg147
Nsg148
VTosefta Shabbat 11:11
p1249
sg150
(lp1250
sg152
g103
sg153
Nsg154
(lp1251
I11
aI11
asg156
Nsg157
g1249
sg158
(lp1252
sg160
g64
sg161
Nsg162
Nsg163
Nsbag2
(g3
g4
Ntp1253
Rp1254
(dp1255
g8
g11
sg141
Nsg142
(dp1256
sg144
Nsg26
g29
sg145
(lp1257
I11
aI12
asg147
Nsg148
VTosefta Shabbat 11:12
p1258
sg150
(lp1259
sg152
g103
sg153
Nsg154
(lp1260
I11
aI12
asg156
Nsg157
g1258
sg158
(lp1261
sg160
g64
sg161
Nsg162
Nsg163
Nsbag2
(g3
g4
Ntp1262
Rp1263
(dp1264
g8
g11
sg141
Nsg142
(dp1265
sg144
Nsg26
g29
sg145
(lp1266
I11
aI13
asg147
Nsg148
VTosefta Shabbat 11:13
p1267
sg150
(lp1268
sg152
g103
sg153
Nsg154
(lp1269
I11
aI13
asg156
Nsg157
g1267
sg158
(lp1270
sg160
g64
sg161
Nsg162
Nsg163
Nsbag2
(g3
g4
Ntp1271
Rp1272
(dp1273
g8
g11
sg141
Nsg142
(dp1274
sg144
Nsg26
g29
sg145
(lp1275
I12
aI1
asg147
Nsg148
VTosefta Shabbat 12:1
p1276
sg150
(lp1277
sg152
g103
sg153
Nsg154
(lp1278
I12
aI1
asg156
Nsg157
g1276
sg158
(lp1279
sg160
g64
sg161
Nsg162
Nsg163
Nsbag2
(g3
g4
Ntp1280
Rp1281
(dp1282
g8
g11
sg141
Nsg142
(dp1283
sg144
Nsg26
g29
sg145
(lp1284
I12
aI2
asg147
Nsg148
VTosefta Shabbat 12:2
p1285
sg150
(lp1286
sg152
g103
sg153
Nsg154
(lp1287
I12
aI2
asg156
Nsg157
g1285
sg158
(lp1288
sg160
g64
sg161
Nsg162
Nsg163
Nsbag2
(g3
g4
Ntp1289
Rp1290
(dp1291
g8
g11
sg141
Nsg142
(dp1292
sg144
Nsg26
g29
sg145
(lp1293
I12
aI3
asg147
Nsg148
VTosefta Shabbat 12:3
p1294
sg150
(lp1295
sg152
g103
sg153
Nsg154
(lp1296
I12
aI3
asg156
Nsg157
g1294
sg158
(lp1297
sg160
g64
sg161
Nsg162
Nsg163
Nsbag2
(g3
g4
Ntp1298
Rp1299
(dp1300
g8
g11
sg141
Nsg142
(dp1301
sg144
Nsg26
g29
sg145
(lp1302
I12
aI4
asg147
Nsg148
VTosefta Shabbat 12:4
p1303
sg150
(lp1304
sg152
g103
sg153
Nsg154
(lp1305
I12
aI4
asg156
Nsg157
g1303
sg158
(lp1306
sg160
g64
sg161
Nsg162
Nsg163
Nsbag2
(g3
g4
Ntp1307
Rp1308
(dp1309
g8
g11
sg141
Nsg142
(dp1310
sg144
Nsg26
g29
sg145
(lp1311
I12
aI5
asg147
Nsg148
VTosefta Shabbat 12:5
p1312
sg150
(lp1313
sg152
g103
sg153
Nsg154
(lp1314
I12
aI5
asg156
Nsg157
g1312
sg158
(lp1315
sg160
g64
sg161
Nsg162
Nsg163
Nsbag2
(g3
g4
Ntp1316
Rp1317
(dp1318
g8
g11
sg141
Nsg142
(dp1319
sg144
Nsg26
g29
sg145
(lp1320
I12
aI6
asg147
Nsg148
VTosefta Shabbat 12:6
p1321
sg150
(lp1322
sg152
g103
sg153
Nsg154
(lp1323
I12
aI6
asg156
Nsg157
g1321
sg158
(lp1324
sg160
g64
sg161
Nsg162
Nsg163
Nsbag2
(g3
g4
Ntp1325
Rp1326
(dp1327
g8
g11
sg141
Nsg142
(dp1328
sg144
Nsg26
g29
sg145
(lp1329
I12
aI7
asg147
Nsg148
VTosefta Shabbat 12:7
p1330
sg150
(lp1331
sg152
g103
sg153
Nsg154
(lp1332
I12
aI7
asg156
Nsg157
g1330
sg158
(lp1333
sg160
g64
sg161
Nsg162
Nsg163
Nsbag2
(g3
g4
Ntp1334
Rp1335
(dp1336
g8
g11
sg141
Nsg142
(dp1337
sg144
Nsg26
g29
sg145
(lp1338
I12
aI8
asg147
Nsg148
VTosefta Shabbat 12:8
p1339
sg150
(lp1340
sg152
g103
sg153
Nsg154
(lp1341
I12
aI8
asg156
Nsg157
g1339
sg158
(lp1342
sg160
g64
sg161
Nsg162
Nsg163
Nsbag2
(g3
g4
Ntp1343
Rp1344
(dp1345
g8
g11
sg141
Nsg142
(dp1346
sg144
Nsg26
g29
sg145
(lp1347
I12
aI9
asg147
Nsg148
VTosefta Shabbat 12:9
p1348
sg150
(lp1349
sg152
g103
sg153
Nsg154
(lp1350
I12
aI9
asg156
Nsg157
g1348
sg158
(lp1351
sg160
g64
sg161
Nsg162
Nsg163
Nsbag2
(g3
g4
Ntp1352
Rp1353
(dp1354
g8
g11
sg141
Nsg142
(dp1355
sg144
Nsg26
g29
sg145
(lp1356
I12
aI10
asg147
Nsg148
VTosefta Shabbat 12:10
p1357
sg150
(lp1358
sg152
g103
sg153
Nsg154
(lp1359
I12
aI10
asg156
Nsg157
g1357
sg158
(lp1360
sg160
g64
sg161
Nsg162
Nsg163
Nsbag2
(g3
g4
Ntp1361
Rp1362
(dp1363
g8
g11
sg141
Nsg142
(dp1364
sg144
Nsg26
g29
sg145
(lp1365
I12
aI11
asg147
Nsg148
VTosefta Shabbat 12:11
p1366
sg150
(lp1367
sg152
g103
sg153
Nsg154
(lp1368
I12
aI11
asg156
Nsg157
g1366
sg158
(lp1369
sg160
g64
sg161
Nsg162
Nsg163
Nsbag2
(g3
g4
Ntp1370
Rp1371
(dp1372
g8
g11
sg141
Nsg142
(dp1373
sg144
Nsg26
g29
sg145
(lp1374
I12
aI12
asg147
Nsg148
VTosefta Shabbat 12:12
p1375
sg150
(lp1376
sg152
g103
sg153
Nsg154
(lp1377
I12
aI12
asg156
Nsg157
g1375
sg158
(lp1378
sg160
g64
sg161
Nsg162
Nsg163
Nsbag2
(g3
g4
Ntp1379
Rp1380
(dp1381
g8
g11
sg141
Nsg142
(dp1382
sg144
Nsg26
g29
sg145
(lp1383
I13
aI1
asg147
Nsg148
VTosefta Shabbat 13:1
p1384
sg150
(lp1385
sg152
g103
sg153
Nsg154
(lp1386
I13
aI1
asg156
Nsg157
g1384
sg158
(lp1387
sg160
g64
sg161
Nsg162
Nsg163
Nsbag2
(g3
g4
Ntp1388
Rp1389
(dp1390
g8
g11
sg141
Nsg142
(dp1391
sg144
Nsg26
g29
sg145
(lp1392
I13
aI2
asg147
Nsg148
VTosefta Shabbat 13:2
p1393
sg150
(lp1394
sg152
g103
sg153
Nsg154
(lp1395
I13
aI2
asg156
Nsg157
g1393
sg158
(lp1396
sg160
g64
sg161
Nsg162
Nsg163
Nsbag2
(g3
g4
Ntp1397
Rp1398
(dp1399
g8
g11
sg141
Nsg142
(dp1400
sg144
Nsg26
g29
sg145
(lp1401
I13
aI3
asg147
Nsg148
VTosefta Shabbat 13:3
p1402
sg150
(lp1403
sg152
g103
sg153
Nsg154
(lp1404
I13
aI3
asg156
Nsg157
g1402
sg158
(lp1405
sg160
g64
sg161
Nsg162
Nsg163
Nsbag2
(g3
g4
Ntp1406
Rp1407
(dp1408
g8
g11
sg141
Nsg142
(dp1409
sg144
Nsg26
g29
sg145
(lp1410
I13
aI4
asg147
Nsg148
VTosefta Shabbat 13:4
p1411
sg150
(lp1412
sg152
g103
sg153
Nsg154
(lp1413
I13
aI4
asg156
Nsg157
g1411
sg158
(lp1414
sg160
g64
sg161
Nsg162
Nsg163
Nsbag2
(g3
g4
Ntp1415
Rp1416
(dp1417
g8
g11
sg141
Nsg142
(dp1418
sg144
Nsg26
g29
sg145
(lp1419
I13
aI5
asg147
Nsg148
VTosefta Shabbat 13:5
p1420
sg150
(lp1421
sg152
g103
sg153
Nsg154
(lp1422
I13
aI5
asg156
Nsg157
g1420
sg158
(lp1423
sg160
g64
sg161
Nsg162
Nsg163
Nsbag2
(g3
g4
Ntp1424
Rp1425
(dp1426
g8
g11
sg141
Nsg142
(dp1427
sg144
Nsg26
g29
sg145
(lp1428
I13
aI6
asg147
Nsg148
VTosefta Shabbat 13:6
p1429
sg150
(lp1430
sg152
g103
sg153
Nsg154
(lp1431
I13
aI6
asg156
Nsg157
g1429
sg158
(lp1432
sg160
g64
sg161
Nsg162
Nsg163
Nsbag2
(g3
g4
Ntp1433
Rp1434
(dp1435
g8
g11
sg141
Nsg142
(dp1436
sg144
Nsg26
g29
sg145
(lp1437
I13
aI7
asg147
Nsg148
VTosefta Shabbat 13:7
p1438
sg150
(lp1439
sg152
g103
sg153
Nsg154
(lp1440
I13
aI7
asg156
Nsg157
g1438
sg158
(lp1441
sg160
g64
sg161
Nsg162
Nsg163
Nsbag2
(g3
g4
Ntp1442
Rp1443
(dp1444
g8
g11
sg141
Nsg142
(dp1445
sg144
Nsg26
g29
sg145
(lp1446
I13
aI8
asg147
Nsg148
VTosefta Shabbat 13:8
p1447
sg150
(lp1448
sg152
g103
sg153
Nsg154
(lp1449
I13
aI8
asg156
Nsg157
g1447
sg158
(lp1450
sg160
g64
sg161
Nsg162
Nsg163
Nsbag2
(g3
g4
Ntp1451
Rp1452
(dp1453
g8
g11
sg141
Nsg142
(dp1454
sg144
Nsg26
g29
sg145
(lp1455
I13
aI9
asg147
Nsg148
VTosefta Shabbat 13:9
p1456
sg150
(lp1457
sg152
g103
sg153
Nsg154
(lp1458
I13
aI9
asg156
Nsg157
g1456
sg158
(lp1459
sg160
g64
sg161
Nsg162
Nsg163
Nsbag2
(g3
g4
Ntp1460
Rp1461
(dp1462
g8
g11
sg141
Nsg142
(dp1463
sg144
Nsg26
g29
sg145
(lp1464
I13
aI10
asg147
Nsg148
VTosefta Shabbat 13:10
p1465
sg150
(lp1466
sg152
g103
sg153
Nsg154
(lp1467
I13
aI10
asg156
Nsg157
g1465
sg158
(lp1468
sg160
g64
sg161
Nsg162
Nsg163
Nsbag2
(g3
g4
Ntp1469
Rp1470
(dp1471
g8
g11
sg141
Nsg142
(dp1472
sg144
Nsg26
g29
sg145
(lp1473
I13
aI11
asg147
Nsg148
VTosefta Shabbat 13:11
p1474
sg150
(lp1475
sg152
g103
sg153
Nsg154
(lp1476
I13
aI11
asg156
Nsg157
g1474
sg158
(lp1477
sg160
g64
sg161
Nsg162
Nsg163
Nsbag2
(g3
g4
Ntp1478
Rp1479
(dp1480
g8
g11
sg141
Nsg142
(dp1481
sg144
Nsg26
g29
sg145
(lp1482
I13
aI12
asg147
Nsg148
VTosefta Shabbat 13:12
p1483
sg150
(lp1484
sg152
g103
sg153
Nsg154
(lp1485
I13
aI12
asg156
Nsg157
g1483
sg158
(lp1486
sg160
g64
sg161
Nsg162
Nsg163
Nsbag2
(g3
g4
Ntp1487
Rp1488
(dp1489
g8
g11
sg141
Nsg142
(dp1490
sg144
Nsg26
g29
sg145
(lp1491
I13
aI13
asg147
Nsg148
VTosefta Shabbat 13:13
p1492
sg150
(lp1493
sg152
g103
sg153
Nsg154
(lp1494
I13
aI13
asg156
Nsg157
g1492
sg158
(lp1495
sg160
g64
sg161
Nsg162
Nsg163
Nsbag2
(g3
g4
Ntp1496
Rp1497
(dp1498
g8
g11
sg141
Nsg142
(dp1499
sg144
Nsg26
g29
sg145
(lp1500
I13
aI14
asg147
Nsg148
VTosefta Shabbat 13:14
p1501
sg150
(lp1502
sg152
g103
sg153
Nsg154
(lp1503
I13
aI14
asg156
Nsg157
g1501
sg158
(lp1504
sg160
g64
sg161
Nsg162
Nsg163
Nsbag2
(g3
g4
Ntp1505
Rp1506
(dp1507
g8
g11
sg141
Nsg142
(dp1508
sg144
Nsg26
g29
sg145
(lp1509
I13
aI15
asg147
Nsg148
VTosefta Shabbat 13:15
p1510
sg150
(lp1511
sg152
g103
sg153
Nsg154
(lp1512
I13
aI15
asg156
Nsg157
g1510
sg158
(lp1513
sg160
g64
sg161
Nsg162
Nsg163
Nsbag2
(g3
g4
Ntp1514
Rp1515
(dp1516
g8
g11
sg141
Nsg142
(dp1517
sg144
Nsg26
g29
sg145
(lp1518
I13
aI16
asg147
Nsg148
VTosefta Shabbat 13:16
p1519
sg150
(lp1520
sg152
g103
sg153
Nsg154
(lp1521
I13
aI16
asg156
Nsg157
g1519
sg158
(lp1522
sg160
g64
sg161
Nsg162
Nsg163
Nsbag2
(g3
g4
Ntp1523
Rp1524
(dp1525
g8
g11
sg141
Nsg142
(dp1526
sg144
Nsg26
g29
sg145
(lp1527
I13
aI17
asg147
Nsg148
VTosefta Shabbat 13:17
p1528
sg150
(lp1529
sg152
g103
sg153
Nsg154
(lp1530
I13
aI17
asg156
Nsg157
g1528
sg158
(lp1531
sg160
g64
sg161
Nsg162
Nsg163
Nsbag2
(g3
g4
Ntp1532
Rp1533
(dp1534
g8
g11
sg141
Nsg142
(dp1535
sg144
Nsg26
g29
sg145
(lp1536
I13
aI18
asg147
Nsg148
VTosefta Shabbat 13:18
p1537
sg150
(lp1538
sg152
g103
sg153
Nsg154
(lp1539
I13
aI18
asg156
Nsg157
g1537
sg158
(lp1540
sg160
g64
sg161
Nsg162
Nsg163
Nsbag2
(g3
g4
Ntp1541
Rp1542
(dp1543
g8
g11
sg141
Nsg142
(dp1544
sg144
Nsg26
g29
sg145
(lp1545
I13
aI19
asg147
Nsg148
VTosefta Shabbat 13:19
p1546
sg150
(lp1547
sg152
g103
sg153
Nsg154
(lp1548
I13
aI19
asg156
Nsg157
g1546
sg158
(lp1549
sg160
g64
sg161
Nsg162
Nsg163
Nsbag2
(g3
g4
Ntp1550
Rp1551
(dp1552
g8
g11
sg141
Nsg142
(dp1553
sg144
Nsg26
g29
sg145
(lp1554
I14
aI1
asg147
Nsg148
VTosefta Shabbat 14:1
p1555
sg150
(lp1556
sg152
g103
sg153
Nsg154
(lp1557
I14
aI1
asg156
Nsg157
g1555
sg158
(lp1558
sg160
g64
sg161
Nsg162
Nsg163
Nsbag2
(g3
g4
Ntp1559
Rp1560
(dp1561
g8
g11
sg141
Nsg142
(dp1562
sg144
Nsg26
g29
sg145
(lp1563
I14
aI2
asg147
Nsg148
VTosefta Shabbat 14:2
p1564
sg150
(lp1565
sg152
g103
sg153
Nsg154
(lp1566
I14
aI2
asg156
Nsg157
g1564
sg158
(lp1567
sg160
g64
sg161
Nsg162
Nsg163
Nsbag2
(g3
g4
Ntp1568
Rp1569
(dp1570
g8
g11
sg141
Nsg142
(dp1571
sg144
Nsg26
g29
sg145
(lp1572
I14
aI3
asg147
Nsg148
VTosefta Shabbat 14:3
p1573
sg150
(lp1574
sg152
g103
sg153
Nsg154
(lp1575
I14
aI3
asg156
Nsg157
g1573
sg158
(lp1576
sg160
g64
sg161
Nsg162
Nsg163
Nsbag2
(g3
g4
Ntp1577
Rp1578
(dp1579
g8
g11
sg141
Nsg142
(dp1580
sg144
Nsg26
g29
sg145
(lp1581
I14
aI4
asg147
Nsg148
VTosefta Shabbat 14:4
p1582
sg150
(lp1583
sg152
g103
sg153
Nsg154
(lp1584
I14
aI4
asg156
Nsg157
g1582
sg158
(lp1585
sg160
g64
sg161
Nsg162
Nsg163
Nsbag2
(g3
g4
Ntp1586
Rp1587
(dp1588
g8
g11
sg141
Nsg142
(dp1589
sg144
Nsg26
g29
sg145
(lp1590
I14
aI5
asg147
Nsg148
VTosefta Shabbat 14:5
p1591
sg150
(lp1592
sg152
g103
sg153
Nsg154
(lp1593
I14
aI5
asg156
Nsg157
g1591
sg158
(lp1594
sg160
g64
sg161
Nsg162
Nsg163
Nsbag2
(g3
g4
Ntp1595
Rp1596
(dp1597
g8
g11
sg141
Nsg142
(dp1598
sg144
Nsg26
g29
sg145
(lp1599
I14
aI6
asg147
Nsg148
VTosefta Shabbat 14:6
p1600
sg150
(lp1601
sg152
g103
sg153
Nsg154
(lp1602
I14
aI6
asg156
Nsg157
g1600
sg158
(lp1603
sg160
g64
sg161
Nsg162
Nsg163
Nsbag2
(g3
g4
Ntp1604
Rp1605
(dp1606
g8
g11
sg141
Nsg142
(dp1607
sg144
Nsg26
g29
sg145
(lp1608
I14
aI7
asg147
Nsg148
VTosefta Shabbat 14:7
p1609
sg150
(lp1610
sg152
g103
sg153
Nsg154
(lp1611
I14
aI7
asg156
Nsg157
g1609
sg158
(lp1612
sg160
g64
sg161
Nsg162
Nsg163
Nsbag2
(g3
g4
Ntp1613
Rp1614
(dp1615
g8
g11
sg141
Nsg142
(dp1616
sg144
Nsg26
g29
sg145
(lp1617
I14
aI8
asg147
Nsg148
VTosefta Shabbat 14:8
p1618
sg150
(lp1619
sg152
g103
sg153
Nsg154
(lp1620
I14
aI8
asg156
Nsg157
g1618
sg158
(lp1621
sg160
g64
sg161
Nsg162
Nsg163
Nsbag2
(g3
g4
Ntp1622
Rp1623
(dp1624
g8
g11
sg141
Nsg142
(dp1625
sg144
Nsg26
g29
sg145
(lp1626
I14
aI9
asg147
Nsg148
VTosefta Shabbat 14:9
p1627
sg150
(lp1628
sg152
g103
sg153
Nsg154
(lp1629
I14
aI9
asg156
Nsg157
g1627
sg158
(lp1630
sg160
g64
sg161
Nsg162
Nsg163
Nsbag2
(g3
g4
Ntp1631
Rp1632
(dp1633
g8
g11
sg141
Nsg142
(dp1634
sg144
Nsg26
g29
sg145
(lp1635
I14
aI10
asg147
Nsg148
VTosefta Shabbat 14:10
p1636
sg150
(lp1637
sg152
g103
sg153
Nsg154
(lp1638
I14
aI10
asg156
Nsg157
g1636
sg158
(lp1639
sg160
g64
sg161
Nsg162
Nsg163
Nsbag2
(g3
g4
Ntp1640
Rp1641
(dp1642
g8
g11
sg141
Nsg142
(dp1643
sg144
Nsg26
g29
sg145
(lp1644
I14
aI11
asg147
Nsg148
VTosefta Shabbat 14:11
p1645
sg150
(lp1646
sg152
g103
sg153
Nsg154
(lp1647
I14
aI11
asg156
Nsg157
g1645
sg158
(lp1648
sg160
g64
sg161
Nsg162
Nsg163
Nsbag2
(g3
g4
Ntp1649
Rp1650
(dp1651
g8
g11
sg141
Nsg142
(dp1652
sg144
Nsg26
g29
sg145
(lp1653
I14
aI12
asg147
Nsg148
VTosefta Shabbat 14:12
p1654
sg150
(lp1655
sg152
g103
sg153
Nsg154
(lp1656
I14
aI12
asg156
Nsg157
g1654
sg158
(lp1657
sg160
g64
sg161
Nsg162
Nsg163
Nsbag2
(g3
g4
Ntp1658
Rp1659
(dp1660
g8
g11
sg141
Nsg142
(dp1661
sg144
Nsg26
g29
sg145
(lp1662
I14
aI13
asg147
Nsg148
VTosefta Shabbat 14:13
p1663
sg150
(lp1664
sg152
g103
sg153
Nsg154
(lp1665
I14
aI13
asg156
Nsg157
g1663
sg158
(lp1666
sg160
g64
sg161
Nsg162
Nsg163
Nsbag2
(g3
g4
Ntp1667
Rp1668
(dp1669
g8
g11
sg141
Nsg142
(dp1670
sg144
Nsg26
g29
sg145
(lp1671
I14
aI14
asg147
Nsg148
VTosefta Shabbat 14:14
p1672
sg150
(lp1673
sg152
g103
sg153
Nsg154
(lp1674
I14
aI14
asg156
Nsg157
g1672
sg158
(lp1675
sg160
g64
sg161
Nsg162
Nsg163
Nsbag2
(g3
g4
Ntp1676
Rp1677
(dp1678
g8
g11
sg141
Nsg142
(dp1679
sg144
Nsg26
g29
sg145
(lp1680
I14
aI15
asg147
Nsg148
VTosefta Shabbat 14:15
p1681
sg150
(lp1682
sg152
g103
sg153
Nsg154
(lp1683
I14
aI15
asg156
Nsg157
g1681
sg158
(lp1684
sg160
g64
sg161
Nsg162
Nsg163
Nsbag2
(g3
g4
Ntp1685
Rp1686
(dp1687
g8
g11
sg141
Nsg142
(dp1688
sg144
Nsg26
g29
sg145
(lp1689
I14
aI16
asg147
Nsg148
VTosefta Shabbat 14:16
p1690
sg150
(lp1691
sg152
g103
sg153
Nsg154
(lp1692
I14
aI16
asg156
Nsg157
g1690
sg158
(lp1693
sg160
g64
sg161
Nsg162
Nsg163
Nsbag2
(g3
g4
Ntp1694
Rp1695
(dp1696
g8
g11
sg141
Nsg142
(dp1697
sg144
Nsg26
g29
sg145
(lp1698
I15
aI1
asg147
Nsg148
VTosefta Shabbat 15:1
p1699
sg150
(lp1700
sg152
g103
sg153
Nsg154
(lp1701
I15
aI1
asg156
Nsg157
g1699
sg158
(lp1702
sg160
g64
sg161
Nsg162
Nsg163
Nsbag2
(g3
g4
Ntp1703
Rp1704
(dp1705
g8
g11
sg141
Nsg142
(dp1706
sg144
Nsg26
g29
sg145
(lp1707
I15
aI2
asg147
Nsg148
VTosefta Shabbat 15:2
p1708
sg150
(lp1709
sg152
g103
sg153
Nsg154
(lp1710
I15
aI2
asg156
Nsg157
g1708
sg158
(lp1711
sg160
g64
sg161
Nsg162
Nsg163
Nsbag2
(g3
g4
Ntp1712
Rp1713
(dp1714
g8
g11
sg141
Nsg142
(dp1715
sg144
Nsg26
g29
sg145
(lp1716
I15
aI3
asg147
Nsg148
VTosefta Shabbat 15:3
p1717
sg150
(lp1718
sg152
g103
sg153
Nsg154
(lp1719
I15
aI3
asg156
Nsg157
g1717
sg158
(lp1720
sg160
g64
sg161
Nsg162
Nsg163
Nsbag2
(g3
g4
Ntp1721
Rp1722
(dp1723
g8
g11
sg141
Nsg142
(dp1724
sg144
Nsg26
g29
sg145
(lp1725
I15
aI4
asg147
Nsg148
VTosefta Shabbat 15:4
p1726
sg150
(lp1727
sg152
g103
sg153
Nsg154
(lp1728
I15
aI4
asg156
Nsg157
g1726
sg158
(lp1729
sg160
g64
sg161
Nsg162
Nsg163
Nsbag2
(g3
g4
Ntp1730
Rp1731
(dp1732
g8
g11
sg141
Nsg142
(dp1733
sg144
Nsg26
g29
sg145
(lp1734
I15
aI5
asg147
Nsg148
VTosefta Shabbat 15:5
p1735
sg150
(lp1736
sg152
g103
sg153
Nsg154
(lp1737
I15
aI5
asg156
Nsg157
g1735
sg158
(lp1738
sg160
g64
sg161
Nsg162
Nsg163
Nsbag2
(g3
g4
Ntp1739
Rp1740
(dp1741
g8
g11
sg141
Nsg142
(dp1742
sg144
Nsg26
g29
sg145
(lp1743
I15
aI6
asg147
Nsg148
VTosefta Shabbat 15:6
p1744
sg150
(lp1745
sg152
g103
sg153
Nsg154
(lp1746
I15
aI6
asg156
Nsg157
g1744
sg158
(lp1747
sg160
g64
sg161
Nsg162
Nsg163
Nsbag2
(g3
g4
Ntp1748
Rp1749
(dp1750
g8
g11
sg141
Nsg142
(dp1751
sg144
Nsg26
g29
sg145
(lp1752
I15
aI7
asg147
Nsg148
VTosefta Shabbat 15:7
p1753
sg150
(lp1754
sg152
g103
sg153
Nsg154
(lp1755
I15
aI7
asg156
Nsg157
g1753
sg158
(lp1756
sg160
g64
sg161
Nsg162
Nsg163
Nsbag2
(g3
g4
Ntp1757
Rp1758
(dp1759
g8
g11
sg141
Nsg142
(dp1760
sg144
Nsg26
g29
sg145
(lp1761
I15
aI8
asg147
Nsg148
VTosefta Shabbat 15:8
p1762
sg150
(lp1763
sg152
g103
sg153
Nsg154
(lp1764
I15
aI8
asg156
Nsg157
g1762
sg158
(lp1765
sg160
g64
sg161
Nsg162
Nsg163
Nsbag2
(g3
g4
Ntp1766
Rp1767
(dp1768
g8
g11
sg141
Nsg142
(dp1769
sg144
Nsg26
g29
sg145
(lp1770
I15
aI9
asg147
Nsg148
VTosefta Shabbat 15:9
p1771
sg150
(lp1772
sg152
g103
sg153
Nsg154
(lp1773
I15
aI9
asg156
Nsg157
g1771
sg158
(lp1774
sg160
g64
sg161
Nsg162
Nsg163
Nsbag2
(g3
g4
Ntp1775
Rp1776
(dp1777
g8
g11
sg141
Nsg142
(dp1778
sg144
Nsg26
g29
sg145
(lp1779
I15
aI10
asg147
Nsg148
VTosefta Shabbat 15:10
p1780
sg150
(lp1781
sg152
g103
sg153
Nsg154
(lp1782
I15
aI10
asg156
Nsg157
g1780
sg158
(lp1783
sg160
g64
sg161
Nsg162
Nsg163
Nsbag2
(g3
g4
Ntp1784
Rp1785
(dp1786
g8
g11
sg141
Nsg142
(dp1787
sg144
Nsg26
g29
sg145
(lp1788
I15
aI11
asg147
Nsg148
VTosefta Shabbat 15:11
p1789
sg150
(lp1790
sg152
g103
sg153
Nsg154
(lp1791
I15
aI11
asg156
Nsg157
g1789
sg158
(lp1792
sg160
g64
sg161
Nsg162
Nsg163
Nsbag2
(g3
g4
Ntp1793
Rp1794
(dp1795
g8
g11
sg141
Nsg142
(dp1796
sg144
Nsg26
g29
sg145
(lp1797
I15
aI12
asg147
Nsg148
VTosefta Shabbat 15:12
p1798
sg150
(lp1799
sg152
g103
sg153
Nsg154
(lp1800
I15
aI12
asg156
Nsg157
g1798
sg158
(lp1801
sg160
g64
sg161
Nsg162
Nsg163
Nsbag2
(g3
g4
Ntp1802
Rp1803
(dp1804
g8
g11
sg141
Nsg142
(dp1805
sg144
Nsg26
g29
sg145
(lp1806
I15
aI13
asg147
Nsg148
VTosefta Shabbat 15:13
p1807
sg150
(lp1808
sg152
g103
sg153
Nsg154
(lp1809
I15
aI13
asg156
Nsg157
g1807
sg158
(lp1810
sg160
g64
sg161
Nsg162
Nsg163
Nsbag2
(g3
g4
Ntp1811
Rp1812
(dp1813
g8
g11
sg141
Nsg142
(dp1814
sg144
Nsg26
g29
sg145
(lp1815
I15
aI14
asg147
Nsg148
VTosefta Shabbat 15:14
p1816
sg150
(lp1817
sg152
g103
sg153
Nsg154
(lp1818
I15
aI14
asg156
Nsg157
g1816
sg158
(lp1819
sg160
g64
sg161
Nsg162
Nsg163
Nsbag2
(g3
g4
Ntp1820
Rp1821
(dp1822
g8
g11
sg141
Nsg142
(dp1823
sg144
Nsg26
g29
sg145
(lp1824
I16
aI1
asg147
Nsg148
VTosefta Shabbat 16:1
p1825
sg150
(lp1826
sg152
g103
sg153
Nsg154
(lp1827
I16
aI1
asg156
Nsg157
g1825
sg158
(lp1828
sg160
g64
sg161
Nsg162
Nsg163
Nsbag2
(g3
g4
Ntp1829
Rp1830
(dp1831
g8
g11
sg141
Nsg142
(dp1832
sg144
Nsg26
g29
sg145
(lp1833
I16
aI2
asg147
Nsg148
VTosefta Shabbat 16:2
p1834
sg150
(lp1835
sg152
g103
sg153
Nsg154
(lp1836
I16
aI2
asg156
Nsg157
g1834
sg158
(lp1837
sg160
g64
sg161
Nsg162
Nsg163
Nsbag2
(g3
g4
Ntp1838
Rp1839
(dp1840
g8
g11
sg141
Nsg142
(dp1841
sg144
Nsg26
g29
sg145
(lp1842
I16
aI3
asg147
Nsg148
VTosefta Shabbat 16:3
p1843
sg150
(lp1844
sg152
g103
sg153
Nsg154
(lp1845
I16
aI3
asg156
Nsg157
g1843
sg158
(lp1846
sg160
g64
sg161
Nsg162
Nsg163
Nsbag2
(g3
g4
Ntp1847
Rp1848
(dp1849
g8
g11
sg141
Nsg142
(dp1850
sg144
Nsg26
g29
sg145
(lp1851
I16
aI4
asg147
Nsg148
VTosefta Shabbat 16:4
p1852
sg150
(lp1853
sg152
g103
sg153
Nsg154
(lp1854
I16
aI4
asg156
Nsg157
g1852
sg158
(lp1855
sg160
g64
sg161
Nsg162
Nsg163
Nsbag2
(g3
g4
Ntp1856
Rp1857
(dp1858
g8
g11
sg141
Nsg142
(dp1859
sg144
Nsg26
g29
sg145
(lp1860
I16
aI5
asg147
Nsg148
VTosefta Shabbat 16:5
p1861
sg150
(lp1862
sg152
g103
sg153
Nsg154
(lp1863
I16
aI5
asg156
Nsg157
g1861
sg158
(lp1864
sg160
g64
sg161
Nsg162
Nsg163
Nsbag2
(g3
g4
Ntp1865
Rp1866
(dp1867
g8
g11
sg141
Nsg142
(dp1868
sg144
Nsg26
g29
sg145
(lp1869
I16
aI6
asg147
Nsg148
VTosefta Shabbat 16:6
p1870
sg150
(lp1871
sg152
g103
sg153
Nsg154
(lp1872
I16
aI6
asg156
Nsg157
g1870
sg158
(lp1873
sg160
g64
sg161
Nsg162
Nsg163
Nsbag2
(g3
g4
Ntp1874
Rp1875
(dp1876
g8
g11
sg141
Nsg142
(dp1877
sg144
Nsg26
g29
sg145
(lp1878
I16
aI7
asg147
Nsg148
VTosefta Shabbat 16:7
p1879
sg150
(lp1880
sg152
g103
sg153
Nsg154
(lp1881
I16
aI7
asg156
Nsg157
g1879
sg158
(lp1882
sg160
g64
sg161
Nsg162
Nsg163
Nsbag2
(g3
g4
Ntp1883
Rp1884
(dp1885
g8
g11
sg141
Nsg142
(dp1886
sg144
Nsg26
g29
sg145
(lp1887
I16
aI8
asg147
Nsg148
VTosefta Shabbat 16:8
p1888
sg150
(lp1889
sg152
g103
sg153
Nsg154
(lp1890
I16
aI8
asg156
Nsg157
g1888
sg158
(lp1891
sg160
g64
sg161
Nsg162
Nsg163
Nsbag2
(g3
g4
Ntp1892
Rp1893
(dp1894
g8
g11
sg141
Nsg142
(dp1895
sg144
Nsg26
g29
sg145
(lp1896
I16
aI9
asg147
Nsg148
VTosefta Shabbat 16:9
p1897
sg150
(lp1898
sg152
g103
sg153
Nsg154
(lp1899
I16
aI9
asg156
Nsg157
g1897
sg158
(lp1900
sg160
g64
sg161
Nsg162
Nsg163
Nsbag2
(g3
g4
Ntp1901
Rp1902
(dp1903
g8
g11
sg141
Nsg142
(dp1904
sg144
Nsg26
g29
sg145
(lp1905
I16
aI10
asg147
Nsg148
VTosefta Shabbat 16:10
p1906
sg150
(lp1907
sg152
g103
sg153
Nsg154
(lp1908
I16
aI10
asg156
Nsg157
g1906
sg158
(lp1909
sg160
g64
sg161
Nsg162
Nsg163
Nsbag2
(g3
g4
Ntp1910
Rp1911
(dp1912
g8
g11
sg141
Nsg142
(dp1913
sg144
Nsg26
g29
sg145
(lp1914
I16
aI11
asg147
Nsg148
VTosefta Shabbat 16:11
p1915
sg150
(lp1916
sg152
g103
sg153
Nsg154
(lp1917
I16
aI11
asg156
Nsg157
g1915
sg158
(lp1918
sg160
g64
sg161
Nsg162
Nsg163
Nsbag2
(g3
g4
Ntp1919
Rp1920
(dp1921
g8
g11
sg141
Nsg142
(dp1922
sg144
Nsg26
g29
sg145
(lp1923
I16
aI12
asg147
Nsg148
VTosefta Shabbat 16:12
p1924
sg150
(lp1925
sg152
g103
sg153
Nsg154
(lp1926
I16
aI12
asg156
Nsg157
g1924
sg158
(lp1927
sg160
g64
sg161
Nsg162
Nsg163
Nsbag2
(g3
g4
Ntp1928
Rp1929
(dp1930
g8
g11
sg141
Nsg142
(dp1931
sg144
Nsg26
g29
sg145
(lp1932
I16
aI13
asg147
Nsg148
VTosefta Shabbat 16:13
p1933
sg150
(lp1934
sg152
g103
sg153
Nsg154
(lp1935
I16
aI13
asg156
Nsg157
g1933
sg158
(lp1936
sg160
g64
sg161
Nsg162
Nsg163
Nsbag2
(g3
g4
Ntp1937
Rp1938
(dp1939
g8
g11
sg141
Nsg142
(dp1940
sg144
Nsg26
g29
sg145
(lp1941
I16
aI14
asg147
Nsg148
VTosefta Shabbat 16:14
p1942
sg150
(lp1943
sg152
g103
sg153
Nsg154
(lp1944
I16
aI14
asg156
Nsg157
g1942
sg158
(lp1945
sg160
g64
sg161
Nsg162
Nsg163
Nsbag2
(g3
g4
Ntp1946
Rp1947
(dp1948
g8
g11
sg141
Nsg142
(dp1949
sg144
Nsg26
g29
sg145
(lp1950
I17
aI1
asg147
Nsg148
VTosefta Shabbat 17:1
p1951
sg150
(lp1952
sg152
g103
sg153
Nsg154
(lp1953
I17
aI1
asg156
Nsg157
g1951
sg158
(lp1954
sg160
g64
sg161
Nsg162
Nsg163
Nsbag2
(g3
g4
Ntp1955
Rp1956
(dp1957
g8
g11
sg141
Nsg142
(dp1958
sg144
Nsg26
g29
sg145
(lp1959
I17
aI2
asg147
Nsg148
VTosefta Shabbat 17:2
p1960
sg150
(lp1961
sg152
g103
sg153
Nsg154
(lp1962
I17
aI2
asg156
Nsg157
g1960
sg158
(lp1963
sg160
g64
sg161
Nsg162
Nsg163
Nsbag2
(g3
g4
Ntp1964
Rp1965
(dp1966
g8
g11
sg141
Nsg142
(dp1967
sg144
Nsg26
g29
sg145
(lp1968
I17
aI3
asg147
Nsg148
VTosefta Shabbat 17:3
p1969
sg150
(lp1970
sg152
g103
sg153
Nsg154
(lp1971
I17
aI3
asg156
Nsg157
g1969
sg158
(lp1972
sg160
g64
sg161
Nsg162
Nsg163
Nsbag2
(g3
g4
Ntp1973
Rp1974
(dp1975
g8
g11
sg141
Nsg142
(dp1976
sg144
Nsg26
g29
sg145
(lp1977
I17
aI4
asg147
Nsg148
VTosefta Shabbat 17:4
p1978
sg150
(lp1979
sg152
g103
sg153
Nsg154
(lp1980
I17
aI4
asg156
Nsg157
g1978
sg158
(lp1981
sg160
g64
sg161
Nsg162
Nsg163
Nsbag2
(g3
g4
Ntp1982
Rp1983
(dp1984
g8
g11
sg141
Nsg142
(dp1985
sg144
Nsg26
g29
sg145
(lp1986
I17
aI5
asg147
Nsg148
VTosefta Shabbat 17:5
p1987
sg150
(lp1988
sg152
g103
sg153
Nsg154
(lp1989
I17
aI5
asg156
Nsg157
g1987
sg158
(lp1990
sg160
g64
sg161
Nsg162
Nsg163
Nsbag2
(g3
g4
Ntp1991
Rp1992
(dp1993
g8
g11
sg141
Nsg142
(dp1994
sg144
Nsg26
g29
sg145
(lp1995
I17
aI6
asg147
Nsg148
VTosefta Shabbat 17:6
p1996
sg150
(lp1997
sg152
g103
sg153
Nsg154
(lp1998
I17
aI6
asg156
Nsg157
g1996
sg158
(lp1999
sg160
g64
sg161
Nsg162
Nsg163
Nsbag2
(g3
g4
Ntp2000
Rp2001
(dp2002
g8
g11
sg141
Nsg142
(dp2003
sg144
Nsg26
g29
sg145
(lp2004
I17
aI7
asg147
Nsg148
VTosefta Shabbat 17:7
p2005
sg150
(lp2006
sg152
g103
sg153
Nsg154
(lp2007
I17
aI7
asg156
Nsg157
g2005
sg158
(lp2008
sg160
g64
sg161
Nsg162
Nsg163
Nsbag2
(g3
g4
Ntp2009
Rp2010
(dp2011
g8
g11
sg141
Nsg142
(dp2012
sg144
Nsg26
g29
sg145
(lp2013
I17
aI8
asg147
Nsg148
VTosefta Shabbat 17:8
p2014
sg150
(lp2015
sg152
g103
sg153
Nsg154
(lp2016
I17
aI8
asg156
Nsg157
g2014
sg158
(lp2017
sg160
g64
sg161
Nsg162
Nsg163
Nsbag2
(g3
g4
Ntp2018
Rp2019
(dp2020
g8
g11
sg141
Nsg142
(dp2021
sg144
Nsg26
g29
sg145
(lp2022
I17
aI9
asg147
Nsg148
VTosefta Shabbat 17:9
p2023
sg150
(lp2024
sg152
g103
sg153
Nsg154
(lp2025
I17
aI9
asg156
Nsg157
g2023
sg158
(lp2026
sg160
g64
sg161
Nsg162
Nsg163
Nsbag2
(g3
g4
Ntp2027
Rp2028
(dp2029
g8
g11
sg141
Nsg142
(dp2030
sg144
Nsg26
g29
sg145
(lp2031
I17
aI10
asg147
Nsg148
VTosefta Shabbat 17:10
p2032
sg150
(lp2033
sg152
g103
sg153
Nsg154
(lp2034
I17
aI10
asg156
Nsg157
g2032
sg158
(lp2035
sg160
g64
sg161
Nsg162
Nsg163
Nsbag2
(g3
g4
Ntp2036
Rp2037
(dp2038
g8
g11
sg141
Nsg142
(dp2039
sg144
Nsg26
g29
sg145
(lp2040
I17
aI11
asg147
Nsg148
VTosefta Shabbat 17:11
p2041
sg150
(lp2042
sg152
g103
sg153
Nsg154
(lp2043
I17
aI11
asg156
Nsg157
g2041
sg158
(lp2044
sg160
g64
sg161
Nsg162
Nsg163
Nsbag2
(g3
g4
Ntp2045
Rp2046
(dp2047
g8
g11
sg141
Nsg142
(dp2048
sg144
Nsg26
g29
sg145
(lp2049
I17
aI12
asg147
Nsg148
VTosefta Shabbat 17:12
p2050
sg150
(lp2051
sg152
g103
sg153
Nsg154
(lp2052
I17
aI12
asg156
Nsg157
g2050
sg158
(lp2053
sg160
g64
sg161
Nsg162
Nsg163
Nsbag2
(g3
g4
Ntp2054
Rp2055
(dp2056
g8
g11
sg141
Nsg142
(dp2057
sg144
Nsg26
g29
sg145
(lp2058
I17
aI13
asg147
Nsg148
VTosefta Shabbat 17:13
p2059
sg150
(lp2060
sg152
g103
sg153
Nsg154
(lp2061
I17
aI13
asg156
Nsg157
g2059
sg158
(lp2062
sg160
g64
sg161
Nsg162
Nsg163
Nsbag2
(g3
g4
Ntp2063
Rp2064
(dp2065
g8
g11
sg141
Nsg142
(dp2066
sg144
Nsg26
g29
sg145
(lp2067
I17
aI14
asg147
Nsg148
VTosefta Shabbat 17:14
p2068
sg150
(lp2069
sg152
g103
sg153
Nsg154
(lp2070
I17
aI14
asg156
Nsg157
g2068
sg158
(lp2071
sg160
g64
sg161
Nsg162
Nsg163
Nsbag2
(g3
g4
Ntp2072
Rp2073
(dp2074
g8
g11
sg141
Nsg142
(dp2075
sg144
Nsg26
g29
sg145
(lp2076
I17
aI15
asg147
Nsg148
VTosefta Shabbat 17:15
p2077
sg150
(lp2078
sg152
g103
sg153
Nsg154
(lp2079
I17
aI15
asg156
Nsg157
g2077
sg158
(lp2080
sg160
g64
sg161
Nsg162
Nsg163
Nsbag2
(g3
g4
Ntp2081
Rp2082
(dp2083
g8
g11
sg141
Nsg142
(dp2084
sg144
Nsg26
g29
sg145
(lp2085
I17
aI16
asg147
Nsg148
VTosefta Shabbat 17:16
p2086
sg150
(lp2087
sg152
g103
sg153
Nsg154
(lp2088
I17
aI16
asg156
Nsg157
g2086
sg158
(lp2089
sg160
g64
sg161
Nsg162
Nsg163
Nsbag2
(g3
g4
Ntp2090
Rp2091
(dp2092
g8
g11
sg141
Nsg142
(dp2093
sg144
Nsg26
g29
sg145
(lp2094
I17
aI17
asg147
Nsg148
VTosefta Shabbat 17:17
p2095
sg150
(lp2096
sg152
g103
sg153
Nsg154
(lp2097
I17
aI17
asg156
Nsg157
g2095
sg158
(lp2098
sg160
g64
sg161
Nsg162
Nsg163
Nsbag2
(g3
g4
Ntp2099
Rp2100
(dp2101
g8
g11
sg141
Nsg142
(dp2102
sg144
Nsg26
g29
sg145
(lp2103
I18
aI1
asg147
Nsg148
VTosefta Shabbat 18:1
p2104
sg150
(lp2105
sg152
g103
sg153
Nsg154
(lp2106
I18
aI1
asg156
Nsg157
g2104
sg158
(lp2107
sg160
g64
sg161
Nsg162
Nsg163
Nsbag2
(g3
g4
Ntp2108
Rp2109
(dp2110
g8
g11
sg141
Nsg142
(dp2111
sg144
Nsg26
g29
sg145
(lp2112
I18
aI2
asg147
Nsg148
VTosefta Shabbat 18:2
p2113
sg150
(lp2114
sg152
g103
sg153
Nsg154
(lp2115
I18
aI2
asg156
Nsg157
g2113
sg158
(lp2116
sg160
g64
sg161
Nsg162
Nsg163
Nsbag2
(g3
g4
Ntp2117
Rp2118
(dp2119
g8
g11
sg141
Nsg142
(dp2120
sg144
Nsg26
g29
sg145
(lp2121
I18
aI3
asg147
Nsg148
VTosefta Shabbat 18:3
p2122
sg150
(lp2123
sg152
g103
sg153
Nsg154
(lp2124
I18
aI3
asg156
Nsg157
g2122
sg158
(lp2125
sg160
g64
sg161
Nsg162
Nsg163
Nsbag2
(g3
g4
Ntp2126
Rp2127
(dp2128
g8
g11
sg141
Nsg142
(dp2129
sg144
Nsg26
g29
sg145
(lp2130
I18
aI4
asg147
Nsg148
VTosefta Shabbat 18:4
p2131
sg150
(lp2132
sg152
g103
sg153
Nsg154
(lp2133
I18
aI4
asg156
Nsg157
g2131
sg158
(lp2134
sg160
g64
sg161
Nsg162
Nsg163
Nsbag2
(g3
g4
Ntp2135
Rp2136
(dp2137
g8
g11
sg141
Nsg142
(dp2138
sg144
Nsg26
g29
sg145
(lp2139
I18
aI5
asg147
Nsg148
VTosefta Shabbat 18:5
p2140
sg150
(lp2141
sg152
g103
sg153
Nsg154
(lp2142
I18
aI5
asg156
Nsg157
g2140
sg158
(lp2143
sg160
g64
sg161
Nsg162
Nsg163
Nsbag2
(g3
g4
Ntp2144
Rp2145
(dp2146
g8
g11
sg141
Nsg142
(dp2147
sg144
Nsg26
g29
sg145
(lp2148
I18
aI6
asg147
Nsg148
VTosefta Shabbat 18:6
p2149
sg150
(lp2150
sg152
g103
sg153
Nsg154
(lp2151
I18
aI6
asg156
Nsg157
g2149
sg158
(lp2152
sg160
g64
sg161
Nsg162
Nsg163
Nsbag2
(g3
g4
Ntp2153
Rp2154
(dp2155
g8
g11
sg141
Nsg142
(dp2156
sg144
Nsg26
g29
sg145
(lp2157
I18
aI7
asg147
Nsg148
VTosefta Shabbat 18:7
p2158
sg150
(lp2159
sg152
g103
sg153
Nsg154
(lp2160
I18
aI7
asg156
Nsg157
g2158
sg158
(lp2161
sg160
g64
sg161
Nsg162
Nsg163
Nsbag2
(g3
g4
Ntp2162
Rp2163
(dp2164
g8
g11
sg141
Nsg142
(dp2165
sg144
Nsg26
g29
sg145
(lp2166
I18
aI8
asg147
Nsg148
VTosefta Shabbat 18:8
p2167
sg150
(lp2168
sg152
g103
sg153
Nsg154
(lp2169
I18
aI8
asg156
Nsg157
g2167
sg158
(lp2170
sg160
g64
sg161
Nsg162
Nsg163
Nsbag2
(g3
g4
Ntp2171
Rp2172
(dp2173
g8
g11
sg141
Nsg142
(dp2174
sg144
Nsg26
g29
sg145
(lp2175
I18
aI9
asg147
Nsg148
VTosefta Shabbat 18:9
p2176
sg150
(lp2177
sg152
g103
sg153
Nsg154
(lp2178
I18
aI9
asg156
Nsg157
g2176
sg158
(lp2179
sg160
g64
sg161
Nsg162
Nsg163
Nsbag2
(g3
g4
Ntp2180
Rp2181
(dp2182
g8
g11
sg141
Nsg142
(dp2183
sg144
Nsg26
g29
sg145
(lp2184
I18
aI10
asg147
Nsg148
VTosefta Shabbat 18:10
p2185
sg150
(lp2186
sg152
g103
sg153
Nsg154
(lp2187
I18
aI10
asg156
Nsg157
g2185
sg158
(lp2188
sg160
g64
sg161
Nsg162
Nsg163
Nsbag2
(g3
g4
Ntp2189
Rp2190
(dp2191
g8
g11
sg141
Nsg142
(dp2192
sg144
Nsg26
g29
sg145
(lp2193
I18
aI11
asg147
Nsg148
VTosefta Shabbat 18:11
p2194
sg150
(lp2195
sg152
g103
sg153
Nsg154
(lp2196
I18
aI11
asg156
Nsg157
g2194
sg158
(lp2197
sg160
g64
sg161
Nsg162
Nsg163
Nsbag2
(g3
g4
Ntp2198
Rp2199
(dp2200
g8
g11
sg141
Nsg142
(dp2201
sg144
Nsg26
g29
sg145
(lp2202
I18
aI12
asg147
Nsg148
VTosefta Shabbat 18:12
p2203
sg150
(lp2204
sg152
g103
sg153
Nsg154
(lp2205
I18
aI12
asg156
Nsg157
g2203
sg158
(lp2206
sg160
g64
sg161
Nsg162
Nsg163
Nsbag2
(g3
g4
Ntp2207
Rp2208
(dp2209
g8
g11
sg141
Nsg142
(dp2210
sg144
Nsg26
g29
sg145
(lp2211
I18
aI13
asg147
Nsg148
VTosefta Shabbat 18:13
p2212
sg150
(lp2213
sg152
g103
sg153
Nsg154
(lp2214
I18
aI13
asg156
Nsg157
g2212
sg158
(lp2215
sg160
g64
sg161
Nsg162
Nsg163
Nsbag2
(g3
g4
Ntp2216
Rp2217
(dp2218
g8
g11
sg141
Nsg142
(dp2219
sg144
Nsg26
g29
sg145
(lp2220
I18
aI14
asg147
Nsg148
VTosefta Shabbat 18:14
p2221
sg150
(lp2222
sg152
g103
sg153
Nsg154
(lp2223
I18
aI14
asg156
Nsg157
g2221
sg158
(lp2224
sg160
g64
sg161
Nsg162
Nsg163
Nsbag2
(g3
g4
Ntp2225
Rp2226
(dp2227
g8
g11
sg141
Nsg142
(dp2228
sg144
Nsg26
g29
sg145
(lp2229
I18
aI15
asg147
Nsg148
VTosefta Shabbat 18:15
p2230
sg150
(lp2231
sg152
g103
sg153
Nsg154
(lp2232
I18
aI15
asg156
Nsg157
g2230
sg158
(lp2233
sg160
g64
sg161
Nsg162
Nsg163
Nsbag2
(g3
g4
Ntp2234
Rp2235
(dp2236
g8
g11
sg141
Nsg142
(dp2237
sg144
Nsg26
g29
sg145
(lp2238
I18
aI16
asg147
Nsg148
VTosefta Shabbat 18:16
p2239
sg150
(lp2240
sg152
g103
sg153
Nsg154
(lp2241
I18
aI16
asg156
Nsg157
g2239
sg158
(lp2242
sg160
g64
sg161
Nsg162
Nsg163
Nsbag2
(g3
g4
Ntp2243
Rp2244
(dp2245
g8
g11
sg141
Nsg142
(dp2246
sg144
Nsg26
g29
sg145
(lp2247
I18
aI17
asg147
Nsg148
VTosefta Shabbat 18:17
p2248
sg150
(lp2249
sg152
g103
sg153
Nsg154
(lp2250
I18
aI17
asg156
Nsg157
g2248
sg158
(lp2251
sg160
g64
sg161
Nsg162
Nsg163
Nsbatp2252
.