((lp0
I0
aI24
aI57
aI90
aI105
aI142
aI183
aI236
aI259
aI333
aI392
aI528
aI552
aI581
aI598
aI634
aI714
aI793
aI826
aI913
aI949
aI1012
aI1084
aI1119
aI1167
aI1218
aI1272
aI1317
aI1358
aI1419
aI1457
aI1491
aI1530
aI1581
aI1664
aI1728
aI1765
aI1798
aI1849
aI1881
aI1963
aI1987
aI2043
aI2081
aI2157
aI2243
aI2275
aI2329
aI2391
aI2428
aI2495
aI2529
aI2556
aI2583
aI2606
aI2654
aI2703
aI2752
aI2864
aI2947
aI3021
aI3072
aI3143
aI3192
aI3219
aI3280
aI3324
aI3425
aI3465
aI3515
aI3543
aI3563
aI3577
aI3632
aI3691
aI3744
aI3799
aI3832
aI3869
aI3919
aI3975
aI4039
aI4071
aI4118
aI4162
aI4204
aI4223
aI4262
aI4318
a(lp1
ccopy_reg
_reconstructor
p2
(csefaria.model.text
Ref
p3
c__builtin__
object
p4
Ntp5
Rp6
(dp7
S'index_node'
p8
g2
(csefaria.model.schema
JaggedArrayNode
p9
g4
Ntp10
Rp11
(dp12
S'_address'
p13
(lp14
VTosefta Gittin
p15
asS'_full_titles'
p16
(dp17
sVnodeType
p18
VJaggedArrayNode
p19
sS'parent'
p20
NsVaddressTypes
p21
(lp22
VInteger
p23
aVInteger
p24
asS'default'
p25
I00
sS'index'
p26
g2
(csefaria.model.text
Index
p27
g4
Ntp28
Rp29
(dp30
S'struct_objs'
p31
(dp32
sS'_id'
p33
g2
(cbson.objectid
ObjectId
p34
g4
Ntp35
Rp36
S'S-\xf0 \xfb\xfb\xa2\x0eR\x908('
p37
bsS'pkeys_orig_values'
p38
(dp39
S'title'
p40
VTosefta Gittin
p41
ssS'pubDate'
p42
V1521
p43
sS'transliteratedTitle'
p44
VTosefta Gittin
p45
sS'pubPlace'
p46
VVenice
p47
sS'compPlace'
p48
VTalmudic Israel
p49
sS'enDesc'
p50
VThe Tosefta (Supplement, addition") is a compilation of the Jewish oral law. Opinions differ widely as to when the Tosefta was redacted and how it relates to the Mishnah. However it closely corresponds to the Mishnah in structure and style, with the same divisions for sedarim ("orders") and masekhot ("tractates"). In many ways, the Tosefta acts as a supplement to the Mishnah. It is mainly written in Mishnaic Hebrew, with some Aramaic. Gittin (Documents) belongs to the third order, Nashim (Women) and discusses the concepts of divorces and other documents. It has seven chapters.
p51
sS'order'
p52
(lp53
I6
asS'era'
p54
VT
p55
sS'compDate'
p56
V210
p57
sS'nodes'
p58
g11
sS'errorMargin'
p59
V20
p60
sS'_title'
p61
g41
sS'categories'
p62
(lp63
VTosefta
p64
aVSeder Nashim
p65
asS'schema'
p66
(dp67
g18
g19
sg21
g22
sVlengths
p68
(lp69
I7
asVdepth
p70
I2
sVtitles
p71
(lp72
(dp73
Vlang
p74
Ven
p75
sVtext
p76
VTos. Gittin
p77
sa(dp78
Vlang
p79
Ven
p80
sVtext
p81
VTos. Gitin
p82
sa(dp83
Vlang
p84
Ven
p85
sVtext
p86
VTosefta Gitin
p87
sa(dp88
Vlang
p89
Ven
p90
sVtext
p91
VT. Gittin
p92
sa(dp93
Vlang
p94
Ven
p95
sVtext
p96
VT. Gitin
p97
sa(dp98
Vlang
p99
Vhe
p100
sVtext
p101
V\u05ea\u05d5\u05e1\u05e4\u05ea\u05d0 \u05d2\u05d9\u05d8\u05d9\u05df
p102
sVprimary
p103
I01
sa(dp104
Vlang
p105
Ven
p106
sVtext
p107
VTosefta Gittin
p108
sVprimary
p109
I01
sasVkey
p110
g15
sVsectionNames
p111
(lp112
VChapter
p113
aVTosefta
p114
assbsS'_primary_title'
p115
(dp116
sS'title_group'
p117
g2
(csefaria.model.schema
TitleGroup
p118
g4
Ntp119
Rp120
(dp121
g115
(dp122
S'en'
p123
g108
ssS'titles'
p124
g72
sbsS'_addressTypes'
p125
(lp126
g2
(csefaria.model.schema
AddressInteger
p127
g4
Ntp128
Rp129
(dp130
S'length'
p131
I7
sg52
I0
sbag2
(g127
g4
Ntp132
Rp133
(dp134
g131
Nsg52
I1
sbasS'sharedTitle'
p135
Nsg68
g69
sg70
I2
sS'_full_title'
p136
(dp137
g123
g108
ssS'key'
p138
g15
sS'checkFirst'
p139
NsS'_regexes'
p140
(dp141
sS'_leaf_nodes'
p142
(lp143
sg111
g112
sS'children'
p144
(lp145
sbsS'_range_index'
p146
NsS'_context'
p147
(dp148
sS'_padded'
p149
Nsg26
g29
sS'sections'
p150
(lp151
I1
aI1
asS'_first_spanned_ref'
p152
NsS'tref'
p153
VTosefta Gittin 1:1
p154
sS'_spanned_refs'
p155
(lp156
sS'book'
p157
g108
sS'_range_depth'
p158
NsS'toSections'
p159
(lp160
I1
aI1
asS'_url'
p161
NsS'_normal'
p162
g154
sS'_ranged_refs'
p163
(lp164
sS'type'
p165
g64
sS'_prev'
p166
NsS'_he_normal'
p167
NsS'_next'
p168
Nsbag2
(g3
g4
Ntp169
Rp170
(dp171
g8
g11
sg146
Nsg147
(dp172
sg149
Nsg26
g29
sg150
(lp173
I1
aI2
asg152
Nsg153
VTosefta Gittin 1:2
p174
sg155
(lp175
sg157
g108
sg158
Nsg159
(lp176
I1
aI2
asg161
Nsg162
g174
sg163
(lp177
sg165
g64
sg166
Nsg167
Nsg168
Nsbag2
(g3
g4
Ntp178
Rp179
(dp180
g8
g11
sg146
Nsg147
(dp181
sg149
Nsg26
g29
sg150
(lp182
I1
aI3
asg152
Nsg153
VTosefta Gittin 1:3
p183
sg155
(lp184
sg157
g108
sg158
Nsg159
(lp185
I1
aI3
asg161
Nsg162
g183
sg163
(lp186
sg165
g64
sg166
Nsg167
Nsg168
Nsbag2
(g3
g4
Ntp187
Rp188
(dp189
g8
g11
sg146
Nsg147
(dp190
sg149
Nsg26
g29
sg150
(lp191
I1
aI4
asg152
Nsg153
VTosefta Gittin 1:4
p192
sg155
(lp193
sg157
g108
sg158
Nsg159
(lp194
I1
aI4
asg161
Nsg162
g192
sg163
(lp195
sg165
g64
sg166
Nsg167
Nsg168
Nsbag2
(g3
g4
Ntp196
Rp197
(dp198
g8
g11
sg146
Nsg147
(dp199
sg149
Nsg26
g29
sg150
(lp200
I1
aI5
asg152
Nsg153
VTosefta Gittin 1:5
p201
sg155
(lp202
sg157
g108
sg158
Nsg159
(lp203
I1
aI5
asg161
Nsg162
g201
sg163
(lp204
sg165
g64
sg166
Nsg167
Nsg168
Nsbag2
(g3
g4
Ntp205
Rp206
(dp207
g8
g11
sg146
Nsg147
(dp208
sg149
Nsg26
g29
sg150
(lp209
I1
aI6
asg152
Nsg153
VTosefta Gittin 1:6
p210
sg155
(lp211
sg157
g108
sg158
Nsg159
(lp212
I1
aI6
asg161
Nsg162
g210
sg163
(lp213
sg165
g64
sg166
Nsg167
Nsg168
Nsbag2
(g3
g4
Ntp214
Rp215
(dp216
g8
g11
sg146
Nsg147
(dp217
sg149
Nsg26
g29
sg150
(lp218
I1
aI7
asg152
Nsg153
VTosefta Gittin 1:7
p219
sg155
(lp220
sg157
g108
sg158
Nsg159
(lp221
I1
aI7
asg161
Nsg162
g219
sg163
(lp222
sg165
g64
sg166
Nsg167
Nsg168
Nsbag2
(g3
g4
Ntp223
Rp224
(dp225
g8
g11
sg146
Nsg147
(dp226
sg149
Nsg26
g29
sg150
(lp227
I1
aI8
asg152
Nsg153
VTosefta Gittin 1:8
p228
sg155
(lp229
sg157
g108
sg158
Nsg159
(lp230
I1
aI8
asg161
Nsg162
g228
sg163
(lp231
sg165
g64
sg166
Nsg167
Nsg168
Nsbag2
(g3
g4
Ntp232
Rp233
(dp234
g8
g11
sg146
Nsg147
(dp235
sg149
Nsg26
g29
sg150
(lp236
I1
aI9
asg152
Nsg153
VTosefta Gittin 1:9
p237
sg155
(lp238
sg157
g108
sg158
Nsg159
(lp239
I1
aI9
asg161
Nsg162
g237
sg163
(lp240
sg165
g64
sg166
Nsg167
Nsg168
Nsbag2
(g3
g4
Ntp241
Rp242
(dp243
g8
g11
sg146
Nsg147
(dp244
sg149
Nsg26
g29
sg150
(lp245
I1
aI10
asg152
Nsg153
VTosefta Gittin 1:10
p246
sg155
(lp247
sg157
g108
sg158
Nsg159
(lp248
I1
aI10
asg161
Nsg162
g246
sg163
(lp249
sg165
g64
sg166
Nsg167
Nsg168
Nsbag2
(g3
g4
Ntp250
Rp251
(dp252
g8
g11
sg146
Nsg147
(dp253
sg149
Nsg26
g29
sg150
(lp254
I1
aI11
asg152
Nsg153
VTosefta Gittin 1:11
p255
sg155
(lp256
sg157
g108
sg158
Nsg159
(lp257
I1
aI11
asg161
Nsg162
g255
sg163
(lp258
sg165
g64
sg166
Nsg167
Nsg168
Nsbag2
(g3
g4
Ntp259
Rp260
(dp261
g8
g11
sg146
Nsg147
(dp262
sg149
Nsg26
g29
sg150
(lp263
I2
aI1
asg152
Nsg153
VTosefta Gittin 2:1
p264
sg155
(lp265
sg157
g108
sg158
Nsg159
(lp266
I2
aI1
asg161
Nsg162
g264
sg163
(lp267
sg165
g64
sg166
Nsg167
Nsg168
Nsbag2
(g3
g4
Ntp268
Rp269
(dp270
g8
g11
sg146
Nsg147
(dp271
sg149
Nsg26
g29
sg150
(lp272
I2
aI2
asg152
Nsg153
VTosefta Gittin 2:2
p273
sg155
(lp274
sg157
g108
sg158
Nsg159
(lp275
I2
aI2
asg161
Nsg162
g273
sg163
(lp276
sg165
g64
sg166
Nsg167
Nsg168
Nsbag2
(g3
g4
Ntp277
Rp278
(dp279
g8
g11
sg146
Nsg147
(dp280
sg149
Nsg26
g29
sg150
(lp281
I2
aI3
asg152
Nsg153
VTosefta Gittin 2:3
p282
sg155
(lp283
sg157
g108
sg158
Nsg159
(lp284
I2
aI3
asg161
Nsg162
g282
sg163
(lp285
sg165
g64
sg166
Nsg167
Nsg168
Nsbag2
(g3
g4
Ntp286
Rp287
(dp288
g8
g11
sg146
Nsg147
(dp289
sg149
Nsg26
g29
sg150
(lp290
I2
aI4
asg152
Nsg153
VTosefta Gittin 2:4
p291
sg155
(lp292
sg157
g108
sg158
Nsg159
(lp293
I2
aI4
asg161
Nsg162
g291
sg163
(lp294
sg165
g64
sg166
Nsg167
Nsg168
Nsbag2
(g3
g4
Ntp295
Rp296
(dp297
g8
g11
sg146
Nsg147
(dp298
sg149
Nsg26
g29
sg150
(lp299
I2
aI5
asg152
Nsg153
VTosefta Gittin 2:5
p300
sg155
(lp301
sg157
g108
sg158
Nsg159
(lp302
I2
aI5
asg161
Nsg162
g300
sg163
(lp303
sg165
g64
sg166
Nsg167
Nsg168
Nsbag2
(g3
g4
Ntp304
Rp305
(dp306
g8
g11
sg146
Nsg147
(dp307
sg149
Nsg26
g29
sg150
(lp308
I2
aI6
asg152
Nsg153
VTosefta Gittin 2:6
p309
sg155
(lp310
sg157
g108
sg158
Nsg159
(lp311
I2
aI6
asg161
Nsg162
g309
sg163
(lp312
sg165
g64
sg166
Nsg167
Nsg168
Nsbag2
(g3
g4
Ntp313
Rp314
(dp315
g8
g11
sg146
Nsg147
(dp316
sg149
Nsg26
g29
sg150
(lp317
I2
aI7
asg152
Nsg153
VTosefta Gittin 2:7
p318
sg155
(lp319
sg157
g108
sg158
Nsg159
(lp320
I2
aI7
asg161
Nsg162
g318
sg163
(lp321
sg165
g64
sg166
Nsg167
Nsg168
Nsbag2
(g3
g4
Ntp322
Rp323
(dp324
g8
g11
sg146
Nsg147
(dp325
sg149
Nsg26
g29
sg150
(lp326
I2
aI8
asg152
Nsg153
VTosefta Gittin 2:8
p327
sg155
(lp328
sg157
g108
sg158
Nsg159
(lp329
I2
aI8
asg161
Nsg162
g327
sg163
(lp330
sg165
g64
sg166
Nsg167
Nsg168
Nsbag2
(g3
g4
Ntp331
Rp332
(dp333
g8
g11
sg146
Nsg147
(dp334
sg149
Nsg26
g29
sg150
(lp335
I2
aI9
asg152
Nsg153
VTosefta Gittin 2:9
p336
sg155
(lp337
sg157
g108
sg158
Nsg159
(lp338
I2
aI9
asg161
Nsg162
g336
sg163
(lp339
sg165
g64
sg166
Nsg167
Nsg168
Nsbag2
(g3
g4
Ntp340
Rp341
(dp342
g8
g11
sg146
Nsg147
(dp343
sg149
Nsg26
g29
sg150
(lp344
I2
aI10
asg152
Nsg153
VTosefta Gittin 2:10
p345
sg155
(lp346
sg157
g108
sg158
Nsg159
(lp347
I2
aI10
asg161
Nsg162
g345
sg163
(lp348
sg165
g64
sg166
Nsg167
Nsg168
Nsbag2
(g3
g4
Ntp349
Rp350
(dp351
g8
g11
sg146
Nsg147
(dp352
sg149
Nsg26
g29
sg150
(lp353
I2
aI11
asg152
Nsg153
VTosefta Gittin 2:11
p354
sg155
(lp355
sg157
g108
sg158
Nsg159
(lp356
I2
aI11
asg161
Nsg162
g354
sg163
(lp357
sg165
g64
sg166
Nsg167
Nsg168
Nsbag2
(g3
g4
Ntp358
Rp359
(dp360
g8
g11
sg146
Nsg147
(dp361
sg149
Nsg26
g29
sg150
(lp362
I2
aI12
asg152
Nsg153
VTosefta Gittin 2:12
p363
sg155
(lp364
sg157
g108
sg158
Nsg159
(lp365
I2
aI12
asg161
Nsg162
g363
sg163
(lp366
sg165
g64
sg166
Nsg167
Nsg168
Nsbag2
(g3
g4
Ntp367
Rp368
(dp369
g8
g11
sg146
Nsg147
(dp370
sg149
Nsg26
g29
sg150
(lp371
I2
aI13
asg152
Nsg153
VTosefta Gittin 2:13
p372
sg155
(lp373
sg157
g108
sg158
Nsg159
(lp374
I2
aI13
asg161
Nsg162
g372
sg163
(lp375
sg165
g64
sg166
Nsg167
Nsg168
Nsbag2
(g3
g4
Ntp376
Rp377
(dp378
g8
g11
sg146
Nsg147
(dp379
sg149
Nsg26
g29
sg150
(lp380
I2
aI14
asg152
Nsg153
VTosefta Gittin 2:14
p381
sg155
(lp382
sg157
g108
sg158
Nsg159
(lp383
I2
aI14
asg161
Nsg162
g381
sg163
(lp384
sg165
g64
sg166
Nsg167
Nsg168
Nsbag2
(g3
g4
Ntp385
Rp386
(dp387
g8
g11
sg146
Nsg147
(dp388
sg149
Nsg26
g29
sg150
(lp389
I3
aI1
asg152
Nsg153
VTosefta Gittin 3:1
p390
sg155
(lp391
sg157
g108
sg158
Nsg159
(lp392
I3
aI1
asg161
Nsg162
g390
sg163
(lp393
sg165
g64
sg166
Nsg167
Nsg168
Nsbag2
(g3
g4
Ntp394
Rp395
(dp396
g8
g11
sg146
Nsg147
(dp397
sg149
Nsg26
g29
sg150
(lp398
I3
aI2
asg152
Nsg153
VTosefta Gittin 3:2
p399
sg155
(lp400
sg157
g108
sg158
Nsg159
(lp401
I3
aI2
asg161
Nsg162
g399
sg163
(lp402
sg165
g64
sg166
Nsg167
Nsg168
Nsbag2
(g3
g4
Ntp403
Rp404
(dp405
g8
g11
sg146
Nsg147
(dp406
sg149
Nsg26
g29
sg150
(lp407
I3
aI3
asg152
Nsg153
VTosefta Gittin 3:3
p408
sg155
(lp409
sg157
g108
sg158
Nsg159
(lp410
I3
aI3
asg161
Nsg162
g408
sg163
(lp411
sg165
g64
sg166
Nsg167
Nsg168
Nsbag2
(g3
g4
Ntp412
Rp413
(dp414
g8
g11
sg146
Nsg147
(dp415
sg149
Nsg26
g29
sg150
(lp416
I3
aI4
asg152
Nsg153
VTosefta Gittin 3:4
p417
sg155
(lp418
sg157
g108
sg158
Nsg159
(lp419
I3
aI4
asg161
Nsg162
g417
sg163
(lp420
sg165
g64
sg166
Nsg167
Nsg168
Nsbag2
(g3
g4
Ntp421
Rp422
(dp423
g8
g11
sg146
Nsg147
(dp424
sg149
Nsg26
g29
sg150
(lp425
I3
aI5
asg152
Nsg153
VTosefta Gittin 3:5
p426
sg155
(lp427
sg157
g108
sg158
Nsg159
(lp428
I3
aI5
asg161
Nsg162
g426
sg163
(lp429
sg165
g64
sg166
Nsg167
Nsg168
Nsbag2
(g3
g4
Ntp430
Rp431
(dp432
g8
g11
sg146
Nsg147
(dp433
sg149
Nsg26
g29
sg150
(lp434
I3
aI6
asg152
Nsg153
VTosefta Gittin 3:6
p435
sg155
(lp436
sg157
g108
sg158
Nsg159
(lp437
I3
aI6
asg161
Nsg162
g435
sg163
(lp438
sg165
g64
sg166
Nsg167
Nsg168
Nsbag2
(g3
g4
Ntp439
Rp440
(dp441
g8
g11
sg146
Nsg147
(dp442
sg149
Nsg26
g29
sg150
(lp443
I3
aI7
asg152
Nsg153
VTosefta Gittin 3:7
p444
sg155
(lp445
sg157
g108
sg158
Nsg159
(lp446
I3
aI7
asg161
Nsg162
g444
sg163
(lp447
sg165
g64
sg166
Nsg167
Nsg168
Nsbag2
(g3
g4
Ntp448
Rp449
(dp450
g8
g11
sg146
Nsg147
(dp451
sg149
Nsg26
g29
sg150
(lp452
I3
aI8
asg152
Nsg153
VTosefta Gittin 3:8
p453
sg155
(lp454
sg157
g108
sg158
Nsg159
(lp455
I3
aI8
asg161
Nsg162
g453
sg163
(lp456
sg165
g64
sg166
Nsg167
Nsg168
Nsbag2
(g3
g4
Ntp457
Rp458
(dp459
g8
g11
sg146
Nsg147
(dp460
sg149
Nsg26
g29
sg150
(lp461
I3
aI9
asg152
Nsg153
VTosefta Gittin 3:9
p462
sg155
(lp463
sg157
g108
sg158
Nsg159
(lp464
I3
aI9
asg161
Nsg162
g462
sg163
(lp465
sg165
g64
sg166
Nsg167
Nsg168
Nsbag2
(g3
g4
Ntp466
Rp467
(dp468
g8
g11
sg146
Nsg147
(dp469
sg149
Nsg26
g29
sg150
(lp470
I3
aI10
asg152
Nsg153
VTosefta Gittin 3:10
p471
sg155
(lp472
sg157
g108
sg158
Nsg159
(lp473
I3
aI10
asg161
Nsg162
g471
sg163
(lp474
sg165
g64
sg166
Nsg167
Nsg168
Nsbag2
(g3
g4
Ntp475
Rp476
(dp477
g8
g11
sg146
Nsg147
(dp478
sg149
Nsg26
g29
sg150
(lp479
I3
aI11
asg152
Nsg153
VTosefta Gittin 3:11
p480
sg155
(lp481
sg157
g108
sg158
Nsg159
(lp482
I3
aI11
asg161
Nsg162
g480
sg163
(lp483
sg165
g64
sg166
Nsg167
Nsg168
Nsbag2
(g3
g4
Ntp484
Rp485
(dp486
g8
g11
sg146
Nsg147
(dp487
sg149
Nsg26
g29
sg150
(lp488
I3
aI12
asg152
Nsg153
VTosefta Gittin 3:12
p489
sg155
(lp490
sg157
g108
sg158
Nsg159
(lp491
I3
aI12
asg161
Nsg162
g489
sg163
(lp492
sg165
g64
sg166
Nsg167
Nsg168
Nsbag2
(g3
g4
Ntp493
Rp494
(dp495
g8
g11
sg146
Nsg147
(dp496
sg149
Nsg26
g29
sg150
(lp497
I3
aI13
asg152
Nsg153
VTosefta Gittin 3:13
p498
sg155
(lp499
sg157
g108
sg158
Nsg159
(lp500
I3
aI13
asg161
Nsg162
g498
sg163
(lp501
sg165
g64
sg166
Nsg167
Nsg168
Nsbag2
(g3
g4
Ntp502
Rp503
(dp504
g8
g11
sg146
Nsg147
(dp505
sg149
Nsg26
g29
sg150
(lp506
I3
aI14
asg152
Nsg153
VTosefta Gittin 3:14
p507
sg155
(lp508
sg157
g108
sg158
Nsg159
(lp509
I3
aI14
asg161
Nsg162
g507
sg163
(lp510
sg165
g64
sg166
Nsg167
Nsg168
Nsbag2
(g3
g4
Ntp511
Rp512
(dp513
g8
g11
sg146
Nsg147
(dp514
sg149
Nsg26
g29
sg150
(lp515
I3
aI15
asg152
Nsg153
VTosefta Gittin 3:15
p516
sg155
(lp517
sg157
g108
sg158
Nsg159
(lp518
I3
aI15
asg161
Nsg162
g516
sg163
(lp519
sg165
g64
sg166
Nsg167
Nsg168
Nsbag2
(g3
g4
Ntp520
Rp521
(dp522
g8
g11
sg146
Nsg147
(dp523
sg149
Nsg26
g29
sg150
(lp524
I3
aI16
asg152
Nsg153
VTosefta Gittin 3:16
p525
sg155
(lp526
sg157
g108
sg158
Nsg159
(lp527
I3
aI16
asg161
Nsg162
g525
sg163
(lp528
sg165
g64
sg166
Nsg167
Nsg168
Nsbag2
(g3
g4
Ntp529
Rp530
(dp531
g8
g11
sg146
Nsg147
(dp532
sg149
Nsg26
g29
sg150
(lp533
I3
aI17
asg152
Nsg153
VTosefta Gittin 3:17
p534
sg155
(lp535
sg157
g108
sg158
Nsg159
(lp536
I3
aI17
asg161
Nsg162
g534
sg163
(lp537
sg165
g64
sg166
Nsg167
Nsg168
Nsbag2
(g3
g4
Ntp538
Rp539
(dp540
g8
g11
sg146
Nsg147
(dp541
sg149
Nsg26
g29
sg150
(lp542
I3
aI18
asg152
Nsg153
VTosefta Gittin 3:18
p543
sg155
(lp544
sg157
g108
sg158
Nsg159
(lp545
I3
aI18
asg161
Nsg162
g543
sg163
(lp546
sg165
g64
sg166
Nsg167
Nsg168
Nsbag2
(g3
g4
Ntp547
Rp548
(dp549
g8
g11
sg146
Nsg147
(dp550
sg149
Nsg26
g29
sg150
(lp551
I4
aI1
asg152
Nsg153
VTosefta Gittin 4:1
p552
sg155
(lp553
sg157
g108
sg158
Nsg159
(lp554
I4
aI1
asg161
Nsg162
g552
sg163
(lp555
sg165
g64
sg166
Nsg167
Nsg168
Nsbag2
(g3
g4
Ntp556
Rp557
(dp558
g8
g11
sg146
Nsg147
(dp559
sg149
Nsg26
g29
sg150
(lp560
I4
aI2
asg152
Nsg153
VTosefta Gittin 4:2
p561
sg155
(lp562
sg157
g108
sg158
Nsg159
(lp563
I4
aI2
asg161
Nsg162
g561
sg163
(lp564
sg165
g64
sg166
Nsg167
Nsg168
Nsbag2
(g3
g4
Ntp565
Rp566
(dp567
g8
g11
sg146
Nsg147
(dp568
sg149
Nsg26
g29
sg150
(lp569
I4
aI3
asg152
Nsg153
VTosefta Gittin 4:3
p570
sg155
(lp571
sg157
g108
sg158
Nsg159
(lp572
I4
aI3
asg161
Nsg162
g570
sg163
(lp573
sg165
g64
sg166
Nsg167
Nsg168
Nsbag2
(g3
g4
Ntp574
Rp575
(dp576
g8
g11
sg146
Nsg147
(dp577
sg149
Nsg26
g29
sg150
(lp578
I4
aI4
asg152
Nsg153
VTosefta Gittin 4:4
p579
sg155
(lp580
sg157
g108
sg158
Nsg159
(lp581
I4
aI4
asg161
Nsg162
g579
sg163
(lp582
sg165
g64
sg166
Nsg167
Nsg168
Nsbag2
(g3
g4
Ntp583
Rp584
(dp585
g8
g11
sg146
Nsg147
(dp586
sg149
Nsg26
g29
sg150
(lp587
I4
aI5
asg152
Nsg153
VTosefta Gittin 4:5
p588
sg155
(lp589
sg157
g108
sg158
Nsg159
(lp590
I4
aI5
asg161
Nsg162
g588
sg163
(lp591
sg165
g64
sg166
Nsg167
Nsg168
Nsbag2
(g3
g4
Ntp592
Rp593
(dp594
g8
g11
sg146
Nsg147
(dp595
sg149
Nsg26
g29
sg150
(lp596
I4
aI6
asg152
Nsg153
VTosefta Gittin 4:6
p597
sg155
(lp598
sg157
g108
sg158
Nsg159
(lp599
I4
aI6
asg161
Nsg162
g597
sg163
(lp600
sg165
g64
sg166
Nsg167
Nsg168
Nsbag2
(g3
g4
Ntp601
Rp602
(dp603
g8
g11
sg146
Nsg147
(dp604
sg149
Nsg26
g29
sg150
(lp605
I4
aI7
asg152
Nsg153
VTosefta Gittin 4:7
p606
sg155
(lp607
sg157
g108
sg158
Nsg159
(lp608
I4
aI7
asg161
Nsg162
g606
sg163
(lp609
sg165
g64
sg166
Nsg167
Nsg168
Nsbag2
(g3
g4
Ntp610
Rp611
(dp612
g8
g11
sg146
Nsg147
(dp613
sg149
Nsg26
g29
sg150
(lp614
I4
aI8
asg152
Nsg153
VTosefta Gittin 4:8
p615
sg155
(lp616
sg157
g108
sg158
Nsg159
(lp617
I4
aI8
asg161
Nsg162
g615
sg163
(lp618
sg165
g64
sg166
Nsg167
Nsg168
Nsbag2
(g3
g4
Ntp619
Rp620
(dp621
g8
g11
sg146
Nsg147
(dp622
sg149
Nsg26
g29
sg150
(lp623
I4
aI9
asg152
Nsg153
VTosefta Gittin 4:9
p624
sg155
(lp625
sg157
g108
sg158
Nsg159
(lp626
I4
aI9
asg161
Nsg162
g624
sg163
(lp627
sg165
g64
sg166
Nsg167
Nsg168
Nsbag2
(g3
g4
Ntp628
Rp629
(dp630
g8
g11
sg146
Nsg147
(dp631
sg149
Nsg26
g29
sg150
(lp632
I4
aI10
asg152
Nsg153
VTosefta Gittin 4:10
p633
sg155
(lp634
sg157
g108
sg158
Nsg159
(lp635
I4
aI10
asg161
Nsg162
g633
sg163
(lp636
sg165
g64
sg166
Nsg167
Nsg168
Nsbag2
(g3
g4
Ntp637
Rp638
(dp639
g8
g11
sg146
Nsg147
(dp640
sg149
Nsg26
g29
sg150
(lp641
I4
aI11
asg152
Nsg153
VTosefta Gittin 4:11
p642
sg155
(lp643
sg157
g108
sg158
Nsg159
(lp644
I4
aI11
asg161
Nsg162
g642
sg163
(lp645
sg165
g64
sg166
Nsg167
Nsg168
Nsbag2
(g3
g4
Ntp646
Rp647
(dp648
g8
g11
sg146
Nsg147
(dp649
sg149
Nsg26
g29
sg150
(lp650
I5
aI1
asg152
Nsg153
VTosefta Gittin 5:1
p651
sg155
(lp652
sg157
g108
sg158
Nsg159
(lp653
I5
aI1
asg161
Nsg162
g651
sg163
(lp654
sg165
g64
sg166
Nsg167
Nsg168
Nsbag2
(g3
g4
Ntp655
Rp656
(dp657
g8
g11
sg146
Nsg147
(dp658
sg149
Nsg26
g29
sg150
(lp659
I5
aI2
asg152
Nsg153
VTosefta Gittin 5:2
p660
sg155
(lp661
sg157
g108
sg158
Nsg159
(lp662
I5
aI2
asg161
Nsg162
g660
sg163
(lp663
sg165
g64
sg166
Nsg167
Nsg168
Nsbag2
(g3
g4
Ntp664
Rp665
(dp666
g8
g11
sg146
Nsg147
(dp667
sg149
Nsg26
g29
sg150
(lp668
I5
aI3
asg152
Nsg153
VTosefta Gittin 5:3
p669
sg155
(lp670
sg157
g108
sg158
Nsg159
(lp671
I5
aI3
asg161
Nsg162
g669
sg163
(lp672
sg165
g64
sg166
Nsg167
Nsg168
Nsbag2
(g3
g4
Ntp673
Rp674
(dp675
g8
g11
sg146
Nsg147
(dp676
sg149
Nsg26
g29
sg150
(lp677
I5
aI4
asg152
Nsg153
VTosefta Gittin 5:4
p678
sg155
(lp679
sg157
g108
sg158
Nsg159
(lp680
I5
aI4
asg161
Nsg162
g678
sg163
(lp681
sg165
g64
sg166
Nsg167
Nsg168
Nsbag2
(g3
g4
Ntp682
Rp683
(dp684
g8
g11
sg146
Nsg147
(dp685
sg149
Nsg26
g29
sg150
(lp686
I5
aI5
asg152
Nsg153
VTosefta Gittin 5:5
p687
sg155
(lp688
sg157
g108
sg158
Nsg159
(lp689
I5
aI5
asg161
Nsg162
g687
sg163
(lp690
sg165
g64
sg166
Nsg167
Nsg168
Nsbag2
(g3
g4
Ntp691
Rp692
(dp693
g8
g11
sg146
Nsg147
(dp694
sg149
Nsg26
g29
sg150
(lp695
I5
aI6
asg152
Nsg153
VTosefta Gittin 5:6
p696
sg155
(lp697
sg157
g108
sg158
Nsg159
(lp698
I5
aI6
asg161
Nsg162
g696
sg163
(lp699
sg165
g64
sg166
Nsg167
Nsg168
Nsbag2
(g3
g4
Ntp700
Rp701
(dp702
g8
g11
sg146
Nsg147
(dp703
sg149
Nsg26
g29
sg150
(lp704
I5
aI7
asg152
Nsg153
VTosefta Gittin 5:7
p705
sg155
(lp706
sg157
g108
sg158
Nsg159
(lp707
I5
aI7
asg161
Nsg162
g705
sg163
(lp708
sg165
g64
sg166
Nsg167
Nsg168
Nsbag2
(g3
g4
Ntp709
Rp710
(dp711
g8
g11
sg146
Nsg147
(dp712
sg149
Nsg26
g29
sg150
(lp713
I5
aI8
asg152
Nsg153
VTosefta Gittin 5:8
p714
sg155
(lp715
sg157
g108
sg158
Nsg159
(lp716
I5
aI8
asg161
Nsg162
g714
sg163
(lp717
sg165
g64
sg166
Nsg167
Nsg168
Nsbag2
(g3
g4
Ntp718
Rp719
(dp720
g8
g11
sg146
Nsg147
(dp721
sg149
Nsg26
g29
sg150
(lp722
I5
aI9
asg152
Nsg153
VTosefta Gittin 5:9
p723
sg155
(lp724
sg157
g108
sg158
Nsg159
(lp725
I5
aI9
asg161
Nsg162
g723
sg163
(lp726
sg165
g64
sg166
Nsg167
Nsg168
Nsbag2
(g3
g4
Ntp727
Rp728
(dp729
g8
g11
sg146
Nsg147
(dp730
sg149
Nsg26
g29
sg150
(lp731
I5
aI10
asg152
Nsg153
VTosefta Gittin 5:10
p732
sg155
(lp733
sg157
g108
sg158
Nsg159
(lp734
I5
aI10
asg161
Nsg162
g732
sg163
(lp735
sg165
g64
sg166
Nsg167
Nsg168
Nsbag2
(g3
g4
Ntp736
Rp737
(dp738
g8
g11
sg146
Nsg147
(dp739
sg149
Nsg26
g29
sg150
(lp740
I5
aI11
asg152
Nsg153
VTosefta Gittin 5:11
p741
sg155
(lp742
sg157
g108
sg158
Nsg159
(lp743
I5
aI11
asg161
Nsg162
g741
sg163
(lp744
sg165
g64
sg166
Nsg167
Nsg168
Nsbag2
(g3
g4
Ntp745
Rp746
(dp747
g8
g11
sg146
Nsg147
(dp748
sg149
Nsg26
g29
sg150
(lp749
I5
aI12
asg152
Nsg153
VTosefta Gittin 5:12
p750
sg155
(lp751
sg157
g108
sg158
Nsg159
(lp752
I5
aI12
asg161
Nsg162
g750
sg163
(lp753
sg165
g64
sg166
Nsg167
Nsg168
Nsbag2
(g3
g4
Ntp754
Rp755
(dp756
g8
g11
sg146
Nsg147
(dp757
sg149
Nsg26
g29
sg150
(lp758
I5
aI13
asg152
Nsg153
VTosefta Gittin 5:13
p759
sg155
(lp760
sg157
g108
sg158
Nsg159
(lp761
I5
aI13
asg161
Nsg162
g759
sg163
(lp762
sg165
g64
sg166
Nsg167
Nsg168
Nsbag2
(g3
g4
Ntp763
Rp764
(dp765
g8
g11
sg146
Nsg147
(dp766
sg149
Nsg26
g29
sg150
(lp767
I6
aI1
asg152
Nsg153
VTosefta Gittin 6:1
p768
sg155
(lp769
sg157
g108
sg158
Nsg159
(lp770
I6
aI1
asg161
Nsg162
g768
sg163
(lp771
sg165
g64
sg166
Nsg167
Nsg168
Nsbag2
(g3
g4
Ntp772
Rp773
(dp774
g8
g11
sg146
Nsg147
(dp775
sg149
Nsg26
g29
sg150
(lp776
I6
aI2
asg152
Nsg153
VTosefta Gittin 6:2
p777
sg155
(lp778
sg157
g108
sg158
Nsg159
(lp779
I6
aI2
asg161
Nsg162
g777
sg163
(lp780
sg165
g64
sg166
Nsg167
Nsg168
Nsbag2
(g3
g4
Ntp781
Rp782
(dp783
g8
g11
sg146
Nsg147
(dp784
sg149
Nsg26
g29
sg150
(lp785
I6
aI3
asg152
Nsg153
VTosefta Gittin 6:3
p786
sg155
(lp787
sg157
g108
sg158
Nsg159
(lp788
I6
aI3
asg161
Nsg162
g786
sg163
(lp789
sg165
g64
sg166
Nsg167
Nsg168
Nsbag2
(g3
g4
Ntp790
Rp791
(dp792
g8
g11
sg146
Nsg147
(dp793
sg149
Nsg26
g29
sg150
(lp794
I6
aI4
asg152
Nsg153
VTosefta Gittin 6:4
p795
sg155
(lp796
sg157
g108
sg158
Nsg159
(lp797
I6
aI4
asg161
Nsg162
g795
sg163
(lp798
sg165
g64
sg166
Nsg167
Nsg168
Nsbag2
(g3
g4
Ntp799
Rp800
(dp801
g8
g11
sg146
Nsg147
(dp802
sg149
Nsg26
g29
sg150
(lp803
I6
aI5
asg152
Nsg153
VTosefta Gittin 6:5
p804
sg155
(lp805
sg157
g108
sg158
Nsg159
(lp806
I6
aI5
asg161
Nsg162
g804
sg163
(lp807
sg165
g64
sg166
Nsg167
Nsg168
Nsbag2
(g3
g4
Ntp808
Rp809
(dp810
g8
g11
sg146
Nsg147
(dp811
sg149
Nsg26
g29
sg150
(lp812
I6
aI6
asg152
Nsg153
VTosefta Gittin 6:6
p813
sg155
(lp814
sg157
g108
sg158
Nsg159
(lp815
I6
aI6
asg161
Nsg162
g813
sg163
(lp816
sg165
g64
sg166
Nsg167
Nsg168
Nsbag2
(g3
g4
Ntp817
Rp818
(dp819
g8
g11
sg146
Nsg147
(dp820
sg149
Nsg26
g29
sg150
(lp821
I6
aI7
asg152
Nsg153
VTosefta Gittin 6:7
p822
sg155
(lp823
sg157
g108
sg158
Nsg159
(lp824
I6
aI7
asg161
Nsg162
g822
sg163
(lp825
sg165
g64
sg166
Nsg167
Nsg168
Nsbag2
(g3
g4
Ntp826
Rp827
(dp828
g8
g11
sg146
Nsg147
(dp829
sg149
Nsg26
g29
sg150
(lp830
I6
aI8
asg152
Nsg153
VTosefta Gittin 6:8
p831
sg155
(lp832
sg157
g108
sg158
Nsg159
(lp833
I6
aI8
asg161
Nsg162
g831
sg163
(lp834
sg165
g64
sg166
Nsg167
Nsg168
Nsbag2
(g3
g4
Ntp835
Rp836
(dp837
g8
g11
sg146
Nsg147
(dp838
sg149
Nsg26
g29
sg150
(lp839
I6
aI9
asg152
Nsg153
VTosefta Gittin 6:9
p840
sg155
(lp841
sg157
g108
sg158
Nsg159
(lp842
I6
aI9
asg161
Nsg162
g840
sg163
(lp843
sg165
g64
sg166
Nsg167
Nsg168
Nsbag2
(g3
g4
Ntp844
Rp845
(dp846
g8
g11
sg146
Nsg147
(dp847
sg149
Nsg26
g29
sg150
(lp848
I6
aI10
asg152
Nsg153
VTosefta Gittin 6:10
p849
sg155
(lp850
sg157
g108
sg158
Nsg159
(lp851
I6
aI10
asg161
Nsg162
g849
sg163
(lp852
sg165
g64
sg166
Nsg167
Nsg168
Nsbag2
(g3
g4
Ntp853
Rp854
(dp855
g8
g11
sg146
Nsg147
(dp856
sg149
Nsg26
g29
sg150
(lp857
I6
aI11
asg152
Nsg153
VTosefta Gittin 6:11
p858
sg155
(lp859
sg157
g108
sg158
Nsg159
(lp860
I6
aI11
asg161
Nsg162
g858
sg163
(lp861
sg165
g64
sg166
Nsg167
Nsg168
Nsbag2
(g3
g4
Ntp862
Rp863
(dp864
g8
g11
sg146
Nsg147
(dp865
sg149
Nsg26
g29
sg150
(lp866
I7
aI1
asg152
Nsg153
VTosefta Gittin 7:1
p867
sg155
(lp868
sg157
g108
sg158
Nsg159
(lp869
I7
aI1
asg161
Nsg162
g867
sg163
(lp870
sg165
g64
sg166
Nsg167
Nsg168
Nsbag2
(g3
g4
Ntp871
Rp872
(dp873
g8
g11
sg146
Nsg147
(dp874
sg149
Nsg26
g29
sg150
(lp875
I7
aI2
asg152
Nsg153
VTosefta Gittin 7:2
p876
sg155
(lp877
sg157
g108
sg158
Nsg159
(lp878
I7
aI2
asg161
Nsg162
g876
sg163
(lp879
sg165
g64
sg166
Nsg167
Nsg168
Nsbag2
(g3
g4
Ntp880
Rp881
(dp882
g8
g11
sg146
Nsg147
(dp883
sg149
Nsg26
g29
sg150
(lp884
I7
aI3
asg152
Nsg153
VTosefta Gittin 7:3
p885
sg155
(lp886
sg157
g108
sg158
Nsg159
(lp887
I7
aI3
asg161
Nsg162
g885
sg163
(lp888
sg165
g64
sg166
Nsg167
Nsg168
Nsbag2
(g3
g4
Ntp889
Rp890
(dp891
g8
g11
sg146
Nsg147
(dp892
sg149
Nsg26
g29
sg150
(lp893
I7
aI4
asg152
Nsg153
VTosefta Gittin 7:4
p894
sg155
(lp895
sg157
g108
sg158
Nsg159
(lp896
I7
aI4
asg161
Nsg162
g894
sg163
(lp897
sg165
g64
sg166
Nsg167
Nsg168
Nsbag2
(g3
g4
Ntp898
Rp899
(dp900
g8
g11
sg146
Nsg147
(dp901
sg149
Nsg26
g29
sg150
(lp902
I7
aI5
asg152
Nsg153
VTosefta Gittin 7:5
p903
sg155
(lp904
sg157
g108
sg158
Nsg159
(lp905
I7
aI5
asg161
Nsg162
g903
sg163
(lp906
sg165
g64
sg166
Nsg167
Nsg168
Nsbag2
(g3
g4
Ntp907
Rp908
(dp909
g8
g11
sg146
Nsg147
(dp910
sg149
Nsg26
g29
sg150
(lp911
I7
aI6
asg152
Nsg153
VTosefta Gittin 7:6
p912
sg155
(lp913
sg157
g108
sg158
Nsg159
(lp914
I7
aI6
asg161
Nsg162
g912
sg163
(lp915
sg165
g64
sg166
Nsg167
Nsg168
Nsbag2
(g3
g4
Ntp916
Rp917
(dp918
g8
g11
sg146
Nsg147
(dp919
sg149
Nsg26
g29
sg150
(lp920
I7
aI7
asg152
Nsg153
VTosefta Gittin 7:7
p921
sg155
(lp922
sg157
g108
sg158
Nsg159
(lp923
I7
aI7
asg161
Nsg162
g921
sg163
(lp924
sg165
g64
sg166
Nsg167
Nsg168
Nsbag2
(g3
g4
Ntp925
Rp926
(dp927
g8
g11
sg146
Nsg147
(dp928
sg149
Nsg26
g29
sg150
(lp929
I7
aI8
asg152
Nsg153
VTosefta Gittin 7:8
p930
sg155
(lp931
sg157
g108
sg158
Nsg159
(lp932
I7
aI8
asg161
Nsg162
g930
sg163
(lp933
sg165
g64
sg166
Nsg167
Nsg168
Nsbag2
(g3
g4
Ntp934
Rp935
(dp936
g8
g11
sg146
Nsg147
(dp937
sg149
Nsg26
g29
sg150
(lp938
I7
aI9
asg152
Nsg153
VTosefta Gittin 7:9
p939
sg155
(lp940
sg157
g108
sg158
Nsg159
(lp941
I7
aI9
asg161
Nsg162
g939
sg163
(lp942
sg165
g64
sg166
Nsg167
Nsg168
Nsbag2
(g3
g4
Ntp943
Rp944
(dp945
g8
g11
sg146
Nsg147
(dp946
sg149
Nsg26
g29
sg150
(lp947
I7
aI10
asg152
Nsg153
VTosefta Gittin 7:10
p948
sg155
(lp949
sg157
g108
sg158
Nsg159
(lp950
I7
aI10
asg161
Nsg162
g948
sg163
(lp951
sg165
g64
sg166
Nsg167
Nsg168
Nsbag2
(g3
g4
Ntp952
Rp953
(dp954
g8
g11
sg146
Nsg147
(dp955
sg149
Nsg26
g29
sg150
(lp956
I7
aI11
asg152
Nsg153
VTosefta Gittin 7:11
p957
sg155
(lp958
sg157
g108
sg158
Nsg159
(lp959
I7
aI11
asg161
Nsg162
g957
sg163
(lp960
sg165
g64
sg166
Nsg167
Nsg168
Nsbatp961
.