((lp0
I0
aI30
aI117
aI161
aI199
aI369
aI472
aI534
aI582
aI689
aI706
aI733
aI812
aI864
aI962
aI1018
aI1103
aI1207
aI1250
a(lp1
ccopy_reg
_reconstructor
p2
(csefaria.model.text
Ref
p3
c__builtin__
object
p4
Ntp5
Rp6
(dp7
S'index_node'
p8
g2
(csefaria.model.schema
JaggedArrayNode
p9
g4
Ntp10
Rp11
(dp12
S'_address'
p13
(lp14
VTosefta Horayot
p15
asS'_full_titles'
p16
(dp17
sVnodeType
p18
VJaggedArrayNode
p19
sS'parent'
p20
NsVaddressTypes
p21
(lp22
VInteger
p23
aVInteger
p24
asS'default'
p25
I00
sS'index'
p26
g2
(csefaria.model.text
Index
p27
g4
Ntp28
Rp29
(dp30
S'struct_objs'
p31
(dp32
sS'_id'
p33
g2
(cbson.objectid
ObjectId
p34
g4
Ntp35
Rp36
S'S0\x07\x9c\xfb\xfb\xa2l+\xb6\x8aA'
p37
bsS'pkeys_orig_values'
p38
(dp39
S'title'
p40
VTosefta Horayot
p41
ssS'pubDate'
p42
V1521
p43
sS'transliteratedTitle'
p44
VTosefta Horayot
p45
sS'pubPlace'
p46
VVenice
p47
sS'compPlace'
p48
VTalmudic Israel
p49
sS'enDesc'
p50
VThe Tosefta (Supplement, addition") is a compilation of the Jewish oral law. Opinions differ widely as to when the Tosefta was redacted and how it relates to the Mishnah. However it closely corresponds to the Mishnah in structure and style, with the same divisions for sedarim ("orders") and masekhot ("tractates"). In many ways, the Tosefta acts as a supplement to the Mishnah. It is mainly written in Mishnaic Hebrew, with some Aramaic. Horayot (Decisions) belongs to the fourth order, Nezikin (The Order of Damages) and discusses the communal sin-offering brought for major errors by the Sanhedrin. It has two chapters.
p51
sS'order'
p52
(lp53
I9
asS'era'
p54
VT
p55
sS'compDate'
p56
V210
p57
sS'nodes'
p58
g11
sS'errorMargin'
p59
V20
p60
sS'_title'
p61
g41
sS'categories'
p62
(lp63
VTosefta
p64
aVSeder Nezikin
p65
asS'schema'
p66
(dp67
g18
g19
sg21
g22
sVlengths
p68
(lp69
I2
asVdepth
p70
I2
sVtitles
p71
(lp72
(dp73
Vlang
p74
Ven
p75
sVtext
p76
VT. Horayot
p77
sa(dp78
Vlang
p79
Ven
p80
sVtext
p81
VTos. Horayot
p82
sa(dp83
Vlang
p84
Ven
p85
sVtext
p86
VTosefta Horayos
p87
sa(dp88
Vlang
p89
Ven
p90
sVtext
p91
VTos. Horayos
p92
sa(dp93
Vlang
p94
Vhe
p95
sVtext
p96
V\u05ea\u05d5\u05e1\u05e4\u05ea\u05d0 \u05d4\u05d5\u05e8\u05d9\u05d5\u05ea
p97
sVprimary
p98
I01
sa(dp99
Vlang
p100
Ven
p101
sVtext
p102
VTosefta Horayot
p103
sVprimary
p104
I01
sasVkey
p105
g15
sVsectionNames
p106
(lp107
VChapter
p108
aVTosefta
p109
assbsS'_primary_title'
p110
(dp111
sS'title_group'
p112
g2
(csefaria.model.schema
TitleGroup
p113
g4
Ntp114
Rp115
(dp116
g110
(dp117
S'en'
p118
g103
ssS'titles'
p119
g72
sbsS'_addressTypes'
p120
(lp121
g2
(csefaria.model.schema
AddressInteger
p122
g4
Ntp123
Rp124
(dp125
S'length'
p126
I2
sg52
I0
sbag2
(g122
g4
Ntp127
Rp128
(dp129
g126
Nsg52
I1
sbasS'sharedTitle'
p130
Nsg68
g69
sg70
I2
sS'_full_title'
p131
(dp132
g118
g103
ssS'key'
p133
g15
sS'checkFirst'
p134
NsS'_regexes'
p135
(dp136
sS'_leaf_nodes'
p137
(lp138
sg106
g107
sS'children'
p139
(lp140
sbsS'_range_index'
p141
NsS'_context'
p142
(dp143
sS'_padded'
p144
Nsg26
g29
sS'sections'
p145
(lp146
I1
aI1
asS'_first_spanned_ref'
p147
NsS'tref'
p148
VTosefta Horayot 1:1
p149
sS'_spanned_refs'
p150
(lp151
sS'book'
p152
g103
sS'_range_depth'
p153
NsS'toSections'
p154
(lp155
I1
aI1
asS'_url'
p156
NsS'_normal'
p157
g149
sS'_ranged_refs'
p158
(lp159
sS'type'
p160
g64
sS'_prev'
p161
NsS'_he_normal'
p162
NsS'_next'
p163
Nsbag2
(g3
g4
Ntp164
Rp165
(dp166
g8
g11
sg141
Nsg142
(dp167
sg144
Nsg26
g29
sg145
(lp168
I1
aI2
asg147
Nsg148
VTosefta Horayot 1:2
p169
sg150
(lp170
sg152
g103
sg153
Nsg154
(lp171
I1
aI2
asg156
Nsg157
g169
sg158
(lp172
sg160
g64
sg161
Nsg162
Nsg163
Nsbag2
(g3
g4
Ntp173
Rp174
(dp175
g8
g11
sg141
Nsg142
(dp176
sg144
Nsg26
g29
sg145
(lp177
I1
aI3
asg147
Nsg148
VTosefta Horayot 1:3
p178
sg150
(lp179
sg152
g103
sg153
Nsg154
(lp180
I1
aI3
asg156
Nsg157
g178
sg158
(lp181
sg160
g64
sg161
Nsg162
Nsg163
Nsbag2
(g3
g4
Ntp182
Rp183
(dp184
g8
g11
sg141
Nsg142
(dp185
sg144
Nsg26
g29
sg145
(lp186
I1
aI4
asg147
Nsg148
VTosefta Horayot 1:4
p187
sg150
(lp188
sg152
g103
sg153
Nsg154
(lp189
I1
aI4
asg156
Nsg157
g187
sg158
(lp190
sg160
g64
sg161
Nsg162
Nsg163
Nsbag2
(g3
g4
Ntp191
Rp192
(dp193
g8
g11
sg141
Nsg142
(dp194
sg144
Nsg26
g29
sg145
(lp195
I1
aI5
asg147
Nsg148
VTosefta Horayot 1:5
p196
sg150
(lp197
sg152
g103
sg153
Nsg154
(lp198
I1
aI5
asg156
Nsg157
g196
sg158
(lp199
sg160
g64
sg161
Nsg162
Nsg163
Nsbag2
(g3
g4
Ntp200
Rp201
(dp202
g8
g11
sg141
Nsg142
(dp203
sg144
Nsg26
g29
sg145
(lp204
I1
aI6
asg147
Nsg148
VTosefta Horayot 1:6
p205
sg150
(lp206
sg152
g103
sg153
Nsg154
(lp207
I1
aI6
asg156
Nsg157
g205
sg158
(lp208
sg160
g64
sg161
Nsg162
Nsg163
Nsbag2
(g3
g4
Ntp209
Rp210
(dp211
g8
g11
sg141
Nsg142
(dp212
sg144
Nsg26
g29
sg145
(lp213
I1
aI7
asg147
Nsg148
VTosefta Horayot 1:7
p214
sg150
(lp215
sg152
g103
sg153
Nsg154
(lp216
I1
aI7
asg156
Nsg157
g214
sg158
(lp217
sg160
g64
sg161
Nsg162
Nsg163
Nsbag2
(g3
g4
Ntp218
Rp219
(dp220
g8
g11
sg141
Nsg142
(dp221
sg144
Nsg26
g29
sg145
(lp222
I1
aI8
asg147
Nsg148
VTosefta Horayot 1:8
p223
sg150
(lp224
sg152
g103
sg153
Nsg154
(lp225
I1
aI8
asg156
Nsg157
g223
sg158
(lp226
sg160
g64
sg161
Nsg162
Nsg163
Nsbag2
(g3
g4
Ntp227
Rp228
(dp229
g8
g11
sg141
Nsg142
(dp230
sg144
Nsg26
g29
sg145
(lp231
I2
aI1
asg147
Nsg148
VTosefta Horayot 2:1
p232
sg150
(lp233
sg152
g103
sg153
Nsg154
(lp234
I2
aI1
asg156
Nsg157
g232
sg158
(lp235
sg160
g64
sg161
Nsg162
Nsg163
Nsbag2
(g3
g4
Ntp236
Rp237
(dp238
g8
g11
sg141
Nsg142
(dp239
sg144
Nsg26
g29
sg145
(lp240
I2
aI2
asg147
Nsg148
VTosefta Horayot 2:2
p241
sg150
(lp242
sg152
g103
sg153
Nsg154
(lp243
I2
aI2
asg156
Nsg157
g241
sg158
(lp244
sg160
g64
sg161
Nsg162
Nsg163
Nsbag2
(g3
g4
Ntp245
Rp246
(dp247
g8
g11
sg141
Nsg142
(dp248
sg144
Nsg26
g29
sg145
(lp249
I2
aI3
asg147
Nsg148
VTosefta Horayot 2:3
p250
sg150
(lp251
sg152
g103
sg153
Nsg154
(lp252
I2
aI3
asg156
Nsg157
g250
sg158
(lp253
sg160
g64
sg161
Nsg162
Nsg163
Nsbag2
(g3
g4
Ntp254
Rp255
(dp256
g8
g11
sg141
Nsg142
(dp257
sg144
Nsg26
g29
sg145
(lp258
I2
aI4
asg147
Nsg148
VTosefta Horayot 2:4
p259
sg150
(lp260
sg152
g103
sg153
Nsg154
(lp261
I2
aI4
asg156
Nsg157
g259
sg158
(lp262
sg160
g64
sg161
Nsg162
Nsg163
Nsbag2
(g3
g4
Ntp263
Rp264
(dp265
g8
g11
sg141
Nsg142
(dp266
sg144
Nsg26
g29
sg145
(lp267
I2
aI5
asg147
Nsg148
VTosefta Horayot 2:5
p268
sg150
(lp269
sg152
g103
sg153
Nsg154
(lp270
I2
aI5
asg156
Nsg157
g268
sg158
(lp271
sg160
g64
sg161
Nsg162
Nsg163
Nsbag2
(g3
g4
Ntp272
Rp273
(dp274
g8
g11
sg141
Nsg142
(dp275
sg144
Nsg26
g29
sg145
(lp276
I2
aI6
asg147
Nsg148
VTosefta Horayot 2:6
p277
sg150
(lp278
sg152
g103
sg153
Nsg154
(lp279
I2
aI6
asg156
Nsg157
g277
sg158
(lp280
sg160
g64
sg161
Nsg162
Nsg163
Nsbag2
(g3
g4
Ntp281
Rp282
(dp283
g8
g11
sg141
Nsg142
(dp284
sg144
Nsg26
g29
sg145
(lp285
I2
aI7
asg147
Nsg148
VTosefta Horayot 2:7
p286
sg150
(lp287
sg152
g103
sg153
Nsg154
(lp288
I2
aI7
asg156
Nsg157
g286
sg158
(lp289
sg160
g64
sg161
Nsg162
Nsg163
Nsbag2
(g3
g4
Ntp290
Rp291
(dp292
g8
g11
sg141
Nsg142
(dp293
sg144
Nsg26
g29
sg145
(lp294
I2
aI8
asg147
Nsg148
VTosefta Horayot 2:8
p295
sg150
(lp296
sg152
g103
sg153
Nsg154
(lp297
I2
aI8
asg156
Nsg157
g295
sg158
(lp298
sg160
g64
sg161
Nsg162
Nsg163
Nsbag2
(g3
g4
Ntp299
Rp300
(dp301
g8
g11
sg141
Nsg142
(dp302
sg144
Nsg26
g29
sg145
(lp303
I2
aI9
asg147
Nsg148
VTosefta Horayot 2:9
p304
sg150
(lp305
sg152
g103
sg153
Nsg154
(lp306
I2
aI9
asg156
Nsg157
g304
sg158
(lp307
sg160
g64
sg161
Nsg162
Nsg163
Nsbag2
(g3
g4
Ntp308
Rp309
(dp310
g8
g11
sg141
Nsg142
(dp311
sg144
Nsg26
g29
sg145
(lp312
I2
aI10
asg147
Nsg148
VTosefta Horayot 2:10
p313
sg150
(lp314
sg152
g103
sg153
Nsg154
(lp315
I2
aI10
asg156
Nsg157
g313
sg158
(lp316
sg160
g64
sg161
Nsg162
Nsg163
Nsbag2
(g3
g4
Ntp317
Rp318
(dp319
g8
g11
sg141
Nsg142
(dp320
sg144
Nsg26
g29
sg145
(lp321
I2
aI11
asg147
Nsg148
VTosefta Horayot 2:11
p322
sg150
(lp323
sg152
g103
sg153
Nsg154
(lp324
I2
aI11
asg156
Nsg157
g322
sg158
(lp325
sg160
g64
sg161
Nsg162
Nsg163
Nsbatp326
.