((lp0
I0
aI49
aI91
aI129
aI199
aI331
aI353
aI391
aI409
aI458
aI500
aI586
aI626
aI727
aI762
aI807
aI963
aI985
aI1030
aI1081
aI1137
aI1187
aI1252
aI1285
aI1338
aI1763
aI1912
aI1964
aI1994
aI2082
aI2118
aI2201
aI2267
aI2364
aI2456
aI2509
aI2591
aI2624
aI2726
aI2790
aI2876
aI2919
a(lp1
ccopy_reg
_reconstructor
p2
(csefaria.model.text
Ref
p3
c__builtin__
object
p4
Ntp5
Rp6
(dp7
S'index_node'
p8
g2
(csefaria.model.schema
JaggedArrayNode
p9
g4
Ntp10
Rp11
(dp12
S'_address'
p13
(lp14
VTosefta Sukkah
p15
asS'_full_titles'
p16
(dp17
sVnodeType
p18
VJaggedArrayNode
p19
sS'parent'
p20
NsVaddressTypes
p21
(lp22
VInteger
p23
aVInteger
p24
asS'default'
p25
I00
sS'index'
p26
g2
(csefaria.model.text
Index
p27
g4
Ntp28
Rp29
(dp30
S'struct_objs'
p31
(dp32
sS'_id'
p33
g2
(cbson.objectid
ObjectId
p34
g4
Ntp35
Rp36
S'Q\xf5\xf7s\xed\xba\xb4k\xf0c\xdd\r'
p37
bsS'pkeys_orig_values'
p38
(dp39
S'title'
p40
VTosefta Sukkah
p41
ssS'pubDate'
p42
V1521
p43
sS'transliteratedTitle'
p44
VTosefta Sukkah
p45
sS'pubPlace'
p46
VVenice
p47
sS'compPlace'
p48
VTalmudic Israel
p49
sS'enDesc'
p50
VThe Tosefta (Supplement, addition") is a compilation of the Jewish oral law. Opinions differ widely as to when the Tosefta was redacted and how it relates to the Mishnah. However it closely corresponds to the Mishnah in structure and style, with the same divisions for sedarim ("orders") and masekhot ("tractates"). In many ways, the Tosefta acts as a supplement to the Mishnah. It is mainly written in Mishnaic Hebrew, with some Aramaic. Sukkah (Booths) belongs to the second order, Moed (Festivals) and discusses the festival of Sukkot (the Feast of Tabernacles) and the Sukkah itself. Also deals with the Four Species (Lulav, Etrog, Hadass, Aravah \u2014 Palm branch, Citron, Myrtle, Willow) which are waved on Sukkot. It has five chapters.
p51
sS'order'
p52
(lp53
I6
asS'era'
p54
VT
p55
sS'compDate'
p56
V210
p57
sS'nodes'
p58
g11
sS'errorMargin'
p59
V20
p60
sS'_title'
p61
g41
sS'categories'
p62
(lp63
VTosefta
p64
aVSeder Moed
p65
asS'schema'
p66
(dp67
g18
g19
sg21
g22
sVlengths
p68
(lp69
I4
asVdepth
p70
I2
sVtitles
p71
(lp72
(dp73
Vlang
p74
Ven
p75
sVtext
p76
VT. Sukkah
p77
sa(dp78
Vlang
p79
Ven
p80
sVtext
p81
VTos. Sukkah
p82
sa(dp83
Vlang
p84
Ven
p85
sVtext
p86
VTosefta Succah
p87
sa(dp88
Vlang
p89
Ven
p90
sVtext
p91
VTos. Sukah
p92
sa(dp93
Vlang
p94
Ven
p95
sVtext
p96
VTosefta Sukah
p97
sa(dp98
Vlang
p99
Ven
p100
sVtext
p101
VT. Sukah
p102
sa(dp103
Vlang
p104
Vhe
p105
sVtext
p106
V\u05ea\u05d5\u05e1\u05e4\u05ea\u05d0 \u05e1\u05d5\u05db\u05d4
p107
sVprimary
p108
I01
sa(dp109
Vlang
p110
Ven
p111
sVtext
p112
VTosefta Sukkah
p113
sVprimary
p114
I01
sasVkey
p115
g15
sVsectionNames
p116
(lp117
VChapter
p118
aVTosefta
p119
assbsS'_primary_title'
p120
(dp121
sS'title_group'
p122
g2
(csefaria.model.schema
TitleGroup
p123
g4
Ntp124
Rp125
(dp126
g120
(dp127
S'en'
p128
g113
ssS'titles'
p129
g72
sbsS'_addressTypes'
p130
(lp131
g2
(csefaria.model.schema
AddressInteger
p132
g4
Ntp133
Rp134
(dp135
S'length'
p136
I4
sg52
I0
sbag2
(g132
g4
Ntp137
Rp138
(dp139
g136
Nsg52
I1
sbasS'sharedTitle'
p140
Nsg68
g69
sg70
I2
sS'_full_title'
p141
(dp142
g128
g113
ssS'key'
p143
g15
sS'checkFirst'
p144
NsS'_regexes'
p145
(dp146
sS'_leaf_nodes'
p147
(lp148
sg116
g117
sS'children'
p149
(lp150
sbsS'_range_index'
p151
NsS'_context'
p152
(dp153
sS'_padded'
p154
Nsg26
g29
sS'sections'
p155
(lp156
I1
aI1
asS'_first_spanned_ref'
p157
NsS'tref'
p158
VTosefta Sukkah 1:1
p159
sS'_spanned_refs'
p160
(lp161
sS'book'
p162
g113
sS'_range_depth'
p163
NsS'toSections'
p164
(lp165
I1
aI1
asS'_url'
p166
NsS'_normal'
p167
g159
sS'_ranged_refs'
p168
(lp169
sS'type'
p170
g64
sS'_prev'
p171
NsS'_he_normal'
p172
NsS'_next'
p173
Nsbag2
(g3
g4
Ntp174
Rp175
(dp176
g8
g11
sg151
Nsg152
(dp177
sg154
Nsg26
g29
sg155
(lp178
I1
aI2
asg157
Nsg158
VTosefta Sukkah 1:2
p179
sg160
(lp180
sg162
g113
sg163
Nsg164
(lp181
I1
aI2
asg166
Nsg167
g179
sg168
(lp182
sg170
g64
sg171
Nsg172
Nsg173
Nsbag2
(g3
g4
Ntp183
Rp184
(dp185
g8
g11
sg151
Nsg152
(dp186
sg154
Nsg26
g29
sg155
(lp187
I1
aI3
asg157
Nsg158
VTosefta Sukkah 1:3
p188
sg160
(lp189
sg162
g113
sg163
Nsg164
(lp190
I1
aI3
asg166
Nsg167
g188
sg168
(lp191
sg170
g64
sg171
Nsg172
Nsg173
Nsbag2
(g3
g4
Ntp192
Rp193
(dp194
g8
g11
sg151
Nsg152
(dp195
sg154
Nsg26
g29
sg155
(lp196
I1
aI4
asg157
Nsg158
VTosefta Sukkah 1:4
p197
sg160
(lp198
sg162
g113
sg163
Nsg164
(lp199
I1
aI4
asg166
Nsg167
g197
sg168
(lp200
sg170
g64
sg171
Nsg172
Nsg173
Nsbag2
(g3
g4
Ntp201
Rp202
(dp203
g8
g11
sg151
Nsg152
(dp204
sg154
Nsg26
g29
sg155
(lp205
I1
aI5
asg157
Nsg158
VTosefta Sukkah 1:5
p206
sg160
(lp207
sg162
g113
sg163
Nsg164
(lp208
I1
aI5
asg166
Nsg167
g206
sg168
(lp209
sg170
g64
sg171
Nsg172
Nsg173
Nsbag2
(g3
g4
Ntp210
Rp211
(dp212
g8
g11
sg151
Nsg152
(dp213
sg154
Nsg26
g29
sg155
(lp214
I1
aI6
asg157
Nsg158
VTosefta Sukkah 1:6
p215
sg160
(lp216
sg162
g113
sg163
Nsg164
(lp217
I1
aI6
asg166
Nsg167
g215
sg168
(lp218
sg170
g64
sg171
Nsg172
Nsg173
Nsbag2
(g3
g4
Ntp219
Rp220
(dp221
g8
g11
sg151
Nsg152
(dp222
sg154
Nsg26
g29
sg155
(lp223
I1
aI7
asg157
Nsg158
VTosefta Sukkah 1:7
p224
sg160
(lp225
sg162
g113
sg163
Nsg164
(lp226
I1
aI7
asg166
Nsg167
g224
sg168
(lp227
sg170
g64
sg171
Nsg172
Nsg173
Nsbag2
(g3
g4
Ntp228
Rp229
(dp230
g8
g11
sg151
Nsg152
(dp231
sg154
Nsg26
g29
sg155
(lp232
I1
aI8
asg157
Nsg158
VTosefta Sukkah 1:8
p233
sg160
(lp234
sg162
g113
sg163
Nsg164
(lp235
I1
aI8
asg166
Nsg167
g233
sg168
(lp236
sg170
g64
sg171
Nsg172
Nsg173
Nsbag2
(g3
g4
Ntp237
Rp238
(dp239
g8
g11
sg151
Nsg152
(dp240
sg154
Nsg26
g29
sg155
(lp241
I1
aI9
asg157
Nsg158
VTosefta Sukkah 1:9
p242
sg160
(lp243
sg162
g113
sg163
Nsg164
(lp244
I1
aI9
asg166
Nsg167
g242
sg168
(lp245
sg170
g64
sg171
Nsg172
Nsg173
Nsbag2
(g3
g4
Ntp246
Rp247
(dp248
g8
g11
sg151
Nsg152
(dp249
sg154
Nsg26
g29
sg155
(lp250
I2
aI1
asg157
Nsg158
VTosefta Sukkah 2:1
p251
sg160
(lp252
sg162
g113
sg163
Nsg164
(lp253
I2
aI1
asg166
Nsg167
g251
sg168
(lp254
sg170
g64
sg171
Nsg172
Nsg173
Nsbag2
(g3
g4
Ntp255
Rp256
(dp257
g8
g11
sg151
Nsg152
(dp258
sg154
Nsg26
g29
sg155
(lp259
I2
aI2
asg157
Nsg158
VTosefta Sukkah 2:2
p260
sg160
(lp261
sg162
g113
sg163
Nsg164
(lp262
I2
aI2
asg166
Nsg167
g260
sg168
(lp263
sg170
g64
sg171
Nsg172
Nsg173
Nsbag2
(g3
g4
Ntp264
Rp265
(dp266
g8
g11
sg151
Nsg152
(dp267
sg154
Nsg26
g29
sg155
(lp268
I2
aI3
asg157
Nsg158
VTosefta Sukkah 2:3
p269
sg160
(lp270
sg162
g113
sg163
Nsg164
(lp271
I2
aI3
asg166
Nsg167
g269
sg168
(lp272
sg170
g64
sg171
Nsg172
Nsg173
Nsbag2
(g3
g4
Ntp273
Rp274
(dp275
g8
g11
sg151
Nsg152
(dp276
sg154
Nsg26
g29
sg155
(lp277
I2
aI4
asg157
Nsg158
VTosefta Sukkah 2:4
p278
sg160
(lp279
sg162
g113
sg163
Nsg164
(lp280
I2
aI4
asg166
Nsg167
g278
sg168
(lp281
sg170
g64
sg171
Nsg172
Nsg173
Nsbag2
(g3
g4
Ntp282
Rp283
(dp284
g8
g11
sg151
Nsg152
(dp285
sg154
Nsg26
g29
sg155
(lp286
I2
aI5
asg157
Nsg158
VTosefta Sukkah 2:5
p287
sg160
(lp288
sg162
g113
sg163
Nsg164
(lp289
I2
aI5
asg166
Nsg167
g287
sg168
(lp290
sg170
g64
sg171
Nsg172
Nsg173
Nsbag2
(g3
g4
Ntp291
Rp292
(dp293
g8
g11
sg151
Nsg152
(dp294
sg154
Nsg26
g29
sg155
(lp295
I2
aI6
asg157
Nsg158
VTosefta Sukkah 2:6
p296
sg160
(lp297
sg162
g113
sg163
Nsg164
(lp298
I2
aI6
asg166
Nsg167
g296
sg168
(lp299
sg170
g64
sg171
Nsg172
Nsg173
Nsbag2
(g3
g4
Ntp300
Rp301
(dp302
g8
g11
sg151
Nsg152
(dp303
sg154
Nsg26
g29
sg155
(lp304
I2
aI7
asg157
Nsg158
VTosefta Sukkah 2:7
p305
sg160
(lp306
sg162
g113
sg163
Nsg164
(lp307
I2
aI7
asg166
Nsg167
g305
sg168
(lp308
sg170
g64
sg171
Nsg172
Nsg173
Nsbag2
(g3
g4
Ntp309
Rp310
(dp311
g8
g11
sg151
Nsg152
(dp312
sg154
Nsg26
g29
sg155
(lp313
I2
aI8
asg157
Nsg158
VTosefta Sukkah 2:8
p314
sg160
(lp315
sg162
g113
sg163
Nsg164
(lp316
I2
aI8
asg166
Nsg167
g314
sg168
(lp317
sg170
g64
sg171
Nsg172
Nsg173
Nsbag2
(g3
g4
Ntp318
Rp319
(dp320
g8
g11
sg151
Nsg152
(dp321
sg154
Nsg26
g29
sg155
(lp322
I2
aI9
asg157
Nsg158
VTosefta Sukkah 2:9
p323
sg160
(lp324
sg162
g113
sg163
Nsg164
(lp325
I2
aI9
asg166
Nsg167
g323
sg168
(lp326
sg170
g64
sg171
Nsg172
Nsg173
Nsbag2
(g3
g4
Ntp327
Rp328
(dp329
g8
g11
sg151
Nsg152
(dp330
sg154
Nsg26
g29
sg155
(lp331
I2
aI10
asg157
Nsg158
VTosefta Sukkah 2:10
p332
sg160
(lp333
sg162
g113
sg163
Nsg164
(lp334
I2
aI10
asg166
Nsg167
g332
sg168
(lp335
sg170
g64
sg171
Nsg172
Nsg173
Nsbag2
(g3
g4
Ntp336
Rp337
(dp338
g8
g11
sg151
Nsg152
(dp339
sg154
Nsg26
g29
sg155
(lp340
I2
aI11
asg157
Nsg158
VTosefta Sukkah 2:11
p341
sg160
(lp342
sg162
g113
sg163
Nsg164
(lp343
I2
aI11
asg166
Nsg167
g341
sg168
(lp344
sg170
g64
sg171
Nsg172
Nsg173
Nsbag2
(g3
g4
Ntp345
Rp346
(dp347
g8
g11
sg151
Nsg152
(dp348
sg154
Nsg26
g29
sg155
(lp349
I2
aI12
asg157
Nsg158
VTosefta Sukkah 2:12
p350
sg160
(lp351
sg162
g113
sg163
Nsg164
(lp352
I2
aI12
asg166
Nsg167
g350
sg168
(lp353
sg170
g64
sg171
Nsg172
Nsg173
Nsbag2
(g3
g4
Ntp354
Rp355
(dp356
g8
g11
sg151
Nsg152
(dp357
sg154
Nsg26
g29
sg155
(lp358
I2
aI13
asg157
Nsg158
VTosefta Sukkah 2:13
p359
sg160
(lp360
sg162
g113
sg163
Nsg164
(lp361
I2
aI13
asg166
Nsg167
g359
sg168
(lp362
sg170
g64
sg171
Nsg172
Nsg173
Nsbag2
(g3
g4
Ntp363
Rp364
(dp365
g8
g11
sg151
Nsg152
(dp366
sg154
Nsg26
g29
sg155
(lp367
I3
aI1
asg157
Nsg158
VTosefta Sukkah 3:1
p368
sg160
(lp369
sg162
g113
sg163
Nsg164
(lp370
I3
aI1
asg166
Nsg167
g368
sg168
(lp371
sg170
g64
sg171
Nsg172
Nsg173
Nsbag2
(g3
g4
Ntp372
Rp373
(dp374
g8
g11
sg151
Nsg152
(dp375
sg154
Nsg26
g29
sg155
(lp376
I3
aI2
asg157
Nsg158
VTosefta Sukkah 3:2
p377
sg160
(lp378
sg162
g113
sg163
Nsg164
(lp379
I3
aI2
asg166
Nsg167
g377
sg168
(lp380
sg170
g64
sg171
Nsg172
Nsg173
Nsbag2
(g3
g4
Ntp381
Rp382
(dp383
g8
g11
sg151
Nsg152
(dp384
sg154
Nsg26
g29
sg155
(lp385
I3
aI3
asg157
Nsg158
VTosefta Sukkah 3:3
p386
sg160
(lp387
sg162
g113
sg163
Nsg164
(lp388
I3
aI3
asg166
Nsg167
g386
sg168
(lp389
sg170
g64
sg171
Nsg172
Nsg173
Nsbag2
(g3
g4
Ntp390
Rp391
(dp392
g8
g11
sg151
Nsg152
(dp393
sg154
Nsg26
g29
sg155
(lp394
I3
aI4
asg157
Nsg158
VTosefta Sukkah 3:4
p395
sg160
(lp396
sg162
g113
sg163
Nsg164
(lp397
I3
aI4
asg166
Nsg167
g395
sg168
(lp398
sg170
g64
sg171
Nsg172
Nsg173
Nsbag2
(g3
g4
Ntp399
Rp400
(dp401
g8
g11
sg151
Nsg152
(dp402
sg154
Nsg26
g29
sg155
(lp403
I3
aI5
asg157
Nsg158
VTosefta Sukkah 3:5
p404
sg160
(lp405
sg162
g113
sg163
Nsg164
(lp406
I3
aI5
asg166
Nsg167
g404
sg168
(lp407
sg170
g64
sg171
Nsg172
Nsg173
Nsbag2
(g3
g4
Ntp408
Rp409
(dp410
g8
g11
sg151
Nsg152
(dp411
sg154
Nsg26
g29
sg155
(lp412
I3
aI6
asg157
Nsg158
VTosefta Sukkah 3:6
p413
sg160
(lp414
sg162
g113
sg163
Nsg164
(lp415
I3
aI6
asg166
Nsg167
g413
sg168
(lp416
sg170
g64
sg171
Nsg172
Nsg173
Nsbag2
(g3
g4
Ntp417
Rp418
(dp419
g8
g11
sg151
Nsg152
(dp420
sg154
Nsg26
g29
sg155
(lp421
I3
aI7
asg157
Nsg158
VTosefta Sukkah 3:7
p422
sg160
(lp423
sg162
g113
sg163
Nsg164
(lp424
I3
aI7
asg166
Nsg167
g422
sg168
(lp425
sg170
g64
sg171
Nsg172
Nsg173
Nsbag2
(g3
g4
Ntp426
Rp427
(dp428
g8
g11
sg151
Nsg152
(dp429
sg154
Nsg26
g29
sg155
(lp430
I4
aI1
asg157
Nsg158
VTosefta Sukkah 4:1
p431
sg160
(lp432
sg162
g113
sg163
Nsg164
(lp433
I4
aI1
asg166
Nsg167
g431
sg168
(lp434
sg170
g64
sg171
Nsg172
Nsg173
Nsbag2
(g3
g4
Ntp435
Rp436
(dp437
g8
g11
sg151
Nsg152
(dp438
sg154
Nsg26
g29
sg155
(lp439
I4
aI2
asg157
Nsg158
VTosefta Sukkah 4:2
p440
sg160
(lp441
sg162
g113
sg163
Nsg164
(lp442
I4
aI2
asg166
Nsg167
g440
sg168
(lp443
sg170
g64
sg171
Nsg172
Nsg173
Nsbag2
(g3
g4
Ntp444
Rp445
(dp446
g8
g11
sg151
Nsg152
(dp447
sg154
Nsg26
g29
sg155
(lp448
I4
aI3
asg157
Nsg158
VTosefta Sukkah 4:3
p449
sg160
(lp450
sg162
g113
sg163
Nsg164
(lp451
I4
aI3
asg166
Nsg167
g449
sg168
(lp452
sg170
g64
sg171
Nsg172
Nsg173
Nsbag2
(g3
g4
Ntp453
Rp454
(dp455
g8
g11
sg151
Nsg152
(dp456
sg154
Nsg26
g29
sg155
(lp457
I4
aI4
asg157
Nsg158
VTosefta Sukkah 4:4
p458
sg160
(lp459
sg162
g113
sg163
Nsg164
(lp460
I4
aI4
asg166
Nsg167
g458
sg168
(lp461
sg170
g64
sg171
Nsg172
Nsg173
Nsbag2
(g3
g4
Ntp462
Rp463
(dp464
g8
g11
sg151
Nsg152
(dp465
sg154
Nsg26
g29
sg155
(lp466
I4
aI5
asg157
Nsg158
VTosefta Sukkah 4:5
p467
sg160
(lp468
sg162
g113
sg163
Nsg164
(lp469
I4
aI5
asg166
Nsg167
g467
sg168
(lp470
sg170
g64
sg171
Nsg172
Nsg173
Nsbag2
(g3
g4
Ntp471
Rp472
(dp473
g8
g11
sg151
Nsg152
(dp474
sg154
Nsg26
g29
sg155
(lp475
I4
aI6
asg157
Nsg158
VTosefta Sukkah 4:6
p476
sg160
(lp477
sg162
g113
sg163
Nsg164
(lp478
I4
aI6
asg166
Nsg167
g476
sg168
(lp479
sg170
g64
sg171
Nsg172
Nsg173
Nsbag2
(g3
g4
Ntp480
Rp481
(dp482
g8
g11
sg151
Nsg152
(dp483
sg154
Nsg26
g29
sg155
(lp484
I4
aI7
asg157
Nsg158
VTosefta Sukkah 4:7
p485
sg160
(lp486
sg162
g113
sg163
Nsg164
(lp487
I4
aI7
asg166
Nsg167
g485
sg168
(lp488
sg170
g64
sg171
Nsg172
Nsg173
Nsbag2
(g3
g4
Ntp489
Rp490
(dp491
g8
g11
sg151
Nsg152
(dp492
sg154
Nsg26
g29
sg155
(lp493
I4
aI8
asg157
Nsg158
VTosefta Sukkah 4:8
p494
sg160
(lp495
sg162
g113
sg163
Nsg164
(lp496
I4
aI8
asg166
Nsg167
g494
sg168
(lp497
sg170
g64
sg171
Nsg172
Nsg173
Nsbag2
(g3
g4
Ntp498
Rp499
(dp500
g8
g11
sg151
Nsg152
(dp501
sg154
Nsg26
g29
sg155
(lp502
I4
aI9
asg157
Nsg158
VTosefta Sukkah 4:9
p503
sg160
(lp504
sg162
g113
sg163
Nsg164
(lp505
I4
aI9
asg166
Nsg167
g503
sg168
(lp506
sg170
g64
sg171
Nsg172
Nsg173
Nsbag2
(g3
g4
Ntp507
Rp508
(dp509
g8
g11
sg151
Nsg152
(dp510
sg154
Nsg26
g29
sg155
(lp511
I4
aI10
asg157
Nsg158
VTosefta Sukkah 4:10
p512
sg160
(lp513
sg162
g113
sg163
Nsg164
(lp514
I4
aI10
asg166
Nsg167
g512
sg168
(lp515
sg170
g64
sg171
Nsg172
Nsg173
Nsbag2
(g3
g4
Ntp516
Rp517
(dp518
g8
g11
sg151
Nsg152
(dp519
sg154
Nsg26
g29
sg155
(lp520
I4
aI11
asg157
Nsg158
VTosefta Sukkah 4:11
p521
sg160
(lp522
sg162
g113
sg163
Nsg164
(lp523
I4
aI11
asg166
Nsg167
g521
sg168
(lp524
sg170
g64
sg171
Nsg172
Nsg173
Nsbag2
(g3
g4
Ntp525
Rp526
(dp527
g8
g11
sg151
Nsg152
(dp528
sg154
Nsg26
g29
sg155
(lp529
I4
aI12
asg157
Nsg158
VTosefta Sukkah 4:12
p530
sg160
(lp531
sg162
g113
sg163
Nsg164
(lp532
I4
aI12
asg166
Nsg167
g530
sg168
(lp533
sg170
g64
sg171
Nsg172
Nsg173
Nsbag2
(g3
g4
Ntp534
Rp535
(dp536
g8
g11
sg151
Nsg152
(dp537
sg154
Nsg26
g29
sg155
(lp538
I4
aI13
asg157
Nsg158
VTosefta Sukkah 4:13
p539
sg160
(lp540
sg162
g113
sg163
Nsg164
(lp541
I4
aI13
asg166
Nsg167
g539
sg168
(lp542
sg170
g64
sg171
Nsg172
Nsg173
Nsbatp543
.