((lp0
I0
aI54
aI67
aI80
aI96
aI123
aI152
aI162
aI195
aI293
aI311
aI329
aI343
aI375
aI399
aI421
aI439
aI448
aI479
aI514
aI539
aI554
aI572
aI589
aI607
aI616
aI649
aI665
aI689
aI724
aI740
aI754
aI768
aI781
aI809
aI839
aI911
aI941
aI972
aI994
aI1009
aI1021
aI1032
aI1068
aI1084
aI1101
aI1164
aI1189
aI1212
aI1236
aI1253
aI1283
aI1323
aI1335
aI1355
aI1368
aI1405
aI1432
aI1461
aI1488
a(lp1
ccopy_reg
_reconstructor
p2
(csefaria.model.text
Ref
p3
c__builtin__
object
p4
Ntp5
Rp6
(dp7
S'index_node'
p8
g2
(csefaria.model.schema
JaggedArrayNode
p9
g4
Ntp10
Rp11
(dp12
S'_address'
p13
(lp14
VTractate Sefer Torah
p15
asS'_full_titles'
p16
(dp17
sVnodeType
p18
VJaggedArrayNode
p19
sS'parent'
p20
NsVaddressTypes
p21
(lp22
VInteger
p23
aVInteger
p24
asS'default'
p25
I00
sS'index'
p26
g2
(csefaria.model.text
Index
p27
g4
Ntp28
Rp29
(dp30
S'pkeys_orig_values'
p31
(dp32
S'title'
p33
VTractate Sefer Torah
p34
ssS'struct_objs'
p35
(dp36
sS'nodes'
p37
g11
sS'_id'
p38
g2
(cbson.objectid
ObjectId
p39
g4
Ntp40
Rp41
S'Xl\xb8J\x19\xab\x88f\xbc\xa4\x99\x0c'
p42
bsS'_title'
p43
g34
sS'categories'
p44
(lp45
VMasechtot Ketanot
p46
asS'schema'
p47
(dp48
g18
g19
sg21
g22
sVdepth
p49
I2
sVtitles
p50
(lp51
(dp52
Vlang
p53
Vhe
p54
sVtext
p55
V\u05de\u05e1\u05db\u05ea \u05e1\u05e4\u05e8 \u05ea\u05d5\u05e8\u05d4
p56
sVprimary
p57
I01
sa(dp58
Vlang
p59
Ven
p60
sVtext
p61
VTractate Sefer Torah
p62
sVprimary
p63
I01
sasVkey
p64
g15
sVsectionNames
p65
(lp66
VChapter
p67
aVHalakhah
p68
assbsS'_primary_title'
p69
(dp70
sS'title_group'
p71
g2
(csefaria.model.schema
TitleGroup
p72
g4
Ntp73
Rp74
(dp75
g69
(dp76
S'en'
p77
g62
ssS'titles'
p78
g51
sbsS'_addressTypes'
p79
(lp80
g2
(csefaria.model.schema
AddressInteger
p81
g4
Ntp82
Rp83
(dp84
S'length'
p85
NsS'order'
p86
I0
sbag2
(g81
g4
Ntp87
Rp88
(dp89
g85
Nsg86
I1
sbasS'sharedTitle'
p90
Nsg49
I2
sS'_full_title'
p91
(dp92
g77
g62
ssS'key'
p93
g15
sS'checkFirst'
p94
NsS'_regexes'
p95
(dp96
sS'_leaf_nodes'
p97
(lp98
sg65
g66
sS'children'
p99
(lp100
sbsS'_range_index'
p101
NsS'_context'
p102
(dp103
sS'_padded'
p104
Nsg26
g29
sS'sections'
p105
(lp106
I1
aI1
asS'_first_spanned_ref'
p107
NsS'tref'
p108
VTractate Sefer Torah 1:1
p109
sS'_spanned_refs'
p110
(lp111
sS'book'
p112
g62
sS'_range_depth'
p113
NsS'toSections'
p114
(lp115
I1
aI1
asS'_url'
p116
NsS'_normal'
p117
g109
sS'_ranged_refs'
p118
(lp119
sS'type'
p120
g46
sS'_prev'
p121
NsS'_he_normal'
p122
NsS'_next'
p123
Nsbag2
(g3
g4
Ntp124
Rp125
(dp126
g8
g11
sg101
Nsg102
(dp127
sg104
Nsg26
g29
sg105
(lp128
I1
aI2
asg107
Nsg108
VTractate Sefer Torah 1:2
p129
sg110
(lp130
sg112
g62
sg113
Nsg114
(lp131
I1
aI2
asg116
Nsg117
g129
sg118
(lp132
sg120
g46
sg121
Nsg122
Nsg123
Nsbag2
(g3
g4
Ntp133
Rp134
(dp135
g8
g11
sg101
Nsg102
(dp136
sg104
Nsg26
g29
sg105
(lp137
I1
aI3
asg107
Nsg108
VTractate Sefer Torah 1:3
p138
sg110
(lp139
sg112
g62
sg113
Nsg114
(lp140
I1
aI3
asg116
Nsg117
g138
sg118
(lp141
sg120
g46
sg121
Nsg122
Nsg123
Nsbag2
(g3
g4
Ntp142
Rp143
(dp144
g8
g11
sg101
Nsg102
(dp145
sg104
Nsg26
g29
sg105
(lp146
I1
aI4
asg107
Nsg108
VTractate Sefer Torah 1:4
p147
sg110
(lp148
sg112
g62
sg113
Nsg114
(lp149
I1
aI4
asg116
Nsg117
g147
sg118
(lp150
sg120
g46
sg121
Nsg122
Nsg123
Nsbag2
(g3
g4
Ntp151
Rp152
(dp153
g8
g11
sg101
Nsg102
(dp154
sg104
Nsg26
g29
sg105
(lp155
I1
aI5
asg107
Nsg108
VTractate Sefer Torah 1:5
p156
sg110
(lp157
sg112
g62
sg113
Nsg114
(lp158
I1
aI5
asg116
Nsg117
g156
sg118
(lp159
sg120
g46
sg121
Nsg122
Nsg123
Nsbag2
(g3
g4
Ntp160
Rp161
(dp162
g8
g11
sg101
Nsg102
(dp163
sg104
Nsg26
g29
sg105
(lp164
I1
aI6
asg107
Nsg108
VTractate Sefer Torah 1:6
p165
sg110
(lp166
sg112
g62
sg113
Nsg114
(lp167
I1
aI6
asg116
Nsg117
g165
sg118
(lp168
sg120
g46
sg121
Nsg122
Nsg123
Nsbag2
(g3
g4
Ntp169
Rp170
(dp171
g8
g11
sg101
Nsg102
(dp172
sg104
Nsg26
g29
sg105
(lp173
I1
aI7
asg107
Nsg108
VTractate Sefer Torah 1:7
p174
sg110
(lp175
sg112
g62
sg113
Nsg114
(lp176
I1
aI7
asg116
Nsg117
g174
sg118
(lp177
sg120
g46
sg121
Nsg122
Nsg123
Nsbag2
(g3
g4
Ntp178
Rp179
(dp180
g8
g11
sg101
Nsg102
(dp181
sg104
Nsg26
g29
sg105
(lp182
I1
aI8
asg107
Nsg108
VTractate Sefer Torah 1:8
p183
sg110
(lp184
sg112
g62
sg113
Nsg114
(lp185
I1
aI8
asg116
Nsg117
g183
sg118
(lp186
sg120
g46
sg121
Nsg122
Nsg123
Nsbag2
(g3
g4
Ntp187
Rp188
(dp189
g8
g11
sg101
Nsg102
(dp190
sg104
Nsg26
g29
sg105
(lp191
I1
aI9
asg107
Nsg108
VTractate Sefer Torah 1:9
p192
sg110
(lp193
sg112
g62
sg113
Nsg114
(lp194
I1
aI9
asg116
Nsg117
g192
sg118
(lp195
sg120
g46
sg121
Nsg122
Nsg123
Nsbag2
(g3
g4
Ntp196
Rp197
(dp198
g8
g11
sg101
Nsg102
(dp199
sg104
Nsg26
g29
sg105
(lp200
I1
aI10
asg107
Nsg108
VTractate Sefer Torah 1:10
p201
sg110
(lp202
sg112
g62
sg113
Nsg114
(lp203
I1
aI10
asg116
Nsg117
g201
sg118
(lp204
sg120
g46
sg121
Nsg122
Nsg123
Nsbag2
(g3
g4
Ntp205
Rp206
(dp207
g8
g11
sg101
Nsg102
(dp208
sg104
Nsg26
g29
sg105
(lp209
I1
aI11
asg107
Nsg108
VTractate Sefer Torah 1:11
p210
sg110
(lp211
sg112
g62
sg113
Nsg114
(lp212
I1
aI11
asg116
Nsg117
g210
sg118
(lp213
sg120
g46
sg121
Nsg122
Nsg123
Nsbag2
(g3
g4
Ntp214
Rp215
(dp216
g8
g11
sg101
Nsg102
(dp217
sg104
Nsg26
g29
sg105
(lp218
I1
aI12
asg107
Nsg108
VTractate Sefer Torah 1:12
p219
sg110
(lp220
sg112
g62
sg113
Nsg114
(lp221
I1
aI12
asg116
Nsg117
g219
sg118
(lp222
sg120
g46
sg121
Nsg122
Nsg123
Nsbag2
(g3
g4
Ntp223
Rp224
(dp225
g8
g11
sg101
Nsg102
(dp226
sg104
Nsg26
g29
sg105
(lp227
I1
aI13
asg107
Nsg108
VTractate Sefer Torah 1:13
p228
sg110
(lp229
sg112
g62
sg113
Nsg114
(lp230
I1
aI13
asg116
Nsg117
g228
sg118
(lp231
sg120
g46
sg121
Nsg122
Nsg123
Nsbag2
(g3
g4
Ntp232
Rp233
(dp234
g8
g11
sg101
Nsg102
(dp235
sg104
Nsg26
g29
sg105
(lp236
I1
aI14
asg107
Nsg108
VTractate Sefer Torah 1:14
p237
sg110
(lp238
sg112
g62
sg113
Nsg114
(lp239
I1
aI14
asg116
Nsg117
g237
sg118
(lp240
sg120
g46
sg121
Nsg122
Nsg123
Nsbag2
(g3
g4
Ntp241
Rp242
(dp243
g8
g11
sg101
Nsg102
(dp244
sg104
Nsg26
g29
sg105
(lp245
I2
aI1
asg107
Nsg108
VTractate Sefer Torah 2:1
p246
sg110
(lp247
sg112
g62
sg113
Nsg114
(lp248
I2
aI1
asg116
Nsg117
g246
sg118
(lp249
sg120
g46
sg121
Nsg122
Nsg123
Nsbag2
(g3
g4
Ntp250
Rp251
(dp252
g8
g11
sg101
Nsg102
(dp253
sg104
Nsg26
g29
sg105
(lp254
I2
aI2
asg107
Nsg108
VTractate Sefer Torah 2:2
p255
sg110
(lp256
sg112
g62
sg113
Nsg114
(lp257
I2
aI2
asg116
Nsg117
g255
sg118
(lp258
sg120
g46
sg121
Nsg122
Nsg123
Nsbag2
(g3
g4
Ntp259
Rp260
(dp261
g8
g11
sg101
Nsg102
(dp262
sg104
Nsg26
g29
sg105
(lp263
I2
aI3
asg107
Nsg108
VTractate Sefer Torah 2:3
p264
sg110
(lp265
sg112
g62
sg113
Nsg114
(lp266
I2
aI3
asg116
Nsg117
g264
sg118
(lp267
sg120
g46
sg121
Nsg122
Nsg123
Nsbag2
(g3
g4
Ntp268
Rp269
(dp270
g8
g11
sg101
Nsg102
(dp271
sg104
Nsg26
g29
sg105
(lp272
I2
aI4
asg107
Nsg108
VTractate Sefer Torah 2:4
p273
sg110
(lp274
sg112
g62
sg113
Nsg114
(lp275
I2
aI4
asg116
Nsg117
g273
sg118
(lp276
sg120
g46
sg121
Nsg122
Nsg123
Nsbag2
(g3
g4
Ntp277
Rp278
(dp279
g8
g11
sg101
Nsg102
(dp280
sg104
Nsg26
g29
sg105
(lp281
I2
aI5
asg107
Nsg108
VTractate Sefer Torah 2:5
p282
sg110
(lp283
sg112
g62
sg113
Nsg114
(lp284
I2
aI5
asg116
Nsg117
g282
sg118
(lp285
sg120
g46
sg121
Nsg122
Nsg123
Nsbag2
(g3
g4
Ntp286
Rp287
(dp288
g8
g11
sg101
Nsg102
(dp289
sg104
Nsg26
g29
sg105
(lp290
I2
aI6
asg107
Nsg108
VTractate Sefer Torah 2:6
p291
sg110
(lp292
sg112
g62
sg113
Nsg114
(lp293
I2
aI6
asg116
Nsg117
g291
sg118
(lp294
sg120
g46
sg121
Nsg122
Nsg123
Nsbag2
(g3
g4
Ntp295
Rp296
(dp297
g8
g11
sg101
Nsg102
(dp298
sg104
Nsg26
g29
sg105
(lp299
I2
aI7
asg107
Nsg108
VTractate Sefer Torah 2:7
p300
sg110
(lp301
sg112
g62
sg113
Nsg114
(lp302
I2
aI7
asg116
Nsg117
g300
sg118
(lp303
sg120
g46
sg121
Nsg122
Nsg123
Nsbag2
(g3
g4
Ntp304
Rp305
(dp306
g8
g11
sg101
Nsg102
(dp307
sg104
Nsg26
g29
sg105
(lp308
I2
aI8
asg107
Nsg108
VTractate Sefer Torah 2:8
p309
sg110
(lp310
sg112
g62
sg113
Nsg114
(lp311
I2
aI8
asg116
Nsg117
g309
sg118
(lp312
sg120
g46
sg121
Nsg122
Nsg123
Nsbag2
(g3
g4
Ntp313
Rp314
(dp315
g8
g11
sg101
Nsg102
(dp316
sg104
Nsg26
g29
sg105
(lp317
I2
aI9
asg107
Nsg108
VTractate Sefer Torah 2:9
p318
sg110
(lp319
sg112
g62
sg113
Nsg114
(lp320
I2
aI9
asg116
Nsg117
g318
sg118
(lp321
sg120
g46
sg121
Nsg122
Nsg123
Nsbag2
(g3
g4
Ntp322
Rp323
(dp324
g8
g11
sg101
Nsg102
(dp325
sg104
Nsg26
g29
sg105
(lp326
I2
aI10
asg107
Nsg108
VTractate Sefer Torah 2:10
p327
sg110
(lp328
sg112
g62
sg113
Nsg114
(lp329
I2
aI10
asg116
Nsg117
g327
sg118
(lp330
sg120
g46
sg121
Nsg122
Nsg123
Nsbag2
(g3
g4
Ntp331
Rp332
(dp333
g8
g11
sg101
Nsg102
(dp334
sg104
Nsg26
g29
sg105
(lp335
I2
aI11
asg107
Nsg108
VTractate Sefer Torah 2:11
p336
sg110
(lp337
sg112
g62
sg113
Nsg114
(lp338
I2
aI11
asg116
Nsg117
g336
sg118
(lp339
sg120
g46
sg121
Nsg122
Nsg123
Nsbag2
(g3
g4
Ntp340
Rp341
(dp342
g8
g11
sg101
Nsg102
(dp343
sg104
Nsg26
g29
sg105
(lp344
I2
aI12
asg107
Nsg108
VTractate Sefer Torah 2:12
p345
sg110
(lp346
sg112
g62
sg113
Nsg114
(lp347
I2
aI12
asg116
Nsg117
g345
sg118
(lp348
sg120
g46
sg121
Nsg122
Nsg123
Nsbag2
(g3
g4
Ntp349
Rp350
(dp351
g8
g11
sg101
Nsg102
(dp352
sg104
Nsg26
g29
sg105
(lp353
I3
aI1
asg107
Nsg108
VTractate Sefer Torah 3:1
p354
sg110
(lp355
sg112
g62
sg113
Nsg114
(lp356
I3
aI1
asg116
Nsg117
g354
sg118
(lp357
sg120
g46
sg121
Nsg122
Nsg123
Nsbag2
(g3
g4
Ntp358
Rp359
(dp360
g8
g11
sg101
Nsg102
(dp361
sg104
Nsg26
g29
sg105
(lp362
I3
aI2
asg107
Nsg108
VTractate Sefer Torah 3:2
p363
sg110
(lp364
sg112
g62
sg113
Nsg114
(lp365
I3
aI2
asg116
Nsg117
g363
sg118
(lp366
sg120
g46
sg121
Nsg122
Nsg123
Nsbag2
(g3
g4
Ntp367
Rp368
(dp369
g8
g11
sg101
Nsg102
(dp370
sg104
Nsg26
g29
sg105
(lp371
I3
aI3
asg107
Nsg108
VTractate Sefer Torah 3:3
p372
sg110
(lp373
sg112
g62
sg113
Nsg114
(lp374
I3
aI3
asg116
Nsg117
g372
sg118
(lp375
sg120
g46
sg121
Nsg122
Nsg123
Nsbag2
(g3
g4
Ntp376
Rp377
(dp378
g8
g11
sg101
Nsg102
(dp379
sg104
Nsg26
g29
sg105
(lp380
I3
aI4
asg107
Nsg108
VTractate Sefer Torah 3:4
p381
sg110
(lp382
sg112
g62
sg113
Nsg114
(lp383
I3
aI4
asg116
Nsg117
g381
sg118
(lp384
sg120
g46
sg121
Nsg122
Nsg123
Nsbag2
(g3
g4
Ntp385
Rp386
(dp387
g8
g11
sg101
Nsg102
(dp388
sg104
Nsg26
g29
sg105
(lp389
I3
aI5
asg107
Nsg108
VTractate Sefer Torah 3:5
p390
sg110
(lp391
sg112
g62
sg113
Nsg114
(lp392
I3
aI5
asg116
Nsg117
g390
sg118
(lp393
sg120
g46
sg121
Nsg122
Nsg123
Nsbag2
(g3
g4
Ntp394
Rp395
(dp396
g8
g11
sg101
Nsg102
(dp397
sg104
Nsg26
g29
sg105
(lp398
I3
aI6
asg107
Nsg108
VTractate Sefer Torah 3:6
p399
sg110
(lp400
sg112
g62
sg113
Nsg114
(lp401
I3
aI6
asg116
Nsg117
g399
sg118
(lp402
sg120
g46
sg121
Nsg122
Nsg123
Nsbag2
(g3
g4
Ntp403
Rp404
(dp405
g8
g11
sg101
Nsg102
(dp406
sg104
Nsg26
g29
sg105
(lp407
I3
aI7
asg107
Nsg108
VTractate Sefer Torah 3:7
p408
sg110
(lp409
sg112
g62
sg113
Nsg114
(lp410
I3
aI7
asg116
Nsg117
g408
sg118
(lp411
sg120
g46
sg121
Nsg122
Nsg123
Nsbag2
(g3
g4
Ntp412
Rp413
(dp414
g8
g11
sg101
Nsg102
(dp415
sg104
Nsg26
g29
sg105
(lp416
I3
aI8
asg107
Nsg108
VTractate Sefer Torah 3:8
p417
sg110
(lp418
sg112
g62
sg113
Nsg114
(lp419
I3
aI8
asg116
Nsg117
g417
sg118
(lp420
sg120
g46
sg121
Nsg122
Nsg123
Nsbag2
(g3
g4
Ntp421
Rp422
(dp423
g8
g11
sg101
Nsg102
(dp424
sg104
Nsg26
g29
sg105
(lp425
I3
aI9
asg107
Nsg108
VTractate Sefer Torah 3:9
p426
sg110
(lp427
sg112
g62
sg113
Nsg114
(lp428
I3
aI9
asg116
Nsg117
g426
sg118
(lp429
sg120
g46
sg121
Nsg122
Nsg123
Nsbag2
(g3
g4
Ntp430
Rp431
(dp432
g8
g11
sg101
Nsg102
(dp433
sg104
Nsg26
g29
sg105
(lp434
I3
aI10
asg107
Nsg108
VTractate Sefer Torah 3:10
p435
sg110
(lp436
sg112
g62
sg113
Nsg114
(lp437
I3
aI10
asg116
Nsg117
g435
sg118
(lp438
sg120
g46
sg121
Nsg122
Nsg123
Nsbag2
(g3
g4
Ntp439
Rp440
(dp441
g8
g11
sg101
Nsg102
(dp442
sg104
Nsg26
g29
sg105
(lp443
I3
aI11
asg107
Nsg108
VTractate Sefer Torah 3:11
p444
sg110
(lp445
sg112
g62
sg113
Nsg114
(lp446
I3
aI11
asg116
Nsg117
g444
sg118
(lp447
sg120
g46
sg121
Nsg122
Nsg123
Nsbag2
(g3
g4
Ntp448
Rp449
(dp450
g8
g11
sg101
Nsg102
(dp451
sg104
Nsg26
g29
sg105
(lp452
I3
aI12
asg107
Nsg108
VTractate Sefer Torah 3:12
p453
sg110
(lp454
sg112
g62
sg113
Nsg114
(lp455
I3
aI12
asg116
Nsg117
g453
sg118
(lp456
sg120
g46
sg121
Nsg122
Nsg123
Nsbag2
(g3
g4
Ntp457
Rp458
(dp459
g8
g11
sg101
Nsg102
(dp460
sg104
Nsg26
g29
sg105
(lp461
I4
aI1
asg107
Nsg108
VTractate Sefer Torah 4:1
p462
sg110
(lp463
sg112
g62
sg113
Nsg114
(lp464
I4
aI1
asg116
Nsg117
g462
sg118
(lp465
sg120
g46
sg121
Nsg122
Nsg123
Nsbag2
(g3
g4
Ntp466
Rp467
(dp468
g8
g11
sg101
Nsg102
(dp469
sg104
Nsg26
g29
sg105
(lp470
I4
aI2
asg107
Nsg108
VTractate Sefer Torah 4:2
p471
sg110
(lp472
sg112
g62
sg113
Nsg114
(lp473
I4
aI2
asg116
Nsg117
g471
sg118
(lp474
sg120
g46
sg121
Nsg122
Nsg123
Nsbag2
(g3
g4
Ntp475
Rp476
(dp477
g8
g11
sg101
Nsg102
(dp478
sg104
Nsg26
g29
sg105
(lp479
I4
aI3
asg107
Nsg108
VTractate Sefer Torah 4:3
p480
sg110
(lp481
sg112
g62
sg113
Nsg114
(lp482
I4
aI3
asg116
Nsg117
g480
sg118
(lp483
sg120
g46
sg121
Nsg122
Nsg123
Nsbag2
(g3
g4
Ntp484
Rp485
(dp486
g8
g11
sg101
Nsg102
(dp487
sg104
Nsg26
g29
sg105
(lp488
I4
aI4
asg107
Nsg108
VTractate Sefer Torah 4:4
p489
sg110
(lp490
sg112
g62
sg113
Nsg114
(lp491
I4
aI4
asg116
Nsg117
g489
sg118
(lp492
sg120
g46
sg121
Nsg122
Nsg123
Nsbag2
(g3
g4
Ntp493
Rp494
(dp495
g8
g11
sg101
Nsg102
(dp496
sg104
Nsg26
g29
sg105
(lp497
I4
aI5
asg107
Nsg108
VTractate Sefer Torah 4:5
p498
sg110
(lp499
sg112
g62
sg113
Nsg114
(lp500
I4
aI5
asg116
Nsg117
g498
sg118
(lp501
sg120
g46
sg121
Nsg122
Nsg123
Nsbag2
(g3
g4
Ntp502
Rp503
(dp504
g8
g11
sg101
Nsg102
(dp505
sg104
Nsg26
g29
sg105
(lp506
I4
aI6
asg107
Nsg108
VTractate Sefer Torah 4:6
p507
sg110
(lp508
sg112
g62
sg113
Nsg114
(lp509
I4
aI6
asg116
Nsg117
g507
sg118
(lp510
sg120
g46
sg121
Nsg122
Nsg123
Nsbag2
(g3
g4
Ntp511
Rp512
(dp513
g8
g11
sg101
Nsg102
(dp514
sg104
Nsg26
g29
sg105
(lp515
I4
aI7
asg107
Nsg108
VTractate Sefer Torah 4:7
p516
sg110
(lp517
sg112
g62
sg113
Nsg114
(lp518
I4
aI7
asg116
Nsg117
g516
sg118
(lp519
sg120
g46
sg121
Nsg122
Nsg123
Nsbag2
(g3
g4
Ntp520
Rp521
(dp522
g8
g11
sg101
Nsg102
(dp523
sg104
Nsg26
g29
sg105
(lp524
I4
aI8
asg107
Nsg108
VTractate Sefer Torah 4:8
p525
sg110
(lp526
sg112
g62
sg113
Nsg114
(lp527
I4
aI8
asg116
Nsg117
g525
sg118
(lp528
sg120
g46
sg121
Nsg122
Nsg123
Nsbag2
(g3
g4
Ntp529
Rp530
(dp531
g8
g11
sg101
Nsg102
(dp532
sg104
Nsg26
g29
sg105
(lp533
I5
aI1
asg107
Nsg108
VTractate Sefer Torah 5:1
p534
sg110
(lp535
sg112
g62
sg113
Nsg114
(lp536
I5
aI1
asg116
Nsg117
g534
sg118
(lp537
sg120
g46
sg121
Nsg122
Nsg123
Nsbag2
(g3
g4
Ntp538
Rp539
(dp540
g8
g11
sg101
Nsg102
(dp541
sg104
Nsg26
g29
sg105
(lp542
I5
aI2
asg107
Nsg108
VTractate Sefer Torah 5:2
p543
sg110
(lp544
sg112
g62
sg113
Nsg114
(lp545
I5
aI2
asg116
Nsg117
g543
sg118
(lp546
sg120
g46
sg121
Nsg122
Nsg123
Nsbag2
(g3
g4
Ntp547
Rp548
(dp549
g8
g11
sg101
Nsg102
(dp550
sg104
Nsg26
g29
sg105
(lp551
I5
aI3
asg107
Nsg108
VTractate Sefer Torah 5:3
p552
sg110
(lp553
sg112
g62
sg113
Nsg114
(lp554
I5
aI3
asg116
Nsg117
g552
sg118
(lp555
sg120
g46
sg121
Nsg122
Nsg123
Nsbag2
(g3
g4
Ntp556
Rp557
(dp558
g8
g11
sg101
Nsg102
(dp559
sg104
Nsg26
g29
sg105
(lp560
I5
aI4
asg107
Nsg108
VTractate Sefer Torah 5:4
p561
sg110
(lp562
sg112
g62
sg113
Nsg114
(lp563
I5
aI4
asg116
Nsg117
g561
sg118
(lp564
sg120
g46
sg121
Nsg122
Nsg123
Nsbag2
(g3
g4
Ntp565
Rp566
(dp567
g8
g11
sg101
Nsg102
(dp568
sg104
Nsg26
g29
sg105
(lp569
I5
aI5
asg107
Nsg108
VTractate Sefer Torah 5:5
p570
sg110
(lp571
sg112
g62
sg113
Nsg114
(lp572
I5
aI5
asg116
Nsg117
g570
sg118
(lp573
sg120
g46
sg121
Nsg122
Nsg123
Nsbag2
(g3
g4
Ntp574
Rp575
(dp576
g8
g11
sg101
Nsg102
(dp577
sg104
Nsg26
g29
sg105
(lp578
I5
aI6
asg107
Nsg108
VTractate Sefer Torah 5:6
p579
sg110
(lp580
sg112
g62
sg113
Nsg114
(lp581
I5
aI6
asg116
Nsg117
g579
sg118
(lp582
sg120
g46
sg121
Nsg122
Nsg123
Nsbag2
(g3
g4
Ntp583
Rp584
(dp585
g8
g11
sg101
Nsg102
(dp586
sg104
Nsg26
g29
sg105
(lp587
I5
aI7
asg107
Nsg108
VTractate Sefer Torah 5:7
p588
sg110
(lp589
sg112
g62
sg113
Nsg114
(lp590
I5
aI7
asg116
Nsg117
g588
sg118
(lp591
sg120
g46
sg121
Nsg122
Nsg123
Nsbag2
(g3
g4
Ntp592
Rp593
(dp594
g8
g11
sg101
Nsg102
(dp595
sg104
Nsg26
g29
sg105
(lp596
I5
aI8
asg107
Nsg108
VTractate Sefer Torah 5:8
p597
sg110
(lp598
sg112
g62
sg113
Nsg114
(lp599
I5
aI8
asg116
Nsg117
g597
sg118
(lp600
sg120
g46
sg121
Nsg122
Nsg123
Nsbag2
(g3
g4
Ntp601
Rp602
(dp603
g8
g11
sg101
Nsg102
(dp604
sg104
Nsg26
g29
sg105
(lp605
I5
aI9
asg107
Nsg108
VTractate Sefer Torah 5:9
p606
sg110
(lp607
sg112
g62
sg113
Nsg114
(lp608
I5
aI9
asg116
Nsg117
g606
sg118
(lp609
sg120
g46
sg121
Nsg122
Nsg123
Nsbag2
(g3
g4
Ntp610
Rp611
(dp612
g8
g11
sg101
Nsg102
(dp613
sg104
Nsg26
g29
sg105
(lp614
I5
aI10
asg107
Nsg108
VTractate Sefer Torah 5:10
p615
sg110
(lp616
sg112
g62
sg113
Nsg114
(lp617
I5
aI10
asg116
Nsg117
g615
sg118
(lp618
sg120
g46
sg121
Nsg122
Nsg123
Nsbag2
(g3
g4
Ntp619
Rp620
(dp621
g8
g11
sg101
Nsg102
(dp622
sg104
Nsg26
g29
sg105
(lp623
I5
aI11
asg107
Nsg108
VTractate Sefer Torah 5:11
p624
sg110
(lp625
sg112
g62
sg113
Nsg114
(lp626
I5
aI11
asg116
Nsg117
g624
sg118
(lp627
sg120
g46
sg121
Nsg122
Nsg123
Nsbag2
(g3
g4
Ntp628
Rp629
(dp630
g8
g11
sg101
Nsg102
(dp631
sg104
Nsg26
g29
sg105
(lp632
I5
aI12
asg107
Nsg108
VTractate Sefer Torah 5:12
p633
sg110
(lp634
sg112
g62
sg113
Nsg114
(lp635
I5
aI12
asg116
Nsg117
g633
sg118
(lp636
sg120
g46
sg121
Nsg122
Nsg123
Nsbag2
(g3
g4
Ntp637
Rp638
(dp639
g8
g11
sg101
Nsg102
(dp640
sg104
Nsg26
g29
sg105
(lp641
I5
aI13
asg107
Nsg108
VTractate Sefer Torah 5:13
p642
sg110
(lp643
sg112
g62
sg113
Nsg114
(lp644
I5
aI13
asg116
Nsg117
g642
sg118
(lp645
sg120
g46
sg121
Nsg122
Nsg123
Nsbag2
(g3
g4
Ntp646
Rp647
(dp648
g8
g11
sg101
Nsg102
(dp649
sg104
Nsg26
g29
sg105
(lp650
I5
aI14
asg107
Nsg108
VTractate Sefer Torah 5:14
p651
sg110
(lp652
sg112
g62
sg113
Nsg114
(lp653
I5
aI14
asg116
Nsg117
g651
sg118
(lp654
sg120
g46
sg121
Nsg122
Nsg123
Nsbatp655
.