((lp0
I0
aI1827
aI2485
aI4052
aI6940
aI8084
aI8542
aI9685
aI10483
aI11652
aI12409
aI12898
aI13391
a(lp1
ccopy_reg
_reconstructor
p2
(csefaria.model.text
Ref
p3
c__builtin__
object
p4
Ntp5
Rp6
(dp7
S'index_node'
p8
g2
(csefaria.model.schema
JaggedArrayNode
p9
g4
Ntp10
Rp11
(dp12
S'_address'
p13
(lp14
VTractate Kala Rabbah
p15
asS'_full_titles'
p16
(dp17
sVnodeType
p18
VJaggedArrayNode
p19
sS'parent'
p20
NsVaddressTypes
p21
(lp22
VInteger
p23
aVInteger
p24
asS'default'
p25
I00
sS'index'
p26
g2
(csefaria.model.text
Index
p27
g4
Ntp28
Rp29
(dp30
S'pkeys_orig_values'
p31
(dp32
S'title'
p33
VTractate Kala Rabbah
p34
ssS'struct_objs'
p35
(dp36
sS'nodes'
p37
g11
sS'_id'
p38
g2
(cbson.objectid
ObjectId
p39
g4
Ntp40
Rp41
S'Xl\xb8I\x19\xab\x88f\xbc\xa4\x98\xf7'
p42
bsS'_title'
p43
g34
sS'categories'
p44
(lp45
VMasechtot Ketanot
p46
asS'schema'
p47
(dp48
g18
g19
sg21
g22
sVdepth
p49
I2
sVtitles
p50
(lp51
(dp52
Vlang
p53
Vhe
p54
sVtext
p55
V\u05de\u05e1\u05db\u05ea \u05db\u05dc\u05d4 \u05e8\u05d1\u05d4
p56
sVprimary
p57
I01
sa(dp58
Vlang
p59
Ven
p60
sVtext
p61
VTractate Kala Rabbah
p62
sVprimary
p63
I01
sasVkey
p64
g15
sVsectionNames
p65
(lp66
VChapter
p67
aVHalakhah
p68
assbsS'_primary_title'
p69
(dp70
sS'title_group'
p71
g2
(csefaria.model.schema
TitleGroup
p72
g4
Ntp73
Rp74
(dp75
g69
(dp76
S'en'
p77
g62
ssS'titles'
p78
g51
sbsS'_addressTypes'
p79
(lp80
g2
(csefaria.model.schema
AddressInteger
p81
g4
Ntp82
Rp83
(dp84
S'length'
p85
NsS'order'
p86
I0
sbag2
(g81
g4
Ntp87
Rp88
(dp89
g85
Nsg86
I1
sbasS'sharedTitle'
p90
Nsg49
I2
sS'_full_title'
p91
(dp92
g77
g62
ssS'key'
p93
g15
sS'checkFirst'
p94
NsS'_regexes'
p95
(dp96
sS'_leaf_nodes'
p97
(lp98
sg65
g66
sS'children'
p99
(lp100
sbsS'_range_index'
p101
NsS'_context'
p102
(dp103
sS'_padded'
p104
Nsg26
g29
sS'sections'
p105
(lp106
I1
aI1
asS'_first_spanned_ref'
p107
NsS'tref'
p108
VTractate Kala Rabbah 1:1
p109
sS'_spanned_refs'
p110
(lp111
sS'book'
p112
g62
sS'_range_depth'
p113
NsS'toSections'
p114
(lp115
I1
aI1
asS'_url'
p116
NsS'_normal'
p117
g109
sS'_ranged_refs'
p118
(lp119
sS'type'
p120
g46
sS'_prev'
p121
NsS'_he_normal'
p122
NsS'_next'
p123
Nsbag2
(g3
g4
Ntp124
Rp125
(dp126
g8
g11
sg101
Nsg102
(dp127
sg104
Nsg26
g29
sg105
(lp128
I2
aI1
asg107
Nsg108
VTractate Kala Rabbah 2:1
p129
sg110
(lp130
sg112
g62
sg113
Nsg114
(lp131
I2
aI1
asg116
Nsg117
g129
sg118
(lp132
sg120
g46
sg121
Nsg122
Nsg123
Nsbag2
(g3
g4
Ntp133
Rp134
(dp135
g8
g11
sg101
Nsg102
(dp136
sg104
Nsg26
g29
sg105
(lp137
I2
aI2
asg107
Nsg108
VTractate Kala Rabbah 2:2
p138
sg110
(lp139
sg112
g62
sg113
Nsg114
(lp140
I2
aI2
asg116
Nsg117
g138
sg118
(lp141
sg120
g46
sg121
Nsg122
Nsg123
Nsbag2
(g3
g4
Ntp142
Rp143
(dp144
g8
g11
sg101
Nsg102
(dp145
sg104
Nsg26
g29
sg105
(lp146
I3
aI1
asg107
Nsg108
VTractate Kala Rabbah 3:1
p147
sg110
(lp148
sg112
g62
sg113
Nsg114
(lp149
I3
aI1
asg116
Nsg117
g147
sg118
(lp150
sg120
g46
sg121
Nsg122
Nsg123
Nsbag2
(g3
g4
Ntp151
Rp152
(dp153
g8
g11
sg101
Nsg102
(dp154
sg104
Nsg26
g29
sg105
(lp155
I4
aI1
asg107
Nsg108
VTractate Kala Rabbah 4:1
p156
sg110
(lp157
sg112
g62
sg113
Nsg114
(lp158
I4
aI1
asg116
Nsg117
g156
sg118
(lp159
sg120
g46
sg121
Nsg122
Nsg123
Nsbag2
(g3
g4
Ntp160
Rp161
(dp162
g8
g11
sg101
Nsg102
(dp163
sg104
Nsg26
g29
sg105
(lp164
I5
aI1
asg107
Nsg108
VTractate Kala Rabbah 5:1
p165
sg110
(lp166
sg112
g62
sg113
Nsg114
(lp167
I5
aI1
asg116
Nsg117
g165
sg118
(lp168
sg120
g46
sg121
Nsg122
Nsg123
Nsbag2
(g3
g4
Ntp169
Rp170
(dp171
g8
g11
sg101
Nsg102
(dp172
sg104
Nsg26
g29
sg105
(lp173
I6
aI1
asg107
Nsg108
VTractate Kala Rabbah 6:1
p174
sg110
(lp175
sg112
g62
sg113
Nsg114
(lp176
I6
aI1
asg116
Nsg117
g174
sg118
(lp177
sg120
g46
sg121
Nsg122
Nsg123
Nsbag2
(g3
g4
Ntp178
Rp179
(dp180
g8
g11
sg101
Nsg102
(dp181
sg104
Nsg26
g29
sg105
(lp182
I7
aI1
asg107
Nsg108
VTractate Kala Rabbah 7:1
p183
sg110
(lp184
sg112
g62
sg113
Nsg114
(lp185
I7
aI1
asg116
Nsg117
g183
sg118
(lp186
sg120
g46
sg121
Nsg122
Nsg123
Nsbag2
(g3
g4
Ntp187
Rp188
(dp189
g8
g11
sg101
Nsg102
(dp190
sg104
Nsg26
g29
sg105
(lp191
I8
aI1
asg107
Nsg108
VTractate Kala Rabbah 8:1
p192
sg110
(lp193
sg112
g62
sg113
Nsg114
(lp194
I8
aI1
asg116
Nsg117
g192
sg118
(lp195
sg120
g46
sg121
Nsg122
Nsg123
Nsbag2
(g3
g4
Ntp196
Rp197
(dp198
g8
g11
sg101
Nsg102
(dp199
sg104
Nsg26
g29
sg105
(lp200
I8
aI2
asg107
Nsg108
VTractate Kala Rabbah 8:2
p201
sg110
(lp202
sg112
g62
sg113
Nsg114
(lp203
I8
aI2
asg116
Nsg117
g201
sg118
(lp204
sg120
g46
sg121
Nsg122
Nsg123
Nsbag2
(g3
g4
Ntp205
Rp206
(dp207
g8
g11
sg101
Nsg102
(dp208
sg104
Nsg26
g29
sg105
(lp209
I8
aI3
asg107
Nsg108
VTractate Kala Rabbah 8:3
p210
sg110
(lp211
sg112
g62
sg113
Nsg114
(lp212
I8
aI3
asg116
Nsg117
g210
sg118
(lp213
sg120
g46
sg121
Nsg122
Nsg123
Nsbag2
(g3
g4
Ntp214
Rp215
(dp216
g8
g11
sg101
Nsg102
(dp217
sg104
Nsg26
g29
sg105
(lp218
I9
aI1
asg107
Nsg108
VTractate Kala Rabbah 9:1
p219
sg110
(lp220
sg112
g62
sg113
Nsg114
(lp221
I9
aI1
asg116
Nsg117
g219
sg118
(lp222
sg120
g46
sg121
Nsg122
Nsg123
Nsbag2
(g3
g4
Ntp223
Rp224
(dp225
g8
g11
sg101
Nsg102
(dp226
sg104
Nsg26
g29
sg105
(lp227
I10
aI1
asg107
Nsg108
VTractate Kala Rabbah 10:1
p228
sg110
(lp229
sg112
g62
sg113
Nsg114
(lp230
I10
aI1
asg116
Nsg117
g228
sg118
(lp231
sg120
g46
sg121
Nsg122
Nsg123
Nsbatp232
.