((lp0
I0
aI38
aI66
aI81
aI118
aI132
aI149
aI175
aI219
aI259
aI287
aI311
aI329
aI342
aI409
aI460
aI482
aI509
aI535
aI564
aI597
aI604
aI777
aI815
aI848
aI886
aI930
aI988
aI1011
aI1090
aI1141
aI1175
aI1216
aI1280
aI1321
aI1393
aI1427
aI1487
aI1515
aI1552
aI1570
aI1600
aI1610
aI1630
aI1650
aI1666
aI1688
aI1708
aI1736
aI1771
aI1808
aI1833
aI1851
aI1871
aI1901
aI1916
aI1936
aI1949
aI1967
aI1979
aI1995
aI2005
aI2027
aI2068
aI2102
aI2169
aI2199
aI2221
aI2273
aI2330
aI2379
aI2450
aI2473
aI2506
aI2524
aI2545
aI2572
aI2584
aI2601
aI2657
aI2678
aI2696
aI2723
aI2744
aI2757
aI2785
aI2799
aI2809
aI2824
aI3363
aI4353
aI6083
aI6963
aI7535
aI8167
aI8733
aI9046
a(lp1
ccopy_reg
_reconstructor
p2
(csefaria.model.text
Ref
p3
c__builtin__
object
p4
Ntp5
Rp6
(dp7
S'index_node'
p8
g2
(csefaria.model.schema
JaggedArrayNode
p9
g4
Ntp10
Rp11
(dp12
S'_address'
p13
(lp14
VTractate Semachot
p15
asS'_full_titles'
p16
(dp17
sVnodeType
p18
VJaggedArrayNode
p19
sS'parent'
p20
NsVaddressTypes
p21
(lp22
VInteger
p23
aVInteger
p24
asS'default'
p25
I00
sS'index'
p26
g2
(csefaria.model.text
Index
p27
g4
Ntp28
Rp29
(dp30
S'pkeys_orig_values'
p31
(dp32
S'title'
p33
VTractate Semachot
p34
ssS'struct_objs'
p35
(dp36
sS'nodes'
p37
g11
sS'_id'
p38
g2
(cbson.objectid
ObjectId
p39
g4
Ntp40
Rp41
S'Xl\xb8J\x19\xab\x88f\xbc\xa4\x99\t'
p42
bsS'_title'
p43
g34
sS'categories'
p44
(lp45
VMasechtot Ketanot
p46
asS'schema'
p47
(dp48
g18
g19
sg21
g22
sVdepth
p49
I2
sVtitles
p50
(lp51
(dp52
Vlang
p53
Vhe
p54
sVtext
p55
V\u05de\u05e1\u05db\u05ea \u05e9\u05de\u05d7\u05d5\u05ea
p56
sVprimary
p57
I01
sa(dp58
Vlang
p59
Ven
p60
sVtext
p61
VTractate Semachot
p62
sVprimary
p63
I01
sasVkey
p64
g15
sVsectionNames
p65
(lp66
VChapter
p67
aVHalakhah
p68
assbsS'_primary_title'
p69
(dp70
sS'title_group'
p71
g2
(csefaria.model.schema
TitleGroup
p72
g4
Ntp73
Rp74
(dp75
g69
(dp76
S'en'
p77
g62
ssS'titles'
p78
g51
sbsS'_addressTypes'
p79
(lp80
g2
(csefaria.model.schema
AddressInteger
p81
g4
Ntp82
Rp83
(dp84
S'length'
p85
NsS'order'
p86
I0
sbag2
(g81
g4
Ntp87
Rp88
(dp89
g85
Nsg86
I1
sbasS'sharedTitle'
p90
Nsg49
I2
sS'_full_title'
p91
(dp92
g77
g62
ssS'key'
p93
g15
sS'checkFirst'
p94
NsS'_regexes'
p95
(dp96
sS'_leaf_nodes'
p97
(lp98
sg65
g66
sS'children'
p99
(lp100
sbsS'_range_index'
p101
NsS'_context'
p102
(dp103
sS'_padded'
p104
Nsg26
g29
sS'sections'
p105
(lp106
I2
aI1
asS'_first_spanned_ref'
p107
NsS'tref'
p108
VTractate Semachot 2:1
p109
sS'_spanned_refs'
p110
(lp111
sS'book'
p112
g62
sS'_range_depth'
p113
NsS'toSections'
p114
(lp115
I2
aI1
asS'_url'
p116
NsS'_normal'
p117
g109
sS'_ranged_refs'
p118
(lp119
sS'type'
p120
g46
sS'_prev'
p121
NsS'_he_normal'
p122
NsS'_next'
p123
Nsbag2
(g3
g4
Ntp124
Rp125
(dp126
g8
g11
sg101
Nsg102
(dp127
sg104
Nsg26
g29
sg105
(lp128
I2
aI2
asg107
Nsg108
VTractate Semachot 2:2
p129
sg110
(lp130
sg112
g62
sg113
Nsg114
(lp131
I2
aI2
asg116
Nsg117
g129
sg118
(lp132
sg120
g46
sg121
Nsg122
Nsg123
Nsbag2
(g3
g4
Ntp133
Rp134
(dp135
g8
g11
sg101
Nsg102
(dp136
sg104
Nsg26
g29
sg105
(lp137
I2
aI3
asg107
Nsg108
VTractate Semachot 2:3
p138
sg110
(lp139
sg112
g62
sg113
Nsg114
(lp140
I2
aI3
asg116
Nsg117
g138
sg118
(lp141
sg120
g46
sg121
Nsg122
Nsg123
Nsbag2
(g3
g4
Ntp142
Rp143
(dp144
g8
g11
sg101
Nsg102
(dp145
sg104
Nsg26
g29
sg105
(lp146
I2
aI4
asg107
Nsg108
VTractate Semachot 2:4
p147
sg110
(lp148
sg112
g62
sg113
Nsg114
(lp149
I2
aI4
asg116
Nsg117
g147
sg118
(lp150
sg120
g46
sg121
Nsg122
Nsg123
Nsbag2
(g3
g4
Ntp151
Rp152
(dp153
g8
g11
sg101
Nsg102
(dp154
sg104
Nsg26
g29
sg105
(lp155
I2
aI5
asg107
Nsg108
VTractate Semachot 2:5
p156
sg110
(lp157
sg112
g62
sg113
Nsg114
(lp158
I2
aI5
asg116
Nsg117
g156
sg118
(lp159
sg120
g46
sg121
Nsg122
Nsg123
Nsbag2
(g3
g4
Ntp160
Rp161
(dp162
g8
g11
sg101
Nsg102
(dp163
sg104
Nsg26
g29
sg105
(lp164
I2
aI6
asg107
Nsg108
VTractate Semachot 2:6
p165
sg110
(lp166
sg112
g62
sg113
Nsg114
(lp167
I2
aI6
asg116
Nsg117
g165
sg118
(lp168
sg120
g46
sg121
Nsg122
Nsg123
Nsbag2
(g3
g4
Ntp169
Rp170
(dp171
g8
g11
sg101
Nsg102
(dp172
sg104
Nsg26
g29
sg105
(lp173
I2
aI7
asg107
Nsg108
VTractate Semachot 2:7
p174
sg110
(lp175
sg112
g62
sg113
Nsg114
(lp176
I2
aI7
asg116
Nsg117
g174
sg118
(lp177
sg120
g46
sg121
Nsg122
Nsg123
Nsbag2
(g3
g4
Ntp178
Rp179
(dp180
g8
g11
sg101
Nsg102
(dp181
sg104
Nsg26
g29
sg105
(lp182
I2
aI8
asg107
Nsg108
VTractate Semachot 2:8
p183
sg110
(lp184
sg112
g62
sg113
Nsg114
(lp185
I2
aI8
asg116
Nsg117
g183
sg118
(lp186
sg120
g46
sg121
Nsg122
Nsg123
Nsbag2
(g3
g4
Ntp187
Rp188
(dp189
g8
g11
sg101
Nsg102
(dp190
sg104
Nsg26
g29
sg105
(lp191
I2
aI9
asg107
Nsg108
VTractate Semachot 2:9
p192
sg110
(lp193
sg112
g62
sg113
Nsg114
(lp194
I2
aI9
asg116
Nsg117
g192
sg118
(lp195
sg120
g46
sg121
Nsg122
Nsg123
Nsbag2
(g3
g4
Ntp196
Rp197
(dp198
g8
g11
sg101
Nsg102
(dp199
sg104
Nsg26
g29
sg105
(lp200
I2
aI10
asg107
Nsg108
VTractate Semachot 2:10
p201
sg110
(lp202
sg112
g62
sg113
Nsg114
(lp203
I2
aI10
asg116
Nsg117
g201
sg118
(lp204
sg120
g46
sg121
Nsg122
Nsg123
Nsbag2
(g3
g4
Ntp205
Rp206
(dp207
g8
g11
sg101
Nsg102
(dp208
sg104
Nsg26
g29
sg105
(lp209
I2
aI11
asg107
Nsg108
VTractate Semachot 2:11
p210
sg110
(lp211
sg112
g62
sg113
Nsg114
(lp212
I2
aI11
asg116
Nsg117
g210
sg118
(lp213
sg120
g46
sg121
Nsg122
Nsg123
Nsbag2
(g3
g4
Ntp214
Rp215
(dp216
g8
g11
sg101
Nsg102
(dp217
sg104
Nsg26
g29
sg105
(lp218
I2
aI12
asg107
Nsg108
VTractate Semachot 2:12
p219
sg110
(lp220
sg112
g62
sg113
Nsg114
(lp221
I2
aI12
asg116
Nsg117
g219
sg118
(lp222
sg120
g46
sg121
Nsg122
Nsg123
Nsbag2
(g3
g4
Ntp223
Rp224
(dp225
g8
g11
sg101
Nsg102
(dp226
sg104
Nsg26
g29
sg105
(lp227
I2
aI13
asg107
Nsg108
VTractate Semachot 2:13
p228
sg110
(lp229
sg112
g62
sg113
Nsg114
(lp230
I2
aI13
asg116
Nsg117
g228
sg118
(lp231
sg120
g46
sg121
Nsg122
Nsg123
Nsbag2
(g3
g4
Ntp232
Rp233
(dp234
g8
g11
sg101
Nsg102
(dp235
sg104
Nsg26
g29
sg105
(lp236
I3
aI1
asg107
Nsg108
VTractate Semachot 3:1
p237
sg110
(lp238
sg112
g62
sg113
Nsg114
(lp239
I3
aI1
asg116
Nsg117
g237
sg118
(lp240
sg120
g46
sg121
Nsg122
Nsg123
Nsbag2
(g3
g4
Ntp241
Rp242
(dp243
g8
g11
sg101
Nsg102
(dp244
sg104
Nsg26
g29
sg105
(lp245
I3
aI2
asg107
Nsg108
VTractate Semachot 3:2
p246
sg110
(lp247
sg112
g62
sg113
Nsg114
(lp248
I3
aI2
asg116
Nsg117
g246
sg118
(lp249
sg120
g46
sg121
Nsg122
Nsg123
Nsbag2
(g3
g4
Ntp250
Rp251
(dp252
g8
g11
sg101
Nsg102
(dp253
sg104
Nsg26
g29
sg105
(lp254
I3
aI3
asg107
Nsg108
VTractate Semachot 3:3
p255
sg110
(lp256
sg112
g62
sg113
Nsg114
(lp257
I3
aI3
asg116
Nsg117
g255
sg118
(lp258
sg120
g46
sg121
Nsg122
Nsg123
Nsbag2
(g3
g4
Ntp259
Rp260
(dp261
g8
g11
sg101
Nsg102
(dp262
sg104
Nsg26
g29
sg105
(lp263
I3
aI4
asg107
Nsg108
VTractate Semachot 3:4
p264
sg110
(lp265
sg112
g62
sg113
Nsg114
(lp266
I3
aI4
asg116
Nsg117
g264
sg118
(lp267
sg120
g46
sg121
Nsg122
Nsg123
Nsbag2
(g3
g4
Ntp268
Rp269
(dp270
g8
g11
sg101
Nsg102
(dp271
sg104
Nsg26
g29
sg105
(lp272
I3
aI5
asg107
Nsg108
VTractate Semachot 3:5
p273
sg110
(lp274
sg112
g62
sg113
Nsg114
(lp275
I3
aI5
asg116
Nsg117
g273
sg118
(lp276
sg120
g46
sg121
Nsg122
Nsg123
Nsbag2
(g3
g4
Ntp277
Rp278
(dp279
g8
g11
sg101
Nsg102
(dp280
sg104
Nsg26
g29
sg105
(lp281
I3
aI6
asg107
Nsg108
VTractate Semachot 3:6
p282
sg110
(lp283
sg112
g62
sg113
Nsg114
(lp284
I3
aI6
asg116
Nsg117
g282
sg118
(lp285
sg120
g46
sg121
Nsg122
Nsg123
Nsbag2
(g3
g4
Ntp286
Rp287
(dp288
g8
g11
sg101
Nsg102
(dp289
sg104
Nsg26
g29
sg105
(lp290
I3
aI7
asg107
Nsg108
VTractate Semachot 3:7
p291
sg110
(lp292
sg112
g62
sg113
Nsg114
(lp293
I3
aI7
asg116
Nsg117
g291
sg118
(lp294
sg120
g46
sg121
Nsg122
Nsg123
Nsbag2
(g3
g4
Ntp295
Rp296
(dp297
g8
g11
sg101
Nsg102
(dp298
sg104
Nsg26
g29
sg105
(lp299
I3
aI8
asg107
Nsg108
VTractate Semachot 3:8
p300
sg110
(lp301
sg112
g62
sg113
Nsg114
(lp302
I3
aI8
asg116
Nsg117
g300
sg118
(lp303
sg120
g46
sg121
Nsg122
Nsg123
Nsbag2
(g3
g4
Ntp304
Rp305
(dp306
g8
g11
sg101
Nsg102
(dp307
sg104
Nsg26
g29
sg105
(lp308
I3
aI9
asg107
Nsg108
VTractate Semachot 3:9
p309
sg110
(lp310
sg112
g62
sg113
Nsg114
(lp311
I3
aI9
asg116
Nsg117
g309
sg118
(lp312
sg120
g46
sg121
Nsg122
Nsg123
Nsbag2
(g3
g4
Ntp313
Rp314
(dp315
g8
g11
sg101
Nsg102
(dp316
sg104
Nsg26
g29
sg105
(lp317
I3
aI10
asg107
Nsg108
VTractate Semachot 3:10
p318
sg110
(lp319
sg112
g62
sg113
Nsg114
(lp320
I3
aI10
asg116
Nsg117
g318
sg118
(lp321
sg120
g46
sg121
Nsg122
Nsg123
Nsbag2
(g3
g4
Ntp322
Rp323
(dp324
g8
g11
sg101
Nsg102
(dp325
sg104
Nsg26
g29
sg105
(lp326
I3
aI11
asg107
Nsg108
VTractate Semachot 3:11
p327
sg110
(lp328
sg112
g62
sg113
Nsg114
(lp329
I3
aI11
asg116
Nsg117
g327
sg118
(lp330
sg120
g46
sg121
Nsg122
Nsg123
Nsbag2
(g3
g4
Ntp331
Rp332
(dp333
g8
g11
sg101
Nsg102
(dp334
sg104
Nsg26
g29
sg105
(lp335
I3
aI12
asg107
Nsg108
VTractate Semachot 3:12
p336
sg110
(lp337
sg112
g62
sg113
Nsg114
(lp338
I3
aI12
asg116
Nsg117
g336
sg118
(lp339
sg120
g46
sg121
Nsg122
Nsg123
Nsbag2
(g3
g4
Ntp340
Rp341
(dp342
g8
g11
sg101
Nsg102
(dp343
sg104
Nsg26
g29
sg105
(lp344
I3
aI13
asg107
Nsg108
VTractate Semachot 3:13
p345
sg110
(lp346
sg112
g62
sg113
Nsg114
(lp347
I3
aI13
asg116
Nsg117
g345
sg118
(lp348
sg120
g46
sg121
Nsg122
Nsg123
Nsbag2
(g3
g4
Ntp349
Rp350
(dp351
g8
g11
sg101
Nsg102
(dp352
sg104
Nsg26
g29
sg105
(lp353
I3
aI14
asg107
Nsg108
VTractate Semachot 3:14
p354
sg110
(lp355
sg112
g62
sg113
Nsg114
(lp356
I3
aI14
asg116
Nsg117
g354
sg118
(lp357
sg120
g46
sg121
Nsg122
Nsg123
Nsbag2
(g3
g4
Ntp358
Rp359
(dp360
g8
g11
sg101
Nsg102
(dp361
sg104
Nsg26
g29
sg105
(lp362
I4
aI1
asg107
Nsg108
VTractate Semachot 4:1
p363
sg110
(lp364
sg112
g62
sg113
Nsg114
(lp365
I4
aI1
asg116
Nsg117
g363
sg118
(lp366
sg120
g46
sg121
Nsg122
Nsg123
Nsbag2
(g3
g4
Ntp367
Rp368
(dp369
g8
g11
sg101
Nsg102
(dp370
sg104
Nsg26
g29
sg105
(lp371
I4
aI2
asg107
Nsg108
VTractate Semachot 4:2
p372
sg110
(lp373
sg112
g62
sg113
Nsg114
(lp374
I4
aI2
asg116
Nsg117
g372
sg118
(lp375
sg120
g46
sg121
Nsg122
Nsg123
Nsbag2
(g3
g4
Ntp376
Rp377
(dp378
g8
g11
sg101
Nsg102
(dp379
sg104
Nsg26
g29
sg105
(lp380
I4
aI3
asg107
Nsg108
VTractate Semachot 4:3
p381
sg110
(lp382
sg112
g62
sg113
Nsg114
(lp383
I4
aI3
asg116
Nsg117
g381
sg118
(lp384
sg120
g46
sg121
Nsg122
Nsg123
Nsbag2
(g3
g4
Ntp385
Rp386
(dp387
g8
g11
sg101
Nsg102
(dp388
sg104
Nsg26
g29
sg105
(lp389
I4
aI4
asg107
Nsg108
VTractate Semachot 4:4
p390
sg110
(lp391
sg112
g62
sg113
Nsg114
(lp392
I4
aI4
asg116
Nsg117
g390
sg118
(lp393
sg120
g46
sg121
Nsg122
Nsg123
Nsbag2
(g3
g4
Ntp394
Rp395
(dp396
g8
g11
sg101
Nsg102
(dp397
sg104
Nsg26
g29
sg105
(lp398
I4
aI5
asg107
Nsg108
VTractate Semachot 4:5
p399
sg110
(lp400
sg112
g62
sg113
Nsg114
(lp401
I4
aI5
asg116
Nsg117
g399
sg118
(lp402
sg120
g46
sg121
Nsg122
Nsg123
Nsbag2
(g3
g4
Ntp403
Rp404
(dp405
g8
g11
sg101
Nsg102
(dp406
sg104
Nsg26
g29
sg105
(lp407
I4
aI6
asg107
Nsg108
VTractate Semachot 4:6
p408
sg110
(lp409
sg112
g62
sg113
Nsg114
(lp410
I4
aI6
asg116
Nsg117
g408
sg118
(lp411
sg120
g46
sg121
Nsg122
Nsg123
Nsbag2
(g3
g4
Ntp412
Rp413
(dp414
g8
g11
sg101
Nsg102
(dp415
sg104
Nsg26
g29
sg105
(lp416
I4
aI7
asg107
Nsg108
VTractate Semachot 4:7
p417
sg110
(lp418
sg112
g62
sg113
Nsg114
(lp419
I4
aI7
asg116
Nsg117
g417
sg118
(lp420
sg120
g46
sg121
Nsg122
Nsg123
Nsbag2
(g3
g4
Ntp421
Rp422
(dp423
g8
g11
sg101
Nsg102
(dp424
sg104
Nsg26
g29
sg105
(lp425
I4
aI8
asg107
Nsg108
VTractate Semachot 4:8
p426
sg110
(lp427
sg112
g62
sg113
Nsg114
(lp428
I4
aI8
asg116
Nsg117
g426
sg118
(lp429
sg120
g46
sg121
Nsg122
Nsg123
Nsbag2
(g3
g4
Ntp430
Rp431
(dp432
g8
g11
sg101
Nsg102
(dp433
sg104
Nsg26
g29
sg105
(lp434
I4
aI9
asg107
Nsg108
VTractate Semachot 4:9
p435
sg110
(lp436
sg112
g62
sg113
Nsg114
(lp437
I4
aI9
asg116
Nsg117
g435
sg118
(lp438
sg120
g46
sg121
Nsg122
Nsg123
Nsbag2
(g3
g4
Ntp439
Rp440
(dp441
g8
g11
sg101
Nsg102
(dp442
sg104
Nsg26
g29
sg105
(lp443
I4
aI10
asg107
Nsg108
VTractate Semachot 4:10
p444
sg110
(lp445
sg112
g62
sg113
Nsg114
(lp446
I4
aI10
asg116
Nsg117
g444
sg118
(lp447
sg120
g46
sg121
Nsg122
Nsg123
Nsbag2
(g3
g4
Ntp448
Rp449
(dp450
g8
g11
sg101
Nsg102
(dp451
sg104
Nsg26
g29
sg105
(lp452
I5
aI1
asg107
Nsg108
VTractate Semachot 5:1
p453
sg110
(lp454
sg112
g62
sg113
Nsg114
(lp455
I5
aI1
asg116
Nsg117
g453
sg118
(lp456
sg120
g46
sg121
Nsg122
Nsg123
Nsbag2
(g3
g4
Ntp457
Rp458
(dp459
g8
g11
sg101
Nsg102
(dp460
sg104
Nsg26
g29
sg105
(lp461
I5
aI2
asg107
Nsg108
VTractate Semachot 5:2
p462
sg110
(lp463
sg112
g62
sg113
Nsg114
(lp464
I5
aI2
asg116
Nsg117
g462
sg118
(lp465
sg120
g46
sg121
Nsg122
Nsg123
Nsbag2
(g3
g4
Ntp466
Rp467
(dp468
g8
g11
sg101
Nsg102
(dp469
sg104
Nsg26
g29
sg105
(lp470
I5
aI3
asg107
Nsg108
VTractate Semachot 5:3
p471
sg110
(lp472
sg112
g62
sg113
Nsg114
(lp473
I5
aI3
asg116
Nsg117
g471
sg118
(lp474
sg120
g46
sg121
Nsg122
Nsg123
Nsbag2
(g3
g4
Ntp475
Rp476
(dp477
g8
g11
sg101
Nsg102
(dp478
sg104
Nsg26
g29
sg105
(lp479
I5
aI4
asg107
Nsg108
VTractate Semachot 5:4
p480
sg110
(lp481
sg112
g62
sg113
Nsg114
(lp482
I5
aI4
asg116
Nsg117
g480
sg118
(lp483
sg120
g46
sg121
Nsg122
Nsg123
Nsbag2
(g3
g4
Ntp484
Rp485
(dp486
g8
g11
sg101
Nsg102
(dp487
sg104
Nsg26
g29
sg105
(lp488
I5
aI5
asg107
Nsg108
VTractate Semachot 5:5
p489
sg110
(lp490
sg112
g62
sg113
Nsg114
(lp491
I5
aI5
asg116
Nsg117
g489
sg118
(lp492
sg120
g46
sg121
Nsg122
Nsg123
Nsbag2
(g3
g4
Ntp493
Rp494
(dp495
g8
g11
sg101
Nsg102
(dp496
sg104
Nsg26
g29
sg105
(lp497
I5
aI6
asg107
Nsg108
VTractate Semachot 5:6
p498
sg110
(lp499
sg112
g62
sg113
Nsg114
(lp500
I5
aI6
asg116
Nsg117
g498
sg118
(lp501
sg120
g46
sg121
Nsg122
Nsg123
Nsbag2
(g3
g4
Ntp502
Rp503
(dp504
g8
g11
sg101
Nsg102
(dp505
sg104
Nsg26
g29
sg105
(lp506
I5
aI7
asg107
Nsg108
VTractate Semachot 5:7
p507
sg110
(lp508
sg112
g62
sg113
Nsg114
(lp509
I5
aI7
asg116
Nsg117
g507
sg118
(lp510
sg120
g46
sg121
Nsg122
Nsg123
Nsbag2
(g3
g4
Ntp511
Rp512
(dp513
g8
g11
sg101
Nsg102
(dp514
sg104
Nsg26
g29
sg105
(lp515
I5
aI8
asg107
Nsg108
VTractate Semachot 5:8
p516
sg110
(lp517
sg112
g62
sg113
Nsg114
(lp518
I5
aI8
asg116
Nsg117
g516
sg118
(lp519
sg120
g46
sg121
Nsg122
Nsg123
Nsbag2
(g3
g4
Ntp520
Rp521
(dp522
g8
g11
sg101
Nsg102
(dp523
sg104
Nsg26
g29
sg105
(lp524
I5
aI9
asg107
Nsg108
VTractate Semachot 5:9
p525
sg110
(lp526
sg112
g62
sg113
Nsg114
(lp527
I5
aI9
asg116
Nsg117
g525
sg118
(lp528
sg120
g46
sg121
Nsg122
Nsg123
Nsbag2
(g3
g4
Ntp529
Rp530
(dp531
g8
g11
sg101
Nsg102
(dp532
sg104
Nsg26
g29
sg105
(lp533
I5
aI10
asg107
Nsg108
VTractate Semachot 5:10
p534
sg110
(lp535
sg112
g62
sg113
Nsg114
(lp536
I5
aI10
asg116
Nsg117
g534
sg118
(lp537
sg120
g46
sg121
Nsg122
Nsg123
Nsbag2
(g3
g4
Ntp538
Rp539
(dp540
g8
g11
sg101
Nsg102
(dp541
sg104
Nsg26
g29
sg105
(lp542
I5
aI11
asg107
Nsg108
VTractate Semachot 5:11
p543
sg110
(lp544
sg112
g62
sg113
Nsg114
(lp545
I5
aI11
asg116
Nsg117
g543
sg118
(lp546
sg120
g46
sg121
Nsg122
Nsg123
Nsbag2
(g3
g4
Ntp547
Rp548
(dp549
g8
g11
sg101
Nsg102
(dp550
sg104
Nsg26
g29
sg105
(lp551
I5
aI12
asg107
Nsg108
VTractate Semachot 5:12
p552
sg110
(lp553
sg112
g62
sg113
Nsg114
(lp554
I5
aI12
asg116
Nsg117
g552
sg118
(lp555
sg120
g46
sg121
Nsg122
Nsg123
Nsbag2
(g3
g4
Ntp556
Rp557
(dp558
g8
g11
sg101
Nsg102
(dp559
sg104
Nsg26
g29
sg105
(lp560
I5
aI13
asg107
Nsg108
VTractate Semachot 5:13
p561
sg110
(lp562
sg112
g62
sg113
Nsg114
(lp563
I5
aI13
asg116
Nsg117
g561
sg118
(lp564
sg120
g46
sg121
Nsg122
Nsg123
Nsbag2
(g3
g4
Ntp565
Rp566
(dp567
g8
g11
sg101
Nsg102
(dp568
sg104
Nsg26
g29
sg105
(lp569
I5
aI14
asg107
Nsg108
VTractate Semachot 5:14
p570
sg110
(lp571
sg112
g62
sg113
Nsg114
(lp572
I5
aI14
asg116
Nsg117
g570
sg118
(lp573
sg120
g46
sg121
Nsg122
Nsg123
Nsbag2
(g3
g4
Ntp574
Rp575
(dp576
g8
g11
sg101
Nsg102
(dp577
sg104
Nsg26
g29
sg105
(lp578
I5
aI15
asg107
Nsg108
VTractate Semachot 5:15
p579
sg110
(lp580
sg112
g62
sg113
Nsg114
(lp581
I5
aI15
asg116
Nsg117
g579
sg118
(lp582
sg120
g46
sg121
Nsg122
Nsg123
Nsbag2
(g3
g4
Ntp583
Rp584
(dp585
g8
g11
sg101
Nsg102
(dp586
sg104
Nsg26
g29
sg105
(lp587
I5
aI16
asg107
Nsg108
VTractate Semachot 5:16
p588
sg110
(lp589
sg112
g62
sg113
Nsg114
(lp590
I5
aI16
asg116
Nsg117
g588
sg118
(lp591
sg120
g46
sg121
Nsg122
Nsg123
Nsbag2
(g3
g4
Ntp592
Rp593
(dp594
g8
g11
sg101
Nsg102
(dp595
sg104
Nsg26
g29
sg105
(lp596
I5
aI17
asg107
Nsg108
VTractate Semachot 5:17
p597
sg110
(lp598
sg112
g62
sg113
Nsg114
(lp599
I5
aI17
asg116
Nsg117
g597
sg118
(lp600
sg120
g46
sg121
Nsg122
Nsg123
Nsbag2
(g3
g4
Ntp601
Rp602
(dp603
g8
g11
sg101
Nsg102
(dp604
sg104
Nsg26
g29
sg105
(lp605
I5
aI18
asg107
Nsg108
VTractate Semachot 5:18
p606
sg110
(lp607
sg112
g62
sg113
Nsg114
(lp608
I5
aI18
asg116
Nsg117
g606
sg118
(lp609
sg120
g46
sg121
Nsg122
Nsg123
Nsbag2
(g3
g4
Ntp610
Rp611
(dp612
g8
g11
sg101
Nsg102
(dp613
sg104
Nsg26
g29
sg105
(lp614
I5
aI19
asg107
Nsg108
VTractate Semachot 5:19
p615
sg110
(lp616
sg112
g62
sg113
Nsg114
(lp617
I5
aI19
asg116
Nsg117
g615
sg118
(lp618
sg120
g46
sg121
Nsg122
Nsg123
Nsbag2
(g3
g4
Ntp619
Rp620
(dp621
g8
g11
sg101
Nsg102
(dp622
sg104
Nsg26
g29
sg105
(lp623
I5
aI20
asg107
Nsg108
VTractate Semachot 5:20
p624
sg110
(lp625
sg112
g62
sg113
Nsg114
(lp626
I5
aI20
asg116
Nsg117
g624
sg118
(lp627
sg120
g46
sg121
Nsg122
Nsg123
Nsbag2
(g3
g4
Ntp628
Rp629
(dp630
g8
g11
sg101
Nsg102
(dp631
sg104
Nsg26
g29
sg105
(lp632
I5
aI21
asg107
Nsg108
VTractate Semachot 5:21
p633
sg110
(lp634
sg112
g62
sg113
Nsg114
(lp635
I5
aI21
asg116
Nsg117
g633
sg118
(lp636
sg120
g46
sg121
Nsg122
Nsg123
Nsbag2
(g3
g4
Ntp637
Rp638
(dp639
g8
g11
sg101
Nsg102
(dp640
sg104
Nsg26
g29
sg105
(lp641
I5
aI22
asg107
Nsg108
VTractate Semachot 5:22
p642
sg110
(lp643
sg112
g62
sg113
Nsg114
(lp644
I5
aI22
asg116
Nsg117
g642
sg118
(lp645
sg120
g46
sg121
Nsg122
Nsg123
Nsbag2
(g3
g4
Ntp646
Rp647
(dp648
g8
g11
sg101
Nsg102
(dp649
sg104
Nsg26
g29
sg105
(lp650
I5
aI23
asg107
Nsg108
VTractate Semachot 5:23
p651
sg110
(lp652
sg112
g62
sg113
Nsg114
(lp653
I5
aI23
asg116
Nsg117
g651
sg118
(lp654
sg120
g46
sg121
Nsg122
Nsg123
Nsbag2
(g3
g4
Ntp655
Rp656
(dp657
g8
g11
sg101
Nsg102
(dp658
sg104
Nsg26
g29
sg105
(lp659
I5
aI24
asg107
Nsg108
VTractate Semachot 5:24
p660
sg110
(lp661
sg112
g62
sg113
Nsg114
(lp662
I5
aI24
asg116
Nsg117
g660
sg118
(lp663
sg120
g46
sg121
Nsg122
Nsg123
Nsbag2
(g3
g4
Ntp664
Rp665
(dp666
g8
g11
sg101
Nsg102
(dp667
sg104
Nsg26
g29
sg105
(lp668
I5
aI25
asg107
Nsg108
VTractate Semachot 5:25
p669
sg110
(lp670
sg112
g62
sg113
Nsg114
(lp671
I5
aI25
asg116
Nsg117
g669
sg118
(lp672
sg120
g46
sg121
Nsg122
Nsg123
Nsbag2
(g3
g4
Ntp673
Rp674
(dp675
g8
g11
sg101
Nsg102
(dp676
sg104
Nsg26
g29
sg105
(lp677
I5
aI26
asg107
Nsg108
VTractate Semachot 5:26
p678
sg110
(lp679
sg112
g62
sg113
Nsg114
(lp680
I5
aI26
asg116
Nsg117
g678
sg118
(lp681
sg120
g46
sg121
Nsg122
Nsg123
Nsbag2
(g3
g4
Ntp682
Rp683
(dp684
g8
g11
sg101
Nsg102
(dp685
sg104
Nsg26
g29
sg105
(lp686
I5
aI27
asg107
Nsg108
VTractate Semachot 5:27
p687
sg110
(lp688
sg112
g62
sg113
Nsg114
(lp689
I5
aI27
asg116
Nsg117
g687
sg118
(lp690
sg120
g46
sg121
Nsg122
Nsg123
Nsbag2
(g3
g4
Ntp691
Rp692
(dp693
g8
g11
sg101
Nsg102
(dp694
sg104
Nsg26
g29
sg105
(lp695
I5
aI28
asg107
Nsg108
VTractate Semachot 5:28
p696
sg110
(lp697
sg112
g62
sg113
Nsg114
(lp698
I5
aI28
asg116
Nsg117
g696
sg118
(lp699
sg120
g46
sg121
Nsg122
Nsg123
Nsbag2
(g3
g4
Ntp700
Rp701
(dp702
g8
g11
sg101
Nsg102
(dp703
sg104
Nsg26
g29
sg105
(lp704
I5
aI29
asg107
Nsg108
VTractate Semachot 5:29
p705
sg110
(lp706
sg112
g62
sg113
Nsg114
(lp707
I5
aI29
asg116
Nsg117
g705
sg118
(lp708
sg120
g46
sg121
Nsg122
Nsg123
Nsbag2
(g3
g4
Ntp709
Rp710
(dp711
g8
g11
sg101
Nsg102
(dp712
sg104
Nsg26
g29
sg105
(lp713
I5
aI30
asg107
Nsg108
VTractate Semachot 5:30
p714
sg110
(lp715
sg112
g62
sg113
Nsg114
(lp716
I5
aI30
asg116
Nsg117
g714
sg118
(lp717
sg120
g46
sg121
Nsg122
Nsg123
Nsbag2
(g3
g4
Ntp718
Rp719
(dp720
g8
g11
sg101
Nsg102
(dp721
sg104
Nsg26
g29
sg105
(lp722
I5
aI31
asg107
Nsg108
VTractate Semachot 5:31
p723
sg110
(lp724
sg112
g62
sg113
Nsg114
(lp725
I5
aI31
asg116
Nsg117
g723
sg118
(lp726
sg120
g46
sg121
Nsg122
Nsg123
Nsbag2
(g3
g4
Ntp727
Rp728
(dp729
g8
g11
sg101
Nsg102
(dp730
sg104
Nsg26
g29
sg105
(lp731
I5
aI32
asg107
Nsg108
VTractate Semachot 5:32
p732
sg110
(lp733
sg112
g62
sg113
Nsg114
(lp734
I5
aI32
asg116
Nsg117
g732
sg118
(lp735
sg120
g46
sg121
Nsg122
Nsg123
Nsbag2
(g3
g4
Ntp736
Rp737
(dp738
g8
g11
sg101
Nsg102
(dp739
sg104
Nsg26
g29
sg105
(lp740
I5
aI33
asg107
Nsg108
VTractate Semachot 5:33
p741
sg110
(lp742
sg112
g62
sg113
Nsg114
(lp743
I5
aI33
asg116
Nsg117
g741
sg118
(lp744
sg120
g46
sg121
Nsg122
Nsg123
Nsbag2
(g3
g4
Ntp745
Rp746
(dp747
g8
g11
sg101
Nsg102
(dp748
sg104
Nsg26
g29
sg105
(lp749
I5
aI34
asg107
Nsg108
VTractate Semachot 5:34
p750
sg110
(lp751
sg112
g62
sg113
Nsg114
(lp752
I5
aI34
asg116
Nsg117
g750
sg118
(lp753
sg120
g46
sg121
Nsg122
Nsg123
Nsbag2
(g3
g4
Ntp754
Rp755
(dp756
g8
g11
sg101
Nsg102
(dp757
sg104
Nsg26
g29
sg105
(lp758
I6
aI1
asg107
Nsg108
VTractate Semachot 6:1
p759
sg110
(lp760
sg112
g62
sg113
Nsg114
(lp761
I6
aI1
asg116
Nsg117
g759
sg118
(lp762
sg120
g46
sg121
Nsg122
Nsg123
Nsbag2
(g3
g4
Ntp763
Rp764
(dp765
g8
g11
sg101
Nsg102
(dp766
sg104
Nsg26
g29
sg105
(lp767
I6
aI2
asg107
Nsg108
VTractate Semachot 6:2
p768
sg110
(lp769
sg112
g62
sg113
Nsg114
(lp770
I6
aI2
asg116
Nsg117
g768
sg118
(lp771
sg120
g46
sg121
Nsg122
Nsg123
Nsbag2
(g3
g4
Ntp772
Rp773
(dp774
g8
g11
sg101
Nsg102
(dp775
sg104
Nsg26
g29
sg105
(lp776
I6
aI3
asg107
Nsg108
VTractate Semachot 6:3
p777
sg110
(lp778
sg112
g62
sg113
Nsg114
(lp779
I6
aI3
asg116
Nsg117
g777
sg118
(lp780
sg120
g46
sg121
Nsg122
Nsg123
Nsbag2
(g3
g4
Ntp781
Rp782
(dp783
g8
g11
sg101
Nsg102
(dp784
sg104
Nsg26
g29
sg105
(lp785
I6
aI4
asg107
Nsg108
VTractate Semachot 6:4
p786
sg110
(lp787
sg112
g62
sg113
Nsg114
(lp788
I6
aI4
asg116
Nsg117
g786
sg118
(lp789
sg120
g46
sg121
Nsg122
Nsg123
Nsbag2
(g3
g4
Ntp790
Rp791
(dp792
g8
g11
sg101
Nsg102
(dp793
sg104
Nsg26
g29
sg105
(lp794
I6
aI5
asg107
Nsg108
VTractate Semachot 6:5
p795
sg110
(lp796
sg112
g62
sg113
Nsg114
(lp797
I6
aI5
asg116
Nsg117
g795
sg118
(lp798
sg120
g46
sg121
Nsg122
Nsg123
Nsbag2
(g3
g4
Ntp799
Rp800
(dp801
g8
g11
sg101
Nsg102
(dp802
sg104
Nsg26
g29
sg105
(lp803
I6
aI6
asg107
Nsg108
VTractate Semachot 6:6
p804
sg110
(lp805
sg112
g62
sg113
Nsg114
(lp806
I6
aI6
asg116
Nsg117
g804
sg118
(lp807
sg120
g46
sg121
Nsg122
Nsg123
Nsbag2
(g3
g4
Ntp808
Rp809
(dp810
g8
g11
sg101
Nsg102
(dp811
sg104
Nsg26
g29
sg105
(lp812
I6
aI7
asg107
Nsg108
VTractate Semachot 6:7
p813
sg110
(lp814
sg112
g62
sg113
Nsg114
(lp815
I6
aI7
asg116
Nsg117
g813
sg118
(lp816
sg120
g46
sg121
Nsg122
Nsg123
Nsbag2
(g3
g4
Ntp817
Rp818
(dp819
g8
g11
sg101
Nsg102
(dp820
sg104
Nsg26
g29
sg105
(lp821
I6
aI8
asg107
Nsg108
VTractate Semachot 6:8
p822
sg110
(lp823
sg112
g62
sg113
Nsg114
(lp824
I6
aI8
asg116
Nsg117
g822
sg118
(lp825
sg120
g46
sg121
Nsg122
Nsg123
Nsbag2
(g3
g4
Ntp826
Rp827
(dp828
g8
g11
sg101
Nsg102
(dp829
sg104
Nsg26
g29
sg105
(lp830
I6
aI9
asg107
Nsg108
VTractate Semachot 6:9
p831
sg110
(lp832
sg112
g62
sg113
Nsg114
(lp833
I6
aI9
asg116
Nsg117
g831
sg118
(lp834
sg120
g46
sg121
Nsg122
Nsg123
Nsbag2
(g3
g4
Ntp835
Rp836
(dp837
g8
g11
sg101
Nsg102
(dp838
sg104
Nsg26
g29
sg105
(lp839
I6
aI10
asg107
Nsg108
VTractate Semachot 6:10
p840
sg110
(lp841
sg112
g62
sg113
Nsg114
(lp842
I6
aI10
asg116
Nsg117
g840
sg118
(lp843
sg120
g46
sg121
Nsg122
Nsg123
Nsbag2
(g3
g4
Ntp844
Rp845
(dp846
g8
g11
sg101
Nsg102
(dp847
sg104
Nsg26
g29
sg105
(lp848
I6
aI11
asg107
Nsg108
VTractate Semachot 6:11
p849
sg110
(lp850
sg112
g62
sg113
Nsg114
(lp851
I6
aI11
asg116
Nsg117
g849
sg118
(lp852
sg120
g46
sg121
Nsg122
Nsg123
Nsbag2
(g3
g4
Ntp853
Rp854
(dp855
g8
g11
sg101
Nsg102
(dp856
sg104
Nsg26
g29
sg105
(lp857
I6
aI12
asg107
Nsg108
VTractate Semachot 6:12
p858
sg110
(lp859
sg112
g62
sg113
Nsg114
(lp860
I6
aI12
asg116
Nsg117
g858
sg118
(lp861
sg120
g46
sg121
Nsg122
Nsg123
Nsbag2
(g3
g4
Ntp862
Rp863
(dp864
g8
g11
sg101
Nsg102
(dp865
sg104
Nsg26
g29
sg105
(lp866
I6
aI13
asg107
Nsg108
VTractate Semachot 6:13
p867
sg110
(lp868
sg112
g62
sg113
Nsg114
(lp869
I6
aI13
asg116
Nsg117
g867
sg118
(lp870
sg120
g46
sg121
Nsg122
Nsg123
Nsbag2
(g3
g4
Ntp871
Rp872
(dp873
g8
g11
sg101
Nsg102
(dp874
sg104
Nsg26
g29
sg105
(lp875
I6
aI14
asg107
Nsg108
VTractate Semachot 6:14
p876
sg110
(lp877
sg112
g62
sg113
Nsg114
(lp878
I6
aI14
asg116
Nsg117
g876
sg118
(lp879
sg120
g46
sg121
Nsg122
Nsg123
Nsbag2
(g3
g4
Ntp880
Rp881
(dp882
g8
g11
sg101
Nsg102
(dp883
sg104
Nsg26
g29
sg105
(lp884
I6
aI15
asg107
Nsg108
VTractate Semachot 6:15
p885
sg110
(lp886
sg112
g62
sg113
Nsg114
(lp887
I6
aI15
asg116
Nsg117
g885
sg118
(lp888
sg120
g46
sg121
Nsg122
Nsg123
Nsbag2
(g3
g4
Ntp889
Rp890
(dp891
g8
g11
sg101
Nsg102
(dp892
sg104
Nsg26
g29
sg105
(lp893
I6
aI16
asg107
Nsg108
VTractate Semachot 6:16
p894
sg110
(lp895
sg112
g62
sg113
Nsg114
(lp896
I6
aI16
asg116
Nsg117
g894
sg118
(lp897
sg120
g46
sg121
Nsg122
Nsg123
Nsbag2
(g3
g4
Ntp898
Rp899
(dp900
g8
g11
sg101
Nsg102
(dp901
sg104
Nsg26
g29
sg105
(lp902
I6
aI17
asg107
Nsg108
VTractate Semachot 6:17
p903
sg110
(lp904
sg112
g62
sg113
Nsg114
(lp905
I6
aI17
asg116
Nsg117
g903
sg118
(lp906
sg120
g46
sg121
Nsg122
Nsg123
Nsbag2
(g3
g4
Ntp907
Rp908
(dp909
g8
g11
sg101
Nsg102
(dp910
sg104
Nsg26
g29
sg105
(lp911
I7
aI1
asg107
Nsg108
VTractate Semachot 7:1
p912
sg110
(lp913
sg112
g62
sg113
Nsg114
(lp914
I7
aI1
asg116
Nsg117
g912
sg118
(lp915
sg120
g46
sg121
Nsg122
Nsg123
Nsbag2
(g3
g4
Ntp916
Rp917
(dp918
g8
g11
sg101
Nsg102
(dp919
sg104
Nsg26
g29
sg105
(lp920
I8
aI1
asg107
Nsg108
VTractate Semachot 8:1
p921
sg110
(lp922
sg112
g62
sg113
Nsg114
(lp923
I8
aI1
asg116
Nsg117
g921
sg118
(lp924
sg120
g46
sg121
Nsg122
Nsg123
Nsbag2
(g3
g4
Ntp925
Rp926
(dp927
g8
g11
sg101
Nsg102
(dp928
sg104
Nsg26
g29
sg105
(lp929
I9
aI1
asg107
Nsg108
VTractate Semachot 9:1
p930
sg110
(lp931
sg112
g62
sg113
Nsg114
(lp932
I9
aI1
asg116
Nsg117
g930
sg118
(lp933
sg120
g46
sg121
Nsg122
Nsg123
Nsbag2
(g3
g4
Ntp934
Rp935
(dp936
g8
g11
sg101
Nsg102
(dp937
sg104
Nsg26
g29
sg105
(lp938
I10
aI1
asg107
Nsg108
VTractate Semachot 10:1
p939
sg110
(lp940
sg112
g62
sg113
Nsg114
(lp941
I10
aI1
asg116
Nsg117
g939
sg118
(lp942
sg120
g46
sg121
Nsg122
Nsg123
Nsbag2
(g3
g4
Ntp943
Rp944
(dp945
g8
g11
sg101
Nsg102
(dp946
sg104
Nsg26
g29
sg105
(lp947
I11
aI1
asg107
Nsg108
VTractate Semachot 11:1
p948
sg110
(lp949
sg112
g62
sg113
Nsg114
(lp950
I11
aI1
asg116
Nsg117
g948
sg118
(lp951
sg120
g46
sg121
Nsg122
Nsg123
Nsbag2
(g3
g4
Ntp952
Rp953
(dp954
g8
g11
sg101
Nsg102
(dp955
sg104
Nsg26
g29
sg105
(lp956
I12
aI1
asg107
Nsg108
VTractate Semachot 12:1
p957
sg110
(lp958
sg112
g62
sg113
Nsg114
(lp959
I12
aI1
asg116
Nsg117
g957
sg118
(lp960
sg120
g46
sg121
Nsg122
Nsg123
Nsbag2
(g3
g4
Ntp961
Rp962
(dp963
g8
g11
sg101
Nsg102
(dp964
sg104
Nsg26
g29
sg105
(lp965
I13
aI1
asg107
Nsg108
VTractate Semachot 13:1
p966
sg110
(lp967
sg112
g62
sg113
Nsg114
(lp968
I13
aI1
asg116
Nsg117
g966
sg118
(lp969
sg120
g46
sg121
Nsg122
Nsg123
Nsbag2
(g3
g4
Ntp970
Rp971
(dp972
g8
g11
sg101
Nsg102
(dp973
sg104
Nsg26
g29
sg105
(lp974
I14
aI1
asg107
Nsg108
VTractate Semachot 14:1
p975
sg110
(lp976
sg112
g62
sg113
Nsg114
(lp977
I14
aI1
asg116
Nsg117
g975
sg118
(lp978
sg120
g46
sg121
Nsg122
Nsg123
Nsbag2
(g3
g4
Ntp979
Rp980
(dp981
g8
g11
sg101
Nsg102
(dp982
sg104
Nsg26
g29
sg105
(lp983
I15
aI1
asg107
Nsg108
VTractate Semachot 15:1
p984
sg110
(lp985
sg112
g62
sg113
Nsg114
(lp986
I15
aI1
asg116
Nsg117
g984
sg118
(lp987
sg120
g46
sg121
Nsg122
Nsg123
Nsbatp988
.