((lp0
I0
aI99
aI172
aI434
aI729
aI831
aI980
aI1080
aI1115
aI1176
aI1227
aI1523
aI1562
aI1681
aI1742
aI1768
aI1828
aI1996
aI2081
aI2328
aI2333
aI2496
aI2504
aI2519
aI2583
aI2616
aI2628
aI2685
aI2773
aI3098
a(lp1
ccopy_reg
_reconstructor
p2
(csefaria.model.text
Ref
p3
c__builtin__
object
p4
Ntp5
Rp6
(dp7
S'index_node'
p8
g2
(csefaria.model.schema
JaggedArrayNode
p9
g4
Ntp10
Rp11
(dp12
S'_address'
p13
(lp14
VTractate Derech Eretz
p15
asS'_full_titles'
p16
(dp17
sVnodeType
p18
VJaggedArrayNode
p19
sS'parent'
p20
NsVaddressTypes
p21
(lp22
VInteger
p23
aVInteger
p24
asS'default'
p25
I00
sS'index'
p26
g2
(csefaria.model.text
Index
p27
g4
Ntp28
Rp29
(dp30
S'pkeys_orig_values'
p31
(dp32
S'title'
p33
VTractate Derech Eretz
p34
ssS'struct_objs'
p35
(dp36
sS'nodes'
p37
g11
sS'_id'
p38
g2
(cbson.objectid
ObjectId
p39
g4
Ntp40
Rp41
S'Xl\xb8I\x19\xab\x88f\xbc\xa4\x98\xf4'
p42
bsS'_title'
p43
g34
sS'categories'
p44
(lp45
VMasechtot Ketanot
p46
asS'schema'
p47
(dp48
g18
g19
sg21
g22
sVdepth
p49
I2
sVtitles
p50
(lp51
(dp52
Vlang
p53
Vhe
p54
sVtext
p55
V\u05de\u05e1\u05db\u05ea \u05d3\u05e8\u05da \u05d0\u05e8\u05e5
p56
sVprimary
p57
I01
sa(dp58
Vlang
p59
Ven
p60
sVtext
p61
VTractate Derech Eretz
p62
sVprimary
p63
I01
sasVkey
p64
g15
sVsectionNames
p65
(lp66
VChapter
p67
aVHalakhah
p68
assbsS'_primary_title'
p69
(dp70
sS'title_group'
p71
g2
(csefaria.model.schema
TitleGroup
p72
g4
Ntp73
Rp74
(dp75
g69
(dp76
S'en'
p77
g62
ssS'titles'
p78
g51
sbsS'_addressTypes'
p79
(lp80
g2
(csefaria.model.schema
AddressInteger
p81
g4
Ntp82
Rp83
(dp84
S'length'
p85
NsS'order'
p86
I0
sbag2
(g81
g4
Ntp87
Rp88
(dp89
g85
Nsg86
I1
sbasS'sharedTitle'
p90
Nsg49
I2
sS'_full_title'
p91
(dp92
g77
g62
ssS'key'
p93
g15
sS'checkFirst'
p94
NsS'_regexes'
p95
(dp96
sS'_leaf_nodes'
p97
(lp98
sg65
g66
sS'children'
p99
(lp100
sbsS'_range_index'
p101
NsS'_context'
p102
(dp103
sS'_padded'
p104
Nsg26
g29
sS'sections'
p105
(lp106
I1
aI1
asS'_first_spanned_ref'
p107
NsS'tref'
p108
VTractate Derech Eretz 1:1
p109
sS'_spanned_refs'
p110
(lp111
sS'book'
p112
g62
sS'_range_depth'
p113
NsS'toSections'
p114
(lp115
I1
aI1
asS'_url'
p116
NsS'_normal'
p117
g109
sS'_ranged_refs'
p118
(lp119
sS'type'
p120
g46
sS'_prev'
p121
NsS'_he_normal'
p122
NsS'_next'
p123
Nsbag2
(g3
g4
Ntp124
Rp125
(dp126
g8
g11
sg101
Nsg102
(dp127
sg104
Nsg26
g29
sg105
(lp128
I1
aI2
asg107
Nsg108
VTractate Derech Eretz 1:2
p129
sg110
(lp130
sg112
g62
sg113
Nsg114
(lp131
I1
aI2
asg116
Nsg117
g129
sg118
(lp132
sg120
g46
sg121
Nsg122
Nsg123
Nsbag2
(g3
g4
Ntp133
Rp134
(dp135
g8
g11
sg101
Nsg102
(dp136
sg104
Nsg26
g29
sg105
(lp137
I1
aI3
asg107
Nsg108
VTractate Derech Eretz 1:3
p138
sg110
(lp139
sg112
g62
sg113
Nsg114
(lp140
I1
aI3
asg116
Nsg117
g138
sg118
(lp141
sg120
g46
sg121
Nsg122
Nsg123
Nsbag2
(g3
g4
Ntp142
Rp143
(dp144
g8
g11
sg101
Nsg102
(dp145
sg104
Nsg26
g29
sg105
(lp146
I2
aI1
asg107
Nsg108
VTractate Derech Eretz 2:1
p147
sg110
(lp148
sg112
g62
sg113
Nsg114
(lp149
I2
aI1
asg116
Nsg117
g147
sg118
(lp150
sg120
g46
sg121
Nsg122
Nsg123
Nsbag2
(g3
g4
Ntp151
Rp152
(dp153
g8
g11
sg101
Nsg102
(dp154
sg104
Nsg26
g29
sg105
(lp155
I2
aI2
asg107
Nsg108
VTractate Derech Eretz 2:2
p156
sg110
(lp157
sg112
g62
sg113
Nsg114
(lp158
I2
aI2
asg116
Nsg117
g156
sg118
(lp159
sg120
g46
sg121
Nsg122
Nsg123
Nsbag2
(g3
g4
Ntp160
Rp161
(dp162
g8
g11
sg101
Nsg102
(dp163
sg104
Nsg26
g29
sg105
(lp164
I3
aI1
asg107
Nsg108
VTractate Derech Eretz 3:1
p165
sg110
(lp166
sg112
g62
sg113
Nsg114
(lp167
I3
aI1
asg116
Nsg117
g165
sg118
(lp168
sg120
g46
sg121
Nsg122
Nsg123
Nsbag2
(g3
g4
Ntp169
Rp170
(dp171
g8
g11
sg101
Nsg102
(dp172
sg104
Nsg26
g29
sg105
(lp173
I3
aI2
asg107
Nsg108
VTractate Derech Eretz 3:2
p174
sg110
(lp175
sg112
g62
sg113
Nsg114
(lp176
I3
aI2
asg116
Nsg117
g174
sg118
(lp177
sg120
g46
sg121
Nsg122
Nsg123
Nsbag2
(g3
g4
Ntp178
Rp179
(dp180
g8
g11
sg101
Nsg102
(dp181
sg104
Nsg26
g29
sg105
(lp182
I3
aI3
asg107
Nsg108
VTractate Derech Eretz 3:3
p183
sg110
(lp184
sg112
g62
sg113
Nsg114
(lp185
I3
aI3
asg116
Nsg117
g183
sg118
(lp186
sg120
g46
sg121
Nsg122
Nsg123
Nsbag2
(g3
g4
Ntp187
Rp188
(dp189
g8
g11
sg101
Nsg102
(dp190
sg104
Nsg26
g29
sg105
(lp191
I4
aI1
asg107
Nsg108
VTractate Derech Eretz 4:1
p192
sg110
(lp193
sg112
g62
sg113
Nsg114
(lp194
I4
aI1
asg116
Nsg117
g192
sg118
(lp195
sg120
g46
sg121
Nsg122
Nsg123
Nsbag2
(g3
g4
Ntp196
Rp197
(dp198
g8
g11
sg101
Nsg102
(dp199
sg104
Nsg26
g29
sg105
(lp200
I4
aI2
asg107
Nsg108
VTractate Derech Eretz 4:2
p201
sg110
(lp202
sg112
g62
sg113
Nsg114
(lp203
I4
aI2
asg116
Nsg117
g201
sg118
(lp204
sg120
g46
sg121
Nsg122
Nsg123
Nsbag2
(g3
g4
Ntp205
Rp206
(dp207
g8
g11
sg101
Nsg102
(dp208
sg104
Nsg26
g29
sg105
(lp209
I4
aI3
asg107
Nsg108
VTractate Derech Eretz 4:3
p210
sg110
(lp211
sg112
g62
sg113
Nsg114
(lp212
I4
aI3
asg116
Nsg117
g210
sg118
(lp213
sg120
g46
sg121
Nsg122
Nsg123
Nsbag2
(g3
g4
Ntp214
Rp215
(dp216
g8
g11
sg101
Nsg102
(dp217
sg104
Nsg26
g29
sg105
(lp218
I4
aI4
asg107
Nsg108
VTractate Derech Eretz 4:4
p219
sg110
(lp220
sg112
g62
sg113
Nsg114
(lp221
I4
aI4
asg116
Nsg117
g219
sg118
(lp222
sg120
g46
sg121
Nsg122
Nsg123
Nsbag2
(g3
g4
Ntp223
Rp224
(dp225
g8
g11
sg101
Nsg102
(dp226
sg104
Nsg26
g29
sg105
(lp227
I5
aI1
asg107
Nsg108
VTractate Derech Eretz 5:1
p228
sg110
(lp229
sg112
g62
sg113
Nsg114
(lp230
I5
aI1
asg116
Nsg117
g228
sg118
(lp231
sg120
g46
sg121
Nsg122
Nsg123
Nsbag2
(g3
g4
Ntp232
Rp233
(dp234
g8
g11
sg101
Nsg102
(dp235
sg104
Nsg26
g29
sg105
(lp236
I6
aI1
asg107
Nsg108
VTractate Derech Eretz 6:1
p237
sg110
(lp238
sg112
g62
sg113
Nsg114
(lp239
I6
aI1
asg116
Nsg117
g237
sg118
(lp240
sg120
g46
sg121
Nsg122
Nsg123
Nsbag2
(g3
g4
Ntp241
Rp242
(dp243
g8
g11
sg101
Nsg102
(dp244
sg104
Nsg26
g29
sg105
(lp245
I6
aI2
asg107
Nsg108
VTractate Derech Eretz 6:2
p246
sg110
(lp247
sg112
g62
sg113
Nsg114
(lp248
I6
aI2
asg116
Nsg117
g246
sg118
(lp249
sg120
g46
sg121
Nsg122
Nsg123
Nsbag2
(g3
g4
Ntp250
Rp251
(dp252
g8
g11
sg101
Nsg102
(dp253
sg104
Nsg26
g29
sg105
(lp254
I6
aI3
asg107
Nsg108
VTractate Derech Eretz 6:3
p255
sg110
(lp256
sg112
g62
sg113
Nsg114
(lp257
I6
aI3
asg116
Nsg117
g255
sg118
(lp258
sg120
g46
sg121
Nsg122
Nsg123
Nsbag2
(g3
g4
Ntp259
Rp260
(dp261
g8
g11
sg101
Nsg102
(dp262
sg104
Nsg26
g29
sg105
(lp263
I7
aI1
asg107
Nsg108
VTractate Derech Eretz 7:1
p264
sg110
(lp265
sg112
g62
sg113
Nsg114
(lp266
I7
aI1
asg116
Nsg117
g264
sg118
(lp267
sg120
g46
sg121
Nsg122
Nsg123
Nsbag2
(g3
g4
Ntp268
Rp269
(dp270
g8
g11
sg101
Nsg102
(dp271
sg104
Nsg26
g29
sg105
(lp272
I8
aI1
asg107
Nsg108
VTractate Derech Eretz 8:1
p273
sg110
(lp274
sg112
g62
sg113
Nsg114
(lp275
I8
aI1
asg116
Nsg117
g273
sg118
(lp276
sg120
g46
sg121
Nsg122
Nsg123
Nsbag2
(g3
g4
Ntp277
Rp278
(dp279
g8
g11
sg101
Nsg102
(dp280
sg104
Nsg26
g29
sg105
(lp281
I8
aI2
asg107
Nsg108
VTractate Derech Eretz 8:2
p282
sg110
(lp283
sg112
g62
sg113
Nsg114
(lp284
I8
aI2
asg116
Nsg117
g282
sg118
(lp285
sg120
g46
sg121
Nsg122
Nsg123
Nsbag2
(g3
g4
Ntp286
Rp287
(dp288
g8
g11
sg101
Nsg102
(dp289
sg104
Nsg26
g29
sg105
(lp290
I8
aI3
asg107
Nsg108
VTractate Derech Eretz 8:3
p291
sg110
(lp292
sg112
g62
sg113
Nsg114
(lp293
I8
aI3
asg116
Nsg117
g291
sg118
(lp294
sg120
g46
sg121
Nsg122
Nsg123
Nsbag2
(g3
g4
Ntp295
Rp296
(dp297
g8
g11
sg101
Nsg102
(dp298
sg104
Nsg26
g29
sg105
(lp299
I9
aI1
asg107
Nsg108
VTractate Derech Eretz 9:1
p300
sg110
(lp301
sg112
g62
sg113
Nsg114
(lp302
I9
aI1
asg116
Nsg117
g300
sg118
(lp303
sg120
g46
sg121
Nsg122
Nsg123
Nsbag2
(g3
g4
Ntp304
Rp305
(dp306
g8
g11
sg101
Nsg102
(dp307
sg104
Nsg26
g29
sg105
(lp308
I9
aI2
asg107
Nsg108
VTractate Derech Eretz 9:2
p309
sg110
(lp310
sg112
g62
sg113
Nsg114
(lp311
I9
aI2
asg116
Nsg117
g309
sg118
(lp312
sg120
g46
sg121
Nsg122
Nsg123
Nsbag2
(g3
g4
Ntp313
Rp314
(dp315
g8
g11
sg101
Nsg102
(dp316
sg104
Nsg26
g29
sg105
(lp317
I9
aI3
asg107
Nsg108
VTractate Derech Eretz 9:3
p318
sg110
(lp319
sg112
g62
sg113
Nsg114
(lp320
I9
aI3
asg116
Nsg117
g318
sg118
(lp321
sg120
g46
sg121
Nsg122
Nsg123
Nsbag2
(g3
g4
Ntp322
Rp323
(dp324
g8
g11
sg101
Nsg102
(dp325
sg104
Nsg26
g29
sg105
(lp326
I9
aI4
asg107
Nsg108
VTractate Derech Eretz 9:4
p327
sg110
(lp328
sg112
g62
sg113
Nsg114
(lp329
I9
aI4
asg116
Nsg117
g327
sg118
(lp330
sg120
g46
sg121
Nsg122
Nsg123
Nsbag2
(g3
g4
Ntp331
Rp332
(dp333
g8
g11
sg101
Nsg102
(dp334
sg104
Nsg26
g29
sg105
(lp335
I9
aI5
asg107
Nsg108
VTractate Derech Eretz 9:5
p336
sg110
(lp337
sg112
g62
sg113
Nsg114
(lp338
I9
aI5
asg116
Nsg117
g336
sg118
(lp339
sg120
g46
sg121
Nsg122
Nsg123
Nsbag2
(g3
g4
Ntp340
Rp341
(dp342
g8
g11
sg101
Nsg102
(dp343
sg104
Nsg26
g29
sg105
(lp344
I9
aI6
asg107
Nsg108
VTractate Derech Eretz 9:6
p345
sg110
(lp346
sg112
g62
sg113
Nsg114
(lp347
I9
aI6
asg116
Nsg117
g345
sg118
(lp348
sg120
g46
sg121
Nsg122
Nsg123
Nsbag2
(g3
g4
Ntp349
Rp350
(dp351
g8
g11
sg101
Nsg102
(dp352
sg104
Nsg26
g29
sg105
(lp353
I9
aI7
asg107
Nsg108
VTractate Derech Eretz 9:7
p354
sg110
(lp355
sg112
g62
sg113
Nsg114
(lp356
I9
aI7
asg116
Nsg117
g354
sg118
(lp357
sg120
g46
sg121
Nsg122
Nsg123
Nsbag2
(g3
g4
Ntp358
Rp359
(dp360
g8
g11
sg101
Nsg102
(dp361
sg104
Nsg26
g29
sg105
(lp362
I9
aI8
asg107
Nsg108
VTractate Derech Eretz 9:8
p363
sg110
(lp364
sg112
g62
sg113
Nsg114
(lp365
I9
aI8
asg116
Nsg117
g363
sg118
(lp366
sg120
g46
sg121
Nsg122
Nsg123
Nsbag2
(g3
g4
Ntp367
Rp368
(dp369
g8
g11
sg101
Nsg102
(dp370
sg104
Nsg26
g29
sg105
(lp371
I10
aI1
asg107
Nsg108
VTractate Derech Eretz 10:1
p372
sg110
(lp373
sg112
g62
sg113
Nsg114
(lp374
I10
aI1
asg116
Nsg117
g372
sg118
(lp375
sg120
g46
sg121
Nsg122
Nsg123
Nsbag2
(g3
g4
Ntp376
Rp377
(dp378
g8
g11
sg101
Nsg102
(dp379
sg104
Nsg26
g29
sg105
(lp380
I11
aI1
asg107
Nsg108
VTractate Derech Eretz 11:1
p381
sg110
(lp382
sg112
g62
sg113
Nsg114
(lp383
I11
aI1
asg116
Nsg117
g381
sg118
(lp384
sg120
g46
sg121
Nsg122
Nsg123
Nsbatp385
.