((lp0
I0
aI54
aI121
aI134
aI156
aI181
aI203
aI226
aI377
aI395
aI472
aI487
aI511
aI536
aI604
aI627
aI663
aI693
aI746
aI796
aI900
aI918
aI935
aI955
aI972
aI1053
aI1067
aI1090
aI1114
aI1130
aI1164
aI1174
aI1192
aI1208
aI1244
aI1313
aI1361
aI1392
aI1507
aI1600
aI1638
aI1672
aI1713
aI1745
aI1784
aI1818
aI1864
aI1905
aI1981
aI2024
aI2203
aI2253
aI2288
aI2318
aI2380
aI2392
aI2442
aI2455
aI2477
aI2505
aI2540
aI2551
aI2566
aI2578
aI2607
aI2686
aI2720
aI2743
aI2775
aI2794
aI2813
aI2899
aI2961
aI2985
aI3006
aI3011
aI3025
aI3035
aI3068
aI3133
aI3182
aI3258
aI3366
aI3514
aI3529
aI3553
aI3564
aI3578
aI3585
aI3598
aI3630
aI3697
aI3717
aI3735
aI3767
aI3821
aI3832
aI3853
aI3865
aI3910
aI3944
aI4092
aI4152
aI4222
aI4254
aI4292
aI4342
aI4405
aI4422
aI4449
aI4474
aI4504
aI4525
aI4546
aI4635
aI4675
aI4771
aI4789
aI4823
aI4893
aI4914
aI4923
aI4944
aI4959
aI4976
aI5055
aI5062
aI5156
aI5185
aI5280
aI5311
aI5331
aI5359
aI5436
aI5462
aI5479
aI5493
aI5510
aI5556
aI5602
aI5636
aI5736
aI5753
aI5775
aI5821
aI5886
aI5917
aI6093
aI6109
aI6159
aI6318
aI6342
aI6366
aI6391
aI6492
aI6521
aI6570
aI6606
aI6632
aI6673
aI6713
aI6743
aI6824
aI6893
aI6978
aI7013
aI7037
aI7057
aI7102
aI7205
aI7260
aI7287
aI7394
aI7428
aI7437
aI7482
aI7510
aI7632
aI7667
aI7716
aI7788
aI7864
aI7901
aI7954
aI8100
aI8181
aI8233
aI8381
aI8454
aI8497
aI8565
aI8582
aI8606
aI8648
aI8685
aI8702
aI8728
aI8788
aI8833
aI8889
aI9055
aI9075
aI9144
aI9250
aI9309
aI9371
aI9400
aI9444
aI9573
aI9625
aI9664
aI9771
aI9813
aI9837
aI9958
aI9975
aI10017
aI10053
aI10135
aI10146
aI10269
aI10383
aI10403
a(lp1
ccopy_reg
_reconstructor
p2
(csefaria.model.text
Ref
p3
c__builtin__
object
p4
Ntp5
Rp6
(dp7
S'index_node'
p8
g2
(csefaria.model.schema
JaggedArrayNode
p9
g4
Ntp10
Rp11
(dp12
S'_address'
p13
(lp14
VTractate Sofrim
p15
asS'_full_titles'
p16
(dp17
sVnodeType
p18
VJaggedArrayNode
p19
sS'parent'
p20
NsVaddressTypes
p21
(lp22
VInteger
p23
aVInteger
p24
asS'default'
p25
I00
sS'index'
p26
g2
(csefaria.model.text
Index
p27
g4
Ntp28
Rp29
(dp30
S'pkeys_orig_values'
p31
(dp32
S'title'
p33
VTractate Sofrim
p34
ssS'struct_objs'
p35
(dp36
sS'nodes'
p37
g11
sS'_id'
p38
g2
(cbson.objectid
ObjectId
p39
g4
Ntp40
Rp41
S'Xl\xb8I\x19\xab\x88f\xbc\xa4\x98\xf1'
p42
bsS'_title'
p43
g34
sS'categories'
p44
(lp45
VMasechtot Ketanot
p46
asS'schema'
p47
(dp48
g18
g19
sg21
g22
sVdepth
p49
I2
sVtitles
p50
(lp51
(dp52
Vlang
p53
Vhe
p54
sVtext
p55
V\u05de\u05e1\u05db\u05ea \u05e1\u05d5\u05e4\u05e8\u05d9\u05dd
p56
sVprimary
p57
I01
sa(dp58
Vlang
p59
Ven
p60
sVtext
p61
VTractate Sofrim
p62
sVprimary
p63
I01
sasVkey
p64
g15
sVsectionNames
p65
(lp66
VChapter
p67
aVHalakhah
p68
assbsS'_primary_title'
p69
(dp70
sS'title_group'
p71
g2
(csefaria.model.schema
TitleGroup
p72
g4
Ntp73
Rp74
(dp75
g69
(dp76
S'en'
p77
g62
ssS'titles'
p78
g51
sbsS'_addressTypes'
p79
(lp80
g2
(csefaria.model.schema
AddressInteger
p81
g4
Ntp82
Rp83
(dp84
S'length'
p85
NsS'order'
p86
I0
sbag2
(g81
g4
Ntp87
Rp88
(dp89
g85
Nsg86
I1
sbasS'sharedTitle'
p90
Nsg49
I2
sS'_full_title'
p91
(dp92
g77
g62
ssS'key'
p93
g15
sS'checkFirst'
p94
NsS'_regexes'
p95
(dp96
sS'_leaf_nodes'
p97
(lp98
sg65
g66
sS'children'
p99
(lp100
sbsS'_range_index'
p101
NsS'_context'
p102
(dp103
sS'_padded'
p104
Nsg26
g29
sS'sections'
p105
(lp106
I1
aI1
asS'_first_spanned_ref'
p107
NsS'tref'
p108
VTractate Sofrim 1:1
p109
sS'_spanned_refs'
p110
(lp111
sS'book'
p112
g62
sS'_range_depth'
p113
NsS'toSections'
p114
(lp115
I1
aI1
asS'_url'
p116
NsS'_normal'
p117
g109
sS'_ranged_refs'
p118
(lp119
sS'type'
p120
g46
sS'_prev'
p121
NsS'_he_normal'
p122
NsS'_next'
p123
Nsbag2
(g3
g4
Ntp124
Rp125
(dp126
g8
g11
sg101
Nsg102
(dp127
sg104
Nsg26
g29
sg105
(lp128
I1
aI2
asg107
Nsg108
VTractate Sofrim 1:2
p129
sg110
(lp130
sg112
g62
sg113
Nsg114
(lp131
I1
aI2
asg116
Nsg117
g129
sg118
(lp132
sg120
g46
sg121
Nsg122
Nsg123
Nsbag2
(g3
g4
Ntp133
Rp134
(dp135
g8
g11
sg101
Nsg102
(dp136
sg104
Nsg26
g29
sg105
(lp137
I1
aI3
asg107
Nsg108
VTractate Sofrim 1:3
p138
sg110
(lp139
sg112
g62
sg113
Nsg114
(lp140
I1
aI3
asg116
Nsg117
g138
sg118
(lp141
sg120
g46
sg121
Nsg122
Nsg123
Nsbag2
(g3
g4
Ntp142
Rp143
(dp144
g8
g11
sg101
Nsg102
(dp145
sg104
Nsg26
g29
sg105
(lp146
I1
aI4
asg107
Nsg108
VTractate Sofrim 1:4
p147
sg110
(lp148
sg112
g62
sg113
Nsg114
(lp149
I1
aI4
asg116
Nsg117
g147
sg118
(lp150
sg120
g46
sg121
Nsg122
Nsg123
Nsbag2
(g3
g4
Ntp151
Rp152
(dp153
g8
g11
sg101
Nsg102
(dp154
sg104
Nsg26
g29
sg105
(lp155
I1
aI5
asg107
Nsg108
VTractate Sofrim 1:5
p156
sg110
(lp157
sg112
g62
sg113
Nsg114
(lp158
I1
aI5
asg116
Nsg117
g156
sg118
(lp159
sg120
g46
sg121
Nsg122
Nsg123
Nsbag2
(g3
g4
Ntp160
Rp161
(dp162
g8
g11
sg101
Nsg102
(dp163
sg104
Nsg26
g29
sg105
(lp164
I1
aI6
asg107
Nsg108
VTractate Sofrim 1:6
p165
sg110
(lp166
sg112
g62
sg113
Nsg114
(lp167
I1
aI6
asg116
Nsg117
g165
sg118
(lp168
sg120
g46
sg121
Nsg122
Nsg123
Nsbag2
(g3
g4
Ntp169
Rp170
(dp171
g8
g11
sg101
Nsg102
(dp172
sg104
Nsg26
g29
sg105
(lp173
I1
aI7
asg107
Nsg108
VTractate Sofrim 1:7
p174
sg110
(lp175
sg112
g62
sg113
Nsg114
(lp176
I1
aI7
asg116
Nsg117
g174
sg118
(lp177
sg120
g46
sg121
Nsg122
Nsg123
Nsbag2
(g3
g4
Ntp178
Rp179
(dp180
g8
g11
sg101
Nsg102
(dp181
sg104
Nsg26
g29
sg105
(lp182
I1
aI8
asg107
Nsg108
VTractate Sofrim 1:8
p183
sg110
(lp184
sg112
g62
sg113
Nsg114
(lp185
I1
aI8
asg116
Nsg117
g183
sg118
(lp186
sg120
g46
sg121
Nsg122
Nsg123
Nsbag2
(g3
g4
Ntp187
Rp188
(dp189
g8
g11
sg101
Nsg102
(dp190
sg104
Nsg26
g29
sg105
(lp191
I1
aI9
asg107
Nsg108
VTractate Sofrim 1:9
p192
sg110
(lp193
sg112
g62
sg113
Nsg114
(lp194
I1
aI9
asg116
Nsg117
g192
sg118
(lp195
sg120
g46
sg121
Nsg122
Nsg123
Nsbag2
(g3
g4
Ntp196
Rp197
(dp198
g8
g11
sg101
Nsg102
(dp199
sg104
Nsg26
g29
sg105
(lp200
I1
aI10
asg107
Nsg108
VTractate Sofrim 1:10
p201
sg110
(lp202
sg112
g62
sg113
Nsg114
(lp203
I1
aI10
asg116
Nsg117
g201
sg118
(lp204
sg120
g46
sg121
Nsg122
Nsg123
Nsbag2
(g3
g4
Ntp205
Rp206
(dp207
g8
g11
sg101
Nsg102
(dp208
sg104
Nsg26
g29
sg105
(lp209
I1
aI11
asg107
Nsg108
VTractate Sofrim 1:11
p210
sg110
(lp211
sg112
g62
sg113
Nsg114
(lp212
I1
aI11
asg116
Nsg117
g210
sg118
(lp213
sg120
g46
sg121
Nsg122
Nsg123
Nsbag2
(g3
g4
Ntp214
Rp215
(dp216
g8
g11
sg101
Nsg102
(dp217
sg104
Nsg26
g29
sg105
(lp218
I1
aI12
asg107
Nsg108
VTractate Sofrim 1:12
p219
sg110
(lp220
sg112
g62
sg113
Nsg114
(lp221
I1
aI12
asg116
Nsg117
g219
sg118
(lp222
sg120
g46
sg121
Nsg122
Nsg123
Nsbag2
(g3
g4
Ntp223
Rp224
(dp225
g8
g11
sg101
Nsg102
(dp226
sg104
Nsg26
g29
sg105
(lp227
I1
aI13
asg107
Nsg108
VTractate Sofrim 1:13
p228
sg110
(lp229
sg112
g62
sg113
Nsg114
(lp230
I1
aI13
asg116
Nsg117
g228
sg118
(lp231
sg120
g46
sg121
Nsg122
Nsg123
Nsbag2
(g3
g4
Ntp232
Rp233
(dp234
g8
g11
sg101
Nsg102
(dp235
sg104
Nsg26
g29
sg105
(lp236
I1
aI14
asg107
Nsg108
VTractate Sofrim 1:14
p237
sg110
(lp238
sg112
g62
sg113
Nsg114
(lp239
I1
aI14
asg116
Nsg117
g237
sg118
(lp240
sg120
g46
sg121
Nsg122
Nsg123
Nsbag2
(g3
g4
Ntp241
Rp242
(dp243
g8
g11
sg101
Nsg102
(dp244
sg104
Nsg26
g29
sg105
(lp245
I2
aI1
asg107
Nsg108
VTractate Sofrim 2:1
p246
sg110
(lp247
sg112
g62
sg113
Nsg114
(lp248
I2
aI1
asg116
Nsg117
g246
sg118
(lp249
sg120
g46
sg121
Nsg122
Nsg123
Nsbag2
(g3
g4
Ntp250
Rp251
(dp252
g8
g11
sg101
Nsg102
(dp253
sg104
Nsg26
g29
sg105
(lp254
I2
aI2
asg107
Nsg108
VTractate Sofrim 2:2
p255
sg110
(lp256
sg112
g62
sg113
Nsg114
(lp257
I2
aI2
asg116
Nsg117
g255
sg118
(lp258
sg120
g46
sg121
Nsg122
Nsg123
Nsbag2
(g3
g4
Ntp259
Rp260
(dp261
g8
g11
sg101
Nsg102
(dp262
sg104
Nsg26
g29
sg105
(lp263
I2
aI3
asg107
Nsg108
VTractate Sofrim 2:3
p264
sg110
(lp265
sg112
g62
sg113
Nsg114
(lp266
I2
aI3
asg116
Nsg117
g264
sg118
(lp267
sg120
g46
sg121
Nsg122
Nsg123
Nsbag2
(g3
g4
Ntp268
Rp269
(dp270
g8
g11
sg101
Nsg102
(dp271
sg104
Nsg26
g29
sg105
(lp272
I2
aI4
asg107
Nsg108
VTractate Sofrim 2:4
p273
sg110
(lp274
sg112
g62
sg113
Nsg114
(lp275
I2
aI4
asg116
Nsg117
g273
sg118
(lp276
sg120
g46
sg121
Nsg122
Nsg123
Nsbag2
(g3
g4
Ntp277
Rp278
(dp279
g8
g11
sg101
Nsg102
(dp280
sg104
Nsg26
g29
sg105
(lp281
I2
aI5
asg107
Nsg108
VTractate Sofrim 2:5
p282
sg110
(lp283
sg112
g62
sg113
Nsg114
(lp284
I2
aI5
asg116
Nsg117
g282
sg118
(lp285
sg120
g46
sg121
Nsg122
Nsg123
Nsbag2
(g3
g4
Ntp286
Rp287
(dp288
g8
g11
sg101
Nsg102
(dp289
sg104
Nsg26
g29
sg105
(lp290
I2
aI6
asg107
Nsg108
VTractate Sofrim 2:6
p291
sg110
(lp292
sg112
g62
sg113
Nsg114
(lp293
I2
aI6
asg116
Nsg117
g291
sg118
(lp294
sg120
g46
sg121
Nsg122
Nsg123
Nsbag2
(g3
g4
Ntp295
Rp296
(dp297
g8
g11
sg101
Nsg102
(dp298
sg104
Nsg26
g29
sg105
(lp299
I2
aI7
asg107
Nsg108
VTractate Sofrim 2:7
p300
sg110
(lp301
sg112
g62
sg113
Nsg114
(lp302
I2
aI7
asg116
Nsg117
g300
sg118
(lp303
sg120
g46
sg121
Nsg122
Nsg123
Nsbag2
(g3
g4
Ntp304
Rp305
(dp306
g8
g11
sg101
Nsg102
(dp307
sg104
Nsg26
g29
sg105
(lp308
I2
aI8
asg107
Nsg108
VTractate Sofrim 2:8
p309
sg110
(lp310
sg112
g62
sg113
Nsg114
(lp311
I2
aI8
asg116
Nsg117
g309
sg118
(lp312
sg120
g46
sg121
Nsg122
Nsg123
Nsbag2
(g3
g4
Ntp313
Rp314
(dp315
g8
g11
sg101
Nsg102
(dp316
sg104
Nsg26
g29
sg105
(lp317
I2
aI9
asg107
Nsg108
VTractate Sofrim 2:9
p318
sg110
(lp319
sg112
g62
sg113
Nsg114
(lp320
I2
aI9
asg116
Nsg117
g318
sg118
(lp321
sg120
g46
sg121
Nsg122
Nsg123
Nsbag2
(g3
g4
Ntp322
Rp323
(dp324
g8
g11
sg101
Nsg102
(dp325
sg104
Nsg26
g29
sg105
(lp326
I2
aI10
asg107
Nsg108
VTractate Sofrim 2:10
p327
sg110
(lp328
sg112
g62
sg113
Nsg114
(lp329
I2
aI10
asg116
Nsg117
g327
sg118
(lp330
sg120
g46
sg121
Nsg122
Nsg123
Nsbag2
(g3
g4
Ntp331
Rp332
(dp333
g8
g11
sg101
Nsg102
(dp334
sg104
Nsg26
g29
sg105
(lp335
I2
aI11
asg107
Nsg108
VTractate Sofrim 2:11
p336
sg110
(lp337
sg112
g62
sg113
Nsg114
(lp338
I2
aI11
asg116
Nsg117
g336
sg118
(lp339
sg120
g46
sg121
Nsg122
Nsg123
Nsbag2
(g3
g4
Ntp340
Rp341
(dp342
g8
g11
sg101
Nsg102
(dp343
sg104
Nsg26
g29
sg105
(lp344
I3
aI1
asg107
Nsg108
VTractate Sofrim 3:1
p345
sg110
(lp346
sg112
g62
sg113
Nsg114
(lp347
I3
aI1
asg116
Nsg117
g345
sg118
(lp348
sg120
g46
sg121
Nsg122
Nsg123
Nsbag2
(g3
g4
Ntp349
Rp350
(dp351
g8
g11
sg101
Nsg102
(dp352
sg104
Nsg26
g29
sg105
(lp353
I3
aI2
asg107
Nsg108
VTractate Sofrim 3:2
p354
sg110
(lp355
sg112
g62
sg113
Nsg114
(lp356
I3
aI2
asg116
Nsg117
g354
sg118
(lp357
sg120
g46
sg121
Nsg122
Nsg123
Nsbag2
(g3
g4
Ntp358
Rp359
(dp360
g8
g11
sg101
Nsg102
(dp361
sg104
Nsg26
g29
sg105
(lp362
I3
aI3
asg107
Nsg108
VTractate Sofrim 3:3
p363
sg110
(lp364
sg112
g62
sg113
Nsg114
(lp365
I3
aI3
asg116
Nsg117
g363
sg118
(lp366
sg120
g46
sg121
Nsg122
Nsg123
Nsbag2
(g3
g4
Ntp367
Rp368
(dp369
g8
g11
sg101
Nsg102
(dp370
sg104
Nsg26
g29
sg105
(lp371
I3
aI4
asg107
Nsg108
VTractate Sofrim 3:4
p372
sg110
(lp373
sg112
g62
sg113
Nsg114
(lp374
I3
aI4
asg116
Nsg117
g372
sg118
(lp375
sg120
g46
sg121
Nsg122
Nsg123
Nsbag2
(g3
g4
Ntp376
Rp377
(dp378
g8
g11
sg101
Nsg102
(dp379
sg104
Nsg26
g29
sg105
(lp380
I3
aI5
asg107
Nsg108
VTractate Sofrim 3:5
p381
sg110
(lp382
sg112
g62
sg113
Nsg114
(lp383
I3
aI5
asg116
Nsg117
g381
sg118
(lp384
sg120
g46
sg121
Nsg122
Nsg123
Nsbag2
(g3
g4
Ntp385
Rp386
(dp387
g8
g11
sg101
Nsg102
(dp388
sg104
Nsg26
g29
sg105
(lp389
I3
aI6
asg107
Nsg108
VTractate Sofrim 3:6
p390
sg110
(lp391
sg112
g62
sg113
Nsg114
(lp392
I3
aI6
asg116
Nsg117
g390
sg118
(lp393
sg120
g46
sg121
Nsg122
Nsg123
Nsbag2
(g3
g4
Ntp394
Rp395
(dp396
g8
g11
sg101
Nsg102
(dp397
sg104
Nsg26
g29
sg105
(lp398
I3
aI7
asg107
Nsg108
VTractate Sofrim 3:7
p399
sg110
(lp400
sg112
g62
sg113
Nsg114
(lp401
I3
aI7
asg116
Nsg117
g399
sg118
(lp402
sg120
g46
sg121
Nsg122
Nsg123
Nsbag2
(g3
g4
Ntp403
Rp404
(dp405
g8
g11
sg101
Nsg102
(dp406
sg104
Nsg26
g29
sg105
(lp407
I3
aI8
asg107
Nsg108
VTractate Sofrim 3:8
p408
sg110
(lp409
sg112
g62
sg113
Nsg114
(lp410
I3
aI8
asg116
Nsg117
g408
sg118
(lp411
sg120
g46
sg121
Nsg122
Nsg123
Nsbag2
(g3
g4
Ntp412
Rp413
(dp414
g8
g11
sg101
Nsg102
(dp415
sg104
Nsg26
g29
sg105
(lp416
I3
aI9
asg107
Nsg108
VTractate Sofrim 3:9
p417
sg110
(lp418
sg112
g62
sg113
Nsg114
(lp419
I3
aI9
asg116
Nsg117
g417
sg118
(lp420
sg120
g46
sg121
Nsg122
Nsg123
Nsbag2
(g3
g4
Ntp421
Rp422
(dp423
g8
g11
sg101
Nsg102
(dp424
sg104
Nsg26
g29
sg105
(lp425
I3
aI10
asg107
Nsg108
VTractate Sofrim 3:10
p426
sg110
(lp427
sg112
g62
sg113
Nsg114
(lp428
I3
aI10
asg116
Nsg117
g426
sg118
(lp429
sg120
g46
sg121
Nsg122
Nsg123
Nsbag2
(g3
g4
Ntp430
Rp431
(dp432
g8
g11
sg101
Nsg102
(dp433
sg104
Nsg26
g29
sg105
(lp434
I3
aI11
asg107
Nsg108
VTractate Sofrim 3:11
p435
sg110
(lp436
sg112
g62
sg113
Nsg114
(lp437
I3
aI11
asg116
Nsg117
g435
sg118
(lp438
sg120
g46
sg121
Nsg122
Nsg123
Nsbag2
(g3
g4
Ntp439
Rp440
(dp441
g8
g11
sg101
Nsg102
(dp442
sg104
Nsg26
g29
sg105
(lp443
I3
aI12
asg107
Nsg108
VTractate Sofrim 3:12
p444
sg110
(lp445
sg112
g62
sg113
Nsg114
(lp446
I3
aI12
asg116
Nsg117
g444
sg118
(lp447
sg120
g46
sg121
Nsg122
Nsg123
Nsbag2
(g3
g4
Ntp448
Rp449
(dp450
g8
g11
sg101
Nsg102
(dp451
sg104
Nsg26
g29
sg105
(lp452
I3
aI13
asg107
Nsg108
VTractate Sofrim 3:13
p453
sg110
(lp454
sg112
g62
sg113
Nsg114
(lp455
I3
aI13
asg116
Nsg117
g453
sg118
(lp456
sg120
g46
sg121
Nsg122
Nsg123
Nsbag2
(g3
g4
Ntp457
Rp458
(dp459
g8
g11
sg101
Nsg102
(dp460
sg104
Nsg26
g29
sg105
(lp461
I3
aI14
asg107
Nsg108
VTractate Sofrim 3:14
p462
sg110
(lp463
sg112
g62
sg113
Nsg114
(lp464
I3
aI14
asg116
Nsg117
g462
sg118
(lp465
sg120
g46
sg121
Nsg122
Nsg123
Nsbag2
(g3
g4
Ntp466
Rp467
(dp468
g8
g11
sg101
Nsg102
(dp469
sg104
Nsg26
g29
sg105
(lp470
I3
aI15
asg107
Nsg108
VTractate Sofrim 3:15
p471
sg110
(lp472
sg112
g62
sg113
Nsg114
(lp473
I3
aI15
asg116
Nsg117
g471
sg118
(lp474
sg120
g46
sg121
Nsg122
Nsg123
Nsbag2
(g3
g4
Ntp475
Rp476
(dp477
g8
g11
sg101
Nsg102
(dp478
sg104
Nsg26
g29
sg105
(lp479
I3
aI16
asg107
Nsg108
VTractate Sofrim 3:16
p480
sg110
(lp481
sg112
g62
sg113
Nsg114
(lp482
I3
aI16
asg116
Nsg117
g480
sg118
(lp483
sg120
g46
sg121
Nsg122
Nsg123
Nsbag2
(g3
g4
Ntp484
Rp485
(dp486
g8
g11
sg101
Nsg102
(dp487
sg104
Nsg26
g29
sg105
(lp488
I4
aI1
asg107
Nsg108
VTractate Sofrim 4:1
p489
sg110
(lp490
sg112
g62
sg113
Nsg114
(lp491
I4
aI1
asg116
Nsg117
g489
sg118
(lp492
sg120
g46
sg121
Nsg122
Nsg123
Nsbag2
(g3
g4
Ntp493
Rp494
(dp495
g8
g11
sg101
Nsg102
(dp496
sg104
Nsg26
g29
sg105
(lp497
I4
aI2
asg107
Nsg108
VTractate Sofrim 4:2
p498
sg110
(lp499
sg112
g62
sg113
Nsg114
(lp500
I4
aI2
asg116
Nsg117
g498
sg118
(lp501
sg120
g46
sg121
Nsg122
Nsg123
Nsbag2
(g3
g4
Ntp502
Rp503
(dp504
g8
g11
sg101
Nsg102
(dp505
sg104
Nsg26
g29
sg105
(lp506
I4
aI3
asg107
Nsg108
VTractate Sofrim 4:3
p507
sg110
(lp508
sg112
g62
sg113
Nsg114
(lp509
I4
aI3
asg116
Nsg117
g507
sg118
(lp510
sg120
g46
sg121
Nsg122
Nsg123
Nsbag2
(g3
g4
Ntp511
Rp512
(dp513
g8
g11
sg101
Nsg102
(dp514
sg104
Nsg26
g29
sg105
(lp515
I4
aI4
asg107
Nsg108
VTractate Sofrim 4:4
p516
sg110
(lp517
sg112
g62
sg113
Nsg114
(lp518
I4
aI4
asg116
Nsg117
g516
sg118
(lp519
sg120
g46
sg121
Nsg122
Nsg123
Nsbag2
(g3
g4
Ntp520
Rp521
(dp522
g8
g11
sg101
Nsg102
(dp523
sg104
Nsg26
g29
sg105
(lp524
I4
aI5
asg107
Nsg108
VTractate Sofrim 4:5
p525
sg110
(lp526
sg112
g62
sg113
Nsg114
(lp527
I4
aI5
asg116
Nsg117
g525
sg118
(lp528
sg120
g46
sg121
Nsg122
Nsg123
Nsbag2
(g3
g4
Ntp529
Rp530
(dp531
g8
g11
sg101
Nsg102
(dp532
sg104
Nsg26
g29
sg105
(lp533
I4
aI6
asg107
Nsg108
VTractate Sofrim 4:6
p534
sg110
(lp535
sg112
g62
sg113
Nsg114
(lp536
I4
aI6
asg116
Nsg117
g534
sg118
(lp537
sg120
g46
sg121
Nsg122
Nsg123
Nsbag2
(g3
g4
Ntp538
Rp539
(dp540
g8
g11
sg101
Nsg102
(dp541
sg104
Nsg26
g29
sg105
(lp542
I4
aI7
asg107
Nsg108
VTractate Sofrim 4:7
p543
sg110
(lp544
sg112
g62
sg113
Nsg114
(lp545
I4
aI7
asg116
Nsg117
g543
sg118
(lp546
sg120
g46
sg121
Nsg122
Nsg123
Nsbag2
(g3
g4
Ntp547
Rp548
(dp549
g8
g11
sg101
Nsg102
(dp550
sg104
Nsg26
g29
sg105
(lp551
I4
aI8
asg107
Nsg108
VTractate Sofrim 4:8
p552
sg110
(lp553
sg112
g62
sg113
Nsg114
(lp554
I4
aI8
asg116
Nsg117
g552
sg118
(lp555
sg120
g46
sg121
Nsg122
Nsg123
Nsbag2
(g3
g4
Ntp556
Rp557
(dp558
g8
g11
sg101
Nsg102
(dp559
sg104
Nsg26
g29
sg105
(lp560
I4
aI9
asg107
Nsg108
VTractate Sofrim 4:9
p561
sg110
(lp562
sg112
g62
sg113
Nsg114
(lp563
I4
aI9
asg116
Nsg117
g561
sg118
(lp564
sg120
g46
sg121
Nsg122
Nsg123
Nsbag2
(g3
g4
Ntp565
Rp566
(dp567
g8
g11
sg101
Nsg102
(dp568
sg104
Nsg26
g29
sg105
(lp569
I5
aI1
asg107
Nsg108
VTractate Sofrim 5:1
p570
sg110
(lp571
sg112
g62
sg113
Nsg114
(lp572
I5
aI1
asg116
Nsg117
g570
sg118
(lp573
sg120
g46
sg121
Nsg122
Nsg123
Nsbag2
(g3
g4
Ntp574
Rp575
(dp576
g8
g11
sg101
Nsg102
(dp577
sg104
Nsg26
g29
sg105
(lp578
I5
aI2
asg107
Nsg108
VTractate Sofrim 5:2
p579
sg110
(lp580
sg112
g62
sg113
Nsg114
(lp581
I5
aI2
asg116
Nsg117
g579
sg118
(lp582
sg120
g46
sg121
Nsg122
Nsg123
Nsbag2
(g3
g4
Ntp583
Rp584
(dp585
g8
g11
sg101
Nsg102
(dp586
sg104
Nsg26
g29
sg105
(lp587
I5
aI3
asg107
Nsg108
VTractate Sofrim 5:3
p588
sg110
(lp589
sg112
g62
sg113
Nsg114
(lp590
I5
aI3
asg116
Nsg117
g588
sg118
(lp591
sg120
g46
sg121
Nsg122
Nsg123
Nsbag2
(g3
g4
Ntp592
Rp593
(dp594
g8
g11
sg101
Nsg102
(dp595
sg104
Nsg26
g29
sg105
(lp596
I5
aI4
asg107
Nsg108
VTractate Sofrim 5:4
p597
sg110
(lp598
sg112
g62
sg113
Nsg114
(lp599
I5
aI4
asg116
Nsg117
g597
sg118
(lp600
sg120
g46
sg121
Nsg122
Nsg123
Nsbag2
(g3
g4
Ntp601
Rp602
(dp603
g8
g11
sg101
Nsg102
(dp604
sg104
Nsg26
g29
sg105
(lp605
I5
aI5
asg107
Nsg108
VTractate Sofrim 5:5
p606
sg110
(lp607
sg112
g62
sg113
Nsg114
(lp608
I5
aI5
asg116
Nsg117
g606
sg118
(lp609
sg120
g46
sg121
Nsg122
Nsg123
Nsbag2
(g3
g4
Ntp610
Rp611
(dp612
g8
g11
sg101
Nsg102
(dp613
sg104
Nsg26
g29
sg105
(lp614
I5
aI6
asg107
Nsg108
VTractate Sofrim 5:6
p615
sg110
(lp616
sg112
g62
sg113
Nsg114
(lp617
I5
aI6
asg116
Nsg117
g615
sg118
(lp618
sg120
g46
sg121
Nsg122
Nsg123
Nsbag2
(g3
g4
Ntp619
Rp620
(dp621
g8
g11
sg101
Nsg102
(dp622
sg104
Nsg26
g29
sg105
(lp623
I5
aI7
asg107
Nsg108
VTractate Sofrim 5:7
p624
sg110
(lp625
sg112
g62
sg113
Nsg114
(lp626
I5
aI7
asg116
Nsg117
g624
sg118
(lp627
sg120
g46
sg121
Nsg122
Nsg123
Nsbag2
(g3
g4
Ntp628
Rp629
(dp630
g8
g11
sg101
Nsg102
(dp631
sg104
Nsg26
g29
sg105
(lp632
I5
aI8
asg107
Nsg108
VTractate Sofrim 5:8
p633
sg110
(lp634
sg112
g62
sg113
Nsg114
(lp635
I5
aI8
asg116
Nsg117
g633
sg118
(lp636
sg120
g46
sg121
Nsg122
Nsg123
Nsbag2
(g3
g4
Ntp637
Rp638
(dp639
g8
g11
sg101
Nsg102
(dp640
sg104
Nsg26
g29
sg105
(lp641
I5
aI9
asg107
Nsg108
VTractate Sofrim 5:9
p642
sg110
(lp643
sg112
g62
sg113
Nsg114
(lp644
I5
aI9
asg116
Nsg117
g642
sg118
(lp645
sg120
g46
sg121
Nsg122
Nsg123
Nsbag2
(g3
g4
Ntp646
Rp647
(dp648
g8
g11
sg101
Nsg102
(dp649
sg104
Nsg26
g29
sg105
(lp650
I5
aI10
asg107
Nsg108
VTractate Sofrim 5:10
p651
sg110
(lp652
sg112
g62
sg113
Nsg114
(lp653
I5
aI10
asg116
Nsg117
g651
sg118
(lp654
sg120
g46
sg121
Nsg122
Nsg123
Nsbag2
(g3
g4
Ntp655
Rp656
(dp657
g8
g11
sg101
Nsg102
(dp658
sg104
Nsg26
g29
sg105
(lp659
I5
aI11
asg107
Nsg108
VTractate Sofrim 5:11
p660
sg110
(lp661
sg112
g62
sg113
Nsg114
(lp662
I5
aI11
asg116
Nsg117
g660
sg118
(lp663
sg120
g46
sg121
Nsg122
Nsg123
Nsbag2
(g3
g4
Ntp664
Rp665
(dp666
g8
g11
sg101
Nsg102
(dp667
sg104
Nsg26
g29
sg105
(lp668
I5
aI12
asg107
Nsg108
VTractate Sofrim 5:12
p669
sg110
(lp670
sg112
g62
sg113
Nsg114
(lp671
I5
aI12
asg116
Nsg117
g669
sg118
(lp672
sg120
g46
sg121
Nsg122
Nsg123
Nsbag2
(g3
g4
Ntp673
Rp674
(dp675
g8
g11
sg101
Nsg102
(dp676
sg104
Nsg26
g29
sg105
(lp677
I5
aI13
asg107
Nsg108
VTractate Sofrim 5:13
p678
sg110
(lp679
sg112
g62
sg113
Nsg114
(lp680
I5
aI13
asg116
Nsg117
g678
sg118
(lp681
sg120
g46
sg121
Nsg122
Nsg123
Nsbag2
(g3
g4
Ntp682
Rp683
(dp684
g8
g11
sg101
Nsg102
(dp685
sg104
Nsg26
g29
sg105
(lp686
I5
aI14
asg107
Nsg108
VTractate Sofrim 5:14
p687
sg110
(lp688
sg112
g62
sg113
Nsg114
(lp689
I5
aI14
asg116
Nsg117
g687
sg118
(lp690
sg120
g46
sg121
Nsg122
Nsg123
Nsbag2
(g3
g4
Ntp691
Rp692
(dp693
g8
g11
sg101
Nsg102
(dp694
sg104
Nsg26
g29
sg105
(lp695
I5
aI15
asg107
Nsg108
VTractate Sofrim 5:15
p696
sg110
(lp697
sg112
g62
sg113
Nsg114
(lp698
I5
aI15
asg116
Nsg117
g696
sg118
(lp699
sg120
g46
sg121
Nsg122
Nsg123
Nsbag2
(g3
g4
Ntp700
Rp701
(dp702
g8
g11
sg101
Nsg102
(dp703
sg104
Nsg26
g29
sg105
(lp704
I5
aI16
asg107
Nsg108
VTractate Sofrim 5:16
p705
sg110
(lp706
sg112
g62
sg113
Nsg114
(lp707
I5
aI16
asg116
Nsg117
g705
sg118
(lp708
sg120
g46
sg121
Nsg122
Nsg123
Nsbag2
(g3
g4
Ntp709
Rp710
(dp711
g8
g11
sg101
Nsg102
(dp712
sg104
Nsg26
g29
sg105
(lp713
I5
aI17
asg107
Nsg108
VTractate Sofrim 5:17
p714
sg110
(lp715
sg112
g62
sg113
Nsg114
(lp716
I5
aI17
asg116
Nsg117
g714
sg118
(lp717
sg120
g46
sg121
Nsg122
Nsg123
Nsbag2
(g3
g4
Ntp718
Rp719
(dp720
g8
g11
sg101
Nsg102
(dp721
sg104
Nsg26
g29
sg105
(lp722
I5
aI18
asg107
Nsg108
VTractate Sofrim 5:18
p723
sg110
(lp724
sg112
g62
sg113
Nsg114
(lp725
I5
aI18
asg116
Nsg117
g723
sg118
(lp726
sg120
g46
sg121
Nsg122
Nsg123
Nsbag2
(g3
g4
Ntp727
Rp728
(dp729
g8
g11
sg101
Nsg102
(dp730
sg104
Nsg26
g29
sg105
(lp731
I6
aI1
asg107
Nsg108
VTractate Sofrim 6:1
p732
sg110
(lp733
sg112
g62
sg113
Nsg114
(lp734
I6
aI1
asg116
Nsg117
g732
sg118
(lp735
sg120
g46
sg121
Nsg122
Nsg123
Nsbag2
(g3
g4
Ntp736
Rp737
(dp738
g8
g11
sg101
Nsg102
(dp739
sg104
Nsg26
g29
sg105
(lp740
I6
aI2
asg107
Nsg108
VTractate Sofrim 6:2
p741
sg110
(lp742
sg112
g62
sg113
Nsg114
(lp743
I6
aI2
asg116
Nsg117
g741
sg118
(lp744
sg120
g46
sg121
Nsg122
Nsg123
Nsbag2
(g3
g4
Ntp745
Rp746
(dp747
g8
g11
sg101
Nsg102
(dp748
sg104
Nsg26
g29
sg105
(lp749
I6
aI3
asg107
Nsg108
VTractate Sofrim 6:3
p750
sg110
(lp751
sg112
g62
sg113
Nsg114
(lp752
I6
aI3
asg116
Nsg117
g750
sg118
(lp753
sg120
g46
sg121
Nsg122
Nsg123
Nsbag2
(g3
g4
Ntp754
Rp755
(dp756
g8
g11
sg101
Nsg102
(dp757
sg104
Nsg26
g29
sg105
(lp758
I6
aI4
asg107
Nsg108
VTractate Sofrim 6:4
p759
sg110
(lp760
sg112
g62
sg113
Nsg114
(lp761
I6
aI4
asg116
Nsg117
g759
sg118
(lp762
sg120
g46
sg121
Nsg122
Nsg123
Nsbag2
(g3
g4
Ntp763
Rp764
(dp765
g8
g11
sg101
Nsg102
(dp766
sg104
Nsg26
g29
sg105
(lp767
I6
aI5
asg107
Nsg108
VTractate Sofrim 6:5
p768
sg110
(lp769
sg112
g62
sg113
Nsg114
(lp770
I6
aI5
asg116
Nsg117
g768
sg118
(lp771
sg120
g46
sg121
Nsg122
Nsg123
Nsbag2
(g3
g4
Ntp772
Rp773
(dp774
g8
g11
sg101
Nsg102
(dp775
sg104
Nsg26
g29
sg105
(lp776
I6
aI6
asg107
Nsg108
VTractate Sofrim 6:6
p777
sg110
(lp778
sg112
g62
sg113
Nsg114
(lp779
I6
aI6
asg116
Nsg117
g777
sg118
(lp780
sg120
g46
sg121
Nsg122
Nsg123
Nsbag2
(g3
g4
Ntp781
Rp782
(dp783
g8
g11
sg101
Nsg102
(dp784
sg104
Nsg26
g29
sg105
(lp785
I6
aI7
asg107
Nsg108
VTractate Sofrim 6:7
p786
sg110
(lp787
sg112
g62
sg113
Nsg114
(lp788
I6
aI7
asg116
Nsg117
g786
sg118
(lp789
sg120
g46
sg121
Nsg122
Nsg123
Nsbag2
(g3
g4
Ntp790
Rp791
(dp792
g8
g11
sg101
Nsg102
(dp793
sg104
Nsg26
g29
sg105
(lp794
I6
aI8
asg107
Nsg108
VTractate Sofrim 6:8
p795
sg110
(lp796
sg112
g62
sg113
Nsg114
(lp797
I6
aI8
asg116
Nsg117
g795
sg118
(lp798
sg120
g46
sg121
Nsg122
Nsg123
Nsbag2
(g3
g4
Ntp799
Rp800
(dp801
g8
g11
sg101
Nsg102
(dp802
sg104
Nsg26
g29
sg105
(lp803
I6
aI9
asg107
Nsg108
VTractate Sofrim 6:9
p804
sg110
(lp805
sg112
g62
sg113
Nsg114
(lp806
I6
aI9
asg116
Nsg117
g804
sg118
(lp807
sg120
g46
sg121
Nsg122
Nsg123
Nsbag2
(g3
g4
Ntp808
Rp809
(dp810
g8
g11
sg101
Nsg102
(dp811
sg104
Nsg26
g29
sg105
(lp812
I7
aI1
asg107
Nsg108
VTractate Sofrim 7:1
p813
sg110
(lp814
sg112
g62
sg113
Nsg114
(lp815
I7
aI1
asg116
Nsg117
g813
sg118
(lp816
sg120
g46
sg121
Nsg122
Nsg123
Nsbag2
(g3
g4
Ntp817
Rp818
(dp819
g8
g11
sg101
Nsg102
(dp820
sg104
Nsg26
g29
sg105
(lp821
I7
aI2
asg107
Nsg108
VTractate Sofrim 7:2
p822
sg110
(lp823
sg112
g62
sg113
Nsg114
(lp824
I7
aI2
asg116
Nsg117
g822
sg118
(lp825
sg120
g46
sg121
Nsg122
Nsg123
Nsbag2
(g3
g4
Ntp826
Rp827
(dp828
g8
g11
sg101
Nsg102
(dp829
sg104
Nsg26
g29
sg105
(lp830
I7
aI3
asg107
Nsg108
VTractate Sofrim 7:3
p831
sg110
(lp832
sg112
g62
sg113
Nsg114
(lp833
I7
aI3
asg116
Nsg117
g831
sg118
(lp834
sg120
g46
sg121
Nsg122
Nsg123
Nsbag2
(g3
g4
Ntp835
Rp836
(dp837
g8
g11
sg101
Nsg102
(dp838
sg104
Nsg26
g29
sg105
(lp839
I7
aI4
asg107
Nsg108
VTractate Sofrim 7:4
p840
sg110
(lp841
sg112
g62
sg113
Nsg114
(lp842
I7
aI4
asg116
Nsg117
g840
sg118
(lp843
sg120
g46
sg121
Nsg122
Nsg123
Nsbag2
(g3
g4
Ntp844
Rp845
(dp846
g8
g11
sg101
Nsg102
(dp847
sg104
Nsg26
g29
sg105
(lp848
I8
aI1
asg107
Nsg108
VTractate Sofrim 8:1
p849
sg110
(lp850
sg112
g62
sg113
Nsg114
(lp851
I8
aI1
asg116
Nsg117
g849
sg118
(lp852
sg120
g46
sg121
Nsg122
Nsg123
Nsbag2
(g3
g4
Ntp853
Rp854
(dp855
g8
g11
sg101
Nsg102
(dp856
sg104
Nsg26
g29
sg105
(lp857
I8
aI2
asg107
Nsg108
VTractate Sofrim 8:2
p858
sg110
(lp859
sg112
g62
sg113
Nsg114
(lp860
I8
aI2
asg116
Nsg117
g858
sg118
(lp861
sg120
g46
sg121
Nsg122
Nsg123
Nsbag2
(g3
g4
Ntp862
Rp863
(dp864
g8
g11
sg101
Nsg102
(dp865
sg104
Nsg26
g29
sg105
(lp866
I9
aI1
asg107
Nsg108
VTractate Sofrim 9:1
p867
sg110
(lp868
sg112
g62
sg113
Nsg114
(lp869
I9
aI1
asg116
Nsg117
g867
sg118
(lp870
sg120
g46
sg121
Nsg122
Nsg123
Nsbag2
(g3
g4
Ntp871
Rp872
(dp873
g8
g11
sg101
Nsg102
(dp874
sg104
Nsg26
g29
sg105
(lp875
I9
aI2
asg107
Nsg108
VTractate Sofrim 9:2
p876
sg110
(lp877
sg112
g62
sg113
Nsg114
(lp878
I9
aI2
asg116
Nsg117
g876
sg118
(lp879
sg120
g46
sg121
Nsg122
Nsg123
Nsbag2
(g3
g4
Ntp880
Rp881
(dp882
g8
g11
sg101
Nsg102
(dp883
sg104
Nsg26
g29
sg105
(lp884
I9
aI3
asg107
Nsg108
VTractate Sofrim 9:3
p885
sg110
(lp886
sg112
g62
sg113
Nsg114
(lp887
I9
aI3
asg116
Nsg117
g885
sg118
(lp888
sg120
g46
sg121
Nsg122
Nsg123
Nsbag2
(g3
g4
Ntp889
Rp890
(dp891
g8
g11
sg101
Nsg102
(dp892
sg104
Nsg26
g29
sg105
(lp893
I9
aI4
asg107
Nsg108
VTractate Sofrim 9:4
p894
sg110
(lp895
sg112
g62
sg113
Nsg114
(lp896
I9
aI4
asg116
Nsg117
g894
sg118
(lp897
sg120
g46
sg121
Nsg122
Nsg123
Nsbag2
(g3
g4
Ntp898
Rp899
(dp900
g8
g11
sg101
Nsg102
(dp901
sg104
Nsg26
g29
sg105
(lp902
I9
aI5
asg107
Nsg108
VTractate Sofrim 9:5
p903
sg110
(lp904
sg112
g62
sg113
Nsg114
(lp905
I9
aI5
asg116
Nsg117
g903
sg118
(lp906
sg120
g46
sg121
Nsg122
Nsg123
Nsbag2
(g3
g4
Ntp907
Rp908
(dp909
g8
g11
sg101
Nsg102
(dp910
sg104
Nsg26
g29
sg105
(lp911
I9
aI6
asg107
Nsg108
VTractate Sofrim 9:6
p912
sg110
(lp913
sg112
g62
sg113
Nsg114
(lp914
I9
aI6
asg116
Nsg117
g912
sg118
(lp915
sg120
g46
sg121
Nsg122
Nsg123
Nsbag2
(g3
g4
Ntp916
Rp917
(dp918
g8
g11
sg101
Nsg102
(dp919
sg104
Nsg26
g29
sg105
(lp920
I9
aI7
asg107
Nsg108
VTractate Sofrim 9:7
p921
sg110
(lp922
sg112
g62
sg113
Nsg114
(lp923
I9
aI7
asg116
Nsg117
g921
sg118
(lp924
sg120
g46
sg121
Nsg122
Nsg123
Nsbag2
(g3
g4
Ntp925
Rp926
(dp927
g8
g11
sg101
Nsg102
(dp928
sg104
Nsg26
g29
sg105
(lp929
I9
aI8
asg107
Nsg108
VTractate Sofrim 9:8
p930
sg110
(lp931
sg112
g62
sg113
Nsg114
(lp932
I9
aI8
asg116
Nsg117
g930
sg118
(lp933
sg120
g46
sg121
Nsg122
Nsg123
Nsbag2
(g3
g4
Ntp934
Rp935
(dp936
g8
g11
sg101
Nsg102
(dp937
sg104
Nsg26
g29
sg105
(lp938
I9
aI9
asg107
Nsg108
VTractate Sofrim 9:9
p939
sg110
(lp940
sg112
g62
sg113
Nsg114
(lp941
I9
aI9
asg116
Nsg117
g939
sg118
(lp942
sg120
g46
sg121
Nsg122
Nsg123
Nsbag2
(g3
g4
Ntp943
Rp944
(dp945
g8
g11
sg101
Nsg102
(dp946
sg104
Nsg26
g29
sg105
(lp947
I9
aI10
asg107
Nsg108
VTractate Sofrim 9:10
p948
sg110
(lp949
sg112
g62
sg113
Nsg114
(lp950
I9
aI10
asg116
Nsg117
g948
sg118
(lp951
sg120
g46
sg121
Nsg122
Nsg123
Nsbag2
(g3
g4
Ntp952
Rp953
(dp954
g8
g11
sg101
Nsg102
(dp955
sg104
Nsg26
g29
sg105
(lp956
I9
aI11
asg107
Nsg108
VTractate Sofrim 9:11
p957
sg110
(lp958
sg112
g62
sg113
Nsg114
(lp959
I9
aI11
asg116
Nsg117
g957
sg118
(lp960
sg120
g46
sg121
Nsg122
Nsg123
Nsbag2
(g3
g4
Ntp961
Rp962
(dp963
g8
g11
sg101
Nsg102
(dp964
sg104
Nsg26
g29
sg105
(lp965
I10
aI1
asg107
Nsg108
VTractate Sofrim 10:1
p966
sg110
(lp967
sg112
g62
sg113
Nsg114
(lp968
I10
aI1
asg116
Nsg117
g966
sg118
(lp969
sg120
g46
sg121
Nsg122
Nsg123
Nsbag2
(g3
g4
Ntp970
Rp971
(dp972
g8
g11
sg101
Nsg102
(dp973
sg104
Nsg26
g29
sg105
(lp974
I10
aI2
asg107
Nsg108
VTractate Sofrim 10:2
p975
sg110
(lp976
sg112
g62
sg113
Nsg114
(lp977
I10
aI2
asg116
Nsg117
g975
sg118
(lp978
sg120
g46
sg121
Nsg122
Nsg123
Nsbag2
(g3
g4
Ntp979
Rp980
(dp981
g8
g11
sg101
Nsg102
(dp982
sg104
Nsg26
g29
sg105
(lp983
I10
aI3
asg107
Nsg108
VTractate Sofrim 10:3
p984
sg110
(lp985
sg112
g62
sg113
Nsg114
(lp986
I10
aI3
asg116
Nsg117
g984
sg118
(lp987
sg120
g46
sg121
Nsg122
Nsg123
Nsbag2
(g3
g4
Ntp988
Rp989
(dp990
g8
g11
sg101
Nsg102
(dp991
sg104
Nsg26
g29
sg105
(lp992
I10
aI4
asg107
Nsg108
VTractate Sofrim 10:4
p993
sg110
(lp994
sg112
g62
sg113
Nsg114
(lp995
I10
aI4
asg116
Nsg117
g993
sg118
(lp996
sg120
g46
sg121
Nsg122
Nsg123
Nsbag2
(g3
g4
Ntp997
Rp998
(dp999
g8
g11
sg101
Nsg102
(dp1000
sg104
Nsg26
g29
sg105
(lp1001
I10
aI5
asg107
Nsg108
VTractate Sofrim 10:5
p1002
sg110
(lp1003
sg112
g62
sg113
Nsg114
(lp1004
I10
aI5
asg116
Nsg117
g1002
sg118
(lp1005
sg120
g46
sg121
Nsg122
Nsg123
Nsbag2
(g3
g4
Ntp1006
Rp1007
(dp1008
g8
g11
sg101
Nsg102
(dp1009
sg104
Nsg26
g29
sg105
(lp1010
I10
aI6
asg107
Nsg108
VTractate Sofrim 10:6
p1011
sg110
(lp1012
sg112
g62
sg113
Nsg114
(lp1013
I10
aI6
asg116
Nsg117
g1011
sg118
(lp1014
sg120
g46
sg121
Nsg122
Nsg123
Nsbag2
(g3
g4
Ntp1015
Rp1016
(dp1017
g8
g11
sg101
Nsg102
(dp1018
sg104
Nsg26
g29
sg105
(lp1019
I10
aI7
asg107
Nsg108
VTractate Sofrim 10:7
p1020
sg110
(lp1021
sg112
g62
sg113
Nsg114
(lp1022
I10
aI7
asg116
Nsg117
g1020
sg118
(lp1023
sg120
g46
sg121
Nsg122
Nsg123
Nsbag2
(g3
g4
Ntp1024
Rp1025
(dp1026
g8
g11
sg101
Nsg102
(dp1027
sg104
Nsg26
g29
sg105
(lp1028
I11
aI1
asg107
Nsg108
VTractate Sofrim 11:1
p1029
sg110
(lp1030
sg112
g62
sg113
Nsg114
(lp1031
I11
aI1
asg116
Nsg117
g1029
sg118
(lp1032
sg120
g46
sg121
Nsg122
Nsg123
Nsbag2
(g3
g4
Ntp1033
Rp1034
(dp1035
g8
g11
sg101
Nsg102
(dp1036
sg104
Nsg26
g29
sg105
(lp1037
I11
aI2
asg107
Nsg108
VTractate Sofrim 11:2
p1038
sg110
(lp1039
sg112
g62
sg113
Nsg114
(lp1040
I11
aI2
asg116
Nsg117
g1038
sg118
(lp1041
sg120
g46
sg121
Nsg122
Nsg123
Nsbag2
(g3
g4
Ntp1042
Rp1043
(dp1044
g8
g11
sg101
Nsg102
(dp1045
sg104
Nsg26
g29
sg105
(lp1046
I11
aI3
asg107
Nsg108
VTractate Sofrim 11:3
p1047
sg110
(lp1048
sg112
g62
sg113
Nsg114
(lp1049
I11
aI3
asg116
Nsg117
g1047
sg118
(lp1050
sg120
g46
sg121
Nsg122
Nsg123
Nsbag2
(g3
g4
Ntp1051
Rp1052
(dp1053
g8
g11
sg101
Nsg102
(dp1054
sg104
Nsg26
g29
sg105
(lp1055
I11
aI4
asg107
Nsg108
VTractate Sofrim 11:4
p1056
sg110
(lp1057
sg112
g62
sg113
Nsg114
(lp1058
I11
aI4
asg116
Nsg117
g1056
sg118
(lp1059
sg120
g46
sg121
Nsg122
Nsg123
Nsbag2
(g3
g4
Ntp1060
Rp1061
(dp1062
g8
g11
sg101
Nsg102
(dp1063
sg104
Nsg26
g29
sg105
(lp1064
I11
aI5
asg107
Nsg108
VTractate Sofrim 11:5
p1065
sg110
(lp1066
sg112
g62
sg113
Nsg114
(lp1067
I11
aI5
asg116
Nsg117
g1065
sg118
(lp1068
sg120
g46
sg121
Nsg122
Nsg123
Nsbag2
(g3
g4
Ntp1069
Rp1070
(dp1071
g8
g11
sg101
Nsg102
(dp1072
sg104
Nsg26
g29
sg105
(lp1073
I11
aI6
asg107
Nsg108
VTractate Sofrim 11:6
p1074
sg110
(lp1075
sg112
g62
sg113
Nsg114
(lp1076
I11
aI6
asg116
Nsg117
g1074
sg118
(lp1077
sg120
g46
sg121
Nsg122
Nsg123
Nsbag2
(g3
g4
Ntp1078
Rp1079
(dp1080
g8
g11
sg101
Nsg102
(dp1081
sg104
Nsg26
g29
sg105
(lp1082
I12
aI1
asg107
Nsg108
VTractate Sofrim 12:1
p1083
sg110
(lp1084
sg112
g62
sg113
Nsg114
(lp1085
I12
aI1
asg116
Nsg117
g1083
sg118
(lp1086
sg120
g46
sg121
Nsg122
Nsg123
Nsbag2
(g3
g4
Ntp1087
Rp1088
(dp1089
g8
g11
sg101
Nsg102
(dp1090
sg104
Nsg26
g29
sg105
(lp1091
I12
aI2
asg107
Nsg108
VTractate Sofrim 12:2
p1092
sg110
(lp1093
sg112
g62
sg113
Nsg114
(lp1094
I12
aI2
asg116
Nsg117
g1092
sg118
(lp1095
sg120
g46
sg121
Nsg122
Nsg123
Nsbag2
(g3
g4
Ntp1096
Rp1097
(dp1098
g8
g11
sg101
Nsg102
(dp1099
sg104
Nsg26
g29
sg105
(lp1100
I12
aI3
asg107
Nsg108
VTractate Sofrim 12:3
p1101
sg110
(lp1102
sg112
g62
sg113
Nsg114
(lp1103
I12
aI3
asg116
Nsg117
g1101
sg118
(lp1104
sg120
g46
sg121
Nsg122
Nsg123
Nsbag2
(g3
g4
Ntp1105
Rp1106
(dp1107
g8
g11
sg101
Nsg102
(dp1108
sg104
Nsg26
g29
sg105
(lp1109
I12
aI4
asg107
Nsg108
VTractate Sofrim 12:4
p1110
sg110
(lp1111
sg112
g62
sg113
Nsg114
(lp1112
I12
aI4
asg116
Nsg117
g1110
sg118
(lp1113
sg120
g46
sg121
Nsg122
Nsg123
Nsbag2
(g3
g4
Ntp1114
Rp1115
(dp1116
g8
g11
sg101
Nsg102
(dp1117
sg104
Nsg26
g29
sg105
(lp1118
I12
aI5
asg107
Nsg108
VTractate Sofrim 12:5
p1119
sg110
(lp1120
sg112
g62
sg113
Nsg114
(lp1121
I12
aI5
asg116
Nsg117
g1119
sg118
(lp1122
sg120
g46
sg121
Nsg122
Nsg123
Nsbag2
(g3
g4
Ntp1123
Rp1124
(dp1125
g8
g11
sg101
Nsg102
(dp1126
sg104
Nsg26
g29
sg105
(lp1127
I12
aI6
asg107
Nsg108
VTractate Sofrim 12:6
p1128
sg110
(lp1129
sg112
g62
sg113
Nsg114
(lp1130
I12
aI6
asg116
Nsg117
g1128
sg118
(lp1131
sg120
g46
sg121
Nsg122
Nsg123
Nsbag2
(g3
g4
Ntp1132
Rp1133
(dp1134
g8
g11
sg101
Nsg102
(dp1135
sg104
Nsg26
g29
sg105
(lp1136
I12
aI7
asg107
Nsg108
VTractate Sofrim 12:7
p1137
sg110
(lp1138
sg112
g62
sg113
Nsg114
(lp1139
I12
aI7
asg116
Nsg117
g1137
sg118
(lp1140
sg120
g46
sg121
Nsg122
Nsg123
Nsbag2
(g3
g4
Ntp1141
Rp1142
(dp1143
g8
g11
sg101
Nsg102
(dp1144
sg104
Nsg26
g29
sg105
(lp1145
I12
aI8
asg107
Nsg108
VTractate Sofrim 12:8
p1146
sg110
(lp1147
sg112
g62
sg113
Nsg114
(lp1148
I12
aI8
asg116
Nsg117
g1146
sg118
(lp1149
sg120
g46
sg121
Nsg122
Nsg123
Nsbag2
(g3
g4
Ntp1150
Rp1151
(dp1152
g8
g11
sg101
Nsg102
(dp1153
sg104
Nsg26
g29
sg105
(lp1154
I12
aI9
asg107
Nsg108
VTractate Sofrim 12:9
p1155
sg110
(lp1156
sg112
g62
sg113
Nsg114
(lp1157
I12
aI9
asg116
Nsg117
g1155
sg118
(lp1158
sg120
g46
sg121
Nsg122
Nsg123
Nsbag2
(g3
g4
Ntp1159
Rp1160
(dp1161
g8
g11
sg101
Nsg102
(dp1162
sg104
Nsg26
g29
sg105
(lp1163
I12
aI10
asg107
Nsg108
VTractate Sofrim 12:10
p1164
sg110
(lp1165
sg112
g62
sg113
Nsg114
(lp1166
I12
aI10
asg116
Nsg117
g1164
sg118
(lp1167
sg120
g46
sg121
Nsg122
Nsg123
Nsbag2
(g3
g4
Ntp1168
Rp1169
(dp1170
g8
g11
sg101
Nsg102
(dp1171
sg104
Nsg26
g29
sg105
(lp1172
I12
aI11
asg107
Nsg108
VTractate Sofrim 12:11
p1173
sg110
(lp1174
sg112
g62
sg113
Nsg114
(lp1175
I12
aI11
asg116
Nsg117
g1173
sg118
(lp1176
sg120
g46
sg121
Nsg122
Nsg123
Nsbag2
(g3
g4
Ntp1177
Rp1178
(dp1179
g8
g11
sg101
Nsg102
(dp1180
sg104
Nsg26
g29
sg105
(lp1181
I12
aI12
asg107
Nsg108
VTractate Sofrim 12:12
p1182
sg110
(lp1183
sg112
g62
sg113
Nsg114
(lp1184
I12
aI12
asg116
Nsg117
g1182
sg118
(lp1185
sg120
g46
sg121
Nsg122
Nsg123
Nsbag2
(g3
g4
Ntp1186
Rp1187
(dp1188
g8
g11
sg101
Nsg102
(dp1189
sg104
Nsg26
g29
sg105
(lp1190
I13
aI1
asg107
Nsg108
VTractate Sofrim 13:1
p1191
sg110
(lp1192
sg112
g62
sg113
Nsg114
(lp1193
I13
aI1
asg116
Nsg117
g1191
sg118
(lp1194
sg120
g46
sg121
Nsg122
Nsg123
Nsbag2
(g3
g4
Ntp1195
Rp1196
(dp1197
g8
g11
sg101
Nsg102
(dp1198
sg104
Nsg26
g29
sg105
(lp1199
I13
aI2
asg107
Nsg108
VTractate Sofrim 13:2
p1200
sg110
(lp1201
sg112
g62
sg113
Nsg114
(lp1202
I13
aI2
asg116
Nsg117
g1200
sg118
(lp1203
sg120
g46
sg121
Nsg122
Nsg123
Nsbag2
(g3
g4
Ntp1204
Rp1205
(dp1206
g8
g11
sg101
Nsg102
(dp1207
sg104
Nsg26
g29
sg105
(lp1208
I13
aI3
asg107
Nsg108
VTractate Sofrim 13:3
p1209
sg110
(lp1210
sg112
g62
sg113
Nsg114
(lp1211
I13
aI3
asg116
Nsg117
g1209
sg118
(lp1212
sg120
g46
sg121
Nsg122
Nsg123
Nsbag2
(g3
g4
Ntp1213
Rp1214
(dp1215
g8
g11
sg101
Nsg102
(dp1216
sg104
Nsg26
g29
sg105
(lp1217
I13
aI4
asg107
Nsg108
VTractate Sofrim 13:4
p1218
sg110
(lp1219
sg112
g62
sg113
Nsg114
(lp1220
I13
aI4
asg116
Nsg117
g1218
sg118
(lp1221
sg120
g46
sg121
Nsg122
Nsg123
Nsbag2
(g3
g4
Ntp1222
Rp1223
(dp1224
g8
g11
sg101
Nsg102
(dp1225
sg104
Nsg26
g29
sg105
(lp1226
I13
aI5
asg107
Nsg108
VTractate Sofrim 13:5
p1227
sg110
(lp1228
sg112
g62
sg113
Nsg114
(lp1229
I13
aI5
asg116
Nsg117
g1227
sg118
(lp1230
sg120
g46
sg121
Nsg122
Nsg123
Nsbag2
(g3
g4
Ntp1231
Rp1232
(dp1233
g8
g11
sg101
Nsg102
(dp1234
sg104
Nsg26
g29
sg105
(lp1235
I13
aI6
asg107
Nsg108
VTractate Sofrim 13:6
p1236
sg110
(lp1237
sg112
g62
sg113
Nsg114
(lp1238
I13
aI6
asg116
Nsg117
g1236
sg118
(lp1239
sg120
g46
sg121
Nsg122
Nsg123
Nsbag2
(g3
g4
Ntp1240
Rp1241
(dp1242
g8
g11
sg101
Nsg102
(dp1243
sg104
Nsg26
g29
sg105
(lp1244
I13
aI7
asg107
Nsg108
VTractate Sofrim 13:7
p1245
sg110
(lp1246
sg112
g62
sg113
Nsg114
(lp1247
I13
aI7
asg116
Nsg117
g1245
sg118
(lp1248
sg120
g46
sg121
Nsg122
Nsg123
Nsbag2
(g3
g4
Ntp1249
Rp1250
(dp1251
g8
g11
sg101
Nsg102
(dp1252
sg104
Nsg26
g29
sg105
(lp1253
I13
aI8
asg107
Nsg108
VTractate Sofrim 13:8
p1254
sg110
(lp1255
sg112
g62
sg113
Nsg114
(lp1256
I13
aI8
asg116
Nsg117
g1254
sg118
(lp1257
sg120
g46
sg121
Nsg122
Nsg123
Nsbag2
(g3
g4
Ntp1258
Rp1259
(dp1260
g8
g11
sg101
Nsg102
(dp1261
sg104
Nsg26
g29
sg105
(lp1262
I13
aI9
asg107
Nsg108
VTractate Sofrim 13:9
p1263
sg110
(lp1264
sg112
g62
sg113
Nsg114
(lp1265
I13
aI9
asg116
Nsg117
g1263
sg118
(lp1266
sg120
g46
sg121
Nsg122
Nsg123
Nsbag2
(g3
g4
Ntp1267
Rp1268
(dp1269
g8
g11
sg101
Nsg102
(dp1270
sg104
Nsg26
g29
sg105
(lp1271
I13
aI10
asg107
Nsg108
VTractate Sofrim 13:10
p1272
sg110
(lp1273
sg112
g62
sg113
Nsg114
(lp1274
I13
aI10
asg116
Nsg117
g1272
sg118
(lp1275
sg120
g46
sg121
Nsg122
Nsg123
Nsbag2
(g3
g4
Ntp1276
Rp1277
(dp1278
g8
g11
sg101
Nsg102
(dp1279
sg104
Nsg26
g29
sg105
(lp1280
I13
aI11
asg107
Nsg108
VTractate Sofrim 13:11
p1281
sg110
(lp1282
sg112
g62
sg113
Nsg114
(lp1283
I13
aI11
asg116
Nsg117
g1281
sg118
(lp1284
sg120
g46
sg121
Nsg122
Nsg123
Nsbag2
(g3
g4
Ntp1285
Rp1286
(dp1287
g8
g11
sg101
Nsg102
(dp1288
sg104
Nsg26
g29
sg105
(lp1289
I13
aI12
asg107
Nsg108
VTractate Sofrim 13:12
p1290
sg110
(lp1291
sg112
g62
sg113
Nsg114
(lp1292
I13
aI12
asg116
Nsg117
g1290
sg118
(lp1293
sg120
g46
sg121
Nsg122
Nsg123
Nsbag2
(g3
g4
Ntp1294
Rp1295
(dp1296
g8
g11
sg101
Nsg102
(dp1297
sg104
Nsg26
g29
sg105
(lp1298
I13
aI13
asg107
Nsg108
VTractate Sofrim 13:13
p1299
sg110
(lp1300
sg112
g62
sg113
Nsg114
(lp1301
I13
aI13
asg116
Nsg117
g1299
sg118
(lp1302
sg120
g46
sg121
Nsg122
Nsg123
Nsbag2
(g3
g4
Ntp1303
Rp1304
(dp1305
g8
g11
sg101
Nsg102
(dp1306
sg104
Nsg26
g29
sg105
(lp1307
I13
aI14
asg107
Nsg108
VTractate Sofrim 13:14
p1308
sg110
(lp1309
sg112
g62
sg113
Nsg114
(lp1310
I13
aI14
asg116
Nsg117
g1308
sg118
(lp1311
sg120
g46
sg121
Nsg122
Nsg123
Nsbag2
(g3
g4
Ntp1312
Rp1313
(dp1314
g8
g11
sg101
Nsg102
(dp1315
sg104
Nsg26
g29
sg105
(lp1316
I14
aI1
asg107
Nsg108
VTractate Sofrim 14:1
p1317
sg110
(lp1318
sg112
g62
sg113
Nsg114
(lp1319
I14
aI1
asg116
Nsg117
g1317
sg118
(lp1320
sg120
g46
sg121
Nsg122
Nsg123
Nsbag2
(g3
g4
Ntp1321
Rp1322
(dp1323
g8
g11
sg101
Nsg102
(dp1324
sg104
Nsg26
g29
sg105
(lp1325
I14
aI2
asg107
Nsg108
VTractate Sofrim 14:2
p1326
sg110
(lp1327
sg112
g62
sg113
Nsg114
(lp1328
I14
aI2
asg116
Nsg117
g1326
sg118
(lp1329
sg120
g46
sg121
Nsg122
Nsg123
Nsbag2
(g3
g4
Ntp1330
Rp1331
(dp1332
g8
g11
sg101
Nsg102
(dp1333
sg104
Nsg26
g29
sg105
(lp1334
I14
aI3
asg107
Nsg108
VTractate Sofrim 14:3
p1335
sg110
(lp1336
sg112
g62
sg113
Nsg114
(lp1337
I14
aI3
asg116
Nsg117
g1335
sg118
(lp1338
sg120
g46
sg121
Nsg122
Nsg123
Nsbag2
(g3
g4
Ntp1339
Rp1340
(dp1341
g8
g11
sg101
Nsg102
(dp1342
sg104
Nsg26
g29
sg105
(lp1343
I14
aI4
asg107
Nsg108
VTractate Sofrim 14:4
p1344
sg110
(lp1345
sg112
g62
sg113
Nsg114
(lp1346
I14
aI4
asg116
Nsg117
g1344
sg118
(lp1347
sg120
g46
sg121
Nsg122
Nsg123
Nsbag2
(g3
g4
Ntp1348
Rp1349
(dp1350
g8
g11
sg101
Nsg102
(dp1351
sg104
Nsg26
g29
sg105
(lp1352
I14
aI5
asg107
Nsg108
VTractate Sofrim 14:5
p1353
sg110
(lp1354
sg112
g62
sg113
Nsg114
(lp1355
I14
aI5
asg116
Nsg117
g1353
sg118
(lp1356
sg120
g46
sg121
Nsg122
Nsg123
Nsbag2
(g3
g4
Ntp1357
Rp1358
(dp1359
g8
g11
sg101
Nsg102
(dp1360
sg104
Nsg26
g29
sg105
(lp1361
I14
aI6
asg107
Nsg108
VTractate Sofrim 14:6
p1362
sg110
(lp1363
sg112
g62
sg113
Nsg114
(lp1364
I14
aI6
asg116
Nsg117
g1362
sg118
(lp1365
sg120
g46
sg121
Nsg122
Nsg123
Nsbag2
(g3
g4
Ntp1366
Rp1367
(dp1368
g8
g11
sg101
Nsg102
(dp1369
sg104
Nsg26
g29
sg105
(lp1370
I14
aI7
asg107
Nsg108
VTractate Sofrim 14:7
p1371
sg110
(lp1372
sg112
g62
sg113
Nsg114
(lp1373
I14
aI7
asg116
Nsg117
g1371
sg118
(lp1374
sg120
g46
sg121
Nsg122
Nsg123
Nsbag2
(g3
g4
Ntp1375
Rp1376
(dp1377
g8
g11
sg101
Nsg102
(dp1378
sg104
Nsg26
g29
sg105
(lp1379
I14
aI8
asg107
Nsg108
VTractate Sofrim 14:8
p1380
sg110
(lp1381
sg112
g62
sg113
Nsg114
(lp1382
I14
aI8
asg116
Nsg117
g1380
sg118
(lp1383
sg120
g46
sg121
Nsg122
Nsg123
Nsbag2
(g3
g4
Ntp1384
Rp1385
(dp1386
g8
g11
sg101
Nsg102
(dp1387
sg104
Nsg26
g29
sg105
(lp1388
I14
aI9
asg107
Nsg108
VTractate Sofrim 14:9
p1389
sg110
(lp1390
sg112
g62
sg113
Nsg114
(lp1391
I14
aI9
asg116
Nsg117
g1389
sg118
(lp1392
sg120
g46
sg121
Nsg122
Nsg123
Nsbag2
(g3
g4
Ntp1393
Rp1394
(dp1395
g8
g11
sg101
Nsg102
(dp1396
sg104
Nsg26
g29
sg105
(lp1397
I14
aI10
asg107
Nsg108
VTractate Sofrim 14:10
p1398
sg110
(lp1399
sg112
g62
sg113
Nsg114
(lp1400
I14
aI10
asg116
Nsg117
g1398
sg118
(lp1401
sg120
g46
sg121
Nsg122
Nsg123
Nsbag2
(g3
g4
Ntp1402
Rp1403
(dp1404
g8
g11
sg101
Nsg102
(dp1405
sg104
Nsg26
g29
sg105
(lp1406
I14
aI11
asg107
Nsg108
VTractate Sofrim 14:11
p1407
sg110
(lp1408
sg112
g62
sg113
Nsg114
(lp1409
I14
aI11
asg116
Nsg117
g1407
sg118
(lp1410
sg120
g46
sg121
Nsg122
Nsg123
Nsbag2
(g3
g4
Ntp1411
Rp1412
(dp1413
g8
g11
sg101
Nsg102
(dp1414
sg104
Nsg26
g29
sg105
(lp1415
I14
aI12
asg107
Nsg108
VTractate Sofrim 14:12
p1416
sg110
(lp1417
sg112
g62
sg113
Nsg114
(lp1418
I14
aI12
asg116
Nsg117
g1416
sg118
(lp1419
sg120
g46
sg121
Nsg122
Nsg123
Nsbag2
(g3
g4
Ntp1420
Rp1421
(dp1422
g8
g11
sg101
Nsg102
(dp1423
sg104
Nsg26
g29
sg105
(lp1424
I14
aI13
asg107
Nsg108
VTractate Sofrim 14:13
p1425
sg110
(lp1426
sg112
g62
sg113
Nsg114
(lp1427
I14
aI13
asg116
Nsg117
g1425
sg118
(lp1428
sg120
g46
sg121
Nsg122
Nsg123
Nsbag2
(g3
g4
Ntp1429
Rp1430
(dp1431
g8
g11
sg101
Nsg102
(dp1432
sg104
Nsg26
g29
sg105
(lp1433
I14
aI14
asg107
Nsg108
VTractate Sofrim 14:14
p1434
sg110
(lp1435
sg112
g62
sg113
Nsg114
(lp1436
I14
aI14
asg116
Nsg117
g1434
sg118
(lp1437
sg120
g46
sg121
Nsg122
Nsg123
Nsbag2
(g3
g4
Ntp1438
Rp1439
(dp1440
g8
g11
sg101
Nsg102
(dp1441
sg104
Nsg26
g29
sg105
(lp1442
I14
aI15
asg107
Nsg108
VTractate Sofrim 14:15
p1443
sg110
(lp1444
sg112
g62
sg113
Nsg114
(lp1445
I14
aI15
asg116
Nsg117
g1443
sg118
(lp1446
sg120
g46
sg121
Nsg122
Nsg123
Nsbag2
(g3
g4
Ntp1447
Rp1448
(dp1449
g8
g11
sg101
Nsg102
(dp1450
sg104
Nsg26
g29
sg105
(lp1451
I14
aI16
asg107
Nsg108
VTractate Sofrim 14:16
p1452
sg110
(lp1453
sg112
g62
sg113
Nsg114
(lp1454
I14
aI16
asg116
Nsg117
g1452
sg118
(lp1455
sg120
g46
sg121
Nsg122
Nsg123
Nsbag2
(g3
g4
Ntp1456
Rp1457
(dp1458
g8
g11
sg101
Nsg102
(dp1459
sg104
Nsg26
g29
sg105
(lp1460
I14
aI17
asg107
Nsg108
VTractate Sofrim 14:17
p1461
sg110
(lp1462
sg112
g62
sg113
Nsg114
(lp1463
I14
aI17
asg116
Nsg117
g1461
sg118
(lp1464
sg120
g46
sg121
Nsg122
Nsg123
Nsbag2
(g3
g4
Ntp1465
Rp1466
(dp1467
g8
g11
sg101
Nsg102
(dp1468
sg104
Nsg26
g29
sg105
(lp1469
I14
aI18
asg107
Nsg108
VTractate Sofrim 14:18
p1470
sg110
(lp1471
sg112
g62
sg113
Nsg114
(lp1472
I14
aI18
asg116
Nsg117
g1470
sg118
(lp1473
sg120
g46
sg121
Nsg122
Nsg123
Nsbag2
(g3
g4
Ntp1474
Rp1475
(dp1476
g8
g11
sg101
Nsg102
(dp1477
sg104
Nsg26
g29
sg105
(lp1478
I14
aI19
asg107
Nsg108
VTractate Sofrim 14:19
p1479
sg110
(lp1480
sg112
g62
sg113
Nsg114
(lp1481
I14
aI19
asg116
Nsg117
g1479
sg118
(lp1482
sg120
g46
sg121
Nsg122
Nsg123
Nsbag2
(g3
g4
Ntp1483
Rp1484
(dp1485
g8
g11
sg101
Nsg102
(dp1486
sg104
Nsg26
g29
sg105
(lp1487
I15
aI1
asg107
Nsg108
VTractate Sofrim 15:1
p1488
sg110
(lp1489
sg112
g62
sg113
Nsg114
(lp1490
I15
aI1
asg116
Nsg117
g1488
sg118
(lp1491
sg120
g46
sg121
Nsg122
Nsg123
Nsbag2
(g3
g4
Ntp1492
Rp1493
(dp1494
g8
g11
sg101
Nsg102
(dp1495
sg104
Nsg26
g29
sg105
(lp1496
I15
aI2
asg107
Nsg108
VTractate Sofrim 15:2
p1497
sg110
(lp1498
sg112
g62
sg113
Nsg114
(lp1499
I15
aI2
asg116
Nsg117
g1497
sg118
(lp1500
sg120
g46
sg121
Nsg122
Nsg123
Nsbag2
(g3
g4
Ntp1501
Rp1502
(dp1503
g8
g11
sg101
Nsg102
(dp1504
sg104
Nsg26
g29
sg105
(lp1505
I15
aI3
asg107
Nsg108
VTractate Sofrim 15:3
p1506
sg110
(lp1507
sg112
g62
sg113
Nsg114
(lp1508
I15
aI3
asg116
Nsg117
g1506
sg118
(lp1509
sg120
g46
sg121
Nsg122
Nsg123
Nsbag2
(g3
g4
Ntp1510
Rp1511
(dp1512
g8
g11
sg101
Nsg102
(dp1513
sg104
Nsg26
g29
sg105
(lp1514
I15
aI4
asg107
Nsg108
VTractate Sofrim 15:4
p1515
sg110
(lp1516
sg112
g62
sg113
Nsg114
(lp1517
I15
aI4
asg116
Nsg117
g1515
sg118
(lp1518
sg120
g46
sg121
Nsg122
Nsg123
Nsbag2
(g3
g4
Ntp1519
Rp1520
(dp1521
g8
g11
sg101
Nsg102
(dp1522
sg104
Nsg26
g29
sg105
(lp1523
I15
aI5
asg107
Nsg108
VTractate Sofrim 15:5
p1524
sg110
(lp1525
sg112
g62
sg113
Nsg114
(lp1526
I15
aI5
asg116
Nsg117
g1524
sg118
(lp1527
sg120
g46
sg121
Nsg122
Nsg123
Nsbag2
(g3
g4
Ntp1528
Rp1529
(dp1530
g8
g11
sg101
Nsg102
(dp1531
sg104
Nsg26
g29
sg105
(lp1532
I15
aI6
asg107
Nsg108
VTractate Sofrim 15:6
p1533
sg110
(lp1534
sg112
g62
sg113
Nsg114
(lp1535
I15
aI6
asg116
Nsg117
g1533
sg118
(lp1536
sg120
g46
sg121
Nsg122
Nsg123
Nsbag2
(g3
g4
Ntp1537
Rp1538
(dp1539
g8
g11
sg101
Nsg102
(dp1540
sg104
Nsg26
g29
sg105
(lp1541
I15
aI7
asg107
Nsg108
VTractate Sofrim 15:7
p1542
sg110
(lp1543
sg112
g62
sg113
Nsg114
(lp1544
I15
aI7
asg116
Nsg117
g1542
sg118
(lp1545
sg120
g46
sg121
Nsg122
Nsg123
Nsbag2
(g3
g4
Ntp1546
Rp1547
(dp1548
g8
g11
sg101
Nsg102
(dp1549
sg104
Nsg26
g29
sg105
(lp1550
I15
aI8
asg107
Nsg108
VTractate Sofrim 15:8
p1551
sg110
(lp1552
sg112
g62
sg113
Nsg114
(lp1553
I15
aI8
asg116
Nsg117
g1551
sg118
(lp1554
sg120
g46
sg121
Nsg122
Nsg123
Nsbag2
(g3
g4
Ntp1555
Rp1556
(dp1557
g8
g11
sg101
Nsg102
(dp1558
sg104
Nsg26
g29
sg105
(lp1559
I15
aI9
asg107
Nsg108
VTractate Sofrim 15:9
p1560
sg110
(lp1561
sg112
g62
sg113
Nsg114
(lp1562
I15
aI9
asg116
Nsg117
g1560
sg118
(lp1563
sg120
g46
sg121
Nsg122
Nsg123
Nsbag2
(g3
g4
Ntp1564
Rp1565
(dp1566
g8
g11
sg101
Nsg102
(dp1567
sg104
Nsg26
g29
sg105
(lp1568
I15
aI10
asg107
Nsg108
VTractate Sofrim 15:10
p1569
sg110
(lp1570
sg112
g62
sg113
Nsg114
(lp1571
I15
aI10
asg116
Nsg117
g1569
sg118
(lp1572
sg120
g46
sg121
Nsg122
Nsg123
Nsbag2
(g3
g4
Ntp1573
Rp1574
(dp1575
g8
g11
sg101
Nsg102
(dp1576
sg104
Nsg26
g29
sg105
(lp1577
I16
aI1
asg107
Nsg108
VTractate Sofrim 16:1
p1578
sg110
(lp1579
sg112
g62
sg113
Nsg114
(lp1580
I16
aI1
asg116
Nsg117
g1578
sg118
(lp1581
sg120
g46
sg121
Nsg122
Nsg123
Nsbag2
(g3
g4
Ntp1582
Rp1583
(dp1584
g8
g11
sg101
Nsg102
(dp1585
sg104
Nsg26
g29
sg105
(lp1586
I16
aI2
asg107
Nsg108
VTractate Sofrim 16:2
p1587
sg110
(lp1588
sg112
g62
sg113
Nsg114
(lp1589
I16
aI2
asg116
Nsg117
g1587
sg118
(lp1590
sg120
g46
sg121
Nsg122
Nsg123
Nsbag2
(g3
g4
Ntp1591
Rp1592
(dp1593
g8
g11
sg101
Nsg102
(dp1594
sg104
Nsg26
g29
sg105
(lp1595
I16
aI3
asg107
Nsg108
VTractate Sofrim 16:3
p1596
sg110
(lp1597
sg112
g62
sg113
Nsg114
(lp1598
I16
aI3
asg116
Nsg117
g1596
sg118
(lp1599
sg120
g46
sg121
Nsg122
Nsg123
Nsbag2
(g3
g4
Ntp1600
Rp1601
(dp1602
g8
g11
sg101
Nsg102
(dp1603
sg104
Nsg26
g29
sg105
(lp1604
I16
aI4
asg107
Nsg108
VTractate Sofrim 16:4
p1605
sg110
(lp1606
sg112
g62
sg113
Nsg114
(lp1607
I16
aI4
asg116
Nsg117
g1605
sg118
(lp1608
sg120
g46
sg121
Nsg122
Nsg123
Nsbag2
(g3
g4
Ntp1609
Rp1610
(dp1611
g8
g11
sg101
Nsg102
(dp1612
sg104
Nsg26
g29
sg105
(lp1613
I16
aI5
asg107
Nsg108
VTractate Sofrim 16:5
p1614
sg110
(lp1615
sg112
g62
sg113
Nsg114
(lp1616
I16
aI5
asg116
Nsg117
g1614
sg118
(lp1617
sg120
g46
sg121
Nsg122
Nsg123
Nsbag2
(g3
g4
Ntp1618
Rp1619
(dp1620
g8
g11
sg101
Nsg102
(dp1621
sg104
Nsg26
g29
sg105
(lp1622
I16
aI6
asg107
Nsg108
VTractate Sofrim 16:6
p1623
sg110
(lp1624
sg112
g62
sg113
Nsg114
(lp1625
I16
aI6
asg116
Nsg117
g1623
sg118
(lp1626
sg120
g46
sg121
Nsg122
Nsg123
Nsbag2
(g3
g4
Ntp1627
Rp1628
(dp1629
g8
g11
sg101
Nsg102
(dp1630
sg104
Nsg26
g29
sg105
(lp1631
I16
aI7
asg107
Nsg108
VTractate Sofrim 16:7
p1632
sg110
(lp1633
sg112
g62
sg113
Nsg114
(lp1634
I16
aI7
asg116
Nsg117
g1632
sg118
(lp1635
sg120
g46
sg121
Nsg122
Nsg123
Nsbag2
(g3
g4
Ntp1636
Rp1637
(dp1638
g8
g11
sg101
Nsg102
(dp1639
sg104
Nsg26
g29
sg105
(lp1640
I16
aI8
asg107
Nsg108
VTractate Sofrim 16:8
p1641
sg110
(lp1642
sg112
g62
sg113
Nsg114
(lp1643
I16
aI8
asg116
Nsg117
g1641
sg118
(lp1644
sg120
g46
sg121
Nsg122
Nsg123
Nsbag2
(g3
g4
Ntp1645
Rp1646
(dp1647
g8
g11
sg101
Nsg102
(dp1648
sg104
Nsg26
g29
sg105
(lp1649
I16
aI9
asg107
Nsg108
VTractate Sofrim 16:9
p1650
sg110
(lp1651
sg112
g62
sg113
Nsg114
(lp1652
I16
aI9
asg116
Nsg117
g1650
sg118
(lp1653
sg120
g46
sg121
Nsg122
Nsg123
Nsbag2
(g3
g4
Ntp1654
Rp1655
(dp1656
g8
g11
sg101
Nsg102
(dp1657
sg104
Nsg26
g29
sg105
(lp1658
I16
aI10
asg107
Nsg108
VTractate Sofrim 16:10
p1659
sg110
(lp1660
sg112
g62
sg113
Nsg114
(lp1661
I16
aI10
asg116
Nsg117
g1659
sg118
(lp1662
sg120
g46
sg121
Nsg122
Nsg123
Nsbag2
(g3
g4
Ntp1663
Rp1664
(dp1665
g8
g11
sg101
Nsg102
(dp1666
sg104
Nsg26
g29
sg105
(lp1667
I17
aI1
asg107
Nsg108
VTractate Sofrim 17:1
p1668
sg110
(lp1669
sg112
g62
sg113
Nsg114
(lp1670
I17
aI1
asg116
Nsg117
g1668
sg118
(lp1671
sg120
g46
sg121
Nsg122
Nsg123
Nsbag2
(g3
g4
Ntp1672
Rp1673
(dp1674
g8
g11
sg101
Nsg102
(dp1675
sg104
Nsg26
g29
sg105
(lp1676
I17
aI2
asg107
Nsg108
VTractate Sofrim 17:2
p1677
sg110
(lp1678
sg112
g62
sg113
Nsg114
(lp1679
I17
aI2
asg116
Nsg117
g1677
sg118
(lp1680
sg120
g46
sg121
Nsg122
Nsg123
Nsbag2
(g3
g4
Ntp1681
Rp1682
(dp1683
g8
g11
sg101
Nsg102
(dp1684
sg104
Nsg26
g29
sg105
(lp1685
I17
aI3
asg107
Nsg108
VTractate Sofrim 17:3
p1686
sg110
(lp1687
sg112
g62
sg113
Nsg114
(lp1688
I17
aI3
asg116
Nsg117
g1686
sg118
(lp1689
sg120
g46
sg121
Nsg122
Nsg123
Nsbag2
(g3
g4
Ntp1690
Rp1691
(dp1692
g8
g11
sg101
Nsg102
(dp1693
sg104
Nsg26
g29
sg105
(lp1694
I17
aI4
asg107
Nsg108
VTractate Sofrim 17:4
p1695
sg110
(lp1696
sg112
g62
sg113
Nsg114
(lp1697
I17
aI4
asg116
Nsg117
g1695
sg118
(lp1698
sg120
g46
sg121
Nsg122
Nsg123
Nsbag2
(g3
g4
Ntp1699
Rp1700
(dp1701
g8
g11
sg101
Nsg102
(dp1702
sg104
Nsg26
g29
sg105
(lp1703
I17
aI5
asg107
Nsg108
VTractate Sofrim 17:5
p1704
sg110
(lp1705
sg112
g62
sg113
Nsg114
(lp1706
I17
aI5
asg116
Nsg117
g1704
sg118
(lp1707
sg120
g46
sg121
Nsg122
Nsg123
Nsbag2
(g3
g4
Ntp1708
Rp1709
(dp1710
g8
g11
sg101
Nsg102
(dp1711
sg104
Nsg26
g29
sg105
(lp1712
I17
aI6
asg107
Nsg108
VTractate Sofrim 17:6
p1713
sg110
(lp1714
sg112
g62
sg113
Nsg114
(lp1715
I17
aI6
asg116
Nsg117
g1713
sg118
(lp1716
sg120
g46
sg121
Nsg122
Nsg123
Nsbag2
(g3
g4
Ntp1717
Rp1718
(dp1719
g8
g11
sg101
Nsg102
(dp1720
sg104
Nsg26
g29
sg105
(lp1721
I17
aI7
asg107
Nsg108
VTractate Sofrim 17:7
p1722
sg110
(lp1723
sg112
g62
sg113
Nsg114
(lp1724
I17
aI7
asg116
Nsg117
g1722
sg118
(lp1725
sg120
g46
sg121
Nsg122
Nsg123
Nsbag2
(g3
g4
Ntp1726
Rp1727
(dp1728
g8
g11
sg101
Nsg102
(dp1729
sg104
Nsg26
g29
sg105
(lp1730
I17
aI8
asg107
Nsg108
VTractate Sofrim 17:8
p1731
sg110
(lp1732
sg112
g62
sg113
Nsg114
(lp1733
I17
aI8
asg116
Nsg117
g1731
sg118
(lp1734
sg120
g46
sg121
Nsg122
Nsg123
Nsbag2
(g3
g4
Ntp1735
Rp1736
(dp1737
g8
g11
sg101
Nsg102
(dp1738
sg104
Nsg26
g29
sg105
(lp1739
I17
aI9
asg107
Nsg108
VTractate Sofrim 17:9
p1740
sg110
(lp1741
sg112
g62
sg113
Nsg114
(lp1742
I17
aI9
asg116
Nsg117
g1740
sg118
(lp1743
sg120
g46
sg121
Nsg122
Nsg123
Nsbag2
(g3
g4
Ntp1744
Rp1745
(dp1746
g8
g11
sg101
Nsg102
(dp1747
sg104
Nsg26
g29
sg105
(lp1748
I17
aI10
asg107
Nsg108
VTractate Sofrim 17:10
p1749
sg110
(lp1750
sg112
g62
sg113
Nsg114
(lp1751
I17
aI10
asg116
Nsg117
g1749
sg118
(lp1752
sg120
g46
sg121
Nsg122
Nsg123
Nsbag2
(g3
g4
Ntp1753
Rp1754
(dp1755
g8
g11
sg101
Nsg102
(dp1756
sg104
Nsg26
g29
sg105
(lp1757
I17
aI11
asg107
Nsg108
VTractate Sofrim 17:11
p1758
sg110
(lp1759
sg112
g62
sg113
Nsg114
(lp1760
I17
aI11
asg116
Nsg117
g1758
sg118
(lp1761
sg120
g46
sg121
Nsg122
Nsg123
Nsbag2
(g3
g4
Ntp1762
Rp1763
(dp1764
g8
g11
sg101
Nsg102
(dp1765
sg104
Nsg26
g29
sg105
(lp1766
I18
aI1
asg107
Nsg108
VTractate Sofrim 18:1
p1767
sg110
(lp1768
sg112
g62
sg113
Nsg114
(lp1769
I18
aI1
asg116
Nsg117
g1767
sg118
(lp1770
sg120
g46
sg121
Nsg122
Nsg123
Nsbag2
(g3
g4
Ntp1771
Rp1772
(dp1773
g8
g11
sg101
Nsg102
(dp1774
sg104
Nsg26
g29
sg105
(lp1775
I18
aI2
asg107
Nsg108
VTractate Sofrim 18:2
p1776
sg110
(lp1777
sg112
g62
sg113
Nsg114
(lp1778
I18
aI2
asg116
Nsg117
g1776
sg118
(lp1779
sg120
g46
sg121
Nsg122
Nsg123
Nsbag2
(g3
g4
Ntp1780
Rp1781
(dp1782
g8
g11
sg101
Nsg102
(dp1783
sg104
Nsg26
g29
sg105
(lp1784
I18
aI3
asg107
Nsg108
VTractate Sofrim 18:3
p1785
sg110
(lp1786
sg112
g62
sg113
Nsg114
(lp1787
I18
aI3
asg116
Nsg117
g1785
sg118
(lp1788
sg120
g46
sg121
Nsg122
Nsg123
Nsbag2
(g3
g4
Ntp1789
Rp1790
(dp1791
g8
g11
sg101
Nsg102
(dp1792
sg104
Nsg26
g29
sg105
(lp1793
I18
aI4
asg107
Nsg108
VTractate Sofrim 18:4
p1794
sg110
(lp1795
sg112
g62
sg113
Nsg114
(lp1796
I18
aI4
asg116
Nsg117
g1794
sg118
(lp1797
sg120
g46
sg121
Nsg122
Nsg123
Nsbag2
(g3
g4
Ntp1798
Rp1799
(dp1800
g8
g11
sg101
Nsg102
(dp1801
sg104
Nsg26
g29
sg105
(lp1802
I18
aI5
asg107
Nsg108
VTractate Sofrim 18:5
p1803
sg110
(lp1804
sg112
g62
sg113
Nsg114
(lp1805
I18
aI5
asg116
Nsg117
g1803
sg118
(lp1806
sg120
g46
sg121
Nsg122
Nsg123
Nsbag2
(g3
g4
Ntp1807
Rp1808
(dp1809
g8
g11
sg101
Nsg102
(dp1810
sg104
Nsg26
g29
sg105
(lp1811
I18
aI6
asg107
Nsg108
VTractate Sofrim 18:6
p1812
sg110
(lp1813
sg112
g62
sg113
Nsg114
(lp1814
I18
aI6
asg116
Nsg117
g1812
sg118
(lp1815
sg120
g46
sg121
Nsg122
Nsg123
Nsbag2
(g3
g4
Ntp1816
Rp1817
(dp1818
g8
g11
sg101
Nsg102
(dp1819
sg104
Nsg26
g29
sg105
(lp1820
I18
aI7
asg107
Nsg108
VTractate Sofrim 18:7
p1821
sg110
(lp1822
sg112
g62
sg113
Nsg114
(lp1823
I18
aI7
asg116
Nsg117
g1821
sg118
(lp1824
sg120
g46
sg121
Nsg122
Nsg123
Nsbag2
(g3
g4
Ntp1825
Rp1826
(dp1827
g8
g11
sg101
Nsg102
(dp1828
sg104
Nsg26
g29
sg105
(lp1829
I18
aI8
asg107
Nsg108
VTractate Sofrim 18:8
p1830
sg110
(lp1831
sg112
g62
sg113
Nsg114
(lp1832
I18
aI8
asg116
Nsg117
g1830
sg118
(lp1833
sg120
g46
sg121
Nsg122
Nsg123
Nsbag2
(g3
g4
Ntp1834
Rp1835
(dp1836
g8
g11
sg101
Nsg102
(dp1837
sg104
Nsg26
g29
sg105
(lp1838
I19
aI1
asg107
Nsg108
VTractate Sofrim 19:1
p1839
sg110
(lp1840
sg112
g62
sg113
Nsg114
(lp1841
I19
aI1
asg116
Nsg117
g1839
sg118
(lp1842
sg120
g46
sg121
Nsg122
Nsg123
Nsbag2
(g3
g4
Ntp1843
Rp1844
(dp1845
g8
g11
sg101
Nsg102
(dp1846
sg104
Nsg26
g29
sg105
(lp1847
I19
aI2
asg107
Nsg108
VTractate Sofrim 19:2
p1848
sg110
(lp1849
sg112
g62
sg113
Nsg114
(lp1850
I19
aI2
asg116
Nsg117
g1848
sg118
(lp1851
sg120
g46
sg121
Nsg122
Nsg123
Nsbag2
(g3
g4
Ntp1852
Rp1853
(dp1854
g8
g11
sg101
Nsg102
(dp1855
sg104
Nsg26
g29
sg105
(lp1856
I19
aI3
asg107
Nsg108
VTractate Sofrim 19:3
p1857
sg110
(lp1858
sg112
g62
sg113
Nsg114
(lp1859
I19
aI3
asg116
Nsg117
g1857
sg118
(lp1860
sg120
g46
sg121
Nsg122
Nsg123
Nsbag2
(g3
g4
Ntp1861
Rp1862
(dp1863
g8
g11
sg101
Nsg102
(dp1864
sg104
Nsg26
g29
sg105
(lp1865
I19
aI4
asg107
Nsg108
VTractate Sofrim 19:4
p1866
sg110
(lp1867
sg112
g62
sg113
Nsg114
(lp1868
I19
aI4
asg116
Nsg117
g1866
sg118
(lp1869
sg120
g46
sg121
Nsg122
Nsg123
Nsbag2
(g3
g4
Ntp1870
Rp1871
(dp1872
g8
g11
sg101
Nsg102
(dp1873
sg104
Nsg26
g29
sg105
(lp1874
I19
aI5
asg107
Nsg108
VTractate Sofrim 19:5
p1875
sg110
(lp1876
sg112
g62
sg113
Nsg114
(lp1877
I19
aI5
asg116
Nsg117
g1875
sg118
(lp1878
sg120
g46
sg121
Nsg122
Nsg123
Nsbag2
(g3
g4
Ntp1879
Rp1880
(dp1881
g8
g11
sg101
Nsg102
(dp1882
sg104
Nsg26
g29
sg105
(lp1883
I19
aI6
asg107
Nsg108
VTractate Sofrim 19:6
p1884
sg110
(lp1885
sg112
g62
sg113
Nsg114
(lp1886
I19
aI6
asg116
Nsg117
g1884
sg118
(lp1887
sg120
g46
sg121
Nsg122
Nsg123
Nsbag2
(g3
g4
Ntp1888
Rp1889
(dp1890
g8
g11
sg101
Nsg102
(dp1891
sg104
Nsg26
g29
sg105
(lp1892
I19
aI7
asg107
Nsg108
VTractate Sofrim 19:7
p1893
sg110
(lp1894
sg112
g62
sg113
Nsg114
(lp1895
I19
aI7
asg116
Nsg117
g1893
sg118
(lp1896
sg120
g46
sg121
Nsg122
Nsg123
Nsbag2
(g3
g4
Ntp1897
Rp1898
(dp1899
g8
g11
sg101
Nsg102
(dp1900
sg104
Nsg26
g29
sg105
(lp1901
I19
aI8
asg107
Nsg108
VTractate Sofrim 19:8
p1902
sg110
(lp1903
sg112
g62
sg113
Nsg114
(lp1904
I19
aI8
asg116
Nsg117
g1902
sg118
(lp1905
sg120
g46
sg121
Nsg122
Nsg123
Nsbag2
(g3
g4
Ntp1906
Rp1907
(dp1908
g8
g11
sg101
Nsg102
(dp1909
sg104
Nsg26
g29
sg105
(lp1910
I19
aI9
asg107
Nsg108
VTractate Sofrim 19:9
p1911
sg110
(lp1912
sg112
g62
sg113
Nsg114
(lp1913
I19
aI9
asg116
Nsg117
g1911
sg118
(lp1914
sg120
g46
sg121
Nsg122
Nsg123
Nsbag2
(g3
g4
Ntp1915
Rp1916
(dp1917
g8
g11
sg101
Nsg102
(dp1918
sg104
Nsg26
g29
sg105
(lp1919
I19
aI10
asg107
Nsg108
VTractate Sofrim 19:10
p1920
sg110
(lp1921
sg112
g62
sg113
Nsg114
(lp1922
I19
aI10
asg116
Nsg117
g1920
sg118
(lp1923
sg120
g46
sg121
Nsg122
Nsg123
Nsbag2
(g3
g4
Ntp1924
Rp1925
(dp1926
g8
g11
sg101
Nsg102
(dp1927
sg104
Nsg26
g29
sg105
(lp1928
I19
aI11
asg107
Nsg108
VTractate Sofrim 19:11
p1929
sg110
(lp1930
sg112
g62
sg113
Nsg114
(lp1931
I19
aI11
asg116
Nsg117
g1929
sg118
(lp1932
sg120
g46
sg121
Nsg122
Nsg123
Nsbag2
(g3
g4
Ntp1933
Rp1934
(dp1935
g8
g11
sg101
Nsg102
(dp1936
sg104
Nsg26
g29
sg105
(lp1937
I19
aI12
asg107
Nsg108
VTractate Sofrim 19:12
p1938
sg110
(lp1939
sg112
g62
sg113
Nsg114
(lp1940
I19
aI12
asg116
Nsg117
g1938
sg118
(lp1941
sg120
g46
sg121
Nsg122
Nsg123
Nsbag2
(g3
g4
Ntp1942
Rp1943
(dp1944
g8
g11
sg101
Nsg102
(dp1945
sg104
Nsg26
g29
sg105
(lp1946
I20
aI1
asg107
Nsg108
VTractate Sofrim 20:1
p1947
sg110
(lp1948
sg112
g62
sg113
Nsg114
(lp1949
I20
aI1
asg116
Nsg117
g1947
sg118
(lp1950
sg120
g46
sg121
Nsg122
Nsg123
Nsbag2
(g3
g4
Ntp1951
Rp1952
(dp1953
g8
g11
sg101
Nsg102
(dp1954
sg104
Nsg26
g29
sg105
(lp1955
I20
aI2
asg107
Nsg108
VTractate Sofrim 20:2
p1956
sg110
(lp1957
sg112
g62
sg113
Nsg114
(lp1958
I20
aI2
asg116
Nsg117
g1956
sg118
(lp1959
sg120
g46
sg121
Nsg122
Nsg123
Nsbag2
(g3
g4
Ntp1960
Rp1961
(dp1962
g8
g11
sg101
Nsg102
(dp1963
sg104
Nsg26
g29
sg105
(lp1964
I20
aI3
asg107
Nsg108
VTractate Sofrim 20:3
p1965
sg110
(lp1966
sg112
g62
sg113
Nsg114
(lp1967
I20
aI3
asg116
Nsg117
g1965
sg118
(lp1968
sg120
g46
sg121
Nsg122
Nsg123
Nsbag2
(g3
g4
Ntp1969
Rp1970
(dp1971
g8
g11
sg101
Nsg102
(dp1972
sg104
Nsg26
g29
sg105
(lp1973
I20
aI4
asg107
Nsg108
VTractate Sofrim 20:4
p1974
sg110
(lp1975
sg112
g62
sg113
Nsg114
(lp1976
I20
aI4
asg116
Nsg117
g1974
sg118
(lp1977
sg120
g46
sg121
Nsg122
Nsg123
Nsbag2
(g3
g4
Ntp1978
Rp1979
(dp1980
g8
g11
sg101
Nsg102
(dp1981
sg104
Nsg26
g29
sg105
(lp1982
I20
aI5
asg107
Nsg108
VTractate Sofrim 20:5
p1983
sg110
(lp1984
sg112
g62
sg113
Nsg114
(lp1985
I20
aI5
asg116
Nsg117
g1983
sg118
(lp1986
sg120
g46
sg121
Nsg122
Nsg123
Nsbag2
(g3
g4
Ntp1987
Rp1988
(dp1989
g8
g11
sg101
Nsg102
(dp1990
sg104
Nsg26
g29
sg105
(lp1991
I20
aI6
asg107
Nsg108
VTractate Sofrim 20:6
p1992
sg110
(lp1993
sg112
g62
sg113
Nsg114
(lp1994
I20
aI6
asg116
Nsg117
g1992
sg118
(lp1995
sg120
g46
sg121
Nsg122
Nsg123
Nsbag2
(g3
g4
Ntp1996
Rp1997
(dp1998
g8
g11
sg101
Nsg102
(dp1999
sg104
Nsg26
g29
sg105
(lp2000
I20
aI7
asg107
Nsg108
VTractate Sofrim 20:7
p2001
sg110
(lp2002
sg112
g62
sg113
Nsg114
(lp2003
I20
aI7
asg116
Nsg117
g2001
sg118
(lp2004
sg120
g46
sg121
Nsg122
Nsg123
Nsbag2
(g3
g4
Ntp2005
Rp2006
(dp2007
g8
g11
sg101
Nsg102
(dp2008
sg104
Nsg26
g29
sg105
(lp2009
I20
aI8
asg107
Nsg108
VTractate Sofrim 20:8
p2010
sg110
(lp2011
sg112
g62
sg113
Nsg114
(lp2012
I20
aI8
asg116
Nsg117
g2010
sg118
(lp2013
sg120
g46
sg121
Nsg122
Nsg123
Nsbag2
(g3
g4
Ntp2014
Rp2015
(dp2016
g8
g11
sg101
Nsg102
(dp2017
sg104
Nsg26
g29
sg105
(lp2018
I20
aI9
asg107
Nsg108
VTractate Sofrim 20:9
p2019
sg110
(lp2020
sg112
g62
sg113
Nsg114
(lp2021
I20
aI9
asg116
Nsg117
g2019
sg118
(lp2022
sg120
g46
sg121
Nsg122
Nsg123
Nsbag2
(g3
g4
Ntp2023
Rp2024
(dp2025
g8
g11
sg101
Nsg102
(dp2026
sg104
Nsg26
g29
sg105
(lp2027
I20
aI10
asg107
Nsg108
VTractate Sofrim 20:10
p2028
sg110
(lp2029
sg112
g62
sg113
Nsg114
(lp2030
I20
aI10
asg116
Nsg117
g2028
sg118
(lp2031
sg120
g46
sg121
Nsg122
Nsg123
Nsbag2
(g3
g4
Ntp2032
Rp2033
(dp2034
g8
g11
sg101
Nsg102
(dp2035
sg104
Nsg26
g29
sg105
(lp2036
I20
aI11
asg107
Nsg108
VTractate Sofrim 20:11
p2037
sg110
(lp2038
sg112
g62
sg113
Nsg114
(lp2039
I20
aI11
asg116
Nsg117
g2037
sg118
(lp2040
sg120
g46
sg121
Nsg122
Nsg123
Nsbag2
(g3
g4
Ntp2041
Rp2042
(dp2043
g8
g11
sg101
Nsg102
(dp2044
sg104
Nsg26
g29
sg105
(lp2045
I21
aI1
asg107
Nsg108
VTractate Sofrim 21:1
p2046
sg110
(lp2047
sg112
g62
sg113
Nsg114
(lp2048
I21
aI1
asg116
Nsg117
g2046
sg118
(lp2049
sg120
g46
sg121
Nsg122
Nsg123
Nsbag2
(g3
g4
Ntp2050
Rp2051
(dp2052
g8
g11
sg101
Nsg102
(dp2053
sg104
Nsg26
g29
sg105
(lp2054
I21
aI2
asg107
Nsg108
VTractate Sofrim 21:2
p2055
sg110
(lp2056
sg112
g62
sg113
Nsg114
(lp2057
I21
aI2
asg116
Nsg117
g2055
sg118
(lp2058
sg120
g46
sg121
Nsg122
Nsg123
Nsbag2
(g3
g4
Ntp2059
Rp2060
(dp2061
g8
g11
sg101
Nsg102
(dp2062
sg104
Nsg26
g29
sg105
(lp2063
I21
aI3
asg107
Nsg108
VTractate Sofrim 21:3
p2064
sg110
(lp2065
sg112
g62
sg113
Nsg114
(lp2066
I21
aI3
asg116
Nsg117
g2064
sg118
(lp2067
sg120
g46
sg121
Nsg122
Nsg123
Nsbag2
(g3
g4
Ntp2068
Rp2069
(dp2070
g8
g11
sg101
Nsg102
(dp2071
sg104
Nsg26
g29
sg105
(lp2072
I21
aI4
asg107
Nsg108
VTractate Sofrim 21:4
p2073
sg110
(lp2074
sg112
g62
sg113
Nsg114
(lp2075
I21
aI4
asg116
Nsg117
g2073
sg118
(lp2076
sg120
g46
sg121
Nsg122
Nsg123
Nsbag2
(g3
g4
Ntp2077
Rp2078
(dp2079
g8
g11
sg101
Nsg102
(dp2080
sg104
Nsg26
g29
sg105
(lp2081
I21
aI5
asg107
Nsg108
VTractate Sofrim 21:5
p2082
sg110
(lp2083
sg112
g62
sg113
Nsg114
(lp2084
I21
aI5
asg116
Nsg117
g2082
sg118
(lp2085
sg120
g46
sg121
Nsg122
Nsg123
Nsbag2
(g3
g4
Ntp2086
Rp2087
(dp2088
g8
g11
sg101
Nsg102
(dp2089
sg104
Nsg26
g29
sg105
(lp2090
I21
aI6
asg107
Nsg108
VTractate Sofrim 21:6
p2091
sg110
(lp2092
sg112
g62
sg113
Nsg114
(lp2093
I21
aI6
asg116
Nsg117
g2091
sg118
(lp2094
sg120
g46
sg121
Nsg122
Nsg123
Nsbag2
(g3
g4
Ntp2095
Rp2096
(dp2097
g8
g11
sg101
Nsg102
(dp2098
sg104
Nsg26
g29
sg105
(lp2099
I21
aI7
asg107
Nsg108
VTractate Sofrim 21:7
p2100
sg110
(lp2101
sg112
g62
sg113
Nsg114
(lp2102
I21
aI7
asg116
Nsg117
g2100
sg118
(lp2103
sg120
g46
sg121
Nsg122
Nsg123
Nsbag2
(g3
g4
Ntp2104
Rp2105
(dp2106
g8
g11
sg101
Nsg102
(dp2107
sg104
Nsg26
g29
sg105
(lp2108
I21
aI8
asg107
Nsg108
VTractate Sofrim 21:8
p2109
sg110
(lp2110
sg112
g62
sg113
Nsg114
(lp2111
I21
aI8
asg116
Nsg117
g2109
sg118
(lp2112
sg120
g46
sg121
Nsg122
Nsg123
Nsbag2
(g3
g4
Ntp2113
Rp2114
(dp2115
g8
g11
sg101
Nsg102
(dp2116
sg104
Nsg26
g29
sg105
(lp2117
I21
aI9
asg107
Nsg108
VTractate Sofrim 21:9
p2118
sg110
(lp2119
sg112
g62
sg113
Nsg114
(lp2120
I21
aI9
asg116
Nsg117
g2118
sg118
(lp2121
sg120
g46
sg121
Nsg122
Nsg123
Nsbatp2122
.