((lp0
I0
aI250
aI549
a(lp1
ccopy_reg
_reconstructor
p2
(csefaria.model.text
Ref
p3
c__builtin__
object
p4
Ntp5
Rp6
(dp7
S'index_node'
p8
g2
(csefaria.model.schema
JaggedArrayNode
p9
g4
Ntp10
Rp11
(dp12
S'_address'
p13
(lp14
VTractate Avadim
p15
asS'_full_titles'
p16
(dp17
sVnodeType
p18
VJaggedArrayNode
p19
sS'parent'
p20
NsVaddressTypes
p21
(lp22
VInteger
p23
aVInteger
p24
asS'default'
p25
I00
sS'index'
p26
g2
(csefaria.model.text
Index
p27
g4
Ntp28
Rp29
(dp30
S'pkeys_orig_values'
p31
(dp32
S'title'
p33
VTractate Avadim
p34
ssS'struct_objs'
p35
(dp36
sS'nodes'
p37
g11
sS'_id'
p38
g2
(cbson.objectid
ObjectId
p39
g4
Ntp40
Rp41
S'Xl\xb8J\x19\xab\x88f\xbc\xa4\x99\x03'
p42
bsS'_title'
p43
g34
sS'categories'
p44
(lp45
VMasechtot Ketanot
p46
asS'schema'
p47
(dp48
g18
g19
sg21
g22
sVdepth
p49
I2
sVtitles
p50
(lp51
(dp52
Vlang
p53
Vhe
p54
sVtext
p55
V\u05de\u05e1\u05db\u05ea \u05e2\u05d1\u05d3\u05d9\u05dd
p56
sVprimary
p57
I01
sa(dp58
Vlang
p59
Ven
p60
sVtext
p61
VTractate Avadim
p62
sVprimary
p63
I01
sasVkey
p64
g15
sVsectionNames
p65
(lp66
VChapter
p67
aVHalakhah
p68
assbsS'_primary_title'
p69
(dp70
sS'title_group'
p71
g2
(csefaria.model.schema
TitleGroup
p72
g4
Ntp73
Rp74
(dp75
g69
(dp76
S'en'
p77
g62
ssS'titles'
p78
g51
sbsS'_addressTypes'
p79
(lp80
g2
(csefaria.model.schema
AddressInteger
p81
g4
Ntp82
Rp83
(dp84
S'length'
p85
NsS'order'
p86
I0
sbag2
(g81
g4
Ntp87
Rp88
(dp89
g85
Nsg86
I1
sbasS'sharedTitle'
p90
Nsg49
I2
sS'_full_title'
p91
(dp92
g77
g62
ssS'key'
p93
g15
sS'checkFirst'
p94
NsS'_regexes'
p95
(dp96
sS'_leaf_nodes'
p97
(lp98
sg65
g66
sS'children'
p99
(lp100
sbsS'_range_index'
p101
NsS'_context'
p102
(dp103
sS'_padded'
p104
Nsg26
g29
sS'sections'
p105
(lp106
I1
aI1
asS'_first_spanned_ref'
p107
NsS'tref'
p108
VTractate Avadim 1:1
p109
sS'_spanned_refs'
p110
(lp111
sS'book'
p112
g62
sS'_range_depth'
p113
NsS'toSections'
p114
(lp115
I1
aI1
asS'_url'
p116
NsS'_normal'
p117
g109
sS'_ranged_refs'
p118
(lp119
sS'type'
p120
g46
sS'_prev'
p121
NsS'_he_normal'
p122
NsS'_next'
p123
Nsbag2
(g3
g4
Ntp124
Rp125
(dp126
g8
g11
sg101
Nsg102
(dp127
sg104
Nsg26
g29
sg105
(lp128
I2
aI1
asg107
Nsg108
VTractate Avadim 2:1
p129
sg110
(lp130
sg112
g62
sg113
Nsg114
(lp131
I2
aI1
asg116
Nsg117
g129
sg118
(lp132
sg120
g46
sg121
Nsg122
Nsg123
Nsbag2
(g3
g4
Ntp133
Rp134
(dp135
g8
g11
sg101
Nsg102
(dp136
sg104
Nsg26
g29
sg105
(lp137
I3
aI1
asg107
Nsg108
VTractate Avadim 3:1
p138
sg110
(lp139
sg112
g62
sg113
Nsg114
(lp140
I3
aI1
asg116
Nsg117
g138
sg118
(lp141
sg120
g46
sg121
Nsg122
Nsg123
Nsbatp142
.