((lp0
I0
aI14
aI19
aI33
aI59
aI65
aI89
aI110
aI129
aI142
aI154
aI169
aI190
aI200
aI215
aI229
aI246
aI264
aI271
aI288
aI292
aI323
aI331
aI344
aI353
aI368
aI379
aI394
aI400
aI417
aI431
aI442
aI460
aI471
aI480
aI494
aI512
aI520
aI539
aI554
aI559
aI584
aI603
aI628
aI642
aI651
aI676
aI685
aI694
aI707
aI726
aI741
aI746
aI759
aI779
aI790
aI805
aI814
aI824
aI831
aI846
aI866
aI887
aI900
aI911
aI921
aI935
aI955
aI964
aI976
aI990
aI998
aI1007
aI1015
aI1029
aI1046
aI1058
aI1073
aI1078
aI1097
aI1108
aI1125
aI1146
aI1156
aI1174
aI1188
aI1200
aI1219
aI1225
aI1243
aI1252
aI1270
aI1276
aI1289
aI1301
aI1309
aI1331
aI1342
aI1358
aI1363
aI1374
aI1391
aI1405
aI1412
aI1429
aI1441
aI1455
aI1476
aI1499
aI1510
aI1531
aI1549
aI1564
aI1577
aI1591
aI1610
aI1616
aI1637
aI1647
aI1666
aI1680
aI1703
aI1717
aI1726
aI1736
aI1745
aI1761
aI1767
aI1782
aI1796
aI1817
aI1836
aI1846
aI1856
aI1872
aI1885
aI1901
aI1914
aI1924
aI1939
aI1960
aI1981
aI1993
aI2006
aI2026
aI2039
aI2047
aI2055
aI2068
aI2084
aI2090
aI2096
aI2112
aI2125
aI2132
aI2146
aI2171
aI2191
aI2204
aI2217
aI2232
aI2245
aI2259
aI2279
aI2292
aI2301
aI2324
aI2342
aI2357
aI2374
aI2393
aI2414
aI2425
aI2451
aI2468
aI2487
aI2498
aI2523
aI2533
aI2550
aI2561
aI2569
aI2580
aI2604
aI2626
aI2640
aI2651
aI2661
aI2679
aI2692
aI2717
aI2724
aI2748
aI2757
aI2784
aI2808
aI2817
aI2832
aI2850
aI2863
aI2888
aI2897
aI2922
aI2939
aI2952
aI2967
aI2987
aI3004
aI3027
aI3041
aI3056
a(lp1
ccopy_reg
_reconstructor
p2
(csefaria.model.text
Ref
p3
c__builtin__
object
p4
Ntp5
Rp6
(dp7
S'index_node'
p8
g2
(csefaria.model.schema
JaggedArrayNode
p9
g4
Ntp10
Rp11
(dp12
S'_address'
p13
(lp14
VZechariah
p15
asS'_full_titles'
p16
(dp17
sVnodeType
p18
VJaggedArrayNode
p19
sS'parent'
p20
NsVaddressTypes
p21
(lp22
VInteger
p23
aVInteger
p24
asS'default'
p25
I00
sS'index'
p26
g2
(csefaria.model.text
Index
p27
g4
Ntp28
Rp29
(dp30
S'_id'
p31
g2
(cbson.objectid
ObjectId
p32
g4
Ntp33
Rp34
S'NJ\xb8l\xed\xba\xb4X3\x00\x00\x18'
p35
bsS'pkeys_orig_values'
p36
(dp37
S'title'
p38
VZechariah
p39
ssS'pubDate'
p40
V1488
p41
sS'compDate'
p42
V-450
p43
sS'pubPlace'
p44
VSoncino
p45
sS'compPlace'
p46
VSecond Temple Judea
p47
sS'enDesc'
p48
VThe Book of Zechariah is the eleventh of the Tere Asar (Twelve Minor Prophets). The term denotes the short length of the text in relation to the longer prophetic texts known as the Major Prophets. Zechariah\u2019s ministry took place during the reign of Darius the Great (Zechariah 1:1), and was contemporary with Haggai in a post-exilic world after the fall of Jerusalem. Zechariah is specific about dating his writing 520\u2013518 BCE. Chapters 1 to 6 recall the nation's history, for the purpose of presenting a solemn warning to the present generation. Chapters 7 and 8, delivered two years later, are an answer to the question whether the days of mourning for the destruction of the city should be kept any longer, and an encouraging address to the people, assuring them of God's presence and blessing. Chapters 9 to 14 consist of two \u201cprophecies\u201d or "burdens". The first prophecy (ch. 9-11) gives an outline of the course of God's providential dealings with his people down to the time of the coming of the Messiah. The second prophecy (ch. 12\u201314) points out the glories that await Israel in "the latter day", the final conflict and triumph of God's kingdom.
p49
sS'order'
p50
(lp51
I25
aI20
asS'struct_objs'
p52
(dp53
sS'nodes'
p54
g11
sS'errorMargin'
p55
V70
p56
sS'_title'
p57
g39
sS'categories'
p58
(lp59
VTanakh
p60
aVProphets
p61
asS'schema'
p62
(dp63
g18
g19
sg21
g22
sVlengths
p64
(lp65
I14
aI211
asVdepth
p66
I2
sVtitles
p67
(lp68
(dp69
Vlang
p70
Ven
p71
sVtext
p72
VZech.
p73
sa(dp74
Vlang
p75
Ven
p76
sVtext
p77
VZech
p78
sa(dp79
Vlang
p80
Ven
p81
sVtext
p82
VZachariah
p83
sa(dp84
Vlang
p85
Ven
p86
sVtext
p87
VZekharia
p88
sa(dp89
Vlang
p90
Ven
p91
sVtext
p92
VZekharya
p93
sa(dp94
Vlang
p95
Ven
p96
sVtext
p97
VZecharia
p98
sa(dp99
Vlang
p100
Vhe
p101
sVtext
p102
V\u05d6\u05db\u05e8\u05d9\u05d4
p103
sVprimary
p104
I01
sa(dp105
Vlang
p106
Vhe
p107
sVtext
p108
V\u05d6\u05db\u05e8\u05d9'
p109
sa(dp110
Vlang
p111
Ven
p112
sVtext
p113
VZechariah
p114
sVprimary
p115
I01
sasVkey
p116
g15
sVsectionNames
p117
(lp118
VChapter
p119
aVVerse
p120
assbsS'_primary_title'
p121
(dp122
sS'title_group'
p123
g2
(csefaria.model.schema
TitleGroup
p124
g4
Ntp125
Rp126
(dp127
g121
(dp128
S'en'
p129
g114
ssS'titles'
p130
g68
sbsS'_addressTypes'
p131
(lp132
g2
(csefaria.model.schema
AddressInteger
p133
g4
Ntp134
Rp135
(dp136
S'length'
p137
I14
sg50
I0
sbag2
(g133
g4
Ntp138
Rp139
(dp140
g137
Nsg50
I1
sbasS'sharedTitle'
p141
Nsg64
g65
sg66
I2
sS'_full_title'
p142
(dp143
g129
g114
ssS'key'
p144
g15
sS'checkFirst'
p145
NsS'_regexes'
p146
(dp147
sS'_leaf_nodes'
p148
(lp149
sg117
g118
sS'children'
p150
(lp151
sbsS'_range_index'
p152
NsS'_context'
p153
(dp154
sS'_padded'
p155
Nsg26
g29
sS'sections'
p156
(lp157
I1
aI1
asS'_first_spanned_ref'
p158
NsS'tref'
p159
VZechariah 1:1
p160
sS'_spanned_refs'
p161
(lp162
sS'book'
p163
g114
sS'_range_depth'
p164
NsS'toSections'
p165
(lp166
I1
aI1
asS'_url'
p167
NsS'_normal'
p168
g160
sS'_ranged_refs'
p169
(lp170
sS'type'
p171
g60
sS'_prev'
p172
NsS'_he_normal'
p173
NsS'_next'
p174
Nsbag2
(g3
g4
Ntp175
Rp176
(dp177
g8
g11
sg152
Nsg153
(dp178
sg155
Nsg26
g29
sg156
(lp179
I1
aI2
asg158
Nsg159
VZechariah 1:2
p180
sg161
(lp181
sg163
g114
sg164
Nsg165
(lp182
I1
aI2
asg167
Nsg168
g180
sg169
(lp183
sg171
g60
sg172
Nsg173
Nsg174
Nsbag2
(g3
g4
Ntp184
Rp185
(dp186
g8
g11
sg152
Nsg153
(dp187
sg155
Nsg26
g29
sg156
(lp188
I1
aI3
asg158
Nsg159
VZechariah 1:3
p189
sg161
(lp190
sg163
g114
sg164
Nsg165
(lp191
I1
aI3
asg167
Nsg168
g189
sg169
(lp192
sg171
g60
sg172
Nsg173
Nsg174
Nsbag2
(g3
g4
Ntp193
Rp194
(dp195
g8
g11
sg152
Nsg153
(dp196
sg155
Nsg26
g29
sg156
(lp197
I1
aI4
asg158
Nsg159
VZechariah 1:4
p198
sg161
(lp199
sg163
g114
sg164
Nsg165
(lp200
I1
aI4
asg167
Nsg168
g198
sg169
(lp201
sg171
g60
sg172
Nsg173
Nsg174
Nsbag2
(g3
g4
Ntp202
Rp203
(dp204
g8
g11
sg152
Nsg153
(dp205
sg155
Nsg26
g29
sg156
(lp206
I1
aI5
asg158
Nsg159
VZechariah 1:5
p207
sg161
(lp208
sg163
g114
sg164
Nsg165
(lp209
I1
aI5
asg167
Nsg168
g207
sg169
(lp210
sg171
g60
sg172
Nsg173
Nsg174
Nsbag2
(g3
g4
Ntp211
Rp212
(dp213
g8
g11
sg152
Nsg153
(dp214
sg155
Nsg26
g29
sg156
(lp215
I1
aI6
asg158
Nsg159
VZechariah 1:6
p216
sg161
(lp217
sg163
g114
sg164
Nsg165
(lp218
I1
aI6
asg167
Nsg168
g216
sg169
(lp219
sg171
g60
sg172
Nsg173
Nsg174
Nsbag2
(g3
g4
Ntp220
Rp221
(dp222
g8
g11
sg152
Nsg153
(dp223
sg155
Nsg26
g29
sg156
(lp224
I1
aI7
asg158
Nsg159
VZechariah 1:7
p225
sg161
(lp226
sg163
g114
sg164
Nsg165
(lp227
I1
aI7
asg167
Nsg168
g225
sg169
(lp228
sg171
g60
sg172
Nsg173
Nsg174
Nsbag2
(g3
g4
Ntp229
Rp230
(dp231
g8
g11
sg152
Nsg153
(dp232
sg155
Nsg26
g29
sg156
(lp233
I1
aI8
asg158
Nsg159
VZechariah 1:8
p234
sg161
(lp235
sg163
g114
sg164
Nsg165
(lp236
I1
aI8
asg167
Nsg168
g234
sg169
(lp237
sg171
g60
sg172
Nsg173
Nsg174
Nsbag2
(g3
g4
Ntp238
Rp239
(dp240
g8
g11
sg152
Nsg153
(dp241
sg155
Nsg26
g29
sg156
(lp242
I1
aI9
asg158
Nsg159
VZechariah 1:9
p243
sg161
(lp244
sg163
g114
sg164
Nsg165
(lp245
I1
aI9
asg167
Nsg168
g243
sg169
(lp246
sg171
g60
sg172
Nsg173
Nsg174
Nsbag2
(g3
g4
Ntp247
Rp248
(dp249
g8
g11
sg152
Nsg153
(dp250
sg155
Nsg26
g29
sg156
(lp251
I1
aI10
asg158
Nsg159
VZechariah 1:10
p252
sg161
(lp253
sg163
g114
sg164
Nsg165
(lp254
I1
aI10
asg167
Nsg168
g252
sg169
(lp255
sg171
g60
sg172
Nsg173
Nsg174
Nsbag2
(g3
g4
Ntp256
Rp257
(dp258
g8
g11
sg152
Nsg153
(dp259
sg155
Nsg26
g29
sg156
(lp260
I1
aI11
asg158
Nsg159
VZechariah 1:11
p261
sg161
(lp262
sg163
g114
sg164
Nsg165
(lp263
I1
aI11
asg167
Nsg168
g261
sg169
(lp264
sg171
g60
sg172
Nsg173
Nsg174
Nsbag2
(g3
g4
Ntp265
Rp266
(dp267
g8
g11
sg152
Nsg153
(dp268
sg155
Nsg26
g29
sg156
(lp269
I1
aI12
asg158
Nsg159
VZechariah 1:12
p270
sg161
(lp271
sg163
g114
sg164
Nsg165
(lp272
I1
aI12
asg167
Nsg168
g270
sg169
(lp273
sg171
g60
sg172
Nsg173
Nsg174
Nsbag2
(g3
g4
Ntp274
Rp275
(dp276
g8
g11
sg152
Nsg153
(dp277
sg155
Nsg26
g29
sg156
(lp278
I1
aI13
asg158
Nsg159
VZechariah 1:13
p279
sg161
(lp280
sg163
g114
sg164
Nsg165
(lp281
I1
aI13
asg167
Nsg168
g279
sg169
(lp282
sg171
g60
sg172
Nsg173
Nsg174
Nsbag2
(g3
g4
Ntp283
Rp284
(dp285
g8
g11
sg152
Nsg153
(dp286
sg155
Nsg26
g29
sg156
(lp287
I1
aI14
asg158
Nsg159
VZechariah 1:14
p288
sg161
(lp289
sg163
g114
sg164
Nsg165
(lp290
I1
aI14
asg167
Nsg168
g288
sg169
(lp291
sg171
g60
sg172
Nsg173
Nsg174
Nsbag2
(g3
g4
Ntp292
Rp293
(dp294
g8
g11
sg152
Nsg153
(dp295
sg155
Nsg26
g29
sg156
(lp296
I1
aI15
asg158
Nsg159
VZechariah 1:15
p297
sg161
(lp298
sg163
g114
sg164
Nsg165
(lp299
I1
aI15
asg167
Nsg168
g297
sg169
(lp300
sg171
g60
sg172
Nsg173
Nsg174
Nsbag2
(g3
g4
Ntp301
Rp302
(dp303
g8
g11
sg152
Nsg153
(dp304
sg155
Nsg26
g29
sg156
(lp305
I1
aI16
asg158
Nsg159
VZechariah 1:16
p306
sg161
(lp307
sg163
g114
sg164
Nsg165
(lp308
I1
aI16
asg167
Nsg168
g306
sg169
(lp309
sg171
g60
sg172
Nsg173
Nsg174
Nsbag2
(g3
g4
Ntp310
Rp311
(dp312
g8
g11
sg152
Nsg153
(dp313
sg155
Nsg26
g29
sg156
(lp314
I1
aI17
asg158
Nsg159
VZechariah 1:17
p315
sg161
(lp316
sg163
g114
sg164
Nsg165
(lp317
I1
aI17
asg167
Nsg168
g315
sg169
(lp318
sg171
g60
sg172
Nsg173
Nsg174
Nsbag2
(g3
g4
Ntp319
Rp320
(dp321
g8
g11
sg152
Nsg153
(dp322
sg155
Nsg26
g29
sg156
(lp323
I2
aI1
asg158
Nsg159
VZechariah 2:1
p324
sg161
(lp325
sg163
g114
sg164
Nsg165
(lp326
I2
aI1
asg167
Nsg168
g324
sg169
(lp327
sg171
g60
sg172
Nsg173
Nsg174
Nsbag2
(g3
g4
Ntp328
Rp329
(dp330
g8
g11
sg152
Nsg153
(dp331
sg155
Nsg26
g29
sg156
(lp332
I2
aI2
asg158
Nsg159
VZechariah 2:2
p333
sg161
(lp334
sg163
g114
sg164
Nsg165
(lp335
I2
aI2
asg167
Nsg168
g333
sg169
(lp336
sg171
g60
sg172
Nsg173
Nsg174
Nsbag2
(g3
g4
Ntp337
Rp338
(dp339
g8
g11
sg152
Nsg153
(dp340
sg155
Nsg26
g29
sg156
(lp341
I2
aI3
asg158
Nsg159
VZechariah 2:3
p342
sg161
(lp343
sg163
g114
sg164
Nsg165
(lp344
I2
aI3
asg167
Nsg168
g342
sg169
(lp345
sg171
g60
sg172
Nsg173
Nsg174
Nsbag2
(g3
g4
Ntp346
Rp347
(dp348
g8
g11
sg152
Nsg153
(dp349
sg155
Nsg26
g29
sg156
(lp350
I2
aI4
asg158
Nsg159
VZechariah 2:4
p351
sg161
(lp352
sg163
g114
sg164
Nsg165
(lp353
I2
aI4
asg167
Nsg168
g351
sg169
(lp354
sg171
g60
sg172
Nsg173
Nsg174
Nsbag2
(g3
g4
Ntp355
Rp356
(dp357
g8
g11
sg152
Nsg153
(dp358
sg155
Nsg26
g29
sg156
(lp359
I2
aI5
asg158
Nsg159
VZechariah 2:5
p360
sg161
(lp361
sg163
g114
sg164
Nsg165
(lp362
I2
aI5
asg167
Nsg168
g360
sg169
(lp363
sg171
g60
sg172
Nsg173
Nsg174
Nsbag2
(g3
g4
Ntp364
Rp365
(dp366
g8
g11
sg152
Nsg153
(dp367
sg155
Nsg26
g29
sg156
(lp368
I2
aI6
asg158
Nsg159
VZechariah 2:6
p369
sg161
(lp370
sg163
g114
sg164
Nsg165
(lp371
I2
aI6
asg167
Nsg168
g369
sg169
(lp372
sg171
g60
sg172
Nsg173
Nsg174
Nsbag2
(g3
g4
Ntp373
Rp374
(dp375
g8
g11
sg152
Nsg153
(dp376
sg155
Nsg26
g29
sg156
(lp377
I2
aI7
asg158
Nsg159
VZechariah 2:7
p378
sg161
(lp379
sg163
g114
sg164
Nsg165
(lp380
I2
aI7
asg167
Nsg168
g378
sg169
(lp381
sg171
g60
sg172
Nsg173
Nsg174
Nsbag2
(g3
g4
Ntp382
Rp383
(dp384
g8
g11
sg152
Nsg153
(dp385
sg155
Nsg26
g29
sg156
(lp386
I2
aI8
asg158
Nsg159
VZechariah 2:8
p387
sg161
(lp388
sg163
g114
sg164
Nsg165
(lp389
I2
aI8
asg167
Nsg168
g387
sg169
(lp390
sg171
g60
sg172
Nsg173
Nsg174
Nsbag2
(g3
g4
Ntp391
Rp392
(dp393
g8
g11
sg152
Nsg153
(dp394
sg155
Nsg26
g29
sg156
(lp395
I2
aI9
asg158
Nsg159
VZechariah 2:9
p396
sg161
(lp397
sg163
g114
sg164
Nsg165
(lp398
I2
aI9
asg167
Nsg168
g396
sg169
(lp399
sg171
g60
sg172
Nsg173
Nsg174
Nsbag2
(g3
g4
Ntp400
Rp401
(dp402
g8
g11
sg152
Nsg153
(dp403
sg155
Nsg26
g29
sg156
(lp404
I2
aI10
asg158
Nsg159
VZechariah 2:10
p405
sg161
(lp406
sg163
g114
sg164
Nsg165
(lp407
I2
aI10
asg167
Nsg168
g405
sg169
(lp408
sg171
g60
sg172
Nsg173
Nsg174
Nsbag2
(g3
g4
Ntp409
Rp410
(dp411
g8
g11
sg152
Nsg153
(dp412
sg155
Nsg26
g29
sg156
(lp413
I2
aI11
asg158
Nsg159
VZechariah 2:11
p414
sg161
(lp415
sg163
g114
sg164
Nsg165
(lp416
I2
aI11
asg167
Nsg168
g414
sg169
(lp417
sg171
g60
sg172
Nsg173
Nsg174
Nsbag2
(g3
g4
Ntp418
Rp419
(dp420
g8
g11
sg152
Nsg153
(dp421
sg155
Nsg26
g29
sg156
(lp422
I2
aI12
asg158
Nsg159
VZechariah 2:12
p423
sg161
(lp424
sg163
g114
sg164
Nsg165
(lp425
I2
aI12
asg167
Nsg168
g423
sg169
(lp426
sg171
g60
sg172
Nsg173
Nsg174
Nsbag2
(g3
g4
Ntp427
Rp428
(dp429
g8
g11
sg152
Nsg153
(dp430
sg155
Nsg26
g29
sg156
(lp431
I2
aI13
asg158
Nsg159
VZechariah 2:13
p432
sg161
(lp433
sg163
g114
sg164
Nsg165
(lp434
I2
aI13
asg167
Nsg168
g432
sg169
(lp435
sg171
g60
sg172
Nsg173
Nsg174
Nsbag2
(g3
g4
Ntp436
Rp437
(dp438
g8
g11
sg152
Nsg153
(dp439
sg155
Nsg26
g29
sg156
(lp440
I2
aI14
asg158
Nsg159
VZechariah 2:14
p441
sg161
(lp442
sg163
g114
sg164
Nsg165
(lp443
I2
aI14
asg167
Nsg168
g441
sg169
(lp444
sg171
g60
sg172
Nsg173
Nsg174
Nsbag2
(g3
g4
Ntp445
Rp446
(dp447
g8
g11
sg152
Nsg153
(dp448
sg155
Nsg26
g29
sg156
(lp449
I2
aI15
asg158
Nsg159
VZechariah 2:15
p450
sg161
(lp451
sg163
g114
sg164
Nsg165
(lp452
I2
aI15
asg167
Nsg168
g450
sg169
(lp453
sg171
g60
sg172
Nsg173
Nsg174
Nsbag2
(g3
g4
Ntp454
Rp455
(dp456
g8
g11
sg152
Nsg153
(dp457
sg155
Nsg26
g29
sg156
(lp458
I2
aI16
asg158
Nsg159
VZechariah 2:16
p459
sg161
(lp460
sg163
g114
sg164
Nsg165
(lp461
I2
aI16
asg167
Nsg168
g459
sg169
(lp462
sg171
g60
sg172
Nsg173
Nsg174
Nsbag2
(g3
g4
Ntp463
Rp464
(dp465
g8
g11
sg152
Nsg153
(dp466
sg155
Nsg26
g29
sg156
(lp467
I2
aI17
asg158
Nsg159
VZechariah 2:17
p468
sg161
(lp469
sg163
g114
sg164
Nsg165
(lp470
I2
aI17
asg167
Nsg168
g468
sg169
(lp471
sg171
g60
sg172
Nsg173
Nsg174
Nsbag2
(g3
g4
Ntp472
Rp473
(dp474
g8
g11
sg152
Nsg153
(dp475
sg155
Nsg26
g29
sg156
(lp476
I3
aI1
asg158
Nsg159
VZechariah 3:1
p477
sg161
(lp478
sg163
g114
sg164
Nsg165
(lp479
I3
aI1
asg167
Nsg168
g477
sg169
(lp480
sg171
g60
sg172
Nsg173
Nsg174
Nsbag2
(g3
g4
Ntp481
Rp482
(dp483
g8
g11
sg152
Nsg153
(dp484
sg155
Nsg26
g29
sg156
(lp485
I3
aI2
asg158
Nsg159
VZechariah 3:2
p486
sg161
(lp487
sg163
g114
sg164
Nsg165
(lp488
I3
aI2
asg167
Nsg168
g486
sg169
(lp489
sg171
g60
sg172
Nsg173
Nsg174
Nsbag2
(g3
g4
Ntp490
Rp491
(dp492
g8
g11
sg152
Nsg153
(dp493
sg155
Nsg26
g29
sg156
(lp494
I3
aI3
asg158
Nsg159
VZechariah 3:3
p495
sg161
(lp496
sg163
g114
sg164
Nsg165
(lp497
I3
aI3
asg167
Nsg168
g495
sg169
(lp498
sg171
g60
sg172
Nsg173
Nsg174
Nsbag2
(g3
g4
Ntp499
Rp500
(dp501
g8
g11
sg152
Nsg153
(dp502
sg155
Nsg26
g29
sg156
(lp503
I3
aI4
asg158
Nsg159
VZechariah 3:4
p504
sg161
(lp505
sg163
g114
sg164
Nsg165
(lp506
I3
aI4
asg167
Nsg168
g504
sg169
(lp507
sg171
g60
sg172
Nsg173
Nsg174
Nsbag2
(g3
g4
Ntp508
Rp509
(dp510
g8
g11
sg152
Nsg153
(dp511
sg155
Nsg26
g29
sg156
(lp512
I3
aI5
asg158
Nsg159
VZechariah 3:5
p513
sg161
(lp514
sg163
g114
sg164
Nsg165
(lp515
I3
aI5
asg167
Nsg168
g513
sg169
(lp516
sg171
g60
sg172
Nsg173
Nsg174
Nsbag2
(g3
g4
Ntp517
Rp518
(dp519
g8
g11
sg152
Nsg153
(dp520
sg155
Nsg26
g29
sg156
(lp521
I3
aI6
asg158
Nsg159
VZechariah 3:6
p522
sg161
(lp523
sg163
g114
sg164
Nsg165
(lp524
I3
aI6
asg167
Nsg168
g522
sg169
(lp525
sg171
g60
sg172
Nsg173
Nsg174
Nsbag2
(g3
g4
Ntp526
Rp527
(dp528
g8
g11
sg152
Nsg153
(dp529
sg155
Nsg26
g29
sg156
(lp530
I3
aI7
asg158
Nsg159
VZechariah 3:7
p531
sg161
(lp532
sg163
g114
sg164
Nsg165
(lp533
I3
aI7
asg167
Nsg168
g531
sg169
(lp534
sg171
g60
sg172
Nsg173
Nsg174
Nsbag2
(g3
g4
Ntp535
Rp536
(dp537
g8
g11
sg152
Nsg153
(dp538
sg155
Nsg26
g29
sg156
(lp539
I3
aI8
asg158
Nsg159
VZechariah 3:8
p540
sg161
(lp541
sg163
g114
sg164
Nsg165
(lp542
I3
aI8
asg167
Nsg168
g540
sg169
(lp543
sg171
g60
sg172
Nsg173
Nsg174
Nsbag2
(g3
g4
Ntp544
Rp545
(dp546
g8
g11
sg152
Nsg153
(dp547
sg155
Nsg26
g29
sg156
(lp548
I3
aI9
asg158
Nsg159
VZechariah 3:9
p549
sg161
(lp550
sg163
g114
sg164
Nsg165
(lp551
I3
aI9
asg167
Nsg168
g549
sg169
(lp552
sg171
g60
sg172
Nsg173
Nsg174
Nsbag2
(g3
g4
Ntp553
Rp554
(dp555
g8
g11
sg152
Nsg153
(dp556
sg155
Nsg26
g29
sg156
(lp557
I3
aI10
asg158
Nsg159
VZechariah 3:10
p558
sg161
(lp559
sg163
g114
sg164
Nsg165
(lp560
I3
aI10
asg167
Nsg168
g558
sg169
(lp561
sg171
g60
sg172
Nsg173
Nsg174
Nsbag2
(g3
g4
Ntp562
Rp563
(dp564
g8
g11
sg152
Nsg153
(dp565
sg155
Nsg26
g29
sg156
(lp566
I4
aI1
asg158
Nsg159
VZechariah 4:1
p567
sg161
(lp568
sg163
g114
sg164
Nsg165
(lp569
I4
aI1
asg167
Nsg168
g567
sg169
(lp570
sg171
g60
sg172
Nsg173
Nsg174
Nsbag2
(g3
g4
Ntp571
Rp572
(dp573
g8
g11
sg152
Nsg153
(dp574
sg155
Nsg26
g29
sg156
(lp575
I4
aI2
asg158
Nsg159
VZechariah 4:2
p576
sg161
(lp577
sg163
g114
sg164
Nsg165
(lp578
I4
aI2
asg167
Nsg168
g576
sg169
(lp579
sg171
g60
sg172
Nsg173
Nsg174
Nsbag2
(g3
g4
Ntp580
Rp581
(dp582
g8
g11
sg152
Nsg153
(dp583
sg155
Nsg26
g29
sg156
(lp584
I4
aI3
asg158
Nsg159
VZechariah 4:3
p585
sg161
(lp586
sg163
g114
sg164
Nsg165
(lp587
I4
aI3
asg167
Nsg168
g585
sg169
(lp588
sg171
g60
sg172
Nsg173
Nsg174
Nsbag2
(g3
g4
Ntp589
Rp590
(dp591
g8
g11
sg152
Nsg153
(dp592
sg155
Nsg26
g29
sg156
(lp593
I4
aI4
asg158
Nsg159
VZechariah 4:4
p594
sg161
(lp595
sg163
g114
sg164
Nsg165
(lp596
I4
aI4
asg167
Nsg168
g594
sg169
(lp597
sg171
g60
sg172
Nsg173
Nsg174
Nsbag2
(g3
g4
Ntp598
Rp599
(dp600
g8
g11
sg152
Nsg153
(dp601
sg155
Nsg26
g29
sg156
(lp602
I4
aI5
asg158
Nsg159
VZechariah 4:5
p603
sg161
(lp604
sg163
g114
sg164
Nsg165
(lp605
I4
aI5
asg167
Nsg168
g603
sg169
(lp606
sg171
g60
sg172
Nsg173
Nsg174
Nsbag2
(g3
g4
Ntp607
Rp608
(dp609
g8
g11
sg152
Nsg153
(dp610
sg155
Nsg26
g29
sg156
(lp611
I4
aI6
asg158
Nsg159
VZechariah 4:6
p612
sg161
(lp613
sg163
g114
sg164
Nsg165
(lp614
I4
aI6
asg167
Nsg168
g612
sg169
(lp615
sg171
g60
sg172
Nsg173
Nsg174
Nsbag2
(g3
g4
Ntp616
Rp617
(dp618
g8
g11
sg152
Nsg153
(dp619
sg155
Nsg26
g29
sg156
(lp620
I4
aI7
asg158
Nsg159
VZechariah 4:7
p621
sg161
(lp622
sg163
g114
sg164
Nsg165
(lp623
I4
aI7
asg167
Nsg168
g621
sg169
(lp624
sg171
g60
sg172
Nsg173
Nsg174
Nsbag2
(g3
g4
Ntp625
Rp626
(dp627
g8
g11
sg152
Nsg153
(dp628
sg155
Nsg26
g29
sg156
(lp629
I4
aI8
asg158
Nsg159
VZechariah 4:8
p630
sg161
(lp631
sg163
g114
sg164
Nsg165
(lp632
I4
aI8
asg167
Nsg168
g630
sg169
(lp633
sg171
g60
sg172
Nsg173
Nsg174
Nsbag2
(g3
g4
Ntp634
Rp635
(dp636
g8
g11
sg152
Nsg153
(dp637
sg155
Nsg26
g29
sg156
(lp638
I4
aI9
asg158
Nsg159
VZechariah 4:9
p639
sg161
(lp640
sg163
g114
sg164
Nsg165
(lp641
I4
aI9
asg167
Nsg168
g639
sg169
(lp642
sg171
g60
sg172
Nsg173
Nsg174
Nsbag2
(g3
g4
Ntp643
Rp644
(dp645
g8
g11
sg152
Nsg153
(dp646
sg155
Nsg26
g29
sg156
(lp647
I4
aI10
asg158
Nsg159
VZechariah 4:10
p648
sg161
(lp649
sg163
g114
sg164
Nsg165
(lp650
I4
aI10
asg167
Nsg168
g648
sg169
(lp651
sg171
g60
sg172
Nsg173
Nsg174
Nsbag2
(g3
g4
Ntp652
Rp653
(dp654
g8
g11
sg152
Nsg153
(dp655
sg155
Nsg26
g29
sg156
(lp656
I4
aI11
asg158
Nsg159
VZechariah 4:11
p657
sg161
(lp658
sg163
g114
sg164
Nsg165
(lp659
I4
aI11
asg167
Nsg168
g657
sg169
(lp660
sg171
g60
sg172
Nsg173
Nsg174
Nsbag2
(g3
g4
Ntp661
Rp662
(dp663
g8
g11
sg152
Nsg153
(dp664
sg155
Nsg26
g29
sg156
(lp665
I4
aI12
asg158
Nsg159
VZechariah 4:12
p666
sg161
(lp667
sg163
g114
sg164
Nsg165
(lp668
I4
aI12
asg167
Nsg168
g666
sg169
(lp669
sg171
g60
sg172
Nsg173
Nsg174
Nsbag2
(g3
g4
Ntp670
Rp671
(dp672
g8
g11
sg152
Nsg153
(dp673
sg155
Nsg26
g29
sg156
(lp674
I4
aI13
asg158
Nsg159
VZechariah 4:13
p675
sg161
(lp676
sg163
g114
sg164
Nsg165
(lp677
I4
aI13
asg167
Nsg168
g675
sg169
(lp678
sg171
g60
sg172
Nsg173
Nsg174
Nsbag2
(g3
g4
Ntp679
Rp680
(dp681
g8
g11
sg152
Nsg153
(dp682
sg155
Nsg26
g29
sg156
(lp683
I4
aI14
asg158
Nsg159
VZechariah 4:14
p684
sg161
(lp685
sg163
g114
sg164
Nsg165
(lp686
I4
aI14
asg167
Nsg168
g684
sg169
(lp687
sg171
g60
sg172
Nsg173
Nsg174
Nsbag2
(g3
g4
Ntp688
Rp689
(dp690
g8
g11
sg152
Nsg153
(dp691
sg155
Nsg26
g29
sg156
(lp692
I5
aI1
asg158
Nsg159
VZechariah 5:1
p693
sg161
(lp694
sg163
g114
sg164
Nsg165
(lp695
I5
aI1
asg167
Nsg168
g693
sg169
(lp696
sg171
g60
sg172
Nsg173
Nsg174
Nsbag2
(g3
g4
Ntp697
Rp698
(dp699
g8
g11
sg152
Nsg153
(dp700
sg155
Nsg26
g29
sg156
(lp701
I5
aI2
asg158
Nsg159
VZechariah 5:2
p702
sg161
(lp703
sg163
g114
sg164
Nsg165
(lp704
I5
aI2
asg167
Nsg168
g702
sg169
(lp705
sg171
g60
sg172
Nsg173
Nsg174
Nsbag2
(g3
g4
Ntp706
Rp707
(dp708
g8
g11
sg152
Nsg153
(dp709
sg155
Nsg26
g29
sg156
(lp710
I5
aI3
asg158
Nsg159
VZechariah 5:3
p711
sg161
(lp712
sg163
g114
sg164
Nsg165
(lp713
I5
aI3
asg167
Nsg168
g711
sg169
(lp714
sg171
g60
sg172
Nsg173
Nsg174
Nsbag2
(g3
g4
Ntp715
Rp716
(dp717
g8
g11
sg152
Nsg153
(dp718
sg155
Nsg26
g29
sg156
(lp719
I5
aI4
asg158
Nsg159
VZechariah 5:4
p720
sg161
(lp721
sg163
g114
sg164
Nsg165
(lp722
I5
aI4
asg167
Nsg168
g720
sg169
(lp723
sg171
g60
sg172
Nsg173
Nsg174
Nsbag2
(g3
g4
Ntp724
Rp725
(dp726
g8
g11
sg152
Nsg153
(dp727
sg155
Nsg26
g29
sg156
(lp728
I5
aI5
asg158
Nsg159
VZechariah 5:5
p729
sg161
(lp730
sg163
g114
sg164
Nsg165
(lp731
I5
aI5
asg167
Nsg168
g729
sg169
(lp732
sg171
g60
sg172
Nsg173
Nsg174
Nsbag2
(g3
g4
Ntp733
Rp734
(dp735
g8
g11
sg152
Nsg153
(dp736
sg155
Nsg26
g29
sg156
(lp737
I5
aI6
asg158
Nsg159
VZechariah 5:6
p738
sg161
(lp739
sg163
g114
sg164
Nsg165
(lp740
I5
aI6
asg167
Nsg168
g738
sg169
(lp741
sg171
g60
sg172
Nsg173
Nsg174
Nsbag2
(g3
g4
Ntp742
Rp743
(dp744
g8
g11
sg152
Nsg153
(dp745
sg155
Nsg26
g29
sg156
(lp746
I5
aI7
asg158
Nsg159
VZechariah 5:7
p747
sg161
(lp748
sg163
g114
sg164
Nsg165
(lp749
I5
aI7
asg167
Nsg168
g747
sg169
(lp750
sg171
g60
sg172
Nsg173
Nsg174
Nsbag2
(g3
g4
Ntp751
Rp752
(dp753
g8
g11
sg152
Nsg153
(dp754
sg155
Nsg26
g29
sg156
(lp755
I5
aI8
asg158
Nsg159
VZechariah 5:8
p756
sg161
(lp757
sg163
g114
sg164
Nsg165
(lp758
I5
aI8
asg167
Nsg168
g756
sg169
(lp759
sg171
g60
sg172
Nsg173
Nsg174
Nsbag2
(g3
g4
Ntp760
Rp761
(dp762
g8
g11
sg152
Nsg153
(dp763
sg155
Nsg26
g29
sg156
(lp764
I5
aI9
asg158
Nsg159
VZechariah 5:9
p765
sg161
(lp766
sg163
g114
sg164
Nsg165
(lp767
I5
aI9
asg167
Nsg168
g765
sg169
(lp768
sg171
g60
sg172
Nsg173
Nsg174
Nsbag2
(g3
g4
Ntp769
Rp770
(dp771
g8
g11
sg152
Nsg153
(dp772
sg155
Nsg26
g29
sg156
(lp773
I5
aI10
asg158
Nsg159
VZechariah 5:10
p774
sg161
(lp775
sg163
g114
sg164
Nsg165
(lp776
I5
aI10
asg167
Nsg168
g774
sg169
(lp777
sg171
g60
sg172
Nsg173
Nsg174
Nsbag2
(g3
g4
Ntp778
Rp779
(dp780
g8
g11
sg152
Nsg153
(dp781
sg155
Nsg26
g29
sg156
(lp782
I5
aI11
asg158
Nsg159
VZechariah 5:11
p783
sg161
(lp784
sg163
g114
sg164
Nsg165
(lp785
I5
aI11
asg167
Nsg168
g783
sg169
(lp786
sg171
g60
sg172
Nsg173
Nsg174
Nsbag2
(g3
g4
Ntp787
Rp788
(dp789
g8
g11
sg152
Nsg153
(dp790
sg155
Nsg26
g29
sg156
(lp791
I6
aI1
asg158
Nsg159
VZechariah 6:1
p792
sg161
(lp793
sg163
g114
sg164
Nsg165
(lp794
I6
aI1
asg167
Nsg168
g792
sg169
(lp795
sg171
g60
sg172
Nsg173
Nsg174
Nsbag2
(g3
g4
Ntp796
Rp797
(dp798
g8
g11
sg152
Nsg153
(dp799
sg155
Nsg26
g29
sg156
(lp800
I6
aI2
asg158
Nsg159
VZechariah 6:2
p801
sg161
(lp802
sg163
g114
sg164
Nsg165
(lp803
I6
aI2
asg167
Nsg168
g801
sg169
(lp804
sg171
g60
sg172
Nsg173
Nsg174
Nsbag2
(g3
g4
Ntp805
Rp806
(dp807
g8
g11
sg152
Nsg153
(dp808
sg155
Nsg26
g29
sg156
(lp809
I6
aI3
asg158
Nsg159
VZechariah 6:3
p810
sg161
(lp811
sg163
g114
sg164
Nsg165
(lp812
I6
aI3
asg167
Nsg168
g810
sg169
(lp813
sg171
g60
sg172
Nsg173
Nsg174
Nsbag2
(g3
g4
Ntp814
Rp815
(dp816
g8
g11
sg152
Nsg153
(dp817
sg155
Nsg26
g29
sg156
(lp818
I6
aI4
asg158
Nsg159
VZechariah 6:4
p819
sg161
(lp820
sg163
g114
sg164
Nsg165
(lp821
I6
aI4
asg167
Nsg168
g819
sg169
(lp822
sg171
g60
sg172
Nsg173
Nsg174
Nsbag2
(g3
g4
Ntp823
Rp824
(dp825
g8
g11
sg152
Nsg153
(dp826
sg155
Nsg26
g29
sg156
(lp827
I6
aI5
asg158
Nsg159
VZechariah 6:5
p828
sg161
(lp829
sg163
g114
sg164
Nsg165
(lp830
I6
aI5
asg167
Nsg168
g828
sg169
(lp831
sg171
g60
sg172
Nsg173
Nsg174
Nsbag2
(g3
g4
Ntp832
Rp833
(dp834
g8
g11
sg152
Nsg153
(dp835
sg155
Nsg26
g29
sg156
(lp836
I6
aI6
asg158
Nsg159
VZechariah 6:6
p837
sg161
(lp838
sg163
g114
sg164
Nsg165
(lp839
I6
aI6
asg167
Nsg168
g837
sg169
(lp840
sg171
g60
sg172
Nsg173
Nsg174
Nsbag2
(g3
g4
Ntp841
Rp842
(dp843
g8
g11
sg152
Nsg153
(dp844
sg155
Nsg26
g29
sg156
(lp845
I6
aI7
asg158
Nsg159
VZechariah 6:7
p846
sg161
(lp847
sg163
g114
sg164
Nsg165
(lp848
I6
aI7
asg167
Nsg168
g846
sg169
(lp849
sg171
g60
sg172
Nsg173
Nsg174
Nsbag2
(g3
g4
Ntp850
Rp851
(dp852
g8
g11
sg152
Nsg153
(dp853
sg155
Nsg26
g29
sg156
(lp854
I6
aI8
asg158
Nsg159
VZechariah 6:8
p855
sg161
(lp856
sg163
g114
sg164
Nsg165
(lp857
I6
aI8
asg167
Nsg168
g855
sg169
(lp858
sg171
g60
sg172
Nsg173
Nsg174
Nsbag2
(g3
g4
Ntp859
Rp860
(dp861
g8
g11
sg152
Nsg153
(dp862
sg155
Nsg26
g29
sg156
(lp863
I6
aI9
asg158
Nsg159
VZechariah 6:9
p864
sg161
(lp865
sg163
g114
sg164
Nsg165
(lp866
I6
aI9
asg167
Nsg168
g864
sg169
(lp867
sg171
g60
sg172
Nsg173
Nsg174
Nsbag2
(g3
g4
Ntp868
Rp869
(dp870
g8
g11
sg152
Nsg153
(dp871
sg155
Nsg26
g29
sg156
(lp872
I6
aI10
asg158
Nsg159
VZechariah 6:10
p873
sg161
(lp874
sg163
g114
sg164
Nsg165
(lp875
I6
aI10
asg167
Nsg168
g873
sg169
(lp876
sg171
g60
sg172
Nsg173
Nsg174
Nsbag2
(g3
g4
Ntp877
Rp878
(dp879
g8
g11
sg152
Nsg153
(dp880
sg155
Nsg26
g29
sg156
(lp881
I6
aI11
asg158
Nsg159
VZechariah 6:11
p882
sg161
(lp883
sg163
g114
sg164
Nsg165
(lp884
I6
aI11
asg167
Nsg168
g882
sg169
(lp885
sg171
g60
sg172
Nsg173
Nsg174
Nsbag2
(g3
g4
Ntp886
Rp887
(dp888
g8
g11
sg152
Nsg153
(dp889
sg155
Nsg26
g29
sg156
(lp890
I6
aI12
asg158
Nsg159
VZechariah 6:12
p891
sg161
(lp892
sg163
g114
sg164
Nsg165
(lp893
I6
aI12
asg167
Nsg168
g891
sg169
(lp894
sg171
g60
sg172
Nsg173
Nsg174
Nsbag2
(g3
g4
Ntp895
Rp896
(dp897
g8
g11
sg152
Nsg153
(dp898
sg155
Nsg26
g29
sg156
(lp899
I6
aI13
asg158
Nsg159
VZechariah 6:13
p900
sg161
(lp901
sg163
g114
sg164
Nsg165
(lp902
I6
aI13
asg167
Nsg168
g900
sg169
(lp903
sg171
g60
sg172
Nsg173
Nsg174
Nsbag2
(g3
g4
Ntp904
Rp905
(dp906
g8
g11
sg152
Nsg153
(dp907
sg155
Nsg26
g29
sg156
(lp908
I6
aI14
asg158
Nsg159
VZechariah 6:14
p909
sg161
(lp910
sg163
g114
sg164
Nsg165
(lp911
I6
aI14
asg167
Nsg168
g909
sg169
(lp912
sg171
g60
sg172
Nsg173
Nsg174
Nsbag2
(g3
g4
Ntp913
Rp914
(dp915
g8
g11
sg152
Nsg153
(dp916
sg155
Nsg26
g29
sg156
(lp917
I6
aI15
asg158
Nsg159
VZechariah 6:15
p918
sg161
(lp919
sg163
g114
sg164
Nsg165
(lp920
I6
aI15
asg167
Nsg168
g918
sg169
(lp921
sg171
g60
sg172
Nsg173
Nsg174
Nsbag2
(g3
g4
Ntp922
Rp923
(dp924
g8
g11
sg152
Nsg153
(dp925
sg155
Nsg26
g29
sg156
(lp926
I7
aI1
asg158
Nsg159
VZechariah 7:1
p927
sg161
(lp928
sg163
g114
sg164
Nsg165
(lp929
I7
aI1
asg167
Nsg168
g927
sg169
(lp930
sg171
g60
sg172
Nsg173
Nsg174
Nsbag2
(g3
g4
Ntp931
Rp932
(dp933
g8
g11
sg152
Nsg153
(dp934
sg155
Nsg26
g29
sg156
(lp935
I7
aI2
asg158
Nsg159
VZechariah 7:2
p936
sg161
(lp937
sg163
g114
sg164
Nsg165
(lp938
I7
aI2
asg167
Nsg168
g936
sg169
(lp939
sg171
g60
sg172
Nsg173
Nsg174
Nsbag2
(g3
g4
Ntp940
Rp941
(dp942
g8
g11
sg152
Nsg153
(dp943
sg155
Nsg26
g29
sg156
(lp944
I7
aI3
asg158
Nsg159
VZechariah 7:3
p945
sg161
(lp946
sg163
g114
sg164
Nsg165
(lp947
I7
aI3
asg167
Nsg168
g945
sg169
(lp948
sg171
g60
sg172
Nsg173
Nsg174
Nsbag2
(g3
g4
Ntp949
Rp950
(dp951
g8
g11
sg152
Nsg153
(dp952
sg155
Nsg26
g29
sg156
(lp953
I7
aI4
asg158
Nsg159
VZechariah 7:4
p954
sg161
(lp955
sg163
g114
sg164
Nsg165
(lp956
I7
aI4
asg167
Nsg168
g954
sg169
(lp957
sg171
g60
sg172
Nsg173
Nsg174
Nsbag2
(g3
g4
Ntp958
Rp959
(dp960
g8
g11
sg152
Nsg153
(dp961
sg155
Nsg26
g29
sg156
(lp962
I7
aI5
asg158
Nsg159
VZechariah 7:5
p963
sg161
(lp964
sg163
g114
sg164
Nsg165
(lp965
I7
aI5
asg167
Nsg168
g963
sg169
(lp966
sg171
g60
sg172
Nsg173
Nsg174
Nsbag2
(g3
g4
Ntp967
Rp968
(dp969
g8
g11
sg152
Nsg153
(dp970
sg155
Nsg26
g29
sg156
(lp971
I7
aI6
asg158
Nsg159
VZechariah 7:6
p972
sg161
(lp973
sg163
g114
sg164
Nsg165
(lp974
I7
aI6
asg167
Nsg168
g972
sg169
(lp975
sg171
g60
sg172
Nsg173
Nsg174
Nsbag2
(g3
g4
Ntp976
Rp977
(dp978
g8
g11
sg152
Nsg153
(dp979
sg155
Nsg26
g29
sg156
(lp980
I7
aI7
asg158
Nsg159
VZechariah 7:7
p981
sg161
(lp982
sg163
g114
sg164
Nsg165
(lp983
I7
aI7
asg167
Nsg168
g981
sg169
(lp984
sg171
g60
sg172
Nsg173
Nsg174
Nsbag2
(g3
g4
Ntp985
Rp986
(dp987
g8
g11
sg152
Nsg153
(dp988
sg155
Nsg26
g29
sg156
(lp989
I7
aI8
asg158
Nsg159
VZechariah 7:8
p990
sg161
(lp991
sg163
g114
sg164
Nsg165
(lp992
I7
aI8
asg167
Nsg168
g990
sg169
(lp993
sg171
g60
sg172
Nsg173
Nsg174
Nsbag2
(g3
g4
Ntp994
Rp995
(dp996
g8
g11
sg152
Nsg153
(dp997
sg155
Nsg26
g29
sg156
(lp998
I7
aI9
asg158
Nsg159
VZechariah 7:9
p999
sg161
(lp1000
sg163
g114
sg164
Nsg165
(lp1001
I7
aI9
asg167
Nsg168
g999
sg169
(lp1002
sg171
g60
sg172
Nsg173
Nsg174
Nsbag2
(g3
g4
Ntp1003
Rp1004
(dp1005
g8
g11
sg152
Nsg153
(dp1006
sg155
Nsg26
g29
sg156
(lp1007
I7
aI10
asg158
Nsg159
VZechariah 7:10
p1008
sg161
(lp1009
sg163
g114
sg164
Nsg165
(lp1010
I7
aI10
asg167
Nsg168
g1008
sg169
(lp1011
sg171
g60
sg172
Nsg173
Nsg174
Nsbag2
(g3
g4
Ntp1012
Rp1013
(dp1014
g8
g11
sg152
Nsg153
(dp1015
sg155
Nsg26
g29
sg156
(lp1016
I7
aI11
asg158
Nsg159
VZechariah 7:11
p1017
sg161
(lp1018
sg163
g114
sg164
Nsg165
(lp1019
I7
aI11
asg167
Nsg168
g1017
sg169
(lp1020
sg171
g60
sg172
Nsg173
Nsg174
Nsbag2
(g3
g4
Ntp1021
Rp1022
(dp1023
g8
g11
sg152
Nsg153
(dp1024
sg155
Nsg26
g29
sg156
(lp1025
I7
aI12
asg158
Nsg159
VZechariah 7:12
p1026
sg161
(lp1027
sg163
g114
sg164
Nsg165
(lp1028
I7
aI12
asg167
Nsg168
g1026
sg169
(lp1029
sg171
g60
sg172
Nsg173
Nsg174
Nsbag2
(g3
g4
Ntp1030
Rp1031
(dp1032
g8
g11
sg152
Nsg153
(dp1033
sg155
Nsg26
g29
sg156
(lp1034
I7
aI13
asg158
Nsg159
VZechariah 7:13
p1035
sg161
(lp1036
sg163
g114
sg164
Nsg165
(lp1037
I7
aI13
asg167
Nsg168
g1035
sg169
(lp1038
sg171
g60
sg172
Nsg173
Nsg174
Nsbag2
(g3
g4
Ntp1039
Rp1040
(dp1041
g8
g11
sg152
Nsg153
(dp1042
sg155
Nsg26
g29
sg156
(lp1043
I7
aI14
asg158
Nsg159
VZechariah 7:14
p1044
sg161
(lp1045
sg163
g114
sg164
Nsg165
(lp1046
I7
aI14
asg167
Nsg168
g1044
sg169
(lp1047
sg171
g60
sg172
Nsg173
Nsg174
Nsbag2
(g3
g4
Ntp1048
Rp1049
(dp1050
g8
g11
sg152
Nsg153
(dp1051
sg155
Nsg26
g29
sg156
(lp1052
I8
aI1
asg158
Nsg159
VZechariah 8:1
p1053
sg161
(lp1054
sg163
g114
sg164
Nsg165
(lp1055
I8
aI1
asg167
Nsg168
g1053
sg169
(lp1056
sg171
g60
sg172
Nsg173
Nsg174
Nsbag2
(g3
g4
Ntp1057
Rp1058
(dp1059
g8
g11
sg152
Nsg153
(dp1060
sg155
Nsg26
g29
sg156
(lp1061
I8
aI2
asg158
Nsg159
VZechariah 8:2
p1062
sg161
(lp1063
sg163
g114
sg164
Nsg165
(lp1064
I8
aI2
asg167
Nsg168
g1062
sg169
(lp1065
sg171
g60
sg172
Nsg173
Nsg174
Nsbag2
(g3
g4
Ntp1066
Rp1067
(dp1068
g8
g11
sg152
Nsg153
(dp1069
sg155
Nsg26
g29
sg156
(lp1070
I8
aI3
asg158
Nsg159
VZechariah 8:3
p1071
sg161
(lp1072
sg163
g114
sg164
Nsg165
(lp1073
I8
aI3
asg167
Nsg168
g1071
sg169
(lp1074
sg171
g60
sg172
Nsg173
Nsg174
Nsbag2
(g3
g4
Ntp1075
Rp1076
(dp1077
g8
g11
sg152
Nsg153
(dp1078
sg155
Nsg26
g29
sg156
(lp1079
I8
aI4
asg158
Nsg159
VZechariah 8:4
p1080
sg161
(lp1081
sg163
g114
sg164
Nsg165
(lp1082
I8
aI4
asg167
Nsg168
g1080
sg169
(lp1083
sg171
g60
sg172
Nsg173
Nsg174
Nsbag2
(g3
g4
Ntp1084
Rp1085
(dp1086
g8
g11
sg152
Nsg153
(dp1087
sg155
Nsg26
g29
sg156
(lp1088
I8
aI5
asg158
Nsg159
VZechariah 8:5
p1089
sg161
(lp1090
sg163
g114
sg164
Nsg165
(lp1091
I8
aI5
asg167
Nsg168
g1089
sg169
(lp1092
sg171
g60
sg172
Nsg173
Nsg174
Nsbag2
(g3
g4
Ntp1093
Rp1094
(dp1095
g8
g11
sg152
Nsg153
(dp1096
sg155
Nsg26
g29
sg156
(lp1097
I8
aI6
asg158
Nsg159
VZechariah 8:6
p1098
sg161
(lp1099
sg163
g114
sg164
Nsg165
(lp1100
I8
aI6
asg167
Nsg168
g1098
sg169
(lp1101
sg171
g60
sg172
Nsg173
Nsg174
Nsbag2
(g3
g4
Ntp1102
Rp1103
(dp1104
g8
g11
sg152
Nsg153
(dp1105
sg155
Nsg26
g29
sg156
(lp1106
I8
aI7
asg158
Nsg159
VZechariah 8:7
p1107
sg161
(lp1108
sg163
g114
sg164
Nsg165
(lp1109
I8
aI7
asg167
Nsg168
g1107
sg169
(lp1110
sg171
g60
sg172
Nsg173
Nsg174
Nsbag2
(g3
g4
Ntp1111
Rp1112
(dp1113
g8
g11
sg152
Nsg153
(dp1114
sg155
Nsg26
g29
sg156
(lp1115
I8
aI8
asg158
Nsg159
VZechariah 8:8
p1116
sg161
(lp1117
sg163
g114
sg164
Nsg165
(lp1118
I8
aI8
asg167
Nsg168
g1116
sg169
(lp1119
sg171
g60
sg172
Nsg173
Nsg174
Nsbag2
(g3
g4
Ntp1120
Rp1121
(dp1122
g8
g11
sg152
Nsg153
(dp1123
sg155
Nsg26
g29
sg156
(lp1124
I8
aI9
asg158
Nsg159
VZechariah 8:9
p1125
sg161
(lp1126
sg163
g114
sg164
Nsg165
(lp1127
I8
aI9
asg167
Nsg168
g1125
sg169
(lp1128
sg171
g60
sg172
Nsg173
Nsg174
Nsbag2
(g3
g4
Ntp1129
Rp1130
(dp1131
g8
g11
sg152
Nsg153
(dp1132
sg155
Nsg26
g29
sg156
(lp1133
I8
aI10
asg158
Nsg159
VZechariah 8:10
p1134
sg161
(lp1135
sg163
g114
sg164
Nsg165
(lp1136
I8
aI10
asg167
Nsg168
g1134
sg169
(lp1137
sg171
g60
sg172
Nsg173
Nsg174
Nsbag2
(g3
g4
Ntp1138
Rp1139
(dp1140
g8
g11
sg152
Nsg153
(dp1141
sg155
Nsg26
g29
sg156
(lp1142
I8
aI11
asg158
Nsg159
VZechariah 8:11
p1143
sg161
(lp1144
sg163
g114
sg164
Nsg165
(lp1145
I8
aI11
asg167
Nsg168
g1143
sg169
(lp1146
sg171
g60
sg172
Nsg173
Nsg174
Nsbag2
(g3
g4
Ntp1147
Rp1148
(dp1149
g8
g11
sg152
Nsg153
(dp1150
sg155
Nsg26
g29
sg156
(lp1151
I8
aI12
asg158
Nsg159
VZechariah 8:12
p1152
sg161
(lp1153
sg163
g114
sg164
Nsg165
(lp1154
I8
aI12
asg167
Nsg168
g1152
sg169
(lp1155
sg171
g60
sg172
Nsg173
Nsg174
Nsbag2
(g3
g4
Ntp1156
Rp1157
(dp1158
g8
g11
sg152
Nsg153
(dp1159
sg155
Nsg26
g29
sg156
(lp1160
I8
aI13
asg158
Nsg159
VZechariah 8:13
p1161
sg161
(lp1162
sg163
g114
sg164
Nsg165
(lp1163
I8
aI13
asg167
Nsg168
g1161
sg169
(lp1164
sg171
g60
sg172
Nsg173
Nsg174
Nsbag2
(g3
g4
Ntp1165
Rp1166
(dp1167
g8
g11
sg152
Nsg153
(dp1168
sg155
Nsg26
g29
sg156
(lp1169
I8
aI14
asg158
Nsg159
VZechariah 8:14
p1170
sg161
(lp1171
sg163
g114
sg164
Nsg165
(lp1172
I8
aI14
asg167
Nsg168
g1170
sg169
(lp1173
sg171
g60
sg172
Nsg173
Nsg174
Nsbag2
(g3
g4
Ntp1174
Rp1175
(dp1176
g8
g11
sg152
Nsg153
(dp1177
sg155
Nsg26
g29
sg156
(lp1178
I8
aI15
asg158
Nsg159
VZechariah 8:15
p1179
sg161
(lp1180
sg163
g114
sg164
Nsg165
(lp1181
I8
aI15
asg167
Nsg168
g1179
sg169
(lp1182
sg171
g60
sg172
Nsg173
Nsg174
Nsbag2
(g3
g4
Ntp1183
Rp1184
(dp1185
g8
g11
sg152
Nsg153
(dp1186
sg155
Nsg26
g29
sg156
(lp1187
I8
aI16
asg158
Nsg159
VZechariah 8:16
p1188
sg161
(lp1189
sg163
g114
sg164
Nsg165
(lp1190
I8
aI16
asg167
Nsg168
g1188
sg169
(lp1191
sg171
g60
sg172
Nsg173
Nsg174
Nsbag2
(g3
g4
Ntp1192
Rp1193
(dp1194
g8
g11
sg152
Nsg153
(dp1195
sg155
Nsg26
g29
sg156
(lp1196
I8
aI17
asg158
Nsg159
VZechariah 8:17
p1197
sg161
(lp1198
sg163
g114
sg164
Nsg165
(lp1199
I8
aI17
asg167
Nsg168
g1197
sg169
(lp1200
sg171
g60
sg172
Nsg173
Nsg174
Nsbag2
(g3
g4
Ntp1201
Rp1202
(dp1203
g8
g11
sg152
Nsg153
(dp1204
sg155
Nsg26
g29
sg156
(lp1205
I8
aI18
asg158
Nsg159
VZechariah 8:18
p1206
sg161
(lp1207
sg163
g114
sg164
Nsg165
(lp1208
I8
aI18
asg167
Nsg168
g1206
sg169
(lp1209
sg171
g60
sg172
Nsg173
Nsg174
Nsbag2
(g3
g4
Ntp1210
Rp1211
(dp1212
g8
g11
sg152
Nsg153
(dp1213
sg155
Nsg26
g29
sg156
(lp1214
I8
aI19
asg158
Nsg159
VZechariah 8:19
p1215
sg161
(lp1216
sg163
g114
sg164
Nsg165
(lp1217
I8
aI19
asg167
Nsg168
g1215
sg169
(lp1218
sg171
g60
sg172
Nsg173
Nsg174
Nsbag2
(g3
g4
Ntp1219
Rp1220
(dp1221
g8
g11
sg152
Nsg153
(dp1222
sg155
Nsg26
g29
sg156
(lp1223
I8
aI20
asg158
Nsg159
VZechariah 8:20
p1224
sg161
(lp1225
sg163
g114
sg164
Nsg165
(lp1226
I8
aI20
asg167
Nsg168
g1224
sg169
(lp1227
sg171
g60
sg172
Nsg173
Nsg174
Nsbag2
(g3
g4
Ntp1228
Rp1229
(dp1230
g8
g11
sg152
Nsg153
(dp1231
sg155
Nsg26
g29
sg156
(lp1232
I8
aI21
asg158
Nsg159
VZechariah 8:21
p1233
sg161
(lp1234
sg163
g114
sg164
Nsg165
(lp1235
I8
aI21
asg167
Nsg168
g1233
sg169
(lp1236
sg171
g60
sg172
Nsg173
Nsg174
Nsbag2
(g3
g4
Ntp1237
Rp1238
(dp1239
g8
g11
sg152
Nsg153
(dp1240
sg155
Nsg26
g29
sg156
(lp1241
I8
aI22
asg158
Nsg159
VZechariah 8:22
p1242
sg161
(lp1243
sg163
g114
sg164
Nsg165
(lp1244
I8
aI22
asg167
Nsg168
g1242
sg169
(lp1245
sg171
g60
sg172
Nsg173
Nsg174
Nsbag2
(g3
g4
Ntp1246
Rp1247
(dp1248
g8
g11
sg152
Nsg153
(dp1249
sg155
Nsg26
g29
sg156
(lp1250
I8
aI23
asg158
Nsg159
VZechariah 8:23
p1251
sg161
(lp1252
sg163
g114
sg164
Nsg165
(lp1253
I8
aI23
asg167
Nsg168
g1251
sg169
(lp1254
sg171
g60
sg172
Nsg173
Nsg174
Nsbag2
(g3
g4
Ntp1255
Rp1256
(dp1257
g8
g11
sg152
Nsg153
(dp1258
sg155
Nsg26
g29
sg156
(lp1259
I9
aI1
asg158
Nsg159
VZechariah 9:1
p1260
sg161
(lp1261
sg163
g114
sg164
Nsg165
(lp1262
I9
aI1
asg167
Nsg168
g1260
sg169
(lp1263
sg171
g60
sg172
Nsg173
Nsg174
Nsbag2
(g3
g4
Ntp1264
Rp1265
(dp1266
g8
g11
sg152
Nsg153
(dp1267
sg155
Nsg26
g29
sg156
(lp1268
I9
aI2
asg158
Nsg159
VZechariah 9:2
p1269
sg161
(lp1270
sg163
g114
sg164
Nsg165
(lp1271
I9
aI2
asg167
Nsg168
g1269
sg169
(lp1272
sg171
g60
sg172
Nsg173
Nsg174
Nsbag2
(g3
g4
Ntp1273
Rp1274
(dp1275
g8
g11
sg152
Nsg153
(dp1276
sg155
Nsg26
g29
sg156
(lp1277
I9
aI3
asg158
Nsg159
VZechariah 9:3
p1278
sg161
(lp1279
sg163
g114
sg164
Nsg165
(lp1280
I9
aI3
asg167
Nsg168
g1278
sg169
(lp1281
sg171
g60
sg172
Nsg173
Nsg174
Nsbag2
(g3
g4
Ntp1282
Rp1283
(dp1284
g8
g11
sg152
Nsg153
(dp1285
sg155
Nsg26
g29
sg156
(lp1286
I9
aI4
asg158
Nsg159
VZechariah 9:4
p1287
sg161
(lp1288
sg163
g114
sg164
Nsg165
(lp1289
I9
aI4
asg167
Nsg168
g1287
sg169
(lp1290
sg171
g60
sg172
Nsg173
Nsg174
Nsbag2
(g3
g4
Ntp1291
Rp1292
(dp1293
g8
g11
sg152
Nsg153
(dp1294
sg155
Nsg26
g29
sg156
(lp1295
I9
aI5
asg158
Nsg159
VZechariah 9:5
p1296
sg161
(lp1297
sg163
g114
sg164
Nsg165
(lp1298
I9
aI5
asg167
Nsg168
g1296
sg169
(lp1299
sg171
g60
sg172
Nsg173
Nsg174
Nsbag2
(g3
g4
Ntp1300
Rp1301
(dp1302
g8
g11
sg152
Nsg153
(dp1303
sg155
Nsg26
g29
sg156
(lp1304
I9
aI6
asg158
Nsg159
VZechariah 9:6
p1305
sg161
(lp1306
sg163
g114
sg164
Nsg165
(lp1307
I9
aI6
asg167
Nsg168
g1305
sg169
(lp1308
sg171
g60
sg172
Nsg173
Nsg174
Nsbag2
(g3
g4
Ntp1309
Rp1310
(dp1311
g8
g11
sg152
Nsg153
(dp1312
sg155
Nsg26
g29
sg156
(lp1313
I9
aI7
asg158
Nsg159
VZechariah 9:7
p1314
sg161
(lp1315
sg163
g114
sg164
Nsg165
(lp1316
I9
aI7
asg167
Nsg168
g1314
sg169
(lp1317
sg171
g60
sg172
Nsg173
Nsg174
Nsbag2
(g3
g4
Ntp1318
Rp1319
(dp1320
g8
g11
sg152
Nsg153
(dp1321
sg155
Nsg26
g29
sg156
(lp1322
I9
aI8
asg158
Nsg159
VZechariah 9:8
p1323
sg161
(lp1324
sg163
g114
sg164
Nsg165
(lp1325
I9
aI8
asg167
Nsg168
g1323
sg169
(lp1326
sg171
g60
sg172
Nsg173
Nsg174
Nsbag2
(g3
g4
Ntp1327
Rp1328
(dp1329
g8
g11
sg152
Nsg153
(dp1330
sg155
Nsg26
g29
sg156
(lp1331
I9
aI9
asg158
Nsg159
VZechariah 9:9
p1332
sg161
(lp1333
sg163
g114
sg164
Nsg165
(lp1334
I9
aI9
asg167
Nsg168
g1332
sg169
(lp1335
sg171
g60
sg172
Nsg173
Nsg174
Nsbag2
(g3
g4
Ntp1336
Rp1337
(dp1338
g8
g11
sg152
Nsg153
(dp1339
sg155
Nsg26
g29
sg156
(lp1340
I9
aI10
asg158
Nsg159
VZechariah 9:10
p1341
sg161
(lp1342
sg163
g114
sg164
Nsg165
(lp1343
I9
aI10
asg167
Nsg168
g1341
sg169
(lp1344
sg171
g60
sg172
Nsg173
Nsg174
Nsbag2
(g3
g4
Ntp1345
Rp1346
(dp1347
g8
g11
sg152
Nsg153
(dp1348
sg155
Nsg26
g29
sg156
(lp1349
I9
aI11
asg158
Nsg159
VZechariah 9:11
p1350
sg161
(lp1351
sg163
g114
sg164
Nsg165
(lp1352
I9
aI11
asg167
Nsg168
g1350
sg169
(lp1353
sg171
g60
sg172
Nsg173
Nsg174
Nsbag2
(g3
g4
Ntp1354
Rp1355
(dp1356
g8
g11
sg152
Nsg153
(dp1357
sg155
Nsg26
g29
sg156
(lp1358
I9
aI12
asg158
Nsg159
VZechariah 9:12
p1359
sg161
(lp1360
sg163
g114
sg164
Nsg165
(lp1361
I9
aI12
asg167
Nsg168
g1359
sg169
(lp1362
sg171
g60
sg172
Nsg173
Nsg174
Nsbag2
(g3
g4
Ntp1363
Rp1364
(dp1365
g8
g11
sg152
Nsg153
(dp1366
sg155
Nsg26
g29
sg156
(lp1367
I9
aI13
asg158
Nsg159
VZechariah 9:13
p1368
sg161
(lp1369
sg163
g114
sg164
Nsg165
(lp1370
I9
aI13
asg167
Nsg168
g1368
sg169
(lp1371
sg171
g60
sg172
Nsg173
Nsg174
Nsbag2
(g3
g4
Ntp1372
Rp1373
(dp1374
g8
g11
sg152
Nsg153
(dp1375
sg155
Nsg26
g29
sg156
(lp1376
I9
aI14
asg158
Nsg159
VZechariah 9:14
p1377
sg161
(lp1378
sg163
g114
sg164
Nsg165
(lp1379
I9
aI14
asg167
Nsg168
g1377
sg169
(lp1380
sg171
g60
sg172
Nsg173
Nsg174
Nsbag2
(g3
g4
Ntp1381
Rp1382
(dp1383
g8
g11
sg152
Nsg153
(dp1384
sg155
Nsg26
g29
sg156
(lp1385
I9
aI15
asg158
Nsg159
VZechariah 9:15
p1386
sg161
(lp1387
sg163
g114
sg164
Nsg165
(lp1388
I9
aI15
asg167
Nsg168
g1386
sg169
(lp1389
sg171
g60
sg172
Nsg173
Nsg174
Nsbag2
(g3
g4
Ntp1390
Rp1391
(dp1392
g8
g11
sg152
Nsg153
(dp1393
sg155
Nsg26
g29
sg156
(lp1394
I9
aI16
asg158
Nsg159
VZechariah 9:16
p1395
sg161
(lp1396
sg163
g114
sg164
Nsg165
(lp1397
I9
aI16
asg167
Nsg168
g1395
sg169
(lp1398
sg171
g60
sg172
Nsg173
Nsg174
Nsbag2
(g3
g4
Ntp1399
Rp1400
(dp1401
g8
g11
sg152
Nsg153
(dp1402
sg155
Nsg26
g29
sg156
(lp1403
I9
aI17
asg158
Nsg159
VZechariah 9:17
p1404
sg161
(lp1405
sg163
g114
sg164
Nsg165
(lp1406
I9
aI17
asg167
Nsg168
g1404
sg169
(lp1407
sg171
g60
sg172
Nsg173
Nsg174
Nsbag2
(g3
g4
Ntp1408
Rp1409
(dp1410
g8
g11
sg152
Nsg153
(dp1411
sg155
Nsg26
g29
sg156
(lp1412
I10
aI1
asg158
Nsg159
VZechariah 10:1
p1413
sg161
(lp1414
sg163
g114
sg164
Nsg165
(lp1415
I10
aI1
asg167
Nsg168
g1413
sg169
(lp1416
sg171
g60
sg172
Nsg173
Nsg174
Nsbag2
(g3
g4
Ntp1417
Rp1418
(dp1419
g8
g11
sg152
Nsg153
(dp1420
sg155
Nsg26
g29
sg156
(lp1421
I10
aI2
asg158
Nsg159
VZechariah 10:2
p1422
sg161
(lp1423
sg163
g114
sg164
Nsg165
(lp1424
I10
aI2
asg167
Nsg168
g1422
sg169
(lp1425
sg171
g60
sg172
Nsg173
Nsg174
Nsbag2
(g3
g4
Ntp1426
Rp1427
(dp1428
g8
g11
sg152
Nsg153
(dp1429
sg155
Nsg26
g29
sg156
(lp1430
I10
aI3
asg158
Nsg159
VZechariah 10:3
p1431
sg161
(lp1432
sg163
g114
sg164
Nsg165
(lp1433
I10
aI3
asg167
Nsg168
g1431
sg169
(lp1434
sg171
g60
sg172
Nsg173
Nsg174
Nsbag2
(g3
g4
Ntp1435
Rp1436
(dp1437
g8
g11
sg152
Nsg153
(dp1438
sg155
Nsg26
g29
sg156
(lp1439
I10
aI4
asg158
Nsg159
VZechariah 10:4
p1440
sg161
(lp1441
sg163
g114
sg164
Nsg165
(lp1442
I10
aI4
asg167
Nsg168
g1440
sg169
(lp1443
sg171
g60
sg172
Nsg173
Nsg174
Nsbag2
(g3
g4
Ntp1444
Rp1445
(dp1446
g8
g11
sg152
Nsg153
(dp1447
sg155
Nsg26
g29
sg156
(lp1448
I10
aI5
asg158
Nsg159
VZechariah 10:5
p1449
sg161
(lp1450
sg163
g114
sg164
Nsg165
(lp1451
I10
aI5
asg167
Nsg168
g1449
sg169
(lp1452
sg171
g60
sg172
Nsg173
Nsg174
Nsbag2
(g3
g4
Ntp1453
Rp1454
(dp1455
g8
g11
sg152
Nsg153
(dp1456
sg155
Nsg26
g29
sg156
(lp1457
I10
aI6
asg158
Nsg159
VZechariah 10:6
p1458
sg161
(lp1459
sg163
g114
sg164
Nsg165
(lp1460
I10
aI6
asg167
Nsg168
g1458
sg169
(lp1461
sg171
g60
sg172
Nsg173
Nsg174
Nsbag2
(g3
g4
Ntp1462
Rp1463
(dp1464
g8
g11
sg152
Nsg153
(dp1465
sg155
Nsg26
g29
sg156
(lp1466
I10
aI7
asg158
Nsg159
VZechariah 10:7
p1467
sg161
(lp1468
sg163
g114
sg164
Nsg165
(lp1469
I10
aI7
asg167
Nsg168
g1467
sg169
(lp1470
sg171
g60
sg172
Nsg173
Nsg174
Nsbag2
(g3
g4
Ntp1471
Rp1472
(dp1473
g8
g11
sg152
Nsg153
(dp1474
sg155
Nsg26
g29
sg156
(lp1475
I10
aI8
asg158
Nsg159
VZechariah 10:8
p1476
sg161
(lp1477
sg163
g114
sg164
Nsg165
(lp1478
I10
aI8
asg167
Nsg168
g1476
sg169
(lp1479
sg171
g60
sg172
Nsg173
Nsg174
Nsbag2
(g3
g4
Ntp1480
Rp1481
(dp1482
g8
g11
sg152
Nsg153
(dp1483
sg155
Nsg26
g29
sg156
(lp1484
I10
aI9
asg158
Nsg159
VZechariah 10:9
p1485
sg161
(lp1486
sg163
g114
sg164
Nsg165
(lp1487
I10
aI9
asg167
Nsg168
g1485
sg169
(lp1488
sg171
g60
sg172
Nsg173
Nsg174
Nsbag2
(g3
g4
Ntp1489
Rp1490
(dp1491
g8
g11
sg152
Nsg153
(dp1492
sg155
Nsg26
g29
sg156
(lp1493
I10
aI10
asg158
Nsg159
VZechariah 10:10
p1494
sg161
(lp1495
sg163
g114
sg164
Nsg165
(lp1496
I10
aI10
asg167
Nsg168
g1494
sg169
(lp1497
sg171
g60
sg172
Nsg173
Nsg174
Nsbag2
(g3
g4
Ntp1498
Rp1499
(dp1500
g8
g11
sg152
Nsg153
(dp1501
sg155
Nsg26
g29
sg156
(lp1502
I10
aI11
asg158
Nsg159
VZechariah 10:11
p1503
sg161
(lp1504
sg163
g114
sg164
Nsg165
(lp1505
I10
aI11
asg167
Nsg168
g1503
sg169
(lp1506
sg171
g60
sg172
Nsg173
Nsg174
Nsbag2
(g3
g4
Ntp1507
Rp1508
(dp1509
g8
g11
sg152
Nsg153
(dp1510
sg155
Nsg26
g29
sg156
(lp1511
I10
aI12
asg158
Nsg159
VZechariah 10:12
p1512
sg161
(lp1513
sg163
g114
sg164
Nsg165
(lp1514
I10
aI12
asg167
Nsg168
g1512
sg169
(lp1515
sg171
g60
sg172
Nsg173
Nsg174
Nsbag2
(g3
g4
Ntp1516
Rp1517
(dp1518
g8
g11
sg152
Nsg153
(dp1519
sg155
Nsg26
g29
sg156
(lp1520
I11
aI1
asg158
Nsg159
VZechariah 11:1
p1521
sg161
(lp1522
sg163
g114
sg164
Nsg165
(lp1523
I11
aI1
asg167
Nsg168
g1521
sg169
(lp1524
sg171
g60
sg172
Nsg173
Nsg174
Nsbag2
(g3
g4
Ntp1525
Rp1526
(dp1527
g8
g11
sg152
Nsg153
(dp1528
sg155
Nsg26
g29
sg156
(lp1529
I11
aI2
asg158
Nsg159
VZechariah 11:2
p1530
sg161
(lp1531
sg163
g114
sg164
Nsg165
(lp1532
I11
aI2
asg167
Nsg168
g1530
sg169
(lp1533
sg171
g60
sg172
Nsg173
Nsg174
Nsbag2
(g3
g4
Ntp1534
Rp1535
(dp1536
g8
g11
sg152
Nsg153
(dp1537
sg155
Nsg26
g29
sg156
(lp1538
I11
aI3
asg158
Nsg159
VZechariah 11:3
p1539
sg161
(lp1540
sg163
g114
sg164
Nsg165
(lp1541
I11
aI3
asg167
Nsg168
g1539
sg169
(lp1542
sg171
g60
sg172
Nsg173
Nsg174
Nsbag2
(g3
g4
Ntp1543
Rp1544
(dp1545
g8
g11
sg152
Nsg153
(dp1546
sg155
Nsg26
g29
sg156
(lp1547
I11
aI4
asg158
Nsg159
VZechariah 11:4
p1548
sg161
(lp1549
sg163
g114
sg164
Nsg165
(lp1550
I11
aI4
asg167
Nsg168
g1548
sg169
(lp1551
sg171
g60
sg172
Nsg173
Nsg174
Nsbag2
(g3
g4
Ntp1552
Rp1553
(dp1554
g8
g11
sg152
Nsg153
(dp1555
sg155
Nsg26
g29
sg156
(lp1556
I11
aI5
asg158
Nsg159
VZechariah 11:5
p1557
sg161
(lp1558
sg163
g114
sg164
Nsg165
(lp1559
I11
aI5
asg167
Nsg168
g1557
sg169
(lp1560
sg171
g60
sg172
Nsg173
Nsg174
Nsbag2
(g3
g4
Ntp1561
Rp1562
(dp1563
g8
g11
sg152
Nsg153
(dp1564
sg155
Nsg26
g29
sg156
(lp1565
I11
aI6
asg158
Nsg159
VZechariah 11:6
p1566
sg161
(lp1567
sg163
g114
sg164
Nsg165
(lp1568
I11
aI6
asg167
Nsg168
g1566
sg169
(lp1569
sg171
g60
sg172
Nsg173
Nsg174
Nsbag2
(g3
g4
Ntp1570
Rp1571
(dp1572
g8
g11
sg152
Nsg153
(dp1573
sg155
Nsg26
g29
sg156
(lp1574
I11
aI7
asg158
Nsg159
VZechariah 11:7
p1575
sg161
(lp1576
sg163
g114
sg164
Nsg165
(lp1577
I11
aI7
asg167
Nsg168
g1575
sg169
(lp1578
sg171
g60
sg172
Nsg173
Nsg174
Nsbag2
(g3
g4
Ntp1579
Rp1580
(dp1581
g8
g11
sg152
Nsg153
(dp1582
sg155
Nsg26
g29
sg156
(lp1583
I11
aI8
asg158
Nsg159
VZechariah 11:8
p1584
sg161
(lp1585
sg163
g114
sg164
Nsg165
(lp1586
I11
aI8
asg167
Nsg168
g1584
sg169
(lp1587
sg171
g60
sg172
Nsg173
Nsg174
Nsbag2
(g3
g4
Ntp1588
Rp1589
(dp1590
g8
g11
sg152
Nsg153
(dp1591
sg155
Nsg26
g29
sg156
(lp1592
I11
aI9
asg158
Nsg159
VZechariah 11:9
p1593
sg161
(lp1594
sg163
g114
sg164
Nsg165
(lp1595
I11
aI9
asg167
Nsg168
g1593
sg169
(lp1596
sg171
g60
sg172
Nsg173
Nsg174
Nsbag2
(g3
g4
Ntp1597
Rp1598
(dp1599
g8
g11
sg152
Nsg153
(dp1600
sg155
Nsg26
g29
sg156
(lp1601
I11
aI10
asg158
Nsg159
VZechariah 11:10
p1602
sg161
(lp1603
sg163
g114
sg164
Nsg165
(lp1604
I11
aI10
asg167
Nsg168
g1602
sg169
(lp1605
sg171
g60
sg172
Nsg173
Nsg174
Nsbag2
(g3
g4
Ntp1606
Rp1607
(dp1608
g8
g11
sg152
Nsg153
(dp1609
sg155
Nsg26
g29
sg156
(lp1610
I11
aI11
asg158
Nsg159
VZechariah 11:11
p1611
sg161
(lp1612
sg163
g114
sg164
Nsg165
(lp1613
I11
aI11
asg167
Nsg168
g1611
sg169
(lp1614
sg171
g60
sg172
Nsg173
Nsg174
Nsbag2
(g3
g4
Ntp1615
Rp1616
(dp1617
g8
g11
sg152
Nsg153
(dp1618
sg155
Nsg26
g29
sg156
(lp1619
I11
aI12
asg158
Nsg159
VZechariah 11:12
p1620
sg161
(lp1621
sg163
g114
sg164
Nsg165
(lp1622
I11
aI12
asg167
Nsg168
g1620
sg169
(lp1623
sg171
g60
sg172
Nsg173
Nsg174
Nsbag2
(g3
g4
Ntp1624
Rp1625
(dp1626
g8
g11
sg152
Nsg153
(dp1627
sg155
Nsg26
g29
sg156
(lp1628
I11
aI13
asg158
Nsg159
VZechariah 11:13
p1629
sg161
(lp1630
sg163
g114
sg164
Nsg165
(lp1631
I11
aI13
asg167
Nsg168
g1629
sg169
(lp1632
sg171
g60
sg172
Nsg173
Nsg174
Nsbag2
(g3
g4
Ntp1633
Rp1634
(dp1635
g8
g11
sg152
Nsg153
(dp1636
sg155
Nsg26
g29
sg156
(lp1637
I11
aI14
asg158
Nsg159
VZechariah 11:14
p1638
sg161
(lp1639
sg163
g114
sg164
Nsg165
(lp1640
I11
aI14
asg167
Nsg168
g1638
sg169
(lp1641
sg171
g60
sg172
Nsg173
Nsg174
Nsbag2
(g3
g4
Ntp1642
Rp1643
(dp1644
g8
g11
sg152
Nsg153
(dp1645
sg155
Nsg26
g29
sg156
(lp1646
I11
aI15
asg158
Nsg159
VZechariah 11:15
p1647
sg161
(lp1648
sg163
g114
sg164
Nsg165
(lp1649
I11
aI15
asg167
Nsg168
g1647
sg169
(lp1650
sg171
g60
sg172
Nsg173
Nsg174
Nsbag2
(g3
g4
Ntp1651
Rp1652
(dp1653
g8
g11
sg152
Nsg153
(dp1654
sg155
Nsg26
g29
sg156
(lp1655
I11
aI16
asg158
Nsg159
VZechariah 11:16
p1656
sg161
(lp1657
sg163
g114
sg164
Nsg165
(lp1658
I11
aI16
asg167
Nsg168
g1656
sg169
(lp1659
sg171
g60
sg172
Nsg173
Nsg174
Nsbag2
(g3
g4
Ntp1660
Rp1661
(dp1662
g8
g11
sg152
Nsg153
(dp1663
sg155
Nsg26
g29
sg156
(lp1664
I11
aI17
asg158
Nsg159
VZechariah 11:17
p1665
sg161
(lp1666
sg163
g114
sg164
Nsg165
(lp1667
I11
aI17
asg167
Nsg168
g1665
sg169
(lp1668
sg171
g60
sg172
Nsg173
Nsg174
Nsbag2
(g3
g4
Ntp1669
Rp1670
(dp1671
g8
g11
sg152
Nsg153
(dp1672
sg155
Nsg26
g29
sg156
(lp1673
I12
aI1
asg158
Nsg159
VZechariah 12:1
p1674
sg161
(lp1675
sg163
g114
sg164
Nsg165
(lp1676
I12
aI1
asg167
Nsg168
g1674
sg169
(lp1677
sg171
g60
sg172
Nsg173
Nsg174
Nsbag2
(g3
g4
Ntp1678
Rp1679
(dp1680
g8
g11
sg152
Nsg153
(dp1681
sg155
Nsg26
g29
sg156
(lp1682
I12
aI2
asg158
Nsg159
VZechariah 12:2
p1683
sg161
(lp1684
sg163
g114
sg164
Nsg165
(lp1685
I12
aI2
asg167
Nsg168
g1683
sg169
(lp1686
sg171
g60
sg172
Nsg173
Nsg174
Nsbag2
(g3
g4
Ntp1687
Rp1688
(dp1689
g8
g11
sg152
Nsg153
(dp1690
sg155
Nsg26
g29
sg156
(lp1691
I12
aI3
asg158
Nsg159
VZechariah 12:3
p1692
sg161
(lp1693
sg163
g114
sg164
Nsg165
(lp1694
I12
aI3
asg167
Nsg168
g1692
sg169
(lp1695
sg171
g60
sg172
Nsg173
Nsg174
Nsbag2
(g3
g4
Ntp1696
Rp1697
(dp1698
g8
g11
sg152
Nsg153
(dp1699
sg155
Nsg26
g29
sg156
(lp1700
I12
aI4
asg158
Nsg159
VZechariah 12:4
p1701
sg161
(lp1702
sg163
g114
sg164
Nsg165
(lp1703
I12
aI4
asg167
Nsg168
g1701
sg169
(lp1704
sg171
g60
sg172
Nsg173
Nsg174
Nsbag2
(g3
g4
Ntp1705
Rp1706
(dp1707
g8
g11
sg152
Nsg153
(dp1708
sg155
Nsg26
g29
sg156
(lp1709
I12
aI5
asg158
Nsg159
VZechariah 12:5
p1710
sg161
(lp1711
sg163
g114
sg164
Nsg165
(lp1712
I12
aI5
asg167
Nsg168
g1710
sg169
(lp1713
sg171
g60
sg172
Nsg173
Nsg174
Nsbag2
(g3
g4
Ntp1714
Rp1715
(dp1716
g8
g11
sg152
Nsg153
(dp1717
sg155
Nsg26
g29
sg156
(lp1718
I12
aI6
asg158
Nsg159
VZechariah 12:6
p1719
sg161
(lp1720
sg163
g114
sg164
Nsg165
(lp1721
I12
aI6
asg167
Nsg168
g1719
sg169
(lp1722
sg171
g60
sg172
Nsg173
Nsg174
Nsbag2
(g3
g4
Ntp1723
Rp1724
(dp1725
g8
g11
sg152
Nsg153
(dp1726
sg155
Nsg26
g29
sg156
(lp1727
I12
aI7
asg158
Nsg159
VZechariah 12:7
p1728
sg161
(lp1729
sg163
g114
sg164
Nsg165
(lp1730
I12
aI7
asg167
Nsg168
g1728
sg169
(lp1731
sg171
g60
sg172
Nsg173
Nsg174
Nsbag2
(g3
g4
Ntp1732
Rp1733
(dp1734
g8
g11
sg152
Nsg153
(dp1735
sg155
Nsg26
g29
sg156
(lp1736
I12
aI8
asg158
Nsg159
VZechariah 12:8
p1737
sg161
(lp1738
sg163
g114
sg164
Nsg165
(lp1739
I12
aI8
asg167
Nsg168
g1737
sg169
(lp1740
sg171
g60
sg172
Nsg173
Nsg174
Nsbag2
(g3
g4
Ntp1741
Rp1742
(dp1743
g8
g11
sg152
Nsg153
(dp1744
sg155
Nsg26
g29
sg156
(lp1745
I12
aI9
asg158
Nsg159
VZechariah 12:9
p1746
sg161
(lp1747
sg163
g114
sg164
Nsg165
(lp1748
I12
aI9
asg167
Nsg168
g1746
sg169
(lp1749
sg171
g60
sg172
Nsg173
Nsg174
Nsbag2
(g3
g4
Ntp1750
Rp1751
(dp1752
g8
g11
sg152
Nsg153
(dp1753
sg155
Nsg26
g29
sg156
(lp1754
I12
aI10
asg158
Nsg159
VZechariah 12:10
p1755
sg161
(lp1756
sg163
g114
sg164
Nsg165
(lp1757
I12
aI10
asg167
Nsg168
g1755
sg169
(lp1758
sg171
g60
sg172
Nsg173
Nsg174
Nsbag2
(g3
g4
Ntp1759
Rp1760
(dp1761
g8
g11
sg152
Nsg153
(dp1762
sg155
Nsg26
g29
sg156
(lp1763
I12
aI11
asg158
Nsg159
VZechariah 12:11
p1764
sg161
(lp1765
sg163
g114
sg164
Nsg165
(lp1766
I12
aI11
asg167
Nsg168
g1764
sg169
(lp1767
sg171
g60
sg172
Nsg173
Nsg174
Nsbag2
(g3
g4
Ntp1768
Rp1769
(dp1770
g8
g11
sg152
Nsg153
(dp1771
sg155
Nsg26
g29
sg156
(lp1772
I12
aI12
asg158
Nsg159
VZechariah 12:12
p1773
sg161
(lp1774
sg163
g114
sg164
Nsg165
(lp1775
I12
aI12
asg167
Nsg168
g1773
sg169
(lp1776
sg171
g60
sg172
Nsg173
Nsg174
Nsbag2
(g3
g4
Ntp1777
Rp1778
(dp1779
g8
g11
sg152
Nsg153
(dp1780
sg155
Nsg26
g29
sg156
(lp1781
I12
aI13
asg158
Nsg159
VZechariah 12:13
p1782
sg161
(lp1783
sg163
g114
sg164
Nsg165
(lp1784
I12
aI13
asg167
Nsg168
g1782
sg169
(lp1785
sg171
g60
sg172
Nsg173
Nsg174
Nsbag2
(g3
g4
Ntp1786
Rp1787
(dp1788
g8
g11
sg152
Nsg153
(dp1789
sg155
Nsg26
g29
sg156
(lp1790
I12
aI14
asg158
Nsg159
VZechariah 12:14
p1791
sg161
(lp1792
sg163
g114
sg164
Nsg165
(lp1793
I12
aI14
asg167
Nsg168
g1791
sg169
(lp1794
sg171
g60
sg172
Nsg173
Nsg174
Nsbag2
(g3
g4
Ntp1795
Rp1796
(dp1797
g8
g11
sg152
Nsg153
(dp1798
sg155
Nsg26
g29
sg156
(lp1799
I13
aI1
asg158
Nsg159
VZechariah 13:1
p1800
sg161
(lp1801
sg163
g114
sg164
Nsg165
(lp1802
I13
aI1
asg167
Nsg168
g1800
sg169
(lp1803
sg171
g60
sg172
Nsg173
Nsg174
Nsbag2
(g3
g4
Ntp1804
Rp1805
(dp1806
g8
g11
sg152
Nsg153
(dp1807
sg155
Nsg26
g29
sg156
(lp1808
I13
aI2
asg158
Nsg159
VZechariah 13:2
p1809
sg161
(lp1810
sg163
g114
sg164
Nsg165
(lp1811
I13
aI2
asg167
Nsg168
g1809
sg169
(lp1812
sg171
g60
sg172
Nsg173
Nsg174
Nsbag2
(g3
g4
Ntp1813
Rp1814
(dp1815
g8
g11
sg152
Nsg153
(dp1816
sg155
Nsg26
g29
sg156
(lp1817
I13
aI3
asg158
Nsg159
VZechariah 13:3
p1818
sg161
(lp1819
sg163
g114
sg164
Nsg165
(lp1820
I13
aI3
asg167
Nsg168
g1818
sg169
(lp1821
sg171
g60
sg172
Nsg173
Nsg174
Nsbag2
(g3
g4
Ntp1822
Rp1823
(dp1824
g8
g11
sg152
Nsg153
(dp1825
sg155
Nsg26
g29
sg156
(lp1826
I13
aI4
asg158
Nsg159
VZechariah 13:4
p1827
sg161
(lp1828
sg163
g114
sg164
Nsg165
(lp1829
I13
aI4
asg167
Nsg168
g1827
sg169
(lp1830
sg171
g60
sg172
Nsg173
Nsg174
Nsbag2
(g3
g4
Ntp1831
Rp1832
(dp1833
g8
g11
sg152
Nsg153
(dp1834
sg155
Nsg26
g29
sg156
(lp1835
I13
aI5
asg158
Nsg159
VZechariah 13:5
p1836
sg161
(lp1837
sg163
g114
sg164
Nsg165
(lp1838
I13
aI5
asg167
Nsg168
g1836
sg169
(lp1839
sg171
g60
sg172
Nsg173
Nsg174
Nsbag2
(g3
g4
Ntp1840
Rp1841
(dp1842
g8
g11
sg152
Nsg153
(dp1843
sg155
Nsg26
g29
sg156
(lp1844
I13
aI6
asg158
Nsg159
VZechariah 13:6
p1845
sg161
(lp1846
sg163
g114
sg164
Nsg165
(lp1847
I13
aI6
asg167
Nsg168
g1845
sg169
(lp1848
sg171
g60
sg172
Nsg173
Nsg174
Nsbag2
(g3
g4
Ntp1849
Rp1850
(dp1851
g8
g11
sg152
Nsg153
(dp1852
sg155
Nsg26
g29
sg156
(lp1853
I13
aI7
asg158
Nsg159
VZechariah 13:7
p1854
sg161
(lp1855
sg163
g114
sg164
Nsg165
(lp1856
I13
aI7
asg167
Nsg168
g1854
sg169
(lp1857
sg171
g60
sg172
Nsg173
Nsg174
Nsbag2
(g3
g4
Ntp1858
Rp1859
(dp1860
g8
g11
sg152
Nsg153
(dp1861
sg155
Nsg26
g29
sg156
(lp1862
I13
aI8
asg158
Nsg159
VZechariah 13:8
p1863
sg161
(lp1864
sg163
g114
sg164
Nsg165
(lp1865
I13
aI8
asg167
Nsg168
g1863
sg169
(lp1866
sg171
g60
sg172
Nsg173
Nsg174
Nsbag2
(g3
g4
Ntp1867
Rp1868
(dp1869
g8
g11
sg152
Nsg153
(dp1870
sg155
Nsg26
g29
sg156
(lp1871
I13
aI9
asg158
Nsg159
VZechariah 13:9
p1872
sg161
(lp1873
sg163
g114
sg164
Nsg165
(lp1874
I13
aI9
asg167
Nsg168
g1872
sg169
(lp1875
sg171
g60
sg172
Nsg173
Nsg174
Nsbag2
(g3
g4
Ntp1876
Rp1877
(dp1878
g8
g11
sg152
Nsg153
(dp1879
sg155
Nsg26
g29
sg156
(lp1880
I14
aI1
asg158
Nsg159
VZechariah 14:1
p1881
sg161
(lp1882
sg163
g114
sg164
Nsg165
(lp1883
I14
aI1
asg167
Nsg168
g1881
sg169
(lp1884
sg171
g60
sg172
Nsg173
Nsg174
Nsbag2
(g3
g4
Ntp1885
Rp1886
(dp1887
g8
g11
sg152
Nsg153
(dp1888
sg155
Nsg26
g29
sg156
(lp1889
I14
aI2
asg158
Nsg159
VZechariah 14:2
p1890
sg161
(lp1891
sg163
g114
sg164
Nsg165
(lp1892
I14
aI2
asg167
Nsg168
g1890
sg169
(lp1893
sg171
g60
sg172
Nsg173
Nsg174
Nsbag2
(g3
g4
Ntp1894
Rp1895
(dp1896
g8
g11
sg152
Nsg153
(dp1897
sg155
Nsg26
g29
sg156
(lp1898
I14
aI3
asg158
Nsg159
VZechariah 14:3
p1899
sg161
(lp1900
sg163
g114
sg164
Nsg165
(lp1901
I14
aI3
asg167
Nsg168
g1899
sg169
(lp1902
sg171
g60
sg172
Nsg173
Nsg174
Nsbag2
(g3
g4
Ntp1903
Rp1904
(dp1905
g8
g11
sg152
Nsg153
(dp1906
sg155
Nsg26
g29
sg156
(lp1907
I14
aI4
asg158
Nsg159
VZechariah 14:4
p1908
sg161
(lp1909
sg163
g114
sg164
Nsg165
(lp1910
I14
aI4
asg167
Nsg168
g1908
sg169
(lp1911
sg171
g60
sg172
Nsg173
Nsg174
Nsbag2
(g3
g4
Ntp1912
Rp1913
(dp1914
g8
g11
sg152
Nsg153
(dp1915
sg155
Nsg26
g29
sg156
(lp1916
I14
aI5
asg158
Nsg159
VZechariah 14:5
p1917
sg161
(lp1918
sg163
g114
sg164
Nsg165
(lp1919
I14
aI5
asg167
Nsg168
g1917
sg169
(lp1920
sg171
g60
sg172
Nsg173
Nsg174
Nsbag2
(g3
g4
Ntp1921
Rp1922
(dp1923
g8
g11
sg152
Nsg153
(dp1924
sg155
Nsg26
g29
sg156
(lp1925
I14
aI6
asg158
Nsg159
VZechariah 14:6
p1926
sg161
(lp1927
sg163
g114
sg164
Nsg165
(lp1928
I14
aI6
asg167
Nsg168
g1926
sg169
(lp1929
sg171
g60
sg172
Nsg173
Nsg174
Nsbag2
(g3
g4
Ntp1930
Rp1931
(dp1932
g8
g11
sg152
Nsg153
(dp1933
sg155
Nsg26
g29
sg156
(lp1934
I14
aI7
asg158
Nsg159
VZechariah 14:7
p1935
sg161
(lp1936
sg163
g114
sg164
Nsg165
(lp1937
I14
aI7
asg167
Nsg168
g1935
sg169
(lp1938
sg171
g60
sg172
Nsg173
Nsg174
Nsbag2
(g3
g4
Ntp1939
Rp1940
(dp1941
g8
g11
sg152
Nsg153
(dp1942
sg155
Nsg26
g29
sg156
(lp1943
I14
aI8
asg158
Nsg159
VZechariah 14:8
p1944
sg161
(lp1945
sg163
g114
sg164
Nsg165
(lp1946
I14
aI8
asg167
Nsg168
g1944
sg169
(lp1947
sg171
g60
sg172
Nsg173
Nsg174
Nsbag2
(g3
g4
Ntp1948
Rp1949
(dp1950
g8
g11
sg152
Nsg153
(dp1951
sg155
Nsg26
g29
sg156
(lp1952
I14
aI9
asg158
Nsg159
VZechariah 14:9
p1953
sg161
(lp1954
sg163
g114
sg164
Nsg165
(lp1955
I14
aI9
asg167
Nsg168
g1953
sg169
(lp1956
sg171
g60
sg172
Nsg173
Nsg174
Nsbag2
(g3
g4
Ntp1957
Rp1958
(dp1959
g8
g11
sg152
Nsg153
(dp1960
sg155
Nsg26
g29
sg156
(lp1961
I14
aI10
asg158
Nsg159
VZechariah 14:10
p1962
sg161
(lp1963
sg163
g114
sg164
Nsg165
(lp1964
I14
aI10
asg167
Nsg168
g1962
sg169
(lp1965
sg171
g60
sg172
Nsg173
Nsg174
Nsbag2
(g3
g4
Ntp1966
Rp1967
(dp1968
g8
g11
sg152
Nsg153
(dp1969
sg155
Nsg26
g29
sg156
(lp1970
I14
aI11
asg158
Nsg159
VZechariah 14:11
p1971
sg161
(lp1972
sg163
g114
sg164
Nsg165
(lp1973
I14
aI11
asg167
Nsg168
g1971
sg169
(lp1974
sg171
g60
sg172
Nsg173
Nsg174
Nsbag2
(g3
g4
Ntp1975
Rp1976
(dp1977
g8
g11
sg152
Nsg153
(dp1978
sg155
Nsg26
g29
sg156
(lp1979
I14
aI12
asg158
Nsg159
VZechariah 14:12
p1980
sg161
(lp1981
sg163
g114
sg164
Nsg165
(lp1982
I14
aI12
asg167
Nsg168
g1980
sg169
(lp1983
sg171
g60
sg172
Nsg173
Nsg174
Nsbag2
(g3
g4
Ntp1984
Rp1985
(dp1986
g8
g11
sg152
Nsg153
(dp1987
sg155
Nsg26
g29
sg156
(lp1988
I14
aI13
asg158
Nsg159
VZechariah 14:13
p1989
sg161
(lp1990
sg163
g114
sg164
Nsg165
(lp1991
I14
aI13
asg167
Nsg168
g1989
sg169
(lp1992
sg171
g60
sg172
Nsg173
Nsg174
Nsbag2
(g3
g4
Ntp1993
Rp1994
(dp1995
g8
g11
sg152
Nsg153
(dp1996
sg155
Nsg26
g29
sg156
(lp1997
I14
aI14
asg158
Nsg159
VZechariah 14:14
p1998
sg161
(lp1999
sg163
g114
sg164
Nsg165
(lp2000
I14
aI14
asg167
Nsg168
g1998
sg169
(lp2001
sg171
g60
sg172
Nsg173
Nsg174
Nsbag2
(g3
g4
Ntp2002
Rp2003
(dp2004
g8
g11
sg152
Nsg153
(dp2005
sg155
Nsg26
g29
sg156
(lp2006
I14
aI15
asg158
Nsg159
VZechariah 14:15
p2007
sg161
(lp2008
sg163
g114
sg164
Nsg165
(lp2009
I14
aI15
asg167
Nsg168
g2007
sg169
(lp2010
sg171
g60
sg172
Nsg173
Nsg174
Nsbag2
(g3
g4
Ntp2011
Rp2012
(dp2013
g8
g11
sg152
Nsg153
(dp2014
sg155
Nsg26
g29
sg156
(lp2015
I14
aI16
asg158
Nsg159
VZechariah 14:16
p2016
sg161
(lp2017
sg163
g114
sg164
Nsg165
(lp2018
I14
aI16
asg167
Nsg168
g2016
sg169
(lp2019
sg171
g60
sg172
Nsg173
Nsg174
Nsbag2
(g3
g4
Ntp2020
Rp2021
(dp2022
g8
g11
sg152
Nsg153
(dp2023
sg155
Nsg26
g29
sg156
(lp2024
I14
aI17
asg158
Nsg159
VZechariah 14:17
p2025
sg161
(lp2026
sg163
g114
sg164
Nsg165
(lp2027
I14
aI17
asg167
Nsg168
g2025
sg169
(lp2028
sg171
g60
sg172
Nsg173
Nsg174
Nsbag2
(g3
g4
Ntp2029
Rp2030
(dp2031
g8
g11
sg152
Nsg153
(dp2032
sg155
Nsg26
g29
sg156
(lp2033
I14
aI18
asg158
Nsg159
VZechariah 14:18
p2034
sg161
(lp2035
sg163
g114
sg164
Nsg165
(lp2036
I14
aI18
asg167
Nsg168
g2034
sg169
(lp2037
sg171
g60
sg172
Nsg173
Nsg174
Nsbag2
(g3
g4
Ntp2038
Rp2039
(dp2040
g8
g11
sg152
Nsg153
(dp2041
sg155
Nsg26
g29
sg156
(lp2042
I14
aI19
asg158
Nsg159
VZechariah 14:19
p2043
sg161
(lp2044
sg163
g114
sg164
Nsg165
(lp2045
I14
aI19
asg167
Nsg168
g2043
sg169
(lp2046
sg171
g60
sg172
Nsg173
Nsg174
Nsbag2
(g3
g4
Ntp2047
Rp2048
(dp2049
g8
g11
sg152
Nsg153
(dp2050
sg155
Nsg26
g29
sg156
(lp2051
I14
aI20
asg158
Nsg159
VZechariah 14:20
p2052
sg161
(lp2053
sg163
g114
sg164
Nsg165
(lp2054
I14
aI20
asg167
Nsg168
g2052
sg169
(lp2055
sg171
g60
sg172
Nsg173
Nsg174
Nsbag2
(g3
g4
Ntp2056
Rp2057
(dp2058
g8
g11
sg152
Nsg153
(dp2059
sg155
Nsg26
g29
sg156
(lp2060
I14
aI21
asg158
Nsg159
VZechariah 14:21
p2061
sg161
(lp2062
sg163
g114
sg164
Nsg165
(lp2063
I14
aI21
asg167
Nsg168
g2061
sg169
(lp2064
sg171
g60
sg172
Nsg173
Nsg174
Nsbatp2065
.