((lp0
I0
aI15
aI23
aI42
aI62
aI74
aI85
aI99
aI114
aI127
aI142
aI154
aI174
aI189
aI203
aI219
aI228
aI240
aI264
aI269
aI289
aI307
aI318
aI333
aI341
aI359
aI372
aI401
aI412
aI428
aI434
aI447
aI467
aI488
aI493
aI506
aI516
aI525
aI542
aI556
aI574
aI600
aI614
aI622
aI643
aI651
aI670
aI681
aI694
aI704
aI717
aI725
aI743
a(lp1
ccopy_reg
_reconstructor
p2
(csefaria.model.text
Ref
p3
c__builtin__
object
p4
Ntp5
Rp6
(dp7
S'index_node'
p8
g2
(csefaria.model.schema
JaggedArrayNode
p9
g4
Ntp10
Rp11
(dp12
S'_address'
p13
(lp14
VZephaniah
p15
asS'_full_titles'
p16
(dp17
sVnodeType
p18
VJaggedArrayNode
p19
sS'parent'
p20
NsVaddressTypes
p21
(lp22
VInteger
p23
aVInteger
p24
asS'default'
p25
I00
sS'index'
p26
g2
(csefaria.model.text
Index
p27
g4
Ntp28
Rp29
(dp30
S'_id'
p31
g2
(cbson.objectid
ObjectId
p32
g4
Ntp33
Rp34
S'NJ\xb8l\xed\xba\xb4X3\x00\x00\x16'
p35
bsS'pkeys_orig_values'
p36
(dp37
S'title'
p38
VZephaniah
p39
ssS'pubDate'
p40
V1488
p41
sS'compDate'
p42
V-550
p43
sS'pubPlace'
p44
VSoncino
p45
sS'compPlace'
p46
VJudea/Israel
p47
sS'enDesc'
p48
VThe Book of Zephaniah is the ninth of the Tere Asar (Twelve Minor Prophets). The term denotes the short length of the text in relation to the longer prophetic texts known as the Major Prophets. The superscription attributes its authorship to Zephaniah son of Cushi son of Gedaliah son of Amariah son of Hezekiah. Zephaniah devotes most of his energies to accomplishing a change in the behaviour of Israel through the threat of future calamity. He conceives of a date in the future when the Lord will judge all the people of the earth. This coming judgment will affect all of the nations, including the author\u2019s own nation of Judah . The threats made against Jerusalem, however, are much more specific than the prophecies concerning foreign nations. This strengthened the belief that the Israelites, God\u2019s chosen nations, were even more culpable than other nations. The book concludes by extending a promise of deliverance to the remnant of Israel from Babylonian captivity.
p49
sS'order'
p50
(lp51
I23
aI18
asS'struct_objs'
p52
(dp53
sS'nodes'
p54
g11
sS'errorMargin'
p55
V100
p56
sS'_title'
p57
g39
sS'categories'
p58
(lp59
VTanakh
p60
aVProphets
p61
asS'schema'
p62
(dp63
g18
g19
sg21
g22
sVlengths
p64
(lp65
I3
aI53
asVdepth
p66
I2
sVtitles
p67
(lp68
(dp69
Vlang
p70
Ven
p71
sVtext
p72
VZeph.
p73
sa(dp74
Vlang
p75
Ven
p76
sVtext
p77
VTzephaniah
p78
sa(dp79
Vlang
p80
Ven
p81
sVtext
p82
VZeph
p83
sa(dp84
Vlang
p85
Vhe
p86
sVtext
p87
V\u05e6\u05e4\u05e0\u05d9\u05d4
p88
sVprimary
p89
I01
sa(dp90
Vlang
p91
Ven
p92
sVtext
p93
VZephaniah
p94
sVprimary
p95
I01
sasVkey
p96
g15
sVsectionNames
p97
(lp98
VChapter
p99
aVVerse
p100
assbsS'_primary_title'
p101
(dp102
sS'title_group'
p103
g2
(csefaria.model.schema
TitleGroup
p104
g4
Ntp105
Rp106
(dp107
g101
(dp108
S'en'
p109
g94
ssS'titles'
p110
g68
sbsS'_addressTypes'
p111
(lp112
g2
(csefaria.model.schema
AddressInteger
p113
g4
Ntp114
Rp115
(dp116
S'length'
p117
I3
sg50
I0
sbag2
(g113
g4
Ntp118
Rp119
(dp120
g117
Nsg50
I1
sbasS'sharedTitle'
p121
Nsg64
g65
sg66
I2
sS'_full_title'
p122
(dp123
g109
g94
ssS'key'
p124
g15
sS'checkFirst'
p125
NsS'_regexes'
p126
(dp127
sS'_leaf_nodes'
p128
(lp129
sg97
g98
sS'children'
p130
(lp131
sbsS'_range_index'
p132
NsS'_context'
p133
(dp134
sS'_padded'
p135
Nsg26
g29
sS'sections'
p136
(lp137
I1
aI1
asS'_first_spanned_ref'
p138
NsS'tref'
p139
VZephaniah 1:1
p140
sS'_spanned_refs'
p141
(lp142
sS'book'
p143
g94
sS'_range_depth'
p144
NsS'toSections'
p145
(lp146
I1
aI1
asS'_url'
p147
NsS'_normal'
p148
g140
sS'_ranged_refs'
p149
(lp150
sS'type'
p151
g60
sS'_prev'
p152
NsS'_he_normal'
p153
NsS'_next'
p154
Nsbag2
(g3
g4
Ntp155
Rp156
(dp157
g8
g11
sg132
Nsg133
(dp158
sg135
Nsg26
g29
sg136
(lp159
I1
aI2
asg138
Nsg139
VZephaniah 1:2
p160
sg141
(lp161
sg143
g94
sg144
Nsg145
(lp162
I1
aI2
asg147
Nsg148
g160
sg149
(lp163
sg151
g60
sg152
Nsg153
Nsg154
Nsbag2
(g3
g4
Ntp164
Rp165
(dp166
g8
g11
sg132
Nsg133
(dp167
sg135
Nsg26
g29
sg136
(lp168
I1
aI3
asg138
Nsg139
VZephaniah 1:3
p169
sg141
(lp170
sg143
g94
sg144
Nsg145
(lp171
I1
aI3
asg147
Nsg148
g169
sg149
(lp172
sg151
g60
sg152
Nsg153
Nsg154
Nsbag2
(g3
g4
Ntp173
Rp174
(dp175
g8
g11
sg132
Nsg133
(dp176
sg135
Nsg26
g29
sg136
(lp177
I1
aI4
asg138
Nsg139
VZephaniah 1:4
p178
sg141
(lp179
sg143
g94
sg144
Nsg145
(lp180
I1
aI4
asg147
Nsg148
g178
sg149
(lp181
sg151
g60
sg152
Nsg153
Nsg154
Nsbag2
(g3
g4
Ntp182
Rp183
(dp184
g8
g11
sg132
Nsg133
(dp185
sg135
Nsg26
g29
sg136
(lp186
I1
aI5
asg138
Nsg139
VZephaniah 1:5
p187
sg141
(lp188
sg143
g94
sg144
Nsg145
(lp189
I1
aI5
asg147
Nsg148
g187
sg149
(lp190
sg151
g60
sg152
Nsg153
Nsg154
Nsbag2
(g3
g4
Ntp191
Rp192
(dp193
g8
g11
sg132
Nsg133
(dp194
sg135
Nsg26
g29
sg136
(lp195
I1
aI6
asg138
Nsg139
VZephaniah 1:6
p196
sg141
(lp197
sg143
g94
sg144
Nsg145
(lp198
I1
aI6
asg147
Nsg148
g196
sg149
(lp199
sg151
g60
sg152
Nsg153
Nsg154
Nsbag2
(g3
g4
Ntp200
Rp201
(dp202
g8
g11
sg132
Nsg133
(dp203
sg135
Nsg26
g29
sg136
(lp204
I1
aI7
asg138
Nsg139
VZephaniah 1:7
p205
sg141
(lp206
sg143
g94
sg144
Nsg145
(lp207
I1
aI7
asg147
Nsg148
g205
sg149
(lp208
sg151
g60
sg152
Nsg153
Nsg154
Nsbag2
(g3
g4
Ntp209
Rp210
(dp211
g8
g11
sg132
Nsg133
(dp212
sg135
Nsg26
g29
sg136
(lp213
I1
aI8
asg138
Nsg139
VZephaniah 1:8
p214
sg141
(lp215
sg143
g94
sg144
Nsg145
(lp216
I1
aI8
asg147
Nsg148
g214
sg149
(lp217
sg151
g60
sg152
Nsg153
Nsg154
Nsbag2
(g3
g4
Ntp218
Rp219
(dp220
g8
g11
sg132
Nsg133
(dp221
sg135
Nsg26
g29
sg136
(lp222
I1
aI9
asg138
Nsg139
VZephaniah 1:9
p223
sg141
(lp224
sg143
g94
sg144
Nsg145
(lp225
I1
aI9
asg147
Nsg148
g223
sg149
(lp226
sg151
g60
sg152
Nsg153
Nsg154
Nsbag2
(g3
g4
Ntp227
Rp228
(dp229
g8
g11
sg132
Nsg133
(dp230
sg135
Nsg26
g29
sg136
(lp231
I1
aI10
asg138
Nsg139
VZephaniah 1:10
p232
sg141
(lp233
sg143
g94
sg144
Nsg145
(lp234
I1
aI10
asg147
Nsg148
g232
sg149
(lp235
sg151
g60
sg152
Nsg153
Nsg154
Nsbag2
(g3
g4
Ntp236
Rp237
(dp238
g8
g11
sg132
Nsg133
(dp239
sg135
Nsg26
g29
sg136
(lp240
I1
aI11
asg138
Nsg139
VZephaniah 1:11
p241
sg141
(lp242
sg143
g94
sg144
Nsg145
(lp243
I1
aI11
asg147
Nsg148
g241
sg149
(lp244
sg151
g60
sg152
Nsg153
Nsg154
Nsbag2
(g3
g4
Ntp245
Rp246
(dp247
g8
g11
sg132
Nsg133
(dp248
sg135
Nsg26
g29
sg136
(lp249
I1
aI12
asg138
Nsg139
VZephaniah 1:12
p250
sg141
(lp251
sg143
g94
sg144
Nsg145
(lp252
I1
aI12
asg147
Nsg148
g250
sg149
(lp253
sg151
g60
sg152
Nsg153
Nsg154
Nsbag2
(g3
g4
Ntp254
Rp255
(dp256
g8
g11
sg132
Nsg133
(dp257
sg135
Nsg26
g29
sg136
(lp258
I1
aI13
asg138
Nsg139
VZephaniah 1:13
p259
sg141
(lp260
sg143
g94
sg144
Nsg145
(lp261
I1
aI13
asg147
Nsg148
g259
sg149
(lp262
sg151
g60
sg152
Nsg153
Nsg154
Nsbag2
(g3
g4
Ntp263
Rp264
(dp265
g8
g11
sg132
Nsg133
(dp266
sg135
Nsg26
g29
sg136
(lp267
I1
aI14
asg138
Nsg139
VZephaniah 1:14
p268
sg141
(lp269
sg143
g94
sg144
Nsg145
(lp270
I1
aI14
asg147
Nsg148
g268
sg149
(lp271
sg151
g60
sg152
Nsg153
Nsg154
Nsbag2
(g3
g4
Ntp272
Rp273
(dp274
g8
g11
sg132
Nsg133
(dp275
sg135
Nsg26
g29
sg136
(lp276
I1
aI15
asg138
Nsg139
VZephaniah 1:15
p277
sg141
(lp278
sg143
g94
sg144
Nsg145
(lp279
I1
aI15
asg147
Nsg148
g277
sg149
(lp280
sg151
g60
sg152
Nsg153
Nsg154
Nsbag2
(g3
g4
Ntp281
Rp282
(dp283
g8
g11
sg132
Nsg133
(dp284
sg135
Nsg26
g29
sg136
(lp285
I1
aI16
asg138
Nsg139
VZephaniah 1:16
p286
sg141
(lp287
sg143
g94
sg144
Nsg145
(lp288
I1
aI16
asg147
Nsg148
g286
sg149
(lp289
sg151
g60
sg152
Nsg153
Nsg154
Nsbag2
(g3
g4
Ntp290
Rp291
(dp292
g8
g11
sg132
Nsg133
(dp293
sg135
Nsg26
g29
sg136
(lp294
I1
aI17
asg138
Nsg139
VZephaniah 1:17
p295
sg141
(lp296
sg143
g94
sg144
Nsg145
(lp297
I1
aI17
asg147
Nsg148
g295
sg149
(lp298
sg151
g60
sg152
Nsg153
Nsg154
Nsbag2
(g3
g4
Ntp299
Rp300
(dp301
g8
g11
sg132
Nsg133
(dp302
sg135
Nsg26
g29
sg136
(lp303
I1
aI18
asg138
Nsg139
VZephaniah 1:18
p304
sg141
(lp305
sg143
g94
sg144
Nsg145
(lp306
I1
aI18
asg147
Nsg148
g304
sg149
(lp307
sg151
g60
sg152
Nsg153
Nsg154
Nsbag2
(g3
g4
Ntp308
Rp309
(dp310
g8
g11
sg132
Nsg133
(dp311
sg135
Nsg26
g29
sg136
(lp312
I2
aI1
asg138
Nsg139
VZephaniah 2:1
p313
sg141
(lp314
sg143
g94
sg144
Nsg145
(lp315
I2
aI1
asg147
Nsg148
g313
sg149
(lp316
sg151
g60
sg152
Nsg153
Nsg154
Nsbag2
(g3
g4
Ntp317
Rp318
(dp319
g8
g11
sg132
Nsg133
(dp320
sg135
Nsg26
g29
sg136
(lp321
I2
aI2
asg138
Nsg139
VZephaniah 2:2
p322
sg141
(lp323
sg143
g94
sg144
Nsg145
(lp324
I2
aI2
asg147
Nsg148
g322
sg149
(lp325
sg151
g60
sg152
Nsg153
Nsg154
Nsbag2
(g3
g4
Ntp326
Rp327
(dp328
g8
g11
sg132
Nsg133
(dp329
sg135
Nsg26
g29
sg136
(lp330
I2
aI3
asg138
Nsg139
VZephaniah 2:3
p331
sg141
(lp332
sg143
g94
sg144
Nsg145
(lp333
I2
aI3
asg147
Nsg148
g331
sg149
(lp334
sg151
g60
sg152
Nsg153
Nsg154
Nsbag2
(g3
g4
Ntp335
Rp336
(dp337
g8
g11
sg132
Nsg133
(dp338
sg135
Nsg26
g29
sg136
(lp339
I2
aI4
asg138
Nsg139
VZephaniah 2:4
p340
sg141
(lp341
sg143
g94
sg144
Nsg145
(lp342
I2
aI4
asg147
Nsg148
g340
sg149
(lp343
sg151
g60
sg152
Nsg153
Nsg154
Nsbag2
(g3
g4
Ntp344
Rp345
(dp346
g8
g11
sg132
Nsg133
(dp347
sg135
Nsg26
g29
sg136
(lp348
I2
aI5
asg138
Nsg139
VZephaniah 2:5
p349
sg141
(lp350
sg143
g94
sg144
Nsg145
(lp351
I2
aI5
asg147
Nsg148
g349
sg149
(lp352
sg151
g60
sg152
Nsg153
Nsg154
Nsbag2
(g3
g4
Ntp353
Rp354
(dp355
g8
g11
sg132
Nsg133
(dp356
sg135
Nsg26
g29
sg136
(lp357
I2
aI6
asg138
Nsg139
VZephaniah 2:6
p358
sg141
(lp359
sg143
g94
sg144
Nsg145
(lp360
I2
aI6
asg147
Nsg148
g358
sg149
(lp361
sg151
g60
sg152
Nsg153
Nsg154
Nsbag2
(g3
g4
Ntp362
Rp363
(dp364
g8
g11
sg132
Nsg133
(dp365
sg135
Nsg26
g29
sg136
(lp366
I2
aI7
asg138
Nsg139
VZephaniah 2:7
p367
sg141
(lp368
sg143
g94
sg144
Nsg145
(lp369
I2
aI7
asg147
Nsg148
g367
sg149
(lp370
sg151
g60
sg152
Nsg153
Nsg154
Nsbag2
(g3
g4
Ntp371
Rp372
(dp373
g8
g11
sg132
Nsg133
(dp374
sg135
Nsg26
g29
sg136
(lp375
I2
aI8
asg138
Nsg139
VZephaniah 2:8
p376
sg141
(lp377
sg143
g94
sg144
Nsg145
(lp378
I2
aI8
asg147
Nsg148
g376
sg149
(lp379
sg151
g60
sg152
Nsg153
Nsg154
Nsbag2
(g3
g4
Ntp380
Rp381
(dp382
g8
g11
sg132
Nsg133
(dp383
sg135
Nsg26
g29
sg136
(lp384
I2
aI9
asg138
Nsg139
VZephaniah 2:9
p385
sg141
(lp386
sg143
g94
sg144
Nsg145
(lp387
I2
aI9
asg147
Nsg148
g385
sg149
(lp388
sg151
g60
sg152
Nsg153
Nsg154
Nsbag2
(g3
g4
Ntp389
Rp390
(dp391
g8
g11
sg132
Nsg133
(dp392
sg135
Nsg26
g29
sg136
(lp393
I2
aI10
asg138
Nsg139
VZephaniah 2:10
p394
sg141
(lp395
sg143
g94
sg144
Nsg145
(lp396
I2
aI10
asg147
Nsg148
g394
sg149
(lp397
sg151
g60
sg152
Nsg153
Nsg154
Nsbag2
(g3
g4
Ntp398
Rp399
(dp400
g8
g11
sg132
Nsg133
(dp401
sg135
Nsg26
g29
sg136
(lp402
I2
aI11
asg138
Nsg139
VZephaniah 2:11
p403
sg141
(lp404
sg143
g94
sg144
Nsg145
(lp405
I2
aI11
asg147
Nsg148
g403
sg149
(lp406
sg151
g60
sg152
Nsg153
Nsg154
Nsbag2
(g3
g4
Ntp407
Rp408
(dp409
g8
g11
sg132
Nsg133
(dp410
sg135
Nsg26
g29
sg136
(lp411
I2
aI12
asg138
Nsg139
VZephaniah 2:12
p412
sg141
(lp413
sg143
g94
sg144
Nsg145
(lp414
I2
aI12
asg147
Nsg148
g412
sg149
(lp415
sg151
g60
sg152
Nsg153
Nsg154
Nsbag2
(g3
g4
Ntp416
Rp417
(dp418
g8
g11
sg132
Nsg133
(dp419
sg135
Nsg26
g29
sg136
(lp420
I2
aI13
asg138
Nsg139
VZephaniah 2:13
p421
sg141
(lp422
sg143
g94
sg144
Nsg145
(lp423
I2
aI13
asg147
Nsg148
g421
sg149
(lp424
sg151
g60
sg152
Nsg153
Nsg154
Nsbag2
(g3
g4
Ntp425
Rp426
(dp427
g8
g11
sg132
Nsg133
(dp428
sg135
Nsg26
g29
sg136
(lp429
I2
aI14
asg138
Nsg139
VZephaniah 2:14
p430
sg141
(lp431
sg143
g94
sg144
Nsg145
(lp432
I2
aI14
asg147
Nsg148
g430
sg149
(lp433
sg151
g60
sg152
Nsg153
Nsg154
Nsbag2
(g3
g4
Ntp434
Rp435
(dp436
g8
g11
sg132
Nsg133
(dp437
sg135
Nsg26
g29
sg136
(lp438
I2
aI15
asg138
Nsg139
VZephaniah 2:15
p439
sg141
(lp440
sg143
g94
sg144
Nsg145
(lp441
I2
aI15
asg147
Nsg148
g439
sg149
(lp442
sg151
g60
sg152
Nsg153
Nsg154
Nsbag2
(g3
g4
Ntp443
Rp444
(dp445
g8
g11
sg132
Nsg133
(dp446
sg135
Nsg26
g29
sg136
(lp447
I3
aI1
asg138
Nsg139
VZephaniah 3:1
p448
sg141
(lp449
sg143
g94
sg144
Nsg145
(lp450
I3
aI1
asg147
Nsg148
g448
sg149
(lp451
sg151
g60
sg152
Nsg153
Nsg154
Nsbag2
(g3
g4
Ntp452
Rp453
(dp454
g8
g11
sg132
Nsg133
(dp455
sg135
Nsg26
g29
sg136
(lp456
I3
aI2
asg138
Nsg139
VZephaniah 3:2
p457
sg141
(lp458
sg143
g94
sg144
Nsg145
(lp459
I3
aI2
asg147
Nsg148
g457
sg149
(lp460
sg151
g60
sg152
Nsg153
Nsg154
Nsbag2
(g3
g4
Ntp461
Rp462
(dp463
g8
g11
sg132
Nsg133
(dp464
sg135
Nsg26
g29
sg136
(lp465
I3
aI3
asg138
Nsg139
VZephaniah 3:3
p466
sg141
(lp467
sg143
g94
sg144
Nsg145
(lp468
I3
aI3
asg147
Nsg148
g466
sg149
(lp469
sg151
g60
sg152
Nsg153
Nsg154
Nsbag2
(g3
g4
Ntp470
Rp471
(dp472
g8
g11
sg132
Nsg133
(dp473
sg135
Nsg26
g29
sg136
(lp474
I3
aI4
asg138
Nsg139
VZephaniah 3:4
p475
sg141
(lp476
sg143
g94
sg144
Nsg145
(lp477
I3
aI4
asg147
Nsg148
g475
sg149
(lp478
sg151
g60
sg152
Nsg153
Nsg154
Nsbag2
(g3
g4
Ntp479
Rp480
(dp481
g8
g11
sg132
Nsg133
(dp482
sg135
Nsg26
g29
sg136
(lp483
I3
aI5
asg138
Nsg139
VZephaniah 3:5
p484
sg141
(lp485
sg143
g94
sg144
Nsg145
(lp486
I3
aI5
asg147
Nsg148
g484
sg149
(lp487
sg151
g60
sg152
Nsg153
Nsg154
Nsbag2
(g3
g4
Ntp488
Rp489
(dp490
g8
g11
sg132
Nsg133
(dp491
sg135
Nsg26
g29
sg136
(lp492
I3
aI6
asg138
Nsg139
VZephaniah 3:6
p493
sg141
(lp494
sg143
g94
sg144
Nsg145
(lp495
I3
aI6
asg147
Nsg148
g493
sg149
(lp496
sg151
g60
sg152
Nsg153
Nsg154
Nsbag2
(g3
g4
Ntp497
Rp498
(dp499
g8
g11
sg132
Nsg133
(dp500
sg135
Nsg26
g29
sg136
(lp501
I3
aI7
asg138
Nsg139
VZephaniah 3:7
p502
sg141
(lp503
sg143
g94
sg144
Nsg145
(lp504
I3
aI7
asg147
Nsg148
g502
sg149
(lp505
sg151
g60
sg152
Nsg153
Nsg154
Nsbag2
(g3
g4
Ntp506
Rp507
(dp508
g8
g11
sg132
Nsg133
(dp509
sg135
Nsg26
g29
sg136
(lp510
I3
aI8
asg138
Nsg139
VZephaniah 3:8
p511
sg141
(lp512
sg143
g94
sg144
Nsg145
(lp513
I3
aI8
asg147
Nsg148
g511
sg149
(lp514
sg151
g60
sg152
Nsg153
Nsg154
Nsbag2
(g3
g4
Ntp515
Rp516
(dp517
g8
g11
sg132
Nsg133
(dp518
sg135
Nsg26
g29
sg136
(lp519
I3
aI9
asg138
Nsg139
VZephaniah 3:9
p520
sg141
(lp521
sg143
g94
sg144
Nsg145
(lp522
I3
aI9
asg147
Nsg148
g520
sg149
(lp523
sg151
g60
sg152
Nsg153
Nsg154
Nsbag2
(g3
g4
Ntp524
Rp525
(dp526
g8
g11
sg132
Nsg133
(dp527
sg135
Nsg26
g29
sg136
(lp528
I3
aI10
asg138
Nsg139
VZephaniah 3:10
p529
sg141
(lp530
sg143
g94
sg144
Nsg145
(lp531
I3
aI10
asg147
Nsg148
g529
sg149
(lp532
sg151
g60
sg152
Nsg153
Nsg154
Nsbag2
(g3
g4
Ntp533
Rp534
(dp535
g8
g11
sg132
Nsg133
(dp536
sg135
Nsg26
g29
sg136
(lp537
I3
aI11
asg138
Nsg139
VZephaniah 3:11
p538
sg141
(lp539
sg143
g94
sg144
Nsg145
(lp540
I3
aI11
asg147
Nsg148
g538
sg149
(lp541
sg151
g60
sg152
Nsg153
Nsg154
Nsbag2
(g3
g4
Ntp542
Rp543
(dp544
g8
g11
sg132
Nsg133
(dp545
sg135
Nsg26
g29
sg136
(lp546
I3
aI12
asg138
Nsg139
VZephaniah 3:12
p547
sg141
(lp548
sg143
g94
sg144
Nsg145
(lp549
I3
aI12
asg147
Nsg148
g547
sg149
(lp550
sg151
g60
sg152
Nsg153
Nsg154
Nsbag2
(g3
g4
Ntp551
Rp552
(dp553
g8
g11
sg132
Nsg133
(dp554
sg135
Nsg26
g29
sg136
(lp555
I3
aI13
asg138
Nsg139
VZephaniah 3:13
p556
sg141
(lp557
sg143
g94
sg144
Nsg145
(lp558
I3
aI13
asg147
Nsg148
g556
sg149
(lp559
sg151
g60
sg152
Nsg153
Nsg154
Nsbag2
(g3
g4
Ntp560
Rp561
(dp562
g8
g11
sg132
Nsg133
(dp563
sg135
Nsg26
g29
sg136
(lp564
I3
aI14
asg138
Nsg139
VZephaniah 3:14
p565
sg141
(lp566
sg143
g94
sg144
Nsg145
(lp567
I3
aI14
asg147
Nsg148
g565
sg149
(lp568
sg151
g60
sg152
Nsg153
Nsg154
Nsbag2
(g3
g4
Ntp569
Rp570
(dp571
g8
g11
sg132
Nsg133
(dp572
sg135
Nsg26
g29
sg136
(lp573
I3
aI15
asg138
Nsg139
VZephaniah 3:15
p574
sg141
(lp575
sg143
g94
sg144
Nsg145
(lp576
I3
aI15
asg147
Nsg148
g574
sg149
(lp577
sg151
g60
sg152
Nsg153
Nsg154
Nsbag2
(g3
g4
Ntp578
Rp579
(dp580
g8
g11
sg132
Nsg133
(dp581
sg135
Nsg26
g29
sg136
(lp582
I3
aI16
asg138
Nsg139
VZephaniah 3:16
p583
sg141
(lp584
sg143
g94
sg144
Nsg145
(lp585
I3
aI16
asg147
Nsg148
g583
sg149
(lp586
sg151
g60
sg152
Nsg153
Nsg154
Nsbag2
(g3
g4
Ntp587
Rp588
(dp589
g8
g11
sg132
Nsg133
(dp590
sg135
Nsg26
g29
sg136
(lp591
I3
aI17
asg138
Nsg139
VZephaniah 3:17
p592
sg141
(lp593
sg143
g94
sg144
Nsg145
(lp594
I3
aI17
asg147
Nsg148
g592
sg149
(lp595
sg151
g60
sg152
Nsg153
Nsg154
Nsbag2
(g3
g4
Ntp596
Rp597
(dp598
g8
g11
sg132
Nsg133
(dp599
sg135
Nsg26
g29
sg136
(lp600
I3
aI18
asg138
Nsg139
VZephaniah 3:18
p601
sg141
(lp602
sg143
g94
sg144
Nsg145
(lp603
I3
aI18
asg147
Nsg148
g601
sg149
(lp604
sg151
g60
sg152
Nsg153
Nsg154
Nsbag2
(g3
g4
Ntp605
Rp606
(dp607
g8
g11
sg132
Nsg133
(dp608
sg135
Nsg26
g29
sg136
(lp609
I3
aI19
asg138
Nsg139
VZephaniah 3:19
p610
sg141
(lp611
sg143
g94
sg144
Nsg145
(lp612
I3
aI19
asg147
Nsg148
g610
sg149
(lp613
sg151
g60
sg152
Nsg153
Nsg154
Nsbag2
(g3
g4
Ntp614
Rp615
(dp616
g8
g11
sg132
Nsg133
(dp617
sg135
Nsg26
g29
sg136
(lp618
I3
aI20
asg138
Nsg139
VZephaniah 3:20
p619
sg141
(lp620
sg143
g94
sg144
Nsg145
(lp621
I3
aI20
asg147
Nsg148
g619
sg149
(lp622
sg151
g60
sg152
Nsg153
Nsg154
Nsbatp623
.